
00000                 | 
00000                 | #line 1 "D:/Programowanie/ultibo-propeller/hng012/hng021.p2asm"
00000                 | ' 
00000                 | ' 
00000                 | ' hdmi_base       = 48             'must be a multiple of 8
00000                 | con
00000                 | 	hdmi_base = 48
00000                 | ' _clkfreq        = 345_000_000    'start safe, hubset will do the rest. The clock will be changed to:
00000                 | 	_clkfreq = 345000000
00000                 | ' 
00000                 | ' ' 354_689_500   200x Atari 8-bit PAL,  50x Amiga PAL  - real settings: 49,869-> 354_693_878  - 1.0000123 - mode 0 and 192
00000                 | ' ' 357_954_500   200x Atari 8-bit NTSC, 50x Amiga NTSC - real settings: 49,877-> 357_959_184  - 1.0000131 - mode 256
00000                 | ' 
00000                 | ' ' 319_220_550   180x PAL  - real settings: 51,814-> 319_215_686 - 0.9999848 - mode 64
00000                 | ' ' 322_159_050   180x NTSC - real settings: 37,596-> 322_162_162 - 1.0000097 - mode 320 and 448
00000                 | ' 
00000                 | ' ' 283_751_600   160x PAL  - real settings: 64,908-> 283_750_000 - 0.9999944 - mode 128
00000                 | ' ' 286_363_600   160x NTSC - real settings: 22,315-> 286_363_636 - 1.0000001 - mode 384
00000                 | ' 
00000                 | ' ''--------- VGA DOS color definition constants
00000                 | ' 
00000                 | ' c_black         =    0
00000                 | 	c_black = 0
00000                 | ' c_blue          =  117
00000                 | 	c_blue = 117
00000                 | ' c_green         =  199
00000                 | 	c_green = 199
00000                 | ' c_cyan          =  149
00000                 | 	c_cyan = 149
00000                 | ' c_red           =   39
00000                 | 	c_red = 39
00000                 | ' c_magenta       =   71
00000                 | 	c_magenta = 71
00000                 | ' c_brown         =  246
00000                 | 	c_brown = 246
00000                 | ' c_lightgray     =   10
00000                 | 	c_lightgray = 10
00000                 | ' c_darkgray      =    5
00000                 | 	c_darkgray = 5
00000                 | ' c_lightblue     =  121
00000                 | 	c_lightblue = 121
00000                 | ' c_lightgreen    =  203
00000                 | 	c_lightgreen = 203
00000                 | ' c_lightcyan     =  155
00000                 | 	c_lightcyan = 155
00000                 | ' c_lightred      =   43
00000                 | 	c_lightred = 43
00000                 | ' c_lightmagenta  =   75
00000                 | 	c_lightmagenta = 75
00000                 | ' c_yellow        =  234
00000                 | 	c_yellow = 234
00000                 | ' c_white         =   15
00000                 | 	c_white = 15
00000                 | ' 
00000                 | ' timingsxxt      =  $70810000
00000                 | 	timingsxxt = 1887502336
00000                 | dat
00000 000 00 00 00 00 | 	nop
00004 001 01 EC 63 FD | 	cogid	pa
00008 002 02 00 00 FF 
0000c 003 04 EC E7 FC | 	coginit	pa,##$404
00010                 | 	orgh	$10
00010     00 00 00 00 | 	long	0	'reserved
00014     00 00 00 00 | 	long	0 ' clock frequency: will default to 345000000
00018     00 00 00 00 | 	long	0 ' clock mode: will default to $10c44fb
0001c     00 00 00 00 
      ...             
003f8     00 00 00 00 
003fc     00 00 00 00 | 	orgh	$400
00400     00 DA 04 06 |  _ret_	mov	result1, #0
00404 000             | 	org	0
00404 000             | entry
00404 000 00 F0 0F F2 | 	cmp	ptra, #0 wz
00408 001 94 00 90 5D |  if_ne	jmp	#spininit
0040c 002 6C F0 03 F6 | 	mov	ptra, ptr_stackspace_
00410 003 14 EC 0F FB | 	rdlong	pa, #20 wz
00414 004 6C 00 90 5D |  if_ne	jmp	#skip_clock_set_
00418 005 00 00 64 FD | 	hubset	#0
0041c 006 22 86 80 FF 
00420 007 00 F0 65 FD | 	hubset	##17581304
00424 008 86 01 80 FF 
00428 009 1F 80 66 FD | 	waitx	##200000
0042c 00a 22 86 00 FF 
00430 00b FB EC 07 F6 | 	mov	pa, ##17581307
00434 00c 00 EC 63 FD | 	hubset	pa
00438 00d 18 EC 67 FC | 	wrlong	pa, #24
0043c 00e 24 48 8A FF 
00440 00f 14 80 6C FC | 	wrlong	##345000000, #20
00444 010 3C 00 90 FD | 	jmp	#skip_clock_set_
00448 011 00 00 00 00 
      ...             
0047c 01e 00 00 00 00 
00480 01f 00 00 00 00 | 	orgf	32
00484 020             | skip_clock_set_
00484 020 04 CC 60 FD | 	locknew	__lockreg
00488 021 6A CC 60 FC | 	wrlong	__lockreg, ptr___lockreg_
0048c 022 BC 05 A0 FD | 	call	#_dummy
00490 023             | cogexit
00490 023 38 01 80 FF 
00494 024 1F 00 66 FD | 	waitx	##160000
00498 025 01 26 61 FD | 	cogid	arg01
0049c 026 03 26 61 FD | 	cogstop	arg01
004a0 027             | spininit
004a0 027 00 D3 04 FB | 	rdlong	objptr, ptra
004a4 028 04 F0 07 F1 | 	add	ptra, #4
004a8 029 00 DB 04 FB | 	rdlong	result1, ptra
004ac 02a 04 F0 07 F1 | 	add	ptra, #4
004b0 02b 00 27 05 FB | 	rdlong	arg01, ptra
004b4 02c 04 F0 07 F1 | 	add	ptra, #4
004b8 02d 00 29 05 FB | 	rdlong	arg02, ptra
004bc 02e 04 F0 07 F1 | 	add	ptra, #4
004c0 02f 00 2B 05 FB | 	rdlong	arg03, ptra
004c4 030 04 F0 07 F1 | 	add	ptra, #4
004c8 031 00 2D 05 FB | 	rdlong	arg04, ptra
004cc 032 10 F0 87 F1 | 	sub	ptra, #16
004d0 033 2D DA 60 FD | 	call	result1
004d4 034 B8 FF 9F FD | 	jmp	#cogexit
004d8 035             | COUNT_
004d8 035 00 00 00 00 |     long 0
004dc 036             | RETADDR_
004dc 036 00 00 00 00 |     long 0
004e0 037             | fp
004e0 037 00 00 00 00 |     long 0
004e4 038             | gosub_
004e4 038 00 6A 04 F6 |     mov  COUNT_, #0
004e8 039 93 EC 03 F6 |     mov  pa, arg01
004ec 03a 2B 6C 60 FD |     pop  RETADDR_
004f0 03b 1C 00 90 FD |     jmp  #pushregs_done_
004f4 03c             | pushregs_
004f4 03c 2B EC 63 FD |     pop  pa
004f8 03d 2B 6C 60 FD |     pop  RETADDR_
004fc 03e 04 6A 94 FB |     tjz  COUNT_, #pushregs_done_
00500 03f 01 6A 84 F1 |     sub  COUNT_, #1
00504 040 28 6A 60 FD |     setq COUNT_
00508 041 00 4B 65 FC |     wrlong local01, ptra
0050c 042 01 6A 04 F1 |     add  COUNT_, #1
00510 043             | pushregs_done_
00510 043 02 6A 64 F0 |     shl  COUNT_, #2
00514 044 35 F0 03 F1 |     add  ptra, COUNT_
00518 045 02 6A 44 F0 |     shr  COUNT_, #2
0051c 046 28 04 64 FD |     setq #2 ' push 3 registers starting at COUNT_
00520 047 00 6B 64 FC |     wrlong COUNT_, ptra
00524 048 0C F0 07 F1 |     add    ptra, #12
00528 049 F8 6F 00 F6 |     mov    fp, ptra
0052c 04a 2C EC 63 FD |     jmp  pa
00530 04b             |  popregs_
00530 04b 2B EC 63 FD |     pop    pa
00534 04c 0C F0 87 F1 |     sub    ptra, #12
00538 04d 28 04 64 FD |     setq   #2
0053c 04e 00 6B 04 FB |     rdlong COUNT_, ptra
00540 04f 06 6A 94 FB |     tjz    COUNT_, #popregs__ret
00544 050 02 6A 64 F0 |     shl    COUNT_, #2
00548 051 35 F0 83 F1 |     sub    ptra, COUNT_
0054c 052 02 6A 44 F0 |     shr    COUNT_, #2
00550 053 01 6A 84 F1 |     sub    COUNT_, #1
00554 054 28 6A 60 FD |     setq   COUNT_
00558 055 00 4B 05 FB |     rdlong local01, ptra
0055c 056             | popregs__ret
0055c 056 2A 6C 60 FD |     push   RETADDR_
00560 057 2C EC 63 FD |     jmp    pa
00564 058             | 
00564 058             | unsdivide_
00564 058 28 00 64 FD |        setq    #0
00568 059 C7 8C 11 FD |        qdiv    muldiva_, muldivb_
0056c 05a 18 8E 61 FD |        getqx   muldivb_
00570 05b 19 8C 61 0D |  _ret_ getqy   muldiva_
00574 05c             | 
00574 05c             | divide_
00574 05c C6 8C 51 F6 |        abs     muldiva_,muldiva_     wc       'abs(x)
00578 05d 03 D0 84 F5 |        muxc    itmp2_,#%11                    'store sign of x
0057c 05e C7 8E 59 F6 |        abs     muldivb_,muldivb_     wcz      'abs(y)
00580 05f 02 D0 64 C5 |  if_c  xor     itmp2_,#%10                    'store sign of y
00584 060 2D 00 64 AD |  if_z  ret
00588 061 D8 FF BF FD |        call    #unsdivide_
0058c 062 01 D0 D4 F7 |        test    itmp2_,#1        wc       'restore sign, remainder
00590 063 C6 8C 81 F6 |        negc    muldiva_,muldiva_ 
00594 064 02 D0 D4 F7 |        test    itmp2_,#%10      wc       'restore sign, division result
00598 065 C7 8E 81 06 |  _ret_ negc    muldivb_,muldivb_
0059c 066             | 
0059c 066             | __lockreg
0059c 066 00 00 00 00 | 	long	0
005a0 067             | itmp1_
005a0 067 00 00 00 00 | 	long	0
005a4 068             | itmp2_
005a4 068 00 00 00 00 | 	long	0
005a8 069             | objptr
005a8 069 14 75 00 00 | 	long	@objmem
005ac 06a             | ptr___lockreg_
005ac 06a 9C 05 00 00 | 	long	@__lockreg
005b0 06b             | ptr__dat__
005b0 06b 78 50 00 00 | 	long	@_dat_
005b4 06c             | ptr_stackspace_
005b4 06c F8 75 00 00 | 	long	@stackspace
005b8 06d             | result1
005b8 06d 00 00 00 00 | 	long	0
005bc 06e             | COG_BSS_START
005bc 06e             | 	fit	480
005bc                 | 	orgh
005bc                 | hubentry
005bc                 | 
005bc                 | ' 
005bc                 | ' ''--------- timings
005bc                 | ' ' 0  m_bs        - before sync,             16      80
005bc                 | ' ' 1  m_sn        - sync                     80     160
005bc                 | ' ' 2  m_bv        - before visible           20      84
005bc                 | ' ' 3  m_vi        - visible                1024     816
005bc                 | ' ' 4  m_border    - left and right borders  112       8
005bc                 | ' ' 5  m_lut1      - pixels per char           8       8
005bc                 | ' ' 6  i_vborder   - up and down border       48       8
005bc                 | ' ' 7  i_upporch   - up non visible           16       8
005bc                 | ' ' 8  i_vsync     - vsync                    16      12
005bc                 | ' ' 9  i_downporch - down non visible         16       8
005bc                 | ' '10  mode #
005bc                 | ' '11  cpl         - character per line
005bc                 | ' '12  scanlines #
005bc                 | ' '13  clock
005bc                 | ' '14  hubset value for clock settings
005bc                 | ' 
005bc                 | ' 
005bc                 | ' '*************************************************************************
005bc                 | ' '                                                                        *
005bc                 | ' '  A dummy start function if someone runs this driver alone              *
005bc                 | ' '                                                                        *
005bc                 | ' '*************************************************************************
005bc                 | ' 
005bc                 | ' pub dummy()|i,x,y,ntsc,bbb,ccc,zzx,zzy,amode
005bc                 | _dummy
005bc     0F 6A 04 F6 | 	mov	COUNT_, #15
005c0     3C 00 A0 FD | 	call	#pushregs_
005c4                 | ' '' this is not a main program.
005c4                 | ' 
005c4                 | ' start(256+192,8)
005c4     C0 4B 05 F6 | 	mov	local01, #448
005c8     08 4C 05 F6 | 	mov	local02, #8
005cc     A5 26 01 F6 | 	mov	arg01, local01
005d0     A6 28 01 F6 | 	mov	arg02, local02
005d4     E4 43 B0 FD | 	call	#_start
005d8     6D 4E 01 F6 | 	mov	local03, result1
005dc                 | ' setmode(519)
005dc     01 00 00 FF 
005e0     07 4A 05 F6 | 	mov	local01, ##519
005e4     A5 26 01 F6 | 	mov	arg01, local01
005e8     98 36 B0 FD | 	call	#_setmode
005ec                 | ' outtextxyc1(32,32,inttostr(cpl),1,0)
005ec     20 4A 05 F6 | 	mov	local01, #32
005f0     20 4C 05 F6 | 	mov	local02, #32
005f4     94 D2 04 F1 | 	add	objptr, #148
005f8     69 50 01 FB | 	rdlong	local04, objptr
005fc     94 D2 84 F1 | 	sub	objptr, #148
00600     A8 4E 01 F6 | 	mov	local03, local04
00604     A7 26 01 F6 | 	mov	arg01, local03
00608     A4 33 B0 FD | 	call	#_inttostr
0060c     6D 52 01 F6 | 	mov	local05, result1
00610     01 54 05 F6 | 	mov	local06, #1
00614     00 56 05 F6 | 	mov	local07, #0
00618     A5 26 01 F6 | 	mov	arg01, local01
0061c     A6 28 01 F6 | 	mov	arg02, local02
00620     A9 2A 01 F6 | 	mov	arg03, local05
00624     AA 2C 01 F6 | 	mov	arg04, local06
00628     AB 2E 01 F6 | 	mov	arg05, local07
0062c     18 10 B0 FD | 	call	#_outtextxyc1
00630                 | ' waitvbl(480)
00630     E0 4B 05 F6 | 	mov	local01, #480
00634     A5 26 01 F6 | 	mov	arg01, local01
00638     E8 1F B0 FD | 	call	#_waitvbl
0063c                 | ' setmode(520)
0063c     01 00 00 FF 
00640     08 4A 05 F6 | 	mov	local01, ##520
00644     A5 26 01 F6 | 	mov	arg01, local01
00648     38 36 B0 FD | 	call	#_setmode
0064c                 | ' outtextxyc1(32,32,inttostr(cpl),1,0)
0064c     20 4A 05 F6 | 	mov	local01, #32
00650     20 4C 05 F6 | 	mov	local02, #32
00654     94 D2 04 F1 | 	add	objptr, #148
00658     69 50 01 FB | 	rdlong	local04, objptr
0065c     94 D2 84 F1 | 	sub	objptr, #148
00660     A8 4E 01 F6 | 	mov	local03, local04
00664     A7 26 01 F6 | 	mov	arg01, local03
00668     44 33 B0 FD | 	call	#_inttostr
0066c     6D 52 01 F6 | 	mov	local05, result1
00670     01 54 05 F6 | 	mov	local06, #1
00674     00 56 05 F6 | 	mov	local07, #0
00678     A5 26 01 F6 | 	mov	arg01, local01
0067c     A6 28 01 F6 | 	mov	arg02, local02
00680     A9 2A 01 F6 | 	mov	arg03, local05
00684     AA 2C 01 F6 | 	mov	arg04, local06
00688     AB 2E 01 F6 | 	mov	arg05, local07
0068c     B8 0F B0 FD | 	call	#_outtextxyc1
00690                 | ' waitvbl(480)
00690     E0 4B 05 F6 | 	mov	local01, #480
00694     A5 26 01 F6 | 	mov	arg01, local01
00698     88 1F B0 FD | 	call	#_waitvbl
0069c                 | ' 
0069c                 | ' {{
0069c                 | ' }}
0069c                 | ' 'repeat
0069c                 | ' '  waitvbl(0)
0069c                 | '   
0069c                 | '   
0069c                 | ' '  bbb:=long[dl_ptr]
0069c                 | ' '  longmove(dl_ptr,dl_ptr+4,575)
0069c                 | ' 
0069c                 | ' '  long[dl_ptr+4*575]:=bbb
0069c                 | ' 
0069c                 | ' '{{
0069c                 | ' 'outtextxyc1(0,100,string("1234567890123456789012345678901234567890"),0,1)
0069c                 | ' 'waitvbl(240) 
0069c                 | ' repeat ntsc from 0 to 1
0069c     00 58 05 F6 | 	mov	local08, #0
006a0                 | LR__0001
006a0                 | '   repeat bbb from 0 to 3
006a0     00 5A 05 F6 | 	mov	local09, #0
006a4                 | LR__0002
006a4                 | '     repeat zzy from 0 to 3
006a4     00 5C 05 F6 | 	mov	local10, #0
006a8                 | LR__0003
006a8                 | '       repeat zzx from 0 to 2
006a8     00 5E 05 F6 | 	mov	local11, #0
006ac                 | LR__0004
006ac                 | '         amode:=256*ntsc+64*bbb+4*zzy+zzx
006ac     AC 4C 01 F6 | 	mov	local02, local08
006b0     08 4C 65 F0 | 	shl	local02, #8
006b4     AD 4E 01 F6 | 	mov	local03, local09
006b8     06 4E 65 F0 | 	shl	local03, #6
006bc     A6 4A 01 F6 | 	mov	local01, local02
006c0     A7 4A 01 F1 | 	add	local01, local03
006c4     AE 50 01 F6 | 	mov	local04, local10
006c8     02 50 65 F0 | 	shl	local04, #2
006cc     A8 4A 01 F1 | 	add	local01, local04
006d0     AF 4A 01 F1 | 	add	local01, local11
006d4     A5 60 01 F6 | 	mov	local12, local01
006d8                 | '         setmode(amode)
006d8     B0 4A 01 F6 | 	mov	local01, local12
006dc     A5 26 01 F6 | 	mov	arg01, local01
006e0     A0 35 B0 FD | 	call	#_setmode
006e4                 | '         cls(4,0)
006e4     04 4A 05 F6 | 	mov	local01, #4
006e8     00 4C 05 F6 | 	mov	local02, #0
006ec     A5 26 01 F6 | 	mov	arg01, local01
006f0     A6 28 01 F6 | 	mov	arg02, local02
006f4     AC 23 B0 FD | 	call	#_cls
006f8     6D 4E 01 F6 | 	mov	local03, result1
006fc                 | '         outtextxy(0,0,string("mode"))
006fc     00 4A 05 F6 | 	mov	local01, #0
00700     00 4C 05 F6 | 	mov	local02, #0
00704     27 00 00 FF 
00708     E0 4F 05 F6 | 	mov	local03, ##@LR__0264
0070c     A7 50 01 F6 | 	mov	local04, local03
00710     A5 26 01 F6 | 	mov	arg01, local01
00714     A6 28 01 F6 | 	mov	arg02, local02
00718     A8 2A 01 F6 | 	mov	arg03, local04
0071c     D4 26 B0 FD | 	call	#_outtextxy
00720                 | '         outtextxy(0,1,string("cpl"))
00720     00 4A 05 F6 | 	mov	local01, #0
00724     01 4C 05 F6 | 	mov	local02, #1
00728     27 00 00 FF 
0072c     E5 4F 05 F6 | 	mov	local03, ##@LR__0265
00730     A7 50 01 F6 | 	mov	local04, local03
00734     A5 26 01 F6 | 	mov	arg01, local01
00738     A6 28 01 F6 | 	mov	arg02, local02
0073c     A8 2A 01 F6 | 	mov	arg03, local04
00740     B0 26 B0 FD | 	call	#_outtextxy
00744                 | '         outtextxy(0,2,string("bufptr"))
00744     00 4A 05 F6 | 	mov	local01, #0
00748     02 4C 05 F6 | 	mov	local02, #2
0074c     27 00 00 FF 
00750     E9 4F 05 F6 | 	mov	local03, ##@LR__0266
00754     A7 50 01 F6 | 	mov	local04, local03
00758     A5 26 01 F6 | 	mov	arg01, local01
0075c     A6 28 01 F6 | 	mov	arg02, local02
00760     A8 2A 01 F6 | 	mov	arg03, local04
00764     8C 26 B0 FD | 	call	#_outtextxy
00768                 | '         outtextxy(0,3,string("buflen"))
00768     00 4A 05 F6 | 	mov	local01, #0
0076c     03 4C 05 F6 | 	mov	local02, #3
00770     27 00 00 FF 
00774     F0 4F 05 F6 | 	mov	local03, ##@LR__0267
00778     A7 50 01 F6 | 	mov	local04, local03
0077c     A5 26 01 F6 | 	mov	arg01, local01
00780     A6 28 01 F6 | 	mov	arg02, local02
00784     A8 2A 01 F6 | 	mov	arg03, local04
00788     68 26 B0 FD | 	call	#_outtextxy
0078c                 | '         outtextxy(0,4,string("lines"))
0078c     00 4A 05 F6 | 	mov	local01, #0
00790     04 4C 05 F6 | 	mov	local02, #4
00794     27 00 00 FF 
00798     F7 4F 05 F6 | 	mov	local03, ##@LR__0268
0079c     A7 50 01 F6 | 	mov	local04, local03
007a0     A5 26 01 F6 | 	mov	arg01, local01
007a4     A6 28 01 F6 | 	mov	arg02, local02
007a8     A8 2A 01 F6 | 	mov	arg03, local04
007ac     44 26 B0 FD | 	call	#_outtextxy
007b0                 | '         outtextxy(8,0,inttostr(amode))
007b0     08 4A 05 F6 | 	mov	local01, #8
007b4     00 4C 05 F6 | 	mov	local02, #0
007b8     B0 4E 01 F6 | 	mov	local03, local12
007bc     A7 26 01 F6 | 	mov	arg01, local03
007c0     EC 31 B0 FD | 	call	#_inttostr
007c4     6D 50 01 F6 | 	mov	local04, result1
007c8     A5 26 01 F6 | 	mov	arg01, local01
007cc     A6 28 01 F6 | 	mov	arg02, local02
007d0     A8 2A 01 F6 | 	mov	arg03, local04
007d4     1C 26 B0 FD | 	call	#_outtextxy
007d8                 | '         outtextxy(8,1,inttostr(cpl))
007d8     08 4A 05 F6 | 	mov	local01, #8
007dc     01 4C 05 F6 | 	mov	local02, #1
007e0     94 D2 04 F1 | 	add	objptr, #148
007e4     69 50 01 FB | 	rdlong	local04, objptr
007e8     94 D2 84 F1 | 	sub	objptr, #148
007ec     A8 4E 01 F6 | 	mov	local03, local04
007f0     A7 26 01 F6 | 	mov	arg01, local03
007f4     B8 31 B0 FD | 	call	#_inttostr
007f8     6D 52 01 F6 | 	mov	local05, result1
007fc     A5 26 01 F6 | 	mov	arg01, local01
00800     A6 28 01 F6 | 	mov	arg02, local02
00804     A9 2A 01 F6 | 	mov	arg03, local05
00808     E8 25 B0 FD | 	call	#_outtextxy
0080c                 | '         outtextxy(8,2,inttostr(buf_ptr))
0080c     08 4A 05 F6 | 	mov	local01, #8
00810     02 4C 05 F6 | 	mov	local02, #2
00814     69 4E 01 FB | 	rdlong	local03, objptr
00818     A7 26 01 F6 | 	mov	arg01, local03
0081c     90 31 B0 FD | 	call	#_inttostr
00820     6D 50 01 F6 | 	mov	local04, result1
00824     A5 26 01 F6 | 	mov	arg01, local01
00828     A6 28 01 F6 | 	mov	arg02, local02
0082c     A8 2A 01 F6 | 	mov	arg03, local04
00830     C0 25 B0 FD | 	call	#_outtextxy
00834                 | '         outtextxy(8,3,inttostr(buflen*4))
00834     08 4A 05 F6 | 	mov	local01, #8
00838     03 4C 05 F6 | 	mov	local02, #3
0083c     34 D2 04 F1 | 	add	objptr, #52
00840     69 52 01 FB | 	rdlong	local05, objptr
00844     34 D2 84 F1 | 	sub	objptr, #52
00848     A9 50 01 F6 | 	mov	local04, local05
0084c     A8 4E 01 F6 | 	mov	local03, local04
00850     02 4E 65 F0 | 	shl	local03, #2
00854     A7 54 01 F6 | 	mov	local06, local03
00858     AA 26 01 F6 | 	mov	arg01, local06
0085c     50 31 B0 FD | 	call	#_inttostr
00860     6D 56 01 F6 | 	mov	local07, result1
00864     A5 26 01 F6 | 	mov	arg01, local01
00868     A6 28 01 F6 | 	mov	arg02, local02
0086c     AB 2A 01 F6 | 	mov	arg03, local07
00870     80 25 B0 FD | 	call	#_outtextxy
00874                 | '         outtextxy(8,4,inttostr(lines))
00874     08 4A 05 F6 | 	mov	local01, #8
00878     04 4C 05 F6 | 	mov	local02, #4
0087c     98 D2 04 F1 | 	add	objptr, #152
00880     69 50 01 FB | 	rdlong	local04, objptr
00884     98 D2 84 F1 | 	sub	objptr, #152
00888     A8 4E 01 F6 | 	mov	local03, local04
0088c     A7 26 01 F6 | 	mov	arg01, local03
00890     1C 31 B0 FD | 	call	#_inttostr
00894     6D 52 01 F6 | 	mov	local05, result1
00898     A5 26 01 F6 | 	mov	arg01, local01
0089c     A6 28 01 F6 | 	mov	arg02, local02
008a0     A9 2A 01 F6 | 	mov	arg03, local05
008a4     4C 25 B0 FD | 	call	#_outtextxy
008a8                 | '         waitvbl(50)
008a8     32 4A 05 F6 | 	mov	local01, #50
008ac     A5 26 01 F6 | 	mov	arg01, local01
008b0     70 1D B0 FD | 	call	#_waitvbl
008b4     AF 4A 01 F6 | 	mov	local01, local11
008b8     AF 4C 01 F6 | 	mov	local02, local11
008bc     01 4C 05 F1 | 	add	local02, #1
008c0     A6 5E 01 F6 | 	mov	local11, local02
008c4     03 5E 5D F2 | 	cmps	local11, #3 wcz
008c8     E0 FD 9F CD |  if_b	jmp	#LR__0004
008cc     AE 4A 01 F6 | 	mov	local01, local10
008d0     AE 4C 01 F6 | 	mov	local02, local10
008d4     01 4C 05 F1 | 	add	local02, #1
008d8     A6 5C 01 F6 | 	mov	local10, local02
008dc     04 5C 5D F2 | 	cmps	local10, #4 wcz
008e0     C4 FD 9F CD |  if_b	jmp	#LR__0003
008e4     AD 4A 01 F6 | 	mov	local01, local09
008e8     AD 4C 01 F6 | 	mov	local02, local09
008ec     01 4C 05 F1 | 	add	local02, #1
008f0     A6 5A 01 F6 | 	mov	local09, local02
008f4     04 5A 5D F2 | 	cmps	local09, #4 wcz
008f8     A8 FD 9F CD |  if_b	jmp	#LR__0002
008fc     AC 4A 01 F6 | 	mov	local01, local08
00900     AC 4C 01 F6 | 	mov	local02, local08
00904     01 4C 05 F1 | 	add	local02, #1
00908     A6 58 01 F6 | 	mov	local08, local02
0090c     02 58 5D F2 | 	cmps	local08, #2 wcz
00910     8C FD 9F CD |  if_b	jmp	#LR__0001
00914                 | ' 
00914                 | ' 
00914                 | ' 
00914                 | ' 
00914                 | ' repeat ntsc from 0 to 1
00914     00 58 05 F6 | 	mov	local08, #0
00918                 | LR__0005
00918                 | '   repeat bbb from 0 to 3
00918     00 5A 05 F6 | 	mov	local09, #0
0091c                 | LR__0006
0091c                 | '     repeat ccc from 0 to 3
0091c     00 62 05 F6 | 	mov	local13, #0
00920                 | LR__0007
00920                 | '       repeat zzy from 0 to 3
00920     00 5C 05 F6 | 	mov	local10, #0
00924                 | LR__0008
00924                 | '         repeat zzx from 0 to 3
00924     00 5E 05 F6 | 	mov	local11, #0
00928                 | LR__0009
00928                 | '           amode:=512+256*ntsc+64*bbb+16*ccc+4*zzy+zzx
00928     AC 4C 01 F6 | 	mov	local02, local08
0092c     08 4C 65 F0 | 	shl	local02, #8
00930     01 00 00 FF 
00934     00 4A 05 F6 | 	mov	local01, ##512
00938     A6 4A 01 F1 | 	add	local01, local02
0093c     AD 4E 01 F6 | 	mov	local03, local09
00940     06 4E 65 F0 | 	shl	local03, #6
00944     A7 4A 01 F1 | 	add	local01, local03
00948     B1 50 01 F6 | 	mov	local04, local13
0094c     04 50 65 F0 | 	shl	local04, #4
00950     A8 4A 01 F1 | 	add	local01, local04
00954     AE 52 01 F6 | 	mov	local05, local10
00958     02 52 65 F0 | 	shl	local05, #2
0095c     A9 4A 01 F1 | 	add	local01, local05
00960     AF 4A 01 F1 | 	add	local01, local11
00964     A5 60 01 F6 | 	mov	local12, local01
00968                 | '           if amode<>(512+192+48)
00968     01 00 00 FF 
0096c     F0 60 0D F2 | 	cmp	local12, ##752 wz
00970     C8 09 90 AD |  if_e	jmp	#LR__0017
00974                 | '             setmode(amode)
00974     B0 4A 01 F6 | 	mov	local01, local12
00978     A5 26 01 F6 | 	mov	arg01, local01
0097c     04 33 B0 FD | 	call	#_setmode
00980                 | '             if (ccc==0)
00980     00 62 0D F2 | 	cmp	local13, #0 wz
00984     68 02 90 5D |  if_ne	jmp	#LR__0010
00988                 | '               cls(0,1)
00988     00 4A 05 F6 | 	mov	local01, #0
0098c     01 4C 05 F6 | 	mov	local02, #1
00990     A5 26 01 F6 | 	mov	arg01, local01
00994     A6 28 01 F6 | 	mov	arg02, local02
00998     08 21 B0 FD | 	call	#_cls
0099c     6D 4E 01 F6 | 	mov	local03, result1
009a0                 | '               outtextxyc1(0,0,string("mode"),0,1)
009a0     00 4A 05 F6 | 	mov	local01, #0
009a4     00 4C 05 F6 | 	mov	local02, #0
009a8     27 00 00 FF 
009ac     FD 4F 05 F6 | 	mov	local03, ##@LR__0269
009b0     A7 50 01 F6 | 	mov	local04, local03
009b4     00 52 05 F6 | 	mov	local05, #0
009b8     01 54 05 F6 | 	mov	local06, #1
009bc     A5 26 01 F6 | 	mov	arg01, local01
009c0     A6 28 01 F6 | 	mov	arg02, local02
009c4     A8 2A 01 F6 | 	mov	arg03, local04
009c8     A9 2C 01 F6 | 	mov	arg04, local05
009cc     AA 2E 01 F6 | 	mov	arg05, local06
009d0     74 0C B0 FD | 	call	#_outtextxyc1
009d4                 | '               outtextxyc1(0,16,string("cpl"),0,1)
009d4     00 4A 05 F6 | 	mov	local01, #0
009d8     10 4C 05 F6 | 	mov	local02, #16
009dc     28 00 00 FF 
009e0     02 4E 05 F6 | 	mov	local03, ##@LR__0270
009e4     A7 50 01 F6 | 	mov	local04, local03
009e8     00 52 05 F6 | 	mov	local05, #0
009ec     01 54 05 F6 | 	mov	local06, #1
009f0     A5 26 01 F6 | 	mov	arg01, local01
009f4     A6 28 01 F6 | 	mov	arg02, local02
009f8     A8 2A 01 F6 | 	mov	arg03, local04
009fc     A9 2C 01 F6 | 	mov	arg04, local05
00a00     AA 2E 01 F6 | 	mov	arg05, local06
00a04     40 0C B0 FD | 	call	#_outtextxyc1
00a08                 | '               outtextxyc1(0,32,string("bufptr"),0,1)
00a08     00 4A 05 F6 | 	mov	local01, #0
00a0c     20 4C 05 F6 | 	mov	local02, #32
00a10     28 00 00 FF 
00a14     06 4E 05 F6 | 	mov	local03, ##@LR__0271
00a18     A7 50 01 F6 | 	mov	local04, local03
00a1c     00 52 05 F6 | 	mov	local05, #0
00a20     01 54 05 F6 | 	mov	local06, #1
00a24     A5 26 01 F6 | 	mov	arg01, local01
00a28     A6 28 01 F6 | 	mov	arg02, local02
00a2c     A8 2A 01 F6 | 	mov	arg03, local04
00a30     A9 2C 01 F6 | 	mov	arg04, local05
00a34     AA 2E 01 F6 | 	mov	arg05, local06
00a38     0C 0C B0 FD | 	call	#_outtextxyc1
00a3c                 | '               outtextxyc1(0,48,string("buflen"),0,1)
00a3c     00 4A 05 F6 | 	mov	local01, #0
00a40     30 4C 05 F6 | 	mov	local02, #48
00a44     28 00 00 FF 
00a48     0D 4E 05 F6 | 	mov	local03, ##@LR__0272
00a4c     A7 50 01 F6 | 	mov	local04, local03
00a50     00 52 05 F6 | 	mov	local05, #0
00a54     01 54 05 F6 | 	mov	local06, #1
00a58     A5 26 01 F6 | 	mov	arg01, local01
00a5c     A6 28 01 F6 | 	mov	arg02, local02
00a60     A8 2A 01 F6 | 	mov	arg03, local04
00a64     A9 2C 01 F6 | 	mov	arg04, local05
00a68     AA 2E 01 F6 | 	mov	arg05, local06
00a6c     D8 0B B0 FD | 	call	#_outtextxyc1
00a70                 | '               outtextxyc1(0,64,string("lines"),0,1)
00a70     00 4A 05 F6 | 	mov	local01, #0
00a74     40 4C 05 F6 | 	mov	local02, #64
00a78     28 00 00 FF 
00a7c     14 4E 05 F6 | 	mov	local03, ##@LR__0273
00a80     A7 50 01 F6 | 	mov	local04, local03
00a84     00 52 05 F6 | 	mov	local05, #0
00a88     01 54 05 F6 | 	mov	local06, #1
00a8c     A5 26 01 F6 | 	mov	arg01, local01
00a90     A6 28 01 F6 | 	mov	arg02, local02
00a94     A8 2A 01 F6 | 	mov	arg03, local04
00a98     A9 2C 01 F6 | 	mov	arg04, local05
00a9c     AA 2E 01 F6 | 	mov	arg05, local06
00aa0     A4 0B B0 FD | 	call	#_outtextxyc1
00aa4                 | '               outtextxyc1(64,0,inttostr(amode),0,1)
00aa4     40 4A 05 F6 | 	mov	local01, #64
00aa8     00 4C 05 F6 | 	mov	local02, #0
00aac     B0 4E 01 F6 | 	mov	local03, local12
00ab0     A7 26 01 F6 | 	mov	arg01, local03
00ab4     F8 2E B0 FD | 	call	#_inttostr
00ab8     6D 50 01 F6 | 	mov	local04, result1
00abc     00 52 05 F6 | 	mov	local05, #0
00ac0     01 54 05 F6 | 	mov	local06, #1
00ac4     A5 26 01 F6 | 	mov	arg01, local01
00ac8     A6 28 01 F6 | 	mov	arg02, local02
00acc     A8 2A 01 F6 | 	mov	arg03, local04
00ad0     A9 2C 01 F6 | 	mov	arg04, local05
00ad4     AA 2E 01 F6 | 	mov	arg05, local06
00ad8     6C 0B B0 FD | 	call	#_outtextxyc1
00adc                 | '               outtextxyc1(64,16,inttostr(cpl),0,1)
00adc     40 4A 05 F6 | 	mov	local01, #64
00ae0     10 4C 05 F6 | 	mov	local02, #16
00ae4     94 D2 04 F1 | 	add	objptr, #148
00ae8     69 50 01 FB | 	rdlong	local04, objptr
00aec     94 D2 84 F1 | 	sub	objptr, #148
00af0     A8 4E 01 F6 | 	mov	local03, local04
00af4     A7 26 01 F6 | 	mov	arg01, local03
00af8     B4 2E B0 FD | 	call	#_inttostr
00afc     6D 52 01 F6 | 	mov	local05, result1
00b00     00 54 05 F6 | 	mov	local06, #0
00b04     01 56 05 F6 | 	mov	local07, #1
00b08     A5 26 01 F6 | 	mov	arg01, local01
00b0c     A6 28 01 F6 | 	mov	arg02, local02
00b10     A9 2A 01 F6 | 	mov	arg03, local05
00b14     AA 2C 01 F6 | 	mov	arg04, local06
00b18     AB 2E 01 F6 | 	mov	arg05, local07
00b1c     28 0B B0 FD | 	call	#_outtextxyc1
00b20                 | '               outtextxyc1(64,32,inttostr(buf_ptr),0,1)
00b20     40 4A 05 F6 | 	mov	local01, #64
00b24     20 4C 05 F6 | 	mov	local02, #32
00b28     69 4E 01 FB | 	rdlong	local03, objptr
00b2c     A7 26 01 F6 | 	mov	arg01, local03
00b30     7C 2E B0 FD | 	call	#_inttostr
00b34     6D 50 01 F6 | 	mov	local04, result1
00b38     00 52 05 F6 | 	mov	local05, #0
00b3c     01 54 05 F6 | 	mov	local06, #1
00b40     A5 26 01 F6 | 	mov	arg01, local01
00b44     A6 28 01 F6 | 	mov	arg02, local02
00b48     A8 2A 01 F6 | 	mov	arg03, local04
00b4c     A9 2C 01 F6 | 	mov	arg04, local05
00b50     AA 2E 01 F6 | 	mov	arg05, local06
00b54     F0 0A B0 FD | 	call	#_outtextxyc1
00b58                 | '               outtextxyc1(64,48,inttostr(buflen*4),0,1)
00b58     40 4A 05 F6 | 	mov	local01, #64
00b5c     30 4C 05 F6 | 	mov	local02, #48
00b60     34 D2 04 F1 | 	add	objptr, #52
00b64     69 52 01 FB | 	rdlong	local05, objptr
00b68     34 D2 84 F1 | 	sub	objptr, #52
00b6c     A9 50 01 F6 | 	mov	local04, local05
00b70     A8 4E 01 F6 | 	mov	local03, local04
00b74     02 4E 65 F0 | 	shl	local03, #2
00b78     A7 54 01 F6 | 	mov	local06, local03
00b7c     AA 26 01 F6 | 	mov	arg01, local06
00b80     2C 2E B0 FD | 	call	#_inttostr
00b84     6D 56 01 F6 | 	mov	local07, result1
00b88     00 64 05 F6 | 	mov	local14, #0
00b8c     01 66 05 F6 | 	mov	local15, #1
00b90     A5 26 01 F6 | 	mov	arg01, local01
00b94     A6 28 01 F6 | 	mov	arg02, local02
00b98     AB 2A 01 F6 | 	mov	arg03, local07
00b9c     B2 2C 01 F6 | 	mov	arg04, local14
00ba0     B3 2E 01 F6 | 	mov	arg05, local15
00ba4     A0 0A B0 FD | 	call	#_outtextxyc1
00ba8                 | '               outtextxyc1(64,64,inttostr(lines),0,1)
00ba8     40 4A 05 F6 | 	mov	local01, #64
00bac     40 4C 05 F6 | 	mov	local02, #64
00bb0     98 D2 04 F1 | 	add	objptr, #152
00bb4     69 50 01 FB | 	rdlong	local04, objptr
00bb8     98 D2 84 F1 | 	sub	objptr, #152
00bbc     A8 4E 01 F6 | 	mov	local03, local04
00bc0     A7 26 01 F6 | 	mov	arg01, local03
00bc4     E8 2D B0 FD | 	call	#_inttostr
00bc8     6D 52 01 F6 | 	mov	local05, result1
00bcc     00 54 05 F6 | 	mov	local06, #0
00bd0     01 56 05 F6 | 	mov	local07, #1
00bd4     A5 26 01 F6 | 	mov	arg01, local01
00bd8     A6 28 01 F6 | 	mov	arg02, local02
00bdc     A9 2A 01 F6 | 	mov	arg03, local05
00be0     AA 2C 01 F6 | 	mov	arg04, local06
00be4     AB 2E 01 F6 | 	mov	arg05, local07
00be8     5C 0A B0 FD | 	call	#_outtextxyc1
00bec     4C 07 90 FD | 	jmp	#LR__0016
00bf0                 | LR__0010
00bf0                 | '             elseif (ccc==1)
00bf0     01 62 0D F2 | 	cmp	local13, #1 wz
00bf4     68 02 90 5D |  if_ne	jmp	#LR__0011
00bf8                 | '               cls(0,0)
00bf8     00 4A 05 F6 | 	mov	local01, #0
00bfc     00 4C 05 F6 | 	mov	local02, #0
00c00     A5 26 01 F6 | 	mov	arg01, local01
00c04     A6 28 01 F6 | 	mov	arg02, local02
00c08     98 1E B0 FD | 	call	#_cls
00c0c     6D 4E 01 F6 | 	mov	local03, result1
00c10                 | '               outtextxyc2(0,0,string("mode"),3,0)
00c10     00 4A 05 F6 | 	mov	local01, #0
00c14     00 4C 05 F6 | 	mov	local02, #0
00c18     28 00 00 FF 
00c1c     1A 4E 05 F6 | 	mov	local03, ##@LR__0274
00c20     A7 50 01 F6 | 	mov	local04, local03
00c24     03 52 05 F6 | 	mov	local05, #3
00c28     00 54 05 F6 | 	mov	local06, #0
00c2c     A5 26 01 F6 | 	mov	arg01, local01
00c30     A6 28 01 F6 | 	mov	arg02, local02
00c34     A8 2A 01 F6 | 	mov	arg03, local04
00c38     A9 2C 01 F6 | 	mov	arg04, local05
00c3c     AA 2E 01 F6 | 	mov	arg05, local06
00c40     3C 09 B0 FD | 	call	#_outtextxyc2
00c44                 | '               outtextxyc2(0,16,string("cpl"),3,0)'
00c44     00 4A 05 F6 | 	mov	local01, #0
00c48     10 4C 05 F6 | 	mov	local02, #16
00c4c     28 00 00 FF 
00c50     1F 4E 05 F6 | 	mov	local03, ##@LR__0275
00c54     A7 50 01 F6 | 	mov	local04, local03
00c58     03 52 05 F6 | 	mov	local05, #3
00c5c     00 54 05 F6 | 	mov	local06, #0
00c60     A5 26 01 F6 | 	mov	arg01, local01
00c64     A6 28 01 F6 | 	mov	arg02, local02
00c68     A8 2A 01 F6 | 	mov	arg03, local04
00c6c     A9 2C 01 F6 | 	mov	arg04, local05
00c70     AA 2E 01 F6 | 	mov	arg05, local06
00c74     08 09 B0 FD | 	call	#_outtextxyc2
00c78                 | '               outtextxyc2(0,32,string("buf_ptr"),3,0)
00c78     00 4A 05 F6 | 	mov	local01, #0
00c7c     20 4C 05 F6 | 	mov	local02, #32
00c80     28 00 00 FF 
00c84     23 4E 05 F6 | 	mov	local03, ##@LR__0276
00c88     A7 50 01 F6 | 	mov	local04, local03
00c8c     03 52 05 F6 | 	mov	local05, #3
00c90     00 54 05 F6 | 	mov	local06, #0
00c94     A5 26 01 F6 | 	mov	arg01, local01
00c98     A6 28 01 F6 | 	mov	arg02, local02
00c9c     A8 2A 01 F6 | 	mov	arg03, local04
00ca0     A9 2C 01 F6 | 	mov	arg04, local05
00ca4     AA 2E 01 F6 | 	mov	arg05, local06
00ca8     D4 08 B0 FD | 	call	#_outtextxyc2
00cac                 | '               outtextxyc2(0,48,string("buflen"),3,0)
00cac     00 4A 05 F6 | 	mov	local01, #0
00cb0     30 4C 05 F6 | 	mov	local02, #48
00cb4     28 00 00 FF 
00cb8     2B 4E 05 F6 | 	mov	local03, ##@LR__0277
00cbc     A7 50 01 F6 | 	mov	local04, local03
00cc0     03 52 05 F6 | 	mov	local05, #3
00cc4     00 54 05 F6 | 	mov	local06, #0
00cc8     A5 26 01 F6 | 	mov	arg01, local01
00ccc     A6 28 01 F6 | 	mov	arg02, local02
00cd0     A8 2A 01 F6 | 	mov	arg03, local04
00cd4     A9 2C 01 F6 | 	mov	arg04, local05
00cd8     AA 2E 01 F6 | 	mov	arg05, local06
00cdc     A0 08 B0 FD | 	call	#_outtextxyc2
00ce0                 | '               outtextxyc2(0,64,string("lines"),3,0)
00ce0     00 4A 05 F6 | 	mov	local01, #0
00ce4     40 4C 05 F6 | 	mov	local02, #64
00ce8     28 00 00 FF 
00cec     32 4E 05 F6 | 	mov	local03, ##@LR__0278
00cf0     A7 50 01 F6 | 	mov	local04, local03
00cf4     03 52 05 F6 | 	mov	local05, #3
00cf8     00 54 05 F6 | 	mov	local06, #0
00cfc     A5 26 01 F6 | 	mov	arg01, local01
00d00     A6 28 01 F6 | 	mov	arg02, local02
00d04     A8 2A 01 F6 | 	mov	arg03, local04
00d08     A9 2C 01 F6 | 	mov	arg04, local05
00d0c     AA 2E 01 F6 | 	mov	arg05, local06
00d10     6C 08 B0 FD | 	call	#_outtextxyc2
00d14                 | '               outtextxyc2(64,0,inttostr(amode),2,0)
00d14     40 4A 05 F6 | 	mov	local01, #64
00d18     00 4C 05 F6 | 	mov	local02, #0
00d1c     B0 4E 01 F6 | 	mov	local03, local12
00d20     A7 26 01 F6 | 	mov	arg01, local03
00d24     88 2C B0 FD | 	call	#_inttostr
00d28     6D 50 01 F6 | 	mov	local04, result1
00d2c     02 52 05 F6 | 	mov	local05, #2
00d30     00 54 05 F6 | 	mov	local06, #0
00d34     A5 26 01 F6 | 	mov	arg01, local01
00d38     A6 28 01 F6 | 	mov	arg02, local02
00d3c     A8 2A 01 F6 | 	mov	arg03, local04
00d40     A9 2C 01 F6 | 	mov	arg04, local05
00d44     AA 2E 01 F6 | 	mov	arg05, local06
00d48     34 08 B0 FD | 	call	#_outtextxyc2
00d4c                 | '               outtextxyc2(64,16,inttostr(cpl),2,0)
00d4c     40 4A 05 F6 | 	mov	local01, #64
00d50     10 4C 05 F6 | 	mov	local02, #16
00d54     94 D2 04 F1 | 	add	objptr, #148
00d58     69 50 01 FB | 	rdlong	local04, objptr
00d5c     94 D2 84 F1 | 	sub	objptr, #148
00d60     A8 4E 01 F6 | 	mov	local03, local04
00d64     A7 26 01 F6 | 	mov	arg01, local03
00d68     44 2C B0 FD | 	call	#_inttostr
00d6c     6D 52 01 F6 | 	mov	local05, result1
00d70     02 54 05 F6 | 	mov	local06, #2
00d74     00 56 05 F6 | 	mov	local07, #0
00d78     A5 26 01 F6 | 	mov	arg01, local01
00d7c     A6 28 01 F6 | 	mov	arg02, local02
00d80     A9 2A 01 F6 | 	mov	arg03, local05
00d84     AA 2C 01 F6 | 	mov	arg04, local06
00d88     AB 2E 01 F6 | 	mov	arg05, local07
00d8c     F0 07 B0 FD | 	call	#_outtextxyc2
00d90                 | '               outtextxyc2(64,32,inttostr(buf_ptr),2,0)
00d90     40 4A 05 F6 | 	mov	local01, #64
00d94     20 4C 05 F6 | 	mov	local02, #32
00d98     69 4E 01 FB | 	rdlong	local03, objptr
00d9c     A7 26 01 F6 | 	mov	arg01, local03
00da0     0C 2C B0 FD | 	call	#_inttostr
00da4     6D 50 01 F6 | 	mov	local04, result1
00da8     02 52 05 F6 | 	mov	local05, #2
00dac     00 54 05 F6 | 	mov	local06, #0
00db0     A5 26 01 F6 | 	mov	arg01, local01
00db4     A6 28 01 F6 | 	mov	arg02, local02
00db8     A8 2A 01 F6 | 	mov	arg03, local04
00dbc     A9 2C 01 F6 | 	mov	arg04, local05
00dc0     AA 2E 01 F6 | 	mov	arg05, local06
00dc4     B8 07 B0 FD | 	call	#_outtextxyc2
00dc8                 | '               outtextxyc2(64,48,inttostr(buflen*4),2,0)
00dc8     40 4A 05 F6 | 	mov	local01, #64
00dcc     30 4C 05 F6 | 	mov	local02, #48
00dd0     34 D2 04 F1 | 	add	objptr, #52
00dd4     69 52 01 FB | 	rdlong	local05, objptr
00dd8     34 D2 84 F1 | 	sub	objptr, #52
00ddc     A9 50 01 F6 | 	mov	local04, local05
00de0     A8 4E 01 F6 | 	mov	local03, local04
00de4     02 4E 65 F0 | 	shl	local03, #2
00de8     A7 54 01 F6 | 	mov	local06, local03
00dec     AA 26 01 F6 | 	mov	arg01, local06
00df0     BC 2B B0 FD | 	call	#_inttostr
00df4     6D 56 01 F6 | 	mov	local07, result1
00df8     02 64 05 F6 | 	mov	local14, #2
00dfc     00 66 05 F6 | 	mov	local15, #0
00e00     A5 26 01 F6 | 	mov	arg01, local01
00e04     A6 28 01 F6 | 	mov	arg02, local02
00e08     AB 2A 01 F6 | 	mov	arg03, local07
00e0c     B2 2C 01 F6 | 	mov	arg04, local14
00e10     B3 2E 01 F6 | 	mov	arg05, local15
00e14     68 07 B0 FD | 	call	#_outtextxyc2
00e18                 | '               outtextxyc2(64,64,inttostr(lines),2,0)
00e18     40 4A 05 F6 | 	mov	local01, #64
00e1c     40 4C 05 F6 | 	mov	local02, #64
00e20     98 D2 04 F1 | 	add	objptr, #152
00e24     69 50 01 FB | 	rdlong	local04, objptr
00e28     98 D2 84 F1 | 	sub	objptr, #152
00e2c     A8 4E 01 F6 | 	mov	local03, local04
00e30     A7 26 01 F6 | 	mov	arg01, local03
00e34     78 2B B0 FD | 	call	#_inttostr
00e38     6D 52 01 F6 | 	mov	local05, result1
00e3c     02 54 05 F6 | 	mov	local06, #2
00e40     00 56 05 F6 | 	mov	local07, #0
00e44     A5 26 01 F6 | 	mov	arg01, local01
00e48     A6 28 01 F6 | 	mov	arg02, local02
00e4c     A9 2A 01 F6 | 	mov	arg03, local05
00e50     AA 2C 01 F6 | 	mov	arg04, local06
00e54     AB 2E 01 F6 | 	mov	arg05, local07
00e58     24 07 B0 FD | 	call	#_outtextxyc2
00e5c     DC 04 90 FD | 	jmp	#LR__0015
00e60                 | LR__0011
00e60                 | '             elseif (ccc==2)
00e60     02 62 0D F2 | 	cmp	local13, #2 wz
00e64     68 02 90 5D |  if_ne	jmp	#LR__0012
00e68                 | '               cls(0,0)
00e68     00 4A 05 F6 | 	mov	local01, #0
00e6c     00 4C 05 F6 | 	mov	local02, #0
00e70     A5 26 01 F6 | 	mov	arg01, local01
00e74     A6 28 01 F6 | 	mov	arg02, local02
00e78     28 1C B0 FD | 	call	#_cls
00e7c     6D 4E 01 F6 | 	mov	local03, result1
00e80                 | '               outtextxyc4(0,0,string("mode"),9,0)
00e80     00 4A 05 F6 | 	mov	local01, #0
00e84     00 4C 05 F6 | 	mov	local02, #0
00e88     28 00 00 FF 
00e8c     38 4E 05 F6 | 	mov	local03, ##@LR__0279
00e90     A7 50 01 F6 | 	mov	local04, local03
00e94     09 52 05 F6 | 	mov	local05, #9
00e98     00 54 05 F6 | 	mov	local06, #0
00e9c     A5 26 01 F6 | 	mov	arg01, local01
00ea0     A6 28 01 F6 | 	mov	arg02, local02
00ea4     A8 2A 01 F6 | 	mov	arg03, local04
00ea8     A9 2C 01 F6 | 	mov	arg04, local05
00eac     AA 2E 01 F6 | 	mov	arg05, local06
00eb0     04 06 B0 FD | 	call	#_outtextxyc4
00eb4                 | '               outtextxyc4(0,16,string("cpl"),9,0)'
00eb4     00 4A 05 F6 | 	mov	local01, #0
00eb8     10 4C 05 F6 | 	mov	local02, #16
00ebc     28 00 00 FF 
00ec0     3D 4E 05 F6 | 	mov	local03, ##@LR__0280
00ec4     A7 50 01 F6 | 	mov	local04, local03
00ec8     09 52 05 F6 | 	mov	local05, #9
00ecc     00 54 05 F6 | 	mov	local06, #0
00ed0     A5 26 01 F6 | 	mov	arg01, local01
00ed4     A6 28 01 F6 | 	mov	arg02, local02
00ed8     A8 2A 01 F6 | 	mov	arg03, local04
00edc     A9 2C 01 F6 | 	mov	arg04, local05
00ee0     AA 2E 01 F6 | 	mov	arg05, local06
00ee4     D0 05 B0 FD | 	call	#_outtextxyc4
00ee8                 | '               outtextxyc4(0,32,string("buf_ptr"),9,0)
00ee8     00 4A 05 F6 | 	mov	local01, #0
00eec     20 4C 05 F6 | 	mov	local02, #32
00ef0     28 00 00 FF 
00ef4     41 4E 05 F6 | 	mov	local03, ##@LR__0281
00ef8     A7 50 01 F6 | 	mov	local04, local03
00efc     09 52 05 F6 | 	mov	local05, #9
00f00     00 54 05 F6 | 	mov	local06, #0
00f04     A5 26 01 F6 | 	mov	arg01, local01
00f08     A6 28 01 F6 | 	mov	arg02, local02
00f0c     A8 2A 01 F6 | 	mov	arg03, local04
00f10     A9 2C 01 F6 | 	mov	arg04, local05
00f14     AA 2E 01 F6 | 	mov	arg05, local06
00f18     9C 05 B0 FD | 	call	#_outtextxyc4
00f1c                 | '               outtextxyc4(0,48,string("buflen"),9,0)
00f1c     00 4A 05 F6 | 	mov	local01, #0
00f20     30 4C 05 F6 | 	mov	local02, #48
00f24     28 00 00 FF 
00f28     49 4E 05 F6 | 	mov	local03, ##@LR__0282
00f2c     A7 50 01 F6 | 	mov	local04, local03
00f30     09 52 05 F6 | 	mov	local05, #9
00f34     00 54 05 F6 | 	mov	local06, #0
00f38     A5 26 01 F6 | 	mov	arg01, local01
00f3c     A6 28 01 F6 | 	mov	arg02, local02
00f40     A8 2A 01 F6 | 	mov	arg03, local04
00f44     A9 2C 01 F6 | 	mov	arg04, local05
00f48     AA 2E 01 F6 | 	mov	arg05, local06
00f4c     68 05 B0 FD | 	call	#_outtextxyc4
00f50                 | '               outtextxyc4(0,64,string("lines"),9,0)
00f50     00 4A 05 F6 | 	mov	local01, #0
00f54     40 4C 05 F6 | 	mov	local02, #64
00f58     28 00 00 FF 
00f5c     50 4E 05 F6 | 	mov	local03, ##@LR__0283
00f60     A7 50 01 F6 | 	mov	local04, local03
00f64     09 52 05 F6 | 	mov	local05, #9
00f68     00 54 05 F6 | 	mov	local06, #0
00f6c     A5 26 01 F6 | 	mov	arg01, local01
00f70     A6 28 01 F6 | 	mov	arg02, local02
00f74     A8 2A 01 F6 | 	mov	arg03, local04
00f78     A9 2C 01 F6 | 	mov	arg04, local05
00f7c     AA 2E 01 F6 | 	mov	arg05, local06
00f80     34 05 B0 FD | 	call	#_outtextxyc4
00f84                 | '               outtextxyc4(64,0,inttostr(amode),4,0)
00f84     40 4A 05 F6 | 	mov	local01, #64
00f88     00 4C 05 F6 | 	mov	local02, #0
00f8c     B0 4E 01 F6 | 	mov	local03, local12
00f90     A7 26 01 F6 | 	mov	arg01, local03
00f94     18 2A B0 FD | 	call	#_inttostr
00f98     6D 50 01 F6 | 	mov	local04, result1
00f9c     04 52 05 F6 | 	mov	local05, #4
00fa0     00 54 05 F6 | 	mov	local06, #0
00fa4     A5 26 01 F6 | 	mov	arg01, local01
00fa8     A6 28 01 F6 | 	mov	arg02, local02
00fac     A8 2A 01 F6 | 	mov	arg03, local04
00fb0     A9 2C 01 F6 | 	mov	arg04, local05
00fb4     AA 2E 01 F6 | 	mov	arg05, local06
00fb8     FC 04 B0 FD | 	call	#_outtextxyc4
00fbc                 | '               outtextxyc4(64,16,inttostr(cpl),4,0)
00fbc     40 4A 05 F6 | 	mov	local01, #64
00fc0     10 4C 05 F6 | 	mov	local02, #16
00fc4     94 D2 04 F1 | 	add	objptr, #148
00fc8     69 50 01 FB | 	rdlong	local04, objptr
00fcc     94 D2 84 F1 | 	sub	objptr, #148
00fd0     A8 4E 01 F6 | 	mov	local03, local04
00fd4     A7 26 01 F6 | 	mov	arg01, local03
00fd8     D4 29 B0 FD | 	call	#_inttostr
00fdc     6D 52 01 F6 | 	mov	local05, result1
00fe0     04 54 05 F6 | 	mov	local06, #4
00fe4     00 56 05 F6 | 	mov	local07, #0
00fe8     A5 26 01 F6 | 	mov	arg01, local01
00fec     A6 28 01 F6 | 	mov	arg02, local02
00ff0     A9 2A 01 F6 | 	mov	arg03, local05
00ff4     AA 2C 01 F6 | 	mov	arg04, local06
00ff8     AB 2E 01 F6 | 	mov	arg05, local07
00ffc     B8 04 B0 FD | 	call	#_outtextxyc4
01000                 | '               outtextxyc4(64,32,inttostr(buf_ptr),4,0)
01000     40 4A 05 F6 | 	mov	local01, #64
01004     20 4C 05 F6 | 	mov	local02, #32
01008     69 4E 01 FB | 	rdlong	local03, objptr
0100c     A7 26 01 F6 | 	mov	arg01, local03
01010     9C 29 B0 FD | 	call	#_inttostr
01014     6D 50 01 F6 | 	mov	local04, result1
01018     04 52 05 F6 | 	mov	local05, #4
0101c     00 54 05 F6 | 	mov	local06, #0
01020     A5 26 01 F6 | 	mov	arg01, local01
01024     A6 28 01 F6 | 	mov	arg02, local02
01028     A8 2A 01 F6 | 	mov	arg03, local04
0102c     A9 2C 01 F6 | 	mov	arg04, local05
01030     AA 2E 01 F6 | 	mov	arg05, local06
01034     80 04 B0 FD | 	call	#_outtextxyc4
01038                 | '               outtextxyc4(64,48,inttostr(buflen*4),4,0)
01038     40 4A 05 F6 | 	mov	local01, #64
0103c     30 4C 05 F6 | 	mov	local02, #48
01040     34 D2 04 F1 | 	add	objptr, #52
01044     69 52 01 FB | 	rdlong	local05, objptr
01048     34 D2 84 F1 | 	sub	objptr, #52
0104c     A9 50 01 F6 | 	mov	local04, local05
01050     A8 4E 01 F6 | 	mov	local03, local04
01054     02 4E 65 F0 | 	shl	local03, #2
01058     A7 54 01 F6 | 	mov	local06, local03
0105c     AA 26 01 F6 | 	mov	arg01, local06
01060     4C 29 B0 FD | 	call	#_inttostr
01064     6D 56 01 F6 | 	mov	local07, result1
01068     04 64 05 F6 | 	mov	local14, #4
0106c     00 66 05 F6 | 	mov	local15, #0
01070     A5 26 01 F6 | 	mov	arg01, local01
01074     A6 28 01 F6 | 	mov	arg02, local02
01078     AB 2A 01 F6 | 	mov	arg03, local07
0107c     B2 2C 01 F6 | 	mov	arg04, local14
01080     B3 2E 01 F6 | 	mov	arg05, local15
01084     30 04 B0 FD | 	call	#_outtextxyc4
01088                 | '               outtextxyc4(64,64,inttostr(lines),4,0)
01088     40 4A 05 F6 | 	mov	local01, #64
0108c     40 4C 05 F6 | 	mov	local02, #64
01090     98 D2 04 F1 | 	add	objptr, #152
01094     69 50 01 FB | 	rdlong	local04, objptr
01098     98 D2 84 F1 | 	sub	objptr, #152
0109c     A8 4E 01 F6 | 	mov	local03, local04
010a0     A7 26 01 F6 | 	mov	arg01, local03
010a4     08 29 B0 FD | 	call	#_inttostr
010a8     6D 52 01 F6 | 	mov	local05, result1
010ac     04 54 05 F6 | 	mov	local06, #4
010b0     00 56 05 F6 | 	mov	local07, #0
010b4     A5 26 01 F6 | 	mov	arg01, local01
010b8     A6 28 01 F6 | 	mov	arg02, local02
010bc     A9 2A 01 F6 | 	mov	arg03, local05
010c0     AA 2C 01 F6 | 	mov	arg04, local06
010c4     AB 2E 01 F6 | 	mov	arg05, local07
010c8     EC 03 B0 FD | 	call	#_outtextxyc4
010cc     6C 02 90 FD | 	jmp	#LR__0014
010d0                 | LR__0012
010d0                 | '             elseif (ccc==3)
010d0     03 62 0D F2 | 	cmp	local13, #3 wz
010d4     64 02 90 5D |  if_ne	jmp	#LR__0013
010d8                 | '               cls(0,0)
010d8     00 4A 05 F6 | 	mov	local01, #0
010dc     00 4C 05 F6 | 	mov	local02, #0
010e0     A5 26 01 F6 | 	mov	arg01, local01
010e4     A6 28 01 F6 | 	mov	arg02, local02
010e8     B8 19 B0 FD | 	call	#_cls
010ec     6D 4E 01 F6 | 	mov	local03, result1
010f0                 | '               outtextxyc8(0,0,string("mode"),120,0)
010f0     00 4A 05 F6 | 	mov	local01, #0
010f4     00 4C 05 F6 | 	mov	local02, #0
010f8     28 00 00 FF 
010fc     56 4E 05 F6 | 	mov	local03, ##@LR__0284
01100     A7 50 01 F6 | 	mov	local04, local03
01104     78 52 05 F6 | 	mov	local05, #120
01108     00 54 05 F6 | 	mov	local06, #0
0110c     A5 26 01 F6 | 	mov	arg01, local01
01110     A6 28 01 F6 | 	mov	arg02, local02
01114     A8 2A 01 F6 | 	mov	arg03, local04
01118     A9 2C 01 F6 | 	mov	arg04, local05
0111c     AA 2E 01 F6 | 	mov	arg05, local06
01120     EC 05 B0 FD | 	call	#_outtextxyc8
01124                 | '               outtextxyc8(0,16,string("cpl"),120,0)'
01124     00 4A 05 F6 | 	mov	local01, #0
01128     10 4C 05 F6 | 	mov	local02, #16
0112c     28 00 00 FF 
01130     5B 4E 05 F6 | 	mov	local03, ##@LR__0285
01134     A7 50 01 F6 | 	mov	local04, local03
01138     78 52 05 F6 | 	mov	local05, #120
0113c     00 54 05 F6 | 	mov	local06, #0
01140     A5 26 01 F6 | 	mov	arg01, local01
01144     A6 28 01 F6 | 	mov	arg02, local02
01148     A8 2A 01 F6 | 	mov	arg03, local04
0114c     A9 2C 01 F6 | 	mov	arg04, local05
01150     AA 2E 01 F6 | 	mov	arg05, local06
01154     B8 05 B0 FD | 	call	#_outtextxyc8
01158                 | '               outtextxyc8(0,32,string("buf_ptr"),120,0)
01158     00 4A 05 F6 | 	mov	local01, #0
0115c     20 4C 05 F6 | 	mov	local02, #32
01160     28 00 00 FF 
01164     5F 4E 05 F6 | 	mov	local03, ##@LR__0286
01168     A7 50 01 F6 | 	mov	local04, local03
0116c     78 52 05 F6 | 	mov	local05, #120
01170     00 54 05 F6 | 	mov	local06, #0
01174     A5 26 01 F6 | 	mov	arg01, local01
01178     A6 28 01 F6 | 	mov	arg02, local02
0117c     A8 2A 01 F6 | 	mov	arg03, local04
01180     A9 2C 01 F6 | 	mov	arg04, local05
01184     AA 2E 01 F6 | 	mov	arg05, local06
01188     84 05 B0 FD | 	call	#_outtextxyc8
0118c                 | '               outtextxyc8(0,48,string("buflen"),120,0)
0118c     00 4A 05 F6 | 	mov	local01, #0
01190     30 4C 05 F6 | 	mov	local02, #48
01194     28 00 00 FF 
01198     67 4E 05 F6 | 	mov	local03, ##@LR__0287
0119c     A7 50 01 F6 | 	mov	local04, local03
011a0     78 52 05 F6 | 	mov	local05, #120
011a4     00 54 05 F6 | 	mov	local06, #0
011a8     A5 26 01 F6 | 	mov	arg01, local01
011ac     A6 28 01 F6 | 	mov	arg02, local02
011b0     A8 2A 01 F6 | 	mov	arg03, local04
011b4     A9 2C 01 F6 | 	mov	arg04, local05
011b8     AA 2E 01 F6 | 	mov	arg05, local06
011bc     50 05 B0 FD | 	call	#_outtextxyc8
011c0                 | '               outtextxyc8(0,64,string("lines"),120,0)
011c0     00 4A 05 F6 | 	mov	local01, #0
011c4     40 4C 05 F6 | 	mov	local02, #64
011c8     28 00 00 FF 
011cc     6E 4E 05 F6 | 	mov	local03, ##@LR__0288
011d0     A7 50 01 F6 | 	mov	local04, local03
011d4     78 52 05 F6 | 	mov	local05, #120
011d8     00 54 05 F6 | 	mov	local06, #0
011dc     A5 26 01 F6 | 	mov	arg01, local01
011e0     A6 28 01 F6 | 	mov	arg02, local02
011e4     A8 2A 01 F6 | 	mov	arg03, local04
011e8     A9 2C 01 F6 | 	mov	arg04, local05
011ec     AA 2E 01 F6 | 	mov	arg05, local06
011f0     1C 05 B0 FD | 	call	#_outtextxyc8
011f4                 | '               outtextxyc8(64,0,inttostr(amode),40,0)
011f4     40 4A 05 F6 | 	mov	local01, #64
011f8     00 4C 05 F6 | 	mov	local02, #0
011fc     B0 4E 01 F6 | 	mov	local03, local12
01200     A7 26 01 F6 | 	mov	arg01, local03
01204     A8 27 B0 FD | 	call	#_inttostr
01208     6D 50 01 F6 | 	mov	local04, result1
0120c     28 52 05 F6 | 	mov	local05, #40
01210     00 54 05 F6 | 	mov	local06, #0
01214     A5 26 01 F6 | 	mov	arg01, local01
01218     A6 28 01 F6 | 	mov	arg02, local02
0121c     A8 2A 01 F6 | 	mov	arg03, local04
01220     A9 2C 01 F6 | 	mov	arg04, local05
01224     AA 2E 01 F6 | 	mov	arg05, local06
01228     E4 04 B0 FD | 	call	#_outtextxyc8
0122c                 | '               outtextxyc8(64,16,inttostr(cpl),40,0)
0122c     40 4A 05 F6 | 	mov	local01, #64
01230     10 4C 05 F6 | 	mov	local02, #16
01234     94 D2 04 F1 | 	add	objptr, #148
01238     69 50 01 FB | 	rdlong	local04, objptr
0123c     94 D2 84 F1 | 	sub	objptr, #148
01240     A8 4E 01 F6 | 	mov	local03, local04
01244     A7 26 01 F6 | 	mov	arg01, local03
01248     64 27 B0 FD | 	call	#_inttostr
0124c     6D 52 01 F6 | 	mov	local05, result1
01250     28 54 05 F6 | 	mov	local06, #40
01254     00 56 05 F6 | 	mov	local07, #0
01258     A5 26 01 F6 | 	mov	arg01, local01
0125c     A6 28 01 F6 | 	mov	arg02, local02
01260     A9 2A 01 F6 | 	mov	arg03, local05
01264     AA 2C 01 F6 | 	mov	arg04, local06
01268     AB 2E 01 F6 | 	mov	arg05, local07
0126c     A0 04 B0 FD | 	call	#_outtextxyc8
01270                 | '               outtextxyc8(64,32,inttostr(buf_ptr),40,0)
01270     40 4A 05 F6 | 	mov	local01, #64
01274     20 4C 05 F6 | 	mov	local02, #32
01278     69 4E 01 FB | 	rdlong	local03, objptr
0127c     A7 26 01 F6 | 	mov	arg01, local03
01280     2C 27 B0 FD | 	call	#_inttostr
01284     6D 50 01 F6 | 	mov	local04, result1
01288     28 52 05 F6 | 	mov	local05, #40
0128c     00 54 05 F6 | 	mov	local06, #0
01290     A5 26 01 F6 | 	mov	arg01, local01
01294     A6 28 01 F6 | 	mov	arg02, local02
01298     A8 2A 01 F6 | 	mov	arg03, local04
0129c     A9 2C 01 F6 | 	mov	arg04, local05
012a0     AA 2E 01 F6 | 	mov	arg05, local06
012a4     68 04 B0 FD | 	call	#_outtextxyc8
012a8                 | '               outtextxyc8(64,48,inttostr(buflen*4),40,0)
012a8     40 4A 05 F6 | 	mov	local01, #64
012ac     30 4C 05 F6 | 	mov	local02, #48
012b0     34 D2 04 F1 | 	add	objptr, #52
012b4     69 52 01 FB | 	rdlong	local05, objptr
012b8     34 D2 84 F1 | 	sub	objptr, #52
012bc     A9 50 01 F6 | 	mov	local04, local05
012c0     A8 4E 01 F6 | 	mov	local03, local04
012c4     02 4E 65 F0 | 	shl	local03, #2
012c8     A7 54 01 F6 | 	mov	local06, local03
012cc     AA 26 01 F6 | 	mov	arg01, local06
012d0     DC 26 B0 FD | 	call	#_inttostr
012d4     6D 56 01 F6 | 	mov	local07, result1
012d8     28 64 05 F6 | 	mov	local14, #40
012dc     00 66 05 F6 | 	mov	local15, #0
012e0     A5 26 01 F6 | 	mov	arg01, local01
012e4     A6 28 01 F6 | 	mov	arg02, local02
012e8     AB 2A 01 F6 | 	mov	arg03, local07
012ec     B2 2C 01 F6 | 	mov	arg04, local14
012f0     B3 2E 01 F6 | 	mov	arg05, local15
012f4     18 04 B0 FD | 	call	#_outtextxyc8
012f8                 | '               outtextxyc8(64,64,inttostr(lines),40,0)
012f8     40 4A 05 F6 | 	mov	local01, #64
012fc     40 4C 05 F6 | 	mov	local02, #64
01300     98 D2 04 F1 | 	add	objptr, #152
01304     69 50 01 FB | 	rdlong	local04, objptr
01308     98 D2 84 F1 | 	sub	objptr, #152
0130c     A8 4E 01 F6 | 	mov	local03, local04
01310     A7 26 01 F6 | 	mov	arg01, local03
01314     98 26 B0 FD | 	call	#_inttostr
01318     6D 52 01 F6 | 	mov	local05, result1
0131c     28 54 05 F6 | 	mov	local06, #40
01320     00 56 05 F6 | 	mov	local07, #0
01324     A5 26 01 F6 | 	mov	arg01, local01
01328     A6 28 01 F6 | 	mov	arg02, local02
0132c     A9 2A 01 F6 | 	mov	arg03, local05
01330     AA 2C 01 F6 | 	mov	arg04, local06
01334     AB 2E 01 F6 | 	mov	arg05, local07
01338     D4 03 B0 FD | 	call	#_outtextxyc8
0133c                 | LR__0013
0133c                 | LR__0014
0133c                 | LR__0015
0133c                 | LR__0016
0133c                 | LR__0017
0133c                 | '           waitvbl(50)
0133c     32 4A 05 F6 | 	mov	local01, #50
01340     A5 26 01 F6 | 	mov	arg01, local01
01344     DC 12 B0 FD | 	call	#_waitvbl
01348     AF 4A 01 F6 | 	mov	local01, local11
0134c     AF 4C 01 F6 | 	mov	local02, local11
01350     01 4C 05 F1 | 	add	local02, #1
01354     A6 5E 01 F6 | 	mov	local11, local02
01358     04 5E 5D F2 | 	cmps	local11, #4 wcz
0135c     C8 F5 9F CD |  if_b	jmp	#LR__0009
01360     AE 4A 01 F6 | 	mov	local01, local10
01364     AE 4C 01 F6 | 	mov	local02, local10
01368     01 4C 05 F1 | 	add	local02, #1
0136c     A6 5C 01 F6 | 	mov	local10, local02
01370     04 5C 5D F2 | 	cmps	local10, #4 wcz
01374     AC F5 9F CD |  if_b	jmp	#LR__0008
01378     B1 4A 01 F6 | 	mov	local01, local13
0137c     B1 4C 01 F6 | 	mov	local02, local13
01380     01 4C 05 F1 | 	add	local02, #1
01384     A6 62 01 F6 | 	mov	local13, local02
01388     04 62 5D F2 | 	cmps	local13, #4 wcz
0138c     90 F5 9F CD |  if_b	jmp	#LR__0007
01390     AD 4A 01 F6 | 	mov	local01, local09
01394     AD 4C 01 F6 | 	mov	local02, local09
01398     01 4C 05 F1 | 	add	local02, #1
0139c     A6 5A 01 F6 | 	mov	local09, local02
013a0     04 5A 5D F2 | 	cmps	local09, #4 wcz
013a4     74 F5 9F CD |  if_b	jmp	#LR__0006
013a8     AC 4A 01 F6 | 	mov	local01, local08
013ac     AC 4C 01 F6 | 	mov	local02, local08
013b0     01 4C 05 F1 | 	add	local02, #1
013b4     A6 58 01 F6 | 	mov	local08, local02
013b8     02 58 5D F2 | 	cmps	local08, #2 wcz
013bc     58 F5 9F CD |  if_b	jmp	#LR__0005
013c0                 | ' 'cls(0,1)    
013c0                 | ' 
013c0                 | ' 'putcharxycz8(50,50,97,40,0,1,1)
013c0                 | ' 'repeat x from 0 to 31
013c0                 | ' '  repeat i from 0 to 479
013c0                 | ' '    putpixel4(i+x,i,2)
013c0                 | ' '  waitvbl(0)
013c0                 | ' 'outtextxyc4(0,0,string("cpl"),1,0)
013c0                 | ' 'outtextxyc4(0,16,string("buf_ptr"),1,0)
013c0                 | ' 'outtextxyc4(0,32,string("buflen"),1,0)
013c0                 | ' 'outtextxyc4(0,48,string("lines"),1,0)
013c0                 | ' 'outtextxyc4(100,0,inttostr(cpl),1,0)
013c0                 | ' 'outtextxyc4(100,16,inttostr(buf_ptr),1,0)
013c0                 | ' 'outtextxyc4(100,32,inttostr(buflen*4),1,0)
013c0                 | ' 'outtextxyc4(100,48,inttostr(lines),1,0)
013c0                 | ' 'repeat i from 2*cpl to  -2*cpl  
013c0                 | ' '  outtextxyc4(i,100,string("1234567890123456789012345678901234567890"),1,0) 
013c0                 | ' '  waitvbl(5) 
013c0                 | ' 'i:=cpl
013c0                 | ' 'waitvbl(2400)
013c0                 | ' 'setmode (0)
013c0                 | ' 'cls(154,147)
013c0                 | ' 'writeln(inttostr(i))
013c0                 | ' 'cls(154,147)
013c0                 | ' 'writeln(inttostr(xzoom))
013c0                 | ' 'writeln(inttostr(buflen))
013c0                 | ' 'writeln(string("Hello, World!"))
013c0                 | ' 'writeln(string("You started the driver instead of your main program!"))
013c0                 | ' 'writeln(string("This is an alpha 0.13 version of displaylisted driver"))
013c0                 | ' 'writeln(inttohex(buf_ptr,8))
013c0                 | ' 'writeln(string("This line is reversed"))
013c0                 | ' 'writeln(string("The text above is double height, while this line is single height"))
013c0                 | ' 'writeln(string("Did you ever see a BLUE monitor?"))
013c0                 | ' 'repeat i from 0 to 300
013c0                 | '  ' write(inttohex(long[dl_ptr+4*i],8))
013c0                 | '   'write(string("  "))
013c0                 | ' 'waitms(1000)
013c0                 | ' repeat
013c0                 | LR__0018
013c0     FC FF 9F FD | 	jmp	#LR__0018
013c4     37 F0 03 F6 | 	mov	ptra, fp
013c8     4B 00 A0 FD | 	call	#popregs_
013cc                 | _dummy_ret
013cc     2D 00 64 FD | 	ret
013d0                 | 
013d0                 | '   'cogstop(cogid())
013d0                 | ' 
013d0                 | ' pub outtextxycz8(x,y,text,f,b,xz,yz) | iii,c
013d0                 | _outtextxycz8
013d0     1A 6A 04 F6 | 	mov	COUNT_, #26
013d4     3C 00 A0 FD | 	call	#pushregs_
013d8     93 4A 01 F6 | 	mov	local01, arg01
013dc     94 4C 01 F6 | 	mov	local02, arg02
013e0     95 4E 01 F6 | 	mov	local03, arg03
013e4     96 50 01 F6 | 	mov	local04, arg04
013e8     97 52 01 F6 | 	mov	local05, arg05
013ec     98 54 01 F6 | 	mov	local06, arg06
013f0     99 56 01 F6 | 	mov	local07, arg07
013f4                 | ' 
013f4                 | ' repeat iii from 0 to strsize(text)-1
013f4     00 58 05 F6 | 	mov	local08, #0
013f8     A7 5A 01 F6 | 	mov	local09, local03
013fc     AD 26 01 F6 | 	mov	arg01, local09
01400     A4 3A B0 FD | 	call	#__system____builtin_strlen
01404     6D 5C 01 F6 | 	mov	local10, result1
01408     AE 5E 01 F6 | 	mov	local11, local10
0140c     01 5E 85 F1 | 	sub	local11, #1
01410     AF 60 01 F6 | 	mov	local12, local11
01414     00 60 5D F2 | 	cmps	local12, #0 wcz
01418     08 00 90 ED |  if_be	jmp	#LR__0019
0141c     01 62 05 F6 | 	mov	local13, #1
01420     08 00 90 FD | 	jmp	#LR__0020
01424                 | LR__0019
01424     FF FF 7F FF 
01428     FF 63 05 F6 | 	mov	local13, ##-1
0142c                 | LR__0020
0142c     B1 64 01 F6 | 	mov	local14, local13
01430     B0 66 01 F6 | 	mov	local15, local12
01434     B2 66 01 F1 | 	add	local15, local14
01438     B3 60 01 F6 | 	mov	local12, local15
0143c                 | LR__0021
0143c                 | ' 
0143c                 | '     putcharxycz8(x+8*xz*iii,y,byte[text+iii],f,b,xz,yz)
0143c     A5 68 01 F6 | 	mov	local16, local01
01440     AA 6A 01 F6 | 	mov	local17, local06
01444     03 6A 65 F0 | 	shl	local17, #3
01448     AC 6A 01 FD | 	qmul	local17, local08
0144c     18 6C 61 FD | 	getqx	local18
01450     B6 68 01 F1 | 	add	local16, local18
01454     B4 6E 01 F6 | 	mov	local19, local16
01458     A6 70 01 F6 | 	mov	local20, local02
0145c     A7 72 01 F6 | 	mov	local21, local03
01460     AC 72 01 F1 | 	add	local21, local08
01464     B9 74 C1 FA | 	rdbyte	local22, local21
01468     A8 76 01 F6 | 	mov	local23, local04
0146c     A9 78 01 F6 | 	mov	local24, local05
01470     AA 7A 01 F6 | 	mov	local25, local06
01474     AB 7C 01 F6 | 	mov	local26, local07
01478     B7 26 01 F6 | 	mov	arg01, local19
0147c     B8 28 01 F6 | 	mov	arg02, local20
01480     BA 2A 01 F6 | 	mov	arg03, local22
01484     BB 2C 01 F6 | 	mov	arg04, local23
01488     BC 2E 01 F6 | 	mov	arg05, local24
0148c     BD 30 01 F6 | 	mov	arg06, local25
01490     BE 32 01 F6 | 	mov	arg07, local26
01494     CC 07 B0 FD | 	call	#_putcharxycz8
01498     AC 68 01 F6 | 	mov	local16, local08
0149c     B2 68 01 F1 | 	add	local16, local14
014a0     B4 58 01 F6 | 	mov	local08, local16
014a4     B0 58 09 F2 | 	cmp	local08, local12 wz
014a8     90 FF 9F 5D |  if_ne	jmp	#LR__0021
014ac     37 F0 03 F6 | 	mov	ptra, fp
014b0     4B 00 A0 FD | 	call	#popregs_
014b4                 | _outtextxycz8_ret
014b4     2D 00 64 FD | 	ret
014b8                 | 
014b8                 | ' 
014b8                 | ' pub outtextxyc4(x,y,text,f,b) | iii,c
014b8                 | _outtextxyc4
014b8     15 6A 04 F6 | 	mov	COUNT_, #21
014bc     3C 00 A0 FD | 	call	#pushregs_
014c0     93 4A 01 F6 | 	mov	local01, arg01
014c4     94 4C 01 F6 | 	mov	local02, arg02
014c8     95 4E 01 F6 | 	mov	local03, arg03
014cc     96 50 01 F6 | 	mov	local04, arg04
014d0     97 52 01 F6 | 	mov	local05, arg05
014d4                 | ' 
014d4                 | ' repeat iii from 0 to strsize(text)-1
014d4     00 54 05 F6 | 	mov	local06, #0
014d8     A7 56 01 F6 | 	mov	local07, local03
014dc     AB 26 01 F6 | 	mov	arg01, local07
014e0     C4 39 B0 FD | 	call	#__system____builtin_strlen
014e4     6D 58 01 F6 | 	mov	local08, result1
014e8     AC 5A 01 F6 | 	mov	local09, local08
014ec     01 5A 85 F1 | 	sub	local09, #1
014f0     AD 5C 01 F6 | 	mov	local10, local09
014f4     00 5C 5D F2 | 	cmps	local10, #0 wcz
014f8     08 00 90 ED |  if_be	jmp	#LR__0022
014fc     01 5E 05 F6 | 	mov	local11, #1
01500     08 00 90 FD | 	jmp	#LR__0023
01504                 | LR__0022
01504     FF FF 7F FF 
01508     FF 5F 05 F6 | 	mov	local11, ##-1
0150c                 | LR__0023
0150c     AF 60 01 F6 | 	mov	local12, local11
01510     AE 62 01 F6 | 	mov	local13, local10
01514     B0 62 01 F1 | 	add	local13, local12
01518     B1 5C 01 F6 | 	mov	local10, local13
0151c                 | LR__0024
0151c                 | ' 
0151c                 | '     putcharxyc4(x+8*iii,y,byte[text+iii],f,b)
0151c     A5 64 01 F6 | 	mov	local14, local01
01520     AA 66 01 F6 | 	mov	local15, local06
01524     03 66 65 F0 | 	shl	local15, #3
01528     B3 64 01 F1 | 	add	local14, local15
0152c     B2 68 01 F6 | 	mov	local16, local14
01530     A6 6A 01 F6 | 	mov	local17, local02
01534     A7 6C 01 F6 | 	mov	local18, local03
01538     AA 6C 01 F1 | 	add	local18, local06
0153c     B6 6E C1 FA | 	rdbyte	local19, local18
01540     A8 70 01 F6 | 	mov	local20, local04
01544     A9 72 01 F6 | 	mov	local21, local05
01548     B4 26 01 F6 | 	mov	arg01, local16
0154c     B5 28 01 F6 | 	mov	arg02, local17
01550     B7 2A 01 F6 | 	mov	arg03, local19
01554     B8 2C 01 F6 | 	mov	arg04, local20
01558     B9 2E 01 F6 | 	mov	arg05, local21
0155c     24 04 B0 FD | 	call	#_putcharxyc4
01560     AA 64 01 F6 | 	mov	local14, local06
01564     B0 64 01 F1 | 	add	local14, local12
01568     B2 54 01 F6 | 	mov	local06, local14
0156c     AE 54 09 F2 | 	cmp	local06, local10 wz
01570     A8 FF 9F 5D |  if_ne	jmp	#LR__0024
01574     37 F0 03 F6 | 	mov	ptra, fp
01578     4B 00 A0 FD | 	call	#popregs_
0157c                 | _outtextxyc4_ret
0157c     2D 00 64 FD | 	ret
01580                 | 
01580                 | ' 
01580                 | ' pub outtextxyc2(x,y,text,f,b) | iii,c
01580                 | _outtextxyc2
01580     15 6A 04 F6 | 	mov	COUNT_, #21
01584     3C 00 A0 FD | 	call	#pushregs_
01588     93 4A 01 F6 | 	mov	local01, arg01
0158c     94 4C 01 F6 | 	mov	local02, arg02
01590     95 4E 01 F6 | 	mov	local03, arg03
01594     96 50 01 F6 | 	mov	local04, arg04
01598     97 52 01 F6 | 	mov	local05, arg05
0159c                 | ' 
0159c                 | ' repeat iii from 0 to strsize(text)-1
0159c     00 54 05 F6 | 	mov	local06, #0
015a0     A7 56 01 F6 | 	mov	local07, local03
015a4     AB 26 01 F6 | 	mov	arg01, local07
015a8     FC 38 B0 FD | 	call	#__system____builtin_strlen
015ac     6D 58 01 F6 | 	mov	local08, result1
015b0     AC 5A 01 F6 | 	mov	local09, local08
015b4     01 5A 85 F1 | 	sub	local09, #1
015b8     AD 5C 01 F6 | 	mov	local10, local09
015bc     00 5C 5D F2 | 	cmps	local10, #0 wcz
015c0     08 00 90 ED |  if_be	jmp	#LR__0025
015c4     01 5E 05 F6 | 	mov	local11, #1
015c8     08 00 90 FD | 	jmp	#LR__0026
015cc                 | LR__0025
015cc     FF FF 7F FF 
015d0     FF 5F 05 F6 | 	mov	local11, ##-1
015d4                 | LR__0026
015d4     AF 60 01 F6 | 	mov	local12, local11
015d8     AE 62 01 F6 | 	mov	local13, local10
015dc     B0 62 01 F1 | 	add	local13, local12
015e0     B1 5C 01 F6 | 	mov	local10, local13
015e4                 | LR__0027
015e4                 | ' 
015e4                 | '     putcharxyc2(x+8*iii,y,byte[text+iii],f,b)
015e4     A5 64 01 F6 | 	mov	local14, local01
015e8     AA 66 01 F6 | 	mov	local15, local06
015ec     03 66 65 F0 | 	shl	local15, #3
015f0     B3 64 01 F1 | 	add	local14, local15
015f4     B2 68 01 F6 | 	mov	local16, local14
015f8     A6 6A 01 F6 | 	mov	local17, local02
015fc     A7 6C 01 F6 | 	mov	local18, local03
01600     AA 6C 01 F1 | 	add	local18, local06
01604     B6 6E C1 FA | 	rdbyte	local19, local18
01608     A8 70 01 F6 | 	mov	local20, local04
0160c     A9 72 01 F6 | 	mov	local21, local05
01610     B4 26 01 F6 | 	mov	arg01, local16
01614     B5 28 01 F6 | 	mov	arg02, local17
01618     B7 2A 01 F6 | 	mov	arg03, local19
0161c     B8 2C 01 F6 | 	mov	arg04, local20
01620     B9 2E 01 F6 | 	mov	arg05, local21
01624     4C 04 B0 FD | 	call	#_putcharxyc2
01628     AA 64 01 F6 | 	mov	local14, local06
0162c     B0 64 01 F1 | 	add	local14, local12
01630     B2 54 01 F6 | 	mov	local06, local14
01634     AE 54 09 F2 | 	cmp	local06, local10 wz
01638     A8 FF 9F 5D |  if_ne	jmp	#LR__0027
0163c     37 F0 03 F6 | 	mov	ptra, fp
01640     4B 00 A0 FD | 	call	#popregs_
01644                 | _outtextxyc2_ret
01644     2D 00 64 FD | 	ret
01648                 | 
01648                 | ' 
01648                 | ' pub outtextxyc1(x,y,text,f,b) | iii,c
01648                 | _outtextxyc1
01648     15 6A 04 F6 | 	mov	COUNT_, #21
0164c     3C 00 A0 FD | 	call	#pushregs_
01650     93 4A 01 F6 | 	mov	local01, arg01
01654     94 4C 01 F6 | 	mov	local02, arg02
01658     95 4E 01 F6 | 	mov	local03, arg03
0165c     96 50 01 F6 | 	mov	local04, arg04
01660     97 52 01 F6 | 	mov	local05, arg05
01664                 | ' 
01664                 | ' repeat iii from 0 to strsize(text)-1
01664     00 54 05 F6 | 	mov	local06, #0
01668     A7 56 01 F6 | 	mov	local07, local03
0166c     AB 26 01 F6 | 	mov	arg01, local07
01670     34 38 B0 FD | 	call	#__system____builtin_strlen
01674     6D 58 01 F6 | 	mov	local08, result1
01678     AC 5A 01 F6 | 	mov	local09, local08
0167c     01 5A 85 F1 | 	sub	local09, #1
01680     AD 5C 01 F6 | 	mov	local10, local09
01684     00 5C 5D F2 | 	cmps	local10, #0 wcz
01688     08 00 90 ED |  if_be	jmp	#LR__0028
0168c     01 5E 05 F6 | 	mov	local11, #1
01690     08 00 90 FD | 	jmp	#LR__0029
01694                 | LR__0028
01694     FF FF 7F FF 
01698     FF 5F 05 F6 | 	mov	local11, ##-1
0169c                 | LR__0029
0169c     AF 60 01 F6 | 	mov	local12, local11
016a0     AE 62 01 F6 | 	mov	local13, local10
016a4     B0 62 01 F1 | 	add	local13, local12
016a8     B1 5C 01 F6 | 	mov	local10, local13
016ac                 | LR__0030
016ac                 | ' 
016ac                 | '     putcharxyc1(x+8*iii,y,byte[text+iii],f,b)
016ac     A5 64 01 F6 | 	mov	local14, local01
016b0     AA 66 01 F6 | 	mov	local15, local06
016b4     03 66 65 F0 | 	shl	local15, #3
016b8     B3 64 01 F1 | 	add	local14, local15
016bc     B2 68 01 F6 | 	mov	local16, local14
016c0     A6 6A 01 F6 | 	mov	local17, local02
016c4     A7 6C 01 F6 | 	mov	local18, local03
016c8     AA 6C 01 F1 | 	add	local18, local06
016cc     B6 6E C1 FA | 	rdbyte	local19, local18
016d0     A8 70 01 F6 | 	mov	local20, local04
016d4     A9 72 01 F6 | 	mov	local21, local05
016d8     B4 26 01 F6 | 	mov	arg01, local16
016dc     B5 28 01 F6 | 	mov	arg02, local17
016e0     B7 2A 01 F6 | 	mov	arg03, local19
016e4     B8 2C 01 F6 | 	mov	arg04, local20
016e8     B9 2E 01 F6 | 	mov	arg05, local21
016ec     7C 04 B0 FD | 	call	#_putcharxyc1
016f0     AA 64 01 F6 | 	mov	local14, local06
016f4     B0 64 01 F1 | 	add	local14, local12
016f8     B2 54 01 F6 | 	mov	local06, local14
016fc     AE 54 09 F2 | 	cmp	local06, local10 wz
01700     A8 FF 9F 5D |  if_ne	jmp	#LR__0030
01704     37 F0 03 F6 | 	mov	ptra, fp
01708     4B 00 A0 FD | 	call	#popregs_
0170c                 | _outtextxyc1_ret
0170c     2D 00 64 FD | 	ret
01710                 | 
01710                 | ' 
01710                 | ' pub outtextxyc8(x,y,text,f,b) | iii,c
01710                 | _outtextxyc8
01710     15 6A 04 F6 | 	mov	COUNT_, #21
01714     3C 00 A0 FD | 	call	#pushregs_
01718     93 4A 01 F6 | 	mov	local01, arg01
0171c     94 4C 01 F6 | 	mov	local02, arg02
01720     95 4E 01 F6 | 	mov	local03, arg03
01724     96 50 01 F6 | 	mov	local04, arg04
01728     97 52 01 F6 | 	mov	local05, arg05
0172c                 | ' 
0172c                 | ' repeat iii from 0 to strsize(text)-1
0172c     00 54 05 F6 | 	mov	local06, #0
01730     A7 56 01 F6 | 	mov	local07, local03
01734     AB 26 01 F6 | 	mov	arg01, local07
01738     6C 37 B0 FD | 	call	#__system____builtin_strlen
0173c     6D 58 01 F6 | 	mov	local08, result1
01740     AC 5A 01 F6 | 	mov	local09, local08
01744     01 5A 85 F1 | 	sub	local09, #1
01748     AD 5C 01 F6 | 	mov	local10, local09
0174c     00 5C 5D F2 | 	cmps	local10, #0 wcz
01750     08 00 90 ED |  if_be	jmp	#LR__0031
01754     01 5E 05 F6 | 	mov	local11, #1
01758     08 00 90 FD | 	jmp	#LR__0032
0175c                 | LR__0031
0175c     FF FF 7F FF 
01760     FF 5F 05 F6 | 	mov	local11, ##-1
01764                 | LR__0032
01764     AF 60 01 F6 | 	mov	local12, local11
01768     AE 62 01 F6 | 	mov	local13, local10
0176c     B0 62 01 F1 | 	add	local13, local12
01770     B1 5C 01 F6 | 	mov	local10, local13
01774                 | LR__0033
01774                 | ' 
01774                 | '     putcharxyc8(x+8*iii,y,byte[text+iii],f,b)
01774     A5 64 01 F6 | 	mov	local14, local01
01778     AA 66 01 F6 | 	mov	local15, local06
0177c     03 66 65 F0 | 	shl	local15, #3
01780     B3 64 01 F1 | 	add	local14, local15
01784     B2 68 01 F6 | 	mov	local16, local14
01788     A6 6A 01 F6 | 	mov	local17, local02
0178c     A7 6C 01 F6 | 	mov	local18, local03
01790     AA 6C 01 F1 | 	add	local18, local06
01794     B6 6E C1 FA | 	rdbyte	local19, local18
01798     A8 70 01 F6 | 	mov	local20, local04
0179c     A9 72 01 F6 | 	mov	local21, local05
017a0     B4 26 01 F6 | 	mov	arg01, local16
017a4     B5 28 01 F6 | 	mov	arg02, local17
017a8     B7 2A 01 F6 | 	mov	arg03, local19
017ac     B8 2C 01 F6 | 	mov	arg04, local20
017b0     B9 2E 01 F6 | 	mov	arg05, local21
017b4     DC 00 B0 FD | 	call	#_putcharxyc8
017b8     AA 64 01 F6 | 	mov	local14, local06
017bc     B0 64 01 F1 | 	add	local14, local12
017c0     B2 54 01 F6 | 	mov	local06, local14
017c4     AE 54 09 F2 | 	cmp	local06, local10 wz
017c8     A8 FF 9F 5D |  if_ne	jmp	#LR__0033
017cc     37 F0 03 F6 | 	mov	ptra, fp
017d0     4B 00 A0 FD | 	call	#popregs_
017d4                 | _outtextxyc8_ret
017d4     2D 00 64 FD | 	ret
017d8                 | 
017d8                 | ' 
017d8                 | ' pub outtextxyc8a(x,y,text,f) | iii,c
017d8                 | _outtextxyc8a
017d8     13 6A 04 F6 | 	mov	COUNT_, #19
017dc     3C 00 A0 FD | 	call	#pushregs_
017e0     93 4A 01 F6 | 	mov	local01, arg01
017e4     94 4C 01 F6 | 	mov	local02, arg02
017e8     95 4E 01 F6 | 	mov	local03, arg03
017ec     96 50 01 F6 | 	mov	local04, arg04
017f0                 | ' 
017f0                 | ' repeat iii from 0 to strsize(text)-1
017f0     00 52 05 F6 | 	mov	local05, #0
017f4     A7 54 01 F6 | 	mov	local06, local03
017f8     AA 26 01 F6 | 	mov	arg01, local06
017fc     A8 36 B0 FD | 	call	#__system____builtin_strlen
01800     6D 56 01 F6 | 	mov	local07, result1
01804     AB 58 01 F6 | 	mov	local08, local07
01808     01 58 85 F1 | 	sub	local08, #1
0180c     AC 5A 01 F6 | 	mov	local09, local08
01810     00 5A 5D F2 | 	cmps	local09, #0 wcz
01814     08 00 90 ED |  if_be	jmp	#LR__0034
01818     01 5C 05 F6 | 	mov	local10, #1
0181c     08 00 90 FD | 	jmp	#LR__0035
01820                 | LR__0034
01820     FF FF 7F FF 
01824     FF 5D 05 F6 | 	mov	local10, ##-1
01828                 | LR__0035
01828     AE 5E 01 F6 | 	mov	local11, local10
0182c     AD 60 01 F6 | 	mov	local12, local09
01830     AF 60 01 F1 | 	add	local12, local11
01834     B0 5A 01 F6 | 	mov	local09, local12
01838                 | LR__0036
01838                 | ' 
01838                 | '     putcharxyc8a(x+8*iii,y,byte[text+iii],f)
01838     A5 62 01 F6 | 	mov	local13, local01
0183c     A9 64 01 F6 | 	mov	local14, local05
01840     03 64 65 F0 | 	shl	local14, #3
01844     B2 62 01 F1 | 	add	local13, local14
01848     B1 66 01 F6 | 	mov	local15, local13
0184c     A6 68 01 F6 | 	mov	local16, local02
01850     A7 6A 01 F6 | 	mov	local17, local03
01854     A9 6A 01 F1 | 	add	local17, local05
01858     B5 6C C1 FA | 	rdbyte	local18, local17
0185c     A8 6E 01 F6 | 	mov	local19, local04
01860     B3 26 01 F6 | 	mov	arg01, local15
01864     B4 28 01 F6 | 	mov	arg02, local16
01868     B6 2A 01 F6 | 	mov	arg03, local18
0186c     B7 2C 01 F6 | 	mov	arg04, local19
01870     48 06 B0 FD | 	call	#_putcharxyc8a
01874     A9 62 01 F6 | 	mov	local13, local05
01878     AF 62 01 F1 | 	add	local13, local11
0187c     B1 52 01 F6 | 	mov	local05, local13
01880     AD 52 09 F2 | 	cmp	local05, local09 wz
01884     B0 FF 9F 5D |  if_ne	jmp	#LR__0036
01888     37 F0 03 F6 | 	mov	ptra, fp
0188c     4B 00 A0 FD | 	call	#popregs_
01890                 | _outtextxyc8a_ret
01890     2D 00 64 FD | 	ret
01894                 | 
01894                 | ' 
01894                 | ' 
01894                 | ' pub putcharxyc8(x,y,achar,f,b) |xx, yy,bb
01894                 | _putcharxyc8
01894     0D 6A 04 F6 | 	mov	COUNT_, #13
01898     3C 00 A0 FD | 	call	#pushregs_
0189c     93 4A 01 F6 | 	mov	local01, arg01
018a0     94 4C 01 F6 | 	mov	local02, arg02
018a4     95 4E 01 F6 | 	mov	local03, arg03
018a8     96 50 01 F6 | 	mov	local04, arg04
018ac     97 52 01 F6 | 	mov	local05, arg05
018b0                 | ' 
018b0                 | ' repeat yy from 0 to 15
018b0     00 54 05 F6 | 	mov	local06, #0
018b4                 | LR__0037
018b4                 | '   bb:=byte[@vga_font+16*achar+yy]
018b4     6B 56 01 F6 | 	mov	local07, ptr__dat__
018b8     A7 58 01 F6 | 	mov	local08, local03
018bc     04 58 65 F0 | 	shl	local08, #4
018c0     AB 5A 01 F6 | 	mov	local09, local07
018c4     AC 5A 01 F1 | 	add	local09, local08
018c8     AA 5A 01 F1 | 	add	local09, local06
018cc     AD 5C C1 FA | 	rdbyte	local10, local09
018d0                 | '   repeat xx from 0 to 7
018d0     00 5E 05 F6 | 	mov	local11, #0
018d4                 | LR__0038
018d4                 | '     if (bb&(1<<xx))<>0
018d4     AE 5A 01 F6 | 	mov	local09, local10
018d8     01 56 05 F6 | 	mov	local07, #1
018dc     AF 56 61 F0 | 	shl	local07, local11
018e0     AB 5A 01 F5 | 	and	local09, local07
018e4     00 5A 0D F2 | 	cmp	local09, #0 wz
018e8     30 00 90 AD |  if_e	jmp	#LR__0039
018ec                 | '       putpixel8(xx+x,yy+y,f)
018ec     AF 5A 01 F6 | 	mov	local09, local11
018f0     A5 5A 01 F1 | 	add	local09, local01
018f4     AD 56 01 F6 | 	mov	local07, local09
018f8     AA 58 01 F6 | 	mov	local08, local06
018fc     A6 58 01 F1 | 	add	local08, local02
01900     AC 60 01 F6 | 	mov	local12, local08
01904     A8 62 01 F6 | 	mov	local13, local04
01908     AB 26 01 F6 | 	mov	arg01, local07
0190c     B0 28 01 F6 | 	mov	arg02, local12
01910     B1 2A 01 F6 | 	mov	arg03, local13
01914     68 06 B0 FD | 	call	#_putpixel8
01918                 | '     else
01918     2C 00 90 FD | 	jmp	#LR__0040
0191c                 | LR__0039
0191c                 | '       putpixel8(xx+x,yy+y,b)  
0191c     AF 5A 01 F6 | 	mov	local09, local11
01920     A5 5A 01 F1 | 	add	local09, local01
01924     AD 56 01 F6 | 	mov	local07, local09
01928     AA 58 01 F6 | 	mov	local08, local06
0192c     A6 58 01 F1 | 	add	local08, local02
01930     AC 60 01 F6 | 	mov	local12, local08
01934     A9 62 01 F6 | 	mov	local13, local05
01938     AB 26 01 F6 | 	mov	arg01, local07
0193c     B0 28 01 F6 | 	mov	arg02, local12
01940     B1 2A 01 F6 | 	mov	arg03, local13
01944     38 06 B0 FD | 	call	#_putpixel8
01948                 | LR__0040
01948     AF 5A 01 F6 | 	mov	local09, local11
0194c     AF 56 01 F6 | 	mov	local07, local11
01950     01 56 05 F1 | 	add	local07, #1
01954     AB 5E 01 F6 | 	mov	local11, local07
01958     08 5E 5D F2 | 	cmps	local11, #8 wcz
0195c     74 FF 9F CD |  if_b	jmp	#LR__0038
01960     AA 5A 01 F6 | 	mov	local09, local06
01964     AA 56 01 F6 | 	mov	local07, local06
01968     01 56 05 F1 | 	add	local07, #1
0196c     AB 54 01 F6 | 	mov	local06, local07
01970     10 54 5D F2 | 	cmps	local06, #16 wcz
01974     3C FF 9F CD |  if_b	jmp	#LR__0037
01978     37 F0 03 F6 | 	mov	ptra, fp
0197c     4B 00 A0 FD | 	call	#popregs_
01980                 | _putcharxyc8_ret
01980     2D 00 64 FD | 	ret
01984                 | 
01984                 | '  
01984                 | ' pub putcharxyc4(x,y,achar,f,b) |xx, yy,bb
01984                 | _putcharxyc4
01984     0D 6A 04 F6 | 	mov	COUNT_, #13
01988     3C 00 A0 FD | 	call	#pushregs_
0198c     93 4A 01 F6 | 	mov	local01, arg01
01990     94 4C 01 F6 | 	mov	local02, arg02
01994     95 4E 01 F6 | 	mov	local03, arg03
01998     96 50 01 F6 | 	mov	local04, arg04
0199c     97 52 01 F6 | 	mov	local05, arg05
019a0                 | ' 
019a0                 | ' repeat yy from 0 to 15
019a0     00 54 05 F6 | 	mov	local06, #0
019a4                 | LR__0041
019a4                 | '   bb:=byte[@vga_font+16*achar+yy]
019a4     6B 56 01 F6 | 	mov	local07, ptr__dat__
019a8     A7 58 01 F6 | 	mov	local08, local03
019ac     04 58 65 F0 | 	shl	local08, #4
019b0     AB 5A 01 F6 | 	mov	local09, local07
019b4     AC 5A 01 F1 | 	add	local09, local08
019b8     AA 5A 01 F1 | 	add	local09, local06
019bc     AD 5C C1 FA | 	rdbyte	local10, local09
019c0                 | '   repeat xx from 0 to 7
019c0     00 5E 05 F6 | 	mov	local11, #0
019c4                 | LR__0042
019c4                 | '     if (bb&(1<<xx))<>0
019c4     AE 5A 01 F6 | 	mov	local09, local10
019c8     01 56 05 F6 | 	mov	local07, #1
019cc     AF 56 61 F0 | 	shl	local07, local11
019d0     AB 5A 01 F5 | 	and	local09, local07
019d4     00 5A 0D F2 | 	cmp	local09, #0 wz
019d8     30 00 90 AD |  if_e	jmp	#LR__0043
019dc                 | '       putpixel4(xx+x,yy+y,f)
019dc     AF 5A 01 F6 | 	mov	local09, local11
019e0     A5 5A 01 F1 | 	add	local09, local01
019e4     AD 56 01 F6 | 	mov	local07, local09
019e8     AA 58 01 F6 | 	mov	local08, local06
019ec     A6 58 01 F1 | 	add	local08, local02
019f0     AC 60 01 F6 | 	mov	local12, local08
019f4     A8 62 01 F6 | 	mov	local13, local04
019f8     AB 26 01 F6 | 	mov	arg01, local07
019fc     B0 28 01 F6 | 	mov	arg02, local12
01a00     B1 2A 01 F6 | 	mov	arg03, local13
01a04     F0 08 B0 FD | 	call	#_putpixel4
01a08                 | '     else
01a08     2C 00 90 FD | 	jmp	#LR__0044
01a0c                 | LR__0043
01a0c                 | '       putpixel4(xx+x,yy+y,b)   
01a0c     AF 5A 01 F6 | 	mov	local09, local11
01a10     A5 5A 01 F1 | 	add	local09, local01
01a14     AD 56 01 F6 | 	mov	local07, local09
01a18     AA 58 01 F6 | 	mov	local08, local06
01a1c     A6 58 01 F1 | 	add	local08, local02
01a20     AC 60 01 F6 | 	mov	local12, local08
01a24     A9 62 01 F6 | 	mov	local13, local05
01a28     AB 26 01 F6 | 	mov	arg01, local07
01a2c     B0 28 01 F6 | 	mov	arg02, local12
01a30     B1 2A 01 F6 | 	mov	arg03, local13
01a34     C0 08 B0 FD | 	call	#_putpixel4
01a38                 | LR__0044
01a38     AF 5A 01 F6 | 	mov	local09, local11
01a3c     AF 56 01 F6 | 	mov	local07, local11
01a40     01 56 05 F1 | 	add	local07, #1
01a44     AB 5E 01 F6 | 	mov	local11, local07
01a48     08 5E 5D F2 | 	cmps	local11, #8 wcz
01a4c     74 FF 9F CD |  if_b	jmp	#LR__0042
01a50     AA 5A 01 F6 | 	mov	local09, local06
01a54     AA 56 01 F6 | 	mov	local07, local06
01a58     01 56 05 F1 | 	add	local07, #1
01a5c     AB 54 01 F6 | 	mov	local06, local07
01a60     10 54 5D F2 | 	cmps	local06, #16 wcz
01a64     3C FF 9F CD |  if_b	jmp	#LR__0041
01a68     37 F0 03 F6 | 	mov	ptra, fp
01a6c     4B 00 A0 FD | 	call	#popregs_
01a70                 | _putcharxyc4_ret
01a70     2D 00 64 FD | 	ret
01a74                 | 
01a74                 | '  
01a74                 | ' pub putcharxyc2(x,y,achar,f,b) |xx, yy,bb
01a74                 | _putcharxyc2
01a74     0D 6A 04 F6 | 	mov	COUNT_, #13
01a78     3C 00 A0 FD | 	call	#pushregs_
01a7c     93 4A 01 F6 | 	mov	local01, arg01
01a80     94 4C 01 F6 | 	mov	local02, arg02
01a84     95 4E 01 F6 | 	mov	local03, arg03
01a88     96 50 01 F6 | 	mov	local04, arg04
01a8c     97 52 01 F6 | 	mov	local05, arg05
01a90                 | ' 
01a90                 | ' repeat yy from 0 to 15
01a90     00 54 05 F6 | 	mov	local06, #0
01a94                 | LR__0045
01a94                 | '   bb:=byte[@vga_font+16*achar+yy+4096]
01a94     6B 56 01 F6 | 	mov	local07, ptr__dat__
01a98     A7 58 01 F6 | 	mov	local08, local03
01a9c     04 58 65 F0 | 	shl	local08, #4
01aa0     AB 5A 01 F6 | 	mov	local09, local07
01aa4     AC 5A 01 F1 | 	add	local09, local08
01aa8     AA 5A 01 F1 | 	add	local09, local06
01aac     08 00 00 FF 
01ab0     00 5A 05 F1 | 	add	local09, ##4096
01ab4     AD 5C C1 FA | 	rdbyte	local10, local09
01ab8                 | '   repeat xx from 0 to 7
01ab8     00 5E 05 F6 | 	mov	local11, #0
01abc                 | LR__0046
01abc                 | '     if (bb&(1<<xx))<>0
01abc     AE 5A 01 F6 | 	mov	local09, local10
01ac0     01 56 05 F6 | 	mov	local07, #1
01ac4     AF 56 61 F0 | 	shl	local07, local11
01ac8     AB 5A 01 F5 | 	and	local09, local07
01acc     00 5A 0D F2 | 	cmp	local09, #0 wz
01ad0     30 00 90 AD |  if_e	jmp	#LR__0047
01ad4                 | '       putpixel2(xx+x,yy+y,f)
01ad4     AF 5A 01 F6 | 	mov	local09, local11
01ad8     A5 5A 01 F1 | 	add	local09, local01
01adc     AD 56 01 F6 | 	mov	local07, local09
01ae0     AA 58 01 F6 | 	mov	local08, local06
01ae4     A6 58 01 F1 | 	add	local08, local02
01ae8     AC 60 01 F6 | 	mov	local12, local08
01aec     A8 62 01 F6 | 	mov	local13, local04
01af0     AB 26 01 F6 | 	mov	arg01, local07
01af4     B0 28 01 F6 | 	mov	arg02, local12
01af8     B1 2A 01 F6 | 	mov	arg03, local13
01afc     A4 06 B0 FD | 	call	#_putpixel2
01b00                 | '     else
01b00     2C 00 90 FD | 	jmp	#LR__0048
01b04                 | LR__0047
01b04                 | '       putpixel2(xx+x,yy+y,b)  
01b04     AF 5A 01 F6 | 	mov	local09, local11
01b08     A5 5A 01 F1 | 	add	local09, local01
01b0c     AD 56 01 F6 | 	mov	local07, local09
01b10     AA 58 01 F6 | 	mov	local08, local06
01b14     A6 58 01 F1 | 	add	local08, local02
01b18     AC 60 01 F6 | 	mov	local12, local08
01b1c     A9 62 01 F6 | 	mov	local13, local05
01b20     AB 26 01 F6 | 	mov	arg01, local07
01b24     B0 28 01 F6 | 	mov	arg02, local12
01b28     B1 2A 01 F6 | 	mov	arg03, local13
01b2c     74 06 B0 FD | 	call	#_putpixel2
01b30                 | LR__0048
01b30     AF 5A 01 F6 | 	mov	local09, local11
01b34     AF 56 01 F6 | 	mov	local07, local11
01b38     01 56 05 F1 | 	add	local07, #1
01b3c     AB 5E 01 F6 | 	mov	local11, local07
01b40     08 5E 5D F2 | 	cmps	local11, #8 wcz
01b44     74 FF 9F CD |  if_b	jmp	#LR__0046
01b48     AA 5A 01 F6 | 	mov	local09, local06
01b4c     AA 56 01 F6 | 	mov	local07, local06
01b50     01 56 05 F1 | 	add	local07, #1
01b54     AB 54 01 F6 | 	mov	local06, local07
01b58     10 54 5D F2 | 	cmps	local06, #16 wcz
01b5c     34 FF 9F CD |  if_b	jmp	#LR__0045
01b60     37 F0 03 F6 | 	mov	ptra, fp
01b64     4B 00 A0 FD | 	call	#popregs_
01b68                 | _putcharxyc2_ret
01b68     2D 00 64 FD | 	ret
01b6c                 | 
01b6c                 | '             
01b6c                 | ' 
01b6c                 | ' pub putcharxyc1(x,y,achar,f,b) |xx, yy,bb
01b6c                 | _putcharxyc1
01b6c     0D 6A 04 F6 | 	mov	COUNT_, #13
01b70     3C 00 A0 FD | 	call	#pushregs_
01b74     93 4A 01 F6 | 	mov	local01, arg01
01b78     94 4C 01 F6 | 	mov	local02, arg02
01b7c     95 4E 01 F6 | 	mov	local03, arg03
01b80     96 50 01 F6 | 	mov	local04, arg04
01b84     97 52 01 F6 | 	mov	local05, arg05
01b88                 | ' 
01b88                 | ' repeat yy from 0 to 15
01b88     00 54 05 F6 | 	mov	local06, #0
01b8c                 | LR__0049
01b8c                 | '   bb:=byte[@vga_font+16*achar+yy+4096]
01b8c     6B 56 01 F6 | 	mov	local07, ptr__dat__
01b90     A7 58 01 F6 | 	mov	local08, local03
01b94     04 58 65 F0 | 	shl	local08, #4
01b98     AB 5A 01 F6 | 	mov	local09, local07
01b9c     AC 5A 01 F1 | 	add	local09, local08
01ba0     AA 5A 01 F1 | 	add	local09, local06
01ba4     08 00 00 FF 
01ba8     00 5A 05 F1 | 	add	local09, ##4096
01bac     AD 5C C1 FA | 	rdbyte	local10, local09
01bb0                 | '   repeat xx from 0 to 7
01bb0     00 5E 05 F6 | 	mov	local11, #0
01bb4                 | LR__0050
01bb4                 | '     if (bb&(1<<xx))<>0
01bb4     AE 5A 01 F6 | 	mov	local09, local10
01bb8     01 56 05 F6 | 	mov	local07, #1
01bbc     AF 56 61 F0 | 	shl	local07, local11
01bc0     AB 5A 01 F5 | 	and	local09, local07
01bc4     00 5A 0D F2 | 	cmp	local09, #0 wz
01bc8     30 00 90 AD |  if_e	jmp	#LR__0051
01bcc                 | '       putpixel1(xx+x,yy+y,f)
01bcc     AF 5A 01 F6 | 	mov	local09, local11
01bd0     A5 5A 01 F1 | 	add	local09, local01
01bd4     AD 56 01 F6 | 	mov	local07, local09
01bd8     AA 58 01 F6 | 	mov	local08, local06
01bdc     A6 58 01 F1 | 	add	local08, local02
01be0     AC 60 01 F6 | 	mov	local12, local08
01be4     A8 62 01 F6 | 	mov	local13, local04
01be8     AB 26 01 F6 | 	mov	arg01, local07
01bec     B0 28 01 F6 | 	mov	arg02, local12
01bf0     B1 2A 01 F6 | 	mov	arg03, local13
01bf4     54 04 B0 FD | 	call	#_putpixel1
01bf8                 | '     else
01bf8     2C 00 90 FD | 	jmp	#LR__0052
01bfc                 | LR__0051
01bfc                 | '       putpixel1(xx+x,yy+y,b)  
01bfc     AF 5A 01 F6 | 	mov	local09, local11
01c00     A5 5A 01 F1 | 	add	local09, local01
01c04     AD 56 01 F6 | 	mov	local07, local09
01c08     AA 58 01 F6 | 	mov	local08, local06
01c0c     A6 58 01 F1 | 	add	local08, local02
01c10     AC 60 01 F6 | 	mov	local12, local08
01c14     A9 62 01 F6 | 	mov	local13, local05
01c18     AB 26 01 F6 | 	mov	arg01, local07
01c1c     B0 28 01 F6 | 	mov	arg02, local12
01c20     B1 2A 01 F6 | 	mov	arg03, local13
01c24     24 04 B0 FD | 	call	#_putpixel1
01c28                 | LR__0052
01c28     AF 5A 01 F6 | 	mov	local09, local11
01c2c     AF 56 01 F6 | 	mov	local07, local11
01c30     01 56 05 F1 | 	add	local07, #1
01c34     AB 5E 01 F6 | 	mov	local11, local07
01c38     08 5E 5D F2 | 	cmps	local11, #8 wcz
01c3c     74 FF 9F CD |  if_b	jmp	#LR__0050
01c40     AA 5A 01 F6 | 	mov	local09, local06
01c44     AA 56 01 F6 | 	mov	local07, local06
01c48     01 56 05 F1 | 	add	local07, #1
01c4c     AB 54 01 F6 | 	mov	local06, local07
01c50     10 54 5D F2 | 	cmps	local06, #16 wcz
01c54     34 FF 9F CD |  if_b	jmp	#LR__0049
01c58     37 F0 03 F6 | 	mov	ptra, fp
01c5c     4B 00 A0 FD | 	call	#popregs_
01c60                 | _putcharxyc1_ret
01c60     2D 00 64 FD | 	ret
01c64                 | 
01c64                 | '       
01c64                 | ' pub putcharxycz8(x,y,achar,f,b,xz,yz) |xx,xxx,yy,yyy,bb
01c64                 | _putcharxycz8
01c64     21 6A 04 F6 | 	mov	COUNT_, #33
01c68     3C 00 A0 FD | 	call	#pushregs_
01c6c     93 4A 01 F6 | 	mov	local01, arg01
01c70     94 4C 01 F6 | 	mov	local02, arg02
01c74     95 4E 01 F6 | 	mov	local03, arg03
01c78     96 50 01 F6 | 	mov	local04, arg04
01c7c     97 52 01 F6 | 	mov	local05, arg05
01c80     98 54 01 F6 | 	mov	local06, arg06
01c84     99 56 01 F6 | 	mov	local07, arg07
01c88                 | ' 
01c88                 | ' repeat yy from 0 to 15
01c88     00 58 05 F6 | 	mov	local08, #0
01c8c                 | LR__0053
01c8c                 | '   bb:=byte[@vga_font+16*achar+yy]
01c8c     6B 5A 01 F6 | 	mov	local09, ptr__dat__
01c90     A7 5C 01 F6 | 	mov	local10, local03
01c94     04 5C 65 F0 | 	shl	local10, #4
01c98     AD 5E 01 F6 | 	mov	local11, local09
01c9c     AE 5E 01 F1 | 	add	local11, local10
01ca0     AC 5E 01 F1 | 	add	local11, local08
01ca4     AF 60 C1 FA | 	rdbyte	local12, local11
01ca8                 | '   repeat xx from 0 to 7
01ca8     00 62 05 F6 | 	mov	local13, #0
01cac                 | LR__0054
01cac                 | '     if (bb&(1<<xx))<>0
01cac     B0 5E 01 F6 | 	mov	local11, local12
01cb0     01 5A 05 F6 | 	mov	local09, #1
01cb4     B1 5A 61 F0 | 	shl	local09, local13
01cb8     AD 5E 01 F5 | 	and	local11, local09
01cbc     00 5E 0D F2 | 	cmp	local11, #0 wz
01cc0     E0 00 90 AD |  if_e	jmp	#LR__0061
01cc4                 | '       repeat yyy from 0 to yz-1
01cc4     00 64 05 F6 | 	mov	local14, #0
01cc8     AB 5E 01 F6 | 	mov	local11, local07
01ccc     01 5E 85 F1 | 	sub	local11, #1
01cd0     AF 66 01 F6 | 	mov	local15, local11
01cd4     00 66 5D F2 | 	cmps	local15, #0 wcz
01cd8     08 00 90 ED |  if_be	jmp	#LR__0055
01cdc     01 5A 05 F6 | 	mov	local09, #1
01ce0     08 00 90 FD | 	jmp	#LR__0056
01ce4                 | LR__0055
01ce4     FF FF 7F FF 
01ce8     FF 5B 05 F6 | 	mov	local09, ##-1
01cec                 | LR__0056
01cec     AD 68 01 F6 | 	mov	local16, local09
01cf0     B3 5C 01 F6 | 	mov	local10, local15
01cf4     B4 5C 01 F1 | 	add	local10, local16
01cf8     AE 66 01 F6 | 	mov	local15, local10
01cfc                 | LR__0057
01cfc                 | '         repeat xxx from 0 to xz-1
01cfc     00 6A 05 F6 | 	mov	local17, #0
01d00     AA 6C 01 F6 | 	mov	local18, local06
01d04     01 6C 85 F1 | 	sub	local18, #1
01d08     B6 6E 01 F6 | 	mov	local19, local18
01d0c     00 6E 5D F2 | 	cmps	local19, #0 wcz
01d10     08 00 90 ED |  if_be	jmp	#LR__0058
01d14     01 70 05 F6 | 	mov	local20, #1
01d18     08 00 90 FD | 	jmp	#LR__0059
01d1c                 | LR__0058
01d1c     FF FF 7F FF 
01d20     FF 71 05 F6 | 	mov	local20, ##-1
01d24                 | LR__0059
01d24     B8 72 01 F6 | 	mov	local21, local20
01d28     B7 74 01 F6 | 	mov	local22, local19
01d2c     B9 74 01 F1 | 	add	local22, local21
01d30     BA 6E 01 F6 | 	mov	local19, local22
01d34                 | LR__0060
01d34                 | '           putpixel8(xz*xx+xxx+x,yz*yy+yyy+y,f)
01d34     B1 54 01 FD | 	qmul	local06, local13
01d38     18 76 61 FD | 	getqx	local23
01d3c     BB 78 01 F6 | 	mov	local24, local23
01d40     B5 78 01 F1 | 	add	local24, local17
01d44     A5 78 01 F1 | 	add	local24, local01
01d48     BC 7A 01 F6 | 	mov	local25, local24
01d4c     AC 56 01 FD | 	qmul	local07, local08
01d50     18 7C 61 FD | 	getqx	local26
01d54     BE 7E 01 F6 | 	mov	local27, local26
01d58     B2 7E 01 F1 | 	add	local27, local14
01d5c     A6 7E 01 F1 | 	add	local27, local02
01d60     BF 80 01 F6 | 	mov	local28, local27
01d64     A8 82 01 F6 | 	mov	local29, local04
01d68     BD 26 01 F6 | 	mov	arg01, local25
01d6c     C0 28 01 F6 | 	mov	arg02, local28
01d70     C1 2A 01 F6 | 	mov	arg03, local29
01d74     08 02 B0 FD | 	call	#_putpixel8
01d78     B5 78 01 F6 | 	mov	local24, local17
01d7c     B9 78 01 F1 | 	add	local24, local21
01d80     BC 6A 01 F6 | 	mov	local17, local24
01d84     B7 6A 09 F2 | 	cmp	local17, local19 wz
01d88     A8 FF 9F 5D |  if_ne	jmp	#LR__0060
01d8c     B2 6C 01 F6 | 	mov	local18, local14
01d90     B4 6C 01 F1 | 	add	local18, local16
01d94     B6 64 01 F6 | 	mov	local14, local18
01d98     B3 64 09 F2 | 	cmp	local14, local15 wz
01d9c     5C FF 9F 5D |  if_ne	jmp	#LR__0057
01da0                 | '     else
01da0     DC 00 90 FD | 	jmp	#LR__0068
01da4                 | LR__0061
01da4                 | '       repeat yyy from 0 to yz-1
01da4     00 64 05 F6 | 	mov	local14, #0
01da8     AB 5E 01 F6 | 	mov	local11, local07
01dac     01 5E 85 F1 | 	sub	local11, #1
01db0     AF 84 01 F6 | 	mov	local30, local11
01db4     00 84 5D F2 | 	cmps	local30, #0 wcz
01db8     08 00 90 ED |  if_be	jmp	#LR__0062
01dbc     01 5A 05 F6 | 	mov	local09, #1
01dc0     08 00 90 FD | 	jmp	#LR__0063
01dc4                 | LR__0062
01dc4     FF FF 7F FF 
01dc8     FF 5B 05 F6 | 	mov	local09, ##-1
01dcc                 | LR__0063
01dcc     AD 86 01 F6 | 	mov	local31, local09
01dd0     C2 5C 01 F6 | 	mov	local10, local30
01dd4     C3 5C 01 F1 | 	add	local10, local31
01dd8     AE 84 01 F6 | 	mov	local30, local10
01ddc                 | LR__0064
01ddc                 | '         repeat xxx from 0 to xz-1
01ddc     00 6A 05 F6 | 	mov	local17, #0
01de0     AA 6C 01 F6 | 	mov	local18, local06
01de4     01 6C 85 F1 | 	sub	local18, #1
01de8     B6 88 01 F6 | 	mov	local32, local18
01dec     00 88 5D F2 | 	cmps	local32, #0 wcz
01df0     08 00 90 ED |  if_be	jmp	#LR__0065
01df4     01 70 05 F6 | 	mov	local20, #1
01df8     08 00 90 FD | 	jmp	#LR__0066
01dfc                 | LR__0065
01dfc     FF FF 7F FF 
01e00     FF 71 05 F6 | 	mov	local20, ##-1
01e04                 | LR__0066
01e04     B8 8A 01 F6 | 	mov	local33, local20
01e08     C4 74 01 F6 | 	mov	local22, local32
01e0c     C5 74 01 F1 | 	add	local22, local33
01e10     BA 88 01 F6 | 	mov	local32, local22
01e14                 | LR__0067
01e14                 | '           putpixel8(xz*xx+xxx+x,yz*yy+yyy+y,b)
01e14     B1 54 01 FD | 	qmul	local06, local13
01e18     18 76 61 FD | 	getqx	local23
01e1c     BB 78 01 F6 | 	mov	local24, local23
01e20     B5 78 01 F1 | 	add	local24, local17
01e24     A5 78 01 F1 | 	add	local24, local01
01e28     BC 7A 01 F6 | 	mov	local25, local24
01e2c     AC 56 01 FD | 	qmul	local07, local08
01e30     18 7C 61 FD | 	getqx	local26
01e34     BE 7E 01 F6 | 	mov	local27, local26
01e38     B2 7E 01 F1 | 	add	local27, local14
01e3c     A6 7E 01 F1 | 	add	local27, local02
01e40     BF 80 01 F6 | 	mov	local28, local27
01e44     A9 82 01 F6 | 	mov	local29, local05
01e48     BD 26 01 F6 | 	mov	arg01, local25
01e4c     C0 28 01 F6 | 	mov	arg02, local28
01e50     C1 2A 01 F6 | 	mov	arg03, local29
01e54     28 01 B0 FD | 	call	#_putpixel8
01e58     B5 78 01 F6 | 	mov	local24, local17
01e5c     C5 78 01 F1 | 	add	local24, local33
01e60     BC 6A 01 F6 | 	mov	local17, local24
01e64     C4 6A 09 F2 | 	cmp	local17, local32 wz
01e68     A8 FF 9F 5D |  if_ne	jmp	#LR__0067
01e6c     B2 6C 01 F6 | 	mov	local18, local14
01e70     C3 6C 01 F1 | 	add	local18, local31
01e74     B6 64 01 F6 | 	mov	local14, local18
01e78     C2 64 09 F2 | 	cmp	local14, local30 wz
01e7c     5C FF 9F 5D |  if_ne	jmp	#LR__0064
01e80                 | LR__0068
01e80     B1 5E 01 F6 | 	mov	local11, local13
01e84     B1 5A 01 F6 | 	mov	local09, local13
01e88     01 5A 05 F1 | 	add	local09, #1
01e8c     AD 62 01 F6 | 	mov	local13, local09
01e90     08 62 5D F2 | 	cmps	local13, #8 wcz
01e94     14 FE 9F CD |  if_b	jmp	#LR__0054
01e98     AC 5E 01 F6 | 	mov	local11, local08
01e9c     AC 5A 01 F6 | 	mov	local09, local08
01ea0     01 5A 05 F1 | 	add	local09, #1
01ea4     AD 58 01 F6 | 	mov	local08, local09
01ea8     10 58 5D F2 | 	cmps	local08, #16 wcz
01eac     DC FD 9F CD |  if_b	jmp	#LR__0053
01eb0     37 F0 03 F6 | 	mov	ptra, fp
01eb4     4B 00 A0 FD | 	call	#popregs_
01eb8                 | _putcharxycz8_ret
01eb8     2D 00 64 FD | 	ret
01ebc                 | 
01ebc                 | ' 
01ebc                 | ' 
01ebc                 | ' pub putcharxyc8a(x,y,achar,f) |xx, yy,bb
01ebc                 | _putcharxyc8a
01ebc     0C 6A 04 F6 | 	mov	COUNT_, #12
01ec0     3C 00 A0 FD | 	call	#pushregs_
01ec4     93 4A 01 F6 | 	mov	local01, arg01
01ec8     94 4C 01 F6 | 	mov	local02, arg02
01ecc     95 4E 01 F6 | 	mov	local03, arg03
01ed0     96 50 01 F6 | 	mov	local04, arg04
01ed4                 | ' 
01ed4                 | ' repeat yy from 0 to 15
01ed4     00 52 05 F6 | 	mov	local05, #0
01ed8                 | LR__0069
01ed8                 | '   bb:=byte[@vga_font+4096+16*achar+yy]
01ed8     6B 54 01 F6 | 	mov	local06, ptr__dat__
01edc     AA 56 01 F6 | 	mov	local07, local06
01ee0     08 00 00 FF 
01ee4     00 56 05 F1 | 	add	local07, ##4096
01ee8     A7 58 01 F6 | 	mov	local08, local03
01eec     04 58 65 F0 | 	shl	local08, #4
01ef0     AC 56 01 F1 | 	add	local07, local08
01ef4     A9 56 01 F1 | 	add	local07, local05
01ef8     AB 5A C1 FA | 	rdbyte	local09, local07
01efc                 | '   repeat xx from 0 to 7
01efc     00 5C 05 F6 | 	mov	local10, #0
01f00                 | LR__0070
01f00                 | '     if (bb&(1<<xx))<>0
01f00     AD 56 01 F6 | 	mov	local07, local09
01f04     01 54 05 F6 | 	mov	local06, #1
01f08     AE 54 61 F0 | 	shl	local06, local10
01f0c     AA 56 01 F5 | 	and	local07, local06
01f10     00 56 0D F2 | 	cmp	local07, #0 wz
01f14     2C 00 90 AD |  if_e	jmp	#LR__0071
01f18                 | '       putpixel8(xx+x,yy+y,f)
01f18     AE 56 01 F6 | 	mov	local07, local10
01f1c     A5 56 01 F1 | 	add	local07, local01
01f20     AB 54 01 F6 | 	mov	local06, local07
01f24     A9 58 01 F6 | 	mov	local08, local05
01f28     A6 58 01 F1 | 	add	local08, local02
01f2c     AC 5E 01 F6 | 	mov	local11, local08
01f30     A8 60 01 F6 | 	mov	local12, local04
01f34     AA 26 01 F6 | 	mov	arg01, local06
01f38     AF 28 01 F6 | 	mov	arg02, local11
01f3c     B0 2A 01 F6 | 	mov	arg03, local12
01f40     3C 00 B0 FD | 	call	#_putpixel8
01f44                 | LR__0071
01f44     AE 56 01 F6 | 	mov	local07, local10
01f48     AE 54 01 F6 | 	mov	local06, local10
01f4c     01 54 05 F1 | 	add	local06, #1
01f50     AA 5C 01 F6 | 	mov	local10, local06
01f54     08 5C 5D F2 | 	cmps	local10, #8 wcz
01f58     A4 FF 9F CD |  if_b	jmp	#LR__0070
01f5c     A9 56 01 F6 | 	mov	local07, local05
01f60     A9 54 01 F6 | 	mov	local06, local05
01f64     01 54 05 F1 | 	add	local06, #1
01f68     AA 52 01 F6 | 	mov	local05, local06
01f6c     10 52 5D F2 | 	cmps	local05, #16 wcz
01f70     64 FF 9F CD |  if_b	jmp	#LR__0069
01f74     37 F0 03 F6 | 	mov	ptra, fp
01f78     4B 00 A0 FD | 	call	#popregs_
01f7c                 | _putcharxyc8a_ret
01f7c     2D 00 64 FD | 	ret
01f80                 | 
01f80                 | ' 
01f80                 | ' 
01f80                 | ' pub putpixel8(x,y,c)
01f80                 | _putpixel8
01f80     93 DC 00 F6 | 	mov	_var01, arg01
01f84     94 DE 00 F6 | 	mov	_var02, arg02
01f88     95 E0 00 F6 | 	mov	_var03, arg03
01f8c                 | ' 
01f8c                 | ' 
01f8c                 | ' if ((x>=0) & (x<4*cpl) & (y>=0) & (y<lines)) 
01f8c     00 E2 04 F6 | 	mov	_var04, #0
01f90     00 DC 5C F2 | 	cmps	_var01, #0 wcz
01f94     08 00 90 CD |  if_b	jmp	#LR__0072
01f98     FF FF 7F FF 
01f9c     FF E3 64 F5 | 	xor	_var04, ##-1
01fa0                 | LR__0072
01fa0     00 E4 04 F6 | 	mov	_var05, #0
01fa4     94 D2 04 F1 | 	add	objptr, #148
01fa8     69 E6 00 FB | 	rdlong	_var06, objptr
01fac     94 D2 84 F1 | 	sub	objptr, #148
01fb0     73 E8 00 F6 | 	mov	_var07, _var06
01fb4     74 EA 00 F6 | 	mov	_var08, _var07
01fb8     02 EA 64 F0 | 	shl	_var08, #2
01fbc     75 DC 58 F2 | 	cmps	_var01, _var08 wcz
01fc0     08 00 90 3D |  if_ae	jmp	#LR__0073
01fc4     FF FF 7F FF 
01fc8     FF E5 64 F5 | 	xor	_var05, ##-1
01fcc                 | LR__0073
01fcc     72 E2 00 F5 | 	and	_var04, _var05
01fd0     00 EC 04 F6 | 	mov	_var09, #0
01fd4     00 DE 5C F2 | 	cmps	_var02, #0 wcz
01fd8     08 00 90 CD |  if_b	jmp	#LR__0074
01fdc     FF FF 7F FF 
01fe0     FF ED 64 F5 | 	xor	_var09, ##-1
01fe4                 | LR__0074
01fe4     76 E2 00 F5 | 	and	_var04, _var09
01fe8     00 EE 04 F6 | 	mov	_var10, #0
01fec     98 D2 04 F1 | 	add	objptr, #152
01ff0     69 F0 00 FB | 	rdlong	_var11, objptr
01ff4     98 D2 84 F1 | 	sub	objptr, #152
01ff8     78 F2 00 F6 | 	mov	_var12, _var11
01ffc     79 DE 58 F2 | 	cmps	_var02, _var12 wcz
02000     08 00 90 3D |  if_ae	jmp	#LR__0075
02004     FF FF 7F FF 
02008     FF EF 64 F5 | 	xor	_var10, ##-1
0200c                 | LR__0075
0200c     77 E2 00 F5 | 	and	_var04, _var10
02010     00 E2 0C F2 | 	cmp	_var04, #0 wz
02014     30 00 90 AD |  if_e	jmp	#LR__0076
02018                 | '     byte[buf_ptr+4*cpl*y+x]:=c
02018     69 E2 00 FB | 	rdlong	_var04, objptr
0201c     94 D2 04 F1 | 	add	objptr, #148
02020     69 E8 00 FB | 	rdlong	_var07, objptr
02024     94 D2 84 F1 | 	sub	objptr, #148
02028     74 EA 00 F6 | 	mov	_var08, _var07
0202c     75 E4 00 F6 | 	mov	_var05, _var08
02030     02 E4 64 F0 | 	shl	_var05, #2
02034     6F E4 00 FD | 	qmul	_var05, _var02
02038     18 E6 60 FD | 	getqx	_var06
0203c     73 E2 00 F1 | 	add	_var04, _var06
02040     6E E2 00 F1 | 	add	_var04, _var01
02044     71 E0 40 FC | 	wrbyte	_var03, _var04
02048                 | LR__0076
02048                 | _putpixel8_ret
02048     2D 00 64 FD | 	ret
0204c                 | 
0204c                 | ' 
0204c                 | ' pub putpixel1(x,y,c) |byte b
0204c                 | _putpixel1
0204c     93 DC 00 F6 | 	mov	_var01, arg01
02050     94 DE 00 F6 | 	mov	_var02, arg02
02054     95 E0 00 F6 | 	mov	_var03, arg03
02058                 | ' 
02058                 | ' 
02058                 | ' if ((x>=0) & (x<32*cpl) & (y>=0) & (y<lines)) 
02058     00 E2 04 F6 | 	mov	_var04, #0
0205c     00 DC 5C F2 | 	cmps	_var01, #0 wcz
02060     08 00 90 CD |  if_b	jmp	#LR__0077
02064     FF FF 7F FF 
02068     FF E3 64 F5 | 	xor	_var04, ##-1
0206c                 | LR__0077
0206c     00 E4 04 F6 | 	mov	_var05, #0
02070     94 D2 04 F1 | 	add	objptr, #148
02074     69 E6 00 FB | 	rdlong	_var06, objptr
02078     94 D2 84 F1 | 	sub	objptr, #148
0207c     73 E8 00 F6 | 	mov	_var07, _var06
02080     74 EA 00 F6 | 	mov	_var08, _var07
02084     05 EA 64 F0 | 	shl	_var08, #5
02088     75 DC 58 F2 | 	cmps	_var01, _var08 wcz
0208c     08 00 90 3D |  if_ae	jmp	#LR__0078
02090     FF FF 7F FF 
02094     FF E5 64 F5 | 	xor	_var05, ##-1
02098                 | LR__0078
02098     72 E2 00 F5 | 	and	_var04, _var05
0209c     00 EC 04 F6 | 	mov	_var09, #0
020a0     00 DE 5C F2 | 	cmps	_var02, #0 wcz
020a4     08 00 90 CD |  if_b	jmp	#LR__0079
020a8     FF FF 7F FF 
020ac     FF ED 64 F5 | 	xor	_var09, ##-1
020b0                 | LR__0079
020b0     76 E2 00 F5 | 	and	_var04, _var09
020b4     00 EE 04 F6 | 	mov	_var10, #0
020b8     98 D2 04 F1 | 	add	objptr, #152
020bc     69 F0 00 FB | 	rdlong	_var11, objptr
020c0     98 D2 84 F1 | 	sub	objptr, #152
020c4     78 F2 00 F6 | 	mov	_var12, _var11
020c8     79 DE 58 F2 | 	cmps	_var02, _var12 wcz
020cc     08 00 90 3D |  if_ae	jmp	#LR__0080
020d0     FF FF 7F FF 
020d4     FF EF 64 F5 | 	xor	_var10, ##-1
020d8                 | LR__0080
020d8     77 E2 00 F5 | 	and	_var04, _var10
020dc     00 E2 0C F2 | 	cmp	_var04, #0 wz
020e0     BC 00 90 AD |  if_e	jmp	#LR__0083
020e4                 | '     b:=byte[buf_ptr+4*cpl*y+(x>>3)]
020e4     69 E2 00 FB | 	rdlong	_var04, objptr
020e8     94 D2 04 F1 | 	add	objptr, #148
020ec     69 E8 00 FB | 	rdlong	_var07, objptr
020f0     94 D2 84 F1 | 	sub	objptr, #148
020f4     74 EA 00 F6 | 	mov	_var08, _var07
020f8     75 E4 00 F6 | 	mov	_var05, _var08
020fc     02 E4 64 F0 | 	shl	_var05, #2
02100     6F E4 00 FD | 	qmul	_var05, _var02
02104     18 E6 60 FD | 	getqx	_var06
02108     73 E2 00 F1 | 	add	_var04, _var06
0210c     6E EC 00 F6 | 	mov	_var09, _var01
02110     03 EC 44 F0 | 	shr	_var09, #3
02114     76 E2 00 F1 | 	add	_var04, _var09
02118     71 F4 C0 FA | 	rdbyte	_var13, _var04
0211c                 | '     if (c==0) 
0211c     00 E0 0C F2 | 	cmp	_var03, #0 wz
02120     24 00 90 5D |  if_ne	jmp	#LR__0081
02124                 | '       b:=b & !(1<<(x//8))
02124     7A E2 00 F6 | 	mov	_var04, _var13
02128     6E EA 50 F6 | 	abs	_var08, _var01 wc
0212c     07 EA 04 F5 | 	and	_var08, #7
02130     75 EA 60 C6 |  if_b	neg	_var08, _var08
02134     01 E4 04 F6 | 	mov	_var05, #1
02138     75 E4 60 F0 | 	shl	_var05, _var08
0213c     72 E2 20 F5 | 	andn	_var04, _var05
02140     71 F4 00 F6 | 	mov	_var13, _var04
02144                 | '     else 
02144     20 00 90 FD | 	jmp	#LR__0082
02148                 | LR__0081
02148                 | '       b:=b |(1<<(x//8)) 
02148     7A E2 00 F6 | 	mov	_var04, _var13
0214c     6E EA 50 F6 | 	abs	_var08, _var01 wc
02150     07 EA 04 F5 | 	and	_var08, #7
02154     75 EA 60 C6 |  if_b	neg	_var08, _var08
02158     01 E4 04 F6 | 	mov	_var05, #1
0215c     75 E4 60 F0 | 	shl	_var05, _var08
02160     72 E2 40 F5 | 	or	_var04, _var05
02164     71 F4 00 F6 | 	mov	_var13, _var04
02168                 | LR__0082
02168                 | '     byte[buf_ptr+4*cpl*y+(x>>3)]:=b
02168     69 E2 00 FB | 	rdlong	_var04, objptr
0216c     94 D2 04 F1 | 	add	objptr, #148
02170     69 E8 00 FB | 	rdlong	_var07, objptr
02174     94 D2 84 F1 | 	sub	objptr, #148
02178     74 EA 00 F6 | 	mov	_var08, _var07
0217c     75 E4 00 F6 | 	mov	_var05, _var08
02180     02 E4 64 F0 | 	shl	_var05, #2
02184     6F E4 00 FD | 	qmul	_var05, _var02
02188     18 E6 60 FD | 	getqx	_var06
0218c     73 E2 00 F1 | 	add	_var04, _var06
02190     6E EC 00 F6 | 	mov	_var09, _var01
02194     03 EC 44 F0 | 	shr	_var09, #3
02198     76 E2 00 F1 | 	add	_var04, _var09
0219c     71 F4 40 FC | 	wrbyte	_var13, _var04
021a0                 | LR__0083
021a0                 | _putpixel1_ret
021a0     2D 00 64 FD | 	ret
021a4                 | 
021a4                 | ' 
021a4                 | ' pub putpixel2(x,y,c) |byte b
021a4                 | _putpixel2
021a4     93 DC 00 F6 | 	mov	_var01, arg01
021a8     94 DE 00 F6 | 	mov	_var02, arg02
021ac     95 E0 00 F6 | 	mov	_var03, arg03
021b0                 | ' 
021b0                 | ' 
021b0                 | ' if ((x>=0) & (x<16*cpl) & (y>=0) & (y<lines)) 
021b0     00 E2 04 F6 | 	mov	_var04, #0
021b4     00 DC 5C F2 | 	cmps	_var01, #0 wcz
021b8     08 00 90 CD |  if_b	jmp	#LR__0084
021bc     FF FF 7F FF 
021c0     FF E3 64 F5 | 	xor	_var04, ##-1
021c4                 | LR__0084
021c4     00 E4 04 F6 | 	mov	_var05, #0
021c8     94 D2 04 F1 | 	add	objptr, #148
021cc     69 E6 00 FB | 	rdlong	_var06, objptr
021d0     94 D2 84 F1 | 	sub	objptr, #148
021d4     73 E8 00 F6 | 	mov	_var07, _var06
021d8     74 EA 00 F6 | 	mov	_var08, _var07
021dc     04 EA 64 F0 | 	shl	_var08, #4
021e0     75 DC 58 F2 | 	cmps	_var01, _var08 wcz
021e4     08 00 90 3D |  if_ae	jmp	#LR__0085
021e8     FF FF 7F FF 
021ec     FF E5 64 F5 | 	xor	_var05, ##-1
021f0                 | LR__0085
021f0     72 E2 00 F5 | 	and	_var04, _var05
021f4     00 EC 04 F6 | 	mov	_var09, #0
021f8     00 DE 5C F2 | 	cmps	_var02, #0 wcz
021fc     08 00 90 CD |  if_b	jmp	#LR__0086
02200     FF FF 7F FF 
02204     FF ED 64 F5 | 	xor	_var09, ##-1
02208                 | LR__0086
02208     76 E2 00 F5 | 	and	_var04, _var09
0220c     00 EE 04 F6 | 	mov	_var10, #0
02210     98 D2 04 F1 | 	add	objptr, #152
02214     69 F0 00 FB | 	rdlong	_var11, objptr
02218     98 D2 84 F1 | 	sub	objptr, #152
0221c     78 F2 00 F6 | 	mov	_var12, _var11
02220     79 DE 58 F2 | 	cmps	_var02, _var12 wcz
02224     08 00 90 3D |  if_ae	jmp	#LR__0087
02228     FF FF 7F FF 
0222c     FF EF 64 F5 | 	xor	_var10, ##-1
02230                 | LR__0087
02230     77 E2 00 F5 | 	and	_var04, _var10
02234     00 E2 0C F2 | 	cmp	_var04, #0 wz
02238     B8 00 90 AD |  if_e	jmp	#LR__0088
0223c                 | '     b:=byte[buf_ptr+4*cpl*y+(x>>2)]
0223c     69 E2 00 FB | 	rdlong	_var04, objptr
02240     94 D2 04 F1 | 	add	objptr, #148
02244     69 E8 00 FB | 	rdlong	_var07, objptr
02248     94 D2 84 F1 | 	sub	objptr, #148
0224c     74 EA 00 F6 | 	mov	_var08, _var07
02250     75 E4 00 F6 | 	mov	_var05, _var08
02254     02 E4 64 F0 | 	shl	_var05, #2
02258     6F E4 00 FD | 	qmul	_var05, _var02
0225c     18 E6 60 FD | 	getqx	_var06
02260     73 E2 00 F1 | 	add	_var04, _var06
02264     6E EC 00 F6 | 	mov	_var09, _var01
02268     02 EC 44 F0 | 	shr	_var09, #2
0226c     76 E2 00 F1 | 	add	_var04, _var09
02270     71 F4 C0 FA | 	rdbyte	_var13, _var04
02274                 | '     b:=b & !(%11<<((x//4)<<1))
02274     7A E2 00 F6 | 	mov	_var04, _var13
02278     6E EA 50 F6 | 	abs	_var08, _var01 wc
0227c     03 EA 04 F5 | 	and	_var08, #3
02280     75 EA 60 C6 |  if_b	neg	_var08, _var08
02284     01 EA 64 F0 | 	shl	_var08, #1
02288     03 E4 04 F6 | 	mov	_var05, #3
0228c     75 E4 60 F0 | 	shl	_var05, _var08
02290     72 E2 20 F5 | 	andn	_var04, _var05
02294     71 F4 00 F6 | 	mov	_var13, _var04
02298                 | '     b:=b |(c<<((x//4)<<1)) 
02298     7A E2 00 F6 | 	mov	_var04, _var13
0229c     70 E4 00 F6 | 	mov	_var05, _var03
022a0     6E EA 50 F6 | 	abs	_var08, _var01 wc
022a4     03 EA 04 F5 | 	and	_var08, #3
022a8     75 EA 60 C6 |  if_b	neg	_var08, _var08
022ac     01 EA 64 F0 | 	shl	_var08, #1
022b0     75 E4 60 F0 | 	shl	_var05, _var08
022b4     72 E2 40 F5 | 	or	_var04, _var05
022b8     71 F4 00 F6 | 	mov	_var13, _var04
022bc                 | '     byte[buf_ptr+4*cpl*y+(x>>2)]:=b
022bc     69 E2 00 FB | 	rdlong	_var04, objptr
022c0     94 D2 04 F1 | 	add	objptr, #148
022c4     69 E8 00 FB | 	rdlong	_var07, objptr
022c8     94 D2 84 F1 | 	sub	objptr, #148
022cc     74 EA 00 F6 | 	mov	_var08, _var07
022d0     75 E4 00 F6 | 	mov	_var05, _var08
022d4     02 E4 64 F0 | 	shl	_var05, #2
022d8     6F E4 00 FD | 	qmul	_var05, _var02
022dc     18 E6 60 FD | 	getqx	_var06
022e0     73 E2 00 F1 | 	add	_var04, _var06
022e4     6E EC 00 F6 | 	mov	_var09, _var01
022e8     02 EC 44 F0 | 	shr	_var09, #2
022ec     76 E2 00 F1 | 	add	_var04, _var09
022f0     71 F4 40 FC | 	wrbyte	_var13, _var04
022f4                 | LR__0088
022f4                 | _putpixel2_ret
022f4     2D 00 64 FD | 	ret
022f8                 | 
022f8                 | '     
022f8                 | ' pub putpixel4(x,y,c) |byte b
022f8                 | _putpixel4
022f8     93 DC 00 F6 | 	mov	_var01, arg01
022fc     94 DE 00 F6 | 	mov	_var02, arg02
02300     95 E0 00 F6 | 	mov	_var03, arg03
02304                 | ' 
02304                 | ' 
02304                 | ' if ((x>=0) & (x<16*cpl) & (y>=0) & (y<lines)) 
02304     00 E2 04 F6 | 	mov	_var04, #0
02308     00 DC 5C F2 | 	cmps	_var01, #0 wcz
0230c     08 00 90 CD |  if_b	jmp	#LR__0089
02310     FF FF 7F FF 
02314     FF E3 64 F5 | 	xor	_var04, ##-1
02318                 | LR__0089
02318     00 E4 04 F6 | 	mov	_var05, #0
0231c     94 D2 04 F1 | 	add	objptr, #148
02320     69 E6 00 FB | 	rdlong	_var06, objptr
02324     94 D2 84 F1 | 	sub	objptr, #148
02328     73 E8 00 F6 | 	mov	_var07, _var06
0232c     74 EA 00 F6 | 	mov	_var08, _var07
02330     04 EA 64 F0 | 	shl	_var08, #4
02334     75 DC 58 F2 | 	cmps	_var01, _var08 wcz
02338     08 00 90 3D |  if_ae	jmp	#LR__0090
0233c     FF FF 7F FF 
02340     FF E5 64 F5 | 	xor	_var05, ##-1
02344                 | LR__0090
02344     72 E2 00 F5 | 	and	_var04, _var05
02348     00 EC 04 F6 | 	mov	_var09, #0
0234c     00 DE 5C F2 | 	cmps	_var02, #0 wcz
02350     08 00 90 CD |  if_b	jmp	#LR__0091
02354     FF FF 7F FF 
02358     FF ED 64 F5 | 	xor	_var09, ##-1
0235c                 | LR__0091
0235c     76 E2 00 F5 | 	and	_var04, _var09
02360     00 EE 04 F6 | 	mov	_var10, #0
02364     98 D2 04 F1 | 	add	objptr, #152
02368     69 F0 00 FB | 	rdlong	_var11, objptr
0236c     98 D2 84 F1 | 	sub	objptr, #152
02370     78 F2 00 F6 | 	mov	_var12, _var11
02374     79 DE 58 F2 | 	cmps	_var02, _var12 wcz
02378     08 00 90 3D |  if_ae	jmp	#LR__0092
0237c     FF FF 7F FF 
02380     FF EF 64 F5 | 	xor	_var10, ##-1
02384                 | LR__0092
02384     77 E2 00 F5 | 	and	_var04, _var10
02388     00 E2 0C F2 | 	cmp	_var04, #0 wz
0238c     B8 00 90 AD |  if_e	jmp	#LR__0093
02390                 | '     b:=byte[buf_ptr+4*cpl*y+(x>>1)]
02390     69 E2 00 FB | 	rdlong	_var04, objptr
02394     94 D2 04 F1 | 	add	objptr, #148
02398     69 E8 00 FB | 	rdlong	_var07, objptr
0239c     94 D2 84 F1 | 	sub	objptr, #148
023a0     74 EA 00 F6 | 	mov	_var08, _var07
023a4     75 E4 00 F6 | 	mov	_var05, _var08
023a8     02 E4 64 F0 | 	shl	_var05, #2
023ac     6F E4 00 FD | 	qmul	_var05, _var02
023b0     18 E6 60 FD | 	getqx	_var06
023b4     73 E2 00 F1 | 	add	_var04, _var06
023b8     6E EC 00 F6 | 	mov	_var09, _var01
023bc     01 EC 44 F0 | 	shr	_var09, #1
023c0     76 E2 00 F1 | 	add	_var04, _var09
023c4     71 F4 C0 FA | 	rdbyte	_var13, _var04
023c8                 | '     b:=b & !(%1111<<((x//2)<<2))
023c8     7A E2 00 F6 | 	mov	_var04, _var13
023cc     6E EA 50 F6 | 	abs	_var08, _var01 wc
023d0     01 EA 04 F5 | 	and	_var08, #1
023d4     75 EA 60 C6 |  if_b	neg	_var08, _var08
023d8     02 EA 64 F0 | 	shl	_var08, #2
023dc     0F E4 04 F6 | 	mov	_var05, #15
023e0     75 E4 60 F0 | 	shl	_var05, _var08
023e4     72 E2 20 F5 | 	andn	_var04, _var05
023e8     71 F4 00 F6 | 	mov	_var13, _var04
023ec                 | '     b:=b |(c<<((x//2)<<2)) 
023ec     7A E2 00 F6 | 	mov	_var04, _var13
023f0     70 E4 00 F6 | 	mov	_var05, _var03
023f4     6E EA 50 F6 | 	abs	_var08, _var01 wc
023f8     01 EA 04 F5 | 	and	_var08, #1
023fc     75 EA 60 C6 |  if_b	neg	_var08, _var08
02400     02 EA 64 F0 | 	shl	_var08, #2
02404     75 E4 60 F0 | 	shl	_var05, _var08
02408     72 E2 40 F5 | 	or	_var04, _var05
0240c     71 F4 00 F6 | 	mov	_var13, _var04
02410                 | '     byte[buf_ptr+4*cpl*y+(x>>1)]:=b
02410     69 E2 00 FB | 	rdlong	_var04, objptr
02414     94 D2 04 F1 | 	add	objptr, #148
02418     69 E8 00 FB | 	rdlong	_var07, objptr
0241c     94 D2 84 F1 | 	sub	objptr, #148
02420     74 EA 00 F6 | 	mov	_var08, _var07
02424     75 E4 00 F6 | 	mov	_var05, _var08
02428     02 E4 64 F0 | 	shl	_var05, #2
0242c     6F E4 00 FD | 	qmul	_var05, _var02
02430     18 E6 60 FD | 	getqx	_var06
02434     73 E2 00 F1 | 	add	_var04, _var06
02438     6E EC 00 F6 | 	mov	_var09, _var01
0243c     01 EC 44 F0 | 	shr	_var09, #1
02440     76 E2 00 F1 | 	add	_var04, _var09
02444     71 F4 40 FC | 	wrbyte	_var13, _var04
02448                 | LR__0093
02448                 | _putpixel4_ret
02448     2D 00 64 FD | 	ret
0244c                 | 
0244c                 | ' 
0244c                 | ' '**********************************************************************r***
0244c                 | ' '                                                                        *
0244c                 | ' ' Font related functions                                                 *
0244c                 | ' '                                                                        *
0244c                 | ' '*************************************************************************
0244c                 | ' 
0244c                 | ' ''--------- Set a font offset. TODO: rremove, use byte#1 instead
0244c                 | ' 
0244c                 | ' pub setfontnum(afontnum)
0244c                 | _setfontnum
0244c     93 DC 00 F6 | 	mov	_var01, arg01
02450                 | ' 
02450                 | ' fontnum:=afontnum
02450     A4 D2 04 F1 | 	add	objptr, #164
02454     69 DC 60 FC | 	wrlong	_var01, objptr
02458     A4 D2 84 F1 | 	sub	objptr, #164
0245c                 | _setfontnum_ret
0245c     2D 00 64 FD | 	ret
02460                 | 
02460                 | ' 
02460                 | ' ''--------- Redefine a character
02460                 | ' 
02460                 | ' pub defchar(fn,ch,b0,b1,b2,b3,b4,b5,b6,b7,b8,b9,b10,b11,b12,b13,b14,b15) :s
02460                 | _defchar
02460     93 DC 00 F6 | 	mov	_var01, arg01
02464     94 DE 00 F6 | 	mov	_var02, arg02
02468     95 E0 00 F6 | 	mov	_var03, arg03
0246c     96 E2 00 F6 | 	mov	_var04, arg04
02470     97 E4 00 F6 | 	mov	_var05, arg05
02474     98 E6 00 F6 | 	mov	_var06, arg06
02478     99 E8 00 F6 | 	mov	_var07, arg07
0247c     9A EA 00 F6 | 	mov	_var08, arg08
02480     9B EC 00 F6 | 	mov	_var09, arg09
02484     9C EE 00 F6 | 	mov	_var10, arg10
02488     9D F0 00 F6 | 	mov	_var11, arg11
0248c     9E F2 00 F6 | 	mov	_var12, arg12
02490     9F F4 00 F6 | 	mov	_var13, arg13
02494     A0 F6 00 F6 | 	mov	_var14, arg14
02498     A1 F8 00 F6 | 	mov	_var15, arg15
0249c     A2 FA 00 F6 | 	mov	_var16, arg16
024a0     A3 FC 00 F6 | 	mov	_var17, arg17
024a4     A4 FE 00 F6 | 	mov	_var18, arg18
024a8     00 00 05 F6 | 	mov	_var19, #0
024ac                 | ' 
024ac                 | ' s:=@st_font+fn+ch*16
024ac     08 00 00 FF 
024b0     00 D6 04 F1 | 	add	ptr__dat__, ##4096
024b4     6B 02 01 F6 | 	mov	_var20, ptr__dat__
024b8     08 00 00 FF 
024bc     00 D6 84 F1 | 	sub	ptr__dat__, ##4096
024c0     81 04 01 F6 | 	mov	_var21, _var20
024c4     6E 04 01 F1 | 	add	_var21, _var01
024c8     6F 06 01 F6 | 	mov	_var22, _var02
024cc     04 06 65 F0 | 	shl	_var22, #4
024d0     83 04 01 F1 | 	add	_var21, _var22
024d4     82 00 01 F6 | 	mov	_var19, _var21
024d8                 | ' byte[s+00]:=b0
024d8     80 04 01 F6 | 	mov	_var21, _var19
024dc     00 04 05 F1 | 	add	_var21, #0
024e0     82 E0 40 FC | 	wrbyte	_var03, _var21
024e4                 | ' byte[s+01]:=b1
024e4     80 04 01 F6 | 	mov	_var21, _var19
024e8     01 04 05 F1 | 	add	_var21, #1
024ec     82 E2 40 FC | 	wrbyte	_var04, _var21
024f0                 | ' byte[s+02]:=b2
024f0     80 04 01 F6 | 	mov	_var21, _var19
024f4     02 04 05 F1 | 	add	_var21, #2
024f8     82 E4 40 FC | 	wrbyte	_var05, _var21
024fc                 | ' byte[s+03]:=b3
024fc     80 04 01 F6 | 	mov	_var21, _var19
02500     03 04 05 F1 | 	add	_var21, #3
02504     82 E6 40 FC | 	wrbyte	_var06, _var21
02508                 | ' byte[s+04]:=b4
02508     80 04 01 F6 | 	mov	_var21, _var19
0250c     04 04 05 F1 | 	add	_var21, #4
02510     82 E8 40 FC | 	wrbyte	_var07, _var21
02514                 | ' byte[s+05]:=b5
02514     80 04 01 F6 | 	mov	_var21, _var19
02518     05 04 05 F1 | 	add	_var21, #5
0251c     82 EA 40 FC | 	wrbyte	_var08, _var21
02520                 | ' byte[s+06]:=b6
02520     80 04 01 F6 | 	mov	_var21, _var19
02524     06 04 05 F1 | 	add	_var21, #6
02528     82 EC 40 FC | 	wrbyte	_var09, _var21
0252c                 | ' byte[s+07]:=b7
0252c     80 04 01 F6 | 	mov	_var21, _var19
02530     07 04 05 F1 | 	add	_var21, #7
02534     82 EE 40 FC | 	wrbyte	_var10, _var21
02538                 | ' byte[s+08]:=b8
02538     80 04 01 F6 | 	mov	_var21, _var19
0253c     08 04 05 F1 | 	add	_var21, #8
02540     82 F0 40 FC | 	wrbyte	_var11, _var21
02544                 | ' byte[s+09]:=b9
02544     80 04 01 F6 | 	mov	_var21, _var19
02548     09 04 05 F1 | 	add	_var21, #9
0254c     82 F2 40 FC | 	wrbyte	_var12, _var21
02550                 | ' byte[s+10]:=b10
02550     80 04 01 F6 | 	mov	_var21, _var19
02554     0A 04 05 F1 | 	add	_var21, #10
02558     82 F4 40 FC | 	wrbyte	_var13, _var21
0255c                 | ' byte[s+11]:=b11
0255c     80 04 01 F6 | 	mov	_var21, _var19
02560     0B 04 05 F1 | 	add	_var21, #11
02564     82 F6 40 FC | 	wrbyte	_var14, _var21
02568                 | ' byte[s+12]:=b12
02568     80 04 01 F6 | 	mov	_var21, _var19
0256c     0C 04 05 F1 | 	add	_var21, #12
02570     82 F8 40 FC | 	wrbyte	_var15, _var21
02574                 | ' byte[s+13]:=b13
02574     80 04 01 F6 | 	mov	_var21, _var19
02578     0D 04 05 F1 | 	add	_var21, #13
0257c     82 FA 40 FC | 	wrbyte	_var16, _var21
02580                 | ' byte[s+14]:=b14
02580     80 04 01 F6 | 	mov	_var21, _var19
02584     0E 04 05 F1 | 	add	_var21, #14
02588     82 FC 40 FC | 	wrbyte	_var17, _var21
0258c                 | ' byte[s+15]:=b15
0258c     80 04 01 F6 | 	mov	_var21, _var19
02590     0F 04 05 F1 | 	add	_var21, #15
02594     82 FE 40 FC | 	wrbyte	_var18, _var21
02598     80 DA 00 F6 | 	mov	result1, _var19
0259c     00 00 90 FD | 	jmp	#_defchar_ret
025a0                 | _defchar_ret
025a0     2D 00 64 FD | 	ret
025a4                 | 
025a4                 | ' 
025a4                 | ' '*************************************************************************
025a4                 | ' '                                                                        *
025a4                 | ' '  Cursor functions                                                      *
025a4                 | ' '                                                                        *
025a4                 | ' '*************************************************************************
025a4                 | ' 
025a4                 | ' pub cursoron()
025a4                 | _cursoron
025a4                 | ' 
025a4                 | ' ''---------- Switch the cursor on
025a4                 | ' 
025a4                 | ' cursor_sh+=16
025a4     3A D2 04 F1 | 	add	objptr, #58
025a8     69 DC C0 FA | 	rdbyte	_var01, objptr
025ac     3A D2 84 F1 | 	sub	objptr, #58
025b0     6E DE 00 F6 | 	mov	_var02, _var01
025b4     10 DE 04 F1 | 	add	_var02, #16
025b8     3A D2 04 F1 | 	add	objptr, #58
025bc     69 DE 40 FC | 	wrbyte	_var02, objptr
025c0     3A D2 84 F1 | 	sub	objptr, #58
025c4                 | _cursoron_ret
025c4     2D 00 64 FD | 	ret
025c8                 | 
025c8                 | ' 
025c8                 | ' pub cursoroff()
025c8                 | _cursoroff
025c8                 | ' 
025c8                 | ' ''---------- Switch the cursor off
025c8                 | ' 
025c8                 | ' cursor_sh-=16
025c8     3A D2 04 F1 | 	add	objptr, #58
025cc     69 DC C0 FA | 	rdbyte	_var01, objptr
025d0     3A D2 84 F1 | 	sub	objptr, #58
025d4     6E DE 00 F6 | 	mov	_var02, _var01
025d8     10 DE 84 F1 | 	sub	_var02, #16
025dc     3A D2 04 F1 | 	add	objptr, #58
025e0     69 DE 40 FC | 	wrbyte	_var02, objptr
025e4     3A D2 84 F1 | 	sub	objptr, #58
025e8                 | _cursoroff_ret
025e8     2D 00 64 FD | 	ret
025ec                 | 
025ec                 | ' 
025ec                 | ' pub setcursorpos(x,y)
025ec                 | _setcursorpos
025ec     93 DC 00 F6 | 	mov	_var01, arg01
025f0     94 DE 00 F6 | 	mov	_var02, arg02
025f4                 | ' 
025f4                 | ' ''---------- Set the (x,y) position of cursor
025f4                 | ' 
025f4                 | ' cursor_x:=x
025f4     38 D2 04 F1 | 	add	objptr, #56
025f8     69 DC 40 FC | 	wrbyte	_var01, objptr
025fc     38 D2 84 F1 | 	sub	objptr, #56
02600                 | ' cursor_y:=y
02600     39 D2 04 F1 | 	add	objptr, #57
02604     69 DE 40 FC | 	wrbyte	_var02, objptr
02608     39 D2 84 F1 | 	sub	objptr, #57
0260c                 | _setcursorpos_ret
0260c     2D 00 64 FD | 	ret
02610                 | 
02610                 | ' 
02610                 | ' pub setcursorshape(shape)
02610                 | _setcursorshape
02610     93 DC 00 F6 | 	mov	_var01, arg01
02614                 | ' 
02614                 | ' ''---------- Define a cursor shape (0-full..15-line)
02614                 | ' 
02614                 | ' cursor_sh:=shape
02614     3A D2 04 F1 | 	add	objptr, #58
02618     69 DC 40 FC | 	wrbyte	_var01, objptr
0261c     3A D2 84 F1 | 	sub	objptr, #58
02620                 | _setcursorshape_ret
02620     2D 00 64 FD | 	ret
02624                 | 
02624                 | ' 
02624                 | ' '*************************************************************************
02624                 | ' '                                                                        *
02624                 | ' '  VBlank functions                                                      *
02624                 | ' '                                                                        *
02624                 | ' '*************************************************************************
02624                 | ' 
02624                 | ' pub waitvbl(amount) | i
02624                 | _waitvbl
02624     08 6A 04 F6 | 	mov	COUNT_, #8
02628     3C 00 A0 FD | 	call	#pushregs_
0262c     93 4A 01 F6 | 	mov	local01, arg01
02630                 | ' 
02630                 | ' ''---------- Wait for start of vblank. Amount=delay in frames
02630                 | ' 
02630                 | ' repeat i from 1 to amount
02630     01 4C 05 F6 | 	mov	local02, #1
02634     01 4A 5D F2 | 	cmps	local01, #1 wcz
02638     08 00 90 ED |  if_be	jmp	#LR__0094
0263c     01 4E 05 F6 | 	mov	local03, #1
02640     08 00 90 FD | 	jmp	#LR__0095
02644                 | LR__0094
02644     FF FF 7F FF 
02648     FF 4F 05 F6 | 	mov	local03, ##-1
0264c                 | LR__0095
0264c     A7 50 01 F6 | 	mov	local04, local03
02650     A5 52 01 F6 | 	mov	local05, local01
02654     A8 52 01 F1 | 	add	local05, local04
02658     A9 54 01 F6 | 	mov	local06, local05
0265c                 | LR__0096
0265c                 | '   repeat until vblank==0
0265c                 | LR__0097
0265c     44 D2 04 F1 | 	add	objptr, #68
02660     69 56 01 FB | 	rdlong	local07, objptr
02664     44 D2 84 F1 | 	sub	objptr, #68
02668     AB 58 01 F6 | 	mov	local08, local07
0266c     00 58 0D F2 | 	cmp	local08, #0 wz
02670     10 00 90 AD |  if_e	jmp	#LR__0098
02674                 | '     waitus(100)
02674     64 58 05 F6 | 	mov	local08, #100
02678     AC 26 01 F6 | 	mov	arg01, local08
0267c     E8 28 B0 FD | 	call	#__system___waitus
02680     D8 FF 9F FD | 	jmp	#LR__0097
02684                 | LR__0098
02684                 | '   repeat until vblank==1
02684                 | LR__0099
02684     44 D2 04 F1 | 	add	objptr, #68
02688     69 56 01 FB | 	rdlong	local07, objptr
0268c     44 D2 84 F1 | 	sub	objptr, #68
02690     AB 58 01 F6 | 	mov	local08, local07
02694     01 58 0D F2 | 	cmp	local08, #1 wz
02698     10 00 90 AD |  if_e	jmp	#LR__0100
0269c                 | '     waitus(100)
0269c     64 58 05 F6 | 	mov	local08, #100
026a0     AC 26 01 F6 | 	mov	arg01, local08
026a4     C0 28 B0 FD | 	call	#__system___waitus
026a8     D8 FF 9F FD | 	jmp	#LR__0099
026ac                 | LR__0100
026ac     A6 58 01 F6 | 	mov	local08, local02
026b0     A8 58 01 F1 | 	add	local08, local04
026b4     AC 4C 01 F6 | 	mov	local02, local08
026b8     AA 4C 09 F2 | 	cmp	local02, local06 wz
026bc     9C FF 9F 5D |  if_ne	jmp	#LR__0096
026c0     37 F0 03 F6 | 	mov	ptra, fp
026c4     4B 00 A0 FD | 	call	#popregs_
026c8                 | _waitvbl_ret
026c8     2D 00 64 FD | 	ret
026cc                 | 
026cc                 | ' 
026cc                 | ' 
026cc                 | ' pub waitvblend(amount) | i
026cc                 | _waitvblend
026cc     08 6A 04 F6 | 	mov	COUNT_, #8
026d0     3C 00 A0 FD | 	call	#pushregs_
026d4     93 4A 01 F6 | 	mov	local01, arg01
026d8                 | ' 
026d8                 | ' ''---------- Wait for end of vblank. Amount=delay in frames
026d8                 | ' 
026d8                 | ' repeat i from 1 to amount
026d8     01 4C 05 F6 | 	mov	local02, #1
026dc     01 4A 5D F2 | 	cmps	local01, #1 wcz
026e0     08 00 90 ED |  if_be	jmp	#LR__0101
026e4     01 4E 05 F6 | 	mov	local03, #1
026e8     08 00 90 FD | 	jmp	#LR__0102
026ec                 | LR__0101
026ec     FF FF 7F FF 
026f0     FF 4F 05 F6 | 	mov	local03, ##-1
026f4                 | LR__0102
026f4     A7 50 01 F6 | 	mov	local04, local03
026f8     A5 52 01 F6 | 	mov	local05, local01
026fc     A8 52 01 F1 | 	add	local05, local04
02700     A9 54 01 F6 | 	mov	local06, local05
02704                 | LR__0103
02704                 | '   repeat until vblank==1
02704                 | LR__0104
02704     44 D2 04 F1 | 	add	objptr, #68
02708     69 56 01 FB | 	rdlong	local07, objptr
0270c     44 D2 84 F1 | 	sub	objptr, #68
02710     AB 58 01 F6 | 	mov	local08, local07
02714     01 58 0D F2 | 	cmp	local08, #1 wz
02718     10 00 90 AD |  if_e	jmp	#LR__0105
0271c                 | '     waitus(100)
0271c     64 58 05 F6 | 	mov	local08, #100
02720     AC 26 01 F6 | 	mov	arg01, local08
02724     40 28 B0 FD | 	call	#__system___waitus
02728     D8 FF 9F FD | 	jmp	#LR__0104
0272c                 | LR__0105
0272c                 | '   repeat until vblank==0
0272c                 | LR__0106
0272c     44 D2 04 F1 | 	add	objptr, #68
02730     69 56 01 FB | 	rdlong	local07, objptr
02734     44 D2 84 F1 | 	sub	objptr, #68
02738     AB 58 01 F6 | 	mov	local08, local07
0273c     00 58 0D F2 | 	cmp	local08, #0 wz
02740     10 00 90 AD |  if_e	jmp	#LR__0107
02744                 | '     waitus(100)
02744     64 58 05 F6 | 	mov	local08, #100
02748     AC 26 01 F6 | 	mov	arg01, local08
0274c     18 28 B0 FD | 	call	#__system___waitus
02750     D8 FF 9F FD | 	jmp	#LR__0106
02754                 | LR__0107
02754     A6 58 01 F6 | 	mov	local08, local02
02758     A8 58 01 F1 | 	add	local08, local04
0275c     AC 4C 01 F6 | 	mov	local02, local08
02760     AA 4C 09 F2 | 	cmp	local02, local06 wz
02764     9C FF 9F 5D |  if_ne	jmp	#LR__0103
02768     37 F0 03 F6 | 	mov	ptra, fp
0276c     4B 00 A0 FD | 	call	#popregs_
02770                 | _waitvblend_ret
02770     2D 00 64 FD | 	ret
02774                 | 
02774                 | ' 
02774                 | ' '*************************************************************************
02774                 | ' '                                                                        *
02774                 | ' '  Color functions                                                       *
02774                 | ' '                                                                        *
02774                 | ' '*************************************************************************
02774                 | ' 
02774                 | ' ''---------- Get a VGA color code
02774                 | ' 
02774                 | ' pub getvgacolor(color):r
02774                 | _getvgacolor
02774     93 DC 00 F6 | 	mov	_var01, arg01
02778     00 DE 04 F6 | 	mov	_var02, #0
0277c                 | ' 
0277c                 | ' return colors[color]
0277c     6E E0 00 F6 | 	mov	_var03, _var01
02780     C0 D2 04 F1 | 	add	objptr, #192
02784     69 E2 00 F6 | 	mov	_var04, objptr
02788     C0 D2 84 F1 | 	sub	objptr, #192
0278c     71 E0 00 F1 | 	add	_var03, _var04
02790     70 DA C0 FA | 	rdbyte	result1, _var03
02794     00 00 90 FD | 	jmp	#_getvgacolor_ret
02798                 | _getvgacolor_ret
02798     2D 00 64 FD | 	ret
0279c                 | 
0279c                 | ' 
0279c                 | ' pub getpalettecolor(color):r
0279c                 | _getpalettecolor
0279c     93 DC 00 F6 | 	mov	_var01, arg01
027a0     00 DE 04 F6 | 	mov	_var02, #0
027a4                 | ' 
027a4                 | ' return long[@ataripalette+4*color]
027a4     0C 00 00 FF 
027a8     00 D6 04 F1 | 	add	ptr__dat__, ##6144
027ac     6B E0 00 F6 | 	mov	_var03, ptr__dat__
027b0     0C 00 00 FF 
027b4     00 D6 84 F1 | 	sub	ptr__dat__, ##6144
027b8     6E E2 00 F6 | 	mov	_var04, _var01
027bc     02 E2 64 F0 | 	shl	_var04, #2
027c0     70 E4 00 F6 | 	mov	_var05, _var03
027c4     71 E4 00 F1 | 	add	_var05, _var04
027c8     72 DA 00 FB | 	rdlong	result1, _var05
027cc     00 00 90 FD | 	jmp	#_getpalettecolor_ret
027d0                 | _getpalettecolor_ret
027d0     2D 00 64 FD | 	ret
027d4                 | 
027d4                 | ' 
027d4                 | ' ''---------- Set font and back colors for all screen - from 256 color palette
027d4                 | ' 
027d4                 | ' pub setscreencolors(ff,bb) | c ,i
027d4                 | _setscreencolors
027d4     93 DC 00 F6 | 	mov	_var01, arg01
027d8     94 DE 00 F6 | 	mov	_var02, arg02
027dc                 | ' 
027dc                 | ' c:=ff<<24+bb<<16
027dc     6E E0 00 F6 | 	mov	_var03, _var01
027e0     18 E0 64 F0 | 	shl	_var03, #24
027e4     6F E2 00 F6 | 	mov	_var04, _var02
027e8     10 E2 64 F0 | 	shl	_var04, #16
027ec     71 E0 00 F1 | 	add	_var03, _var04
027f0     70 E4 00 F6 | 	mov	_var05, _var03
027f4                 | ' 
027f4                 | ' repeat i from 0 to buflen-1
027f4     00 E6 04 F6 | 	mov	_var06, #0
027f8     34 D2 04 F1 | 	add	objptr, #52
027fc     69 E2 00 FB | 	rdlong	_var04, objptr
02800     34 D2 84 F1 | 	sub	objptr, #52
02804     71 E0 00 F6 | 	mov	_var03, _var04
02808     01 E0 84 F1 | 	sub	_var03, #1
0280c     70 E8 00 F6 | 	mov	_var07, _var03
02810     00 E8 5C F2 | 	cmps	_var07, #0 wcz
02814     08 00 90 ED |  if_be	jmp	#LR__0108
02818     01 EA 04 F6 | 	mov	_var08, #1
0281c     08 00 90 FD | 	jmp	#LR__0109
02820                 | LR__0108
02820     FF FF 7F FF 
02824     FF EB 04 F6 | 	mov	_var08, ##-1
02828                 | LR__0109
02828     75 EC 00 F6 | 	mov	_var09, _var08
0282c     74 EE 00 F6 | 	mov	_var10, _var07
02830     76 EE 00 F1 | 	add	_var10, _var09
02834     77 E8 00 F6 | 	mov	_var07, _var10
02838                 | LR__0110
02838                 | '    long[buf_ptr+4*i]:= (long[buf_ptr+4*i] & $FFFF) |  c
02838     69 F0 00 FB | 	rdlong	_var11, objptr
0283c     73 F2 00 F6 | 	mov	_var12, _var06
02840     02 F2 64 F0 | 	shl	_var12, #2
02844     79 F0 00 F1 | 	add	_var11, _var12
02848     78 F4 00 FB | 	rdlong	_var13, _var11
0284c     7F 00 00 FF 
02850     FF F5 04 F5 | 	and	_var13, ##65535
02854     72 F4 40 F5 | 	or	_var13, _var05
02858     69 F6 00 FB | 	rdlong	_var14, objptr
0285c     73 F8 00 F6 | 	mov	_var15, _var06
02860     02 F8 64 F0 | 	shl	_var15, #2
02864     7C F6 00 F1 | 	add	_var14, _var15
02868     7B F4 60 FC | 	wrlong	_var13, _var14
0286c                 | LR__0111
0286c     73 F4 00 F6 | 	mov	_var13, _var06
02870     76 F4 00 F1 | 	add	_var13, _var09
02874     7A E6 00 F6 | 	mov	_var06, _var13
02878     74 E6 08 F2 | 	cmp	_var06, _var07 wz
0287c     B8 FF 9F 5D |  if_ne	jmp	#LR__0110
02880                 | LR__0112
02880                 | _setscreencolors_ret
02880     2D 00 64 FD | 	ret
02884                 | 
02884                 | ' 
02884                 | ' ''---------- Set the color for the character at line y and position x
02884                 | ' 
02884                 | ' pub setcharcolor(x,y,c) | place, color
02884                 | _setcharcolor
02884     93 DC 00 F6 | 	mov	_var01, arg01
02888     94 DE 00 F6 | 	mov	_var02, arg02
0288c     95 E0 00 F6 | 	mov	_var03, arg03
02890                 | ' 
02890                 | ' place:=(x)+(y*cpl)
02890     6E E2 00 F6 | 	mov	_var04, _var01
02894     94 D2 04 F1 | 	add	objptr, #148
02898     69 E4 00 FB | 	rdlong	_var05, objptr
0289c     94 D2 84 F1 | 	sub	objptr, #148
028a0     72 E6 00 F6 | 	mov	_var06, _var05
028a4     73 DE 00 FD | 	qmul	_var02, _var06
028a8     18 E8 60 FD | 	getqx	_var07
028ac     74 E2 00 F1 | 	add	_var04, _var07
028b0     71 EA 00 F6 | 	mov	_var08, _var04
028b4                 | ' 
028b4                 | ' if (place>buflen-1)
028b4     34 D2 04 F1 | 	add	objptr, #52
028b8     69 E8 00 FB | 	rdlong	_var07, objptr
028bc     34 D2 84 F1 | 	sub	objptr, #52
028c0     74 E2 00 F6 | 	mov	_var04, _var07
028c4     01 E2 84 F1 | 	sub	_var04, #1
028c8     71 EA 58 F2 | 	cmps	_var08, _var04 wcz
028cc     18 00 90 ED |  if_be	jmp	#LR__0113
028d0                 | '   place:=buflen-1
028d0     34 D2 04 F1 | 	add	objptr, #52
028d4     69 E8 00 FB | 	rdlong	_var07, objptr
028d8     34 D2 84 F1 | 	sub	objptr, #52
028dc     74 E2 00 F6 | 	mov	_var04, _var07
028e0     01 E2 84 F1 | 	sub	_var04, #1
028e4     71 EA 00 F6 | 	mov	_var08, _var04
028e8                 | LR__0113
028e8                 | ' 
028e8                 | ' color:=(long[buf_ptr+4*place] &$FFFFFF) | (c<<24)
028e8     69 E8 00 FB | 	rdlong	_var07, objptr
028ec     75 E6 00 F6 | 	mov	_var06, _var08
028f0     02 E6 64 F0 | 	shl	_var06, #2
028f4     73 E8 00 F1 | 	add	_var07, _var06
028f8     74 E2 00 FB | 	rdlong	_var04, _var07
028fc     FF 7F 00 FF 
02900     FF E3 04 F5 | 	and	_var04, ##16777215
02904     70 E4 00 F6 | 	mov	_var05, _var03
02908     18 E4 64 F0 | 	shl	_var05, #24
0290c     72 E2 40 F5 | 	or	_var04, _var05
02910     71 EC 00 F6 | 	mov	_var09, _var04
02914                 | ' long[buf_ptr+4*place]:=color
02914     69 E2 00 FB | 	rdlong	_var04, objptr
02918     75 E8 00 F6 | 	mov	_var07, _var08
0291c     02 E8 64 F0 | 	shl	_var07, #2
02920     74 E2 00 F1 | 	add	_var04, _var07
02924     71 EC 60 FC | 	wrlong	_var09, _var04
02928                 | _setcharcolor_ret
02928     2D 00 64 FD | 	ret
0292c                 | 
0292c                 | ' 
0292c                 | ' ''---------- Set the background color at line y and position x
0292c                 | ' 
0292c                 | ' pub setbackcolor(x,y,c) | place, color
0292c                 | _setbackcolor
0292c     93 DC 00 F6 | 	mov	_var01, arg01
02930     94 DE 00 F6 | 	mov	_var02, arg02
02934     95 E0 00 F6 | 	mov	_var03, arg03
02938                 | ' 
02938                 | ' place:=(x)+(y*cpl)
02938     6E E2 00 F6 | 	mov	_var04, _var01
0293c     94 D2 04 F1 | 	add	objptr, #148
02940     69 E4 00 FB | 	rdlong	_var05, objptr
02944     94 D2 84 F1 | 	sub	objptr, #148
02948     72 E6 00 F6 | 	mov	_var06, _var05
0294c     73 DE 00 FD | 	qmul	_var02, _var06
02950     18 E8 60 FD | 	getqx	_var07
02954     74 E2 00 F1 | 	add	_var04, _var07
02958     71 EA 00 F6 | 	mov	_var08, _var04
0295c                 | ' 
0295c                 | ' if (place>buflen-1)
0295c     34 D2 04 F1 | 	add	objptr, #52
02960     69 E8 00 FB | 	rdlong	_var07, objptr
02964     34 D2 84 F1 | 	sub	objptr, #52
02968     74 E2 00 F6 | 	mov	_var04, _var07
0296c     01 E2 84 F1 | 	sub	_var04, #1
02970     71 EA 58 F2 | 	cmps	_var08, _var04 wcz
02974     18 00 90 ED |  if_be	jmp	#LR__0114
02978                 | '   place:=buflen-1
02978     34 D2 04 F1 | 	add	objptr, #52
0297c     69 E8 00 FB | 	rdlong	_var07, objptr
02980     34 D2 84 F1 | 	sub	objptr, #52
02984     74 E2 00 F6 | 	mov	_var04, _var07
02988     01 E2 84 F1 | 	sub	_var04, #1
0298c     71 EA 00 F6 | 	mov	_var08, _var04
02990                 | LR__0114
02990                 | ' 
02990                 | ' color:=(long[buf_ptr+4*place] &$FF00FFFF) | (c<<16)
02990     69 E8 00 FB | 	rdlong	_var07, objptr
02994     75 E6 00 F6 | 	mov	_var06, _var08
02998     02 E6 64 F0 | 	shl	_var06, #2
0299c     73 E8 00 F1 | 	add	_var07, _var06
029a0     74 E2 00 FB | 	rdlong	_var04, _var07
029a4     7F 80 7F FF 
029a8     FF E3 04 F5 | 	and	_var04, ##-16711681
029ac     70 E4 00 F6 | 	mov	_var05, _var03
029b0     10 E4 64 F0 | 	shl	_var05, #16
029b4     72 E2 40 F5 | 	or	_var04, _var05
029b8     71 EC 00 F6 | 	mov	_var09, _var04
029bc                 | ' long[buf_ptr+4*place]:=color
029bc     69 E2 00 FB | 	rdlong	_var04, objptr
029c0     75 E8 00 F6 | 	mov	_var07, _var08
029c4     02 E8 64 F0 | 	shl	_var07, #2
029c8     74 E2 00 F1 | 	add	_var04, _var07
029cc     71 EC 60 FC | 	wrlong	_var09, _var04
029d0                 | _setbackcolor_ret
029d0     2D 00 64 FD | 	ret
029d4                 | 
029d4                 | ' 
029d4                 | ' ''---------- Set the border color, o is upper border, lines+1 is lower border
029d4                 | ' 
029d4                 | ' pub setbordercolor(r,g,b) | color
029d4                 | _setbordercolor
029d4     93 DC 00 F6 | 	mov	_var01, arg01
029d8     94 DE 00 F6 | 	mov	_var02, arg02
029dc     95 E0 00 F6 | 	mov	_var03, arg03
029e0                 | ' 
029e0                 | ' color:=r<<24+g<<16+b<<8
029e0     6E E2 00 F6 | 	mov	_var04, _var01
029e4     18 E2 64 F0 | 	shl	_var04, #24
029e8     6F E4 00 F6 | 	mov	_var05, _var02
029ec     10 E4 64 F0 | 	shl	_var05, #16
029f0     72 E2 00 F1 | 	add	_var04, _var05
029f4     70 E6 00 F6 | 	mov	_var06, _var03
029f8     08 E6 64 F0 | 	shl	_var06, #8
029fc     73 E2 00 F1 | 	add	_var04, _var06
02a00     71 E8 00 F6 | 	mov	_var07, _var04
02a04                 | ' bordercolor:=color
02a04     30 D2 04 F1 | 	add	objptr, #48
02a08     69 E8 60 FC | 	wrlong	_var07, objptr
02a0c     30 D2 84 F1 | 	sub	objptr, #48
02a10                 | _setbordercolor_ret
02a10     2D 00 64 FD | 	ret
02a14                 | 
02a14                 | ' 
02a14                 | ' ''---------- Set colors for putchar, write and writeln
02a14                 | ' 
02a14                 | ' pub setwritecolors(ff,bb)
02a14                 | _setwritecolors
02a14     93 DC 00 F6 | 	mov	_var01, arg01
02a18     94 DE 00 F6 | 	mov	_var02, arg02
02a1c                 | ' 
02a1c                 | ' 
02a1c                 | ' write_color:=ff
02a1c     3C D2 04 F1 | 	add	objptr, #60
02a20     69 DC 60 FC | 	wrlong	_var01, objptr
02a24     3C D2 84 F1 | 	sub	objptr, #60
02a28                 | ' write_background:=bb
02a28     40 D2 04 F1 | 	add	objptr, #64
02a2c     69 DE 60 FC | 	wrlong	_var02, objptr
02a30     40 D2 84 F1 | 	sub	objptr, #64
02a34                 | _setwritecolors_ret
02a34     2D 00 64 FD | 	ret
02a38                 | 
02a38                 | ' 
02a38                 | ' ''---------- Set color #c in palette to r,g,b
02a38                 | ' 
02a38                 | ' pub setcolor(c,r,g,b)  |cc
02a38                 | _setcolor
02a38     93 DC 00 F6 | 	mov	_var01, arg01
02a3c     94 DE 00 F6 | 	mov	_var02, arg02
02a40     95 E0 00 F6 | 	mov	_var03, arg03
02a44     96 E2 00 F6 | 	mov	_var04, arg04
02a48                 | ' 
02a48                 | ' cc:=r<<24+g<<16+b<<8
02a48     6F E4 00 F6 | 	mov	_var05, _var02
02a4c     18 E4 64 F0 | 	shl	_var05, #24
02a50     70 E6 00 F6 | 	mov	_var06, _var03
02a54     10 E6 64 F0 | 	shl	_var06, #16
02a58     73 E4 00 F1 | 	add	_var05, _var06
02a5c     71 E8 00 F6 | 	mov	_var07, _var04
02a60     08 E8 64 F0 | 	shl	_var07, #8
02a64     74 E4 00 F1 | 	add	_var05, _var07
02a68     72 EA 00 F6 | 	mov	_var08, _var05
02a6c                 | ' cmd2:=cc
02a6c     A0 D2 04 F1 | 	add	objptr, #160
02a70     69 EA 60 FC | 	wrlong	_var08, objptr
02a74     A0 D2 84 F1 | 	sub	objptr, #160
02a78                 | ' cmd1:=c
02a78     9C D2 04 F1 | 	add	objptr, #156
02a7c     69 DC 60 FC | 	wrlong	_var01, objptr
02a80     9C D2 84 F1 | 	sub	objptr, #156
02a84                 | ' repeat until cmd1==257
02a84                 | LR__0115
02a84     9C D2 04 F1 | 	add	objptr, #156
02a88     69 E6 00 FB | 	rdlong	_var06, objptr
02a8c     9C D2 84 F1 | 	sub	objptr, #156
02a90     73 E4 00 F6 | 	mov	_var05, _var06
02a94     01 E5 0C F2 | 	cmp	_var05, #257 wz
02a98     04 00 90 AD |  if_e	jmp	#LR__0116
02a9c     E4 FF 9F FD | 	jmp	#LR__0115
02aa0                 | LR__0116
02aa0                 | _setcolor_ret
02aa0     2D 00 64 FD | 	ret
02aa4                 | 
02aa4                 | ' 
02aa4                 | ' 
02aa4                 | ' '*************************************************************************
02aa4                 | ' '                                                                        *
02aa4                 | ' '  Text functions                                                        *
02aa4                 | ' '                                                                        *
02aa4                 | ' '*************************************************************************
02aa4                 | ' 
02aa4                 | ' ''---------- Clear the screen, set its foreground/background color
02aa4                 | ' 
02aa4                 | ' pub cls(fc,bc)   :c
02aa4                 | _cls
02aa4     09 6A 04 F6 | 	mov	COUNT_, #9
02aa8     3C 00 A0 FD | 	call	#pushregs_
02aac     93 4A 01 F6 | 	mov	local01, arg01
02ab0     94 4C 01 F6 | 	mov	local02, arg02
02ab4     00 4E 05 F6 | 	mov	local03, #0
02ab8                 | ' 
02ab8                 | ' if (graphmode<512)
02ab8     D0 D2 04 F1 | 	add	objptr, #208
02abc     69 50 01 FB | 	rdlong	local04, objptr
02ac0     D0 D2 84 F1 | 	sub	objptr, #208
02ac4     A8 52 01 F6 | 	mov	local05, local04
02ac8     01 00 00 FF 
02acc     00 52 5D F2 | 	cmps	local05, ##512 wcz
02ad0     48 00 90 3D |  if_ae	jmp	#LR__0117
02ad4                 | '   c:=fc<<24+bc<<16+$20
02ad4     A5 52 01 F6 | 	mov	local05, local01
02ad8     18 52 65 F0 | 	shl	local05, #24
02adc     A6 50 01 F6 | 	mov	local04, local02
02ae0     10 50 65 F0 | 	shl	local04, #16
02ae4     A8 52 01 F1 | 	add	local05, local04
02ae8     20 52 05 F1 | 	add	local05, #32
02aec     A9 4E 01 F6 | 	mov	local03, local05
02af0                 | '   longfill(buf_ptr,c,buflen)
02af0     69 52 01 FB | 	rdlong	local05, objptr
02af4     A7 50 01 F6 | 	mov	local04, local03
02af8     34 D2 04 F1 | 	add	objptr, #52
02afc     69 54 01 FB | 	rdlong	local06, objptr
02b00     34 D2 84 F1 | 	sub	objptr, #52
02b04     AA 56 01 F6 | 	mov	local07, local06
02b08     A9 26 01 F6 | 	mov	arg01, local05
02b0c     A8 28 01 F6 | 	mov	arg02, local04
02b10     AB 2A 01 F6 | 	mov	arg03, local07
02b14     88 22 B0 FD | 	call	#__system__longfill
02b18                 | ' else
02b18     E4 00 90 FD | 	jmp	#LR__0126
02b1c                 | LR__0117
02b1c                 | '   if (graphmode & 48) ==48
02b1c     D0 D2 04 F1 | 	add	objptr, #208
02b20     69 50 01 FB | 	rdlong	local04, objptr
02b24     D0 D2 84 F1 | 	sub	objptr, #208
02b28     A8 52 01 F6 | 	mov	local05, local04
02b2c     30 52 05 F5 | 	and	local05, #48
02b30     30 52 0D F2 | 	cmp	local05, #48 wz
02b34     08 00 90 5D |  if_ne	jmp	#LR__0118
02b38                 | '     c:=bc
02b38     A6 4E 01 F6 | 	mov	local03, local02
02b3c     8C 00 90 FD | 	jmp	#LR__0125
02b40                 | LR__0118
02b40                 | '   elseif (graphmode & 48) ==32
02b40     D0 D2 04 F1 | 	add	objptr, #208
02b44     69 50 01 FB | 	rdlong	local04, objptr
02b48     D0 D2 84 F1 | 	sub	objptr, #208
02b4c     A8 52 01 F6 | 	mov	local05, local04
02b50     30 52 05 F5 | 	and	local05, #48
02b54     20 52 0D F2 | 	cmp	local05, #32 wz
02b58     14 00 90 5D |  if_ne	jmp	#LR__0119
02b5c                 | '     c:=bc<<4+bc
02b5c     A6 52 01 F6 | 	mov	local05, local02
02b60     04 52 65 F0 | 	shl	local05, #4
02b64     A6 52 01 F1 | 	add	local05, local02
02b68     A9 4E 01 F6 | 	mov	local03, local05
02b6c     5C 00 90 FD | 	jmp	#LR__0124
02b70                 | LR__0119
02b70                 | '   elseif (graphmode & 48) ==16
02b70     D0 D2 04 F1 | 	add	objptr, #208
02b74     69 50 01 FB | 	rdlong	local04, objptr
02b78     D0 D2 84 F1 | 	sub	objptr, #208
02b7c     A8 52 01 F6 | 	mov	local05, local04
02b80     30 52 05 F5 | 	and	local05, #48
02b84     10 52 0D F2 | 	cmp	local05, #16 wz
02b88     2C 00 90 5D |  if_ne	jmp	#LR__0120
02b8c                 | '     c:=bc<<6+bc<<4+bc<<2+bc
02b8c     A6 52 01 F6 | 	mov	local05, local02
02b90     06 52 65 F0 | 	shl	local05, #6
02b94     A6 50 01 F6 | 	mov	local04, local02
02b98     04 50 65 F0 | 	shl	local04, #4
02b9c     A8 52 01 F1 | 	add	local05, local04
02ba0     A6 56 01 F6 | 	mov	local07, local02
02ba4     02 56 65 F0 | 	shl	local07, #2
02ba8     AB 52 01 F1 | 	add	local05, local07
02bac     A6 52 01 F1 | 	add	local05, local02
02bb0     A9 4E 01 F6 | 	mov	local03, local05
02bb4                 | '   else
02bb4     14 00 90 FD | 	jmp	#LR__0123
02bb8                 | LR__0120
02bb8                 | '     if bc==1
02bb8     01 4C 0D F2 | 	cmp	local02, #1 wz
02bbc     08 00 90 5D |  if_ne	jmp	#LR__0121
02bc0                 | '       c:=255
02bc0     FF 4E 05 F6 | 	mov	local03, #255
02bc4                 | '     else
02bc4     04 00 90 FD | 	jmp	#LR__0122
02bc8                 | LR__0121
02bc8                 | '       c:=0    
02bc8     00 4E 05 F6 | 	mov	local03, #0
02bcc                 | LR__0122
02bcc                 | LR__0123
02bcc                 | LR__0124
02bcc                 | LR__0125
02bcc                 | '   bytefill(buf_ptr,c,buflen*4)
02bcc     69 52 01 FB | 	rdlong	local05, objptr
02bd0     A7 50 01 F6 | 	mov	local04, local03
02bd4     34 D2 04 F1 | 	add	objptr, #52
02bd8     69 58 01 FB | 	rdlong	local08, objptr
02bdc     34 D2 84 F1 | 	sub	objptr, #52
02be0     AC 54 01 F6 | 	mov	local06, local08
02be4     AA 56 01 F6 | 	mov	local07, local06
02be8     02 56 65 F0 | 	shl	local07, #2
02bec     AB 5A 01 F6 | 	mov	local09, local07
02bf0     A9 26 01 F6 | 	mov	arg01, local05
02bf4     A8 28 01 F6 | 	mov	arg02, local04
02bf8     AD 2A 01 F6 | 	mov	arg03, local09
02bfc     28 20 B0 FD | 	call	#__system__bytefill
02c00                 | LR__0126
02c00                 | ' setwritecolors(fc,bc)
02c00     A5 52 01 F6 | 	mov	local05, local01
02c04     A6 50 01 F6 | 	mov	local04, local02
02c08     A9 26 01 F6 | 	mov	arg01, local05
02c0c     A8 28 01 F6 | 	mov	arg02, local04
02c10     00 FE BF FD | 	call	#_setwritecolors
02c14                 | ' cursor_x:=0
02c14     00 52 05 F6 | 	mov	local05, #0
02c18     38 D2 04 F1 | 	add	objptr, #56
02c1c     69 52 41 FC | 	wrbyte	local05, objptr
02c20     38 D2 84 F1 | 	sub	objptr, #56
02c24                 | ' cursor_y:=0
02c24     00 52 05 F6 | 	mov	local05, #0
02c28     39 D2 04 F1 | 	add	objptr, #57
02c2c     69 52 41 FC | 	wrbyte	local05, objptr
02c30     39 D2 84 F1 | 	sub	objptr, #57
02c34     A7 DA 00 F6 | 	mov	result1, local03
02c38     00 00 90 FD | 	jmp	#LR__0127
02c3c                 | LR__0127
02c3c     37 F0 03 F6 | 	mov	ptra, fp
02c40     4B 00 A0 FD | 	call	#popregs_
02c44                 | _cls_ret
02c44     2D 00 64 FD | 	ret
02c48                 | 
02c48                 | ' 
02c48                 | ' ''---------- Output a char at x,y, don't change colors and cursor position
02c48                 | ' 
02c48                 | ' pub putcharxy(x,y,achar) | c
02c48                 | _putcharxy
02c48     93 DC 00 F6 | 	mov	_var01, arg01
02c4c     94 DE 00 F6 | 	mov	_var02, arg02
02c50     95 E0 00 F6 | 	mov	_var03, arg03
02c54                 | ' 
02c54                 | ' long[buf_ptr+4*(cpl*y+x)]:=(long[buf_ptr+4*(cpl*y+x)] & $FFFFFF00)  |(achar & $000000FF)
02c54     69 E2 00 FB | 	rdlong	_var04, objptr
02c58     94 D2 04 F1 | 	add	objptr, #148
02c5c     69 E4 00 FB | 	rdlong	_var05, objptr
02c60     94 D2 84 F1 | 	sub	objptr, #148
02c64     72 E6 00 F6 | 	mov	_var06, _var05
02c68     6F E6 00 FD | 	qmul	_var06, _var02
02c6c     18 E8 60 FD | 	getqx	_var07
02c70     74 EA 00 F6 | 	mov	_var08, _var07
02c74     6E EA 00 F1 | 	add	_var08, _var01
02c78     75 EC 00 F6 | 	mov	_var09, _var08
02c7c     02 EC 64 F0 | 	shl	_var09, #2
02c80     76 E2 00 F1 | 	add	_var04, _var09
02c84     71 EE 00 FB | 	rdlong	_var10, _var04
02c88     FF FF 7F FF 
02c8c     00 EF 04 F5 | 	and	_var10, ##-256
02c90     70 F0 00 F6 | 	mov	_var11, _var03
02c94     FF F0 04 F5 | 	and	_var11, #255
02c98     78 EE 40 F5 | 	or	_var10, _var11
02c9c     69 F2 00 FB | 	rdlong	_var12, objptr
02ca0     94 D2 04 F1 | 	add	objptr, #148
02ca4     69 F4 00 FB | 	rdlong	_var13, objptr
02ca8     94 D2 84 F1 | 	sub	objptr, #148
02cac     7A F6 00 F6 | 	mov	_var14, _var13
02cb0     6F F6 00 FD | 	qmul	_var14, _var02
02cb4     18 F8 60 FD | 	getqx	_var15
02cb8     7C FA 00 F6 | 	mov	_var16, _var15
02cbc     6E FA 00 F1 | 	add	_var16, _var01
02cc0     7D FC 00 F6 | 	mov	_var17, _var16
02cc4     02 FC 64 F0 | 	shl	_var17, #2
02cc8     7E F2 00 F1 | 	add	_var12, _var17
02ccc     79 EE 60 FC | 	wrlong	_var10, _var12
02cd0                 | _putcharxy_ret
02cd0     2D 00 64 FD | 	ret
02cd4                 | 
02cd4                 | ' 
02cd4                 | ' ''---------- Output a char at x,y and colors f,b, don't change a cursor position
02cd4                 | ' 
02cd4                 | ' pub putcharxyc(x,y,achar,f,b) | c
02cd4                 | _putcharxyc
02cd4     93 DC 00 F6 | 	mov	_var01, arg01
02cd8     94 DE 00 F6 | 	mov	_var02, arg02
02cdc     95 E0 00 F6 | 	mov	_var03, arg03
02ce0     96 E2 00 F6 | 	mov	_var04, arg04
02ce4     97 E4 00 F6 | 	mov	_var05, arg05
02ce8                 | ' 
02ce8                 | ' c:=f<<24+b<<16
02ce8     71 E6 00 F6 | 	mov	_var06, _var04
02cec     18 E6 64 F0 | 	shl	_var06, #24
02cf0     72 E8 00 F6 | 	mov	_var07, _var05
02cf4     10 E8 64 F0 | 	shl	_var07, #16
02cf8     74 E6 00 F1 | 	add	_var06, _var07
02cfc     73 EA 00 F6 | 	mov	_var08, _var06
02d00                 | ' long[buf_ptr+4*(cpl*y+x)]:=long[buf_ptr+4*(cpl*y+x)] &$FFFF | c
02d00     69 E8 00 FB | 	rdlong	_var07, objptr
02d04     94 D2 04 F1 | 	add	objptr, #148
02d08     69 EC 00 FB | 	rdlong	_var09, objptr
02d0c     94 D2 84 F1 | 	sub	objptr, #148
02d10     76 EE 00 F6 | 	mov	_var10, _var09
02d14     6F EE 00 FD | 	qmul	_var10, _var02
02d18     18 F0 60 FD | 	getqx	_var11
02d1c     78 F2 00 F6 | 	mov	_var12, _var11
02d20     6E F2 00 F1 | 	add	_var12, _var01
02d24     79 F4 00 F6 | 	mov	_var13, _var12
02d28     02 F4 64 F0 | 	shl	_var13, #2
02d2c     7A E8 00 F1 | 	add	_var07, _var13
02d30     74 E6 00 FB | 	rdlong	_var06, _var07
02d34     7F 00 00 FF 
02d38     FF E7 04 F5 | 	and	_var06, ##65535
02d3c     75 E6 40 F5 | 	or	_var06, _var08
02d40     69 F6 00 FB | 	rdlong	_var14, objptr
02d44     94 D2 04 F1 | 	add	objptr, #148
02d48     69 F8 00 FB | 	rdlong	_var15, objptr
02d4c     94 D2 84 F1 | 	sub	objptr, #148
02d50     7C FA 00 F6 | 	mov	_var16, _var15
02d54     6F FA 00 FD | 	qmul	_var16, _var02
02d58     18 FC 60 FD | 	getqx	_var17
02d5c     7E FE 00 F6 | 	mov	_var18, _var17
02d60     6E FE 00 F1 | 	add	_var18, _var01
02d64     7F 00 01 F6 | 	mov	_var19, _var18
02d68     02 00 65 F0 | 	shl	_var19, #2
02d6c     80 F6 00 F1 | 	add	_var14, _var19
02d70     7B E6 60 FC | 	wrlong	_var06, _var14
02d74                 | ' long[buf_ptr+4*(cpl*y+x)]:=(long[buf_ptr+4*(cpl*y+x)] & $FFFFFF00)  |(achar & $000000FF)
02d74     69 E8 00 FB | 	rdlong	_var07, objptr
02d78     94 D2 04 F1 | 	add	objptr, #148
02d7c     69 EC 00 FB | 	rdlong	_var09, objptr
02d80     94 D2 84 F1 | 	sub	objptr, #148
02d84     76 EE 00 F6 | 	mov	_var10, _var09
02d88     6F EE 00 FD | 	qmul	_var10, _var02
02d8c     18 F0 60 FD | 	getqx	_var11
02d90     78 F2 00 F6 | 	mov	_var12, _var11
02d94     6E F2 00 F1 | 	add	_var12, _var01
02d98     79 F4 00 F6 | 	mov	_var13, _var12
02d9c     02 F4 64 F0 | 	shl	_var13, #2
02da0     7A E8 00 F1 | 	add	_var07, _var13
02da4     74 E6 00 FB | 	rdlong	_var06, _var07
02da8     FF FF 7F FF 
02dac     00 E7 04 F5 | 	and	_var06, ##-256
02db0     70 F6 00 F6 | 	mov	_var14, _var03
02db4     FF F6 04 F5 | 	and	_var14, #255
02db8     7B E6 40 F5 | 	or	_var06, _var14
02dbc     69 FE 00 FB | 	rdlong	_var18, objptr
02dc0     94 D2 04 F1 | 	add	objptr, #148
02dc4     69 00 01 FB | 	rdlong	_var19, objptr
02dc8     94 D2 84 F1 | 	sub	objptr, #148
02dcc     80 F8 00 F6 | 	mov	_var15, _var19
02dd0     6F F8 00 FD | 	qmul	_var15, _var02
02dd4     18 FA 60 FD | 	getqx	_var16
02dd8     7D FC 00 F6 | 	mov	_var17, _var16
02ddc     6E FC 00 F1 | 	add	_var17, _var01
02de0     7E 02 01 F6 | 	mov	_var20, _var17
02de4     02 02 65 F0 | 	shl	_var20, #2
02de8     81 FE 00 F1 | 	add	_var18, _var20
02dec     7F E6 60 FC | 	wrlong	_var06, _var18
02df0                 | _putcharxyc_ret
02df0     2D 00 64 FD | 	ret
02df4                 | 
02df4                 | ' 
02df4                 | ' ''--------- Output a string at position x,y without changing colors
02df4                 | ' 
02df4                 | ' pub outtextxy(x,y,text) | iii
02df4                 | _outtextxy
02df4     1A 6A 04 F6 | 	mov	COUNT_, #26
02df8     3C 00 A0 FD | 	call	#pushregs_
02dfc     93 4A 01 F6 | 	mov	local01, arg01
02e00     94 4C 01 F6 | 	mov	local02, arg02
02e04     95 4E 01 F6 | 	mov	local03, arg03
02e08                 | ' 
02e08                 | ' repeat iii from 0 to strsize(text)-1
02e08     00 50 05 F6 | 	mov	local04, #0
02e0c     A7 52 01 F6 | 	mov	local05, local03
02e10     A9 26 01 F6 | 	mov	arg01, local05
02e14     90 20 B0 FD | 	call	#__system____builtin_strlen
02e18     6D 54 01 F6 | 	mov	local06, result1
02e1c     AA 56 01 F6 | 	mov	local07, local06
02e20     01 56 85 F1 | 	sub	local07, #1
02e24     AB 58 01 F6 | 	mov	local08, local07
02e28     00 58 5D F2 | 	cmps	local08, #0 wcz
02e2c     08 00 90 ED |  if_be	jmp	#LR__0128
02e30     01 5A 05 F6 | 	mov	local09, #1
02e34     08 00 90 FD | 	jmp	#LR__0129
02e38                 | LR__0128
02e38     FF FF 7F FF 
02e3c     FF 5B 05 F6 | 	mov	local09, ##-1
02e40                 | LR__0129
02e40     AD 5C 01 F6 | 	mov	local10, local09
02e44     AC 5E 01 F6 | 	mov	local11, local08
02e48     AE 5E 01 F1 | 	add	local11, local10
02e4c     AF 58 01 F6 | 	mov	local08, local11
02e50                 | LR__0130
02e50                 | '   long[buf_ptr+4*(cpl*y+x+iii)]:=(long[buf_ptr+4*(cpl*y+x+iii)] & $FFFFFF00)  | byte[text+iii]
02e50     69 60 01 FB | 	rdlong	local12, objptr
02e54     94 D2 04 F1 | 	add	objptr, #148
02e58     69 62 01 FB | 	rdlong	local13, objptr
02e5c     94 D2 84 F1 | 	sub	objptr, #148
02e60     B1 64 01 F6 | 	mov	local14, local13
02e64     A6 64 01 FD | 	qmul	local14, local02
02e68     18 66 61 FD | 	getqx	local15
02e6c     B3 68 01 F6 | 	mov	local16, local15
02e70     A5 68 01 F1 | 	add	local16, local01
02e74     A8 68 01 F1 | 	add	local16, local04
02e78     B4 6A 01 F6 | 	mov	local17, local16
02e7c     02 6A 65 F0 | 	shl	local17, #2
02e80     B5 60 01 F1 | 	add	local12, local17
02e84     B0 6C 01 FB | 	rdlong	local18, local12
02e88     FF FF 7F FF 
02e8c     00 6D 05 F5 | 	and	local18, ##-256
02e90     A7 6E 01 F6 | 	mov	local19, local03
02e94     A8 6E 01 F1 | 	add	local19, local04
02e98     B7 70 C1 FA | 	rdbyte	local20, local19
02e9c     B8 6C 41 F5 | 	or	local18, local20
02ea0     69 72 01 FB | 	rdlong	local21, objptr
02ea4     94 D2 04 F1 | 	add	objptr, #148
02ea8     69 74 01 FB | 	rdlong	local22, objptr
02eac     94 D2 84 F1 | 	sub	objptr, #148
02eb0     BA 76 01 F6 | 	mov	local23, local22
02eb4     A6 76 01 FD | 	qmul	local23, local02
02eb8     18 78 61 FD | 	getqx	local24
02ebc     BC 7A 01 F6 | 	mov	local25, local24
02ec0     A5 7A 01 F1 | 	add	local25, local01
02ec4     A8 7A 01 F1 | 	add	local25, local04
02ec8     BD 7C 01 F6 | 	mov	local26, local25
02ecc     02 7C 65 F0 | 	shl	local26, #2
02ed0     BE 72 01 F1 | 	add	local21, local26
02ed4     B9 6C 61 FC | 	wrlong	local18, local21
02ed8     A8 6C 01 F6 | 	mov	local18, local04
02edc     AE 6C 01 F1 | 	add	local18, local10
02ee0     B6 50 01 F6 | 	mov	local04, local18
02ee4     AC 50 09 F2 | 	cmp	local04, local08 wz
02ee8     64 FF 9F 5D |  if_ne	jmp	#LR__0130
02eec     37 F0 03 F6 | 	mov	ptra, fp
02ef0     4B 00 A0 FD | 	call	#popregs_
02ef4                 | _outtextxy_ret
02ef4     2D 00 64 FD | 	ret
02ef8                 | 
02ef8                 | ' 
02ef8                 | ' 
02ef8                 | ' ''--------- Output a string at position x,y and colors b,f
02ef8                 | ' 
02ef8                 | ' pub outtextxyc(x,y,text,f,b) | iii,c
02ef8                 | _outtextxyc
02ef8     1D 6A 04 F6 | 	mov	COUNT_, #29
02efc     3C 00 A0 FD | 	call	#pushregs_
02f00     93 4A 01 F6 | 	mov	local01, arg01
02f04     94 4C 01 F6 | 	mov	local02, arg02
02f08     95 4E 01 F6 | 	mov	local03, arg03
02f0c     96 50 01 F6 | 	mov	local04, arg04
02f10     97 52 01 F6 | 	mov	local05, arg05
02f14                 | ' 
02f14                 | ' c:=f<<24+b<<16
02f14     A8 54 01 F6 | 	mov	local06, local04
02f18     18 54 65 F0 | 	shl	local06, #24
02f1c     A9 56 01 F6 | 	mov	local07, local05
02f20     10 56 65 F0 | 	shl	local07, #16
02f24     AB 54 01 F1 | 	add	local06, local07
02f28     AA 58 01 F6 | 	mov	local08, local06
02f2c                 | ' repeat iii from 0 to strsize(text)-1
02f2c     00 5A 05 F6 | 	mov	local09, #0
02f30     A7 56 01 F6 | 	mov	local07, local03
02f34     AB 26 01 F6 | 	mov	arg01, local07
02f38     6C 1F B0 FD | 	call	#__system____builtin_strlen
02f3c     6D 5C 01 F6 | 	mov	local10, result1
02f40     AE 54 01 F6 | 	mov	local06, local10
02f44     01 54 85 F1 | 	sub	local06, #1
02f48     AA 5E 01 F6 | 	mov	local11, local06
02f4c     00 5E 5D F2 | 	cmps	local11, #0 wcz
02f50     08 00 90 ED |  if_be	jmp	#LR__0131
02f54     01 60 05 F6 | 	mov	local12, #1
02f58     08 00 90 FD | 	jmp	#LR__0132
02f5c                 | LR__0131
02f5c     FF FF 7F FF 
02f60     FF 61 05 F6 | 	mov	local12, ##-1
02f64                 | LR__0132
02f64     B0 62 01 F6 | 	mov	local13, local12
02f68     AF 64 01 F6 | 	mov	local14, local11
02f6c     B1 64 01 F1 | 	add	local14, local13
02f70     B2 5E 01 F6 | 	mov	local11, local14
02f74                 | LR__0133
02f74                 | '   long[buf_ptr+4*(cpl*y+x+iii)]:=(long[buf_ptr+4*(cpl*y+x+iii)] & $FFFFFF00)  | byte[text+iii]
02f74     69 66 01 FB | 	rdlong	local15, objptr
02f78     94 D2 04 F1 | 	add	objptr, #148
02f7c     69 68 01 FB | 	rdlong	local16, objptr
02f80     94 D2 84 F1 | 	sub	objptr, #148
02f84     B4 6A 01 F6 | 	mov	local17, local16
02f88     A6 6A 01 FD | 	qmul	local17, local02
02f8c     18 6C 61 FD | 	getqx	local18
02f90     B6 6E 01 F6 | 	mov	local19, local18
02f94     A5 6E 01 F1 | 	add	local19, local01
02f98     AD 6E 01 F1 | 	add	local19, local09
02f9c     B7 70 01 F6 | 	mov	local20, local19
02fa0     02 70 65 F0 | 	shl	local20, #2
02fa4     B8 66 01 F1 | 	add	local15, local20
02fa8     B3 72 01 FB | 	rdlong	local21, local15
02fac     FF FF 7F FF 
02fb0     00 73 05 F5 | 	and	local21, ##-256
02fb4     A7 74 01 F6 | 	mov	local22, local03
02fb8     AD 74 01 F1 | 	add	local22, local09
02fbc     BA 76 C1 FA | 	rdbyte	local23, local22
02fc0     BB 72 41 F5 | 	or	local21, local23
02fc4     69 78 01 FB | 	rdlong	local24, objptr
02fc8     94 D2 04 F1 | 	add	objptr, #148
02fcc     69 7A 01 FB | 	rdlong	local25, objptr
02fd0     94 D2 84 F1 | 	sub	objptr, #148
02fd4     BD 7C 01 F6 | 	mov	local26, local25
02fd8     A6 7C 01 FD | 	qmul	local26, local02
02fdc     18 7E 61 FD | 	getqx	local27
02fe0     BF 80 01 F6 | 	mov	local28, local27
02fe4     A5 80 01 F1 | 	add	local28, local01
02fe8     AD 80 01 F1 | 	add	local28, local09
02fec     C0 82 01 F6 | 	mov	local29, local28
02ff0     02 82 65 F0 | 	shl	local29, #2
02ff4     C1 78 01 F1 | 	add	local24, local29
02ff8     BC 72 61 FC | 	wrlong	local21, local24
02ffc                 | '   long[buf_ptr+4*(cpl*y+x+iii)]:=(long[buf_ptr+4*(cpl*y+x+iii)] & $0000FFFF)  | c
02ffc     69 66 01 FB | 	rdlong	local15, objptr
03000     94 D2 04 F1 | 	add	objptr, #148
03004     69 68 01 FB | 	rdlong	local16, objptr
03008     94 D2 84 F1 | 	sub	objptr, #148
0300c     B4 6A 01 F6 | 	mov	local17, local16
03010     A6 6A 01 FD | 	qmul	local17, local02
03014     18 6C 61 FD | 	getqx	local18
03018     B6 6E 01 F6 | 	mov	local19, local18
0301c     A5 6E 01 F1 | 	add	local19, local01
03020     AD 6E 01 F1 | 	add	local19, local09
03024     B7 70 01 F6 | 	mov	local20, local19
03028     02 70 65 F0 | 	shl	local20, #2
0302c     B8 66 01 F1 | 	add	local15, local20
03030     B3 72 01 FB | 	rdlong	local21, local15
03034     7F 00 00 FF 
03038     FF 73 05 F5 | 	and	local21, ##65535
0303c     AC 72 41 F5 | 	or	local21, local08
03040     69 74 01 FB | 	rdlong	local22, objptr
03044     94 D2 04 F1 | 	add	objptr, #148
03048     69 7E 01 FB | 	rdlong	local27, objptr
0304c     94 D2 84 F1 | 	sub	objptr, #148
03050     BF 80 01 F6 | 	mov	local28, local27
03054     A6 80 01 FD | 	qmul	local28, local02
03058     18 78 61 FD | 	getqx	local24
0305c     BC 76 01 F6 | 	mov	local23, local24
03060     A5 76 01 F1 | 	add	local23, local01
03064     AD 76 01 F1 | 	add	local23, local09
03068     BB 7C 01 F6 | 	mov	local26, local23
0306c     02 7C 65 F0 | 	shl	local26, #2
03070     BE 74 01 F1 | 	add	local22, local26
03074     BA 72 61 FC | 	wrlong	local21, local22
03078     AD 72 01 F6 | 	mov	local21, local09
0307c     B1 72 01 F1 | 	add	local21, local13
03080     B9 5A 01 F6 | 	mov	local09, local21
03084     AF 5A 09 F2 | 	cmp	local09, local11 wz
03088     E8 FE 9F 5D |  if_ne	jmp	#LR__0133
0308c     37 F0 03 F6 | 	mov	ptra, fp
03090     4B 00 A0 FD | 	call	#popregs_
03094                 | _outtextxyc_ret
03094     2D 00 64 FD | 	ret
03098                 | 
03098                 | ' 
03098                 | ' ''---------- Output a char at the cursor position, move the cursor
03098                 | ' 
03098                 | ' pub putchar(achar) | c,x,y
03098                 | _putchar
03098     12 6A 04 F6 | 	mov	COUNT_, #18
0309c     3C 00 A0 FD | 	call	#pushregs_
030a0     93 4A 01 F6 | 	mov	local01, arg01
030a4                 | ' 
030a4                 | ' x:=cursor_x
030a4     38 D2 04 F1 | 	add	objptr, #56
030a8     69 4C C1 FA | 	rdbyte	local02, objptr
030ac     38 D2 84 F1 | 	sub	objptr, #56
030b0     A6 4E 01 F6 | 	mov	local03, local02
030b4                 | ' y:=cursor_y
030b4     39 D2 04 F1 | 	add	objptr, #57
030b8     69 4C C1 FA | 	rdbyte	local02, objptr
030bc     39 D2 84 F1 | 	sub	objptr, #57
030c0     A6 50 01 F6 | 	mov	local04, local02
030c4                 | ' c:=write_color<<24+write_background<<16
030c4     3C D2 04 F1 | 	add	objptr, #60
030c8     69 52 01 FB | 	rdlong	local05, objptr
030cc     3C D2 84 F1 | 	sub	objptr, #60
030d0     A9 4C 01 F6 | 	mov	local02, local05
030d4     18 4C 65 F0 | 	shl	local02, #24
030d8     40 D2 04 F1 | 	add	objptr, #64
030dc     69 54 01 FB | 	rdlong	local06, objptr
030e0     40 D2 84 F1 | 	sub	objptr, #64
030e4     AA 56 01 F6 | 	mov	local07, local06
030e8     10 56 65 F0 | 	shl	local07, #16
030ec     AB 4C 01 F1 | 	add	local02, local07
030f0     A6 58 01 F6 | 	mov	local08, local02
030f4                 | ' long[buf_ptr+4*(cpl*y+x)]:=long[buf_ptr+4*(cpl*y+x)] &$FFFF | c
030f4     69 52 01 FB | 	rdlong	local05, objptr
030f8     94 D2 04 F1 | 	add	objptr, #148
030fc     69 5A 01 FB | 	rdlong	local09, objptr
03100     94 D2 84 F1 | 	sub	objptr, #148
03104     AD 5C 01 F6 | 	mov	local10, local09
03108     A8 5C 01 FD | 	qmul	local10, local04
0310c     18 54 61 FD | 	getqx	local06
03110     AA 56 01 F6 | 	mov	local07, local06
03114     A7 56 01 F1 | 	add	local07, local03
03118     AB 5E 01 F6 | 	mov	local11, local07
0311c     02 5E 65 F0 | 	shl	local11, #2
03120     AF 52 01 F1 | 	add	local05, local11
03124     A9 4C 01 FB | 	rdlong	local02, local05
03128     7F 00 00 FF 
0312c     FF 4D 05 F5 | 	and	local02, ##65535
03130     AC 4C 41 F5 | 	or	local02, local08
03134     69 60 01 FB | 	rdlong	local12, objptr
03138     94 D2 04 F1 | 	add	objptr, #148
0313c     69 62 01 FB | 	rdlong	local13, objptr
03140     94 D2 84 F1 | 	sub	objptr, #148
03144     B1 64 01 F6 | 	mov	local14, local13
03148     A8 64 01 FD | 	qmul	local14, local04
0314c     18 66 61 FD | 	getqx	local15
03150     B3 68 01 F6 | 	mov	local16, local15
03154     A7 68 01 F1 | 	add	local16, local03
03158     B4 6A 01 F6 | 	mov	local17, local16
0315c     02 6A 65 F0 | 	shl	local17, #2
03160     B5 60 01 F1 | 	add	local12, local17
03164     B0 4C 61 FC | 	wrlong	local02, local12
03168                 | ' long[buf_ptr+4*(cpl*y+x)]:=(long[buf_ptr+4*(cpl*y+x)] & $FFFFFF00)  |(achar & $000000FF)
03168     69 52 01 FB | 	rdlong	local05, objptr
0316c     94 D2 04 F1 | 	add	objptr, #148
03170     69 5A 01 FB | 	rdlong	local09, objptr
03174     94 D2 84 F1 | 	sub	objptr, #148
03178     AD 5C 01 F6 | 	mov	local10, local09
0317c     A8 5C 01 FD | 	qmul	local10, local04
03180     18 54 61 FD | 	getqx	local06
03184     AA 56 01 F6 | 	mov	local07, local06
03188     A7 56 01 F1 | 	add	local07, local03
0318c     AB 5E 01 F6 | 	mov	local11, local07
03190     02 5E 65 F0 | 	shl	local11, #2
03194     AF 52 01 F1 | 	add	local05, local11
03198     A9 4C 01 FB | 	rdlong	local02, local05
0319c     FF FF 7F FF 
031a0     00 4D 05 F5 | 	and	local02, ##-256
031a4     A5 60 01 F6 | 	mov	local12, local01
031a8     FF 60 05 F5 | 	and	local12, #255
031ac     B0 4C 41 F5 | 	or	local02, local12
031b0     69 68 01 FB | 	rdlong	local16, objptr
031b4     94 D2 04 F1 | 	add	objptr, #148
031b8     69 6A 01 FB | 	rdlong	local17, objptr
031bc     94 D2 84 F1 | 	sub	objptr, #148
031c0     B5 62 01 F6 | 	mov	local13, local17
031c4     A8 62 01 FD | 	qmul	local13, local04
031c8     18 64 61 FD | 	getqx	local14
031cc     B2 66 01 F6 | 	mov	local15, local14
031d0     A7 66 01 F1 | 	add	local15, local03
031d4     B3 6C 01 F6 | 	mov	local18, local15
031d8     02 6C 65 F0 | 	shl	local18, #2
031dc     B6 68 01 F1 | 	add	local16, local18
031e0     B4 4C 61 FC | 	wrlong	local02, local16
031e4                 | ' cursor_x+=1
031e4     38 D2 04 F1 | 	add	objptr, #56
031e8     69 52 C1 FA | 	rdbyte	local05, objptr
031ec     38 D2 84 F1 | 	sub	objptr, #56
031f0     A9 4C 01 F6 | 	mov	local02, local05
031f4     01 4C 05 F1 | 	add	local02, #1
031f8     38 D2 04 F1 | 	add	objptr, #56
031fc     69 4C 41 FC | 	wrbyte	local02, objptr
03200     38 D2 84 F1 | 	sub	objptr, #56
03204                 | ' if cursor_x==cpl
03204     38 D2 04 F1 | 	add	objptr, #56
03208     69 52 C1 FA | 	rdbyte	local05, objptr
0320c     38 D2 84 F1 | 	sub	objptr, #56
03210     A9 4C 01 F6 | 	mov	local02, local05
03214     94 D2 04 F1 | 	add	objptr, #148
03218     69 54 01 FB | 	rdlong	local06, objptr
0321c     94 D2 84 F1 | 	sub	objptr, #148
03220     AA 56 01 F6 | 	mov	local07, local06
03224     AB 4C 09 F2 | 	cmp	local02, local07 wz
03228     80 00 90 5D |  if_ne	jmp	#LR__0135
0322c                 | '   cursor_x:=0
0322c     00 4C 05 F6 | 	mov	local02, #0
03230     38 D2 04 F1 | 	add	objptr, #56
03234     69 4C 41 FC | 	wrbyte	local02, objptr
03238     38 D2 84 F1 | 	sub	objptr, #56
0323c                 | '   cursor_y+=1
0323c     39 D2 04 F1 | 	add	objptr, #57
03240     69 52 C1 FA | 	rdbyte	local05, objptr
03244     39 D2 84 F1 | 	sub	objptr, #57
03248     A9 4C 01 F6 | 	mov	local02, local05
0324c     01 4C 05 F1 | 	add	local02, #1
03250     39 D2 04 F1 | 	add	objptr, #57
03254     69 4C 41 FC | 	wrbyte	local02, objptr
03258     39 D2 84 F1 | 	sub	objptr, #57
0325c                 | '   if cursor_y>lines-1
0325c     98 D2 04 F1 | 	add	objptr, #152
03260     69 52 01 FB | 	rdlong	local05, objptr
03264     98 D2 84 F1 | 	sub	objptr, #152
03268     A9 4C 01 F6 | 	mov	local02, local05
0326c     01 4C 85 F1 | 	sub	local02, #1
03270     39 D2 04 F1 | 	add	objptr, #57
03274     69 54 C1 FA | 	rdbyte	local06, objptr
03278     39 D2 84 F1 | 	sub	objptr, #57
0327c     AA 56 01 F6 | 	mov	local07, local06
03280     A6 56 59 F2 | 	cmps	local07, local02 wcz
03284     24 00 90 ED |  if_be	jmp	#LR__0134
03288                 | '     scrollup()
03288     4C 03 B0 FD | 	call	#_scrollup
0328c                 | '     cursor_y:=lines-1
0328c     98 D2 04 F1 | 	add	objptr, #152
03290     69 52 01 FB | 	rdlong	local05, objptr
03294     98 D2 84 F1 | 	sub	objptr, #152
03298     A9 4C 01 F6 | 	mov	local02, local05
0329c     01 4C 85 F1 | 	sub	local02, #1
032a0     39 D2 04 F1 | 	add	objptr, #57
032a4     69 4C 41 FC | 	wrbyte	local02, objptr
032a8     39 D2 84 F1 | 	sub	objptr, #57
032ac                 | LR__0134
032ac                 | LR__0135
032ac     37 F0 03 F6 | 	mov	ptra, fp
032b0     4B 00 A0 FD | 	call	#popregs_
032b4                 | _putchar_ret
032b4     2D 00 64 FD | 	ret
032b8                 | 
032b8                 | ' 
032b8                 | ' ''--------- Output a string at the cursor position, move the cursor
032b8                 | ' 
032b8                 | ' pub write(text) | iii,c,ncx,ncy
032b8                 | _write
032b8     21 6A 04 F6 | 	mov	COUNT_, #33
032bc     3C 00 A0 FD | 	call	#pushregs_
032c0     93 4A 01 F6 | 	mov	local01, arg01
032c4                 | ' 
032c4                 | ' c:=write_color<<24+write_background<<16
032c4     3C D2 04 F1 | 	add	objptr, #60
032c8     69 4C 01 FB | 	rdlong	local02, objptr
032cc     3C D2 84 F1 | 	sub	objptr, #60
032d0     A6 4E 01 F6 | 	mov	local03, local02
032d4     18 4E 65 F0 | 	shl	local03, #24
032d8     40 D2 04 F1 | 	add	objptr, #64
032dc     69 50 01 FB | 	rdlong	local04, objptr
032e0     40 D2 84 F1 | 	sub	objptr, #64
032e4     A8 52 01 F6 | 	mov	local05, local04
032e8     10 52 65 F0 | 	shl	local05, #16
032ec     A9 4E 01 F1 | 	add	local03, local05
032f0     A7 54 01 F6 | 	mov	local06, local03
032f4                 | ' 'debug(uhex_long(write_color))
032f4                 | ' ncy:=cursor_y
032f4     39 D2 04 F1 | 	add	objptr, #57
032f8     69 4E C1 FA | 	rdbyte	local03, objptr
032fc     39 D2 84 F1 | 	sub	objptr, #57
03300     A7 56 01 F6 | 	mov	local07, local03
03304                 | ' ncx:=cursor_x+strsize(text)
03304     38 D2 04 F1 | 	add	objptr, #56
03308     69 4C C1 FA | 	rdbyte	local02, objptr
0330c     38 D2 84 F1 | 	sub	objptr, #56
03310     A6 4E 01 F6 | 	mov	local03, local02
03314     A5 52 01 F6 | 	mov	local05, local01
03318     A9 26 01 F6 | 	mov	arg01, local05
0331c     88 1B B0 FD | 	call	#__system____builtin_strlen
03320     6D 50 01 F6 | 	mov	local04, result1
03324     A8 4E 01 F1 | 	add	local03, local04
03328     A7 58 01 F6 | 	mov	local08, local03
0332c                 | ' repeat while ncx>cpl-1
0332c                 | LR__0136
0332c     94 D2 04 F1 | 	add	objptr, #148
03330     69 4C 01 FB | 	rdlong	local02, objptr
03334     94 D2 84 F1 | 	sub	objptr, #148
03338     A6 4E 01 F6 | 	mov	local03, local02
0333c     01 4E 85 F1 | 	sub	local03, #1
03340     A7 58 59 F2 | 	cmps	local08, local03 wcz
03344     2C 00 90 ED |  if_be	jmp	#LR__0137
03348                 | '   ncx-=cpl
03348     AC 4E 01 F6 | 	mov	local03, local08
0334c     94 D2 04 F1 | 	add	objptr, #148
03350     69 52 01 FB | 	rdlong	local05, objptr
03354     94 D2 84 F1 | 	sub	objptr, #148
03358     A9 4C 01 F6 | 	mov	local02, local05
0335c     A6 4E 81 F1 | 	sub	local03, local02
03360     A7 58 01 F6 | 	mov	local08, local03
03364                 | '   ncy+=1
03364     AB 4E 01 F6 | 	mov	local03, local07
03368     01 4E 05 F1 | 	add	local03, #1
0336c     A7 56 01 F6 | 	mov	local07, local03
03370     B8 FF 9F FD | 	jmp	#LR__0136
03374                 | LR__0137
03374                 | ' repeat while ncy>lines-1
03374                 | LR__0138
03374     98 D2 04 F1 | 	add	objptr, #152
03378     69 4C 01 FB | 	rdlong	local02, objptr
0337c     98 D2 84 F1 | 	sub	objptr, #152
03380     A6 4E 01 F6 | 	mov	local03, local02
03384     01 4E 85 F1 | 	sub	local03, #1
03388     A7 56 59 F2 | 	cmps	local07, local03 wcz
0338c     34 00 90 ED |  if_be	jmp	#LR__0139
03390                 | '   ncy-=1
03390     AB 4E 01 F6 | 	mov	local03, local07
03394     01 4E 85 F1 | 	sub	local03, #1
03398     A7 56 01 F6 | 	mov	local07, local03
0339c                 | '   scrollup()
0339c     38 02 B0 FD | 	call	#_scrollup
033a0                 | '   cursor_y-=1
033a0     39 D2 04 F1 | 	add	objptr, #57
033a4     69 4C C1 FA | 	rdbyte	local02, objptr
033a8     39 D2 84 F1 | 	sub	objptr, #57
033ac     A6 4E 01 F6 | 	mov	local03, local02
033b0     01 4E 85 F1 | 	sub	local03, #1
033b4     39 D2 04 F1 | 	add	objptr, #57
033b8     69 4E 41 FC | 	wrbyte	local03, objptr
033bc     39 D2 84 F1 | 	sub	objptr, #57
033c0     B0 FF 9F FD | 	jmp	#LR__0138
033c4                 | LR__0139
033c4                 | ' 
033c4                 | ' repeat iii from 0 to strsize(text)-1
033c4     00 5A 05 F6 | 	mov	local09, #0
033c8     A5 4C 01 F6 | 	mov	local02, local01
033cc     A6 26 01 F6 | 	mov	arg01, local02
033d0     D4 1A B0 FD | 	call	#__system____builtin_strlen
033d4     6D 52 01 F6 | 	mov	local05, result1
033d8     A9 4E 01 F6 | 	mov	local03, local05
033dc     01 4E 85 F1 | 	sub	local03, #1
033e0     A7 5C 01 F6 | 	mov	local10, local03
033e4     00 5C 5D F2 | 	cmps	local10, #0 wcz
033e8     08 00 90 ED |  if_be	jmp	#LR__0140
033ec     01 50 05 F6 | 	mov	local04, #1
033f0     08 00 90 FD | 	jmp	#LR__0141
033f4                 | LR__0140
033f4     FF FF 7F FF 
033f8     FF 51 05 F6 | 	mov	local04, ##-1
033fc                 | LR__0141
033fc     A8 5E 01 F6 | 	mov	local11, local04
03400     AE 60 01 F6 | 	mov	local12, local10
03404     AF 60 01 F1 | 	add	local12, local11
03408     B0 5C 01 F6 | 	mov	local10, local12
0340c                 | LR__0142
0340c                 | ' 
0340c                 | '   long[buf_ptr+4*(cpl*cursor_y+cursor_x+iii)]:=long[buf_ptr+4*(cpl*cursor_y+cursor_x+iii)] &$FFFF | c
0340c     69 62 01 FB | 	rdlong	local13, objptr
03410     94 D2 04 F1 | 	add	objptr, #148
03414     69 64 01 FB | 	rdlong	local14, objptr
03418     94 D2 84 F1 | 	sub	objptr, #148
0341c     B2 66 01 F6 | 	mov	local15, local14
03420     39 D2 04 F1 | 	add	objptr, #57
03424     69 68 C1 FA | 	rdbyte	local16, objptr
03428     39 D2 84 F1 | 	sub	objptr, #57
0342c     B4 6A 01 F6 | 	mov	local17, local16
03430     B5 66 01 FD | 	qmul	local15, local17
03434     18 6C 61 FD | 	getqx	local18
03438     B6 6E 01 F6 | 	mov	local19, local18
0343c     38 D2 04 F1 | 	add	objptr, #56
03440     69 70 C1 FA | 	rdbyte	local20, objptr
03444     38 D2 84 F1 | 	sub	objptr, #56
03448     B8 72 01 F6 | 	mov	local21, local20
0344c     B9 6E 01 F1 | 	add	local19, local21
03450     AD 6E 01 F1 | 	add	local19, local09
03454     B7 74 01 F6 | 	mov	local22, local19
03458     02 74 65 F0 | 	shl	local22, #2
0345c     BA 62 01 F1 | 	add	local13, local22
03460     B1 76 01 FB | 	rdlong	local23, local13
03464     7F 00 00 FF 
03468     FF 77 05 F5 | 	and	local23, ##65535
0346c     AA 76 41 F5 | 	or	local23, local06
03470     69 78 01 FB | 	rdlong	local24, objptr
03474     94 D2 04 F1 | 	add	objptr, #148
03478     69 7A 01 FB | 	rdlong	local25, objptr
0347c     94 D2 84 F1 | 	sub	objptr, #148
03480     BD 7C 01 F6 | 	mov	local26, local25
03484     39 D2 04 F1 | 	add	objptr, #57
03488     69 7E C1 FA | 	rdbyte	local27, objptr
0348c     39 D2 84 F1 | 	sub	objptr, #57
03490     BF 80 01 F6 | 	mov	local28, local27
03494     C0 7C 01 FD | 	qmul	local26, local28
03498     18 82 61 FD | 	getqx	local29
0349c     C1 84 01 F6 | 	mov	local30, local29
034a0     38 D2 04 F1 | 	add	objptr, #56
034a4     69 86 C1 FA | 	rdbyte	local31, objptr
034a8     38 D2 84 F1 | 	sub	objptr, #56
034ac     C3 88 01 F6 | 	mov	local32, local31
034b0     C4 84 01 F1 | 	add	local30, local32
034b4     AD 84 01 F1 | 	add	local30, local09
034b8     C2 8A 01 F6 | 	mov	local33, local30
034bc     02 8A 65 F0 | 	shl	local33, #2
034c0     C5 78 01 F1 | 	add	local24, local33
034c4     BC 76 61 FC | 	wrlong	local23, local24
034c8     AD 76 01 F6 | 	mov	local23, local09
034cc     AF 76 01 F1 | 	add	local23, local11
034d0     BB 5A 01 F6 | 	mov	local09, local23
034d4     AE 5A 09 F2 | 	cmp	local09, local10 wz
034d8     30 FF 9F 5D |  if_ne	jmp	#LR__0142
034dc                 | ' 
034dc                 | ' outtextxy(cursor_x,cursor_y,text)
034dc     38 D2 04 F1 | 	add	objptr, #56
034e0     69 4C C1 FA | 	rdbyte	local02, objptr
034e4     38 D2 84 F1 | 	sub	objptr, #56
034e8     A6 4E 01 F6 | 	mov	local03, local02
034ec     39 D2 04 F1 | 	add	objptr, #57
034f0     69 50 C1 FA | 	rdbyte	local04, objptr
034f4     39 D2 84 F1 | 	sub	objptr, #57
034f8     A8 52 01 F6 | 	mov	local05, local04
034fc     A5 60 01 F6 | 	mov	local12, local01
03500     A7 26 01 F6 | 	mov	arg01, local03
03504     A9 28 01 F6 | 	mov	arg02, local05
03508     B0 2A 01 F6 | 	mov	arg03, local12
0350c     E4 F8 BF FD | 	call	#_outtextxy
03510                 | ' 
03510                 | ' cursor_x:=ncx
03510     38 D2 04 F1 | 	add	objptr, #56
03514     69 58 41 FC | 	wrbyte	local08, objptr
03518     38 D2 84 F1 | 	sub	objptr, #56
0351c                 | ' cursor_y:=ncy
0351c     39 D2 04 F1 | 	add	objptr, #57
03520     69 56 41 FC | 	wrbyte	local07, objptr
03524     39 D2 84 F1 | 	sub	objptr, #57
03528     37 F0 03 F6 | 	mov	ptra, fp
0352c     4B 00 A0 FD | 	call	#popregs_
03530                 | _write_ret
03530     2D 00 64 FD | 	ret
03534                 | 
03534                 | ' 
03534                 | ' '--------- Output a string at the cursor position x,y, move the cursor to the next line
03534                 | ' 
03534                 | ' pub writeln(text)
03534                 | _writeln
03534     05 6A 04 F6 | 	mov	COUNT_, #5
03538     3C 00 A0 FD | 	call	#pushregs_
0353c     93 4A 01 F6 | 	mov	local01, arg01
03540                 | ' 
03540                 | ' write(text)
03540     A5 4C 01 F6 | 	mov	local02, local01
03544     A6 26 01 F6 | 	mov	arg01, local02
03548     6C FD BF FD | 	call	#_write
0354c                 | ' cursor_x:=0
0354c     00 4C 05 F6 | 	mov	local02, #0
03550     38 D2 04 F1 | 	add	objptr, #56
03554     69 4C 41 FC | 	wrbyte	local02, objptr
03558     38 D2 84 F1 | 	sub	objptr, #56
0355c                 | ' cursor_y+=1
0355c     39 D2 04 F1 | 	add	objptr, #57
03560     69 4E C1 FA | 	rdbyte	local03, objptr
03564     39 D2 84 F1 | 	sub	objptr, #57
03568     A7 4C 01 F6 | 	mov	local02, local03
0356c     01 4C 05 F1 | 	add	local02, #1
03570     39 D2 04 F1 | 	add	objptr, #57
03574     69 4C 41 FC | 	wrbyte	local02, objptr
03578     39 D2 84 F1 | 	sub	objptr, #57
0357c                 | ' if (cursor_y>lines-1)
0357c     98 D2 04 F1 | 	add	objptr, #152
03580     69 4E 01 FB | 	rdlong	local03, objptr
03584     98 D2 84 F1 | 	sub	objptr, #152
03588     A7 4C 01 F6 | 	mov	local02, local03
0358c     01 4C 85 F1 | 	sub	local02, #1
03590     39 D2 04 F1 | 	add	objptr, #57
03594     69 50 C1 FA | 	rdbyte	local04, objptr
03598     39 D2 84 F1 | 	sub	objptr, #57
0359c     A8 52 01 F6 | 	mov	local05, local04
035a0     A6 52 59 F2 | 	cmps	local05, local02 wcz
035a4     24 00 90 ED |  if_be	jmp	#LR__0143
035a8                 | '   scrollup()
035a8     2C 00 B0 FD | 	call	#_scrollup
035ac                 | '   cursor_y:=lines-1
035ac     98 D2 04 F1 | 	add	objptr, #152
035b0     69 4E 01 FB | 	rdlong	local03, objptr
035b4     98 D2 84 F1 | 	sub	objptr, #152
035b8     A7 4C 01 F6 | 	mov	local02, local03
035bc     01 4C 85 F1 | 	sub	local02, #1
035c0     39 D2 04 F1 | 	add	objptr, #57
035c4     69 4C 41 FC | 	wrbyte	local02, objptr
035c8     39 D2 84 F1 | 	sub	objptr, #57
035cc                 | LR__0143
035cc     37 F0 03 F6 | 	mov	ptra, fp
035d0     4B 00 A0 FD | 	call	#popregs_
035d4                 | _writeln_ret
035d4     2D 00 64 FD | 	ret
035d8                 | 
035d8                 | ' 
035d8                 | ' ''-----------  Scroll the screen one line up
035d8                 | ' 
035d8                 | ' pub scrollup() | i
035d8                 | _scrollup
035d8     14 6A 04 F6 | 	mov	COUNT_, #20
035dc     3C 00 A0 FD | 	call	#pushregs_
035e0                 | ' 
035e0                 | ' longmove(buf_ptr,buf_ptr+4*cpl,buflen-cpl)
035e0     69 4A 01 FB | 	rdlong	local01, objptr
035e4     69 4C 01 FB | 	rdlong	local02, objptr
035e8     94 D2 04 F1 | 	add	objptr, #148
035ec     69 4E 01 FB | 	rdlong	local03, objptr
035f0     94 D2 84 F1 | 	sub	objptr, #148
035f4     A7 50 01 F6 | 	mov	local04, local03
035f8     A8 52 01 F6 | 	mov	local05, local04
035fc     02 52 65 F0 | 	shl	local05, #2
03600     A9 4C 01 F1 | 	add	local02, local05
03604     A6 54 01 F6 | 	mov	local06, local02
03608     34 D2 04 F1 | 	add	objptr, #52
0360c     69 56 01 FB | 	rdlong	local07, objptr
03610     34 D2 84 F1 | 	sub	objptr, #52
03614     AB 58 01 F6 | 	mov	local08, local07
03618     94 D2 04 F1 | 	add	objptr, #148
0361c     69 5A 01 FB | 	rdlong	local09, objptr
03620     94 D2 84 F1 | 	sub	objptr, #148
03624     AD 5C 01 F6 | 	mov	local10, local09
03628     AE 58 81 F1 | 	sub	local08, local10
0362c     AC 5E 01 F6 | 	mov	local11, local08
03630     A5 26 01 F6 | 	mov	arg01, local01
03634     AA 28 01 F6 | 	mov	arg02, local06
03638     AF 2A 01 F6 | 	mov	arg03, local11
0363c     9C 17 B0 FD | 	call	#__system__longmove
03640     6D 60 01 F6 | 	mov	local12, result1
03644                 | ' repeat i from buflen-cpl to buflen-1
03644     34 D2 04 F1 | 	add	objptr, #52
03648     69 4C 01 FB | 	rdlong	local02, objptr
0364c     34 D2 84 F1 | 	sub	objptr, #52
03650     A6 4A 01 F6 | 	mov	local01, local02
03654     94 D2 04 F1 | 	add	objptr, #148
03658     69 50 01 FB | 	rdlong	local04, objptr
0365c     94 D2 84 F1 | 	sub	objptr, #148
03660     A8 52 01 F6 | 	mov	local05, local04
03664     A9 4A 81 F1 | 	sub	local01, local05
03668     A5 62 01 F6 | 	mov	local13, local01
0366c     34 D2 04 F1 | 	add	objptr, #52
03670     69 54 01 FB | 	rdlong	local06, objptr
03674     34 D2 84 F1 | 	sub	objptr, #52
03678     AA 4E 01 F6 | 	mov	local03, local06
0367c     01 4E 85 F1 | 	sub	local03, #1
03680     A7 64 01 F6 | 	mov	local14, local03
03684     34 D2 04 F1 | 	add	objptr, #52
03688     69 5C 01 FB | 	rdlong	local10, objptr
0368c     34 D2 84 F1 | 	sub	objptr, #52
03690     AE 56 01 F6 | 	mov	local07, local10
03694     94 D2 04 F1 | 	add	objptr, #148
03698     69 5E 01 FB | 	rdlong	local11, objptr
0369c     94 D2 84 F1 | 	sub	objptr, #148
036a0     AF 5A 01 F6 | 	mov	local09, local11
036a4     AD 56 81 F1 | 	sub	local07, local09
036a8     AB 64 59 F2 | 	cmps	local14, local07 wcz
036ac     08 00 90 ED |  if_be	jmp	#LR__0144
036b0     01 58 05 F6 | 	mov	local08, #1
036b4     08 00 90 FD | 	jmp	#LR__0145
036b8                 | LR__0144
036b8     FF FF 7F FF 
036bc     FF 59 05 F6 | 	mov	local08, ##-1
036c0                 | LR__0145
036c0     AC 66 01 F6 | 	mov	local15, local08
036c4     B2 60 01 F6 | 	mov	local12, local14
036c8     B3 60 01 F1 | 	add	local12, local15
036cc     B0 64 01 F6 | 	mov	local14, local12
036d0                 | LR__0146
036d0                 | '   long[buf_ptr+4*i]:=(long[buf_ptr+4*i] & $FFFF0000) | 32
036d0     69 68 01 FB | 	rdlong	local16, objptr
036d4     B1 6A 01 F6 | 	mov	local17, local13
036d8     02 6A 65 F0 | 	shl	local17, #2
036dc     B5 68 01 F1 | 	add	local16, local17
036e0     B4 6C 01 FB | 	rdlong	local18, local16
036e4     80 FF 7F FF 
036e8     00 6C 05 F5 | 	and	local18, ##-65536
036ec     20 6C 45 F5 | 	or	local18, #32
036f0     69 6E 01 FB | 	rdlong	local19, objptr
036f4     B1 70 01 F6 | 	mov	local20, local13
036f8     02 70 65 F0 | 	shl	local20, #2
036fc     B8 6E 01 F1 | 	add	local19, local20
03700     B7 6C 61 FC | 	wrlong	local18, local19
03704     B1 6C 01 F6 | 	mov	local18, local13
03708     B3 6C 01 F1 | 	add	local18, local15
0370c     B6 62 01 F6 | 	mov	local13, local18
03710     B2 62 09 F2 | 	cmp	local13, local14 wz
03714     B8 FF 9F 5D |  if_ne	jmp	#LR__0146
03718     37 F0 03 F6 | 	mov	ptra, fp
0371c     4B 00 A0 FD | 	call	#popregs_
03720                 | _scrollup_ret
03720     2D 00 64 FD | 	ret
03724                 | 
03724                 | ' 
03724                 | ' ''----------- Scroll the screen one line down
03724                 | ' 
03724                 | ' pub scrolldown() | i
03724                 | _scrolldown
03724     0F 6A 04 F6 | 	mov	COUNT_, #15
03728     3C 00 A0 FD | 	call	#pushregs_
0372c                 | ' 
0372c                 | ' longmove(buf_ptr+cpl*4,buf_ptr,buflen-cpl)
0372c     69 4A 01 FB | 	rdlong	local01, objptr
03730     94 D2 04 F1 | 	add	objptr, #148
03734     69 4C 01 FB | 	rdlong	local02, objptr
03738     94 D2 84 F1 | 	sub	objptr, #148
0373c     A6 4E 01 F6 | 	mov	local03, local02
03740     A7 50 01 F6 | 	mov	local04, local03
03744     02 50 65 F0 | 	shl	local04, #2
03748     A8 4A 01 F1 | 	add	local01, local04
0374c     A5 52 01 F6 | 	mov	local05, local01
03750     69 54 01 FB | 	rdlong	local06, objptr
03754     34 D2 04 F1 | 	add	objptr, #52
03758     69 56 01 FB | 	rdlong	local07, objptr
0375c     34 D2 84 F1 | 	sub	objptr, #52
03760     AB 58 01 F6 | 	mov	local08, local07
03764     94 D2 04 F1 | 	add	objptr, #148
03768     69 5A 01 FB | 	rdlong	local09, objptr
0376c     94 D2 84 F1 | 	sub	objptr, #148
03770     AD 5C 01 F6 | 	mov	local10, local09
03774     AE 58 81 F1 | 	sub	local08, local10
03778     AC 5E 01 F6 | 	mov	local11, local08
0377c     A9 26 01 F6 | 	mov	arg01, local05
03780     AA 28 01 F6 | 	mov	arg02, local06
03784     AF 2A 01 F6 | 	mov	arg03, local11
03788     50 16 B0 FD | 	call	#__system__longmove
0378c     6D 60 01 F6 | 	mov	local12, result1
03790                 | ' repeat i from 0 to cpl-1
03790     00 62 05 F6 | 	mov	local13, #0
03794     94 D2 04 F1 | 	add	objptr, #148
03798     69 50 01 FB | 	rdlong	local04, objptr
0379c     94 D2 84 F1 | 	sub	objptr, #148
037a0     A8 4A 01 F6 | 	mov	local01, local04
037a4     01 4A 85 F1 | 	sub	local01, #1
037a8     A5 64 01 F6 | 	mov	local14, local01
037ac     00 64 5D F2 | 	cmps	local14, #0 wcz
037b0     08 00 90 ED |  if_be	jmp	#LR__0147
037b4     01 4E 05 F6 | 	mov	local03, #1
037b8     08 00 90 FD | 	jmp	#LR__0148
037bc                 | LR__0147
037bc     FF FF 7F FF 
037c0     FF 4F 05 F6 | 	mov	local03, ##-1
037c4                 | LR__0148
037c4     A7 66 01 F6 | 	mov	local15, local03
037c8     B2 4C 01 F6 | 	mov	local02, local14
037cc     B3 4C 01 F1 | 	add	local02, local15
037d0     A6 64 01 F6 | 	mov	local14, local02
037d4                 | LR__0149
037d4                 | '   long[buf_ptr+4*i]:=(long[buf_ptr+4*i] & $FFFF0000) | 32
037d4     69 54 01 FB | 	rdlong	local06, objptr
037d8     B1 58 01 F6 | 	mov	local08, local13
037dc     02 58 65 F0 | 	shl	local08, #2
037e0     AC 54 01 F1 | 	add	local06, local08
037e4     AA 52 01 FB | 	rdlong	local05, local06
037e8     80 FF 7F FF 
037ec     00 52 05 F5 | 	and	local05, ##-65536
037f0     20 52 45 F5 | 	or	local05, #32
037f4     69 56 01 FB | 	rdlong	local07, objptr
037f8     B1 5C 01 F6 | 	mov	local10, local13
037fc     02 5C 65 F0 | 	shl	local10, #2
03800     AE 56 01 F1 | 	add	local07, local10
03804     AB 52 61 FC | 	wrlong	local05, local07
03808     B1 52 01 F6 | 	mov	local05, local13
0380c     B3 52 01 F1 | 	add	local05, local15
03810     A9 62 01 F6 | 	mov	local13, local05
03814     B2 62 09 F2 | 	cmp	local13, local14 wz
03818     B8 FF 9F 5D |  if_ne	jmp	#LR__0149
0381c     37 F0 03 F6 | 	mov	ptra, fp
03820     4B 00 A0 FD | 	call	#popregs_
03824                 | _scrolldown_ret
03824     2D 00 64 FD | 	ret
03828                 | 
03828                 | ' 
03828                 | ' ''----------- Set cursor at the first character in a new line, scroll if needed
03828                 | ' 
03828                 | ' pub crlf()
03828                 | _crlf
03828     04 6A 04 F6 | 	mov	COUNT_, #4
0382c     3C 00 A0 FD | 	call	#pushregs_
03830                 | ' 
03830                 | ' cursor_x:=0
03830     00 4A 05 F6 | 	mov	local01, #0
03834     38 D2 04 F1 | 	add	objptr, #56
03838     69 4A 41 FC | 	wrbyte	local01, objptr
0383c     38 D2 84 F1 | 	sub	objptr, #56
03840                 | ' cursor_y+=1
03840     39 D2 04 F1 | 	add	objptr, #57
03844     69 4C C1 FA | 	rdbyte	local02, objptr
03848     39 D2 84 F1 | 	sub	objptr, #57
0384c     A6 4A 01 F6 | 	mov	local01, local02
03850     01 4A 05 F1 | 	add	local01, #1
03854     39 D2 04 F1 | 	add	objptr, #57
03858     69 4A 41 FC | 	wrbyte	local01, objptr
0385c     39 D2 84 F1 | 	sub	objptr, #57
03860                 | ' if cursor_y>lines-1
03860     98 D2 04 F1 | 	add	objptr, #152
03864     69 4C 01 FB | 	rdlong	local02, objptr
03868     98 D2 84 F1 | 	sub	objptr, #152
0386c     A6 4A 01 F6 | 	mov	local01, local02
03870     01 4A 85 F1 | 	sub	local01, #1
03874     39 D2 04 F1 | 	add	objptr, #57
03878     69 4E C1 FA | 	rdbyte	local03, objptr
0387c     39 D2 84 F1 | 	sub	objptr, #57
03880     A7 50 01 F6 | 	mov	local04, local03
03884     A5 50 59 F2 | 	cmps	local04, local01 wcz
03888     24 00 90 ED |  if_be	jmp	#LR__0150
0388c                 | '   scrollup()
0388c     48 FD BF FD | 	call	#_scrollup
03890                 | '   cursor_y:=lines-1
03890     98 D2 04 F1 | 	add	objptr, #152
03894     69 4C 01 FB | 	rdlong	local02, objptr
03898     98 D2 84 F1 | 	sub	objptr, #152
0389c     A6 4A 01 F6 | 	mov	local01, local02
038a0     01 4A 85 F1 | 	sub	local01, #1
038a4     39 D2 04 F1 | 	add	objptr, #57
038a8     69 4A 41 FC | 	wrbyte	local01, objptr
038ac     39 D2 84 F1 | 	sub	objptr, #57
038b0                 | LR__0150
038b0     37 F0 03 F6 | 	mov	ptra, fp
038b4     4B 00 A0 FD | 	call	#popregs_
038b8                 | _crlf_ret
038b8     2D 00 64 FD | 	ret
038bc                 | 
038bc                 | ' 
038bc                 | ' ''---------- Backspace. Move the cursor back, clear a character
038bc                 | ' 
038bc                 | ' pub bksp()
038bc                 | _bksp
038bc     06 6A 04 F6 | 	mov	COUNT_, #6
038c0     3C 00 A0 FD | 	call	#pushregs_
038c4                 | ' 
038c4                 | ' cursor_x-=1
038c4     38 D2 04 F1 | 	add	objptr, #56
038c8     69 4A C1 FA | 	rdbyte	local01, objptr
038cc     38 D2 84 F1 | 	sub	objptr, #56
038d0     A5 4C 01 F6 | 	mov	local02, local01
038d4     01 4C 85 F1 | 	sub	local02, #1
038d8     38 D2 04 F1 | 	add	objptr, #56
038dc     69 4C 41 FC | 	wrbyte	local02, objptr
038e0     38 D2 84 F1 | 	sub	objptr, #56
038e4                 | ' if cursor_x==255
038e4     38 D2 04 F1 | 	add	objptr, #56
038e8     69 4A C1 FA | 	rdbyte	local01, objptr
038ec     38 D2 84 F1 | 	sub	objptr, #56
038f0     A5 4C 01 F6 | 	mov	local02, local01
038f4     FF 4C 0D F2 | 	cmp	local02, #255 wz
038f8     6C 00 90 5D |  if_ne	jmp	#LR__0152
038fc                 | '   cursor_x:=cpl-1
038fc     94 D2 04 F1 | 	add	objptr, #148
03900     69 4A 01 FB | 	rdlong	local01, objptr
03904     94 D2 84 F1 | 	sub	objptr, #148
03908     A5 4C 01 F6 | 	mov	local02, local01
0390c     01 4C 85 F1 | 	sub	local02, #1
03910     38 D2 04 F1 | 	add	objptr, #56
03914     69 4C 41 FC | 	wrbyte	local02, objptr
03918     38 D2 84 F1 | 	sub	objptr, #56
0391c                 | '   cursor_y-=1
0391c     39 D2 04 F1 | 	add	objptr, #57
03920     69 4A C1 FA | 	rdbyte	local01, objptr
03924     39 D2 84 F1 | 	sub	objptr, #57
03928     A5 4C 01 F6 | 	mov	local02, local01
0392c     01 4C 85 F1 | 	sub	local02, #1
03930     39 D2 04 F1 | 	add	objptr, #57
03934     69 4C 41 FC | 	wrbyte	local02, objptr
03938     39 D2 84 F1 | 	sub	objptr, #57
0393c                 | '   if cursor_y==255
0393c     39 D2 04 F1 | 	add	objptr, #57
03940     69 4A C1 FA | 	rdbyte	local01, objptr
03944     39 D2 84 F1 | 	sub	objptr, #57
03948     A5 4C 01 F6 | 	mov	local02, local01
0394c     FF 4C 0D F2 | 	cmp	local02, #255 wz
03950     14 00 90 5D |  if_ne	jmp	#LR__0151
03954                 | '     cursor_y:=0
03954     00 4C 05 F6 | 	mov	local02, #0
03958     39 D2 04 F1 | 	add	objptr, #57
0395c     69 4C 41 FC | 	wrbyte	local02, objptr
03960     39 D2 84 F1 | 	sub	objptr, #57
03964                 | '     scrollup()
03964     70 FC BF FD | 	call	#_scrollup
03968                 | LR__0151
03968                 | LR__0152
03968                 | ' 
03968                 | ' outtextxy(cursor_x,cursor_y,string(" "))
03968     38 D2 04 F1 | 	add	objptr, #56
0396c     69 4A C1 FA | 	rdbyte	local01, objptr
03970     38 D2 84 F1 | 	sub	objptr, #56
03974     A5 4C 01 F6 | 	mov	local02, local01
03978     39 D2 04 F1 | 	add	objptr, #57
0397c     69 4E C1 FA | 	rdbyte	local03, objptr
03980     39 D2 84 F1 | 	sub	objptr, #57
03984     A7 50 01 F6 | 	mov	local04, local03
03988     28 00 00 FF 
0398c     74 52 05 F6 | 	mov	local05, ##@LR__0289
03990     A9 54 01 F6 | 	mov	local06, local05
03994     A6 26 01 F6 | 	mov	arg01, local02
03998     A8 28 01 F6 | 	mov	arg02, local04
0399c     AA 2A 01 F6 | 	mov	arg03, local06
039a0     50 F4 BF FD | 	call	#_outtextxy
039a4     37 F0 03 F6 | 	mov	ptra, fp
039a8     4B 00 A0 FD | 	call	#popregs_
039ac                 | _bksp_ret
039ac     2D 00 64 FD | 	ret
039b0                 | 
039b0                 | ' 
039b0                 | ' 
039b0                 | ' '*************************************************************************
039b0                 | ' '                                                                        *
039b0                 | ' '  Conversions                                                           *
039b0                 | ' '                                                                        *
039b0                 | ' '*************************************************************************
039b0                 | ' 
039b0                 | ' ''---------- Convert a integer to dec string, return a pointer
039b0                 | ' 
039b0                 | ' pub inttostr(i):result |q,pos,k,j
039b0                 | _inttostr
039b0     0D 6A 04 F6 | 	mov	COUNT_, #13
039b4     3C 00 A0 FD | 	call	#pushregs_
039b8     93 4A 01 F6 | 	mov	local01, arg01
039bc     00 4C 05 F6 | 	mov	local02, #0
039c0                 | ' 
039c0                 | ' j:=i
039c0     A5 4E 01 F6 | 	mov	local03, local01
039c4                 | ' pos:=10
039c4     0A 50 05 F6 | 	mov	local04, #10
039c8                 | ' k:=0
039c8     00 52 05 F6 | 	mov	local05, #0
039cc                 | ' 
039cc                 | ' if (j==0)
039cc     00 4E 0D F2 | 	cmp	local03, #0 wz
039d0     24 00 90 5D |  if_ne	jmp	#LR__0153
039d4                 | '   n_string[0]:=48
039d4     30 54 05 F6 | 	mov	local06, #48
039d8     48 D2 04 F1 | 	add	objptr, #72
039dc     69 54 41 FC | 	wrbyte	local06, objptr
039e0     48 D2 84 F1 | 	sub	objptr, #72
039e4                 | '   n_string[1]:=0
039e4     00 54 05 F6 | 	mov	local06, #0
039e8     49 D2 04 F1 | 	add	objptr, #73
039ec     69 54 41 FC | 	wrbyte	local06, objptr
039f0     49 D2 84 F1 | 	sub	objptr, #73
039f4                 | ' 
039f4                 | ' else
039f4     34 01 90 FD | 	jmp	#LR__0160
039f8                 | LR__0153
039f8                 | '   if (j<0)
039f8     00 4E 5D F2 | 	cmps	local03, #0 wcz
039fc     10 00 90 3D |  if_ae	jmp	#LR__0154
03a00                 | '     j:=0-j
03a00     00 54 05 F6 | 	mov	local06, #0
03a04     A7 54 81 F1 | 	sub	local06, local03
03a08     AA 4E 01 F6 | 	mov	local03, local06
03a0c                 | '     k:=45
03a0c     2D 52 05 F6 | 	mov	local05, #45
03a10                 | LR__0154
03a10                 | ' 
03a10                 | '   n_string[11]:=0
03a10     00 54 05 F6 | 	mov	local06, #0
03a14     53 D2 04 F1 | 	add	objptr, #83
03a18     69 54 41 FC | 	wrbyte	local06, objptr
03a1c     53 D2 84 F1 | 	sub	objptr, #83
03a20                 | '   repeat while (pos>-1)
03a20                 | LR__0155
03a20     FF FF 7F FF 
03a24     FF 51 5D F2 | 	cmps	local04, ##-1 wcz
03a28     50 00 90 ED |  if_be	jmp	#LR__0156
03a2c                 | '     q:=j//10
03a2c     A7 8C 01 F6 | 	mov	muldiva_, local03
03a30     0A 8E 05 F6 | 	mov	muldivb_, #10
03a34     5C 00 A0 FD | 	call	#divide_
03a38     C6 54 01 F6 | 	mov	local06, muldiva_
03a3c     AA 56 01 F6 | 	mov	local07, local06
03a40                 | '     q:=48+q
03a40     30 54 05 F6 | 	mov	local06, #48
03a44     AB 54 01 F1 | 	add	local06, local07
03a48     AA 56 01 F6 | 	mov	local07, local06
03a4c                 | '     n_string[pos]:=q
03a4c     A8 54 01 F6 | 	mov	local06, local04
03a50     48 D2 04 F1 | 	add	objptr, #72
03a54     69 58 01 F6 | 	mov	local08, objptr
03a58     48 D2 84 F1 | 	sub	objptr, #72
03a5c     AC 54 01 F1 | 	add	local06, local08
03a60     AA 56 41 FC | 	wrbyte	local07, local06
03a64                 | '     j:=j/10
03a64     C7 54 01 F6 | 	mov	local06, muldivb_
03a68     AA 4E 01 F6 | 	mov	local03, local06
03a6c                 | '     pos-=1
03a6c     A8 54 01 F6 | 	mov	local06, local04
03a70     01 54 85 F1 | 	sub	local06, #1
03a74     AA 50 01 F6 | 	mov	local04, local06
03a78     A4 FF 9F FD | 	jmp	#LR__0155
03a7c                 | LR__0156
03a7c                 | '   repeat while n_string[0]==48
03a7c                 | LR__0157
03a7c     48 D2 04 F1 | 	add	objptr, #72
03a80     69 58 C1 FA | 	rdbyte	local08, objptr
03a84     48 D2 84 F1 | 	sub	objptr, #72
03a88     AC 54 01 F6 | 	mov	local06, local08
03a8c     30 54 0D F2 | 	cmp	local06, #48 wz
03a90     44 00 90 5D |  if_ne	jmp	#LR__0158
03a94                 | '     bytemove(@n_string,@n_string+1,12)
03a94     48 D2 04 F1 | 	add	objptr, #72
03a98     69 54 01 F6 | 	mov	local06, objptr
03a9c     48 D2 84 F1 | 	sub	objptr, #72
03aa0     AA 58 01 F6 | 	mov	local08, local06
03aa4     48 D2 04 F1 | 	add	objptr, #72
03aa8     69 5A 01 F6 | 	mov	local09, objptr
03aac     48 D2 84 F1 | 	sub	objptr, #72
03ab0     AD 5C 01 F6 | 	mov	local10, local09
03ab4     01 5C 05 F1 | 	add	local10, #1
03ab8     AE 5E 01 F6 | 	mov	local11, local10
03abc     0C 60 05 F6 | 	mov	local12, #12
03ac0     AC 26 01 F6 | 	mov	arg01, local08
03ac4     AF 28 01 F6 | 	mov	arg02, local11
03ac8     B0 2A 01 F6 | 	mov	arg03, local12
03acc     DC 11 B0 FD | 	call	#__system__bytemove
03ad0     6D 62 01 F6 | 	mov	local13, result1
03ad4     A4 FF 9F FD | 	jmp	#LR__0157
03ad8                 | LR__0158
03ad8                 | ' 
03ad8                 | '   if k==45
03ad8     2D 52 0D F2 | 	cmp	local05, #45 wz
03adc     4C 00 90 5D |  if_ne	jmp	#LR__0159
03ae0                 | '      bytemove(@n_string+1,@n_string,12)
03ae0     48 D2 04 F1 | 	add	objptr, #72
03ae4     69 58 01 F6 | 	mov	local08, objptr
03ae8     48 D2 84 F1 | 	sub	objptr, #72
03aec     AC 54 01 F6 | 	mov	local06, local08
03af0     01 54 05 F1 | 	add	local06, #1
03af4     AA 5C 01 F6 | 	mov	local10, local06
03af8     48 D2 04 F1 | 	add	objptr, #72
03afc     69 5A 01 F6 | 	mov	local09, objptr
03b00     48 D2 84 F1 | 	sub	objptr, #72
03b04     AD 5E 01 F6 | 	mov	local11, local09
03b08     0C 60 05 F6 | 	mov	local12, #12
03b0c     AE 26 01 F6 | 	mov	arg01, local10
03b10     AF 28 01 F6 | 	mov	arg02, local11
03b14     B0 2A 01 F6 | 	mov	arg03, local12
03b18     90 11 B0 FD | 	call	#__system__bytemove
03b1c     6D 62 01 F6 | 	mov	local13, result1
03b20                 | '      n_string[0]:=k
03b20     48 D2 04 F1 | 	add	objptr, #72
03b24     69 52 41 FC | 	wrbyte	local05, objptr
03b28     48 D2 84 F1 | 	sub	objptr, #72
03b2c                 | LR__0159
03b2c                 | LR__0160
03b2c                 | ' 
03b2c                 | ' q:=@n_string
03b2c     48 D2 04 F1 | 	add	objptr, #72
03b30     69 54 01 F6 | 	mov	local06, objptr
03b34     48 D2 84 F1 | 	sub	objptr, #72
03b38     AA 56 01 F6 | 	mov	local07, local06
03b3c                 | ' return q
03b3c     AB DA 00 F6 | 	mov	result1, local07
03b40     00 00 90 FD | 	jmp	#LR__0161
03b44                 | LR__0161
03b44     37 F0 03 F6 | 	mov	ptra, fp
03b48     4B 00 A0 FD | 	call	#popregs_
03b4c                 | _inttostr_ret
03b4c     2D 00 64 FD | 	ret
03b50                 | 
03b50                 | ' 
03b50                 | ' ''----------  Convert unsigned integer to hex string with d digits, return a pointer
03b50                 | ' 
03b50                 | ' pub inttohex(i,d):result |q,pos,k,j
03b50                 | _inttohex
03b50     93 DC 00 F6 | 	mov	_var01, arg01
03b54     94 DE 00 F6 | 	mov	_var02, arg02
03b58     00 E0 04 F6 | 	mov	_var03, #0
03b5c                 | ' 
03b5c                 | ' j:=i
03b5c     6E E2 00 F6 | 	mov	_var04, _var01
03b60                 | ' pos:=d-1
03b60     6F E4 00 F6 | 	mov	_var05, _var02
03b64     01 E4 84 F1 | 	sub	_var05, #1
03b68     72 E6 00 F6 | 	mov	_var06, _var05
03b6c                 | ' k:=0
03b6c     00 E8 04 F6 | 	mov	_var07, #0
03b70                 | ' n_string[d]:=0
03b70     6F E4 00 F6 | 	mov	_var05, _var02
03b74     48 D2 04 F1 | 	add	objptr, #72
03b78     69 EA 00 F6 | 	mov	_var08, objptr
03b7c     48 D2 84 F1 | 	sub	objptr, #72
03b80     75 E4 00 F1 | 	add	_var05, _var08
03b84     00 EC 04 F6 | 	mov	_var09, #0
03b88     72 EC 40 FC | 	wrbyte	_var09, _var05
03b8c                 | ' repeat k from 0 to d-1
03b8c     00 E8 04 F6 | 	mov	_var07, #0
03b90     6F E4 00 F6 | 	mov	_var05, _var02
03b94     01 E4 84 F1 | 	sub	_var05, #1
03b98     72 EE 00 F6 | 	mov	_var10, _var05
03b9c     00 EE 5C F2 | 	cmps	_var10, #0 wcz
03ba0     08 00 90 ED |  if_be	jmp	#LR__0162
03ba4     01 EA 04 F6 | 	mov	_var08, #1
03ba8     08 00 90 FD | 	jmp	#LR__0163
03bac                 | LR__0162
03bac     FF FF 7F FF 
03bb0     FF EB 04 F6 | 	mov	_var08, ##-1
03bb4                 | LR__0163
03bb4     75 F0 00 F6 | 	mov	_var11, _var08
03bb8     77 EC 00 F6 | 	mov	_var09, _var10
03bbc     78 EC 00 F1 | 	add	_var09, _var11
03bc0     76 EE 00 F6 | 	mov	_var10, _var09
03bc4                 | LR__0164
03bc4                 | '   n_string[k]:=48
03bc4     74 F2 00 F6 | 	mov	_var12, _var07
03bc8     48 D2 04 F1 | 	add	objptr, #72
03bcc     69 F4 00 F6 | 	mov	_var13, objptr
03bd0     48 D2 84 F1 | 	sub	objptr, #72
03bd4     7A F2 00 F1 | 	add	_var12, _var13
03bd8     30 F6 04 F6 | 	mov	_var14, #48
03bdc     79 F6 40 FC | 	wrbyte	_var14, _var12
03be0                 | LR__0165
03be0     74 F2 00 F6 | 	mov	_var12, _var07
03be4     78 F2 00 F1 | 	add	_var12, _var11
03be8     79 E8 00 F6 | 	mov	_var07, _var12
03bec     77 E8 08 F2 | 	cmp	_var07, _var10 wz
03bf0     D0 FF 9F 5D |  if_ne	jmp	#LR__0164
03bf4                 | LR__0166
03bf4                 | ' if (j<>0)
03bf4     00 E2 0C F2 | 	cmp	_var04, #0 wz
03bf8     6C 00 90 AD |  if_e	jmp	#LR__0170
03bfc                 | ' 
03bfc                 | '   repeat while (pos>-1)
03bfc                 | LR__0167
03bfc     FF FF 7F FF 
03c00     FF E7 5C F2 | 	cmps	_var06, ##-1 wcz
03c04     60 00 90 ED |  if_be	jmp	#LR__0169
03c08                 | '     q:=j+//16
03c08     71 E4 00 F6 | 	mov	_var05, _var04
03c0c     0F E4 04 F5 | 	and	_var05, #15
03c10     72 F8 00 F6 | 	mov	_var15, _var05
03c14                 | '     if (q>9)
03c14     09 F8 5C F2 | 	cmps	_var15, #9 wcz
03c18     0C 00 90 ED |  if_be	jmp	#LR__0168
03c1c                 | '       q:=q+7
03c1c     7C E4 00 F6 | 	mov	_var05, _var15
03c20     07 E4 04 F1 | 	add	_var05, #7
03c24     72 F8 00 F6 | 	mov	_var15, _var05
03c28                 | LR__0168
03c28                 | '     q:=48+q
03c28     30 E4 04 F6 | 	mov	_var05, #48
03c2c     7C E4 00 F1 | 	add	_var05, _var15
03c30     72 F8 00 F6 | 	mov	_var15, _var05
03c34                 | '     n_string[pos]:=q
03c34     73 E4 00 F6 | 	mov	_var05, _var06
03c38     48 D2 04 F1 | 	add	objptr, #72
03c3c     69 EA 00 F6 | 	mov	_var08, objptr
03c40     48 D2 84 F1 | 	sub	objptr, #72
03c44     75 E4 00 F1 | 	add	_var05, _var08
03c48     72 F8 40 FC | 	wrbyte	_var15, _var05
03c4c                 | '     j:=j+/16
03c4c     71 E4 00 F6 | 	mov	_var05, _var04
03c50     04 E4 44 F0 | 	shr	_var05, #4
03c54     72 E2 00 F6 | 	mov	_var04, _var05
03c58                 | '     pos-=1
03c58     73 E4 00 F6 | 	mov	_var05, _var06
03c5c     01 E4 84 F1 | 	sub	_var05, #1
03c60     72 E6 00 F6 | 	mov	_var06, _var05
03c64     94 FF 9F FD | 	jmp	#LR__0167
03c68                 | LR__0169
03c68                 | LR__0170
03c68                 | ' 
03c68                 | ' q:=@n_string
03c68     48 D2 04 F1 | 	add	objptr, #72
03c6c     69 E4 00 F6 | 	mov	_var05, objptr
03c70     48 D2 84 F1 | 	sub	objptr, #72
03c74     72 F8 00 F6 | 	mov	_var15, _var05
03c78                 | ' return q
03c78     7C DA 00 F6 | 	mov	result1, _var15
03c7c     00 00 90 FD | 	jmp	#_inttohex_ret
03c80                 | _inttohex_ret
03c80     2D 00 64 FD | 	ret
03c84                 | 
03c84                 | ' 
03c84                 | ' 
03c84                 | ' 
03c84                 | ' '*************************************************************************
03c84                 | ' '                                                                        *
03c84                 | ' '  Mode setting and driver start                                                          *
03c84                 | ' '                                                                        *
03c84                 | ' '*************************************************************************
03c84                 | ' 
03c84                 | ' ''---------  Set the graphics mode
03c84                 | ' 
03c84                 | ' pub setmode(mode) | i', 'xzoom, yzoom, azoom
03c84                 | _setmode
03c84     0A 6A 04 F6 | 	mov	COUNT_, #10
03c88     3C 00 A0 FD | 	call	#pushregs_
03c8c     93 4A 01 F6 | 	mov	local01, arg01
03c90                 | ' 
03c90                 | ' '' mode:tn_bb_cc_vv_hh
03c90                 | ' '' hh - h.zoom, vv-v.zoom, cc-c.depth,
03c90                 | ' '' bb - borders/total pixels, 00-wide/1140, 01 medium/1026, 10 narrow/912, 11 no border, 1024 px PAL, 880 px NTSC
03c90                 | ' 
03c90                 | ' case_fast (mode>>6) & 7 ' timings are the same for graphic and text
03c90     A5 4C 01 F6 | 	mov	local02, local01
03c94     06 4C 45 F0 | 	shr	local02, #6
03c98     07 4C 05 F5 | 	and	local02, #7
03c9c     08 4C 25 F3 | 	fle	local02, #8
03ca0     A6 4E 01 F6 | 	mov	local03, local02
03ca4     30 4E 61 FD | 	jmprel	local03
03ca8                 | LR__0171
03ca8     20 00 90 FD | 	jmp	#LR__0172
03cac     60 00 90 FD | 	jmp	#LR__0173
03cb0     A0 00 90 FD | 	jmp	#LR__0174
03cb4     E0 00 90 FD | 	jmp	#LR__0175
03cb8     20 01 90 FD | 	jmp	#LR__0176
03cbc     60 01 90 FD | 	jmp	#LR__0177
03cc0     A0 01 90 FD | 	jmp	#LR__0178
03cc4     E0 01 90 FD | 	jmp	#LR__0179
03cc8     20 02 90 FD | 	jmp	#LR__0180
03ccc                 | LR__0172
03ccc                 | '                               
03ccc                 | '     0:  longmove(@timings,@timings000,16)   'PAL 50 Hz signaling 1140x624, active 800x480, 100x30 text, wide border, 2 colors per pixel, 00_00_00_00_00=0, 354_693_878 Hz
03ccc     54 D2 04 F1 | 	add	objptr, #84
03cd0     69 50 01 F6 | 	mov	local04, objptr
03cd4     54 D2 84 F1 | 	sub	objptr, #84
03cd8     A8 52 01 F6 | 	mov	local05, local04
03cdc     0E 00 00 FF 
03ce0     58 D6 04 F1 | 	add	ptr__dat__, ##7256
03ce4     6B 54 01 F6 | 	mov	local06, ptr__dat__
03ce8     0E 00 00 FF 
03cec     58 D6 84 F1 | 	sub	ptr__dat__, ##7256
03cf0     AA 56 01 F6 | 	mov	local07, local06
03cf4     10 58 05 F6 | 	mov	local08, #16
03cf8     A9 26 01 F6 | 	mov	arg01, local05
03cfc     AB 28 01 F6 | 	mov	arg02, local07
03d00     AC 2A 01 F6 | 	mov	arg03, local08
03d04     D4 10 B0 FD | 	call	#__system__longmove
03d08     6D 5A 01 F6 | 	mov	local09, result1
03d0c     DC 01 90 FD | 	jmp	#LR__0180
03d10                 | LR__0173
03d10                 | '     1:  longmove(@timings,@timings064,16)   'PAL 50 Hz signaling 1026x624, active 880x496, 110x31 text, medium border, 2 colors per pixel 00_01_00_00_00=64, 319_215_686 Hz
03d10     54 D2 04 F1 | 	add	objptr, #84
03d14     69 50 01 F6 | 	mov	local04, objptr
03d18     54 D2 84 F1 | 	sub	objptr, #84
03d1c     A8 52 01 F6 | 	mov	local05, local04
03d20     0E 00 00 FF 
03d24     98 D6 04 F1 | 	add	ptr__dat__, ##7320
03d28     6B 54 01 F6 | 	mov	local06, ptr__dat__
03d2c     0E 00 00 FF 
03d30     98 D6 84 F1 | 	sub	ptr__dat__, ##7320
03d34     AA 56 01 F6 | 	mov	local07, local06
03d38     10 58 05 F6 | 	mov	local08, #16
03d3c     A9 26 01 F6 | 	mov	arg01, local05
03d40     AB 28 01 F6 | 	mov	arg02, local07
03d44     AC 2A 01 F6 | 	mov	arg03, local08
03d48     90 10 B0 FD | 	call	#__system__longmove
03d4c     6D 5A 01 F6 | 	mov	local09, result1
03d50     98 01 90 FD | 	jmp	#LR__0180
03d54                 | LR__0174
03d54                 | '     2:  longmove(@timings,@timings128,16)   'PAL 50 Hz signaling 912x624, active 800x480, 100x30 text, medium border, 2 colors per pixel 00_10_00_00_00=64, 283750000z
03d54     54 D2 04 F1 | 	add	objptr, #84
03d58     69 50 01 F6 | 	mov	local04, objptr
03d5c     54 D2 84 F1 | 	sub	objptr, #84
03d60     A8 52 01 F6 | 	mov	local05, local04
03d64     0E 00 00 FF 
03d68     D8 D6 04 F1 | 	add	ptr__dat__, ##7384
03d6c     6B 54 01 F6 | 	mov	local06, ptr__dat__
03d70     0E 00 00 FF 
03d74     D8 D6 84 F1 | 	sub	ptr__dat__, ##7384
03d78     AA 56 01 F6 | 	mov	local07, local06
03d7c     10 58 05 F6 | 	mov	local08, #16
03d80     A9 26 01 F6 | 	mov	arg01, local05
03d84     AB 28 01 F6 | 	mov	arg02, local07
03d88     AC 2A 01 F6 | 	mov	arg03, local08
03d8c     4C 10 B0 FD | 	call	#__system__longmove
03d90     6D 5A 01 F6 | 	mov	local09, result1
03d94     54 01 90 FD | 	jmp	#LR__0180
03d98                 | LR__0175
03d98                 | '     3:  longmove(@timings,@timings192,16)   'PAL 50 Hz signaling 1140x624, active 1024x576, 128x36 text, borderless, 2 colors per pixel 00_11_00_00_00=6192, 354_693_878 Hz
03d98     54 D2 04 F1 | 	add	objptr, #84
03d9c     69 50 01 F6 | 	mov	local04, objptr
03da0     54 D2 84 F1 | 	sub	objptr, #84
03da4     A8 52 01 F6 | 	mov	local05, local04
03da8     0E 00 00 FF 
03dac     18 D7 04 F1 | 	add	ptr__dat__, ##7448
03db0     6B 54 01 F6 | 	mov	local06, ptr__dat__
03db4     0E 00 00 FF 
03db8     18 D7 84 F1 | 	sub	ptr__dat__, ##7448
03dbc     AA 56 01 F6 | 	mov	local07, local06
03dc0     10 58 05 F6 | 	mov	local08, #16
03dc4     A9 26 01 F6 | 	mov	arg01, local05
03dc8     AB 28 01 F6 | 	mov	arg02, local07
03dcc     AC 2A 01 F6 | 	mov	arg03, local08
03dd0     08 10 B0 FD | 	call	#__system__longmove
03dd4     6D 5A 01 F6 | 	mov	local09, result1
03dd8     10 01 90 FD | 	jmp	#LR__0180
03ddc                 | LR__0176
03ddc                 | '     4:  longmove(@timings,@timings256,16)   'NTSC 50 Hz signaling 1140x524, active 800x480, 100x30 text, NO PLACE FOR wide border, 2 colors per pixel, 01_00_00_00_00=256, 357959184 Hz
03ddc     54 D2 04 F1 | 	add	objptr, #84
03de0     69 50 01 F6 | 	mov	local04, objptr
03de4     54 D2 84 F1 | 	sub	objptr, #84
03de8     A8 52 01 F6 | 	mov	local05, local04
03dec     0E 00 00 FF 
03df0     58 D7 04 F1 | 	add	ptr__dat__, ##7512
03df4     6B 54 01 F6 | 	mov	local06, ptr__dat__
03df8     0E 00 00 FF 
03dfc     58 D7 84 F1 | 	sub	ptr__dat__, ##7512
03e00     AA 56 01 F6 | 	mov	local07, local06
03e04     10 58 05 F6 | 	mov	local08, #16
03e08     A9 26 01 F6 | 	mov	arg01, local05
03e0c     AB 28 01 F6 | 	mov	arg02, local07
03e10     AC 2A 01 F6 | 	mov	arg03, local08
03e14     C4 0F B0 FD | 	call	#__system__longmove
03e18     6D 5A 01 F6 | 	mov	local09, result1
03e1c     CC 00 90 FD | 	jmp	#LR__0180
03e20                 | LR__0177
03e20                 | '     5:  longmove(@timings,@timings320,16)   'NTSC 50 Hz signaling 1026x524, active 800x480, 100x30 text, NO PLACE FOR wide border, 2 colors per pixel, 01_01_00_00_00=320, 322162162 Hz
03e20     54 D2 04 F1 | 	add	objptr, #84
03e24     69 50 01 F6 | 	mov	local04, objptr
03e28     54 D2 84 F1 | 	sub	objptr, #84
03e2c     A8 52 01 F6 | 	mov	local05, local04
03e30     0E 00 00 FF 
03e34     98 D7 04 F1 | 	add	ptr__dat__, ##7576
03e38     6B 54 01 F6 | 	mov	local06, ptr__dat__
03e3c     0E 00 00 FF 
03e40     98 D7 84 F1 | 	sub	ptr__dat__, ##7576
03e44     AA 56 01 F6 | 	mov	local07, local06
03e48     10 58 05 F6 | 	mov	local08, #16
03e4c     A9 26 01 F6 | 	mov	arg01, local05
03e50     AB 28 01 F6 | 	mov	arg02, local07
03e54     AC 2A 01 F6 | 	mov	arg03, local08
03e58     80 0F B0 FD | 	call	#__system__longmove
03e5c     6D 5A 01 F6 | 	mov	local09, result1
03e60     88 00 90 FD | 	jmp	#LR__0180
03e64                 | LR__0178
03e64                 | '     6:  longmove(@timings,@timings384,16)   'NTSC 50 Hz signaling 912x524, active 800x480, 100x30 text, NO PLACE FOR wide border, 2 colors per pixel, 01_10_00_00_00=384, 286363636 Hz
03e64     54 D2 04 F1 | 	add	objptr, #84
03e68     69 50 01 F6 | 	mov	local04, objptr
03e6c     54 D2 84 F1 | 	sub	objptr, #84
03e70     A8 52 01 F6 | 	mov	local05, local04
03e74     0E 00 00 FF 
03e78     D8 D7 04 F1 | 	add	ptr__dat__, ##7640
03e7c     6B 54 01 F6 | 	mov	local06, ptr__dat__
03e80     0E 00 00 FF 
03e84     D8 D7 84 F1 | 	sub	ptr__dat__, ##7640
03e88     AA 56 01 F6 | 	mov	local07, local06
03e8c     10 58 05 F6 | 	mov	local08, #16
03e90     A9 26 01 F6 | 	mov	arg01, local05
03e94     AB 28 01 F6 | 	mov	arg02, local07
03e98     AC 2A 01 F6 | 	mov	arg03, local08
03e9c     3C 0F B0 FD | 	call	#__system__longmove
03ea0     6D 5A 01 F6 | 	mov	local09, result1
03ea4     44 00 90 FD | 	jmp	#LR__0180
03ea8                 | LR__0179
03ea8                 | '     7:  longmove(@timings,@timings448,16)   'NTSC 50 Hz signaling 1026x524, active 880x496, 110x31 text, borderless, 2 colors per pixel, 01_11_00_00_00=496, 322162162 Hz
03ea8     54 D2 04 F1 | 	add	objptr, #84
03eac     69 50 01 F6 | 	mov	local04, objptr
03eb0     54 D2 84 F1 | 	sub	objptr, #84
03eb4     A8 52 01 F6 | 	mov	local05, local04
03eb8     0F 00 00 FF 
03ebc     18 D6 04 F1 | 	add	ptr__dat__, ##7704
03ec0     6B 54 01 F6 | 	mov	local06, ptr__dat__
03ec4     0F 00 00 FF 
03ec8     18 D6 84 F1 | 	sub	ptr__dat__, ##7704
03ecc     AA 56 01 F6 | 	mov	local07, local06
03ed0     10 58 05 F6 | 	mov	local08, #16
03ed4     A9 26 01 F6 | 	mov	arg01, local05
03ed8     AB 28 01 F6 | 	mov	arg02, local07
03edc     AC 2A 01 F6 | 	mov	arg03, local08
03ee0     F8 0E B0 FD | 	call	#__system__longmove
03ee4     6D 5A 01 F6 | 	mov	local09, result1
03ee8     00 00 90 FD | 	jmp	#LR__0180
03eec                 | LR__0180
03eec                 | ' 
03eec                 | ' ' 4-bit graphics: do nothing with timings :) 
03eec                 | ' 
03eec                 | ' if (mode & (%10_00_11_0000))==(%10_00_11_0000) ' 8bit graphics, 4 pixels per long instead of 8, cpp x2 
03eec     A5 4C 01 F6 | 	mov	local02, local01
03ef0     01 00 00 FF 
03ef4     30 4C 05 F5 | 	and	local02, ##560
03ef8     01 00 00 FF 
03efc     30 4C 0D F2 | 	cmp	local02, ##560 wz
03f00     30 00 90 5D |  if_ne	jmp	#LR__0181
03f04                 | '   timings[5]:=4
03f04     04 4C 05 F6 | 	mov	local02, #4
03f08     68 D2 04 F1 | 	add	objptr, #104
03f0c     69 4C 61 FC | 	wrlong	local02, objptr
03f10     68 D2 84 F1 | 	sub	objptr, #104
03f14                 | '   timings[11]:=timings[11]<<1
03f14     80 D2 04 F1 | 	add	objptr, #128
03f18     69 50 01 FB | 	rdlong	local04, objptr
03f1c     80 D2 84 F1 | 	sub	objptr, #128
03f20     A8 4C 01 F6 | 	mov	local02, local04
03f24     01 4C 65 F0 | 	shl	local02, #1
03f28     80 D2 04 F1 | 	add	objptr, #128
03f2c     69 4C 61 FC | 	wrlong	local02, objptr
03f30     80 D2 84 F1 | 	sub	objptr, #128
03f34                 | LR__0181
03f34                 | '   
03f34                 | ' if (mode & (%10_00_11_0000))==(%10_00_01_0000) ' 2bit graphics, 16 pixels per long instead of 8, cpp /2 
03f34     A5 4C 01 F6 | 	mov	local02, local01
03f38     01 00 00 FF 
03f3c     30 4C 05 F5 | 	and	local02, ##560
03f40     01 00 00 FF 
03f44     10 4C 0D F2 | 	cmp	local02, ##528 wz
03f48     30 00 90 5D |  if_ne	jmp	#LR__0182
03f4c                 | '   timings[5]:=16
03f4c     10 4C 05 F6 | 	mov	local02, #16
03f50     68 D2 04 F1 | 	add	objptr, #104
03f54     69 4C 61 FC | 	wrlong	local02, objptr
03f58     68 D2 84 F1 | 	sub	objptr, #104
03f5c                 | '   timings[11]:=timings[11]>>1
03f5c     80 D2 04 F1 | 	add	objptr, #128
03f60     69 50 01 FB | 	rdlong	local04, objptr
03f64     80 D2 84 F1 | 	sub	objptr, #128
03f68     A8 4C 01 F6 | 	mov	local02, local04
03f6c     01 4C 45 F0 | 	shr	local02, #1
03f70     80 D2 04 F1 | 	add	objptr, #128
03f74     69 4C 61 FC | 	wrlong	local02, objptr
03f78     80 D2 84 F1 | 	sub	objptr, #128
03f7c                 | LR__0182
03f7c                 | '   
03f7c                 | '   
03f7c                 | ' if (mode & (%10_00_11_0000))==(%10_00_00_0000) ' 1bit graphics, 32 pixels per long instead of 8, cpp /4 
03f7c     A5 4C 01 F6 | 	mov	local02, local01
03f80     01 00 00 FF 
03f84     30 4C 05 F5 | 	and	local02, ##560
03f88     01 00 00 FF 
03f8c     00 4C 0D F2 | 	cmp	local02, ##512 wz
03f90     30 00 90 5D |  if_ne	jmp	#LR__0183
03f94                 | '   timings[5]:=32
03f94     20 4C 05 F6 | 	mov	local02, #32
03f98     68 D2 04 F1 | 	add	objptr, #104
03f9c     69 4C 61 FC | 	wrlong	local02, objptr
03fa0     68 D2 84 F1 | 	sub	objptr, #104
03fa4                 | '   timings[11]:=timings[11]>>2
03fa4     80 D2 04 F1 | 	add	objptr, #128
03fa8     69 50 01 FB | 	rdlong	local04, objptr
03fac     80 D2 84 F1 | 	sub	objptr, #128
03fb0     A8 4C 01 F6 | 	mov	local02, local04
03fb4     02 4C 45 F0 | 	shr	local02, #2
03fb8     80 D2 04 F1 | 	add	objptr, #128
03fbc     69 4C 61 FC | 	wrlong	local02, objptr
03fc0     80 D2 84 F1 | 	sub	objptr, #128
03fc4                 | LR__0183
03fc4                 | ' 
03fc4                 | ' 
03fc4                 | ' repeat i from 0 to 4
03fc4     00 5C 05 F6 | 	mov	local10, #0
03fc8                 | LR__0184
03fc8                 | '   timings[i]:=timings[i]+hdmibase<<17+ timingsxxt
03fc8     AE 50 01 F6 | 	mov	local04, local10
03fcc     02 50 65 F0 | 	shl	local04, #2
03fd0     54 D2 04 F1 | 	add	objptr, #84
03fd4     69 52 01 F6 | 	mov	local05, objptr
03fd8     54 D2 84 F1 | 	sub	objptr, #84
03fdc     A9 50 01 F1 | 	add	local04, local05
03fe0     28 D2 04 F1 | 	add	objptr, #40
03fe4     69 56 01 FB | 	rdlong	local07, objptr
03fe8     28 D2 84 F1 | 	sub	objptr, #40
03fec     AB 54 01 F6 | 	mov	local06, local07
03ff0     11 54 65 F0 | 	shl	local06, #17
03ff4     A8 4C 01 FB | 	rdlong	local02, local04
03ff8     AA 4C 01 F1 | 	add	local02, local06
03ffc     80 40 38 FF 
04000     00 4C 05 F1 | 	add	local02, ##1887502336
04004     AE 58 01 F6 | 	mov	local08, local10
04008     02 58 65 F0 | 	shl	local08, #2
0400c     54 D2 04 F1 | 	add	objptr, #84
04010     69 5A 01 F6 | 	mov	local09, objptr
04014     54 D2 84 F1 | 	sub	objptr, #84
04018     AD 58 01 F1 | 	add	local08, local09
0401c     AC 4C 61 FC | 	wrlong	local02, local08
04020     AE 4C 01 F6 | 	mov	local02, local10
04024     AE 50 01 F6 | 	mov	local04, local10
04028     01 50 05 F1 | 	add	local04, #1
0402c     A8 5C 01 F6 | 	mov	local10, local04
04030     05 5C 5D F2 | 	cmps	local10, #5 wcz
04034     90 FF 9F CD |  if_b	jmp	#LR__0184
04038                 | ' timings[5]:=timings[5]+hdmibase<<17  
04038     28 D2 04 F1 | 	add	objptr, #40
0403c     69 52 01 FB | 	rdlong	local05, objptr
04040     28 D2 84 F1 | 	sub	objptr, #40
04044     A9 50 01 F6 | 	mov	local04, local05
04048     11 50 65 F0 | 	shl	local04, #17
0404c     68 D2 04 F1 | 	add	objptr, #104
04050     69 54 01 FB | 	rdlong	local06, objptr
04054     68 D2 84 F1 | 	sub	objptr, #104
04058     AA 4C 01 F6 | 	mov	local02, local06
0405c     A8 4C 01 F1 | 	add	local02, local04
04060     68 D2 04 F1 | 	add	objptr, #104
04064     69 4C 61 FC | 	wrlong	local02, objptr
04068     68 D2 84 F1 | 	sub	objptr, #104
0406c                 | ' clkfreq:=timings[13]
0406c     88 D2 04 F1 | 	add	objptr, #136
04070     69 4C 01 FB | 	rdlong	local02, objptr
04074     88 D2 84 F1 | 	sub	objptr, #136
04078     14 4C 65 FC | 	wrlong	local02, #20
0407c                 | ' hubset(timings[14])
0407c     8C D2 04 F1 | 	add	objptr, #140
04080     69 50 01 FB | 	rdlong	local04, objptr
04084     8C D2 84 F1 | 	sub	objptr, #140
04088     A8 4C 01 F6 | 	mov	local02, local04
0408c     A6 26 01 F6 | 	mov	arg01, local02
04090     58 0B B0 FD | 	call	#__system___hubset
04094                 | ' waitms(1)
04094     01 4C 05 F6 | 	mov	local02, #1
04098     A6 26 01 F6 | 	mov	arg01, local02
0409c     50 0E B0 FD | 	call	#__system___waitms
040a0                 | ' 
040a0                 | '   
040a0                 | ' xzoom:=1<<(mode & 3)
040a0     A5 50 01 F6 | 	mov	local04, local01
040a4     03 50 05 F5 | 	and	local04, #3
040a8     01 4C 05 F6 | 	mov	local02, #1
040ac     A8 4C 61 F0 | 	shl	local02, local04
040b0     D4 D2 04 F1 | 	add	objptr, #212
040b4     69 4C 61 FC | 	wrlong	local02, objptr
040b8     D4 D2 84 F1 | 	sub	objptr, #212
040bc                 | ' if (xzoom==8) && (((mode>>4)&3)<>3)
040bc     D4 D2 04 F1 | 	add	objptr, #212
040c0     69 50 01 FB | 	rdlong	local04, objptr
040c4     D4 D2 84 F1 | 	sub	objptr, #212
040c8     A8 4C 01 F6 | 	mov	local02, local04
040cc     08 4C 0D F2 | 	cmp	local02, #8 wz
040d0     24 00 90 5D |  if_ne	jmp	#LR__0185
040d4     A5 52 01 F6 | 	mov	local05, local01
040d8     04 52 45 F0 | 	shr	local05, #4
040dc     03 52 05 F5 | 	and	local05, #3
040e0     03 52 0D F2 | 	cmp	local05, #3 wz
040e4     10 00 90 AD |  if_e	jmp	#LR__0185
040e8                 | '   xzoom:=4
040e8     04 4C 05 F6 | 	mov	local02, #4
040ec     D4 D2 04 F1 | 	add	objptr, #212
040f0     69 4C 61 FC | 	wrlong	local02, objptr
040f4     D4 D2 84 F1 | 	sub	objptr, #212
040f8                 | LR__0185
040f8                 | ' yzoom:=1<<((mode>>2) & 3)
040f8     A5 50 01 F6 | 	mov	local04, local01
040fc     02 50 45 F0 | 	shr	local04, #2
04100     03 50 05 F5 | 	and	local04, #3
04104     01 4C 05 F6 | 	mov	local02, #1
04108     A8 4C 61 F0 | 	shl	local02, local04
0410c     D8 D2 04 F1 | 	add	objptr, #216
04110     69 4C 61 FC | 	wrlong	local02, objptr
04114     D8 D2 84 F1 | 	sub	objptr, #216
04118                 | ' azoom:=xzoom*yzoom
04118     D4 D2 04 F1 | 	add	objptr, #212
0411c     69 52 01 FB | 	rdlong	local05, objptr
04120     D4 D2 84 F1 | 	sub	objptr, #212
04124     A9 50 01 F6 | 	mov	local04, local05
04128     D8 D2 04 F1 | 	add	objptr, #216
0412c     69 56 01 FB | 	rdlong	local07, objptr
04130     D8 D2 84 F1 | 	sub	objptr, #216
04134     AB 54 01 F6 | 	mov	local06, local07
04138     AA 50 01 FD | 	qmul	local04, local06
0413c     18 4C 61 FD | 	getqx	local02
04140     DC D2 04 F1 | 	add	objptr, #220
04144     69 4C 61 FC | 	wrlong	local02, objptr
04148     DC D2 84 F1 | 	sub	objptr, #220
0414c                 | '    
0414c                 | ' cpl:=timings[11]
0414c     80 D2 04 F1 | 	add	objptr, #128
04150     69 4C 01 FB | 	rdlong	local02, objptr
04154     80 D2 84 F1 | 	sub	objptr, #128
04158     94 D2 04 F1 | 	add	objptr, #148
0415c     69 4C 61 FC | 	wrlong	local02, objptr
04160     94 D2 84 F1 | 	sub	objptr, #148
04164                 | ' if (mode<512)
04164     01 00 00 FF 
04168     00 4A 5D F2 | 	cmps	local01, ##512 wcz
0416c     38 01 90 3D |  if_ae	jmp	#LR__0189
04170                 | '   lines:=(timings[12]>>4)+/yzoom
04170     84 D2 04 F1 | 	add	objptr, #132
04174     69 50 01 FB | 	rdlong	local04, objptr
04178     84 D2 84 F1 | 	sub	objptr, #132
0417c     A8 4C 01 F6 | 	mov	local02, local04
04180     04 4C 45 F0 | 	shr	local02, #4
04184     A6 8C 01 F6 | 	mov	muldiva_, local02
04188     D8 D2 04 F1 | 	add	objptr, #216
0418c     69 54 01 FB | 	rdlong	local06, objptr
04190     D8 D2 84 F1 | 	sub	objptr, #216
04194     AA 8E 01 F6 | 	mov	muldivb_, local06
04198     58 00 A0 FD | 	call	#unsdivide_
0419c     C7 52 01 F6 | 	mov	local05, muldivb_
041a0     98 D2 04 F1 | 	add	objptr, #152
041a4     69 52 61 FC | 	wrlong	local05, objptr
041a8     98 D2 84 F1 | 	sub	objptr, #152
041ac                 | '   if ((timings[12]>>4)+//yzoom) <>0
041ac     84 D2 04 F1 | 	add	objptr, #132
041b0     69 50 01 FB | 	rdlong	local04, objptr
041b4     84 D2 84 F1 | 	sub	objptr, #132
041b8     A8 4C 01 F6 | 	mov	local02, local04
041bc     04 4C 45 F0 | 	shr	local02, #4
041c0     A6 8C 01 F6 | 	mov	muldiva_, local02
041c4     D8 D2 04 F1 | 	add	objptr, #216
041c8     69 54 01 FB | 	rdlong	local06, objptr
041cc     D8 D2 84 F1 | 	sub	objptr, #216
041d0     AA 8E 01 F6 | 	mov	muldivb_, local06
041d4     58 00 A0 FD | 	call	#unsdivide_
041d8     C6 52 01 F6 | 	mov	local05, muldiva_
041dc     00 52 0D F2 | 	cmp	local05, #0 wz
041e0     20 00 90 AD |  if_e	jmp	#LR__0186
041e4                 | '     lines +=1
041e4     98 D2 04 F1 | 	add	objptr, #152
041e8     69 50 01 FB | 	rdlong	local04, objptr
041ec     98 D2 84 F1 | 	sub	objptr, #152
041f0     A8 4C 01 F6 | 	mov	local02, local04
041f4     01 4C 05 F1 | 	add	local02, #1
041f8     98 D2 04 F1 | 	add	objptr, #152
041fc     69 4C 61 FC | 	wrlong	local02, objptr
04200     98 D2 84 F1 | 	sub	objptr, #152
04204                 | LR__0186
04204                 | '   if cpl//xzoom==0  
04204     94 D2 04 F1 | 	add	objptr, #148
04208     69 50 01 FB | 	rdlong	local04, objptr
0420c     94 D2 84 F1 | 	sub	objptr, #148
04210     A8 8C 01 F6 | 	mov	muldiva_, local04
04214     D4 D2 04 F1 | 	add	objptr, #212
04218     69 52 01 FB | 	rdlong	local05, objptr
0421c     D4 D2 84 F1 | 	sub	objptr, #212
04220     A9 8E 01 F6 | 	mov	muldivb_, local05
04224     5C 00 A0 FD | 	call	#divide_
04228     C6 4C 01 F6 | 	mov	local02, muldiva_
0422c     00 4C 0D F2 | 	cmp	local02, #0 wz
04230     38 00 90 5D |  if_ne	jmp	#LR__0187
04234                 | '     cpl:=cpl/xzoom
04234     94 D2 04 F1 | 	add	objptr, #148
04238     69 50 01 FB | 	rdlong	local04, objptr
0423c     94 D2 84 F1 | 	sub	objptr, #148
04240     A8 8C 01 F6 | 	mov	muldiva_, local04
04244     D4 D2 04 F1 | 	add	objptr, #212
04248     69 52 01 FB | 	rdlong	local05, objptr
0424c     D4 D2 84 F1 | 	sub	objptr, #212
04250     A9 8E 01 F6 | 	mov	muldivb_, local05
04254     5C 00 A0 FD | 	call	#divide_
04258     C7 4C 01 F6 | 	mov	local02, muldivb_
0425c     94 D2 04 F1 | 	add	objptr, #148
04260     69 4C 61 FC | 	wrlong	local02, objptr
04264     94 D2 84 F1 | 	sub	objptr, #148
04268                 | '   else
04268     38 00 90 FD | 	jmp	#LR__0188
0426c                 | LR__0187
0426c                 | '     cpl:=cpl/xzoom+1
0426c     94 D2 04 F1 | 	add	objptr, #148
04270     69 50 01 FB | 	rdlong	local04, objptr
04274     94 D2 84 F1 | 	sub	objptr, #148
04278     A8 8C 01 F6 | 	mov	muldiva_, local04
0427c     D4 D2 04 F1 | 	add	objptr, #212
04280     69 52 01 FB | 	rdlong	local05, objptr
04284     D4 D2 84 F1 | 	sub	objptr, #212
04288     A9 8E 01 F6 | 	mov	muldivb_, local05
0428c     5C 00 A0 FD | 	call	#divide_
04290     C7 4C 01 F6 | 	mov	local02, muldivb_
04294     01 4C 05 F1 | 	add	local02, #1
04298     94 D2 04 F1 | 	add	objptr, #148
0429c     69 4C 61 FC | 	wrlong	local02, objptr
042a0     94 D2 84 F1 | 	sub	objptr, #148
042a4                 | LR__0188
042a4                 | '     
042a4                 | ' else
042a4     D4 00 90 FD | 	jmp	#LR__0192
042a8                 | LR__0189
042a8                 | '   lines:=timings[12]/yzoom
042a8     84 D2 04 F1 | 	add	objptr, #132
042ac     69 50 01 FB | 	rdlong	local04, objptr
042b0     84 D2 84 F1 | 	sub	objptr, #132
042b4     A8 8C 01 F6 | 	mov	muldiva_, local04
042b8     D8 D2 04 F1 | 	add	objptr, #216
042bc     69 52 01 FB | 	rdlong	local05, objptr
042c0     D8 D2 84 F1 | 	sub	objptr, #216
042c4     A9 8E 01 F6 | 	mov	muldivb_, local05
042c8     5C 00 A0 FD | 	call	#divide_
042cc     C7 4C 01 F6 | 	mov	local02, muldivb_
042d0     98 D2 04 F1 | 	add	objptr, #152
042d4     69 4C 61 FC | 	wrlong	local02, objptr
042d8     98 D2 84 F1 | 	sub	objptr, #152
042dc                 | '   if (cpl//xzoom)==0  
042dc     94 D2 04 F1 | 	add	objptr, #148
042e0     69 50 01 FB | 	rdlong	local04, objptr
042e4     94 D2 84 F1 | 	sub	objptr, #148
042e8     A8 8C 01 F6 | 	mov	muldiva_, local04
042ec     D4 D2 04 F1 | 	add	objptr, #212
042f0     69 52 01 FB | 	rdlong	local05, objptr
042f4     D4 D2 84 F1 | 	sub	objptr, #212
042f8     A9 8E 01 F6 | 	mov	muldivb_, local05
042fc     5C 00 A0 FD | 	call	#divide_
04300     C6 4C 01 F6 | 	mov	local02, muldiva_
04304     00 4C 0D F2 | 	cmp	local02, #0 wz
04308     38 00 90 5D |  if_ne	jmp	#LR__0190
0430c                 | '     cpl:=cpl/xzoom
0430c     94 D2 04 F1 | 	add	objptr, #148
04310     69 50 01 FB | 	rdlong	local04, objptr
04314     94 D2 84 F1 | 	sub	objptr, #148
04318     A8 8C 01 F6 | 	mov	muldiva_, local04
0431c     D4 D2 04 F1 | 	add	objptr, #212
04320     69 52 01 FB | 	rdlong	local05, objptr
04324     D4 D2 84 F1 | 	sub	objptr, #212
04328     A9 8E 01 F6 | 	mov	muldivb_, local05
0432c     5C 00 A0 FD | 	call	#divide_
04330     C7 4C 01 F6 | 	mov	local02, muldivb_
04334     94 D2 04 F1 | 	add	objptr, #148
04338     69 4C 61 FC | 	wrlong	local02, objptr
0433c     94 D2 84 F1 | 	sub	objptr, #148
04340                 | '   else
04340     38 00 90 FD | 	jmp	#LR__0191
04344                 | LR__0190
04344                 | '     cpl:=cpl/xzoom+1
04344     94 D2 04 F1 | 	add	objptr, #148
04348     69 50 01 FB | 	rdlong	local04, objptr
0434c     94 D2 84 F1 | 	sub	objptr, #148
04350     A8 8C 01 F6 | 	mov	muldiva_, local04
04354     D4 D2 04 F1 | 	add	objptr, #212
04358     69 52 01 FB | 	rdlong	local05, objptr
0435c     D4 D2 84 F1 | 	sub	objptr, #212
04360     A9 8E 01 F6 | 	mov	muldivb_, local05
04364     5C 00 A0 FD | 	call	#divide_
04368     C7 4C 01 F6 | 	mov	local02, muldivb_
0436c     01 4C 05 F1 | 	add	local02, #1
04370     94 D2 04 F1 | 	add	objptr, #148
04374     69 4C 61 FC | 	wrlong	local02, objptr
04378     94 D2 84 F1 | 	sub	objptr, #148
0437c                 | LR__0191
0437c                 | LR__0192
0437c                 | ' 
0437c                 | ' buflen:=(cpl*lines)
0437c     94 D2 04 F1 | 	add	objptr, #148
04380     69 52 01 FB | 	rdlong	local05, objptr
04384     94 D2 84 F1 | 	sub	objptr, #148
04388     A9 50 01 F6 | 	mov	local04, local05
0438c     98 D2 04 F1 | 	add	objptr, #152
04390     69 56 01 FB | 	rdlong	local07, objptr
04394     98 D2 84 F1 | 	sub	objptr, #152
04398     AB 54 01 F6 | 	mov	local06, local07
0439c     AA 50 01 FD | 	qmul	local04, local06
043a0     18 4C 61 FD | 	getqx	local02
043a4     34 D2 04 F1 | 	add	objptr, #52
043a8     69 4C 61 FC | 	wrlong	local02, objptr
043ac     34 D2 84 F1 | 	sub	objptr, #52
043b0                 | ' 
043b0                 | ' buf_ptr:=$80000-4*buflen
043b0     34 D2 04 F1 | 	add	objptr, #52
043b4     69 54 01 FB | 	rdlong	local06, objptr
043b8     34 D2 84 F1 | 	sub	objptr, #52
043bc     AA 52 01 F6 | 	mov	local05, local06
043c0     A9 50 01 F6 | 	mov	local04, local05
043c4     02 50 65 F0 | 	shl	local04, #2
043c8     00 04 00 FF 
043cc     00 4C 05 F6 | 	mov	local02, ##524288
043d0     A8 4C 81 F1 | 	sub	local02, local04
043d4     69 4C 61 FC | 	wrlong	local02, objptr
043d8                 | ' mode_ptr:=@timings
043d8     54 D2 04 F1 | 	add	objptr, #84
043dc     69 4C 01 F6 | 	mov	local02, objptr
043e0     54 D2 84 F1 | 	sub	objptr, #84
043e4     14 D2 04 F1 | 	add	objptr, #20
043e8     69 4C 61 FC | 	wrlong	local02, objptr
043ec     14 D2 84 F1 | 	sub	objptr, #20
043f0                 | ' graphmode:=mode
043f0     D0 D2 04 F1 | 	add	objptr, #208
043f4     69 4A 61 FC | 	wrlong	local01, objptr
043f8     D0 D2 84 F1 | 	sub	objptr, #208
043fc                 | ' 'pintoggle(15)
043fc                 | ' makedl(mode)
043fc     A5 4C 01 F6 | 	mov	local02, local01
04400     A6 26 01 F6 | 	mov	arg01, local02
04404     0C 00 B0 FD | 	call	#_makedl
04408     37 F0 03 F6 | 	mov	ptra, fp
0440c     4B 00 A0 FD | 	call	#popregs_
04410                 | _setmode_ret
04410     2D 00 64 FD | 	ret
04414                 | 
04414                 | ' 
04414                 | ' 
04414                 | ' '---------- Make a display list
04414                 | ' 
04414                 | ' pub makedl (mode) |i, fontline,charline,bufstart,zoom1,vzoom,lpc,hzoom
04414                 | _makedl
04414     93 DC 00 F6 | 	mov	_var01, arg01
04418                 | ' 
04418                 | ' ''--%aaaa_aaaa_aaaa_aaaa_aazz_nnnn_llll_ll_01 - txt
04418                 | '   '' aaaa_aaaa_aaaa_aaaa_aazz_rrrr_rrrr_cc_10 - graph
04418                 | '   '' aaaa_aaaa_aaaa-aaaa_aarr_rrrr_rrrr_rr_11 - extended, next long to read 
04418                 | '   
04418                 | ' '   0 - display a up/down border line
04418                 | '     
04418                 | ' '  ' aaaa_aaaa_aaaa_aaaa_aazz_nnnn_llll_ll_01 - text line
04418                 | ' '    aaaa_aaaa_aaaa_aaaa_aa00 - buffer start, has to be aligned, 1 long for char, ff_bb_rr_cc, foreground, background,reserved, charcode
04418                 | ' '    zz - zoom, 00-x1, 01-x2, 10-x4, 11-blank line
04418                 | ' '    nnnn - font line to display, 0..15
04418                 | ' '    llllll - character line, determines the cursor Y position
04418                 | ' 
04418                 | ' 
04418                 | ' if (mode &256==0) 
04418     6E DE 00 F6 | 	mov	_var02, _var01
0441c     00 DF 04 F5 | 	and	_var02, #256
04420     00 DE 0C F2 | 	cmp	_var02, #0 wz
04424     1C 00 90 5D |  if_ne	jmp	#LR__0193
04428                 | '   dl_ptr:=buf_ptr-4*576 
04428     69 DE 00 FB | 	rdlong	_var02, objptr
0442c     04 00 00 FF 
04430     00 DF 84 F1 | 	sub	_var02, ##2304
04434     20 D2 04 F1 | 	add	objptr, #32
04438     69 DE 60 FC | 	wrlong	_var02, objptr
0443c     20 D2 84 F1 | 	sub	objptr, #32
04440                 | ' else 
04440     18 00 90 FD | 	jmp	#LR__0194
04444                 | LR__0193
04444                 | '   dl_ptr:=buf_ptr-4*496
04444     69 DE 00 FB | 	rdlong	_var02, objptr
04448     03 00 00 FF 
0444c     C0 DF 84 F1 | 	sub	_var02, ##1984
04450     20 D2 04 F1 | 	add	objptr, #32
04454     69 DE 60 FC | 	wrlong	_var02, objptr
04458     20 D2 84 F1 | 	sub	objptr, #32
0445c                 | LR__0194
0445c                 | ' 
0445c                 | ' vzoom:=((mode>>2) & 3)
0445c     6E DE 00 F6 | 	mov	_var02, _var01
04460     02 DE 44 F0 | 	shr	_var02, #2
04464     03 DE 04 F5 | 	and	_var02, #3
04468     6F E0 00 F6 | 	mov	_var03, _var02
0446c                 | '  
0446c                 | ' 
0446c                 | ' 
0446c                 | ' 
0446c                 | ' 
0446c                 | ' if mode<512 '' text modes
0446c     01 00 00 FF 
04470     00 DC 5C F2 | 	cmps	_var01, ##512 wcz
04474     C4 02 90 3D |  if_ae	jmp	#LR__0211
04478                 | ' 
04478                 | ' 
04478                 | ' 
04478                 | '   if timings[6]>0 'borders
04478     6C D2 04 F1 | 	add	objptr, #108
0447c     69 E2 00 FB | 	rdlong	_var04, objptr
04480     6C D2 84 F1 | 	sub	objptr, #108
04484     71 DE 00 F6 | 	mov	_var02, _var04
04488     00 DE 5C F2 | 	cmps	_var02, #0 wcz
0448c     40 01 90 ED |  if_be	jmp	#LR__0205
04490                 | '     repeat i from 0 to timings[6]-1 '0 to -1
04490     00 E4 04 F6 | 	mov	_var05, #0
04494     6C D2 04 F1 | 	add	objptr, #108
04498     69 E2 00 FB | 	rdlong	_var04, objptr
0449c     6C D2 84 F1 | 	sub	objptr, #108
044a0     71 DE 00 F6 | 	mov	_var02, _var04
044a4     01 DE 84 F1 | 	sub	_var02, #1
044a8     6F E6 00 F6 | 	mov	_var06, _var02
044ac     00 E6 5C F2 | 	cmps	_var06, #0 wcz
044b0     08 00 90 ED |  if_be	jmp	#LR__0195
044b4     01 E8 04 F6 | 	mov	_var07, #1
044b8     08 00 90 FD | 	jmp	#LR__0196
044bc                 | LR__0195
044bc     FF FF 7F FF 
044c0     FF E9 04 F6 | 	mov	_var07, ##-1
044c4                 | LR__0196
044c4     74 EA 00 F6 | 	mov	_var08, _var07
044c8     73 EC 00 F6 | 	mov	_var09, _var06
044cc     75 EC 00 F1 | 	add	_var09, _var08
044d0     76 E6 00 F6 | 	mov	_var06, _var09
044d4                 | LR__0197
044d4                 | '       long[dl_ptr+4*i]:=$0  
044d4     20 D2 04 F1 | 	add	objptr, #32
044d8     69 EE 00 FB | 	rdlong	_var10, objptr
044dc     20 D2 84 F1 | 	sub	objptr, #32
044e0     77 F0 00 F6 | 	mov	_var11, _var10
044e4     72 F2 00 F6 | 	mov	_var12, _var05
044e8     02 F2 64 F0 | 	shl	_var12, #2
044ec     79 F0 00 F1 | 	add	_var11, _var12
044f0     00 F4 04 F6 | 	mov	_var13, #0
044f4     78 F4 60 FC | 	wrlong	_var13, _var11
044f8                 | LR__0198
044f8     72 F0 00 F6 | 	mov	_var11, _var05
044fc     75 F0 00 F1 | 	add	_var11, _var08
04500     78 E4 00 F6 | 	mov	_var05, _var11
04504     73 E4 08 F2 | 	cmp	_var05, _var06 wz
04508     C8 FF 9F 5D |  if_ne	jmp	#LR__0197
0450c                 | LR__0199
0450c                 | '     repeat i from timings[6]+timings[12] to timings[15]-1 
0450c     6C D2 04 F1 | 	add	objptr, #108
04510     69 E2 00 FB | 	rdlong	_var04, objptr
04514     6C D2 84 F1 | 	sub	objptr, #108
04518     71 DE 00 F6 | 	mov	_var02, _var04
0451c     84 D2 04 F1 | 	add	objptr, #132
04520     69 EC 00 FB | 	rdlong	_var09, objptr
04524     84 D2 84 F1 | 	sub	objptr, #132
04528     76 E8 00 F6 | 	mov	_var07, _var09
0452c     74 DE 00 F1 | 	add	_var02, _var07
04530     6F E4 00 F6 | 	mov	_var05, _var02
04534     90 D2 04 F1 | 	add	objptr, #144
04538     69 EE 00 FB | 	rdlong	_var10, objptr
0453c     90 D2 84 F1 | 	sub	objptr, #144
04540     77 F0 00 F6 | 	mov	_var11, _var10
04544     01 F0 84 F1 | 	sub	_var11, #1
04548     78 F6 00 F6 | 	mov	_var14, _var11
0454c     6C D2 04 F1 | 	add	objptr, #108
04550     69 F8 00 FB | 	rdlong	_var15, objptr
04554     6C D2 84 F1 | 	sub	objptr, #108
04558     7C F4 00 F6 | 	mov	_var13, _var15
0455c     84 D2 04 F1 | 	add	objptr, #132
04560     69 FA 00 FB | 	rdlong	_var16, objptr
04564     84 D2 84 F1 | 	sub	objptr, #132
04568     7D FC 00 F6 | 	mov	_var17, _var16
0456c     7E F4 00 F1 | 	add	_var13, _var17
04570     7A F6 58 F2 | 	cmps	_var14, _var13 wcz
04574     08 00 90 ED |  if_be	jmp	#LR__0200
04578     01 F2 04 F6 | 	mov	_var12, #1
0457c     08 00 90 FD | 	jmp	#LR__0201
04580                 | LR__0200
04580     FF FF 7F FF 
04584     FF F3 04 F6 | 	mov	_var12, ##-1
04588                 | LR__0201
04588     79 FE 00 F6 | 	mov	_var18, _var12
0458c     7B 00 01 F6 | 	mov	_var19, _var14
04590     7F 00 01 F1 | 	add	_var19, _var18
04594     80 F6 00 F6 | 	mov	_var14, _var19
04598                 | LR__0202
04598                 | '       long[dl_ptr+4*i]:=$0   
04598     20 D2 04 F1 | 	add	objptr, #32
0459c     69 02 01 FB | 	rdlong	_var20, objptr
045a0     20 D2 84 F1 | 	sub	objptr, #32
045a4     81 04 01 F6 | 	mov	_var21, _var20
045a8     72 06 01 F6 | 	mov	_var22, _var05
045ac     02 06 65 F0 | 	shl	_var22, #2
045b0     83 04 01 F1 | 	add	_var21, _var22
045b4     00 08 05 F6 | 	mov	_var23, #0
045b8     82 08 61 FC | 	wrlong	_var23, _var21
045bc                 | LR__0203
045bc     72 04 01 F6 | 	mov	_var21, _var05
045c0     7F 04 01 F1 | 	add	_var21, _var18
045c4     82 E4 00 F6 | 	mov	_var05, _var21
045c8     7B E4 08 F2 | 	cmp	_var05, _var14 wz
045cc     C8 FF 9F 5D |  if_ne	jmp	#LR__0202
045d0                 | LR__0204
045d0                 | LR__0205
045d0                 | '   lpc:=16<<vzoom   
045d0     10 DE 04 F6 | 	mov	_var02, #16
045d4     70 DE 60 F0 | 	shl	_var02, _var03
045d8     6F 0A 01 F6 | 	mov	_var24, _var02
045dc                 | '   repeat i from timings[6] to timings[6]+timings[12]-1  
045dc     6C D2 04 F1 | 	add	objptr, #108
045e0     69 DE 00 FB | 	rdlong	_var02, objptr
045e4     6C D2 84 F1 | 	sub	objptr, #108
045e8     6F E4 00 F6 | 	mov	_var05, _var02
045ec     6C D2 04 F1 | 	add	objptr, #108
045f0     69 E8 00 FB | 	rdlong	_var07, objptr
045f4     6C D2 84 F1 | 	sub	objptr, #108
045f8     74 E2 00 F6 | 	mov	_var04, _var07
045fc     84 D2 04 F1 | 	add	objptr, #132
04600     69 F0 00 FB | 	rdlong	_var11, objptr
04604     84 D2 84 F1 | 	sub	objptr, #132
04608     78 EC 00 F6 | 	mov	_var09, _var11
0460c     76 E2 00 F1 | 	add	_var04, _var09
04610     01 E2 84 F1 | 	sub	_var04, #1
04614     71 0C 01 F6 | 	mov	_var25, _var04
04618     6C D2 04 F1 | 	add	objptr, #108
0461c     69 F4 00 FB | 	rdlong	_var13, objptr
04620     6C D2 84 F1 | 	sub	objptr, #108
04624     7A F2 00 F6 | 	mov	_var12, _var13
04628     79 0C 59 F2 | 	cmps	_var25, _var12 wcz
0462c     08 00 90 ED |  if_be	jmp	#LR__0206
04630     01 EE 04 F6 | 	mov	_var10, #1
04634     08 00 90 FD | 	jmp	#LR__0207
04638                 | LR__0206
04638     FF FF 7F FF 
0463c     FF EF 04 F6 | 	mov	_var10, ##-1
04640                 | LR__0207
04640     77 0E 01 F6 | 	mov	_var26, _var10
04644     86 F8 00 F6 | 	mov	_var15, _var25
04648     87 F8 00 F1 | 	add	_var15, _var26
0464c     7C 0C 01 F6 | 	mov	_var25, _var15
04650                 | LR__0208
04650                 | '     fontline:=((i-timings[6])+//lpc)>>vzoom
04650     72 FA 00 F6 | 	mov	_var16, _var05
04654     6C D2 04 F1 | 	add	objptr, #108
04658     69 04 01 FB | 	rdlong	_var21, objptr
0465c     6C D2 84 F1 | 	sub	objptr, #108
04660     82 00 01 F6 | 	mov	_var19, _var21
04664     80 FA 80 F1 | 	sub	_var16, _var19
04668     7D 8C 01 F6 | 	mov	muldiva_, _var16
0466c     85 8E 01 F6 | 	mov	muldivb_, _var24
04670     58 00 A0 FD | 	call	#unsdivide_
04674     C6 FC 00 F6 | 	mov	_var17, muldiva_
04678     70 FC 40 F0 | 	shr	_var17, _var03
0467c     7E 10 01 F6 | 	mov	_var27, _var17
04680                 | '     charline:=(i-timings[6])+/lpc
04680     72 FC 00 F6 | 	mov	_var17, _var05
04684     6C D2 04 F1 | 	add	objptr, #108
04688     69 00 01 FB | 	rdlong	_var19, objptr
0468c     6C D2 84 F1 | 	sub	objptr, #108
04690     80 FA 00 F6 | 	mov	_var16, _var19
04694     7D FC 80 F1 | 	sub	_var17, _var16
04698     7E 8C 01 F6 | 	mov	muldiva_, _var17
0469c     85 8E 01 F6 | 	mov	muldivb_, _var24
046a0     58 00 A0 FD | 	call	#unsdivide_
046a4     C7 04 01 F6 | 	mov	_var21, muldivb_
046a8     82 12 01 F6 | 	mov	_var28, _var21
046ac                 | '     bufstart:=buf_ptr+4*((cpl)*charline)+(mode&3)
046ac     69 FC 00 FB | 	rdlong	_var17, objptr
046b0     94 D2 04 F1 | 	add	objptr, #148
046b4     69 04 01 FB | 	rdlong	_var21, objptr
046b8     94 D2 84 F1 | 	sub	objptr, #148
046bc     82 00 01 F6 | 	mov	_var19, _var21
046c0     89 00 01 FD | 	qmul	_var19, _var28
046c4     18 FA 60 FD | 	getqx	_var16
046c8     7D 02 01 F6 | 	mov	_var20, _var16
046cc     02 02 65 F0 | 	shl	_var20, #2
046d0     81 FC 00 F1 | 	add	_var17, _var20
046d4     6E 06 01 F6 | 	mov	_var22, _var01
046d8     03 06 05 F5 | 	and	_var22, #3
046dc     83 FC 00 F1 | 	add	_var17, _var22
046e0     7E 14 01 F6 | 	mov	_var29, _var17
046e4                 | '     long[dl_ptr+4*i]:=(bufstart<<12)+(fontline<<8)+(charline<<2)+1
046e4     8A FC 00 F6 | 	mov	_var17, _var29
046e8     0C FC 64 F0 | 	shl	_var17, #12
046ec     88 FA 00 F6 | 	mov	_var16, _var27
046f0     08 FA 64 F0 | 	shl	_var16, #8
046f4     7D FC 00 F1 | 	add	_var17, _var16
046f8     89 00 01 F6 | 	mov	_var19, _var28
046fc     02 00 65 F0 | 	shl	_var19, #2
04700     80 FC 00 F1 | 	add	_var17, _var19
04704     01 FC 04 F1 | 	add	_var17, #1
04708     20 D2 04 F1 | 	add	objptr, #32
0470c     69 02 01 FB | 	rdlong	_var20, objptr
04710     20 D2 84 F1 | 	sub	objptr, #32
04714     81 04 01 F6 | 	mov	_var21, _var20
04718     72 06 01 F6 | 	mov	_var22, _var05
0471c     02 06 65 F0 | 	shl	_var22, #2
04720     83 04 01 F1 | 	add	_var21, _var22
04724     82 FC 60 FC | 	wrlong	_var17, _var21
04728                 | LR__0209
04728     72 FC 00 F6 | 	mov	_var17, _var05
0472c     87 FC 00 F1 | 	add	_var17, _var26
04730     7E E4 00 F6 | 	mov	_var05, _var17
04734     86 E4 08 F2 | 	cmp	_var05, _var25 wz
04738     14 FF 9F 5D |  if_ne	jmp	#LR__0208
0473c                 | LR__0210
0473c                 | LR__0211
0473c                 | '       
0473c                 | '       
0473c                 | '   {{    
0473c                 | ' }}
0473c                 | ' 
0473c                 | ' if (mode>=512)' and (mode & (%10_00_00_0000))==(%10_00_00_0000) ' graphics -> all modes TODO :mode 560+192=752 = 10_11_11_0000 impossib,e because out of memory
0473c     01 00 00 FF 
04740     00 DC 5C F2 | 	cmps	_var01, ##512 wcz
04744     70 02 90 CD |  if_b	jmp	#LR__0228
04748                 | ' 
04748                 | '   if timings[6]>0 'borders
04748     6C D2 04 F1 | 	add	objptr, #108
0474c     69 E2 00 FB | 	rdlong	_var04, objptr
04750     6C D2 84 F1 | 	sub	objptr, #108
04754     71 DE 00 F6 | 	mov	_var02, _var04
04758     00 DE 5C F2 | 	cmps	_var02, #0 wcz
0475c     40 01 90 ED |  if_be	jmp	#LR__0222
04760                 | '     repeat i from 0 to timings[6]-1 '0 to -1
04760     00 E4 04 F6 | 	mov	_var05, #0
04764     6C D2 04 F1 | 	add	objptr, #108
04768     69 E2 00 FB | 	rdlong	_var04, objptr
0476c     6C D2 84 F1 | 	sub	objptr, #108
04770     71 DE 00 F6 | 	mov	_var02, _var04
04774     01 DE 84 F1 | 	sub	_var02, #1
04778     6F 16 01 F6 | 	mov	_var30, _var02
0477c     00 16 5D F2 | 	cmps	_var30, #0 wcz
04780     08 00 90 ED |  if_be	jmp	#LR__0212
04784     01 E8 04 F6 | 	mov	_var07, #1
04788     08 00 90 FD | 	jmp	#LR__0213
0478c                 | LR__0212
0478c     FF FF 7F FF 
04790     FF E9 04 F6 | 	mov	_var07, ##-1
04794                 | LR__0213
04794     74 18 01 F6 | 	mov	_var31, _var07
04798     8B EC 00 F6 | 	mov	_var09, _var30
0479c     8C EC 00 F1 | 	add	_var09, _var31
047a0     76 16 01 F6 | 	mov	_var30, _var09
047a4                 | LR__0214
047a4                 | '       long[dl_ptr+4*i]:=$0  
047a4     20 D2 04 F1 | 	add	objptr, #32
047a8     69 EE 00 FB | 	rdlong	_var10, objptr
047ac     20 D2 84 F1 | 	sub	objptr, #32
047b0     77 F0 00 F6 | 	mov	_var11, _var10
047b4     72 F2 00 F6 | 	mov	_var12, _var05
047b8     02 F2 64 F0 | 	shl	_var12, #2
047bc     79 F0 00 F1 | 	add	_var11, _var12
047c0     00 F4 04 F6 | 	mov	_var13, #0
047c4     78 F4 60 FC | 	wrlong	_var13, _var11
047c8                 | LR__0215
047c8     72 F0 00 F6 | 	mov	_var11, _var05
047cc     8C F0 00 F1 | 	add	_var11, _var31
047d0     78 E4 00 F6 | 	mov	_var05, _var11
047d4     8B E4 08 F2 | 	cmp	_var05, _var30 wz
047d8     C8 FF 9F 5D |  if_ne	jmp	#LR__0214
047dc                 | LR__0216
047dc                 | '     repeat i from timings[6]+timings[12] to timings[15]-1 
047dc     6C D2 04 F1 | 	add	objptr, #108
047e0     69 E2 00 FB | 	rdlong	_var04, objptr
047e4     6C D2 84 F1 | 	sub	objptr, #108
047e8     71 DE 00 F6 | 	mov	_var02, _var04
047ec     84 D2 04 F1 | 	add	objptr, #132
047f0     69 EC 00 FB | 	rdlong	_var09, objptr
047f4     84 D2 84 F1 | 	sub	objptr, #132
047f8     76 E8 00 F6 | 	mov	_var07, _var09
047fc     74 DE 00 F1 | 	add	_var02, _var07
04800     6F E4 00 F6 | 	mov	_var05, _var02
04804     90 D2 04 F1 | 	add	objptr, #144
04808     69 EE 00 FB | 	rdlong	_var10, objptr
0480c     90 D2 84 F1 | 	sub	objptr, #144
04810     77 F0 00 F6 | 	mov	_var11, _var10
04814     01 F0 84 F1 | 	sub	_var11, #1
04818     78 1A 01 F6 | 	mov	_var32, _var11
0481c     6C D2 04 F1 | 	add	objptr, #108
04820     69 F8 00 FB | 	rdlong	_var15, objptr
04824     6C D2 84 F1 | 	sub	objptr, #108
04828     7C F4 00 F6 | 	mov	_var13, _var15
0482c     84 D2 04 F1 | 	add	objptr, #132
04830     69 FA 00 FB | 	rdlong	_var16, objptr
04834     84 D2 84 F1 | 	sub	objptr, #132
04838     7D FC 00 F6 | 	mov	_var17, _var16
0483c     7E F4 00 F1 | 	add	_var13, _var17
04840     7A 1A 59 F2 | 	cmps	_var32, _var13 wcz
04844     08 00 90 ED |  if_be	jmp	#LR__0217
04848     01 F2 04 F6 | 	mov	_var12, #1
0484c     08 00 90 FD | 	jmp	#LR__0218
04850                 | LR__0217
04850     FF FF 7F FF 
04854     FF F3 04 F6 | 	mov	_var12, ##-1
04858                 | LR__0218
04858     79 1C 01 F6 | 	mov	_var33, _var12
0485c     8D 00 01 F6 | 	mov	_var19, _var32
04860     8E 00 01 F1 | 	add	_var19, _var33
04864     80 1A 01 F6 | 	mov	_var32, _var19
04868                 | LR__0219
04868                 | '       long[dl_ptr+4*i]:=$0   
04868     20 D2 04 F1 | 	add	objptr, #32
0486c     69 02 01 FB | 	rdlong	_var20, objptr
04870     20 D2 84 F1 | 	sub	objptr, #32
04874     81 04 01 F6 | 	mov	_var21, _var20
04878     72 06 01 F6 | 	mov	_var22, _var05
0487c     02 06 65 F0 | 	shl	_var22, #2
04880     83 04 01 F1 | 	add	_var21, _var22
04884     00 08 05 F6 | 	mov	_var23, #0
04888     82 08 61 FC | 	wrlong	_var23, _var21
0488c                 | LR__0220
0488c     72 04 01 F6 | 	mov	_var21, _var05
04890     8E 04 01 F1 | 	add	_var21, _var33
04894     82 E4 00 F6 | 	mov	_var05, _var21
04898     8D E4 08 F2 | 	cmp	_var05, _var32 wz
0489c     C8 FF 9F 5D |  if_ne	jmp	#LR__0219
048a0                 | LR__0221
048a0                 | LR__0222
048a0                 | '   repeat i from timings[6] to timings[6]+timings[12]-1  
048a0     6C D2 04 F1 | 	add	objptr, #108
048a4     69 DE 00 FB | 	rdlong	_var02, objptr
048a8     6C D2 84 F1 | 	sub	objptr, #108
048ac     6F E4 00 F6 | 	mov	_var05, _var02
048b0     6C D2 04 F1 | 	add	objptr, #108
048b4     69 E8 00 FB | 	rdlong	_var07, objptr
048b8     6C D2 84 F1 | 	sub	objptr, #108
048bc     74 E2 00 F6 | 	mov	_var04, _var07
048c0     84 D2 04 F1 | 	add	objptr, #132
048c4     69 F0 00 FB | 	rdlong	_var11, objptr
048c8     84 D2 84 F1 | 	sub	objptr, #132
048cc     78 EC 00 F6 | 	mov	_var09, _var11
048d0     76 E2 00 F1 | 	add	_var04, _var09
048d4     01 E2 84 F1 | 	sub	_var04, #1
048d8     71 1E 01 F6 | 	mov	_var34, _var04
048dc     6C D2 04 F1 | 	add	objptr, #108
048e0     69 F4 00 FB | 	rdlong	_var13, objptr
048e4     6C D2 84 F1 | 	sub	objptr, #108
048e8     7A F2 00 F6 | 	mov	_var12, _var13
048ec     79 1E 59 F2 | 	cmps	_var34, _var12 wcz
048f0     08 00 90 ED |  if_be	jmp	#LR__0223
048f4     01 EE 04 F6 | 	mov	_var10, #1
048f8     08 00 90 FD | 	jmp	#LR__0224
048fc                 | LR__0223
048fc     FF FF 7F FF 
04900     FF EF 04 F6 | 	mov	_var10, ##-1
04904                 | LR__0224
04904     77 20 01 F6 | 	mov	_var35, _var10
04908     8F F8 00 F6 | 	mov	_var15, _var34
0490c     90 F8 00 F1 | 	add	_var15, _var35
04910     7C 1E 01 F6 | 	mov	_var34, _var15
04914                 | LR__0225
04914                 | '     bufstart:=buf_ptr+4*(cpl*((i-timings[6])>>vzoom))+(mode&3)
04914     69 FC 00 FB | 	rdlong	_var17, objptr
04918     72 FA 00 F6 | 	mov	_var16, _var05
0491c     6C D2 04 F1 | 	add	objptr, #108
04920     69 04 01 FB | 	rdlong	_var21, objptr
04924     6C D2 84 F1 | 	sub	objptr, #108
04928     82 00 01 F6 | 	mov	_var19, _var21
0492c     80 FA 80 F1 | 	sub	_var16, _var19
04930     70 FA 40 F0 | 	shr	_var16, _var03
04934     94 D2 04 F1 | 	add	objptr, #148
04938     69 08 01 FB | 	rdlong	_var23, objptr
0493c     94 D2 84 F1 | 	sub	objptr, #148
04940     84 06 01 F6 | 	mov	_var22, _var23
04944     7D 06 01 FD | 	qmul	_var22, _var16
04948     18 02 61 FD | 	getqx	_var20
0494c     81 22 01 F6 | 	mov	_var36, _var20
04950     02 22 65 F0 | 	shl	_var36, #2
04954     91 FC 00 F1 | 	add	_var17, _var36
04958     6E 24 01 F6 | 	mov	_var37, _var01
0495c     03 24 05 F5 | 	and	_var37, #3
04960     92 FC 00 F1 | 	add	_var17, _var37
04964     7E 14 01 F6 | 	mov	_var29, _var17
04968                 | '     long[dl_ptr+4*i]:=(bufstart<<12)+2+(mode &48)>>2  
04968     8A FC 00 F6 | 	mov	_var17, _var29
0496c     0C FC 64 F0 | 	shl	_var17, #12
04970     02 FC 04 F1 | 	add	_var17, #2
04974     6E FA 00 F6 | 	mov	_var16, _var01
04978     30 FA 04 F5 | 	and	_var16, #48
0497c     02 FA 44 F0 | 	shr	_var16, #2
04980     7D FC 00 F1 | 	add	_var17, _var16
04984     20 D2 04 F1 | 	add	objptr, #32
04988     69 04 01 FB | 	rdlong	_var21, objptr
0498c     20 D2 84 F1 | 	sub	objptr, #32
04990     82 00 01 F6 | 	mov	_var19, _var21
04994     72 02 01 F6 | 	mov	_var20, _var05
04998     02 02 65 F0 | 	shl	_var20, #2
0499c     81 00 01 F1 | 	add	_var19, _var20
049a0     80 FC 60 FC | 	wrlong	_var17, _var19
049a4                 | LR__0226
049a4     72 FC 00 F6 | 	mov	_var17, _var05
049a8     90 FC 00 F1 | 	add	_var17, _var35
049ac     7E E4 00 F6 | 	mov	_var05, _var17
049b0     8F E4 08 F2 | 	cmp	_var05, _var34 wz
049b4     5C FF 9F 5D |  if_ne	jmp	#LR__0225
049b8                 | LR__0227
049b8                 | LR__0228
049b8                 | _makedl_ret
049b8     2D 00 64 FD | 	ret
049bc                 | 
049bc                 | ' 
049bc                 | '     
049bc                 | '   
049bc                 | ' '--------- Start the driver with graphics mode 'mode' at pins 'base'
049bc                 | ' 
049bc                 | ' pub start(mode,base):result
049bc                 | _start
049bc     09 6A 04 F6 | 	mov	COUNT_, #9
049c0     3C 00 A0 FD | 	call	#pushregs_
049c4     93 4A 01 F6 | 	mov	local01, arg01
049c8     94 4C 01 F6 | 	mov	local02, arg02
049cc     00 4E 05 F6 | 	mov	local03, #0
049d0                 | ' 
049d0                 | ' ' initialize pointers and variables
049d0                 | ' 
049d0                 | ' border_ptr:=@bordercolor
049d0     30 D2 04 F1 | 	add	objptr, #48
049d4     69 50 01 F6 | 	mov	local04, objptr
049d8     30 D2 84 F1 | 	sub	objptr, #48
049dc     08 D2 04 F1 | 	add	objptr, #8
049e0     69 50 61 FC | 	wrlong	local04, objptr
049e4     08 D2 84 F1 | 	sub	objptr, #8
049e8                 | ' font_ptr:=@st_font
049e8     08 00 00 FF 
049ec     00 D6 04 F1 | 	add	ptr__dat__, ##4096
049f0     6B 50 01 F6 | 	mov	local04, ptr__dat__
049f4     08 00 00 FF 
049f8     00 D6 84 F1 | 	sub	ptr__dat__, ##4096
049fc     04 D2 04 F1 | 	add	objptr, #4
04a00     69 50 61 FC | 	wrlong	local04, objptr
04a04     04 D2 84 F1 | 	sub	objptr, #4
04a08                 | ' hdmibase:=base
04a08     28 D2 04 F1 | 	add	objptr, #40
04a0c     69 4C 61 FC | 	wrlong	local02, objptr
04a10     28 D2 84 F1 | 	sub	objptr, #40
04a14                 | ' 
04a14                 | ' ' the mode has to be set here to enable computing the buffer length
04a14                 | ' 
04a14                 | ' setmode(mode)
04a14     A5 50 01 F6 | 	mov	local04, local01
04a18     A8 26 01 F6 | 	mov	arg01, local04
04a1c     64 F2 BF FD | 	call	#_setmode
04a20                 | ' 
04a20                 | ' 
04a20                 | ' vblank_ptr:=@vblank
04a20     44 D2 04 F1 | 	add	objptr, #68
04a24     69 50 01 F6 | 	mov	local04, objptr
04a28     44 D2 84 F1 | 	sub	objptr, #68
04a2c     0C D2 04 F1 | 	add	objptr, #12
04a30     69 50 61 FC | 	wrlong	local04, objptr
04a34     0C D2 84 F1 | 	sub	objptr, #12
04a38                 | ' cursor_ptr:=@cursor_x
04a38     38 D2 04 F1 | 	add	objptr, #56
04a3c     69 50 01 F6 | 	mov	local04, objptr
04a40     38 D2 84 F1 | 	sub	objptr, #56
04a44     10 D2 04 F1 | 	add	objptr, #16
04a48     69 50 61 FC | 	wrlong	local04, objptr
04a4c     10 D2 84 F1 | 	sub	objptr, #16
04a50                 | ' 
04a50                 | ' palette_ptr:=@ataripalette
04a50     0C 00 00 FF 
04a54     00 D6 04 F1 | 	add	ptr__dat__, ##6144
04a58     6B 50 01 F6 | 	mov	local04, ptr__dat__
04a5c     0C 00 00 FF 
04a60     00 D6 84 F1 | 	sub	ptr__dat__, ##6144
04a64     18 D2 04 F1 | 	add	objptr, #24
04a68     69 50 61 FC | 	wrlong	local04, objptr
04a6c     18 D2 84 F1 | 	sub	objptr, #24
04a70                 | ' command_ptr:=@cmd1
04a70     9C D2 04 F1 | 	add	objptr, #156
04a74     69 50 01 F6 | 	mov	local04, objptr
04a78     9C D2 84 F1 | 	sub	objptr, #156
04a7c     1C D2 04 F1 | 	add	objptr, #28
04a80     69 50 61 FC | 	wrlong	local04, objptr
04a84     1C D2 84 F1 | 	sub	objptr, #28
04a88                 | ' fontnum_ptr:=@fontnum
04a88     A4 D2 04 F1 | 	add	objptr, #164
04a8c     69 50 01 F6 | 	mov	local04, objptr
04a90     A4 D2 84 F1 | 	sub	objptr, #164
04a94     24 D2 04 F1 | 	add	objptr, #36
04a98     69 50 61 FC | 	wrlong	local04, objptr
04a9c     24 D2 84 F1 | 	sub	objptr, #36
04aa0                 | ' 
04aa0                 | ' fontnum:=0  ' PC type font ' TODO: font# in buffer byte #1
04aa0     00 50 05 F6 | 	mov	local04, #0
04aa4     A4 D2 04 F1 | 	add	objptr, #164
04aa8     69 50 61 FC | 	wrlong	local04, objptr
04aac     A4 D2 84 F1 | 	sub	objptr, #164
04ab0                 | ' bytemove(@colors,@vgacolors,16)
04ab0     C0 D2 04 F1 | 	add	objptr, #192
04ab4     69 50 01 F6 | 	mov	local04, objptr
04ab8     C0 D2 84 F1 | 	sub	objptr, #192
04abc     A8 52 01 F6 | 	mov	local05, local04
04ac0     0F 00 00 FF 
04ac4     D8 D6 04 F1 | 	add	ptr__dat__, ##7896
04ac8     6B 54 01 F6 | 	mov	local06, ptr__dat__
04acc     0F 00 00 FF 
04ad0     D8 D6 84 F1 | 	sub	ptr__dat__, ##7896
04ad4     AA 56 01 F6 | 	mov	local07, local06
04ad8     10 58 05 F6 | 	mov	local08, #16
04adc     A9 26 01 F6 | 	mov	arg01, local05
04ae0     AB 28 01 F6 | 	mov	arg02, local07
04ae4     AC 2A 01 F6 | 	mov	arg03, local08
04ae8     C0 01 B0 FD | 	call	#__system__bytemove
04aec     6D 5A 01 F6 | 	mov	local09, result1
04af0                 | ' 
04af0                 | ' ' initialize a cursor
04af0                 | ' 
04af0                 | ' cursor_x:=0
04af0     00 50 05 F6 | 	mov	local04, #0
04af4     38 D2 04 F1 | 	add	objptr, #56
04af8     69 50 41 FC | 	wrbyte	local04, objptr
04afc     38 D2 84 F1 | 	sub	objptr, #56
04b00                 | ' cursor_y:=0
04b00     00 50 05 F6 | 	mov	local04, #0
04b04     39 D2 04 F1 | 	add	objptr, #57
04b08     69 50 41 FC | 	wrbyte	local04, objptr
04b0c     39 D2 84 F1 | 	sub	objptr, #57
04b10                 | ' cursor_sh:=14
04b10     0E 50 05 F6 | 	mov	local04, #14
04b14     3A D2 04 F1 | 	add	objptr, #58
04b18     69 50 41 FC | 	wrbyte	local04, objptr
04b1c     3A D2 84 F1 | 	sub	objptr, #58
04b20                 | ' 
04b20                 | ' cmd1:=257 ' set command idle
04b20     01 51 05 F6 | 	mov	local04, #257
04b24     9C D2 04 F1 | 	add	objptr, #156
04b28     69 50 61 FC | 	wrlong	local04, objptr
04b2c     9C D2 84 F1 | 	sub	objptr, #156
04b30                 | ' 
04b30                 | ' ' start the cog
04b30                 | ' 
04b30                 | ' cog:=coginit(16,@hdmi, @buf_ptr)
04b30     10 50 05 F6 | 	mov	local04, #16
04b34     0F 00 00 FF 
04b38     E8 D6 04 F1 | 	add	ptr__dat__, ##7912
04b3c     6B 52 01 F6 | 	mov	local05, ptr__dat__
04b40     0F 00 00 FF 
04b44     E8 D6 84 F1 | 	sub	ptr__dat__, ##7912
04b48     A9 54 01 F6 | 	mov	local06, local05
04b4c     69 56 01 F6 | 	mov	local07, objptr
04b50     AB 58 01 F6 | 	mov	local08, local07
04b54     A8 26 01 F6 | 	mov	arg01, local04
04b58     AA 28 01 F6 | 	mov	arg02, local06
04b5c     AC 2A 01 F6 | 	mov	arg03, local08
04b60     94 00 B0 FD | 	call	#__system___coginit
04b64     6D 5A 01 F6 | 	mov	local09, result1
04b68     2C D2 04 F1 | 	add	objptr, #44
04b6c     69 5A 61 FC | 	wrlong	local09, objptr
04b70     2C D2 84 F1 | 	sub	objptr, #44
04b74                 | ' waitms(20)
04b74     14 50 05 F6 | 	mov	local04, #20
04b78     A8 26 01 F6 | 	mov	arg01, local04
04b7c     70 03 B0 FD | 	call	#__system___waitms
04b80                 | ' 
04b80                 | ' ' clear the screen and set the colors to green on black
04b80                 | ' 
04b80                 | ' cls(c_green,c_black)
04b80     C7 50 05 F6 | 	mov	local04, #199
04b84     00 52 05 F6 | 	mov	local05, #0
04b88     A8 26 01 F6 | 	mov	arg01, local04
04b8c     A9 28 01 F6 | 	mov	arg02, local05
04b90     10 DF BF FD | 	call	#_cls
04b94     6D 54 01 F6 | 	mov	local06, result1
04b98                 | ' setbordercolor(0,0,128)
04b98     00 50 05 F6 | 	mov	local04, #0
04b9c     00 52 05 F6 | 	mov	local05, #0
04ba0     80 54 05 F6 | 	mov	local06, #128
04ba4     A8 26 01 F6 | 	mov	arg01, local04
04ba8     A9 28 01 F6 | 	mov	arg02, local05
04bac     AA 2A 01 F6 | 	mov	arg03, local06
04bb0     20 DE BF FD | 	call	#_setbordercolor
04bb4                 | ' setwritecolors(c_green,c_black)
04bb4     C7 50 05 F6 | 	mov	local04, #199
04bb8     00 52 05 F6 | 	mov	local05, #0
04bbc     A8 26 01 F6 | 	mov	arg01, local04
04bc0     A9 28 01 F6 | 	mov	arg02, local05
04bc4     4C DE BF FD | 	call	#_setwritecolors
04bc8                 | ' 
04bc8                 | ' return cog
04bc8     2C D2 04 F1 | 	add	objptr, #44
04bcc     69 50 01 FB | 	rdlong	local04, objptr
04bd0     2C D2 84 F1 | 	sub	objptr, #44
04bd4     A8 DA 00 F6 | 	mov	result1, local04
04bd8     00 00 90 FD | 	jmp	#LR__0229
04bdc                 | LR__0229
04bdc     37 F0 03 F6 | 	mov	ptra, fp
04be0     4B 00 A0 FD | 	call	#popregs_
04be4                 | _start_ret
04be4     2D 00 64 FD | 	ret
04be8                 | hubexit
04be8     23 00 80 FD | 	jmp	#cogexit
04bec                 | 
04bec                 | __system___hubset
04bec     93 DC 00 F6 | 	mov	_var01, arg01
04bf0     00 DC 60 FD | 	hubset	_var01
04bf4                 | __system___hubset_ret
04bf4     2D 00 64 FD | 	ret
04bf8                 | 
04bf8                 | __system___coginit
04bf8     93 DC 00 F6 | 	mov	_var01, arg01
04bfc     94 DE 00 F6 | 	mov	_var02, arg02
04c00     95 E0 00 F6 | 	mov	_var03, arg03
04c04     28 E0 60 FD | 	setq	_var03
04c08     6F DC F0 FC | 	coginit	_var01, _var02 wc
04c0c     01 DC 64 C6 |  if_b	neg	_var01, #1
04c10     6E DA 00 F6 | 	mov	result1, _var01
04c14     00 00 90 FD | 	jmp	#__system___coginit_ret
04c18                 | __system___coginit_ret
04c18     2D 00 64 FD | 	ret
04c1c                 | 
04c1c                 | __system___waitx
04c1c     93 DC 00 F6 | 	mov	_var01, arg01
04c20     1F DC 60 FD | 	waitx	_var01
04c24                 | __system___waitx_ret
04c24     2D 00 64 FD | 	ret
04c28                 | 
04c28                 | __system__bytefill
04c28     93 DC 00 F6 | 	mov	_var01, arg01
04c2c     94 DE 00 F6 | 	mov	_var02, arg02
04c30     95 E0 00 F6 | 	mov	_var03, arg03
04c34     6F E2 00 F6 | 	mov	_var04, _var02
04c38     08 E2 64 F0 | 	shl	_var04, #8
04c3c     6F E2 40 F5 | 	or	_var04, _var02
04c40     71 E4 00 F6 | 	mov	_var05, _var04
04c44     72 E2 00 F6 | 	mov	_var04, _var05
04c48     10 E2 64 F0 | 	shl	_var04, #16
04c4c     72 E2 40 F5 | 	or	_var04, _var05
04c50     71 E4 00 F6 | 	mov	_var05, _var04
04c54                 | LR__0230
04c54     03 E0 5C F2 | 	cmps	_var03, #3 wcz
04c58     20 00 90 ED |  if_be	jmp	#LR__0231
04c5c     6E E4 60 FC | 	wrlong	_var05, _var01
04c60     6E E2 00 F6 | 	mov	_var04, _var01
04c64     04 E2 04 F1 | 	add	_var04, #4
04c68     71 DC 00 F6 | 	mov	_var01, _var04
04c6c     70 E2 00 F6 | 	mov	_var04, _var03
04c70     04 E2 84 F1 | 	sub	_var04, #4
04c74     71 E0 00 F6 | 	mov	_var03, _var04
04c78     D8 FF 9F FD | 	jmp	#LR__0230
04c7c                 | LR__0231
04c7c     70 E6 00 F6 | 	mov	_var06, _var03
04c80                 | LR__0232
04c80     00 E6 0C F2 | 	cmp	_var06, #0 wz
04c84     20 00 90 AD |  if_e	jmp	#LR__0234
04c88     6E DE 40 FC | 	wrbyte	_var02, _var01
04c8c     6E E2 00 F6 | 	mov	_var04, _var01
04c90     01 E2 04 F1 | 	add	_var04, #1
04c94     71 DC 00 F6 | 	mov	_var01, _var04
04c98                 | LR__0233
04c98     73 E2 00 F6 | 	mov	_var04, _var06
04c9c     01 E2 84 F1 | 	sub	_var04, #1
04ca0     71 E6 00 F6 | 	mov	_var06, _var04
04ca4     D8 FF 9F FD | 	jmp	#LR__0232
04ca8                 | LR__0234
04ca8                 | __system__bytefill_ret
04ca8     2D 00 64 FD | 	ret
04cac                 | 
04cac                 | __system__bytemove
04cac     93 DC 00 F6 | 	mov	_var01, arg01
04cb0     94 DE 00 F6 | 	mov	_var02, arg02
04cb4     95 E0 00 F6 | 	mov	_var03, arg03
04cb8     00 E2 04 F6 | 	mov	_var04, #0
04cbc     6E E2 00 F6 | 	mov	_var04, _var01
04cc0     6F DC 58 F2 | 	cmps	_var01, _var02 wcz
04cc4     78 00 90 3D |  if_ae	jmp	#LR__0240
04cc8                 | LR__0235
04cc8     03 E0 5C F2 | 	cmps	_var03, #3 wcz
04ccc     30 00 90 ED |  if_be	jmp	#LR__0236
04cd0     6F E4 00 FB | 	rdlong	_var05, _var02
04cd4     6E E4 60 FC | 	wrlong	_var05, _var01
04cd8     6E E4 00 F6 | 	mov	_var05, _var01
04cdc     04 E4 04 F1 | 	add	_var05, #4
04ce0     72 DC 00 F6 | 	mov	_var01, _var05
04ce4     6F E4 00 F6 | 	mov	_var05, _var02
04ce8     04 E4 04 F1 | 	add	_var05, #4
04cec     72 DE 00 F6 | 	mov	_var02, _var05
04cf0     70 E4 00 F6 | 	mov	_var05, _var03
04cf4     04 E4 84 F1 | 	sub	_var05, #4
04cf8     72 E0 00 F6 | 	mov	_var03, _var05
04cfc     C8 FF 9F FD | 	jmp	#LR__0235
04d00                 | LR__0236
04d00     70 E6 00 F6 | 	mov	_var06, _var03
04d04                 | LR__0237
04d04     00 E6 0C F2 | 	cmp	_var06, #0 wz
04d08     30 00 90 AD |  if_e	jmp	#LR__0239
04d0c     6F E4 C0 FA | 	rdbyte	_var05, _var02
04d10     6E E4 40 FC | 	wrbyte	_var05, _var01
04d14     6E E4 00 F6 | 	mov	_var05, _var01
04d18     01 E4 04 F1 | 	add	_var05, #1
04d1c     72 DC 00 F6 | 	mov	_var01, _var05
04d20     6F E4 00 F6 | 	mov	_var05, _var02
04d24     01 E4 04 F1 | 	add	_var05, #1
04d28     72 DE 00 F6 | 	mov	_var02, _var05
04d2c                 | LR__0238
04d2c     73 E4 00 F6 | 	mov	_var05, _var06
04d30     01 E4 84 F1 | 	sub	_var05, #1
04d34     72 E6 00 F6 | 	mov	_var06, _var05
04d38     C8 FF 9F FD | 	jmp	#LR__0237
04d3c                 | LR__0239
04d3c     54 00 90 FD | 	jmp	#LR__0244
04d40                 | LR__0240
04d40     6E E4 00 F6 | 	mov	_var05, _var01
04d44     70 E4 00 F1 | 	add	_var05, _var03
04d48     72 DC 00 F6 | 	mov	_var01, _var05
04d4c     6F E4 00 F6 | 	mov	_var05, _var02
04d50     70 E4 00 F1 | 	add	_var05, _var03
04d54     72 DE 00 F6 | 	mov	_var02, _var05
04d58     70 E8 00 F6 | 	mov	_var07, _var03
04d5c                 | LR__0241
04d5c     00 E8 0C F2 | 	cmp	_var07, #0 wz
04d60     30 00 90 AD |  if_e	jmp	#LR__0243
04d64     6E E4 00 F6 | 	mov	_var05, _var01
04d68     01 E4 84 F1 | 	sub	_var05, #1
04d6c     72 DC 00 F6 | 	mov	_var01, _var05
04d70     6F E4 00 F6 | 	mov	_var05, _var02
04d74     01 E4 84 F1 | 	sub	_var05, #1
04d78     72 DE 00 F6 | 	mov	_var02, _var05
04d7c     6F E4 C0 FA | 	rdbyte	_var05, _var02
04d80     6E E4 40 FC | 	wrbyte	_var05, _var01
04d84                 | LR__0242
04d84     74 E4 00 F6 | 	mov	_var05, _var07
04d88     01 E4 84 F1 | 	sub	_var05, #1
04d8c     72 E8 00 F6 | 	mov	_var07, _var05
04d90     C8 FF 9F FD | 	jmp	#LR__0241
04d94                 | LR__0243
04d94                 | LR__0244
04d94     71 DA 00 F6 | 	mov	result1, _var04
04d98     00 00 90 FD | 	jmp	#__system__bytemove_ret
04d9c                 | __system__bytemove_ret
04d9c     2D 00 64 FD | 	ret
04da0                 | 
04da0                 | __system__longfill
04da0     93 DC 00 F6 | 	mov	_var01, arg01
04da4     94 DE 00 F6 | 	mov	_var02, arg02
04da8     95 E0 00 F6 | 	mov	_var03, arg03
04dac     70 E2 00 F6 | 	mov	_var04, _var03
04db0                 | LR__0245
04db0     00 E2 0C F2 | 	cmp	_var04, #0 wz
04db4     20 00 90 AD |  if_e	jmp	#LR__0247
04db8     6E DE 60 FC | 	wrlong	_var02, _var01
04dbc     6E E4 00 F6 | 	mov	_var05, _var01
04dc0     04 E4 04 F1 | 	add	_var05, #4
04dc4     72 DC 00 F6 | 	mov	_var01, _var05
04dc8                 | LR__0246
04dc8     71 E4 00 F6 | 	mov	_var05, _var04
04dcc     01 E4 84 F1 | 	sub	_var05, #1
04dd0     72 E2 00 F6 | 	mov	_var04, _var05
04dd4     D8 FF 9F FD | 	jmp	#LR__0245
04dd8                 | LR__0247
04dd8                 | __system__longfill_ret
04dd8     2D 00 64 FD | 	ret
04ddc                 | 
04ddc                 | __system__longmove
04ddc     93 DC 00 F6 | 	mov	_var01, arg01
04de0     94 DE 00 F6 | 	mov	_var02, arg02
04de4     95 E0 00 F6 | 	mov	_var03, arg03
04de8     00 E2 04 F6 | 	mov	_var04, #0
04dec     6E E2 00 F6 | 	mov	_var04, _var01
04df0     6F DC 58 F2 | 	cmps	_var01, _var02 wcz
04df4     40 00 90 3D |  if_ae	jmp	#LR__0251
04df8     70 E4 00 F6 | 	mov	_var05, _var03
04dfc                 | LR__0248
04dfc     00 E4 0C F2 | 	cmp	_var05, #0 wz
04e00     30 00 90 AD |  if_e	jmp	#LR__0250
04e04     6F E6 00 FB | 	rdlong	_var06, _var02
04e08     6E E6 60 FC | 	wrlong	_var06, _var01
04e0c     6E E6 00 F6 | 	mov	_var06, _var01
04e10     04 E6 04 F1 | 	add	_var06, #4
04e14     73 DC 00 F6 | 	mov	_var01, _var06
04e18     6F E6 00 F6 | 	mov	_var06, _var02
04e1c     04 E6 04 F1 | 	add	_var06, #4
04e20     73 DE 00 F6 | 	mov	_var02, _var06
04e24                 | LR__0249
04e24     72 E6 00 F6 | 	mov	_var06, _var05
04e28     01 E6 84 F1 | 	sub	_var06, #1
04e2c     73 E4 00 F6 | 	mov	_var05, _var06
04e30     C8 FF 9F FD | 	jmp	#LR__0248
04e34                 | LR__0250
04e34     64 00 90 FD | 	jmp	#LR__0255
04e38                 | LR__0251
04e38     6E E6 00 F6 | 	mov	_var06, _var01
04e3c     70 E8 00 F6 | 	mov	_var07, _var03
04e40     02 E8 64 F0 | 	shl	_var07, #2
04e44     74 E6 00 F1 | 	add	_var06, _var07
04e48     73 DC 00 F6 | 	mov	_var01, _var06
04e4c     6F E6 00 F6 | 	mov	_var06, _var02
04e50     70 E8 00 F6 | 	mov	_var07, _var03
04e54     02 E8 64 F0 | 	shl	_var07, #2
04e58     74 E6 00 F1 | 	add	_var06, _var07
04e5c     73 DE 00 F6 | 	mov	_var02, _var06
04e60     70 EA 00 F6 | 	mov	_var08, _var03
04e64                 | LR__0252
04e64     00 EA 0C F2 | 	cmp	_var08, #0 wz
04e68     30 00 90 AD |  if_e	jmp	#LR__0254
04e6c     6E E6 00 F6 | 	mov	_var06, _var01
04e70     04 E6 84 F1 | 	sub	_var06, #4
04e74     73 DC 00 F6 | 	mov	_var01, _var06
04e78     6F E6 00 F6 | 	mov	_var06, _var02
04e7c     04 E6 84 F1 | 	sub	_var06, #4
04e80     73 DE 00 F6 | 	mov	_var02, _var06
04e84     6F E6 00 FB | 	rdlong	_var06, _var02
04e88     6E E6 60 FC | 	wrlong	_var06, _var01
04e8c                 | LR__0253
04e8c     75 E6 00 F6 | 	mov	_var06, _var08
04e90     01 E6 84 F1 | 	sub	_var06, #1
04e94     73 EA 00 F6 | 	mov	_var08, _var06
04e98     C8 FF 9F FD | 	jmp	#LR__0252
04e9c                 | LR__0254
04e9c                 | LR__0255
04e9c     71 DA 00 F6 | 	mov	result1, _var04
04ea0     00 00 90 FD | 	jmp	#__system__longmove_ret
04ea4                 | __system__longmove_ret
04ea4     2D 00 64 FD | 	ret
04ea8                 | 
04ea8                 | __system____builtin_strlen
04ea8     93 DC 00 F6 | 	mov	_var01, arg01
04eac     00 DE 04 F6 | 	mov	_var02, #0
04eb0     00 DE 04 F6 | 	mov	_var02, #0
04eb4                 | LR__0256
04eb4     6E E0 C0 FA | 	rdbyte	_var03, _var01
04eb8     00 E0 0C F2 | 	cmp	_var03, #0 wz
04ebc     24 00 90 AD |  if_e	jmp	#LR__0257
04ec0     6F E0 00 F6 | 	mov	_var03, _var02
04ec4     6F E2 00 F6 | 	mov	_var04, _var02
04ec8     01 E2 04 F1 | 	add	_var04, #1
04ecc     71 DE 00 F6 | 	mov	_var02, _var04
04ed0     6E E0 00 F6 | 	mov	_var03, _var01
04ed4     6E E2 00 F6 | 	mov	_var04, _var01
04ed8     01 E2 04 F1 | 	add	_var04, #1
04edc     71 DC 00 F6 | 	mov	_var01, _var04
04ee0     D0 FF 9F FD | 	jmp	#LR__0256
04ee4                 | LR__0257
04ee4     6F DA 00 F6 | 	mov	result1, _var02
04ee8     00 00 90 FD | 	jmp	#__system____builtin_strlen_ret
04eec                 | __system____builtin_strlen_ret
04eec     2D 00 64 FD | 	ret
04ef0                 | 
04ef0                 | __system___waitms
04ef0     05 6A 04 F6 | 	mov	COUNT_, #5
04ef4     3C 00 A0 FD | 	call	#pushregs_
04ef8     93 4A 01 F6 | 	mov	local01, arg01
04efc     14 4C 05 FB | 	rdlong	local02, #20
04f00                 | LR__0258
04f00     01 00 00 FF 
04f04     E8 4B 5D F2 | 	cmps	local01, ##1000 wcz
04f08     20 00 90 ED |  if_be	jmp	#LR__0259
04f0c     A6 4E 01 F6 | 	mov	local03, local02
04f10     A7 26 01 F6 | 	mov	arg01, local03
04f14     04 FD BF FD | 	call	#__system___waitx
04f18     A5 4E 01 F6 | 	mov	local03, local01
04f1c     01 00 00 FF 
04f20     E8 4F 85 F1 | 	sub	local03, ##1000
04f24     A7 4A 01 F6 | 	mov	local01, local03
04f28     D4 FF 9F FD | 	jmp	#LR__0258
04f2c                 | LR__0259
04f2c     00 4A 5D F2 | 	cmps	local01, #0 wcz
04f30     28 00 90 ED |  if_be	jmp	#LR__0260
04f34     A6 8C 01 F6 | 	mov	muldiva_, local02
04f38     01 00 00 FF 
04f3c     E8 8F 05 F6 | 	mov	muldivb_, ##1000
04f40     5C 00 A0 FD | 	call	#divide_
04f44     C7 4E 01 F6 | 	mov	local03, muldivb_
04f48     A7 4A 01 FD | 	qmul	local01, local03
04f4c     18 50 61 FD | 	getqx	local04
04f50     A8 52 01 F6 | 	mov	local05, local04
04f54     A9 26 01 F6 | 	mov	arg01, local05
04f58     C0 FC BF FD | 	call	#__system___waitx
04f5c                 | LR__0260
04f5c     37 F0 03 F6 | 	mov	ptra, fp
04f60     4B 00 A0 FD | 	call	#popregs_
04f64                 | __system___waitms_ret
04f64     2D 00 64 FD | 	ret
04f68                 | 
04f68                 | __system___waitus
04f68     05 6A 04 F6 | 	mov	COUNT_, #5
04f6c     3C 00 A0 FD | 	call	#pushregs_
04f70     93 4A 01 F6 | 	mov	local01, arg01
04f74     14 4C 05 FB | 	rdlong	local02, #20
04f78                 | LR__0261
04f78     A1 07 00 FF 
04f7c     40 4A 5D F2 | 	cmps	local01, ##1000000 wcz
04f80     20 00 90 ED |  if_be	jmp	#LR__0262
04f84     A6 4E 01 F6 | 	mov	local03, local02
04f88     A7 26 01 F6 | 	mov	arg01, local03
04f8c     8C FC BF FD | 	call	#__system___waitx
04f90     A5 4E 01 F6 | 	mov	local03, local01
04f94     A1 07 00 FF 
04f98     40 4E 85 F1 | 	sub	local03, ##1000000
04f9c     A7 4A 01 F6 | 	mov	local01, local03
04fa0     D4 FF 9F FD | 	jmp	#LR__0261
04fa4                 | LR__0262
04fa4     00 4A 5D F2 | 	cmps	local01, #0 wcz
04fa8     28 00 90 ED |  if_be	jmp	#LR__0263
04fac     A6 8C 01 F6 | 	mov	muldiva_, local02
04fb0     A1 07 00 FF 
04fb4     40 8E 05 F6 | 	mov	muldivb_, ##1000000
04fb8     5C 00 A0 FD | 	call	#divide_
04fbc     C7 4E 01 F6 | 	mov	local03, muldivb_
04fc0     A7 4A 01 FD | 	qmul	local01, local03
04fc4     18 50 61 FD | 	getqx	local04
04fc8     A8 52 01 F6 | 	mov	local05, local04
04fcc     A9 26 01 F6 | 	mov	arg01, local05
04fd0     48 FC BF FD | 	call	#__system___waitx
04fd4                 | LR__0263
04fd4     37 F0 03 F6 | 	mov	ptra, fp
04fd8     4B 00 A0 FD | 	call	#popregs_
04fdc                 | __system___waitus_ret
04fdc     2D 00 64 FD | 	ret
04fe0                 | 
04fe0                 | LR__0264
04fe0     6D 6F 64 65 | 	byte	"mode"
04fe4     00          | 	byte	0
04fe5                 | LR__0265
04fe5     63 70 6C    | 	byte	"cpl"
04fe8     00          | 	byte	0
04fe9                 | LR__0266
04fe9     62 75 66 70 
04fed     74 72       | 	byte	"bufptr"
04fef     00          | 	byte	0
04ff0                 | LR__0267
04ff0     62 75 66 6C 
04ff4     65 6E       | 	byte	"buflen"
04ff6     00          | 	byte	0
04ff7                 | LR__0268
04ff7     6C 69 6E 65 
04ffb     73          | 	byte	"lines"
04ffc     00          | 	byte	0
04ffd                 | LR__0269
04ffd     6D 6F 64 65 | 	byte	"mode"
05001     00          | 	byte	0
05002                 | LR__0270
05002     63 70 6C    | 	byte	"cpl"
05005     00          | 	byte	0
05006                 | LR__0271
05006     62 75 66 70 
0500a     74 72       | 	byte	"bufptr"
0500c     00          | 	byte	0
0500d                 | LR__0272
0500d     62 75 66 6C 
05011     65 6E       | 	byte	"buflen"
05013     00          | 	byte	0
05014                 | LR__0273
05014     6C 69 6E 65 
05018     73          | 	byte	"lines"
05019     00          | 	byte	0
0501a                 | LR__0274
0501a     6D 6F 64 65 | 	byte	"mode"
0501e     00          | 	byte	0
0501f                 | LR__0275
0501f     63 70 6C    | 	byte	"cpl"
05022     00          | 	byte	0
05023                 | LR__0276
05023     62 75 66 5F 
05027     70 74 72    | 	byte	"buf_ptr"
0502a     00          | 	byte	0
0502b                 | LR__0277
0502b     62 75 66 6C 
0502f     65 6E       | 	byte	"buflen"
05031     00          | 	byte	0
05032                 | LR__0278
05032     6C 69 6E 65 
05036     73          | 	byte	"lines"
05037     00          | 	byte	0
05038                 | LR__0279
05038     6D 6F 64 65 | 	byte	"mode"
0503c     00          | 	byte	0
0503d                 | LR__0280
0503d     63 70 6C    | 	byte	"cpl"
05040     00          | 	byte	0
05041                 | LR__0281
05041     62 75 66 5F 
05045     70 74 72    | 	byte	"buf_ptr"
05048     00          | 	byte	0
05049                 | LR__0282
05049     62 75 66 6C 
0504d     65 6E       | 	byte	"buflen"
0504f     00          | 	byte	0
05050                 | LR__0283
05050     6C 69 6E 65 
05054     73          | 	byte	"lines"
05055     00          | 	byte	0
05056                 | LR__0284
05056     6D 6F 64 65 | 	byte	"mode"
0505a     00          | 	byte	0
0505b                 | LR__0285
0505b     63 70 6C    | 	byte	"cpl"
0505e     00          | 	byte	0
0505f                 | LR__0286
0505f     62 75 66 5F 
05063     70 74 72    | 	byte	"buf_ptr"
05066     00          | 	byte	0
05067                 | LR__0287
05067     62 75 66 6C 
0506b     65 6E       | 	byte	"buflen"
0506d     00          | 	byte	0
0506e                 | LR__0288
0506e     6C 69 6E 65 
05072     73          | 	byte	"lines"
05073     00          | 	byte	0
05074                 | LR__0289
05074     20          | 	byte	" "
05075     00          | 	byte	0
05076     00 00       | 	alignl
05078                 | _dat_
05078     00 00 00 00 
0507c     00 00 00 00 
05080     00 00 00 00 
05084     00 00 00 00 
05088     00 00 00    | vga_font       file "vgafont.def"
0508b     7E 81 A5 81 
0508f     81 BD 99 81 
05093     81 7E 00 00 
05097     00 00 00 00 | 	byte	$7e, $81, $a5, $81, $81, $bd, $99, $81, $81, $7e, $00, $00, $00, $00, $00, $00
0509b     7E FF DB FF 
0509f     FF C3 E7 FF 
050a3     FF 7E 00 00 
050a7     00 00 00 00 | 	byte	$7e, $ff, $db, $ff, $ff, $c3, $e7, $ff, $ff, $7e, $00, $00, $00, $00, $00, $00
050ab     00 36 7F 7F 
050af     7F 7F 3E 1C 
050b3     08 00 00 00 
050b7     00 00 00 00 | 	byte	$00, $36, $7f, $7f, $7f, $7f, $3e, $1c, $08, $00, $00, $00, $00, $00, $00, $00
050bb     00 08 1C 3E 
050bf     7F 3E 1C 08 
050c3     00 00 00 00 
050c7     00 00 00 00 | 	byte	$00, $08, $1c, $3e, $7f, $3e, $1c, $08, $00, $00, $00, $00, $00, $00, $00, $00
050cb     18 3C 3C E7 
050cf     E7 E7 18 18 
050d3     3C 00 00 00 
050d7     00 00 00 00 | 	byte	$18, $3c, $3c, $e7, $e7, $e7, $18, $18, $3c, $00, $00, $00, $00, $00, $00, $00
050db     18 3C 7E FF 
050df     FF 7E 18 18 
050e3     3C 00 00 00 
050e7     00 00 00 00 | 	byte	$18, $3c, $7e, $ff, $ff, $7e, $18, $18, $3c, $00, $00, $00, $00, $00, $00, $00
050eb     00 00 00 18 
050ef     3C 3C 18 00 
050f3     00 00 00 00 
050f7     00 FF FF FF | 	byte	$00, $00, $00, $18, $3c, $3c, $18, $00, $00, $00, $00, $00, $00, $ff, $ff, $ff
050fb     FF FF FF E7 
050ff     C3 C3 E7 FF 
05103     FF FF FF FF 
05107     FF 00 00 00 | 	byte	$ff, $ff, $ff, $e7, $c3, $c3, $e7, $ff, $ff, $ff, $ff, $ff, $ff, $00, $00, $00
0510b     00 00 3C 66 
0510f     42 42 66 3C 
05113     00 00 00 00 
05117     00 FF FF FF | 	byte	$00, $00, $3c, $66, $42, $42, $66, $3c, $00, $00, $00, $00, $00, $ff, $ff, $ff
0511b     FF FF C3 99 
0511f     BD BD 99 C3 
05123     FF FF FF FF 
05127     FF 00 00 00 | 	byte	$ff, $ff, $c3, $99, $bd, $bd, $99, $c3, $ff, $ff, $ff, $ff, $ff, $00, $00, $00
0512b     78 70 58 4C 
0512f     1E 33 33 33 
05133     33 1E 00 00 
05137     00 00 00 00 | 	byte	$78, $70, $58, $4c, $1e, $33, $33, $33, $33, $1e, $00, $00, $00, $00, $00, $00
0513b     3C 66 66 66 
0513f     66 3C 18 7E 
05143     18 18 00 00 
05147     00 00 00 00 | 	byte	$3c, $66, $66, $66, $66, $3c, $18, $7e, $18, $18, $00, $00, $00, $00, $00, $00
0514b     FC CC FC 0C 
0514f     0C 0C 0C 0E 
05153     0F 07 00 00 
05157     00 00 00 00 | 	byte	$fc, $cc, $fc, $0c, $0c, $0c, $0c, $0e, $0f, $07, $00, $00, $00, $00, $00, $00
0515b     FE C6 FE C6 
0515f     C6 C6 C6 E6 
05163     E7 67 03 00 
05167     00 00 00 00 | 	byte	$fe, $c6, $fe, $c6, $c6, $c6, $c6, $e6, $e7, $67, $03, $00, $00, $00, $00, $00
0516b     18 18 DB 3C 
0516f     E7 3C DB 18 
05173     18 00 00 00 
05177     00 00 00 01 | 	byte	$18, $18, $db, $3c, $e7, $3c, $db, $18, $18, $00, $00, $00, $00, $00, $00, $01
0517b     03 07 0F 1F 
0517f     7F 1F 0F 07 
05183     03 01 00 00 
05187     00 00 00 40 | 	byte	$03, $07, $0f, $1f, $7f, $1f, $0f, $07, $03, $01, $00, $00, $00, $00, $00, $40
0518b     60 70 78 7C 
0518f     7F 7C 78 70 
05193     60 40 00 00 
05197     00 00 00 00 | 	byte	$60, $70, $78, $7c, $7f, $7c, $78, $70, $60, $40, $00, $00, $00, $00, $00, $00
0519b     18 3C 7E 18 
0519f     18 18 7E 3C 
051a3     18 00 00 00 
051a7     00 00 00 00 | 	byte	$18, $3c, $7e, $18, $18, $18, $7e, $3c, $18, $00, $00, $00, $00, $00, $00, $00
051ab     66 66 66 66 
051af     66 66 66    | 	byte	$66[7]
051b2     00 66 66 00 
051b6     00 00 00 00 
051ba     00 FE DB DB 
051be     DB DE D8 D8 | 	byte	$00, $66, $66, $00, $00, $00, $00, $00, $00, $fe, $db, $db, $db, $de, $d8, $d8
051c2     D8 D8 D8 00 
051c6     00 00 00 3E 
051ca     63 06 1C 36 
051ce     63 63 36 1C | 	byte	$d8, $d8, $d8, $00, $00, $00, $00, $3e, $63, $06, $1c, $36, $63, $63, $36, $1c
051d2     30 63 3E 00 
051d6     00 00 00 00 
051da     00 00 00 00 
051de     00 00 00 7F | 	byte	$30, $63, $3e, $00, $00, $00, $00, $00, $00, $00, $00, $00, $00, $00, $00, $7f
051e2     7F 7F 7F 00 
051e6     00 00 00 00 
051ea     00 18 3C 7E 
051ee     18 18 18 7E | 	byte	$7f, $7f, $7f, $00, $00, $00, $00, $00, $00, $18, $3c, $7e, $18, $18, $18, $7e
051f2     3C 18 7E 00 
051f6     00 00 00 00 
051fa     00 18 3C 7E 
051fe     18 18 18 18 | 	byte	$3c, $18, $7e, $00, $00, $00, $00, $00, $00, $18, $3c, $7e, $18, $18, $18, $18
05202     18 18 18 00 
05206     00 00 00 00 
0520a     00 18 18 18 
0520e     18 18 18 18 | 	byte	$18, $18, $18, $00, $00, $00, $00, $00, $00, $18, $18, $18, $18, $18, $18, $18
05212     7E 3C 18 00 
05216     00 00 00 00 
0521a     00 00 00 18 
0521e     30 7F 30 18 | 	byte	$7e, $3c, $18, $00, $00, $00, $00, $00, $00, $00, $00, $18, $30, $7f, $30, $18
05222     00 00 00 00 
05226     00 00 00 00 
0522a     00 00 00    | 	byte	$00[11]
0522d     0C 06 7F 06 
05231     0C 00 00 00 
05235     00 00 00 00 
05239     00 00 00 00 | 	byte	$0c, $06, $7f, $06, $0c, $00, $00, $00, $00, $00, $00, $00, $00, $00, $00, $00
0523d     00 03 03 03 
05241     7F 00 00 00 
05245     00 00 00 00 
05249     00 00 00 00 | 	byte	$00, $03, $03, $03, $7f, $00, $00, $00, $00, $00, $00, $00, $00, $00, $00, $00
0524d     14 36 7F 36 
05251     14 00 00 00 
05255     00 00 00 00 
05259     00 00 00 08 | 	byte	$14, $36, $7f, $36, $14, $00, $00, $00, $00, $00, $00, $00, $00, $00, $00, $08
0525d     1C 1C 3E 3E 
05261     7F 7F 00 00 
05265     00 00 00 00 
05269     00 00 00 7F | 	byte	$1c, $1c, $3e, $3e, $7f, $7f, $00, $00, $00, $00, $00, $00, $00, $00, $00, $7f
0526d     7F 3E 3E 1C 
05271     1C 08 00 00 
05275     00 00 00 00 
05279     00 00 00 00 | 	byte	$7f, $3e, $3e, $1c, $1c, $08, $00, $00, $00, $00, $00, $00, $00, $00, $00, $00
0527d     00 00 00 00 
05281     00 00 00 00 
05285     00 00 00 00 
05289     00 00       | 	byte	$00[14]
0528b     18 3C 3C 3C 
0528f     18 18 18 00 
05293     18 18 00 00 
05297     00 00 66 66 | 	byte	$18, $3c, $3c, $3c, $18, $18, $18, $00, $18, $18, $00, $00, $00, $00, $66, $66
0529b     66 24 00 00 
0529f     00 00 00 00 
052a3     00 00 00 00 
052a7     00 00 00 00 | 	byte	$66, $24, $00, $00, $00, $00, $00, $00, $00, $00, $00, $00, $00, $00, $00, $00
052ab     00 36 36 7F 
052af     36 36 36 7F 
052b3     36 36 00 00 
052b7     00 00 18 18 | 	byte	$00, $36, $36, $7f, $36, $36, $36, $7f, $36, $36, $00, $00, $00, $00, $18, $18
052bb     3E 63 43 03 
052bf     3E 60 60 61 
052c3     63 3E 18 18 
052c7     00 00 00 00 | 	byte	$3e, $63, $43, $03, $3e, $60, $60, $61, $63, $3e, $18, $18, $00, $00, $00, $00
052cb     00 00 43 63 
052cf     30 18 0C 06 
052d3     63 61 00 00 
052d7     00 00 00 00 | 	byte	$00, $00, $43, $63, $30, $18, $0c, $06, $63, $61, $00, $00, $00, $00, $00, $00
052db     1C 36 36 1C 
052df     6E 3B 33 33 
052e3     33 6E 00 00 
052e7     00 00 00 00 | 	byte	$1c, $36, $36, $1c, $6e, $3b, $33, $33, $33, $6e, $00, $00, $00, $00, $00, $00
052eb     0C 0C 0C 06 
052ef     00 00 00 00 
052f3     00 00 00 00 
052f7     00 00 00 00 | 	byte	$0c, $0c, $0c, $06, $00, $00, $00, $00, $00, $00, $00, $00, $00, $00, $00, $00
052fb     30 18 0C 0C 
052ff     0C 0C 0C 0C 
05303     18 30 00 00 
05307     00 00 00 00 | 	byte	$30, $18, $0c, $0c, $0c, $0c, $0c, $0c, $18, $30, $00, $00, $00, $00, $00, $00
0530b     0C 18 30 30 
0530f     30 30 30 30 
05313     18 0C 00 00 
05317     00 00 00 00 | 	byte	$0c, $18, $30, $30, $30, $30, $30, $30, $18, $0c, $00, $00, $00, $00, $00, $00
0531b     00 00 00 66 
0531f     3C FF 3C 66 
05323     00 00 00 00 
05327     00 00 00 00 | 	byte	$00, $00, $00, $66, $3c, $ff, $3c, $66, $00, $00, $00, $00, $00, $00, $00, $00
0532b     00 00 00 18 
0532f     18 7E 18 18 
05333     00 00 00 00 
05337     00 00 00 00 | 	byte	$00, $00, $00, $18, $18, $7e, $18, $18, $00, $00, $00, $00, $00, $00, $00, $00
0533b     00 00 00 00 
0533f     00 00 00 00 | 	byte	$00[8]
05343     18 18 18 0C 
05347     00 00 00 00 
0534b     00 00 00 00 
0534f     00 7F 00 00 | 	byte	$18, $18, $18, $0c, $00, $00, $00, $00, $00, $00, $00, $00, $00, $7f, $00, $00
05353     00 00 00 00 
05357     00 00 00 00 
0535b     00 00 00 00 
0535f     00 00 00 00 | 	byte	$00[16]
05363     18 18 00 00 
05367     00 00 00 00 
0536b     00 00 40 60 
0536f     30 18 0C 06 | 	byte	$18, $18, $00, $00, $00, $00, $00, $00, $00, $00, $40, $60, $30, $18, $0c, $06
05373     03 01 00 00 
05377     00 00 00 00 
0537b     1C 36 63 63 
0537f     6B 6B 63 63 | 	byte	$03, $01, $00, $00, $00, $00, $00, $00, $1c, $36, $63, $63, $6b, $6b, $63, $63
05383     36 1C 00 00 
05387     00 00 00 00 
0538b     18 1C 1E 18 
0538f     18 18 18 18 | 	byte	$36, $1c, $00, $00, $00, $00, $00, $00, $18, $1c, $1e, $18, $18, $18, $18, $18
05393     18 7E 00 00 
05397     00 00 00 00 
0539b     3E 63 60 30 
0539f     18 0C 06 03 | 	byte	$18, $7e, $00, $00, $00, $00, $00, $00, $3e, $63, $60, $30, $18, $0c, $06, $03
053a3     63 7F 00 00 
053a7     00 00 00 00 
053ab     3E 63 60 60 
053af     3C 60 60 60 | 	byte	$63, $7f, $00, $00, $00, $00, $00, $00, $3e, $63, $60, $60, $3c, $60, $60, $60
053b3     63 3E 00 00 
053b7     00 00 00 00 
053bb     30 38 3C 36 
053bf     33 7F 30 30 | 	byte	$63, $3e, $00, $00, $00, $00, $00, $00, $30, $38, $3c, $36, $33, $7f, $30, $30
053c3     30 78 00 00 
053c7     00 00 00 00 
053cb     7F 03 03 03 
053cf     3F 60 60 60 | 	byte	$30, $78, $00, $00, $00, $00, $00, $00, $7f, $03, $03, $03, $3f, $60, $60, $60
053d3     63 3E 00 00 
053d7     00 00 00 00 
053db     1C 06 03 03 
053df     3F 63 63 63 | 	byte	$63, $3e, $00, $00, $00, $00, $00, $00, $1c, $06, $03, $03, $3f, $63, $63, $63
053e3     63 3E 00 00 
053e7     00 00 00 00 
053eb     7F 63 60 60 
053ef     30 18 0C 0C | 	byte	$63, $3e, $00, $00, $00, $00, $00, $00, $7f, $63, $60, $60, $30, $18, $0c, $0c
053f3     0C 0C 00 00 
053f7     00 00 00 00 
053fb     3E 63 63 63 
053ff     3E 63 63 63 | 	byte	$0c, $0c, $00, $00, $00, $00, $00, $00, $3e, $63, $63, $63, $3e, $63, $63, $63
05403     63 3E 00 00 
05407     00 00 00 00 
0540b     3E 63 63 63 
0540f     7E 60 60 60 | 	byte	$63, $3e, $00, $00, $00, $00, $00, $00, $3e, $63, $63, $63, $7e, $60, $60, $60
05413     30 1E 00 00 
05417     00 00 00 00 
0541b     00 00 00 18 
0541f     18 00 00 00 | 	byte	$30, $1e, $00, $00, $00, $00, $00, $00, $00, $00, $00, $18, $18, $00, $00, $00
05423     18 18 00 00 
05427     00 00 00 00 
0542b     00 00 00 18 
0542f     18 00 00 00 | 	byte	$18, $18, $00, $00, $00, $00, $00, $00, $00, $00, $00, $18, $18, $00, $00, $00
05433     18 18 0C 00 
05437     00 00 00 00 
0543b     00 60 30 18 
0543f     0C 06 0C 18 | 	byte	$18, $18, $0c, $00, $00, $00, $00, $00, $00, $60, $30, $18, $0c, $06, $0c, $18
05443     30 60 00 00 
05447     00 00 00 00 
0544b     00 00 00 7E 
0544f     00 00 7E 00 | 	byte	$30, $60, $00, $00, $00, $00, $00, $00, $00, $00, $00, $7e, $00, $00, $7e, $00
05453     00 00 00 00 
05457     00 00 00 00 
0545b     00          | 	byte	$00[9]
0545c     06 0C 18 30 
05460     60 30 18 0C 
05464     06 00 00 00 
05468     00 00 00 3E | 	byte	$06, $0c, $18, $30, $60, $30, $18, $0c, $06, $00, $00, $00, $00, $00, $00, $3e
0546c     63 63 30 18 
05470     18 18 00 18 
05474     18 00 00 00 
05478     00 00 00 00 | 	byte	$63, $63, $30, $18, $18, $18, $00, $18, $18, $00, $00, $00, $00, $00, $00, $00
0547c     3E 63 63 7B 
05480     7B 7B 3B 03 
05484     3E 00 00 00 
05488     00 00 00 08 | 	byte	$3e, $63, $63, $7b, $7b, $7b, $3b, $03, $3e, $00, $00, $00, $00, $00, $00, $08
0548c     1C 36 63 63 
05490     7F 63 63 63 
05494     63 00 00 00 
05498     00 00 00 3F | 	byte	$1c, $36, $63, $63, $7f, $63, $63, $63, $63, $00, $00, $00, $00, $00, $00, $3f
0549c     66 66 66 3E 
054a0     66 66 66 66 
054a4     3F 00 00 00 
054a8     00 00 00 3C | 	byte	$66, $66, $66, $3e, $66, $66, $66, $66, $3f, $00, $00, $00, $00, $00, $00, $3c
054ac     66 43 03 03 
054b0     03 03 43 66 
054b4     3C 00 00 00 
054b8     00 00 00 1F | 	byte	$66, $43, $03, $03, $03, $03, $43, $66, $3c, $00, $00, $00, $00, $00, $00, $1f
054bc     36 66 66 66 
054c0     66 66 66 36 
054c4     1F 00 00 00 
054c8     00 00 00 7F | 	byte	$36, $66, $66, $66, $66, $66, $66, $36, $1f, $00, $00, $00, $00, $00, $00, $7f
054cc     66 46 16 1E 
054d0     16 06 46 66 
054d4     7F 00 00 00 
054d8     00 00 00 7F | 	byte	$66, $46, $16, $1e, $16, $06, $46, $66, $7f, $00, $00, $00, $00, $00, $00, $7f
054dc     66 46 16 1E 
054e0     16 06 06 06 
054e4     0F 00 00 00 
054e8     00 00 00 3C | 	byte	$66, $46, $16, $1e, $16, $06, $06, $06, $0f, $00, $00, $00, $00, $00, $00, $3c
054ec     66 43 03 03 
054f0     7B 63 63 66 
054f4     5C 00 00 00 
054f8     00 00 00 63 | 	byte	$66, $43, $03, $03, $7b, $63, $63, $66, $5c, $00, $00, $00, $00, $00, $00, $63
054fc     63 63 63 7F 
05500     63 63 63 63 
05504     63 00 00 00 
05508     00 00 00 3C | 	byte	$63, $63, $63, $7f, $63, $63, $63, $63, $63, $00, $00, $00, $00, $00, $00, $3c
0550c     18 18 18 18 
05510     18 18 18 18 | 	byte	$18[8]
05514     3C 00 00 00 
05518     00 00 00 78 
0551c     30 30 30 30 
05520     30 33 33 33 | 	byte	$3c, $00, $00, $00, $00, $00, $00, $78, $30, $30, $30, $30, $30, $33, $33, $33
05524     1E 00 00 00 
05528     00 00 00 67 
0552c     66 66 36 1E 
05530     1E 36 66 66 | 	byte	$1e, $00, $00, $00, $00, $00, $00, $67, $66, $66, $36, $1e, $1e, $36, $66, $66
05534     67 00 00 00 
05538     00 00 00 0F 
0553c     06 06 06 06 
05540     06 06 46 66 | 	byte	$67, $00, $00, $00, $00, $00, $00, $0f, $06, $06, $06, $06, $06, $06, $46, $66
05544     7F 00 00 00 
05548     00 00 00 63 
0554c     77 7F 7F 6B 
05550     63 63 63 63 | 	byte	$7f, $00, $00, $00, $00, $00, $00, $63, $77, $7f, $7f, $6b, $63, $63, $63, $63
05554     63 00 00 00 
05558     00 00 00 63 
0555c     67 6F 7F 7B 
05560     73 63 63 63 | 	byte	$63, $00, $00, $00, $00, $00, $00, $63, $67, $6f, $7f, $7b, $73, $63, $63, $63
05564     63 00 00 00 
05568     00 00 00 3E 
0556c     63 63 63 63 
05570     63 63 63 63 | 	byte	$63, $00, $00, $00, $00, $00, $00, $3e, $63, $63, $63, $63, $63, $63, $63, $63
05574     3E 00 00 00 
05578     00 00 00 3F 
0557c     66 66 66 3E 
05580     06 06 06 06 | 	byte	$3e, $00, $00, $00, $00, $00, $00, $3f, $66, $66, $66, $3e, $06, $06, $06, $06
05584     0F 00 00 00 
05588     00 00 00 3E 
0558c     63 63 63 63 
05590     63 63 6B 7B | 	byte	$0f, $00, $00, $00, $00, $00, $00, $3e, $63, $63, $63, $63, $63, $63, $6b, $7b
05594     3E 30 70 00 
05598     00 00 00 3F 
0559c     66 66 66 3E 
055a0     36 66 66 66 | 	byte	$3e, $30, $70, $00, $00, $00, $00, $3f, $66, $66, $66, $3e, $36, $66, $66, $66
055a4     67 00 00 00 
055a8     00 00 00 3E 
055ac     63 63 06 1C 
055b0     30 60 63 63 | 	byte	$67, $00, $00, $00, $00, $00, $00, $3e, $63, $63, $06, $1c, $30, $60, $63, $63
055b4     3E 00 00 00 
055b8     00 00 00 7E 
055bc     7E 5A 18 18 
055c0     18 18 18 18 | 	byte	$3e, $00, $00, $00, $00, $00, $00, $7e, $7e, $5a, $18, $18, $18, $18, $18, $18
055c4     3C 00 00 00 
055c8     00 00 00 63 
055cc     63 63 63 63 
055d0     63 63 63 63 | 	byte	$3c, $00, $00, $00, $00, $00, $00, $63, $63, $63, $63, $63, $63, $63, $63, $63
055d4     3E 00 00 00 
055d8     00 00 00 63 
055dc     63 63 63 63 
055e0     63 63 36 1C | 	byte	$3e, $00, $00, $00, $00, $00, $00, $63, $63, $63, $63, $63, $63, $63, $36, $1c
055e4     08 00 00 00 
055e8     00 00 00 63 
055ec     63 63 63 6B 
055f0     6B 6B 7F 77 | 	byte	$08, $00, $00, $00, $00, $00, $00, $63, $63, $63, $63, $6b, $6b, $6b, $7f, $77
055f4     36 00 00 00 
055f8     00 00 00 63 
055fc     63 36 3E 1C 
05600     1C 3E 36 63 | 	byte	$36, $00, $00, $00, $00, $00, $00, $63, $63, $36, $3e, $1c, $1c, $3e, $36, $63
05604     63 00 00 00 
05608     00 00 00 66 
0560c     66 66 66 3C 
05610     18 18 18 18 | 	byte	$63, $00, $00, $00, $00, $00, $00, $66, $66, $66, $66, $3c, $18, $18, $18, $18
05614     3C 00 00 00 
05618     00 00 00 7F 
0561c     63 61 30 18 
05620     0C 06 43 63 | 	byte	$3c, $00, $00, $00, $00, $00, $00, $7f, $63, $61, $30, $18, $0c, $06, $43, $63
05624     7F 00 00 00 
05628     00 00 00 3C 
0562c     0C 0C 0C 0C 
05630     0C 0C 0C 0C | 	byte	$7f, $00, $00, $00, $00, $00, $00, $3c, $0c, $0c, $0c, $0c, $0c, $0c, $0c, $0c
05634     3C 00 00 00 
05638     00 00 00 00 
0563c     01 03 07 0E 
05640     1C 38 70 60 | 	byte	$3c, $00, $00, $00, $00, $00, $00, $00, $01, $03, $07, $0e, $1c, $38, $70, $60
05644     40 00 00 00 
05648     00 00 00 3C 
0564c     30 30 30 30 
05650     30 30 30 30 | 	byte	$40, $00, $00, $00, $00, $00, $00, $3c, $30, $30, $30, $30, $30, $30, $30, $30
05654     3C 00 00 00 
05658     1C 36 00 00 
0565c     00 00 00 00 
05660     00 00 00 00 | 	byte	$3c, $00, $00, $00, $1c, $36, $00, $00, $00, $00, $00, $00, $00, $00, $00, $00
05664     00 00 00 00 
05668     00 00 00 00 
0566c     00 00 00 00 
05670     00 00 00 00 
05674     00          | 	byte	$00[17]
05675     FF 00 00 0C 
05679     18 00 00 00 
0567d     00 00 00 00 
05681     00 00 00 00 | 	byte	$ff, $00, $00, $0c, $18, $00, $00, $00, $00, $00, $00, $00, $00, $00, $00, $00
05685     00 00 00 00 
05689     00 00 00 00 
0568d     00          | 	byte	$00[9]
0568e     1E 30 3E 33 
05692     33 33 6E 00 
05696     00 00 00 00 
0569a     00 07 06 06 | 	byte	$1e, $30, $3e, $33, $33, $33, $6e, $00, $00, $00, $00, $00, $00, $07, $06, $06
0569e     1E 36 66 66 
056a2     66 66 3E 00 
056a6     00 00 00 00 
056aa     00 00 00 00 | 	byte	$1e, $36, $66, $66, $66, $66, $3e, $00, $00, $00, $00, $00, $00, $00, $00, $00
056ae     3E 63 03 03 
056b2     03 63 3E 00 
056b6     00 00 00 00 
056ba     00 38 30 30 | 	byte	$3e, $63, $03, $03, $03, $63, $3e, $00, $00, $00, $00, $00, $00, $38, $30, $30
056be     3C 36 33 33 
056c2     33 33 6E 00 
056c6     00 00 00 00 
056ca     00 00 00 00 | 	byte	$3c, $36, $33, $33, $33, $33, $6e, $00, $00, $00, $00, $00, $00, $00, $00, $00
056ce     3E 63 7F 03 
056d2     03 63 3E 00 
056d6     00 00 00 00 
056da     00 38 6C 4C | 	byte	$3e, $63, $7f, $03, $03, $63, $3e, $00, $00, $00, $00, $00, $00, $38, $6c, $4c
056de     0C 1E 0C 0C 
056e2     0C 0C 1E 00 
056e6     00 00 00 00 
056ea     00 00 00 00 | 	byte	$0c, $1e, $0c, $0c, $0c, $0c, $1e, $00, $00, $00, $00, $00, $00, $00, $00, $00
056ee     6E 33 33 33 
056f2     33 33 3E 30 
056f6     33 1E 00 00 
056fa     00 07 06 06 | 	byte	$6e, $33, $33, $33, $33, $33, $3e, $30, $33, $1e, $00, $00, $00, $07, $06, $06
056fe     36 6E 66 66 
05702     66 66 67 00 
05706     00 00 00 00 
0570a     00 18 18 00 | 	byte	$36, $6e, $66, $66, $66, $66, $67, $00, $00, $00, $00, $00, $00, $18, $18, $00
0570e     1C 18 18 18 
05712     18 18 3C 00 
05716     00 00 00 00 
0571a     00 60 60 00 | 	byte	$1c, $18, $18, $18, $18, $18, $3c, $00, $00, $00, $00, $00, $00, $60, $60, $00
0571e     70 60 60 60 
05722     60 60 60 66 
05726     66 3C 00 00 
0572a     00 07 06 06 | 	byte	$70, $60, $60, $60, $60, $60, $60, $66, $66, $3c, $00, $00, $00, $07, $06, $06
0572e     66 36 1E 1E 
05732     36 66 67 00 
05736     00 00 00 00 
0573a     00 1C 18 18 | 	byte	$66, $36, $1e, $1e, $36, $66, $67, $00, $00, $00, $00, $00, $00, $1c, $18, $18
0573e     18 18 18 18 
05742     18 18       | 	byte	$18[6]
05744     3C 00 00 00 
05748     00 00 00 00 
0574c     00 00 37 7F 
05750     6B 6B 6B 6B | 	byte	$3c, $00, $00, $00, $00, $00, $00, $00, $00, $00, $37, $7f, $6b, $6b, $6b, $6b
05754     63 00 00 00 
05758     00 00 00 00 
0575c     00 00 3B 66 
05760     66 66 66 66 | 	byte	$63, $00, $00, $00, $00, $00, $00, $00, $00, $00, $3b, $66, $66, $66, $66, $66
05764     66 00 00 00 
05768     00 00 00 00 
0576c     00 00 3E 63 
05770     63 63 63 63 | 	byte	$66, $00, $00, $00, $00, $00, $00, $00, $00, $00, $3e, $63, $63, $63, $63, $63
05774     3E 00 00 00 
05778     00 00 00 00 
0577c     00 00 3B 66 
05780     66 66 66 66 | 	byte	$3e, $00, $00, $00, $00, $00, $00, $00, $00, $00, $3b, $66, $66, $66, $66, $66
05784     3E 06 06 0F 
05788     00 00 00 00 
0578c     00 00 6E 33 
05790     33 33 33 33 | 	byte	$3e, $06, $06, $0f, $00, $00, $00, $00, $00, $00, $6e, $33, $33, $33, $33, $33
05794     3E 30 30 78 
05798     00 00 00 00 
0579c     00 00 3B 6E 
057a0     66 06 06 06 | 	byte	$3e, $30, $30, $78, $00, $00, $00, $00, $00, $00, $3b, $6e, $66, $06, $06, $06
057a4     0F 00 00 00 
057a8     00 00 00 00 
057ac     00 00 3E 63 
057b0     06 1C 30 63 | 	byte	$0f, $00, $00, $00, $00, $00, $00, $00, $00, $00, $3e, $63, $06, $1c, $30, $63
057b4     3E 00 00 00 
057b8     00 00 00 08 
057bc     0C 0C 3F 0C 
057c0     0C 0C 0C 6C | 	byte	$3e, $00, $00, $00, $00, $00, $00, $08, $0c, $0c, $3f, $0c, $0c, $0c, $0c, $6c
057c4     38 00 00 00 
057c8     00 00 00 00 
057cc     00 00 33 33 
057d0     33 33 33 33 | 	byte	$38, $00, $00, $00, $00, $00, $00, $00, $00, $00, $33, $33, $33, $33, $33, $33
057d4     6E 00 00 00 
057d8     00 00 00 00 
057dc     00 00 63 63 
057e0     63 63 63 36 | 	byte	$6e, $00, $00, $00, $00, $00, $00, $00, $00, $00, $63, $63, $63, $63, $63, $36
057e4     1C 00 00 00 
057e8     00 00 00 00 
057ec     00 00 63 63 
057f0     6B 6B 6B 7F | 	byte	$1c, $00, $00, $00, $00, $00, $00, $00, $00, $00, $63, $63, $6b, $6b, $6b, $7f
057f4     36 00 00 00 
057f8     00 00 00 00 
057fc     00 00 63 36 
05800     1C 1C 1C 36 | 	byte	$36, $00, $00, $00, $00, $00, $00, $00, $00, $00, $63, $36, $1c, $1c, $1c, $36
05804     63 00 00 00 
05808     00 00 00 00 
0580c     00 00 63 63 
05810     63 63 63 63 | 	byte	$63, $00, $00, $00, $00, $00, $00, $00, $00, $00, $63, $63, $63, $63, $63, $63
05814     7E 60 30 1F 
05818     00 00 00 00 
0581c     00 00 7F 33 
05820     18 0C 06 63 | 	byte	$7e, $60, $30, $1f, $00, $00, $00, $00, $00, $00, $7f, $33, $18, $0c, $06, $63
05824     7F 00 00 00 
05828     00 00 00 70 
0582c     18 18 18 0E 
05830     18 18 18 18 | 	byte	$7f, $00, $00, $00, $00, $00, $00, $70, $18, $18, $18, $0e, $18, $18, $18, $18
05834     70 00 00 00 
05838     00 00 00 18 
0583c     18 18 18 18 
05840     18 18 18 18 | 	byte	$70, $00, $00, $00, $00, $00, $00, $18, $18, $18, $18, $18, $18, $18, $18, $18
05844     18 00 00 00 
05848     00 00 00 0E 
0584c     18 18 18 70 
05850     18 18 18 18 | 	byte	$18, $00, $00, $00, $00, $00, $00, $0e, $18, $18, $18, $70, $18, $18, $18, $18
05854     0E 00 00 00 
05858     6E 3B 00 00 
0585c     00 00 00 00 
05860     00 00 00 00 | 	byte	$0e, $00, $00, $00, $6e, $3b, $00, $00, $00, $00, $00, $00, $00, $00, $00, $00
05864     00 00 00 00 
05868     00 00 00 00 
0586c     00 00       | 	byte	$00[10]
0586e     08 1C 36 63 
05872     63 63 7F 00 
05876     00 00 00 00 
0587a     00 3C 66 43 | 	byte	$08, $1c, $36, $63, $63, $63, $7f, $00, $00, $00, $00, $00, $00, $3c, $66, $43
0587e     03 03 03 03 
05882     43 66 3C 18 
05886     30 1E 00 00 
0588a     00 00 33 00 | 	byte	$03, $03, $03, $03, $43, $66, $3c, $18, $30, $1e, $00, $00, $00, $00, $33, $00
0588e     33 33 33 33 
05892     33 33       | 	byte	$33[6]
05894     6E 00 00 00 
05898     00 00 60 30 
0589c     18 00 3E 63 
058a0     7F 03 03 63 | 	byte	$6e, $00, $00, $00, $00, $00, $60, $30, $18, $00, $3e, $63, $7f, $03, $03, $63
058a4     3E 00 00 00 
058a8     00 00 08 1C 
058ac     36 00 1E 30 
058b0     3E 33 33 33 | 	byte	$3e, $00, $00, $00, $00, $00, $08, $1c, $36, $00, $1e, $30, $3e, $33, $33, $33
058b4     6E 00 00 00 
058b8     00 00 00 00 
058bc     33 00 1E 30 
058c0     3E 33 33 33 | 	byte	$6e, $00, $00, $00, $00, $00, $00, $00, $33, $00, $1e, $30, $3e, $33, $33, $33
058c4     6E 00 00 00 
058c8     00 00 1C 36 
058cc     1C 00 33 33 
058d0     33 33 33 33 | 	byte	$6e, $00, $00, $00, $00, $00, $1c, $36, $1c, $00, $33, $33, $33, $33, $33, $33
058d4     6E 00 00 00 
058d8     00 00 60 30 
058dc     18 00 3E 63 
058e0     03 03 03 63 | 	byte	$6e, $00, $00, $00, $00, $00, $60, $30, $18, $00, $3e, $63, $03, $03, $03, $63
058e4     3E 00 00 00 
058e8     00 00 00 00 
058ec     00 00 3E 63 
058f0     03 03 03 63 | 	byte	$3e, $00, $00, $00, $00, $00, $00, $00, $00, $00, $3e, $63, $03, $03, $03, $63
058f4     3E 18 30 1E 
058f8     00 00 00 1C 
058fc     58 78 38 18 
05900     1C 1E 1A 18 | 	byte	$3e, $18, $30, $1e, $00, $00, $00, $1c, $58, $78, $38, $18, $1c, $1e, $1a, $18
05904     3C 00 00 00 
05908     00 00 00 00 
0590c     63 00 3E 63 
05910     7F 03 03 63 | 	byte	$3c, $00, $00, $00, $00, $00, $00, $00, $63, $00, $3e, $63, $7f, $03, $03, $63
05914     3E 00 00 00 
05918     66 33 00 3E 
0591c     63 63 63 63 
05920     63 63 63 63 | 	byte	$3e, $00, $00, $00, $66, $33, $00, $3e, $63, $63, $63, $63, $63, $63, $63, $63
05924     3E 00 00 00 
05928     00 00 CC 66 
0592c     33 00 3E 63 
05930     63 63 63 63 | 	byte	$3e, $00, $00, $00, $00, $00, $cc, $66, $33, $00, $3e, $63, $63, $63, $63, $63
05934     3E 00 00 00 
05938     00 00 18 3C 
0593c     66 00 1C 18 
05940     18 18 18 18 | 	byte	$3e, $00, $00, $00, $00, $00, $18, $3c, $66, $00, $1c, $18, $18, $18, $18, $18
05944     3C 00 00 00 
05948     30 18 00 7F 
0594c     63 61 30 18 
05950     0C 06 43 63 | 	byte	$3c, $00, $00, $00, $30, $18, $00, $7f, $63, $61, $30, $18, $0c, $06, $43, $63
05954     7F 00 00 00 
05958     00 63 00 08 
0595c     1C 36 63 63 
05960     7F 63 63 63 | 	byte	$7f, $00, $00, $00, $00, $63, $00, $08, $1c, $36, $63, $63, $7f, $63, $63, $63
05964     63 00 00 00 
05968     30 18 00 3C 
0596c     66 43 03 03 
05970     03 03 43 66 | 	byte	$63, $00, $00, $00, $30, $18, $00, $3c, $66, $43, $03, $03, $03, $03, $43, $66
05974     3C 00 00 00 
05978     30 18 00 7F 
0597c     66 46 16 1E 
05980     16 06 46 66 | 	byte	$3c, $00, $00, $00, $30, $18, $00, $7f, $66, $46, $16, $1e, $16, $06, $46, $66
05984     7F 00 00 00 
05988     0C 06 00 0F 
0598c     06 06 06 06 
05990     06 06 46 66 | 	byte	$7f, $00, $00, $00, $0c, $06, $00, $0f, $06, $06, $06, $06, $06, $06, $46, $66
05994     7F 00 00 00 
05998     30 18 00 1C 
0599c     18 18 18 18 
059a0     18 18 18 18 | 	byte	$7f, $00, $00, $00, $30, $18, $00, $1c, $18, $18, $18, $18, $18, $18, $18, $18
059a4     3C 00 00 00 
059a8     00 00 08 1C 
059ac     36 00 3E 63 
059b0     63 63 63 63 | 	byte	$3c, $00, $00, $00, $00, $00, $08, $1c, $36, $00, $3e, $63, $63, $63, $63, $63
059b4     3E 00 00 00 
059b8     00 00 00 00 
059bc     63 00 3E 63 
059c0     63 63 63 63 | 	byte	$3e, $00, $00, $00, $00, $00, $00, $00, $63, $00, $3e, $63, $63, $63, $63, $63
059c4     3E 00 00 00 
059c8     00 00 00 6F 
059cc     46 26 06 06 
059d0     06 06 46 66 | 	byte	$3e, $00, $00, $00, $00, $00, $00, $6f, $46, $26, $06, $06, $06, $06, $46, $66
059d4     7F 00 00 00 
059d8     00 00 00 6E 
059dc     4C 2C 0C 0C 
059e0     0C 0C 0C 0C | 	byte	$7f, $00, $00, $00, $00, $00, $00, $6e, $4c, $2c, $0c, $0c, $0c, $0c, $0c, $0c
059e4     1E 00 00 00 
059e8     30 18 00 3E 
059ec     63 63 06 1C 
059f0     30 60 63 63 | 	byte	$1e, $00, $00, $00, $30, $18, $00, $3e, $63, $63, $06, $1c, $30, $60, $63, $63
059f4     3E 00 00 00 
059f8     00 00 60 30 
059fc     18 00 3E 63 
05a00     06 1C 30 63 | 	byte	$3e, $00, $00, $00, $00, $00, $60, $30, $18, $00, $3e, $63, $06, $1c, $30, $63
05a04     3E 00 00 00 
05a08     00 63 00 3E 
05a0c     63 63 63 63 
05a10     63 63 63 63 | 	byte	$3e, $00, $00, $00, $00, $63, $00, $3e, $63, $63, $63, $63, $63, $63, $63, $63
05a14     3E 00 00 00 
05a18     00 63 00 63 
05a1c     63 63 63 63 
05a20     63 63 63 63 | 	byte	$3e, $00, $00, $00, $00, $63, $00, $63, $63, $63, $63, $63, $63, $63, $63, $63
05a24     3E 00 00 00 
05a28     6C 38 00 7E 
05a2c     7E 5A 18 18 
05a30     18 18 18 18 | 	byte	$3e, $00, $00, $00, $6c, $38, $00, $7e, $7e, $5a, $18, $18, $18, $18, $18, $18
05a34     3C 00 00 00 
05a38     00 00 60 48 
05a3c     2C 0C 3F 0C 
05a40     0C 0C 0C 6C | 	byte	$3c, $00, $00, $00, $00, $00, $60, $48, $2c, $0c, $3f, $0c, $0c, $0c, $0c, $6c
05a44     38 00 00 00 
05a48     00 00 00 0F 
05a4c     26 36 1E 0E 
05a50     07 07 46 66 | 	byte	$38, $00, $00, $00, $00, $00, $00, $0f, $26, $36, $1e, $0e, $07, $07, $46, $66
05a54     7F 00 00 00 
05a58     00 00 00 00 
05a5c     00 63 36 1C 
05a60     1C 36 63 00 | 	byte	$7f, $00, $00, $00, $00, $00, $00, $00, $00, $63, $36, $1c, $1c, $36, $63, $00
05a64     00 00 00 00 
05a68     00 00       | 	byte	$00[6]
05a6a     36 1C 08 00 
05a6e     3E 63 03 03 
05a72     03 63 3E 00 
05a76     00 00 00 00 | 	byte	$36, $1c, $08, $00, $3e, $63, $03, $03, $03, $63, $3e, $00, $00, $00, $00, $00
05a7a     30 18 0C 00 
05a7e     1E 30 3E 33 
05a82     33 33 6E 00 
05a86     00 00 00 00 | 	byte	$30, $18, $0c, $00, $1e, $30, $3e, $33, $33, $33, $6e, $00, $00, $00, $00, $00
05a8a     60 30 18 00 
05a8e     1C 18 18 18 
05a92     18 18 3C 00 
05a96     00 00 00 00 | 	byte	$60, $30, $18, $00, $1c, $18, $18, $18, $18, $18, $3c, $00, $00, $00, $00, $00
05a9a     60 30 18 00 
05a9e     3E 63 63 63 
05aa2     63 63 3E 00 
05aa6     00 00 00 00 | 	byte	$60, $30, $18, $00, $3e, $63, $63, $63, $63, $63, $3e, $00, $00, $00, $00, $00
05aaa     30 18 0C 00 
05aae     33 33 33 33 
05ab2     33 33 6E 00 
05ab6     00 00 00 00 | 	byte	$30, $18, $0c, $00, $33, $33, $33, $33, $33, $33, $6e, $00, $00, $00, $00, $00
05aba     00 08 1C 36 
05abe     63 63 7F 63 
05ac2     63 63 63 18 
05ac6     0C 78 00 00 | 	byte	$00, $08, $1c, $36, $63, $63, $7f, $63, $63, $63, $63, $18, $0c, $78, $00, $00
05aca     00 00 00 00 
05ace     1E 30 3E 33 
05ad2     33 33 6E 18 
05ad6     0C 78 36 1C | 	byte	$00, $00, $00, $00, $1e, $30, $3e, $33, $33, $33, $6e, $18, $0c, $78, $36, $1c
05ada     00 7F 63 61 
05ade     30 18 0C 06 
05ae2     43 63 7F 00 
05ae6     00 00 00 00 | 	byte	$00, $7f, $63, $61, $30, $18, $0c, $06, $43, $63, $7f, $00, $00, $00, $00, $00
05aea     36 1C 08 00 
05aee     7F 33 18 0C 
05af2     06 63 7F 00 
05af6     00 00 00 00 | 	byte	$36, $1c, $08, $00, $7f, $33, $18, $0c, $06, $63, $7f, $00, $00, $00, $00, $00
05afa     00 7F 66 46 
05afe     16 1E 16 06 
05b02     46 66 7F 18 
05b06     0C 78 00 00 | 	byte	$00, $7f, $66, $46, $16, $1e, $16, $06, $46, $66, $7f, $18, $0c, $78, $00, $00
05b0a     00 00 00 00 
05b0e     3E 63 7F 03 
05b12     03 63 3E 18 
05b16     0C 78 00 00 | 	byte	$00, $00, $00, $00, $3e, $63, $7f, $03, $03, $63, $3e, $18, $0c, $78, $00, $00
05b1a     00 3C 66 03 
05b1e     1F 03 0F 03 
05b22     03 66 3C 00 
05b26     00 00 00 00 | 	byte	$00, $3c, $66, $03, $1f, $03, $0f, $03, $03, $66, $3c, $00, $00, $00, $00, $00
05b2a     60 30 18 00 
05b2e     7F 33 18 0C 
05b32     06 63 7F 00 
05b36     00 00 6C 38 | 	byte	$60, $30, $18, $00, $7f, $33, $18, $0c, $06, $63, $7f, $00, $00, $00, $6c, $38
05b3a     00 3C 66 43 
05b3e     03 03 03 03 
05b42     43 66 3C 00 
05b46     00 00 00 00 | 	byte	$00, $3c, $66, $43, $03, $03, $03, $03, $43, $66, $3c, $00, $00, $00, $00, $00
05b4a     00 00 00 00 
05b4e     3E 63 06 1C 
05b52     30 63 3E 18 
05b56     30 1E 00 00 | 	byte	$00, $00, $00, $00, $3e, $63, $06, $1c, $30, $63, $3e, $18, $30, $1e, $00, $00
05b5a     00 00 00 00 
05b5e     00 00       | 	byte	$00[6]
05b60     6C 36 1B 36 
05b64     6C 00 00 00 
05b68     00 00 00 00 
05b6c     00 00 00 00 | 	byte	$6c, $36, $1b, $36, $6c, $00, $00, $00, $00, $00, $00, $00, $00, $00, $00, $00
05b70     1B 36 6C 36 
05b74     1B 00 00 00 
05b78     88 22 88 22 
05b7c     88 22 88 22 | 	byte	$1b, $36, $6c, $36, $1b, $00, $00, $00, $88, $22, $88, $22, $88, $22, $88, $22
05b80     88 22 88 22 
05b84     88 22 88 22 
05b88     AA 55 AA 55 
05b8c     AA 55 AA 55 | 	byte	$88, $22, $88, $22, $88, $22, $88, $22, $aa, $55, $aa, $55, $aa, $55, $aa, $55
05b90     AA 55 AA 55 
05b94     AA 55 AA 55 
05b98     BB EE BB EE 
05b9c     BB EE BB EE | 	byte	$aa, $55, $aa, $55, $aa, $55, $aa, $55, $bb, $ee, $bb, $ee, $bb, $ee, $bb, $ee
05ba0     BB EE BB EE 
05ba4     BB EE BB EE 
05ba8     18 18 18 18 
05bac     18 18 18 18 | 	byte	$bb, $ee, $bb, $ee, $bb, $ee, $bb, $ee, $18, $18, $18, $18, $18, $18, $18, $18
05bb0     18 18 18 18 
05bb4     18 18 18 18 
05bb8     18 18 18 18 
05bbc     18 18 18    | 	byte	$18[15]
05bbf     1F 18 18 18 
05bc3     18 18 18 18 
05bc7     18 30 18 00 
05bcb     08 1C 36 63 | 	byte	$1f, $18, $18, $18, $18, $18, $18, $18, $18, $30, $18, $00, $08, $1c, $36, $63
05bcf     63 7F 63 63 
05bd3     63 63 00 00 
05bd7     00 1C 36 00 
05bdb     08 1C 36 63 | 	byte	$63, $7f, $63, $63, $63, $63, $00, $00, $00, $1c, $36, $00, $08, $1c, $36, $63
05bdf     63 7F 63 63 
05be3     63 63 00 00 
05be7     00 36 1C 00 
05beb     7F 66 46 16 | 	byte	$63, $7f, $63, $63, $63, $63, $00, $00, $00, $36, $1c, $00, $7f, $66, $46, $16
05bef     1E 16 06 46 
05bf3     66 7F 00 00 
05bf7     00 00 00 00 
05bfb     3E 63 63 06 | 	byte	$1e, $16, $06, $46, $66, $7f, $00, $00, $00, $00, $00, $00, $3e, $63, $63, $06
05bff     1C 30 60 63 
05c03     63 3E 18 30 
05c07     1E 6C 6C 6C 
05c0b     6C 6C 6F 60 | 	byte	$1c, $30, $60, $63, $63, $3e, $18, $30, $1e, $6c, $6c, $6c, $6c, $6c, $6f, $60
05c0f     6F 6C 6C 6C 
05c13     6C 6C 6C 6C 
05c17     6C 6C 6C 6C 
05c1b     6C 6C 6C 6C | 	byte	$6f, $6c, $6c, $6c, $6c, $6c, $6c, $6c, $6c, $6c, $6c, $6c, $6c, $6c, $6c, $6c
05c1f     6C 6C 6C 6C 
05c23     6C 6C 6C 6C 
05c27     6C          | 	byte	$6c[9]
05c28     00 00 00 00 
05c2c     00          | 	byte	$00[5]
05c2d     7F 60 6F 6C 
05c31     6C 6C 6C 6C 
05c35     6C 6C 6C 6C 
05c39     6C 6C 6C 6C | 	byte	$7f, $60, $6f, $6c, $6c, $6c, $6c, $6c, $6c, $6c, $6c, $6c, $6c, $6c, $6c, $6c
05c3d     6F 60 7F 00 
05c41     00 00 00 00 
05c45     00 00 00 18 
05c49     18 00 7F 63 | 	byte	$6f, $60, $7f, $00, $00, $00, $00, $00, $00, $00, $00, $18, $18, $00, $7f, $63
05c4d     61 30 18 0C 
05c51     06 43 63 7F 
05c55     00 00 00 00 
05c59     00 00 18 18 | 	byte	$61, $30, $18, $0c, $06, $43, $63, $7f, $00, $00, $00, $00, $00, $00, $18, $18
05c5d     00 7F 33 18 
05c61     0C 06 63 7F 
05c65     00 00 00 00 
05c69     00 00 00 00 | 	byte	$00, $7f, $33, $18, $0c, $06, $63, $7f, $00, $00, $00, $00, $00, $00, $00, $00
05c6d     00 00 1F 18 
05c71     18 18 18 18 
05c75     18 18 18 18 
05c79     18 18 18 18 | 	byte	$00, $00, $1f, $18, $18, $18, $18, $18, $18, $18, $18, $18, $18, $18, $18, $18
05c7d     18 18 F8 00 
05c81     00 00 00 00 
05c85     00 00 00 18 
05c89     18 18 18 18 | 	byte	$18, $18, $f8, $00, $00, $00, $00, $00, $00, $00, $00, $18, $18, $18, $18, $18
05c8d     18 18 FF 00 
05c91     00 00 00 00 
05c95     00 00 00 00 
05c99     00 00 00 00 | 	byte	$18, $18, $ff, $00, $00, $00, $00, $00, $00, $00, $00, $00, $00, $00, $00, $00
05c9d     00 00 FF 18 
05ca1     18 18 18 18 
05ca5     18 18 18 18 
05ca9     18 18 18 18 | 	byte	$00, $00, $ff, $18, $18, $18, $18, $18, $18, $18, $18, $18, $18, $18, $18, $18
05cad     18 18 F8 18 
05cb1     18 18 18 18 
05cb5     18 18 18 00 
05cb9     00 00 00 00 | 	byte	$18, $18, $f8, $18, $18, $18, $18, $18, $18, $18, $18, $00, $00, $00, $00, $00
05cbd     00 00 FF 00 
05cc1     00 00 00 00 
05cc5     00 00 00 18 
05cc9     18 18 18 18 | 	byte	$00, $00, $ff, $00, $00, $00, $00, $00, $00, $00, $00, $18, $18, $18, $18, $18
05ccd     18 18 FF 18 
05cd1     18 18 18 18 
05cd5     18 18 18 63 
05cd9     3E 00 08 1C | 	byte	$18, $18, $ff, $18, $18, $18, $18, $18, $18, $18, $18, $63, $3e, $00, $08, $1c
05cdd     36 63 63 7F 
05ce1     63 63 63 63 
05ce5     00 00 00 00 
05ce9     00 00 63 3E | 	byte	$36, $63, $63, $7f, $63, $63, $63, $63, $00, $00, $00, $00, $00, $00, $63, $3e
05ced     00 1E 30 3E 
05cf1     33 33 33 6E 
05cf5     00 00 00 6C 
05cf9     6C 6C 6C 6C | 	byte	$00, $1e, $30, $3e, $33, $33, $33, $6e, $00, $00, $00, $6c, $6c, $6c, $6c, $6c
05cfd     EC 0C FC 00 
05d01     00 00 00 00 
05d05     00 00 00 00 
05d09     00 00 00 00 | 	byte	$ec, $0c, $fc, $00, $00, $00, $00, $00, $00, $00, $00, $00, $00, $00, $00, $00
05d0d     FC 0C EC 6C 
05d11     6C 6C 6C 6C 
05d15     6C 6C 6C 6C 
05d19     6C 6C 6C 6C | 	byte	$fc, $0c, $ec, $6c, $6c, $6c, $6c, $6c, $6c, $6c, $6c, $6c, $6c, $6c, $6c, $6c
05d1d     EF 00 FF 00 
05d21     00 00 00 00 
05d25     00 00 00 00 
05d29     00 00 00 00 | 	byte	$ef, $00, $ff, $00, $00, $00, $00, $00, $00, $00, $00, $00, $00, $00, $00, $00
05d2d     FF 00 EF 6C 
05d31     6C 6C 6C 6C 
05d35     6C 6C 6C 6C 
05d39     6C 6C 6C 6C | 	byte	$ff, $00, $ef, $6c, $6c, $6c, $6c, $6c, $6c, $6c, $6c, $6c, $6c, $6c, $6c, $6c
05d3d     EC 0C EC 6C 
05d41     6C 6C 6C 6C 
05d45     6C 6C 6C 00 
05d49     00 00 00 00 | 	byte	$ec, $0c, $ec, $6c, $6c, $6c, $6c, $6c, $6c, $6c, $6c, $00, $00, $00, $00, $00
05d4d     FF 00 FF 00 
05d51     00 00 00 00 
05d55     00 00 00 6C 
05d59     6C 6C 6C 6C | 	byte	$ff, $00, $ff, $00, $00, $00, $00, $00, $00, $00, $00, $6c, $6c, $6c, $6c, $6c
05d5d     EF 00 EF 6C 
05d61     6C 6C 6C 6C 
05d65     6C 6C 6C 00 
05d69     00 00 00 00 | 	byte	$ef, $00, $ef, $6c, $6c, $6c, $6c, $6c, $6c, $6c, $6c, $00, $00, $00, $00, $00
05d6d     63 3E 63 63 
05d71     63 63 3E 63 
05d75     00 00 00 00 
05d79     00 00 30 7E | 	byte	$63, $3e, $63, $63, $63, $63, $3e, $63, $00, $00, $00, $00, $00, $00, $30, $7e
05d7d     30 3C 36 33 
05d81     33 33 33 6E 
05d85     00 00 00 00 
05d89     00 00 1F 36 | 	byte	$30, $3c, $36, $33, $33, $33, $33, $6e, $00, $00, $00, $00, $00, $00, $1f, $36
05d8d     66 66 6F 66 
05d91     66 66 36 1F 
05d95     00 00 00 36 
05d99     1C 00 1F 36 | 	byte	$66, $66, $6f, $66, $66, $66, $36, $1f, $00, $00, $00, $36, $1c, $00, $1f, $36
05d9d     66 66 66 66 
05da1     66 66       | 	byte	$66[6]
05da3     36 1F 00 00 
05da7     00 00 63 00 
05dab     7F 66 46 16 
05daf     1E 16 06 46 | 	byte	$36, $1f, $00, $00, $00, $00, $63, $00, $7f, $66, $46, $16, $1e, $16, $06, $46
05db3     66 7F 00 00 
05db7     00 6C 38 00 
05dbb     38 30 30 3C 
05dbf     36 33 33 33 | 	byte	$66, $7f, $00, $00, $00, $6c, $38, $00, $38, $30, $30, $3c, $36, $33, $33, $33
05dc3     33 6E 00 00 
05dc7     00 36 1C 00 
05dcb     63 67 6F 7F 
05dcf     7B 73 63 63 | 	byte	$33, $6e, $00, $00, $00, $36, $1c, $00, $63, $67, $6f, $7f, $7b, $73, $63, $63
05dd3     63 63 00 00 
05dd7     00 30 18 00 
05ddb     3C 18 18 18 
05ddf     18 18 18 18 | 	byte	$63, $63, $00, $00, $00, $30, $18, $00, $3c, $18, $18, $18, $18, $18, $18, $18
05de3     18 3C 00 00 
05de7     00 3C 66 00 
05deb     3C 18 18 18 
05def     18 18 18 18 | 	byte	$18, $3c, $00, $00, $00, $3c, $66, $00, $3c, $18, $18, $18, $18, $18, $18, $18
05df3     18 3C 00 00 
05df7     00 00 00 36 
05dfb     1C 08 00 3E 
05dff     63 7F 03 03 | 	byte	$18, $3c, $00, $00, $00, $00, $00, $36, $1c, $08, $00, $3e, $63, $7f, $03, $03
05e03     63 3E 00 00 
05e07     00 18 18 18 
05e0b     18 18 18 18 
05e0f     1F 00 00 00 | 	byte	$63, $3e, $00, $00, $00, $18, $18, $18, $18, $18, $18, $18, $1f, $00, $00, $00
05e13     00 00 00 00 
05e17     00 00 00 00 
05e1b     00 00 00 00 | 	byte	$00[12]
05e1f     F8 18 18 18 
05e23     18 18 18 18 
05e27     18 FF FF FF 
05e2b     FF FF FF FF | 	byte	$f8, $18, $18, $18, $18, $18, $18, $18, $18, $ff, $ff, $ff, $ff, $ff, $ff, $ff
05e2f     FF FF FF FF 
05e33     FF FF FF FF 
05e37     FF          | 	byte	$ff[9]
05e38     00 00 00 00 
05e3c     00 00 00    | 	byte	$00[7]
05e3f     FF FF FF FF 
05e43     FF FF FF FF 
05e47     FF          | 	byte	$ff[9]
05e48     00 00 00 7E 
05e4c     7E 5A 18 18 
05e50     18 18 18 18 
05e54     3C 18 30 1E | 	byte	$00, $00, $00, $7e, $7e, $5a, $18, $18, $18, $18, $18, $18, $3c, $18, $30, $1e
05e58     1C 36 1C 63 
05e5c     63 63 63 63 
05e60     63 63 63 63 
05e64     3E 00 00 00 | 	byte	$1c, $36, $1c, $63, $63, $63, $63, $63, $63, $63, $63, $63, $3e, $00, $00, $00
05e68     FF FF FF FF 
05e6c     FF FF FF    | 	byte	$ff[7]
05e6f     00 00 00 00 
05e73     00 00 00 00 
05e77     00          | 	byte	$00[9]
05e78     30 18 00 3E 
05e7c     63 63 63 63 
05e80     63 63 63 63 
05e84     3E 00 00 00 | 	byte	$30, $18, $00, $3e, $63, $63, $63, $63, $63, $63, $63, $63, $3e, $00, $00, $00
05e88     00 00 00 1E 
05e8c     33 33 33 1B 
05e90     33 63 63 63 
05e94     33 00 00 00 | 	byte	$00, $00, $00, $1e, $33, $33, $33, $1b, $33, $63, $63, $63, $33, $00, $00, $00
05e98     1C 36 00 3E 
05e9c     63 63 63 63 
05ea0     63 63 63 63 
05ea4     3E 00 00 00 | 	byte	$1c, $36, $00, $3e, $63, $63, $63, $63, $63, $63, $63, $63, $3e, $00, $00, $00
05ea8     30 18 00 63 
05eac     67 6F 7F 7B 
05eb0     73 63 63 63 
05eb4     63 00 00 00 | 	byte	$30, $18, $00, $63, $67, $6f, $7f, $7b, $73, $63, $63, $63, $63, $00, $00, $00
05eb8     00 00 60 30 
05ebc     18 00 3B 66 
05ec0     66 66 66 66 
05ec4     66 00 00 00 | 	byte	$00, $00, $60, $30, $18, $00, $3b, $66, $66, $66, $66, $66, $66, $00, $00, $00
05ec8     00 00 36 1C 
05ecc     08 00 3B 66 
05ed0     66 66 66 66 
05ed4     66 00 00 00 | 	byte	$00, $00, $36, $1c, $08, $00, $3b, $66, $66, $66, $66, $66, $66, $00, $00, $00
05ed8     36 1C 00 3E 
05edc     63 63 06 1C 
05ee0     30 60 63 63 
05ee4     3E 00 00 00 | 	byte	$36, $1c, $00, $3e, $63, $63, $06, $1c, $30, $60, $63, $63, $3e, $00, $00, $00
05ee8     00 00 36 1C 
05eec     08 00 3E 63 
05ef0     06 1C 30 63 
05ef4     3E 00 00 00 | 	byte	$00, $00, $36, $1c, $08, $00, $3e, $63, $06, $1c, $30, $63, $3e, $00, $00, $00
05ef8     30 18 00 3F 
05efc     66 66 66 3E 
05f00     36 66 66 66 
05f04     6F 00 00 00 | 	byte	$30, $18, $00, $3f, $66, $66, $66, $3e, $36, $66, $66, $66, $6f, $00, $00, $00
05f08     30 18 00 63 
05f0c     63 63 63 63 
05f10     63 63 63 63 
05f14     3E 00 00 00 | 	byte	$30, $18, $00, $63, $63, $63, $63, $63, $63, $63, $63, $63, $3e, $00, $00, $00
05f18     00 00 60 30 
05f1c     18 00 3B 6E 
05f20     66 06 06 06 
05f24     0F 00 00 00 | 	byte	$00, $00, $60, $30, $18, $00, $3b, $6e, $66, $06, $06, $06, $0f, $00, $00, $00
05f28     66 33 00 63 
05f2c     63 63 63 63 
05f30     63 63 63 63 
05f34     3E 00 00 00 | 	byte	$66, $33, $00, $63, $63, $63, $63, $63, $63, $63, $63, $63, $3e, $00, $00, $00
05f38     00 00 60 30 
05f3c     18 00 63 63 
05f40     63 63 63 63 
05f44     7E 60 30 1F | 	byte	$00, $00, $60, $30, $18, $00, $63, $63, $63, $63, $63, $63, $7e, $60, $30, $1f
05f48     30 18 00 66 
05f4c     66 66 66 3C 
05f50     18 18 18 18 
05f54     3C 00 00 00 | 	byte	$30, $18, $00, $66, $66, $66, $66, $3c, $18, $18, $18, $18, $3c, $00, $00, $00
05f58     00 00 00 08 
05f5c     0C 0C 3F 0C 
05f60     0C 0C 0C 6C 
05f64     38 18 30 1E | 	byte	$00, $00, $00, $08, $0c, $0c, $3f, $0c, $0c, $0c, $0c, $6c, $38, $18, $30, $1e
05f68     30 18 00 00 
05f6c     00 00 00 00 
05f70     00 00 00 00 
05f74     00 00 00 00 | 	byte	$30, $18, $00, $00, $00, $00, $00, $00, $00, $00, $00, $00, $00, $00, $00, $00
05f78     00 00 00 00 
05f7c     00 00 00 00 | 	byte	$00[8]
05f80     7F 00 00 00 
05f84     00 00 00 00 
05f88     66 33 00 00 
05f8c     00 00 00 00 | 	byte	$7f, $00, $00, $00, $00, $00, $00, $00, $66, $33, $00, $00, $00, $00, $00, $00
05f90     00 00 00 00 
05f94     00 00 00 00 
05f98     00 00 00 00 
05f9c     00 00 00 00 
05fa0     00 00 00 00 
05fa4     00          | 	byte	$00[21]
05fa5     0C 06 3C 36 
05fa9     1C 00 00 00 
05fad     00 00 00 00 
05fb1     00 00 00 00 | 	byte	$0c, $06, $3c, $36, $1c, $00, $00, $00, $00, $00, $00, $00, $00, $00, $00, $00
05fb5     00 00 00 63 
05fb9     3E 00 00 00 
05fbd     00 00 00 00 
05fc1     00 00 00 00 | 	byte	$00, $00, $00, $63, $3e, $00, $00, $00, $00, $00, $00, $00, $00, $00, $00, $00
05fc5     00 00 00 00 
05fc9     3E 63 06 1C 
05fcd     36 63 63 36 
05fd1     1C 30 63 3E | 	byte	$00, $00, $00, $00, $3e, $63, $06, $1c, $36, $63, $63, $36, $1c, $30, $63, $3e
05fd5     00 00 00 00 
05fd9     00 00 00 00 | 	byte	$00[8]
05fdd     18 00 7E 00 
05fe1     18 00 00 00 
05fe5     00 00 00 00 
05fe9     00 00 00 00 | 	byte	$18, $00, $7e, $00, $18, $00, $00, $00, $00, $00, $00, $00, $00, $00, $00, $00
05fed     00 00 00 00 
05ff1     00 00 00 00 | 	byte	$00[8]
05ff5     18 30 1E 00 
05ff9     00 00 1C 36 
05ffd     36 1C 00 00 
06001     00 00 00 00 | 	byte	$18, $30, $1e, $00, $00, $00, $1c, $36, $36, $1c, $00, $00, $00, $00, $00, $00
06005     00 00 00 00 
06009     63 00 00 00 
0600d     00 00 00 00 
06011     00 00 00 00 | 	byte	$00, $00, $00, $00, $63, $00, $00, $00, $00, $00, $00, $00, $00, $00, $00, $00
06015     00 00 00 18 
06019     18 00 00 00 
0601d     00 00 00 00 
06021     00 00 00 00 | 	byte	$00, $00, $00, $18, $18, $00, $00, $00, $00, $00, $00, $00, $00, $00, $00, $00
06025     00 00 00 00 
06029     00          | 	byte	$00[5]
0602a     CC 66 33 00 
0602e     33 33 33 33 
06032     33 33 6E 00 
06036     00 00 36 1C | 	byte	$cc, $66, $33, $00, $33, $33, $33, $33, $33, $33, $6e, $00, $00, $00, $36, $1c
0603a     00 3F 66 66 
0603e     66 3E 36 66 
06042     66 66 6F 00 
06046     00 00 00 00 | 	byte	$00, $3f, $66, $66, $66, $3e, $36, $66, $66, $66, $6f, $00, $00, $00, $00, $00
0604a     36 1C 08 00 
0604e     3B 6E 66 06 
06052     06 06 0F 00 
06056     00 00 00 00 | 	byte	$36, $1c, $08, $00, $3b, $6e, $66, $06, $06, $06, $0f, $00, $00, $00, $00, $00
0605a     00 00 00 7E 
0605e     7E 7E 7E 7E 
06062     7E 7E 00 00 
06066     00 00 00 00 | 	byte	$00, $00, $00, $7e, $7e, $7e, $7e, $7e, $7e, $7e, $00, $00, $00, $00, $00, $00
0606a     00 00 00 00 
0606e     00 00 00 00 
06072     00 00 00 00 
06076     00 00       | 	byte	$00, $00, $00, $00, $00, $00, $00, $00, $00, $00, $00, $00, $00, $00
06078     00 00 00 00 
      ...             
060a8     00 00 00 00 
060ac     00 00 00    | st_font        file "st4font.def"
060af     FF FF 00 00 
060b3     00 00 00 00 
060b7     00 18 18 18 
060bb     18 18 18 18 | 	byte	$ff, $ff, $00, $00, $00, $00, $00, $00, $00, $18, $18, $18, $18, $18, $18, $18
060bf     18 18 18 18 
060c3     18 18 18 18 
060c7     18          | 	byte	$18[9]
060c8     00 00 00 00 
060cc     00 00 00    | 	byte	$00[7]
060cf     FF FF 18 18 
060d3     18 18 18 18 
060d7     18 18 18 18 
060db     18 18 18 18 | 	byte	$ff, $ff, $18, $18, $18, $18, $18, $18, $18, $18, $18, $18, $18, $18, $18, $18
060df     FF FF 00 00 
060e3     00 00 00 00 
060e7     00 18 18 18 
060eb     18 18 18 18 | 	byte	$ff, $ff, $00, $00, $00, $00, $00, $00, $00, $18, $18, $18, $18, $18, $18, $18
060ef     1F 1F 18 18 
060f3     18 18 18 18 
060f7     18 18 18 18 
060fb     18 18 18 18 | 	byte	$1f, $1f, $18, $18, $18, $18, $18, $18, $18, $18, $18, $18, $18, $18, $18, $18
060ff     F8 F8 18 18 
06103     18 18 18 18 
06107     18 00 00 00 
0610b     00 00 00 00 | 	byte	$f8, $f8, $18, $18, $18, $18, $18, $18, $18, $00, $00, $00, $00, $00, $00, $00
0610f     1F 1F 18 18 
06113     18 18 18 18 
06117     18 00 00 00 
0611b     00 00 00 00 | 	byte	$1f, $1f, $18, $18, $18, $18, $18, $18, $18, $00, $00, $00, $00, $00, $00, $00
0611f     F8 F8 18 18 
06123     18 18 18 18 
06127     18 18 18 18 
0612b     18 18 18 18 | 	byte	$f8, $f8, $18, $18, $18, $18, $18, $18, $18, $18, $18, $18, $18, $18, $18, $18
0612f     1F 1F 00 00 
06133     00 00 00 00 
06137     00 18 18 18 
0613b     18 18 18 18 | 	byte	$1f, $1f, $00, $00, $00, $00, $00, $00, $00, $18, $18, $18, $18, $18, $18, $18
0613f     F8 F8 00 00 
06143     00 00 00 00 
06147     00 18 18 18 
0614b     18 18 18 18 | 	byte	$f8, $f8, $00, $00, $00, $00, $00, $00, $00, $18, $18, $18, $18, $18, $18, $18
0614f     FF FF 18 18 
06153     18 18 18 18 
06157     18 00 00 18 
0615b     3C 7E 66 66 | 	byte	$ff, $ff, $18, $18, $18, $18, $18, $18, $18, $00, $00, $18, $3c, $7e, $66, $66
0615f     66 7E 7E 66 
06163     66 66 66 30 
06167     18 00 00 7E 
0616b     7E 06 06 3E | 	byte	$66, $7e, $7e, $66, $66, $66, $66, $30, $18, $00, $00, $7e, $7e, $06, $06, $3e
0616f     3E 06 06 06 
06173     06 7E 7E 18 
06177     0C 30 18 3C 
0617b     7E 66 66 06 | 	byte	$3e, $06, $06, $06, $06, $7e, $7e, $18, $0c, $30, $18, $3c, $7e, $66, $66, $06
0617f     06 06 06 66 
06183     66 7E 3C 00 
06187     00 30 18 66 
0618b     66 66 6E 6E | 	byte	$06, $06, $06, $66, $66, $7e, $3c, $00, $00, $30, $18, $66, $66, $66, $6e, $6e
0618f     7E 7E 76 76 
06193     66 66 66 00 
06197     00 30 18 7C 
0619b     7E 06 06 0E | 	byte	$7e, $7e, $76, $76, $66, $66, $66, $00, $00, $30, $18, $7c, $7e, $06, $06, $0e
0619f     1C 38 70 60 
061a3     60 7E 3E 00 
061a7     00 30 18 7E 
061ab     7E 30 30 18 | 	byte	$1c, $38, $70, $60, $60, $7e, $3e, $00, $00, $30, $18, $7e, $7e, $30, $30, $18
061af     18 0C 0C 06 
061b3     06 7E 7E 00 
061b7     00 18 18 00 
061bb     7E 7E 30 30 | 	byte	$18, $0c, $0c, $06, $06, $7e, $7e, $00, $00, $18, $18, $00, $7e, $7e, $30, $30
061bf     18 18 0C 0C 
061c3     06 7E 7E 00 
061c7     00 30 18 3C 
061cb     7E 66 66 66 | 	byte	$18, $18, $0c, $0c, $06, $7e, $7e, $00, $00, $30, $18, $3c, $7e, $66, $66, $66
061cf     66 66 66 66 
061d3     66          | 	byte	$66[5]
061d4     7E 3C 00 00 
061d8     00 00 06 06 
061dc     06 06 16 1E 
061e0     0E 06 06 06 | 	byte	$7e, $3c, $00, $00, $00, $00, $06, $06, $06, $06, $16, $1e, $0e, $06, $06, $06
061e4     7E 7E 00 00 
061e8     00 00 00 00 
061ec     00 3C 7C 60 
061f0     7C 7E 66 66 | 	byte	$7e, $7e, $00, $00, $00, $00, $00, $00, $00, $3c, $7c, $60, $7c, $7e, $66, $66
061f4     7E 7C 30 18 
061f8     00 00 00 00 
061fc     00 3C 7E 66 
06200     66 7E 06 06 | 	byte	$7e, $7c, $30, $18, $00, $00, $00, $00, $00, $3c, $7e, $66, $66, $7e, $06, $06
06204     7E 7C 18 0C 
06208     00 00 30 18 
0620c     00 3C 3E 06 
06210     06 06 06 06 | 	byte	$7e, $7c, $18, $0c, $00, $00, $30, $18, $00, $3c, $3e, $06, $06, $06, $06, $06
06214     7E 7C 00 00 
06218     00 00 30 18 
0621c     00 3E 7E 66 
06220     66 66 66 66 | 	byte	$7e, $7c, $00, $00, $00, $00, $30, $18, $00, $3e, $7e, $66, $66, $66, $66, $66
06224     66 66 00 00 
06228     00 00 30 18 
0622c     00 7C 7E 06 
06230     0E 3C 70 60 | 	byte	$66, $66, $00, $00, $00, $00, $30, $18, $00, $7c, $7e, $06, $0e, $3c, $70, $60
06234     7E 3E 00 00 
06238     00 00 30 18 
0623c     00 7E 7E 30 
06240     18 18 0C 0C | 	byte	$7e, $3e, $00, $00, $00, $00, $30, $18, $00, $7e, $7e, $30, $18, $18, $0c, $0c
06244     7E 7E 00 00 
06248     00 00 18 18 
0624c     00 7E 7E 30 
06250     18 18 0C 0C | 	byte	$7e, $7e, $00, $00, $00, $00, $18, $18, $00, $7e, $7e, $30, $18, $18, $0c, $0c
06254     7E 7E 00 00 
06258     00 00 30 18 
0625c     00 3C 7E 66 
06260     66 66 66 66 | 	byte	$7e, $7e, $00, $00, $00, $00, $30, $18, $00, $3c, $7e, $66, $66, $66, $66, $66
06264     7E 3C 00 00 
06268     00 00 1C 1C 
0626c     18 18 38 3C 
06270     1C 18 18 18 | 	byte	$7e, $3c, $00, $00, $00, $00, $1c, $1c, $18, $18, $38, $3c, $1c, $18, $18, $18
06274     3C 3C 00 00 
06278     00 00 00 00 
0627c     00 00 00 00 
06280     00 00 00 00 | 	byte	$3c, $3c, $00, $00, $00, $00, $00, $00, $00, $00, $00, $00, $00, $00, $00, $00
06284     00 00 00 00 
06288     00 00       | 	byte	$00[6]
0628a     18 18 18 18 
0628e     18 18 18 18 | 	byte	$18[8]
06292     00 00 18 18 
06296     00 00 00 00 
0629a     66 66 66 66 
0629e     00 00 00 00 | 	byte	$00, $00, $18, $18, $00, $00, $00, $00, $66, $66, $66, $66, $00, $00, $00, $00
062a2     00 00 00 00 
062a6     00 00 00 00 
062aa     00          | 	byte	$00[9]
062ab     66 66 FF FF 
062af     66 66 FF FF 
062b3     66 66 00 00 
062b7     00 00 18 18 | 	byte	$66, $66, $ff, $ff, $66, $66, $ff, $ff, $66, $66, $00, $00, $00, $00, $18, $18
062bb     7C 7E 06 06 
062bf     3E 7C 60 60 
062c3     7E 3E 18 18 
062c7     00 00 00 66 | 	byte	$7c, $7e, $06, $06, $3e, $7c, $60, $60, $7e, $3e, $18, $18, $00, $00, $00, $66
062cb     66 30 30 18 
062cf     18 0C 0C 66 
062d3     66 00 00 00 
062d7     00 00 3C 7E | 	byte	$66, $30, $30, $18, $18, $0c, $0c, $66, $66, $00, $00, $00, $00, $00, $3c, $7e
062db     66 66 3C 1C 
062df     1C FC FE 66 
062e3     66 FE FC 00 
062e7     00 00 00 18 | 	byte	$66, $66, $3c, $1c, $1c, $fc, $fe, $66, $66, $fe, $fc, $00, $00, $00, $00, $18
062eb     18 18 18 18 
062ef     00 00 00 00 
062f3     00 00 00 00 
062f7     00 00 00 30 | 	byte	$18, $18, $18, $18, $00, $00, $00, $00, $00, $00, $00, $00, $00, $00, $00, $30
062fb     18 1C 0C 0C 
062ff     0C 0C 0C 0C 
06303     1C 18 30 00 
06307     00 00 00 0C | 	byte	$18, $1c, $0c, $0c, $0c, $0c, $0c, $0c, $1c, $18, $30, $00, $00, $00, $00, $0c
0630b     18 38 30 30 
0630f     30 30 30 30 
06313     38 18 0C 00 
06317     00 00 00 00 | 	byte	$18, $38, $30, $30, $30, $30, $30, $30, $38, $18, $0c, $00, $00, $00, $00, $00
0631b     66 66 3C 3C 
0631f     FF FF 3C 3C 
06323     66 66 00 00 
06327     00 00 00 00 | 	byte	$66, $66, $3c, $3c, $ff, $ff, $3c, $3c, $66, $66, $00, $00, $00, $00, $00, $00
0632b     00 18 18 18 
0632f     7E 7E 18 18 
06333     18 00 00 00 
06337     00 00 00 00 | 	byte	$00, $18, $18, $18, $7e, $7e, $18, $18, $18, $00, $00, $00, $00, $00, $00, $00
0633b     00 00 00 00 
0633f     00 00       | 	byte	$00[6]
06341     18 18 18 18 
06345     18          | 	byte	$18[5]
06346     0C 04 00 00 
0634a     00 00 00 00 
0634e     7E 7E 00 00 
06352     00 00 00 00 | 	byte	$0c, $04, $00, $00, $00, $00, $00, $00, $7e, $7e, $00, $00, $00, $00, $00, $00
06356     00 00 00 00 
0635a     00 00 00 00 
0635e     00 00 00 00 
06362     00          | 	byte	$00[13]
06363     18 18 18 00 
06367     00 00 00 60 
0636b     60 60 30 30 
0636f     18 18 0C 0C | 	byte	$18, $18, $18, $00, $00, $00, $00, $60, $60, $60, $30, $30, $18, $18, $0c, $0c
06373     06 06 06 00 
06377     00 00 00 3C 
0637b     7E 66 66 66 
0637f     76 6E 66 66 | 	byte	$06, $06, $06, $00, $00, $00, $00, $3c, $7e, $66, $66, $66, $76, $6e, $66, $66
06383     66 7E 3C 00 
06387     00 00 00 18 
0638b     18 1C 1C 18 
0638f     18 18 18 18 | 	byte	$66, $7e, $3c, $00, $00, $00, $00, $18, $18, $1c, $1c, $18, $18, $18, $18, $18
06393     18 7E 7E 00 
06397     00 00 00 3C 
0639b     7E 66 66 30 
0639f     30 18 18 0C | 	byte	$18, $7e, $7e, $00, $00, $00, $00, $3c, $7e, $66, $66, $30, $30, $18, $18, $0c
063a3     0C 7E 7E 00 
063a7     00 00 00 7E 
063ab     7E 30 30 18 
063af     18 30 30 66 | 	byte	$0c, $7e, $7e, $00, $00, $00, $00, $7e, $7e, $30, $30, $18, $18, $30, $30, $66
063b3     66 7E 3C 00 
063b7     00 00 00 30 
063bb     30 38 38 3C 
063bf     3C 36 36 7E | 	byte	$66, $7e, $3c, $00, $00, $00, $00, $30, $30, $38, $38, $3c, $3c, $36, $36, $7e
063c3     7E 30 30 00 
063c7     00 00 00 7E 
063cb     7E 06 06 3E 
063cf     7E 60 60 60 | 	byte	$7e, $30, $30, $00, $00, $00, $00, $7e, $7e, $06, $06, $3e, $7e, $60, $60, $60
063d3     66 7E 3C 00 
063d7     00 00 00 38 
063db     3C 0E 06 06 
063df     3E 7E 66 66 | 	byte	$66, $7e, $3c, $00, $00, $00, $00, $38, $3c, $0e, $06, $06, $3e, $7e, $66, $66
063e3     66 7E 3C 00 
063e7     00 00 00 7E 
063eb     7E 60 60 30 
063ef     30 18 18 0C | 	byte	$66, $7e, $3c, $00, $00, $00, $00, $7e, $7e, $60, $60, $30, $30, $18, $18, $0c
063f3     0C 0C 0C 00 
063f7     00 00 00 3C 
063fb     7E 66 66 3C 
063ff     3C 66 66 66 | 	byte	$0c, $0c, $0c, $00, $00, $00, $00, $3c, $7e, $66, $66, $3c, $3c, $66, $66, $66
06403     66 7E 3C 00 
06407     00 00 00 3C 
0640b     7E 66 66 7E 
0640f     7C 60 60 60 | 	byte	$66, $7e, $3c, $00, $00, $00, $00, $3c, $7e, $66, $66, $7e, $7c, $60, $60, $60
06413     70 3C 1C 00 
06417     00 00 00 00 
0641b     00 00 18 18 
0641f     18 00 00 00 | 	byte	$70, $3c, $1c, $00, $00, $00, $00, $00, $00, $00, $18, $18, $18, $00, $00, $00
06423     18 18 18 00 
06427     00 00 00 00 
0642b     00 00 18 18 
0642f     18 00 00 18 | 	byte	$18, $18, $18, $00, $00, $00, $00, $00, $00, $00, $18, $18, $18, $00, $00, $18
06433     18 18 18 0C 
06437     04 00 00 00 
0643b     70 38 1C 0E 
0643f     07 0E 1C 38 | 	byte	$18, $18, $18, $0c, $04, $00, $00, $00, $70, $38, $1c, $0e, $07, $0e, $1c, $38
06443     70 00 00 00 
06447     00 00 00 00 
0644b     00 00 7E 7E 
0644f     00 00 7E 7E | 	byte	$70, $00, $00, $00, $00, $00, $00, $00, $00, $00, $7e, $7e, $00, $00, $7e, $7e
06453     00 00 00 00 
06457     00 00 00 00 | 	byte	$00[8]
0645b     0E 1C 38 70 
0645f     E0 70 38 1C 
06463     0E 00 00 00 
06467     00 00 00 3C | 	byte	$0e, $1c, $38, $70, $e0, $70, $38, $1c, $0e, $00, $00, $00, $00, $00, $00, $3c
0646b     7E 66 66 30 
0646f     30 18 18 18 
06473     00 18 18 00 
06477     00 00 00 3C | 	byte	$7e, $66, $66, $30, $30, $18, $18, $18, $00, $18, $18, $00, $00, $00, $00, $3c
0647b     7E 66 66 66 
0647f     66 36 06 66 
06483     66 7E 3C 00 
06487     00 00 00 18 | 	byte	$7e, $66, $66, $66, $66, $36, $06, $66, $66, $7e, $3c, $00, $00, $00, $00, $18
0648b     3C 7E 66 66 
0648f     66 7E 7E 66 
06493     66 66 66 00 
06497     00 00 00 3E | 	byte	$3c, $7e, $66, $66, $66, $7e, $7e, $66, $66, $66, $66, $00, $00, $00, $00, $3e
0649b     7E 66 66 7E 
0649f     3E 66 66 66 
064a3     66 7E 3E 00 
064a7     00 00 00 3C | 	byte	$7e, $66, $66, $7e, $3e, $66, $66, $66, $66, $7e, $3e, $00, $00, $00, $00, $3c
064ab     7E 66 66 06 
064af     06 06 06 66 
064b3     66 7E 3C 00 
064b7     00 00 00 3E | 	byte	$7e, $66, $66, $06, $06, $06, $06, $66, $66, $7e, $3c, $00, $00, $00, $00, $3e
064bb     7E 66 66 66 
064bf     66 66 66 66 
064c3     66 7E 3E 00 
064c7     00 00 00 7E | 	byte	$7e, $66, $66, $66, $66, $66, $66, $66, $66, $7e, $3e, $00, $00, $00, $00, $7e
064cb     7E 06 06 3E 
064cf     3E 06 06 06 
064d3     06 7E 7E 00 
064d7     00 00 00 7E | 	byte	$7e, $06, $06, $3e, $3e, $06, $06, $06, $06, $7e, $7e, $00, $00, $00, $00, $7e
064db     7E 06 06 3E 
064df     3E 06 06 06 
064e3     06 06 06 00 
064e7     00 00 00 7C | 	byte	$7e, $06, $06, $3e, $3e, $06, $06, $06, $06, $06, $06, $00, $00, $00, $00, $7c
064eb     7E 06 06 76 
064ef     76 66 66 66 
064f3     66 7E 3C 00 
064f7     00 00 00 66 | 	byte	$7e, $06, $06, $76, $76, $66, $66, $66, $66, $7e, $3c, $00, $00, $00, $00, $66
064fb     66 66 66 7E 
064ff     7E 66 66 66 
06503     66 66 66 00 
06507     00 00 00 7E | 	byte	$66, $66, $66, $7e, $7e, $66, $66, $66, $66, $66, $66, $00, $00, $00, $00, $7e
0650b     7E 18 18 18 
0650f     18 18 18 18 
06513     18 7E 7E 00 
06517     00 00 00 60 | 	byte	$7e, $18, $18, $18, $18, $18, $18, $18, $18, $7e, $7e, $00, $00, $00, $00, $60
0651b     60 60 60 60 
0651f     60 60 60    | 	byte	$60[7]
06522     66 66 7E 3C 
06526     00 00 00 00 
0652a     66 66 36 36 
0652e     1E 1E 36 36 | 	byte	$66, $66, $7e, $3c, $00, $00, $00, $00, $66, $66, $36, $36, $1e, $1e, $36, $36
06532     66 66 C6 C6 
06536     00 00 00 00 
0653a     06 06 06 06 
0653e     06 06 06 06 | 	byte	$66, $66, $c6, $c6, $00, $00, $00, $00, $06, $06, $06, $06, $06, $06, $06, $06
06542     06 06 7E 7E 
06546     00 00 00 00 
0654a     C6 C6 EE EE 
0654e     FE D6 D6 C6 | 	byte	$06, $06, $7e, $7e, $00, $00, $00, $00, $c6, $c6, $ee, $ee, $fe, $d6, $d6, $c6
06552     C6 C6 C6 C6 
06556     00 00 00 00 
0655a     66 66 66 6E 
0655e     6E 7E 7E 76 | 	byte	$c6, $c6, $c6, $c6, $00, $00, $00, $00, $66, $66, $66, $6e, $6e, $7e, $7e, $76
06562     76 66 66 66 
06566     00 00 00 00 
0656a     3C 7E 66 66 
0656e     66 66 66 66 | 	byte	$76, $66, $66, $66, $00, $00, $00, $00, $3c, $7e, $66, $66, $66, $66, $66, $66
06572     66 66 7E 3C 
06576     00 00 00 00 
0657a     3E 7E 66 66 
0657e     66 66 7E 3E | 	byte	$66, $66, $7e, $3c, $00, $00, $00, $00, $3e, $7e, $66, $66, $66, $66, $7e, $3e
06582     06 06 06 06 
06586     00 00 00 00 
0658a     3C 7E 66 66 
0658e     66 66 66 66 | 	byte	$06, $06, $06, $06, $00, $00, $00, $00, $3c, $7e, $66, $66, $66, $66, $66, $66
06592     66 56 3E 6C 
06596     00 00 00 00 
0659a     3E 7E 66 66 
0659e     66 7E 3E 36 | 	byte	$66, $56, $3e, $6c, $00, $00, $00, $00, $3e, $7e, $66, $66, $66, $7e, $3e, $36
065a2     66 66 C6 C6 
065a6     00 00 00 00 
065aa     7C 7E 06 06 
065ae     0E 1C 38 70 | 	byte	$66, $66, $c6, $c6, $00, $00, $00, $00, $7c, $7e, $06, $06, $0e, $1c, $38, $70
065b2     60 60 7E 3E 
065b6     00 00 00 00 
065ba     7E 7E 18 18 
065be     18 18 18 18 | 	byte	$60, $60, $7e, $3e, $00, $00, $00, $00, $7e, $7e, $18, $18, $18, $18, $18, $18
065c2     18 18 18 18 
065c6     00 00 00 00 
065ca     66 66 66 66 
065ce     66 66 66 66 | 	byte	$18, $18, $18, $18, $00, $00, $00, $00, $66, $66, $66, $66, $66, $66, $66, $66
065d2     66 66 7E 3C 
065d6     00 00 00 00 
065da     66 66 66 66 
065de     66 66 66 66 | 	byte	$66, $66, $7e, $3c, $00, $00, $00, $00, $66, $66, $66, $66, $66, $66, $66, $66
065e2     3C 3C 18 18 
065e6     00 00 00 00 
065ea     C6 C6 C6 C6 
065ee     C6 D6 D6 FE | 	byte	$3c, $3c, $18, $18, $00, $00, $00, $00, $c6, $c6, $c6, $c6, $c6, $d6, $d6, $fe
065f2     FE EE C6 82 
065f6     00 00 00 00 
065fa     66 66 66 3C 
065fe     3C 18 18 3C | 	byte	$fe, $ee, $c6, $82, $00, $00, $00, $00, $66, $66, $66, $3c, $3c, $18, $18, $3c
06602     3C 66 66 66 
06606     00 00 00 00 
0660a     66 66 66 66 
0660e     66 3C 3C 18 | 	byte	$3c, $66, $66, $66, $00, $00, $00, $00, $66, $66, $66, $66, $66, $3c, $3c, $18
06612     18 18 18 18 
06616     00 00 00 00 
0661a     7E 7E 30 30 
0661e     18 18 0C 0C | 	byte	$18, $18, $18, $18, $00, $00, $00, $00, $7e, $7e, $30, $30, $18, $18, $0c, $0c
06622     06 06 7E 7E 
06626     00 00 00 00 
0662a     3C 3C 0C 0C 
0662e     0C 0C 0C 0C | 	byte	$06, $06, $7e, $7e, $00, $00, $00, $00, $3c, $3c, $0c, $0c, $0c, $0c, $0c, $0c
06632     0C 0C 3C 3C 
06636     00 00 00 00 
0663a     06 06 0C 0C 
0663e     18 18 30 30 | 	byte	$0c, $0c, $3c, $3c, $00, $00, $00, $00, $06, $06, $0c, $0c, $18, $18, $30, $30
06642     60 60 C0 C0 
06646     00 00 00 00 
0664a     3C 3C 30 30 
0664e     30 30 30 30 | 	byte	$60, $60, $c0, $c0, $00, $00, $00, $00, $3c, $3c, $30, $30, $30, $30, $30, $30
06652     30 30 3C 3C 
06656     00 00 00 00 
0665a     18 18 3C 3C 
0665e     66 66 00 00 | 	byte	$30, $30, $3c, $3c, $00, $00, $00, $00, $18, $18, $3c, $3c, $66, $66, $00, $00
06662     00 00 00 00 
06666     00 00 00 00 
0666a     00 00 00 00 
0666e     00 00 00 00 
06672     00 00       | 	byte	$00[18]
06674     FE FE 00 00 
06678     00 00 0C 0C 
0667c     18 18 00 00 
06680     00 00 00 00 | 	byte	$fe, $fe, $00, $00, $00, $00, $0c, $0c, $18, $18, $00, $00, $00, $00, $00, $00
06684     00 00 00 00 
06688     00 00 00 00 
0668c     00          | 	byte	$00[9]
0668d     3C 7C 60 7C 
06691     7E 66 66 7E 
06695     7C 00 00 00 
06699     00 06 06 06 | 	byte	$3c, $7c, $60, $7c, $7e, $66, $66, $7e, $7c, $00, $00, $00, $00, $06, $06, $06
0669d     3E 7E 66 66 
066a1     66 66 66 7E 
066a5     3E 00 00 00 
066a9     00 00 00 00 | 	byte	$3e, $7e, $66, $66, $66, $66, $66, $7e, $3e, $00, $00, $00, $00, $00, $00, $00
066ad     3C 3E 06 06 
066b1     06 06 06 7E 
066b5     7C 00 00 00 
066b9     00 60 60 60 | 	byte	$3c, $3e, $06, $06, $06, $06, $06, $7e, $7c, $00, $00, $00, $00, $60, $60, $60
066bd     7C 7E 66 66 
066c1     66 66 66 7E 
066c5     7C 00 00 00 
066c9     00 00 00 00 | 	byte	$7c, $7e, $66, $66, $66, $66, $66, $7e, $7c, $00, $00, $00, $00, $00, $00, $00
066cd     3C 7E 66 66 
066d1     7E 06 06 7E 
066d5     7C 00 00 00 
066d9     00 70 78 18 | 	byte	$3c, $7e, $66, $66, $7e, $06, $06, $7e, $7c, $00, $00, $00, $00, $70, $78, $18
066dd     18 7E 7E 18 
066e1     18 18 18 18 
066e5     18 00 00 00 
066e9     00 00 00 00 | 	byte	$18, $7e, $7e, $18, $18, $18, $18, $18, $18, $00, $00, $00, $00, $00, $00, $00
066ed     7C 7E 66 66 
066f1     66 66 7E 7C 
066f5     60 7E 3E 00 
066f9     00 06 06 06 | 	byte	$7c, $7e, $66, $66, $66, $66, $7e, $7c, $60, $7e, $3e, $00, $00, $06, $06, $06
066fd     3E 7E 66 66 
06701     66 66 66 66 
06705     66 00 00 00 
06709     00 18 18 00 | 	byte	$3e, $7e, $66, $66, $66, $66, $66, $66, $66, $00, $00, $00, $00, $18, $18, $00
0670d     1C 1C 18 18 
06711     18 18 18 3C 
06715     3C 00 00 00 
06719     00 30 30 00 | 	byte	$1c, $1c, $18, $18, $18, $18, $18, $3c, $3c, $00, $00, $00, $00, $30, $30, $00
0671d     30 30 30 30 
06721     30 30 30 30 
06725     30          | 	byte	$30[9]
06726     3E 1E 00 00 
0672a     06 06 06 36 
0672e     36 1E 1E 1E 
06732     36 36 66 66 | 	byte	$3e, $1e, $00, $00, $06, $06, $06, $36, $36, $1e, $1e, $1e, $36, $36, $66, $66
06736     00 00 00 00 
0673a     1C 1C 18 18 
0673e     18 18 18 18 
06742     18 18 3C 3C | 	byte	$00, $00, $00, $00, $1c, $1c, $18, $18, $18, $18, $18, $18, $18, $18, $3c, $3c
06746     00 00 00 00 
0674a     00 00 00    | 	byte	$00[7]
0674d     6C FE FE D6 
06751     D6 C6 C6 C6 
06755     C6 00 00 00 
06759     00 00 00 00 | 	byte	$6c, $fe, $fe, $d6, $d6, $c6, $c6, $c6, $c6, $00, $00, $00, $00, $00, $00, $00
0675d     3E 7E 66 66 
06761     66 66 66 66 
06765     66 00 00 00 
06769     00 00 00 00 | 	byte	$3e, $7e, $66, $66, $66, $66, $66, $66, $66, $00, $00, $00, $00, $00, $00, $00
0676d     3C 7E 66 66 
06771     66 66 66 7E 
06775     3C 00 00 00 
06779     00 00 00 00 | 	byte	$3c, $7e, $66, $66, $66, $66, $66, $7e, $3c, $00, $00, $00, $00, $00, $00, $00
0677d     3E 7E 66 66 
06781     66 66 66 7E 
06785     3E 06 06 00 
06789     00 00 00 00 | 	byte	$3e, $7e, $66, $66, $66, $66, $66, $7e, $3e, $06, $06, $00, $00, $00, $00, $00
0678d     7C 7E 66 66 
06791     66 66 66 7E 
06795     7C 60 60 00 
06799     00 00 00 00 | 	byte	$7c, $7e, $66, $66, $66, $66, $66, $7e, $7c, $60, $60, $00, $00, $00, $00, $00
0679d     3E 7E 66 06 
067a1     06 06 06 06 
067a5     06 00 00 00 
067a9     00 00 00 00 | 	byte	$3e, $7e, $66, $06, $06, $06, $06, $06, $06, $00, $00, $00, $00, $00, $00, $00
067ad     7C 7E 06 0E 
067b1     3C 70 60 7E 
067b5     3E 00 00 00 
067b9     00 00 18 18 | 	byte	$7c, $7e, $06, $0e, $3c, $70, $60, $7e, $3e, $00, $00, $00, $00, $00, $18, $18
067bd     7E 7E 18 18 
067c1     18 18 18 78 
067c5     70 00 00 00 
067c9     00 00 00 00 | 	byte	$7e, $7e, $18, $18, $18, $18, $18, $78, $70, $00, $00, $00, $00, $00, $00, $00
067cd     66 66 66 66 
067d1     66 66 66    | 	byte	$66[7]
067d4     7E 7C 00 00 
067d8     00 00 00 00 
067dc     00 66 66 66 
067e0     66 66 3C 3C | 	byte	$7e, $7c, $00, $00, $00, $00, $00, $00, $00, $66, $66, $66, $66, $66, $3c, $3c
067e4     18 18 00 00 
067e8     00 00 00 00 
067ec     00 C6 C6 D6 
067f0     D6 FE FE EE | 	byte	$18, $18, $00, $00, $00, $00, $00, $00, $00, $c6, $c6, $d6, $d6, $fe, $fe, $ee
067f4     C6 82 00 00 
067f8     00 00 00 00 
067fc     00 66 66 3C 
06800     3C 18 3C 3C | 	byte	$c6, $82, $00, $00, $00, $00, $00, $00, $00, $66, $66, $3c, $3c, $18, $3c, $3c
06804     66 66 00 00 
06808     00 00 00 00 
0680c     00 66 66 66 
06810     66 66 66 7E | 	byte	$66, $66, $00, $00, $00, $00, $00, $00, $00, $66, $66, $66, $66, $66, $66, $7e
06814     7C 60 7E 3E 
06818     00 00 00 00 
0681c     00 7E 7E 30 
06820     18 18 0C 0C | 	byte	$7c, $60, $7e, $3e, $00, $00, $00, $00, $00, $7e, $7e, $30, $18, $18, $0c, $0c
06824     7E 7E 00 00 
06828     00 00 30 18 
0682c     18 18 18 0C 
06830     0C 18 18 18 | 	byte	$7e, $7e, $00, $00, $00, $00, $30, $18, $18, $18, $18, $0c, $0c, $18, $18, $18
06834     18 30 00 00 
06838     00 00 18 18 
0683c     18 18 18 18 
06840     18 18 18 18 | 	byte	$18, $30, $00, $00, $00, $00, $18, $18, $18, $18, $18, $18, $18, $18, $18, $18
06844     18 18 00 00 
06848     00 00 0C 18 
0684c     18 18 18 30 
06850     30 18 18 18 | 	byte	$18, $18, $00, $00, $00, $00, $0c, $18, $18, $18, $18, $30, $30, $18, $18, $18
06854     18 0C 00 00 
06858     00 00 6C 7E 
0685c     36 00 00 00 
06860     00 00 00 00 | 	byte	$18, $0c, $00, $00, $00, $00, $6c, $7e, $36, $00, $00, $00, $00, $00, $00, $00
06864     00 00 00 00 
06868     00 00 00 00 
0686c     00          | 	byte	$00[9]
0686d     18 18 18 18 
06871     18 18 00 00 
06875     00 00 00    | 	byte	$18, $18, $18, $18, $18, $18, $00, $00, $00, $00, $00
06878     00 00 00 00 
0687c     00          | ataripalette   file "ataripalettep2.def"
0687d     11 11 11 00 
06881     22 22 22 00 
06885     33 33 33 00 
06889     44 44 44 00 | 	byte	$11, $11, $11, $00, $22, $22, $22, $00, $33, $33, $33, $00, $44, $44, $44, $00
0688d     55 55 55 00 
06891     66 66 66 00 
06895     77 77 77 00 
06899     88 88 88 00 | 	byte	$55, $55, $55, $00, $66, $66, $66, $00, $77, $77, $77, $00, $88, $88, $88, $00
0689d     99 99 99 00 
068a1     AA AA AA 00 
068a5     BB BB BB 00 
068a9     CC CC CC 00 | 	byte	$99, $99, $99, $00, $aa, $aa, $aa, $00, $bb, $bb, $bb, $00, $cc, $cc, $cc, $00
068ad     DD DD DD 00 
068b1     EE EE EE 00 
068b5     FF FF FF 00 
068b9     00 0A 20 00 | 	byte	$dd, $dd, $dd, $00, $ee, $ee, $ee, $00, $ff, $ff, $ff, $00, $00, $0a, $20, $00
068bd     00 14 40 00 
068c1     00 1E 60 00 
068c5     00 28 80 00 
068c9     00 32 9F 00 | 	byte	$00, $14, $40, $00, $00, $1e, $60, $00, $00, $28, $80, $00, $00, $32, $9f, $00
068cd     00 3C BF 00 
068d1     00 46 DF 00 
068d5     00 50 FF 00 
068d9     1C 63 FF 00 | 	byte	$00, $3c, $bf, $00, $00, $46, $df, $00, $00, $50, $ff, $00, $1c, $63, $ff, $00
068dd     39 77 FF 00 
068e1     55 8A FF 00 
068e5     71 9E FF 00 
068e9     8E B1 FF 00 | 	byte	$39, $77, $ff, $00, $55, $8a, $ff, $00, $71, $9e, $ff, $00, $8e, $b1, $ff, $00
068ed     AA C5 FF 00 
068f1     C6 D8 FF 00 
068f5     E3 EC FF 00 
068f9     00 00 20 00 | 	byte	$aa, $c5, $ff, $00, $c6, $d8, $ff, $00, $e3, $ec, $ff, $00, $00, $00, $20, $00
068fd     00 00 40 00 
06901     00 00 60 00 
06905     00 00 80 00 
06909     00 00 9F 00 | 	byte	$00, $00, $40, $00, $00, $00, $60, $00, $00, $00, $80, $00, $00, $00, $9f, $00
0690d     00 00 BF 00 
06911     00 00 DF 00 
06915     00 00 FF 00 
06919     1C 1C FF 00 | 	byte	$00, $00, $bf, $00, $00, $00, $df, $00, $00, $00, $ff, $00, $1c, $1c, $ff, $00
0691d     39 39 FF 00 
06921     55 55 FF 00 
06925     71 71 FF 00 
06929     8E 8E FF 00 | 	byte	$39, $39, $ff, $00, $55, $55, $ff, $00, $71, $71, $ff, $00, $8e, $8e, $ff, $00
0692d     AA AA FF 00 
06931     C6 C6 FF 00 
06935     E3 E3 FF 00 
06939     10 00 20 00 | 	byte	$aa, $aa, $ff, $00, $c6, $c6, $ff, $00, $e3, $e3, $ff, $00, $10, $00, $20, $00
0693d     20 00 40 00 
06941     30 00 60 00 
06945     40 00 80 00 
06949     50 00 9F 00 | 	byte	$20, $00, $40, $00, $30, $00, $60, $00, $40, $00, $80, $00, $50, $00, $9f, $00
0694d     60 00 BF 00 
06951     70 00 DF 00 
06955     80 00 FF 00 
06959     8E 1C FF 00 | 	byte	$60, $00, $bf, $00, $70, $00, $df, $00, $80, $00, $ff, $00, $8e, $1c, $ff, $00
0695d     9C 39 FF 00 
06961     AA 55 FF 00 
06965     B8 71 FF 00 
06969     C7 8E FF 00 | 	byte	$9c, $39, $ff, $00, $aa, $55, $ff, $00, $b8, $71, $ff, $00, $c7, $8e, $ff, $00
0696d     D5 AA FF 00 
06971     E3 C6 FF 00 
06975     F1 E3 FF 00 
06979     20 00 20 00 | 	byte	$d5, $aa, $ff, $00, $e3, $c6, $ff, $00, $f1, $e3, $ff, $00, $20, $00, $20, $00
0697d     40 00 40 00 
06981     60 00 60 00 
06985     80 00 80 00 
06989     9F 00 9F 00 | 	byte	$40, $00, $40, $00, $60, $00, $60, $00, $80, $00, $80, $00, $9f, $00, $9f, $00
0698d     BF 00 BF 00 
06991     DF 00 DF 00 
06995     FF 00 FF 00 
06999     FF 1C FF 00 | 	byte	$bf, $00, $bf, $00, $df, $00, $df, $00, $ff, $00, $ff, $00, $ff, $1c, $ff, $00
0699d     FF 39 FF 00 
069a1     FF 55 FF 00 
069a5     FF 71 FF 00 
069a9     FF 8E FF 00 | 	byte	$ff, $39, $ff, $00, $ff, $55, $ff, $00, $ff, $71, $ff, $00, $ff, $8e, $ff, $00
069ad     FF AA FF 00 
069b1     FF C6 FF 00 
069b5     FF E3 FF 00 
069b9     20 00 10 00 | 	byte	$ff, $aa, $ff, $00, $ff, $c6, $ff, $00, $ff, $e3, $ff, $00, $20, $00, $10, $00
069bd     40 00 20 00 
069c1     60 00 30 00 
069c5     80 00 40 00 
069c9     9F 00 50 00 | 	byte	$40, $00, $20, $00, $60, $00, $30, $00, $80, $00, $40, $00, $9f, $00, $50, $00
069cd     BF 00 60 00 
069d1     DF 00 70 00 
069d5     FF 00 80 00 
069d9     FF 1C 8E 00 | 	byte	$bf, $00, $60, $00, $df, $00, $70, $00, $ff, $00, $80, $00, $ff, $1c, $8e, $00
069dd     FF 39 9C 00 
069e1     FF 55 AA 00 
069e5     FF 71 B8 00 
069e9     FF 8E C7 00 | 	byte	$ff, $39, $9c, $00, $ff, $55, $aa, $00, $ff, $71, $b8, $00, $ff, $8e, $c7, $00
069ed     FF AA D5 00 
069f1     FF C6 E3 00 
069f5     FF E3 F1 00 
069f9     20 00 00 00 | 	byte	$ff, $aa, $d5, $00, $ff, $c6, $e3, $00, $ff, $e3, $f1, $00, $20, $00, $00, $00
069fd     40 00 00 00 
06a01     60 00 00 00 
06a05     80 00 00 00 
06a09     9F 00 00 00 | 	byte	$40, $00, $00, $00, $60, $00, $00, $00, $80, $00, $00, $00, $9f, $00, $00, $00
06a0d     BF 00 00 00 
06a11     DF 00 00 00 
06a15     FF 00 00 00 
06a19     FF 1C 1C 00 | 	byte	$bf, $00, $00, $00, $df, $00, $00, $00, $ff, $00, $00, $00, $ff, $1c, $1c, $00
06a1d     FF 39 39 00 
06a21     FF 55 55 00 
06a25     FF 71 71 00 
06a29     FF 8E 8E 00 | 	byte	$ff, $39, $39, $00, $ff, $55, $55, $00, $ff, $71, $71, $00, $ff, $8e, $8e, $00
06a2d     FF AA AA 00 
06a31     FF C6 C6 00 
06a35     FF E3 E3 00 
06a39     20 08 00 00 | 	byte	$ff, $aa, $aa, $00, $ff, $c6, $c6, $00, $ff, $e3, $e3, $00, $20, $08, $00, $00
06a3d     40 10 00 00 
06a41     60 18 00 00 
06a45     80 20 00 00 
06a49     9F 28 00 00 | 	byte	$40, $10, $00, $00, $60, $18, $00, $00, $80, $20, $00, $00, $9f, $28, $00, $00
06a4d     BF 30 00 00 
06a51     DF 38 00 00 
06a55     FF 40 00 00 
06a59     FF 55 1C 00 | 	byte	$bf, $30, $00, $00, $df, $38, $00, $00, $ff, $40, $00, $00, $ff, $55, $1c, $00
06a5d     FF 6A 39 00 
06a61     FF 80 55 00 
06a65     FF 95 71 00 
06a69     FF AA 8E 00 | 	byte	$ff, $6a, $39, $00, $ff, $80, $55, $00, $ff, $95, $71, $00, $ff, $aa, $8e, $00
06a6d     FF BF AA 00 
06a71     FF D5 C6 00 
06a75     FF EA E3 00 
06a79     20 10 00 00 | 	byte	$ff, $bf, $aa, $00, $ff, $d5, $c6, $00, $ff, $ea, $e3, $00, $20, $10, $00, $00
06a7d     40 20 00 00 
06a81     60 30 00 00 
06a85     80 40 00 00 
06a89     9F 50 00 00 | 	byte	$40, $20, $00, $00, $60, $30, $00, $00, $80, $40, $00, $00, $9f, $50, $00, $00
06a8d     BF 60 00 00 
06a91     DF 70 00 00 
06a95     FF 80 00 00 
06a99     FF 8E 1C 00 | 	byte	$bf, $60, $00, $00, $df, $70, $00, $00, $ff, $80, $00, $00, $ff, $8e, $1c, $00
06a9d     FF 9C 39 00 
06aa1     FF AA 55 00 
06aa5     FF B8 71 00 
06aa9     FF C7 8E 00 | 	byte	$ff, $9c, $39, $00, $ff, $aa, $55, $00, $ff, $b8, $71, $00, $ff, $c7, $8e, $00
06aad     FF D5 AA 00 
06ab1     FF E3 C6 00 
06ab5     FF F1 E3 00 
06ab9     20 18 00 00 | 	byte	$ff, $d5, $aa, $00, $ff, $e3, $c6, $00, $ff, $f1, $e3, $00, $20, $18, $00, $00
06abd     40 30 00 00 
06ac1     60 48 00 00 
06ac5     80 60 00 00 
06ac9     9F 78 00 00 | 	byte	$40, $30, $00, $00, $60, $48, $00, $00, $80, $60, $00, $00, $9f, $78, $00, $00
06acd     BF 90 00 00 
06ad1     DF A8 00 00 
06ad5     FF C0 00 00 
06ad9     FF C7 1C 00 | 	byte	$bf, $90, $00, $00, $df, $a8, $00, $00, $ff, $c0, $00, $00, $ff, $c7, $1c, $00
06add     FF CE 39 00 
06ae1     FF D5 55 00 
06ae5     FF DC 71 00 
06ae9     FF E3 8E 00 | 	byte	$ff, $ce, $39, $00, $ff, $d5, $55, $00, $ff, $dc, $71, $00, $ff, $e3, $8e, $00
06aed     FF EA AA 00 
06af1     FF F1 C6 00 
06af5     FF F8 E3 00 
06af9     18 20 00 00 | 	byte	$ff, $ea, $aa, $00, $ff, $f1, $c6, $00, $ff, $f8, $e3, $00, $18, $20, $00, $00
06afd     30 40 00 00 
06b01     48 60 00 00 
06b05     60 80 00 00 
06b09     78 9F 00 00 | 	byte	$30, $40, $00, $00, $48, $60, $00, $00, $60, $80, $00, $00, $78, $9f, $00, $00
06b0d     90 BF 00 00 
06b11     A8 DF 00 00 
06b15     C0 FF 00 00 
06b19     C7 FF 1C 00 | 	byte	$90, $bf, $00, $00, $a8, $df, $00, $00, $c0, $ff, $00, $00, $c7, $ff, $1c, $00
06b1d     CE FF 39 00 
06b21     D5 FF 55 00 
06b25     DC FF 71 00 
06b29     E3 FF 8E 00 | 	byte	$ce, $ff, $39, $00, $d5, $ff, $55, $00, $dc, $ff, $71, $00, $e3, $ff, $8e, $00
06b2d     EA FF AA 00 
06b31     F1 FF C6 00 
06b35     F8 FF E3 00 
06b39     00 20 00 00 | 	byte	$ea, $ff, $aa, $00, $f1, $ff, $c6, $00, $f8, $ff, $e3, $00, $00, $20, $00, $00
06b3d     00 40 00 00 
06b41     00 60 00 00 
06b45     00 80 00 00 
06b49     00 9F 00 00 | 	byte	$00, $40, $00, $00, $00, $60, $00, $00, $00, $80, $00, $00, $00, $9f, $00, $00
06b4d     00 BF 00 00 
06b51     00 DF 00 00 
06b55     00 FF 00 00 
06b59     1C FF 1C 00 | 	byte	$00, $bf, $00, $00, $00, $df, $00, $00, $00, $ff, $00, $00, $1c, $ff, $1c, $00
06b5d     39 FF 39 00 
06b61     55 FF 55 00 
06b65     71 FF 71 00 
06b69     8E FF 8E 00 | 	byte	$39, $ff, $39, $00, $55, $ff, $55, $00, $71, $ff, $71, $00, $8e, $ff, $8e, $00
06b6d     AA FF AA 00 
06b71     C6 FF C6 00 
06b75     E3 FF E3 00 
06b79     00 20 0A 00 | 	byte	$aa, $ff, $aa, $00, $c6, $ff, $c6, $00, $e3, $ff, $e3, $00, $00, $20, $0a, $00
06b7d     00 40 14 00 
06b81     00 60 1E 00 
06b85     00 80 28 00 
06b89     00 9F 32 00 | 	byte	$00, $40, $14, $00, $00, $60, $1e, $00, $00, $80, $28, $00, $00, $9f, $32, $00
06b8d     00 BF 3C 00 
06b91     00 DF 46 00 
06b95     00 FF 50 00 
06b99     1C FF 63 00 | 	byte	$00, $bf, $3c, $00, $00, $df, $46, $00, $00, $ff, $50, $00, $1c, $ff, $63, $00
06b9d     39 FF 77 00 
06ba1     55 FF 8A 00 
06ba5     71 FF 9E 00 
06ba9     8E FF B1 00 | 	byte	$39, $ff, $77, $00, $55, $ff, $8a, $00, $71, $ff, $9e, $00, $8e, $ff, $b1, $00
06bad     AA FF C5 00 
06bb1     C6 FF D8 00 
06bb5     E3 FF EC 00 
06bb9     00 20 14 00 | 	byte	$aa, $ff, $c5, $00, $c6, $ff, $d8, $00, $e3, $ff, $ec, $00, $00, $20, $14, $00
06bbd     00 40 28 00 
06bc1     00 60 3C 00 
06bc5     00 80 50 00 
06bc9     00 9F 64 00 | 	byte	$00, $40, $28, $00, $00, $60, $3c, $00, $00, $80, $50, $00, $00, $9f, $64, $00
06bcd     00 BF 78 00 
06bd1     00 DF 8C 00 
06bd5     00 FF A0 00 
06bd9     1C FF AB 00 | 	byte	$00, $bf, $78, $00, $00, $df, $8c, $00, $00, $ff, $a0, $00, $1c, $ff, $ab, $00
06bdd     39 FF B5 00 
06be1     55 FF C0 00 
06be5     71 FF CA 00 
06be9     8E FF D5 00 | 	byte	$39, $ff, $b5, $00, $55, $ff, $c0, $00, $71, $ff, $ca, $00, $8e, $ff, $d5, $00
06bed     AA FF DF 00 
06bf1     C6 FF EA 00 
06bf5     E3 FF F4 00 
06bf9     00 20 20 00 | 	byte	$aa, $ff, $df, $00, $c6, $ff, $ea, $00, $e3, $ff, $f4, $00, $00, $20, $20, $00
06bfd     00 40 40 00 
06c01     00 60 60 00 
06c05     00 80 80 00 
06c09     00 9F 9F 00 | 	byte	$00, $40, $40, $00, $00, $60, $60, $00, $00, $80, $80, $00, $00, $9f, $9f, $00
06c0d     00 BF BF 00 
06c11     00 DF DF 00 
06c15     00 FF FF 00 
06c19     1C FF FF 00 | 	byte	$00, $bf, $bf, $00, $00, $df, $df, $00, $00, $ff, $ff, $00, $1c, $ff, $ff, $00
06c1d     39 FF FF 00 
06c21     55 FF FF 00 
06c25     71 FF FF 00 
06c29     8E FF FF 00 | 	byte	$39, $ff, $ff, $00, $55, $ff, $ff, $00, $71, $ff, $ff, $00, $8e, $ff, $ff, $00
06c2d     AA FF FF 00 
06c31     C6 FF FF 00 
06c35     E3 FF FF 00 
06c39     00 14 20 00 | 	byte	$aa, $ff, $ff, $00, $c6, $ff, $ff, $00, $e3, $ff, $ff, $00, $00, $14, $20, $00
06c3d     00 28 40 00 
06c41     00 3C 60 00 
06c45     00 50 80 00 
06c49     00 64 9F 00 | 	byte	$00, $28, $40, $00, $00, $3c, $60, $00, $00, $50, $80, $00, $00, $64, $9f, $00
06c4d     00 78 BF 00 
06c51     00 8C DF 00 
06c55     00 A0 FF 00 
06c59     1C AB FF 00 | 	byte	$00, $78, $bf, $00, $00, $8c, $df, $00, $00, $a0, $ff, $00, $1c, $ab, $ff, $00
06c5d     39 B5 FF 00 
06c61     55 C0 FF 00 
06c65     71 CA FF 00 
06c69     8E D5 FF 00 | 	byte	$39, $b5, $ff, $00, $55, $c0, $ff, $00, $71, $ca, $ff, $00, $8e, $d5, $ff, $00
06c6d     AA DF FF 00 
06c71     C6 EA FF 00 
06c75     E3 F4 FF    | 	byte	$aa, $df, $ff, $00, $c6, $ea, $ff, $00, $e3, $f4, $ff
06c78     00 00 00 00 
06c7c     00          | vga16		   long  $00000000,$00008000,$00800000,$00808000,$80000000,$80008000,$80400000,$AAAAAA00,$55555500,$0000FF00,$00FF0000,$00FFFF00,$FF000000,$FF00FF00,$FFFF0000,$FFFFFF00
06c7d     80 00 00 00 
06c81     00 80 00 00 
06c85     80 80 00 00 
06c89     00 00 80 00 | 	byte	$80, $00, $00, $00, $00, $80, $00, $00, $80, $80, $00, $00, $00, $00, $80, $00
06c8d     80 00 80 00 
06c91     00 40 80 00 
06c95     AA AA AA 00 
06c99     55 55 55 00 | 	byte	$80, $00, $80, $00, $00, $40, $80, $00, $aa, $aa, $aa, $00, $55, $55, $55, $00
06c9d     FF 00 00 00 
06ca1     00 FF 00 00 
06ca5     FF FF 00 00 
06ca9     00 00 FF 00 | 	byte	$ff, $00, $00, $00, $00, $ff, $00, $00, $ff, $ff, $00, $00, $00, $00, $ff, $00
06cad     FF 00 FF 00 
06cb1     00 FF FF 00 
06cb5     FF FF FF    | 	byte	$ff, $00, $ff, $00, $00, $ff, $ff, $00, $ff, $ff, $ff
06cb8     00 00 00 00 
06cbc     00 80 80 80 
06cc0     00 00 00 FF 
06cc4     00 FF FF FF | fourcolors     long  $00000000,$80808000,$FF000000,$FFFFFF00 'black,red,gray,white
06cc8     00 00 00 00 
06ccc     00 FF FF FF | twocolors      long  $00000000,$FFFFFF00
06cd0                 | '**********************************************************************************
06cd0                 | '
06cd0                 | '        Timings and colors definitions
06cd0                 | '
06cd0                 | '**********************************************************************************
06cd0                 | 
06cd0                 |    'streamer sets for text mode, to add to timings[0..5]
06cd0                 | 
06cd0                 | 
06cd0                 | '                     bf.hs, hs,  bf.vis  visible, lr bord, pixel, ud bord,  up p., vsync, down p., mode, cpl, scanlines,  clock,                  hubset                  total vis lines
06cd0     10 00 00 00 
06cd4     50 00 00 00 
06cd8     14 00 00 00 
06cdc     00 04 00 00 | timings000      long   16,   80,    20,    1024,    112,     8,     48,      16,      16,    16,      0,  100,   480,     354693878,   %1_110000__11_0110_1100__1111_1011,   576
06ce0     70 00 00 00 
06ce4     08 00 00 00 
06ce8     30 00 00 00 
06cec     10 00 00 00 | 	byte	$70, $00, $00, $00, $08, $00, $00, $00, $30, $00, $00, $00, $10, $00, $00, $00
06cf0     10 00 00 00 
06cf4     10 00 00 00 
06cf8     00 00 00 00 
06cfc     64 00 00 00 | 	byte	$10, $00, $00, $00, $10, $00, $00, $00, $00, $00, $00, $00, $64, $00, $00, $00
06d00     E0 01 00 00 
06d04     F6 32 24 15 
06d08     FB 6C C3 01 
06d0c     40 02 00 00 | 	byte	$e0, $01, $00, $00, $f6, $32, $24, $15, $fb, $6c, $c3, $01, $40, $02, $00, $00
06d10     12 00 00 00 
06d14     30 00 00 00 
06d18     10 00 00 00 
06d1c     B0 03 00 00 | timings064      long   18,   48,    16,     944,     24,     8,     24,      24,      32,    24,     64,  112,   496,     319215686,   %1_110010__11_0010_1101__1111_1011,   544
06d20     18 00 00 00 
06d24     08 00 00 00 
06d28     18 00 00 00 
06d2c     18 00 00 00 | 	byte	$18, $00, $00, $00, $08, $00, $00, $00, $18, $00, $00, $00, $18, $00, $00, $00
06d30     20 00 00 00 
06d34     18 00 00 00 
06d38     40 00 00 00 
06d3c     70 00 00 00 | 	byte	$20, $00, $00, $00, $18, $00, $00, $00, $40, $00, $00, $00, $70, $00, $00, $00
06d40     F0 01 00 00 
06d44     46 D8 06 13 
06d48     FB 2D CB 01 
06d4c     20 02 00 00 | 	byte	$f0, $01, $00, $00, $46, $d8, $06, $13, $fb, $2d, $cb, $01, $20, $02, $00, $00
06d50     10 00 00 00 
06d54     40 00 00 00 
06d58     10 00 00 00 
06d5c     30 03 00 00 | timings128      long   16,   64,    16,     816,      8,     8,     8,       32,      64,    32,    128,  100,   480,     283750000,   %1_111111__11_1000_1011__1111_1011,   496
06d60     08 00 00 00 
06d64     08 00 00 00 
06d68     08 00 00 00 
06d6c     20 00 00 00 | 	byte	$08, $00, $00, $00, $08, $00, $00, $00, $08, $00, $00, $00, $20, $00, $00, $00
06d70     40 00 00 00 
06d74     20 00 00 00 
06d78     80 00 00 00 
06d7c     64 00 00 00 | 	byte	$40, $00, $00, $00, $20, $00, $00, $00, $80, $00, $00, $00, $64, $00, $00, $00
06d80     E0 01 00 00 
06d84     70 AE E9 10 
06d88     FB 8B FF 01 
06d8c     F0 01 00 00 | 	byte	$e0, $01, $00, $00, $70, $ae, $e9, $10, $fb, $8b, $ff, $01, $f0, $01, $00, $00
06d90     10 00 00 00 
06d94     50 00 00 00 
06d98     14 00 00 00 
06d9c     00 04 00 00 | timings192      long   16,   80,    20,    1024,      0,     8,     0,       16,      16,    16,    192,  128,   576,     354693878,   %1_110000__11_0110_1100__1111_1011,   576
06da0     00 00 00 00 
06da4     08 00 00 00 
06da8     00 00 00 00 
06dac     10 00 00 00 | 	byte	$00, $00, $00, $00, $08, $00, $00, $00, $00, $00, $00, $00, $10, $00, $00, $00
06db0     10 00 00 00 
06db4     10 00 00 00 
06db8     C0 00 00 00 
06dbc     80 00 00 00 | 	byte	$10, $00, $00, $00, $10, $00, $00, $00, $c0, $00, $00, $00, $80, $00, $00, $00
06dc0     40 02 00 00 
06dc4     F6 32 24 15 
06dc8     FB 6C C3 01 
06dcc     40 02 00 00 | 	byte	$40, $02, $00, $00, $f6, $32, $24, $15, $fb, $6c, $c3, $01, $40, $02, $00, $00
06dd0     50 00 00 00 
06dd4     A0 00 00 00 
06dd8     54 00 00 00 
06ddc     30 03 00 00 | timings256      long   80,  160,    84,     816,      8,     8,     8,        8,      12,     8,    256,  100,   480,     357959184,   %1_110000__11_0110_0100__1111_1011,   496
06de0     08 00 00 00 
06de4     08 00 00 00 
06de8     08 00 00 00 
06dec     08 00 00 00 | 	byte	$08, $00, $00, $00, $08, $00, $00, $00, $08, $00, $00, $00, $08, $00, $00, $00
06df0     0C 00 00 00 
06df4     08 00 00 00 
06df8     00 01 00 00 
06dfc     64 00 00 00 | 	byte	$0c, $00, $00, $00, $08, $00, $00, $00, $00, $01, $00, $00, $64, $00, $00, $00
06e00     E0 01 00 00 
06e04     10 06 56 15 
06e08     FB 64 C3 01 
06e0c     F0 01 00 00 | 	byte	$e0, $01, $00, $00, $10, $06, $56, $15, $fb, $64, $c3, $01, $f0, $01, $00, $00
06e10     50 00 00 00 
06e14     32 00 00 00 
06e18     50 00 00 00 
06e1c     30 03 00 00 | timings320      long   80,   50,    80,     816,      8,     8,     8,        8,      12,     8,    320,  100,   480,     322162162,   %1_100100__10_0101_0011__1111_1011,   496
06e20     08 00 00 00 
06e24     08 00 00 00 
06e28     08 00 00 00 
06e2c     08 00 00 00 | 	byte	$08, $00, $00, $00, $08, $00, $00, $00, $08, $00, $00, $00, $08, $00, $00, $00
06e30     0C 00 00 00 
06e34     08 00 00 00 
06e38     40 01 00 00 
06e3c     64 00 00 00 | 	byte	$0c, $00, $00, $00, $08, $00, $00, $00, $40, $01, $00, $00, $64, $00, $00, $00
06e40     E0 01 00 00 
06e44     F2 CD 33 13 
06e48     FB 53 92 01 
06e4c     F0 01 00 00 | 	byte	$e0, $01, $00, $00, $f2, $cd, $33, $13, $fb, $53, $92, $01, $f0, $01, $00, $00
06e50     18 00 00 00 
06e54     30 00 00 00 
06e58     18 00 00 00 
06e5c     30 03 00 00 | timings384      long   24,   48,    24,     816,      8,     8,     8,        8,      12,     8,    384,  100,   480,     286363636,   %1_010101__01_0011_1010__1111_1011,   496
06e60     08 00 00 00 
06e64     08 00 00 00 
06e68     08 00 00 00 
06e6c     08 00 00 00 | 	byte	$08, $00, $00, $00, $08, $00, $00, $00, $08, $00, $00, $00, $08, $00, $00, $00
06e70     0C 00 00 00 
06e74     08 00 00 00 
06e78     80 01 00 00 
06e7c     64 00 00 00 | 	byte	$0c, $00, $00, $00, $08, $00, $00, $00, $80, $01, $00, $00, $64, $00, $00, $00
06e80     E0 01 00 00 
06e84     F4 8F 11 11 
06e88     FB 3A 55 01 
06e8c     F0 01 00 00 | 	byte	$e0, $01, $00, $00, $f4, $8f, $11, $11, $fb, $3a, $55, $01, $f0, $01, $00, $00
06e90     20 00 00 00 
06e94     40 00 00 00 
06e98     22 00 00 00 
06e9c     80 03 00 00 | timings448      long   32,   64,    34,     896,      0,     8,     0,        8,      12,     8,    448,  112,   496,     322162162,   %1_100100__10_0101_0011__1111_1011,   496
06ea0     00 00 00 00 
06ea4     08 00 00 00 
06ea8     00 00 00 00 
06eac     08 00 00 00 | 	byte	$00, $00, $00, $00, $08, $00, $00, $00, $00, $00, $00, $00, $08, $00, $00, $00
06eb0     0C 00 00 00 
06eb4     08 00 00 00 
06eb8     C0 01 00 00 
06ebc     70 00 00 00 | 	byte	$0c, $00, $00, $00, $08, $00, $00, $00, $c0, $01, $00, $00, $70, $00, $00, $00
06ec0     F0 01 00 00 
06ec4     F2 CD 33 13 
06ec8     FB 53 92 01 
06ecc     F0 01 00 00 | 	byte	$f0, $01, $00, $00, $f2, $cd, $33, $13, $fb, $53, $92, $01, $f0, $01, $00, $00
06ed0                 | 
06ed0     10 00 00 00 
06ed4     50 00 00 00 
06ed8     14 00 00 00 
06edc     00 04 00 00 | timings512      long   16,   80,    20,    1024,    112,     8,     48,      16,      16,    16,    544,  100,   480,     354693878,   %1_110000__11_0110_1100__1111_1011,   576
06ee0     70 00 00 00 
06ee4     08 00 00 00 
06ee8     30 00 00 00 
06eec     10 00 00 00 | 	byte	$70, $00, $00, $00, $08, $00, $00, $00, $30, $00, $00, $00, $10, $00, $00, $00
06ef0     10 00 00 00 
06ef4     10 00 00 00 
06ef8     20 02 00 00 
06efc     64 00 00 00 | 	byte	$10, $00, $00, $00, $10, $00, $00, $00, $20, $02, $00, $00, $64, $00, $00, $00
06f00     E0 01 00 00 
06f04     F6 32 24 15 
06f08     FB 6C C3 01 
06f0c     40 02 00 00 | 	byte	$e0, $01, $00, $00, $f6, $32, $24, $15, $fb, $6c, $c3, $01, $40, $02, $00, $00
06f10     10 00 00 00 
06f14     50 00 00 00 
06f18     14 00 00 00 
06f1c     00 04 00 00 | timings560      long   16,   80,    20,    1024,    112,     4,     48,      16,      16,    16,    544,  200,   480,     354693878,   %1_110000__11_0110_1100__1111_1011,   576
06f20     70 00 00 00 
06f24     04 00 00 00 
06f28     30 00 00 00 
06f2c     10 00 00 00 | 	byte	$70, $00, $00, $00, $04, $00, $00, $00, $30, $00, $00, $00, $10, $00, $00, $00
06f30     10 00 00 00 
06f34     10 00 00 00 
06f38     20 02 00 00 
06f3c     C8 00 00 00 | 	byte	$10, $00, $00, $00, $10, $00, $00, $00, $20, $02, $00, $00, $c8, $00, $00, $00
06f40     E0 01 00 00 
06f44     F6 32 24 15 
06f48     FB 6C C3 01 
06f4c     40 02 00 00 | 	byte	$e0, $01, $00, $00, $f6, $32, $24, $15, $fb, $6c, $c3, $01, $40, $02, $00, $00
06f50                 | 
06f50                 | 
06f50     00 75 C7 97 
06f54     27 47 F6 0A 
06f58     05 79 CB 9B 
06f5c     2B 4B EA 0F | vgacolors       byte   0, 117, 199, 151, 39, 71, 246, 10, 5, 121, 203, 155, 43, 75, 234, 15
06f60                 | 
06f60     28 14 64 FD | hdmi            setq    #10
06f64     00 D9 06 FB |                 rdlong  framebuf,  ptra                 'read pointers
06f68                 | 
06f68     29 FE 65 FD |                 setq2   #255
06f6c     72 01 00 FB |                 rdlong  $000, paletteptr                'read palette
06f70     02 00 00 FF 
06f74     00 E4 06 F1 |                 add     paletteptr,##1024                ' Atari type 256 colors  
06f78     29 1E 64 FD |                 setq2   #15
06f7c     72 C1 03 FB |                 rdlong  480,paletteptr                  ' 16 color palette at 480
06f80     00 00 00 FF 
06f84     40 E4 06 F1 |                 add     paletteptr,##64                 ' 
06f88     29 06 64 FD |                 setq2   #3
06f8c     72 81 03 FB |                 rdlong  448,paletteptr                  ' 4  color palette at 448
06f90     00 00 00 FF 
06f94     10 E4 06 F1 |                 add     paletteptr,##16                
06f98     29 02 64 FD |                 setq2   #1
06f9c     72 41 03 FB |                 rdlong  416,paletteptr                  ' 2 color palette at 416
06fa0                 |                 
06fa0                 | 
06fa0     00 14 6F FC |                 wrlong  #aend,#0                         'write driver length to hub#0: DEBUG/demo
06fa4     3C 00 66 FD |                 setcmod #$100                           'enable HDMI mode
06fa8     07 F4 06 F6 |                 mov     ii,#7
06fac     06 F4 66 F0 |                 shl     ii,#6
06fb0     76 F5 02 F1 |                 add     ii,hbase
06fb4     58 F4 62 FD |                 drvl    ii                                 '#7<<6 + hdmi_base      ' enable HDMI pins
06fb8     7B 0B 80 FF 
06fbc     7A 01 0B FC |                 wrpin   ##%10110_1111_0111_10_00000_0, ii  '#7<<6 + hdmi_base      ' a '123 ohm BITDAC for pins
06fc0                 | 
06fc0     66 66 86 FF 
06fc4     1D 9A 65 FD |                 setxfrq ##$0CCCCCCC+1                   'set streamer freq to 1/10th clk
06fc8                 | 
06fc8                 | 
06fc8                 | ''--------  frame rendering main loop  ---------------------------------------------------
06fc8                 | 
06fc8                 | p101            
06fc8     28 14 64 FD |                 setq    #10
06fcc     00 D9 06 FB |                 rdlong  framebuf,  ptra 
06fd0     28 1E 64 FD |                 setq    #15
06fd4     71 95 02 FB |                 rdlong  m_bs,modeptr                     ' read timings
06fd8     6E 93 02 FB |                 rdlong border,borderptr
06fdc                 |      
06fdc     01 BE 06 F1 |                 add     frames,#1
06fe0     74 F1 02 F6 |                 mov     dlptr2,dlptr
06fe4                 | 
06fe4     70 C1 02 FB |                 rdlong  cursorx, cursorptr               ' read cursor position
06fe8     60 C3 EA F8 |                 getbyte cursory, cursorx,#1              ' y position at byte #1
06fec     60 BD F2 F8 |                 getbyte cursorsh,cursorx,#2              ' shape at byte #2
06ff0     FF C0 06 F5 |                 and     cursorx,#255                     ' clear the cursor x varioble from y and shape
06ff4                 |  '' mailbox
06ff4     73 FF 02 FB |                 rdlong  t1,commandptr                    ' A mailbox interface, read the command
06ff8     04 E6 06 F1 |                 add     commandptr,#4
06ffc     73 01 03 FB |                 rdlong  t2,commandptr                    ' read the argument
07000     04 E6 86 F1 |                 sub     commandptr,#4                    ' restore the pionter
07004     00 FF 1E F2 |                 cmp     t1,#256  wcz                     '
07008     7F 01 33 CC |          if_lt  wrlut   t2,t1                            ' command 0..255-> set the color in LUT
0700c     01 FF 06 F6 |                 mov     t1, #257                         ' 257=idle
07010     73 FF 62 FC |                 wrlong  t1,commandptr                    ' write 257 to hub variable so the program can test if command was done
07014                 |  '' up porch
07014                 | 
07014     45 F9 02 F6 |                 mov     hsync0,sync_000                  '
07018     46 FB 02 F6 |                 mov     hsync1,sync_001
0701c     1B A2 46 FB |                 callpa  i_upporch ,#blank
07020     6F 01 68 FC |                 wrlong  #0,vblankptr
07024                 | 
07024                 | '' cursor blinking
07024                 | 
07024     04 BE 0E F4 |                 testb   frames,#4 wz                     ' cursor blinks at framerate/16, todo: define
07028     81 C0 06 A6 |          if_z   mov     cursorx,#129                     ' to switch the cursor off, move it out of the screen
0702c                 | 
0702c                 | '' main screen
0702c                 | 
0702c     00 B8 06 F6 |                 mov linenum,#0
07030                 | 
07030     78 F3 02 FB | p301            rdlong  dl,dlptr2
07034                 | 
07034     79 F7 02 F6 |                 mov     framebuf2,dl                    ' read a line start in the framebuffer from DL entry
07038     0E F6 46 F0 |                 shr     framebuf2,#14
0703c     02 F6 66 F0 |                 shl     framebuf2,#2     
07040                 | 
07040     79 FF E2 F8 |                 getbyte t1,dl,#0 
07044     00 FE 0E F2 |                 cmp     t1,#0 wz
07048     34 00 90 AD |     if_z        jmp     #borderline
0704c                 |     
0704c     00 F2 16 F4 |                  testb   dl,#0  wc     ' bit 0 set = text OR extended:TODO     
07050     50 00 90 CD |           if_c   jmp     #textline
07054     50 02 90 3D |           if_nc  jmp     #graphline
07058                 | '        
07058     01 B8 06 F1 | p302            add     linenum,#1
0705c     04 F0 06 F1 |                 add     dlptr2,#4
07060     59 B9 0A F2 |                 cmp     linenum,i_totalvis  wz
07064     C8 FF 9F 5D |          if_nz  jmp     #p301                                  
07068                 |                
07068     6F 03 68 FC | p112            wrlong  #1,vblankptr 
0706c     07 A6 46 FB |                 callpa  i_downporch ,#blank             'bottom blanks
07070                 | 
07070     47 F9 02 F6 |                 mov     hsync0,sync_222                 'vsync on
07074     48 FB 02 F6 |                 mov     hsync1,sync_223
07078     04 A4 46 FB |                 callpa  i_vsync,#blank                  'vertical sync blanks
0707c     48 FF 9F FD |                 jmp     #p101                    
07080                 |   
07080                 | '' ---------------  END of frame rendering loop -------------------------------------------  
07080                 | 
07080                 | 
07080     14 00 B0 FD | borderline      call    #hsync                      ' make a border
07084     49 9B C2 FC |                 xcont   m_vi,border 
07088     CC FF 9F FD |                 jmp     #p302 
0708c                 | 
0708c                 | 
0708c     08 00 B0 FD | blank           call    #hsync                          'blank lines
07090     7C 9B C2 FC |                 xcont   m_vi,hsync0
07094     FD ED 6F 0B |         _ret_   djnz    pa,#blank
07098                 | 
07098     7C 95 C2 FC | hsync           xcont   m_bs,hsync0                     'horizontal sync
0709c     7D 97 B2 FC |                 xzero   m_sn,hsync1
070a0     7C 99 C2 0C |         _ret_   xcont   m_bv,hsync0
070a4                 | 
070a4                 | 
070a4                 | 
070a4                 | ''--%aaaa_aaaa_aaaa_aaaa_aazz_nnnn_llll_ll_01 - txt
070a4                 |   '' aaaa_aaaa_aaaa_aaaa_aazz_rrrr_rrrr_cc_10 - graph
070a4                 |   '' aaaa_aaaa_aaaa-aaaa_aarr_rrrr_rrrr_rr_11 - extended, next long to read 
070a4                 |   
070a4                 | '' Display a text line DL[31..12]=addr, nibble #1=textline, zoom: todo
070a4                 | 
070a4     60 C7 02 F6 | textline        mov     cursorpos2,cursorx              ' we need another var for cursor as this code will repeat 16x for every char line
070a8                 | 
070a8     79 FD 52 F8 |                 getnib  fontline,dl,#2                 ' fontline is 0 to 15, a line in font def
070ac     79 13 5B F8 |                 getnib  zoom, dl,#3
070b0     03 12 07 F5 |                 and		zoom, #3  
070b4                 |                 
070b4                 | 
070b4                 | 
070b4     79 B7 02 F6 |                 mov     linestart,dl                    ' linestart will be used for checking cursor y and compute line start addr in the buffer
070b8     02 B6 46 F0 |                 shr     linestart,#2                    ' scanline to char line
070bc     3F B6 06 F5 |                 and     linestart,#63
070c0     61 B7 0A F2 |                 cmp     linestart,cursory wz            ' if the cursor is not here
070c4     81 C6 06 56 |           if_nz mov     cursorpos2,#129                 ' move it out of the screen
070c8                 | 
070c8     CC FF BF FD |                 call    #hsync                          ' now call hsync to gain some time between xconts
070cc                 | 
070cc                 |                        ' if fontline =0, get a border color
070cc                 |                 
070cc     4E FF 32 F9 | p102            getword t1,m_border,#0                  
070d0     00 FE 0E F2 |                 cmp     t1, #0 wz
070d4     49 9D C2 5C |           if_nz xcont   m_border,border                 ' display a left border if exists
070d8                 |         
070d8     5E FD 1A F2 |                 cmp     fontline,cursorsh wcz           ' if the cursor have to be not displayed due to its shape
070dc     81 C4 06 C6 |           if_c  mov     cursorpos,#129                  ' move it out of the screen
070e0     63 C5 02 36 |          if_nc  mov     cursorpos,cursorpos2
070e4     01 C4 06 F1 |                 add     cursorpos,#1                    ' we will substract #1 below so compensate this here
070e8     6D 01 03 F6 |                 mov     t2,fontbuf                      ' font definition pointer
070ec     7E 01 03 F1 |                 add     t2,fontline                     ' add a current font line
070f0     4F B5 02 F6 |                 mov m_lut2, m_lut1
070f4     67 B5 02 F1 |                 add m_lut2, lutt1
070f8     55 0B 03 F6 |                 mov cpl2,i_cpl
070fc                 |   
070fc     02 12 0F F2 |                cmp zoom,#2 wz
07100     E4 00 90 AD |           if_z jmp #p420
07104     01 12 0F F2 |                cmp zoom,#1 wz
07108     64 00 90 AD |           if_z jmp #p410
0710c     00 12 0F F2 |                 cmp zoom,#0 wz
07110     04 00 90 AD |           if_z jmp #p400    
07114     50 01 90 FD |                jmp #p430  
07118                 |           
07118                 |                    '   
07118                 |  ''---------------------------------------------------------------------------------------------------------          
07118     7B 0D 03 FB |  p400                   rdlong  char,framebuf2          ' read a long char                          '1
0711c     86 0F F3 F8 |                         getbyte backcolor,char,#2       ' byte #2 - background color                '2
07120     86 11 FB F8 |                         getbyte charcolor,char,#3       ' byte #3 - foreground color                '3
07124     86 0D E3 F8 |                         getbyte char,char, #0           ' word #0 - char code                       '4
07128     04 F6 06 F1 |                         add     framebuf2,#4            ' point to the next long                    '5
0712c     04 0C 67 F0 |                         shl     char,#4                 ' 1 char=16 bytes in font def               '6
07130     80 0D 03 F1 |                         add     char,t2                 ' add this to font/line pointer             '7
07134     86 FF C2 FA |                         rdbyte  t1,char                 ' and get 8 pixels prom there               '8
07138     01 C4 8E F1 |                         sub     cursorpos,#1 wz         ' if there is a cursor                      '9
0713c     FF FE 66 A5 |                   if_z  xor     t1, #$FF                ' reverse the colors                        '10         
07140                 | 
07140     7F B5 C2 FC |                         xcont m_lut2,t1
07144                 |    
07144     87 07 A3 FA |                         rdlut   t5,backcolor            ' read a background color from palette      '13
07148     5D 07 33 FC |                         wrlut   t5,lutaddr              ' and write it to LUT #0 or #32             '14
0714c     01 BA 06 F1 |                         add     lutaddr,#1                                                          '15
07150     88 07 A3 FA |                         rdlut   t5,charcolor            ' the same for the foreground               '16
07154     5D 07 33 FC |                         wrlut   t5,lutaddr                                                          '17
07158     01 BA 86 F1 |                         sub     lutaddr,#1  
0715c                 | 
0715c     10 B4 E6 F4 |                         bitnot  m_lut2,#16                                                          '19
07160     10 9E E6 F4 |                         bitnot  m_lut1,#16                                                          '19
07164     20 BA 66 F5 |                         xor     lutaddr,#32             ' use LUT #0-1 and 32-33                    '20
07168                 | 
07168     EB 0B 6F FB |                         djnz   cpl2,#p400   
0716c     28 01 90 FD |  p401                   jmp    #p103
07170                 |                         
07170                 | ''------------------------------------------------------------------------------------------------------------
07170                 |   
07170     01 0A 47 F0 |  p410                   shr cpl2,#1 
07174                 |                      
07174                 | ''---------------------------------------------------------------------------------------------------------          
07174     7B 0D 03 FB |  p412                   rdlong  char,framebuf2          ' read a long char                          '1
07178     86 0F F3 F8 |                         getbyte backcolor,char,#2       ' byte #2 - background color                '2
0717c     86 11 FB F8 |                         getbyte charcolor,char,#3       ' byte #3 - foreground color                '3
07180     86 0D E3 F8 |                         getbyte char,char, #0           ' word #0 - char code                       '4
07184     04 F6 06 F1 |                         add     framebuf2,#4            ' point to the next long                    '5
07188     04 0C 67 F0 |                         shl     char,#4                 ' 1 char=16 bytes in font def               '6
0718c     80 0D 03 F1 |                         add     char,t2                 ' add this to font/line pointer             '7
07190     86 FF C2 FA |                         rdbyte  t1,char                 ' and get 8 pixels prom there               '8
07194     01 C4 8E F1 |                         sub     cursorpos,#1 wz         ' if there is a cursor                      '9
07198     FF FE 66 A5 |                   if_z  xor     t1, #$FF                ' reverse the colors                        '10         
0719c                 |   
0719c                 |   
0719c     7F 03 4B F8 |                         getnib t3,t1,#1                   ' 4 pixels to t3  						'1  - +
071a0     7F FF 42 F8 |                         getnib t1,t1,#0                   ' 4 pixels to t1							'2  - +
071a4     63 FE 62 FD |                         mergew t1                         ' make 01010101 from 1111					'3  - +
071a8     03 FE 06 FA |                         mul t1,#3 
071ac     7F B5 C2 FC |                         xcont m_lut2,t1
071b0     87 07 A3 FA |                         rdlut   t5,backcolor            ' read a background color from palette      '13
071b4     5D 07 33 FC |                         wrlut   t5,lutaddr              ' and write it to LUT #0 or #32             '14
071b8     01 BA 06 F1 |                         add     lutaddr,#1                                                          '15
071bc     88 07 A3 FA |                         rdlut   t5,charcolor            ' the same for the foreground               '16
071c0     5D 07 33 FC |                         wrlut   t5,lutaddr                                                          '17
071c4     01 BA 86 F1 |                         sub     lutaddr,#1                         
071c8     63 02 63 FD |                         mergew t3
071cc     03 02 07 FA |                         mul t3,#3
071d0     81 B5 C2 FC |                         xcont m_lut2,t3
071d4                 |    
071d4     10 B4 E6 F4 |                         bitnot  m_lut2,#16                                                          '19
071d8     10 9E E6 F4 |                         bitnot  m_lut1,#16                                                          '19
071dc                 |                         
071dc     20 BA 66 F5 |                         xor     lutaddr,#32             ' use LUT #0-1 and 32-33                    '20
071e0                 | 
071e0     E4 0B 6F FB |                         djnz   cpl2,#p412              
071e4     B0 00 90 FD |  p411                   jmp    #p103
071e8                 |                         
071e8                 | ''------------------------------------------------------------------------------------------------------------
071e8                 | 
071e8     02 0A 47 F0 |  p420                   shr cpl2,#2
071ec                 | 
071ec                 | ''---------------------------------------------------------------------------------------
071ec     7B 0D 03 FB |  p422                   rdlong  char,framebuf2          ' read a long char                          '1
071f0     86 0F F3 F8 |                         getbyte backcolor,char,#2       ' byte #2 - background color                '2
071f4     86 11 FB F8 |                         getbyte charcolor,char,#3       ' byte #3 - foreground color                '3
071f8     86 0D E3 F8 |                         getbyte char,char, #0           ' word #0 - char code                       '4
071fc     04 F6 06 F1 |                         add     framebuf2,#4            ' point to the next long                    '5
07200     04 0C 67 F0 |                         shl     char,#4                 ' 1 char=16 bytes in font def               '6
07204     80 0D 03 F1 |                         add     char,t2                 ' add this to font/line pointer             '7
07208     86 FF C2 FA |                         rdbyte  t1,char                 ' and get 8 pixels prom there               '8
0720c     01 C4 8E F1 |                         sub     cursorpos,#1 wz         ' if there is a cursor                      '9
07210     FF FE 66 A5 |                   if_z  xor     t1, #$FF                ' reverse the colors                        '10
07214                 | 
07214     61 FE 62 FD |                         mergeb t1
07218     7F 03 3B F9 |                         getword t3,t1,#1
0721c     0F FE 06 FA |                         mul t1,#15
07220     7F B5 C2 FC |                         xcont m_lut2,t1
07224                 |                         
07224     87 07 A3 FA |                         rdlut   t5,backcolor            ' read a background color from palette      '13
07228     5D 07 33 FC |                         wrlut   t5,lutaddr              ' and write it to LUT #0 or #32             '14
0722c     01 BA 06 F1 |                         add     lutaddr,#1                                                          '15
07230     88 07 A3 FA |                         rdlut   t5,charcolor            ' the same for the foreground               '16
07234     5D 07 33 FC |                         wrlut   t5,lutaddr                                                          '17
07238     01 BA 86 F1 |                         sub     lutaddr,#1 
0723c                 |                         
0723c     7F 05 EB F8 |                         getbyte t4,t1,#1        '          
07240     82 B5 C2 FC |                         xcont m_lut2,t4                                                                                                           ' 
07244                 |                        
07244     0F 02 07 FA |                         mul t3,#15
07248     81 B5 C2 FC |                         xcont m_lut2,t3
0724c                 |                         
0724c     81 07 EB F8 |                         getbyte t5,t3,#1
07250     83 B5 C2 FC |                         xcont m_lut2, t5
07254     10 B4 E6 F4 |                         bitnot  m_lut2,#16                                                          '19
07258     10 9E E6 F4 |                         bitnot  m_lut1,#16                                                          '19
0725c                 |                         
0725c     20 BA 66 F5 |                         xor     lutaddr,#32             ' use LUT #0-1 and 32-33                    '20
07260                 | 
07260     E2 0B 6F FB |                         djnz   cpl2,#p422              
07264     30 00 90 FD |  p421                   jmp    #p103 
07268                 |                         
07268                 | '--------------------------------------------------------------------------------------------------------------                      
07268                 |         
07268     7B 0D 03 FB |  p430                   rdlong  char,framebuf2          ' read a long char                          '1
0726c     86 0F F3 F8 |                         getbyte backcolor,char,#2       ' byte #2 - background color                '2
07270     86 11 FB F8 |                         getbyte charcolor,char,#3       ' byte #3 - foreground color                '3
07274                 |      
07274     00 B4 C6 FC |                         xcont m_lut2,#0
07278                 |    
07278     87 07 A3 FA |                         rdlut   t5,backcolor            ' read a background color from palette      '13
0727c     5D 07 33 FC |                         wrlut   t5,lutaddr              ' and write it to LUT #0 or #32             '14
07280     01 BA 06 F1 |                         add     lutaddr,#1                                                          '15
07284     88 07 A3 FA |                         rdlut   t5,charcolor            ' the same for the foreground               '16
07288     5D 07 33 FC |                         wrlut   t5,lutaddr                                                          '17
0728c     01 BA 86 F1 |                         sub     lutaddr,#1  
07290                 | 
07290     F5 0B 6F FB |                         djnz   cpl2,#p430   
07294     00 00 90 FD |  p431                   jmp    #p103
07298                 |                         
07298                 | ''------------------------------------------------------------------------------------------------------------
07298                 |   
07298                 |                     
07298                 | 
07298     4E FF 32 F9 | p103            getword  t1,m_border,#0
0729c     00 FE 0E F2 |                 cmp      t1, #0 wz
072a0     49 9D C2 5C |                 if_nz    xcont   m_border,border            'display a right border if exists
072a4                 |                 
072a4     B0 FD 9F FD |                 jmp #p302
072a8                 |                 
072a8                 | '' -------------------------------------- END of text line ---------------------------------              
072a8                 |                 
072a8                 |   '' aaaa_aaaa_aaaa_aaaa_aazz_rrrr_rrrr_cc_10 - graph - display a graphics line
072a8                 | 
072a8     EC FD BF FD | graphline       call    #hsync                          ' now call hsync to gain some time between xconts
072ac                 | 
072ac                 |                
072ac     4E FF 32 F9 | p202            getword t1,m_border,#0                  
072b0     00 FE 0E F2 |                 cmp     t1, #0 wz
072b4     49 9D C2 5C |           if_nz xcont   m_border,border                 ' display a left border if exists
072b8                 |           
072b8                 | '----------------------------------------- display pixels
072b8                 |  
072b8     4F B5 02 F6 |                 mov     m_lut2,m_lut1                   ' m_lut1 loaded from hub timing block, pixel per long
072bc     55 0B 03 F6 |                 mov     cpl2,i_cpl                      ' i_cpl in graphic modes is longs per line
072c0                 | 
072c0     79 13 5B F8 |                 getnib  zoom, dl,#3
072c4     03 12 07 F5 |                 and		zoom, #3                        ' get a horizontal zoom for the line
072c8                 |              
072c8     79 B7 02 F6 |                 mov     colordepth,dl                   ' get a color depth, reuse linestart var f         '
072cc     0C B6 06 F5 |                 and     colordepth,#12
072d0                 |  
072d0     00 B6 0E F2 |                 cmp     colordepth,#%0000 wz            ' 1 bpp modes
072d4     68 B5 02 A1 |           if_z  add     m_lut2,lutg1   
072d8     68 00 90 AD |           if_z  jmp     #p240
072dc                 |           
072dc     04 B6 0E F2 |                 cmp     colordepth,#%0100 wz            ' 2 bpp modes
072e0     69 B5 02 A1 |           if_z  add     m_lut2,lutg2   
072e4     9C 00 90 AD |           if_z  jmp     #p250
072e8                 |           
072e8     08 B6 0E F2 |                 cmp     colordepth,#%1000 wz            ' 4 bpp modes
072ec     6A B5 02 A1 |           if_z  add     m_lut2,lutg4   
072f0     00 01 90 AD |           if_z  jmp     #p260
072f4                 | 
072f4     6B B5 02 F1 |                 add m_lut2,lutg8                        ' 8 bpp modes
072f8                 |             
072f8                 | '' --- 8 bit color modes 
072f8                 | 
072f8     00 12 0F F2 |                 cmp zoom, #%00 wz   '256 colors, zoom x1
072fc     54 01 90 AD |                 if_z jmp #p251      'there is an universal loop for 1x zoom at p251, saves one long of skip pattern
07300                 |                    
07300     01 12 0F F2 |                 cmp zoom, #%01 wz   '256 colors, zoom x2
07304     2A 08 07 A6 |            if_z mov skippattern,#%101010
07308                 |  '         
07308     02 12 0F F2 |                 cmp zoom, #%10 wz   '256 colors, zoom x4
0730c     19 08 07 A6 |            if_z mov skippattern,#%011001
07310                 |  '     
07310     03 12 0F F2 |                 cmp zoom, #%11 wz   '256 colors, zoom x8
07314     11 08 07 A6 |           if_z  mov skippattern,#%010001
07318     01 0A 47 A0 |           if_z  shr cpl2,#1         ' if 8x zoom, 2 xconts used in one loop, so divide loop count by 2
0731c                 |               '
0731c                 |                
0731c     7B 0D 03 FB | p231               rdlong  char,framebuf2           
07320     32 08 63 FD |                    skipf skippattern
07324     50 0C FF F9 |                    movbyts char,#%01010000         '0 1 1
07328     00 0C FF F9 |                    movbyts char,#%00000000         '1 0 0
0732c     86 B5 C2 FC |                    xcont   m_lut2,char             '0 0 0   
07330     86 B5 C2 FC |                    xcont   m_lut2,char             '1 1 0
07334                 |               '    add     framebuf2,#4            '1 1 1
07334     02 F6 06 F1 |                    add     framebuf2,#2			   '0 1 1
07338     01 F6 06 F1 |                    add     framebuf2,#1		       '1 0 0
0733c     F7 0B 6F FB |                    djnz    cpl2,#p231                  
07340                 |  
07340     20 01 90 FD |                jmp    #p203
07344                 |          
07344                 | '' --- 1 bit color modes   
07344                 | 
07344     00 12 0F F2 | p240          cmp zoom, #%00 wz     '2 colors, zoom x1
07348     08 01 90 AD |        if_z   jmp #p251              'there is an universal loop for 1x zoom at p251, saves one long of skip pattern 
0734c                 |                  
0734c     01 12 0F F2 |               cmp zoom, #%01 wz     '2 colors, zoom x2
07350     13 08 07 A6 |        if_z   mov skippattern,#%10011
07354     08 08 07 56 |        if_nz  mov skippattern,#%01000
07358                 |     
07358                 |          
07358     7B 0D E3 FA | p241               rdword  char,framebuf2    
0735c     44 0C FF F9 |                    movbyts char,#%01000100        
07360     63 0C 63 FD |                    mergew  char                   
07364     32 08 63 FD |                    skipf skippattern                   
07368     44 0C FF F9 |                    movbyts char,#%01000100         ' 1 0 
0736c     63 0C 63 FD |                    mergew  char                    ' 1 0 
07370     86 B5 C2 FC |                    xcont   m_lut2,char             ' 0 0  
07374     02 F6 06 F1 |                    add     framebuf2,#2			   ' 0 1 
07378     01 F6 06 F1 |                    add     framebuf2,#1		       ' 1 0 
0737c     F6 0B 6F FB |                    djnz   cpl2,#p241     
07380                 |                 
07380                 |  
07380     E0 00 90 FD |                jmp    #p203
07384                 | 
07384                 | '' --- 2 bit color modes   
07384                 | 
07384     00 12 0F F2 | p250          cmp zoom, #%00 wz     '4 colors, zoom x1
07388     C8 00 90 AD |        if_z   jmp #p251 
0738c                 |              
0738c     01 12 0F F2 |               cmp zoom, #%01 wz     '4 colors, zoom x2
07390     30 00 90 AD |        if_z   jmp #p252   
07394                 |            
07394                 |                 
07394     7B 0D C3 FA | p254               rdbyte char,framebuf2
07398     04 06 07 F6 |                    mov  t5,#4  
0739c     02 0C 67 F0 | p255               shl  char,#2              
073a0     86 FF 52 F8 |                    getnib  t1,char,#2           
073a4     03 FE 06 F5 |                    and     t1,#3                 
073a8     55 FE 06 FA |                    mul     t1,#$55               
073ac     7F 01 03 F9 |                    rolbyte  t2,t1,#0             
073b0     FA 07 6F FB |                    djnz    t5,#p255             
073b4     80 B5 C2 FC |                    xcont   m_lut2,t2 
073b8     01 F6 06 F1 |                    add     framebuf2,#1         
073bc     F5 0B 6F FB |                    djnz    cpl2,#p254  
073c0     A0 00 90 FD |                    jmp     #p203          
073c4                 |          
073c4     7B 0D E3 FA | p252               rdword char,framebuf2
073c8     08 06 07 F6 |                    mov  t5,#8  
073cc     02 0C 67 F0 | p253               shl  char,#2                  
073d0     86 FF 62 F8 |                    getnib  t1,char,#4            
073d4     03 FE 06 F5 |                    and     t1,#3                
073d8     05 FE 06 FA |                    mul     t1,#5                
073dc     7F 01 83 F8 |                    rolnib  t2,t1,#0              
073e0     FA 07 6F FB |                    djnz    t5,#p253              
073e4     80 B5 C2 FC |                    xcont   m_lut2,t2 
073e8     02 F6 06 F1 |                    add     framebuf2,#2          
073ec     F5 0B 6F FB |                    djnz    cpl2,#p252  
073f0     70 00 90 FD |                    jmp     #p203                    
073f4                 |   
073f4                 | '' ------ 4 bit color modes 
073f4                 | 
073f4     00 12 0F F2 | p260          cmp zoom, #%00 wz     '4 colors, zoom x1, the same loop as 2bpp
073f8     58 00 90 AD |        if_z   jmp #p251 
073fc                 |              
073fc     01 12 0F F2 |               cmp zoom, #%01 wz     '4 colors, zoom x2
07400     2C 00 90 AD |        if_z   jmp #p262   
07404                 |            
07404                 |        
07404     7B 0D C3 FA | p263               rdbyte char,framebuf2           
07408     02 0A DC FC |     			   rep #5,#2
0740c     86 01 8B F8 |     			     rolnib t2,char,#1
07410     86 01 8B F8 |    		  	         rolnib t2,char,#1
07414     86 01 8B F8 |     			     rolnib t2,char,#1
07418     86 01 8B F8 |    		  	         rolnib t2,char,#1
0741c     04 0C 67 F0 |     			     shl char,#4
07420     80 B5 C2 FC |                    xcont   m_lut2,t2 
07424     01 F6 06 F1 |                    add     framebuf2,#1          
07428     F6 0B 6F FB |                    djnz    cpl2,#p263  
0742c     34 00 90 FD |                    jmp     #p203                
07430                 |         
07430     7B 0D E3 FA | p262               rdword  char,framebuf2           
07434     04 06 DC FC |     			   rep #3,#4
07438     86 01 9B F8 |     			     rolnib t2,char,#3
0743c     86 01 9B F8 |    		  	         rolnib t2,char,#3
07440     04 0C 67 F0 |     			     shl char,#4
07444     80 B5 C2 FC |                    xcont   m_lut2,t2 
07448     02 F6 06 F1 |                    add     framebuf2,#2          
0744c     F8 0B 6F FB |                    djnz    cpl2,#p262  
07450     10 00 90 FD |                    jmp     #p203 
07454                 | 
07454                 | ''---------- all color modes without zoom
07454                 | 
07454     7B 0D 03 FB | p251               rdlong  char,framebuf2           
07458     86 B5 C2 FC |                    xcont   m_lut2,char 
0745c     04 F6 06 F1 |                    add     framebuf2,#4          
07460     FC 0B 6F FB |                    djnz    cpl2,#p251     ' no jmp #p203, not needed here
07464                 | 
07464                 |  ''-----------------------------------------------------------------------------------------
07464     4E FF 32 F9 | p203            getword  t1,m_border,#0
07468     00 FE 0E F2 |                 cmp      t1, #0 wz
0746c     49 9D C2 5C |                 if_nz    xcont   m_border,border            'display a right border if exists
07470                 |                 
07470     E4 FB 9F FD |                 jmp #p302
07474                 |                 
07474                 | '' -------------------------------------- END of graph  line ---------------------------------              
07474                 | 
07474                 | '' consts and vars
07474                 | 
07474     52 4D 35 D5 | sync_000        long    %1101010100_1101010100_1101010100_10    '
07478     AE 42 35 D5 | sync_001        long    %1101010100_1101010100_0010101011_10    '        hsync
0747c     52 45 15 55 | sync_222        long    %0101010100_0101010100_0101010100_10    'vsync
07480     AE 4A 15 55 | sync_223        long    %0101010100_0101010100_1010101011_10    'vsync + hsync
07484                 | 
07484     00 2C 1A 00 | border          long    %00000000_00011010_00101100_00000000
07488                 | 
07488                 | '------ these longs will be set by setmode function
07488                 | 
07488     00 00 00 00 | m_bs            long    0        'blanks before sync
0748c     00 00 00 00 | m_sn            long    0        'sync
07490     00 00 00 00 | m_bv            long    0        'blanks before visible
07494     00 00 00 00 | m_vi            long    0        'visible pixels #
07498     00 00 00 00 | m_border        long    0        'left/right borders
0749c     00 00 00 00 | m_lut1          long    0        'characters
074a0     00 00 00 00 | i_vborder       long    0        'up/down borders
074a4     00 00 00 00 | i_upporch       long    0        'up porch lines
074a8     00 00 00 00 | i_vsync         long    0        'vsync lines
074ac     00 00 00 00 | i_downporch     long    0        'down porch lines
074b0     00 00 00 00 | i_modenum       long    0        'mode #
074b4     00 00 00 00 | i_cpl           long    0        'chars/longs per line
074b8     00 00 00 00 | i_lines         long    0        'scanlines #
074bc     00 00 00 00 | i_clock         long    0
074c0     00 00 00 00 | i_hubset        long    0
074c4     00 00 00 00 | i_totalvis      long    0 
074c8                 | 
074c8                 | '-------------------------------------
074c8                 | 
074c8     00 00 00 00 | m_lut2          long    0
074cc                 | 
074cc                 | colordepth
074cc     00 00 00 00 | linestart       long    0
074d0     00 00 00 00 | linenum         long    0
074d4     00 01 00 00 | lutaddr         long    256
074d8                 | 
074d8     0E 00 00 00 | cursorsh        long    14
074dc     00 00 00 00 | frames          long    0
074e0     00 00 00 00 | cursorx         long    0
074e4     00 00 00 00 | cursory         long    0
074e8     00 00 00 00 | cursorpos       long    0
074ec     00 00 00 00 | cursorpos2      long    0
074f0     00 00 00 00 | fontstart       long    0
074f4     00 00 00 00 | border2 long 0
074f8     00 00 81 70 | lutiv	        long $70810000
074fc     00 00 88 00 | lutt1           long $00880000 
07500     00 00 8D 00 | lutg1           long $008d0000
07504     00 00 8E 10 | lutg2           long $108e0000
07508     00 00 8F 20 | lutg4           long $208f0000 
0750c     00 00 80 30 | lutg8           long $30800000
07510                 | framebuf        res     1
07510                 | fontbuf         res     1
07510                 | borderptr       res     1
07510                 | vblankptr       res     1
07510                 | cursorptr       res     1
07510                 | modeptr         res     1
07510                 | paletteptr      res     1
07510                 | commandptr      res     1
07510                 | dlptr			res     1
07510                 | fontnumptr      res     1
07510                 | hbase           res     1
07510                 | borderptr2      res     1
07510                 | dlptr2 res 1
07510                 | dl              res 1
07510                 | ii              res     1
07510                 | framebuf2       res     1
07510                 | hsync0          res     1
07510                 | hsync1          res     1
07510                 | fontline        res     1
07510                 | t1              res     1
07510                 | t2              res     1
07510                 | t3 res 1
07510                 | t4 res 1
07510                 | t5 res 1
07510                 | skippattern res 1
07510                 | cpl2 res 1
07510                 | char            res     1
07510                 | backcolor       res     1
07510                 | charcolor       res     1
07510                 | zoom res 1
07510     00 00 00 00 | aend             long 0
07514                 | objmem
07514     00 00 00 00 
      ...             
075f0     00 00 00 00 
075f4     00 00 00 00 | 	long	0[57]
075f8                 | stackspace
075f8     00 00 00 00 | 	long	0[1]
075fc 06e             | 	org	COG_BSS_START
075fc 06e             | _var01
075fc 06e             | 	res	1
075fc 06f             | _var02
075fc 06f             | 	res	1
075fc 070             | _var03
075fc 070             | 	res	1
075fc 071             | _var04
075fc 071             | 	res	1
075fc 072             | _var05
075fc 072             | 	res	1
075fc 073             | _var06
075fc 073             | 	res	1
075fc 074             | _var07
075fc 074             | 	res	1
075fc 075             | _var08
075fc 075             | 	res	1
075fc 076             | _var09
075fc 076             | 	res	1
075fc 077             | _var10
075fc 077             | 	res	1
075fc 078             | _var11
075fc 078             | 	res	1
075fc 079             | _var12
075fc 079             | 	res	1
075fc 07a             | _var13
075fc 07a             | 	res	1
075fc 07b             | _var14
075fc 07b             | 	res	1
075fc 07c             | _var15
075fc 07c             | 	res	1
075fc 07d             | _var16
075fc 07d             | 	res	1
075fc 07e             | _var17
075fc 07e             | 	res	1
075fc 07f             | _var18
075fc 07f             | 	res	1
075fc 080             | _var19
075fc 080             | 	res	1
075fc 081             | _var20
075fc 081             | 	res	1
075fc 082             | _var21
075fc 082             | 	res	1
075fc 083             | _var22
075fc 083             | 	res	1
075fc 084             | _var23
075fc 084             | 	res	1
075fc 085             | _var24
075fc 085             | 	res	1
075fc 086             | _var25
075fc 086             | 	res	1
075fc 087             | _var26
075fc 087             | 	res	1
075fc 088             | _var27
075fc 088             | 	res	1
075fc 089             | _var28
075fc 089             | 	res	1
075fc 08a             | _var29
075fc 08a             | 	res	1
075fc 08b             | _var30
075fc 08b             | 	res	1
075fc 08c             | _var31
075fc 08c             | 	res	1
075fc 08d             | _var32
075fc 08d             | 	res	1
075fc 08e             | _var33
075fc 08e             | 	res	1
075fc 08f             | _var34
075fc 08f             | 	res	1
075fc 090             | _var35
075fc 090             | 	res	1
075fc 091             | _var36
075fc 091             | 	res	1
075fc 092             | _var37
075fc 092             | 	res	1
075fc 093             | arg01
075fc 093             | 	res	1
075fc 094             | arg02
075fc 094             | 	res	1
075fc 095             | arg03
075fc 095             | 	res	1
075fc 096             | arg04
075fc 096             | 	res	1
075fc 097             | arg05
075fc 097             | 	res	1
075fc 098             | arg06
075fc 098             | 	res	1
075fc 099             | arg07
075fc 099             | 	res	1
075fc 09a             | arg08
075fc 09a             | 	res	1
075fc 09b             | arg09
075fc 09b             | 	res	1
075fc 09c             | arg10
075fc 09c             | 	res	1
075fc 09d             | arg11
075fc 09d             | 	res	1
075fc 09e             | arg12
075fc 09e             | 	res	1
075fc 09f             | arg13
075fc 09f             | 	res	1
075fc 0a0             | arg14
075fc 0a0             | 	res	1
075fc 0a1             | arg15
075fc 0a1             | 	res	1
075fc 0a2             | arg16
075fc 0a2             | 	res	1
075fc 0a3             | arg17
075fc 0a3             | 	res	1
075fc 0a4             | arg18
075fc 0a4             | 	res	1
075fc 0a5             | local01
075fc 0a5             | 	res	1
075fc 0a6             | local02
075fc 0a6             | 	res	1
075fc 0a7             | local03
075fc 0a7             | 	res	1
075fc 0a8             | local04
075fc 0a8             | 	res	1
075fc 0a9             | local05
075fc 0a9             | 	res	1
075fc 0aa             | local06
075fc 0aa             | 	res	1
075fc 0ab             | local07
075fc 0ab             | 	res	1
075fc 0ac             | local08
075fc 0ac             | 	res	1
075fc 0ad             | local09
075fc 0ad             | 	res	1
075fc 0ae             | local10
075fc 0ae             | 	res	1
075fc 0af             | local11
075fc 0af             | 	res	1
075fc 0b0             | local12
075fc 0b0             | 	res	1
075fc 0b1             | local13
075fc 0b1             | 	res	1
075fc 0b2             | local14
075fc 0b2             | 	res	1
075fc 0b3             | local15
075fc 0b3             | 	res	1
075fc 0b4             | local16
075fc 0b4             | 	res	1
075fc 0b5             | local17
075fc 0b5             | 	res	1
075fc 0b6             | local18
075fc 0b6             | 	res	1
075fc 0b7             | local19
075fc 0b7             | 	res	1
075fc 0b8             | local20
075fc 0b8             | 	res	1
075fc 0b9             | local21
075fc 0b9             | 	res	1
075fc 0ba             | local22
075fc 0ba             | 	res	1
075fc 0bb             | local23
075fc 0bb             | 	res	1
075fc 0bc             | local24
075fc 0bc             | 	res	1
075fc 0bd             | local25
075fc 0bd             | 	res	1
075fc 0be             | local26
075fc 0be             | 	res	1
075fc 0bf             | local27
075fc 0bf             | 	res	1
075fc 0c0             | local28
075fc 0c0             | 	res	1
075fc 0c1             | local29
075fc 0c1             | 	res	1
075fc 0c2             | local30
075fc 0c2             | 	res	1
075fc 0c3             | local31
075fc 0c3             | 	res	1
075fc 0c4             | local32
075fc 0c4             | 	res	1
075fc 0c5             | local33
075fc 0c5             | 	res	1
075fc 0c6             | muldiva_
075fc 0c6             | 	res	1
075fc 0c7             | muldivb_
075fc 0c7             | 	res	1
075fc 0c8             | 	fit	480