
00000                 | 
00000                 | #line 1 "D:/Programowanie/ultibo-propeller/hng012/hng023.p2asm"
00000                 | ' 
00000                 | ' 
00000                 | ' hdmi_base       = 48             'must be a multiple of 8
00000                 | con
00000                 | 	hdmi_base = 48
00000                 | ' _clkfreq        = 345_000_000    'start safe, hubset will do the rest. The clock will be changed to:
00000                 | 	_clkfreq = 345000000
00000                 | ' 
00000                 | ' ' 354_689_500   200x Atari 8-bit PAL,  50x Amiga PAL  - real settings: 49,869-> 354_693_878  - 1.0000123 - mode 0 and 192
00000                 | ' ' 357_954_500   200x Atari 8-bit NTSC, 50x Amiga NTSC - real settings: 49,877-> 357_959_184  - 1.0000131 - mode 256
00000                 | ' 
00000                 | ' ' 319_220_550   180x PAL  - real settings: 51,814-> 319_215_686 - 0.9999848 - mode 64
00000                 | ' ' 322_159_050   180x NTSC - real settings: 37,596-> 322_162_162 - 1.0000097 - mode 320 and 448
00000                 | ' 
00000                 | ' ' 283_751_600   160x PAL  - real settings: 64,908-> 283_750_000 - 0.9999944 - mode 128
00000                 | ' ' 286_363_600   160x NTSC - real settings: 22,315-> 286_363_636 - 1.0000001 - mode 384
00000                 | ' 
00000                 | ' ''--------- VGA DOS color definition constants
00000                 | ' 
00000                 | ' c_black         =    0
00000                 | 	c_black = 0
00000                 | ' c_blue          =  117
00000                 | 	c_blue = 117
00000                 | ' c_green         =  199
00000                 | 	c_green = 199
00000                 | ' c_cyan          =  149
00000                 | 	c_cyan = 149
00000                 | ' c_red           =   39
00000                 | 	c_red = 39
00000                 | ' c_magenta       =   71
00000                 | 	c_magenta = 71
00000                 | ' c_brown         =  246
00000                 | 	c_brown = 246
00000                 | ' c_lightgray     =   10
00000                 | 	c_lightgray = 10
00000                 | ' c_darkgray      =    5
00000                 | 	c_darkgray = 5
00000                 | ' c_lightblue     =  121
00000                 | 	c_lightblue = 121
00000                 | ' c_lightgreen    =  203
00000                 | 	c_lightgreen = 203
00000                 | ' c_lightcyan     =  155
00000                 | 	c_lightcyan = 155
00000                 | ' c_lightred      =   43
00000                 | 	c_lightred = 43
00000                 | ' c_lightmagenta  =   75
00000                 | 	c_lightmagenta = 75
00000                 | ' c_yellow        =  234
00000                 | 	c_yellow = 234
00000                 | ' c_white         =   15
00000                 | 	c_white = 15
00000                 | ' 
00000                 | ' timingsxxt      =  $70810000
00000                 | 	timingsxxt = 1887502336
00000                 | dat
00000 000 00 00 00 00 | 	nop
00004 001 01 EC 63 FD | 	cogid	pa
00008 002 02 00 00 FF 
0000c 003 04 EC E7 FC | 	coginit	pa,##$404
00010                 | 	orgh	$10
00010     00 00 00 00 | 	long	0	'reserved
00014     00 00 00 00 | 	long	0 ' clock frequency: will default to 345000000
00018     00 00 00 00 | 	long	0 ' clock mode: will default to $10c44fb
0001c     00 00 00 00 
      ...             
003f8     00 00 00 00 
003fc     00 00 00 00 | 	orgh	$400
00400     00 02 05 06 |  _ret_	mov	result1, #0
00404 000             | 	org	0
00404 000             | entry
00404 000 00 F0 0F F2 | 	cmp	ptra, #0 wz
00408 001 94 00 90 5D |  if_ne	jmp	#spininit
0040c 002 79 F0 03 F6 | 	mov	ptra, objptr
00410 003 F8 F0 07 F1 | 	add	ptra, #248
00414 004 14 EC 0F FB | 	rdlong	pa, #20 wz
00418 005 68 00 90 5D |  if_ne	jmp	#skip_clock_set_
0041c 006 00 00 64 FD | 	hubset	#0
00420 007 22 86 80 FF 
00424 008 00 F0 65 FD | 	hubset	##17581304
00428 009 86 01 80 FF 
0042c 00a 1F 80 66 FD | 	waitx	##200000
00430 00b 22 86 00 FF 
00434 00c FB EC 07 F6 | 	mov	pa, ##17581307
00438 00d 00 EC 63 FD | 	hubset	pa
0043c 00e 18 EC 67 FC | 	wrlong	pa, #24
00440 00f 24 48 8A FF 
00444 010 14 80 6C FC | 	wrlong	##345000000, #20
00448 011 38 00 90 FD | 	jmp	#skip_clock_set_
0044c 012 00 00 00 00 
      ...             
0047c 01e 00 00 00 00 
00480 01f 00 00 00 00 | 	orgf	32
00484 020             | skip_clock_set_
00484 020 04 EC 60 FD | 	locknew	__lockreg
00488 021 7A EC 60 FC | 	wrlong	__lockreg, ptr___lockreg_
0048c 022 10 06 A0 FD | 	call	#_dummy
00490 023             | cogexit
00490 023 38 01 80 FF 
00494 024 1F 00 66 FD | 	waitx	##160000
00498 025 01 64 61 FD | 	cogid	arg01
0049c 026 03 64 61 FD | 	cogstop	arg01
004a0 027             | spininit
004a0 027 00 F3 04 FB | 	rdlong	objptr, ptra
004a4 028 04 F0 07 F1 | 	add	ptra, #4
004a8 029 00 03 05 FB | 	rdlong	result1, ptra
004ac 02a 04 F0 07 F1 | 	add	ptra, #4
004b0 02b 00 65 05 FB | 	rdlong	arg01, ptra
004b4 02c 04 F0 07 F1 | 	add	ptra, #4
004b8 02d 00 67 05 FB | 	rdlong	arg02, ptra
004bc 02e 04 F0 07 F1 | 	add	ptra, #4
004c0 02f 00 69 05 FB | 	rdlong	arg03, ptra
004c4 030 04 F0 07 F1 | 	add	ptra, #4
004c8 031 00 6B 05 FB | 	rdlong	arg04, ptra
004cc 032 10 F0 87 F1 | 	sub	ptra, #16
004d0 033 2D 02 61 FD | 	call	result1
004d4 034 B8 FF 9F FD | 	jmp	#cogexit
004d8 035             | FCACHE_LOAD_
004d8 035 2B 86 60 FD |     pop	fcache_tmpb_
004dc 036 F6 87 00 F1 |     add	fcache_tmpb_, pa
004e0 037 2A 86 60 FD |     push	fcache_tmpb_
004e4 038 F6 87 80 F1 |     sub	fcache_tmpb_, pa
004e8 039 02 EC 47 F0 |     shr	pa, #2
004ec 03a F6 85 00 F6 |     mov	fcache_tmpa_, pa
004f0 03b 00 85 04 F1 |     add	fcache_tmpa_, #$100
004f4 03c 42 82 30 FC |     wrlut ret_instr_, fcache_tmpa_
004f8 03d 01 EC 87 F1 |     sub	pa, #1
004fc 03e 29 EC 63 FD |     setq2	pa
00500 03f 43 00 02 FB |     rdlong	$100-0, fcache_tmpb_
00504 040 00 03 80 FD |     jmp	#\$300 ' jmp to cache
00508 041             | ret_instr_
00508 041 2D 00 64 FD |     ret
0050c 042             | fcache_tmpa_
0050c 042 00 00 00 00 |     long 0
00510 043             | fcache_tmpb_
00510 043 00 00 00 00 |     long 0
00514 044             | COUNT_
00514 044 00 00 00 00 |     long 0
00518 045             | RETADDR_
00518 045 00 00 00 00 |     long 0
0051c 046             | fp
0051c 046 00 00 00 00 |     long 0
00520 047             | gosub_
00520 047 00 88 04 F6 |     mov  COUNT_, #0
00524 048 B2 EC 03 F6 |     mov  pa, arg01
00528 049 2B 8A 60 FD |     pop  RETADDR_
0052c 04a 1C 00 90 FD |     jmp  #pushregs_done_
00530 04b             | pushregs_
00530 04b 2B EC 63 FD |     pop  pa
00534 04c 2B 8A 60 FD |     pop  RETADDR_
00538 04d 04 88 94 FB |     tjz  COUNT_, #pushregs_done_
0053c 04e 01 88 84 F1 |     sub  COUNT_, #1
00540 04f 28 88 60 FD |     setq COUNT_
00544 050 00 6F 65 FC |     wrlong local01, ptra
00548 051 01 88 04 F1 |     add  COUNT_, #1
0054c 052             | pushregs_done_
0054c 052 02 88 64 F0 |     shl  COUNT_, #2
00550 053 44 F0 03 F1 |     add  ptra, COUNT_
00554 054 02 88 44 F0 |     shr  COUNT_, #2
00558 055 28 04 64 FD |     setq #2 ' push 3 registers starting at COUNT_
0055c 056 00 89 64 FC |     wrlong COUNT_, ptra
00560 057 0C F0 07 F1 |     add    ptra, #12
00564 058 F8 8D 00 F6 |     mov    fp, ptra
00568 059 2C EC 63 FD |     jmp  pa
0056c 05a             |  popregs_
0056c 05a 2B EC 63 FD |     pop    pa
00570 05b 0C F0 87 F1 |     sub    ptra, #12
00574 05c 28 04 64 FD |     setq   #2
00578 05d 00 89 04 FB |     rdlong COUNT_, ptra
0057c 05e 06 88 94 FB |     tjz    COUNT_, #popregs__ret
00580 05f 02 88 64 F0 |     shl    COUNT_, #2
00584 060 44 F0 83 F1 |     sub    ptra, COUNT_
00588 061 02 88 44 F0 |     shr    COUNT_, #2
0058c 062 01 88 84 F1 |     sub    COUNT_, #1
00590 063 28 88 60 FD |     setq   COUNT_
00594 064 00 6F 05 FB |     rdlong local01, ptra
00598 065             | popregs__ret
00598 065 2A 8A 60 FD |     push   RETADDR_
0059c 066 2C EC 63 FD |     jmp    pa
005a0 067             | 
005a0 067             | unsdivide_
005a0 067 28 00 64 FD |        setq    #0
005a4 068 D8 AE 11 FD |        qdiv    muldiva_, muldivb_
005a8 069 18 B0 61 FD |        getqx   muldivb_
005ac 06a 19 AE 61 0D |  _ret_ getqy   muldiva_
005b0 06b             | 
005b0 06b             | divide_
005b0 06b D7 AE 51 F6 |        abs     muldiva_,muldiva_     wc       'abs(x)
005b4 06c 03 F0 84 F5 |        muxc    itmp2_,#%11                    'store sign of x
005b8 06d D8 B0 59 F6 |        abs     muldivb_,muldivb_     wcz      'abs(y)
005bc 06e 02 F0 64 C5 |  if_c  xor     itmp2_,#%10                    'store sign of y
005c0 06f 2D 00 64 AD |  if_z  ret
005c4 070 D8 FF BF FD |        call    #unsdivide_
005c8 071 01 F0 D4 F7 |        test    itmp2_,#1        wc       'restore sign, remainder
005cc 072 D7 AE 81 F6 |        negc    muldiva_,muldiva_ 
005d0 073 02 F0 D4 F7 |        test    itmp2_,#%10      wc       'restore sign, division result
005d4 074 D8 B0 81 06 |  _ret_ negc    muldivb_,muldivb_
005d8 075             | 
005d8 075             | __heap_ptr
005d8 075 00 59 00 00 | 	long	@__heap_base
005dc 076             | __lockreg
005dc 076 00 00 00 00 | 	long	0
005e0 077             | itmp1_
005e0 077 00 00 00 00 | 	long	0
005e4 078             | itmp2_
005e4 078 00 00 00 00 | 	long	0
005e8 079             | objptr
005e8 079 08 69 00 00 | 	long	@objmem
005ec 07a             | ptr___lockreg_
005ec 07a DC 05 00 00 | 	long	@__lockreg
005f0 07b             | ptr___system__dat__
005f0 07b F0 58 00 00 | 	long	@__system__dat_
005f4 07c             | ptr__dat__
005f4 07c 54 34 00 00 | 	long	@_dat_
005f8 07d             | ptr__putpixel1_
005f8 07d 0C 18 00 00 | 	long	@_putpixel1
005fc 07e             | ptr__putpixel2_
005fc 07e F4 18 00 00 | 	long	@_putpixel2
00600 07f             | ptr__putpixel4_
00600 07f CC 19 00 00 | 	long	@_putpixel4
00604 080             | ptr__putpixel8_
00604 080 A4 1A 00 00 | 	long	@_putpixel8
00608 081             | result1
00608 081 00 00 00 00 | 	long	0
0060c 082             | result2
0060c 082 00 00 00 00 | 	long	0
00610 083             | COG_BSS_START
00610 083             | 	fit	480
00610                 | 	orgh
00610                 | hubentry
00610                 | 
00610                 | ' 
00610                 | ' 
00610                 | ' ''--------- timings
00610                 | ' ' 0  m_bs        - before sync,             16      80
00610                 | ' ' 1  m_sn        - sync                     80     160
00610                 | ' ' 2  m_bv        - before visible           20      84
00610                 | ' ' 3  m_vi        - visible                1024     816
00610                 | ' ' 4  m_border    - left and right borders  112       8
00610                 | ' ' 5  m_lut1      - pixels per char           8       8
00610                 | ' ' 6  i_vborder   - up and down border       48       8
00610                 | ' ' 7  i_upporch   - up non visible           16       8
00610                 | ' ' 8  i_vsync     - vsync                    16      12
00610                 | ' ' 9  i_downporch - down non visible         16       8
00610                 | ' '10  mode #
00610                 | ' '11  cpl         - character per line
00610                 | ' '12  scanlines #
00610                 | ' '13  clock
00610                 | ' '14  hubset value for clock settings
00610                 | ' 
00610                 | ' 
00610                 | ' '*************************************************************************
00610                 | ' '                                                                        *
00610                 | ' '  A dummy start function if someone runs this driver alone              *
00610                 | ' '                                                                        *
00610                 | ' '*************************************************************************
00610                 | ' 
00610                 | ' pub dummy()|i,x,y,ntsc,bbb,ccc,zzx,zzy,amode,x1,x2,y1,y2,r
00610                 | _dummy
00610     20 88 04 F6 | 	mov	COUNT_, #32
00614     4B 00 A0 FD | 	call	#pushregs_
00618                 | ' '' this is not a main program.
00618                 | ' 
00618                 | ' start(512+64+48,8)
00618     01 00 00 FF 
0061c     70 6E 05 F6 | 	mov	local01, ##624
00620     30 F2 04 F1 | 	add	objptr, #48
00624     79 70 01 F6 | 	mov	local02, objptr
00628                 | ' 
00628                 | ' ' initialize pointers and variables
00628                 | ' 
00628                 | ' border_ptr:=@bordercolor
00628     28 F2 84 F1 | 	sub	objptr, #40
0062c     79 70 61 FC | 	wrlong	local02, objptr
00630     08 00 00 FF 
00634     00 F8 04 F1 | 	add	ptr__dat__, ##4096
00638                 | ' font_ptr:=@st_font
00638     04 F2 84 F1 | 	sub	objptr, #4
0063c     79 F8 60 FC | 	wrlong	ptr__dat__, objptr
00640                 | ' hdmibase:=base
00640     24 F2 04 F1 | 	add	objptr, #36
00644     79 10 68 FC | 	wrlong	#8, objptr
00648     28 F2 84 F1 | 	sub	objptr, #40
0064c     7D 66 01 F6 | 	mov	arg02, ptr__putpixel1_
00650                 | ' p1:=@putpixel1
00650     79 64 01 F6 | 	mov	arg01, objptr
00654     08 00 00 FF 
00658     00 F8 84 F1 | 	sub	ptr__dat__, ##4096
0065c     BC 22 B0 FD | 	call	#__system___make_methodptr
00660     81 72 01 F6 | 	mov	local03, result1
00664     E8 F2 04 F1 | 	add	objptr, #232
00668     79 72 61 FC | 	wrlong	local03, objptr
0066c     E8 F2 84 F1 | 	sub	objptr, #232
00670     7E 66 01 F6 | 	mov	arg02, ptr__putpixel2_
00674                 | ' p2:=@putpixel2
00674     79 64 01 F6 | 	mov	arg01, objptr
00678     A0 22 B0 FD | 	call	#__system___make_methodptr
0067c     81 72 01 F6 | 	mov	local03, result1
00680     EC F2 04 F1 | 	add	objptr, #236
00684     79 72 61 FC | 	wrlong	local03, objptr
00688     EC F2 84 F1 | 	sub	objptr, #236
0068c     7F 66 01 F6 | 	mov	arg02, ptr__putpixel4_
00690                 | ' p4:=@putpixel4
00690     79 64 01 F6 | 	mov	arg01, objptr
00694     84 22 B0 FD | 	call	#__system___make_methodptr
00698     81 72 01 F6 | 	mov	local03, result1
0069c     F0 F2 04 F1 | 	add	objptr, #240
006a0     79 72 61 FC | 	wrlong	local03, objptr
006a4     F0 F2 84 F1 | 	sub	objptr, #240
006a8     80 66 01 F6 | 	mov	arg02, ptr__putpixel8_
006ac                 | ' p8:=@putpixel8
006ac     79 64 01 F6 | 	mov	arg01, objptr
006b0     68 22 B0 FD | 	call	#__system___make_methodptr
006b4     81 72 01 F6 | 	mov	local03, result1
006b8     F4 F2 04 F1 | 	add	objptr, #244
006bc     79 72 61 FC | 	wrlong	local03, objptr
006c0     F4 F2 84 F1 | 	sub	objptr, #244
006c4                 | ' 
006c4                 | ' 
006c4                 | ' ' the mode has to be set here to enable computing the buffer length
006c4                 | ' 
006c4                 | ' setmode(mode)
006c4     01 00 00 FF 
006c8     70 64 05 F6 | 	mov	arg01, ##624
006cc     B8 16 B0 FD | 	call	#_setmode
006d0     44 F2 04 F1 | 	add	objptr, #68
006d4     79 74 01 F6 | 	mov	local04, objptr
006d8                 | ' 
006d8                 | ' vblank_ptr:=@vblank
006d8     38 F2 84 F1 | 	sub	objptr, #56
006dc     79 74 61 FC | 	wrlong	local04, objptr
006e0     2C F2 04 F1 | 	add	objptr, #44
006e4     79 76 01 F6 | 	mov	local05, objptr
006e8                 | ' cursor_ptr:=@cursor_x
006e8     28 F2 84 F1 | 	sub	objptr, #40
006ec     79 76 61 FC | 	wrlong	local05, objptr
006f0     0C 00 00 FF 
006f4     00 F8 04 F1 | 	add	ptr__dat__, ##6144
006f8                 | ' 
006f8                 | ' palette_ptr:=@ataripalette
006f8     08 F2 04 F1 | 	add	objptr, #8
006fc     79 F8 60 FC | 	wrlong	ptr__dat__, objptr
00700     84 F2 04 F1 | 	add	objptr, #132
00704     79 78 01 F6 | 	mov	local06, objptr
00708                 | ' command_ptr:=@cmd1
00708     80 F2 84 F1 | 	sub	objptr, #128
0070c     79 78 61 FC | 	wrlong	local06, objptr
00710     88 F2 04 F1 | 	add	objptr, #136
00714     79 7A 01 F6 | 	mov	local07, objptr
00718                 | ' fontnum_ptr:=@fontnum
00718     80 F2 84 F1 | 	sub	objptr, #128
0071c     79 7A 61 FC | 	wrlong	local07, objptr
00720                 | ' 
00720                 | ' fontnum:=0  ' PC type font ' TODO: font# in buffer byte #1
00720     80 F2 04 F1 | 	add	objptr, #128
00724     79 00 68 FC | 	wrlong	#0, objptr
00728     1C F2 04 F1 | 	add	objptr, #28
0072c     79 64 01 F6 | 	mov	arg01, objptr
00730     C0 F2 84 F1 | 	sub	objptr, #192
00734     03 00 00 FF 
00738     D8 F8 04 F1 | 	add	ptr__dat__, ##1752
0073c     7C 66 01 F6 | 	mov	arg02, ptr__dat__
00740     0F 00 00 FF 
00744     D8 F8 84 F1 | 	sub	ptr__dat__, ##7896
00748                 | ' bytemove(@colors,@vgacolors,16)
00748     10 68 05 F6 | 	mov	arg03, #16
0074c     CC 20 B0 FD | 	call	#__system__bytemove
00750                 | ' 
00750                 | ' ' initialize a cursor
00750                 | ' 
00750                 | ' cursor_x:=0
00750     38 F2 04 F1 | 	add	objptr, #56
00754     79 00 48 FC | 	wrbyte	#0, objptr
00758                 | ' cursor_y:=0
00758     01 F2 04 F1 | 	add	objptr, #1
0075c     79 00 48 FC | 	wrbyte	#0, objptr
00760                 | ' cursor_sh:=14
00760     01 F2 04 F1 | 	add	objptr, #1
00764     79 1C 48 FC | 	wrbyte	#14, objptr
00768                 | ' 
00768                 | ' cmd1:=257 ' set command idle
00768     62 F2 04 F1 | 	add	objptr, #98
0076c     79 02 6A FC | 	wrlong	#257, objptr
00770     9C F2 84 F1 | 	sub	objptr, #156
00774                 | ' 
00774                 | ' ' start the cog
00774                 | ' 
00774                 | ' cog:=coginit(16,@hdmi, @buf_ptr)
00774     0F 00 00 FF 
00778     E8 F8 04 F1 | 	add	ptr__dat__, ##7912
0077c     7C 66 01 F6 | 	mov	arg02, ptr__dat__
00780     0F 00 00 FF 
00784     E8 F8 84 F1 | 	sub	ptr__dat__, ##7912
00788     79 68 01 F6 | 	mov	arg03, objptr
0078c     10 64 05 F6 | 	mov	arg01, #16
00790     28 68 61 FD | 	setq	arg03
00794     B3 64 F1 FC | 	coginit	arg01, arg02 wc
00798     01 64 65 C6 |  if_b	neg	arg01, #1
0079c     B2 02 01 F6 | 	mov	result1, arg01
007a0     81 7C 01 F6 | 	mov	local08, result1
007a4     2C F2 04 F1 | 	add	objptr, #44
007a8     79 7C 61 FC | 	wrlong	local08, objptr
007ac     2C F2 84 F1 | 	sub	objptr, #44
007b0                 | ' waitms(20)
007b0     14 64 05 F6 | 	mov	arg01, #20
007b4     4C 22 B0 FD | 	call	#__system___waitms
007b8                 | ' 
007b8                 | ' ' clear the screen and set the colors to green on black
007b8                 | ' 
007b8                 | ' cls(c_green,c_black)
007b8     C7 64 05 F6 | 	mov	arg01, #199
007bc     00 66 05 F6 | 	mov	arg02, #0
007c0     64 13 B0 FD | 	call	#_cls
007c4                 | ' setbordercolor(0,0,128)
007c4     0F 68 C5 F9 | 	decod	arg03, #15
007c8                 | ' 
007c8                 | ' color:=r<<24+g<<16+b<<8
007c8                 | ' bordercolor:=color
007c8     30 F2 04 F1 | 	add	objptr, #48
007cc     40 00 80 FF 
007d0     79 00 68 FC | 	wrlong	##32768, objptr
007d4                 | ' setwritecolors(c_green,c_black)
007d4                 | ' 
007d4                 | ' 
007d4                 | ' write_color:=ff
007d4     0C F2 04 F1 | 	add	objptr, #12
007d8     79 8E 69 FC | 	wrlong	#199, objptr
007dc                 | ' write_background:=bb
007dc     04 F2 04 F1 | 	add	objptr, #4
007e0     79 00 68 FC | 	wrlong	#0, objptr
007e4                 | ' 
007e4                 | ' return cog
007e4     14 F2 84 F1 | 	sub	objptr, #20
007e8     79 02 01 FB | 	rdlong	result1, objptr
007ec     2C F2 84 F1 | 	sub	objptr, #44
007f0                 | ' cls(147,154)
007f0     93 64 05 F6 | 	mov	arg01, #147
007f4     9A 66 05 F6 | 	mov	arg02, #154
007f8     2C 13 B0 FD | 	call	#_cls
007fc                 | ' waitms(4000)
007fc     07 00 00 FF 
00800     A0 65 05 F6 | 	mov	arg01, ##4000
00804     FC 21 B0 FD | 	call	#__system___waitms
00808                 | ' repeat i from 0 to 10000
00808     13 00 00 FF 
0080c     11 7F 05 F6 | 	mov	local09, ##10001
00810                 | LR__0001
00810                 | '   ccc:=getrnd()&255
00810     1B 80 61 FD | 	getrnd	local10
00814     FF 80 05 F5 | 	and	local10, #255
00818                 | '   x1:=getrnd()+//896
00818     1B 02 61 FD | 	getrnd	result1
0081c     81 AE 01 F6 | 	mov	muldiva_, result1
00820     01 00 00 FF 
00824     80 B1 05 F6 | 	mov	muldivb_, ##896
00828     67 00 A0 FD | 	call	#unsdivide_
0082c     D7 82 01 F6 | 	mov	local11, muldiva_
00830                 | '   x2:=getrnd()+//896
00830     1B 02 61 FD | 	getrnd	result1
00834     81 AE 01 F6 | 	mov	muldiva_, result1
00838     01 00 00 FF 
0083c     80 B1 05 F6 | 	mov	muldivb_, ##896
00840     67 00 A0 FD | 	call	#unsdivide_
00844     D7 84 01 F6 | 	mov	local12, muldiva_
00848                 | '   y1:=getrnd()+//496
00848     1B 02 61 FD | 	getrnd	result1
0084c     81 AE 01 F6 | 	mov	muldiva_, result1
00850     F0 B1 05 F6 | 	mov	muldivb_, #496
00854     67 00 A0 FD | 	call	#unsdivide_
00858     D7 86 01 F6 | 	mov	local13, muldiva_
0085c                 | '   y2:=getrnd()+//496
0085c     1B 02 61 FD | 	getrnd	result1
00860     81 AE 01 F6 | 	mov	muldiva_, result1
00864     F0 B1 05 F6 | 	mov	muldivb_, #496
00868     67 00 A0 FD | 	call	#unsdivide_
0086c                 | ' 
0086c                 | ' 
0086c                 | '   line(x1,y1,x2,y2,ccc)
0086c     C1 64 01 F6 | 	mov	arg01, local11
00870     C3 66 01 F6 | 	mov	arg02, local13
00874     C2 68 01 F6 | 	mov	arg03, local12
00878     C0 6C 01 F6 | 	mov	arg05, local10
0087c     D7 6A 01 F6 | 	mov	arg04, muldiva_
00880     44 0C B0 FD | 	call	#_line
00884     E2 7F 6D FB | 	djnz	local09, #LR__0001
00888                 | ' 
00888                 | ' repeat i from 0 to 10000
00888     13 00 00 FF 
0088c     11 7F 05 F6 | 	mov	local09, ##10001
00890                 | LR__0002
00890                 | ' 
00890                 | '   x1:=getrnd()+//896
00890     1B 02 61 FD | 	getrnd	result1
00894     81 AE 01 F6 | 	mov	muldiva_, result1
00898     01 00 00 FF 
0089c     80 B1 05 F6 | 	mov	muldivb_, ##896
008a0     67 00 A0 FD | 	call	#unsdivide_
008a4     D7 82 01 F6 | 	mov	local11, muldiva_
008a8                 | '   y1:=getrnd()+//496
008a8     1B 02 61 FD | 	getrnd	result1
008ac     81 AE 01 F6 | 	mov	muldiva_, result1
008b0     F0 B1 05 F6 | 	mov	muldivb_, #496
008b4     67 00 A0 FD | 	call	#unsdivide_
008b8     D7 86 01 F6 | 	mov	local13, muldiva_
008bc                 | '   r:=getrnd()+//100
008bc     1B 02 61 FD | 	getrnd	result1
008c0     81 AE 01 F6 | 	mov	muldiva_, result1
008c4     64 B0 05 F6 | 	mov	muldivb_, #100
008c8     67 00 A0 FD | 	call	#unsdivide_
008cc                 | '   ccc:=getrnd()&255
008cc     1B 02 61 FD | 	getrnd	result1
008d0     81 6A 01 F6 | 	mov	arg04, result1
008d4     FF 6A 05 F5 | 	and	arg04, #255
008d8                 | '   fcircle(x1,y1,r,ccc)   
008d8     C1 64 01 F6 | 	mov	arg01, local11
008dc     C3 66 01 F6 | 	mov	arg02, local13
008e0     D7 68 01 F6 | 	mov	arg03, muldiva_
008e4     AC 08 B0 FD | 	call	#_fcircle
008e8     E9 7F 6D FB | 	djnz	local09, #LR__0002
008ec                 | ' 
008ec                 | ' repeat i from 0 to 10000
008ec     13 00 00 FF 
008f0     11 7F 05 F6 | 	mov	local09, ##10001
008f4                 | LR__0003
008f4                 | '   ccc:=getrnd()&255
008f4     1B 80 61 FD | 	getrnd	local10
008f8     FF 80 05 F5 | 	and	local10, #255
008fc                 | '   x1:=getrnd()+//896
008fc     1B 02 61 FD | 	getrnd	result1
00900     81 AE 01 F6 | 	mov	muldiva_, result1
00904     01 00 00 FF 
00908     80 B1 05 F6 | 	mov	muldivb_, ##896
0090c     67 00 A0 FD | 	call	#unsdivide_
00910     D7 82 01 F6 | 	mov	local11, muldiva_
00914                 | '   x2:=getrnd()+//896
00914     1B 02 61 FD | 	getrnd	result1
00918     81 AE 01 F6 | 	mov	muldiva_, result1
0091c     01 00 00 FF 
00920     80 B1 05 F6 | 	mov	muldivb_, ##896
00924     67 00 A0 FD | 	call	#unsdivide_
00928     D7 84 01 F6 | 	mov	local12, muldiva_
0092c                 | '   y1:=getrnd()+//496
0092c     1B 02 61 FD | 	getrnd	result1
00930     81 AE 01 F6 | 	mov	muldiva_, result1
00934     F0 B1 05 F6 | 	mov	muldivb_, #496
00938     67 00 A0 FD | 	call	#unsdivide_
0093c     D7 86 01 F6 | 	mov	local13, muldiva_
00940                 | '   y2:=getrnd()+//496
00940     1B 02 61 FD | 	getrnd	result1
00944     81 AE 01 F6 | 	mov	muldiva_, result1
00948     F0 B1 05 F6 | 	mov	muldivb_, #496
0094c     67 00 A0 FD | 	call	#unsdivide_
00950                 | ' 
00950                 | ' 
00950                 | '   frame(x1,y1,x2,y2,ccc)
00950     C1 88 01 F6 | 	mov	local14, local11
00954     C3 8A 01 F6 | 	mov	local15, local13
00958     C2 8C 01 F6 | 	mov	local16, local12
0095c     D7 8E 01 F6 | 	mov	local17, muldiva_
00960     C0 90 01 F6 | 	mov	local18, local10
00964                 | ' 
00964                 | ' line(x1,y1,x2,y1,c)
00964     C4 64 01 F6 | 	mov	arg01, local14
00968     C5 66 01 F6 | 	mov	arg02, local15
0096c     C6 68 01 F6 | 	mov	arg03, local16
00970     C5 6A 01 F6 | 	mov	arg04, local15
00974     C8 6C 01 F6 | 	mov	arg05, local18
00978     4C 0B B0 FD | 	call	#_line
0097c                 | ' line(x1,y2,x2,y2,c)
0097c     C4 64 01 F6 | 	mov	arg01, local14
00980     C7 66 01 F6 | 	mov	arg02, local17
00984     C6 68 01 F6 | 	mov	arg03, local16
00988     C7 6A 01 F6 | 	mov	arg04, local17
0098c     C8 6C 01 F6 | 	mov	arg05, local18
00990     34 0B B0 FD | 	call	#_line
00994                 | ' line(x1,y1,x1,y2,c)
00994     C4 64 01 F6 | 	mov	arg01, local14
00998     C5 66 01 F6 | 	mov	arg02, local15
0099c     C4 68 01 F6 | 	mov	arg03, local14
009a0     C7 6A 01 F6 | 	mov	arg04, local17
009a4     C8 6C 01 F6 | 	mov	arg05, local18
009a8     1C 0B B0 FD | 	call	#_line
009ac                 | ' line(x2,y1,x2,y2,c)
009ac     C6 64 01 F6 | 	mov	arg01, local16
009b0     C5 66 01 F6 | 	mov	arg02, local15
009b4     C6 68 01 F6 | 	mov	arg03, local16
009b8     C7 6A 01 F6 | 	mov	arg04, local17
009bc     C8 6C 01 F6 | 	mov	arg05, local18
009c0     04 0B B0 FD | 	call	#_line
009c4     CB 7F 6D FB | 	djnz	local09, #LR__0003
009c8                 | '   
009c8                 | ' repeat i from 0 to 10000
009c8     13 00 00 FF 
009cc     11 7F 05 F6 | 	mov	local09, ##10001
009d0                 | LR__0004
009d0                 | ' 
009d0                 | '   x1:=getrnd()+//896
009d0     1B 02 61 FD | 	getrnd	result1
009d4     81 AE 01 F6 | 	mov	muldiva_, result1
009d8     01 00 00 FF 
009dc     80 B1 05 F6 | 	mov	muldivb_, ##896
009e0     67 00 A0 FD | 	call	#unsdivide_
009e4     D7 82 01 F6 | 	mov	local11, muldiva_
009e8                 | '   y1:=getrnd()+//496
009e8     1B 02 61 FD | 	getrnd	result1
009ec     81 AE 01 F6 | 	mov	muldiva_, result1
009f0     F0 B1 05 F6 | 	mov	muldivb_, #496
009f4     67 00 A0 FD | 	call	#unsdivide_
009f8     D7 86 01 F6 | 	mov	local13, muldiva_
009fc                 | '   r:=getrnd()+//100
009fc     1B 02 61 FD | 	getrnd	result1
00a00     81 AE 01 F6 | 	mov	muldiva_, result1
00a04     64 B0 05 F6 | 	mov	muldivb_, #100
00a08     67 00 A0 FD | 	call	#unsdivide_
00a0c     D7 92 01 F6 | 	mov	local19, muldiva_
00a10                 | '   ccc:=getrnd()&255
00a10     1B 02 61 FD | 	getrnd	result1
00a14     81 6A 01 F6 | 	mov	arg04, result1
00a18     FF 6A 05 F5 | 	and	arg04, #255
00a1c                 | '   circle(x1,y1,r,ccc) 
00a1c     C1 64 01 F6 | 	mov	arg01, local11
00a20     C3 66 01 F6 | 	mov	arg02, local13
00a24     C9 68 01 F6 | 	mov	arg03, local19
00a28     84 08 B0 FD | 	call	#_circle
00a2c     E8 7F 6D FB | 	djnz	local09, #LR__0004
00a30                 | '   
00a30                 | ' repeat i from 0 to 10000
00a30     13 00 00 FF 
00a34     11 7F 05 F6 | 	mov	local09, ##10001
00a38                 | LR__0005
00a38                 | '   ccc:=getrnd()&255
00a38     1B 80 61 FD | 	getrnd	local10
00a3c     FF 80 05 F5 | 	and	local10, #255
00a40                 | '   x1:=getrnd()+//896
00a40     1B 02 61 FD | 	getrnd	result1
00a44     81 AE 01 F6 | 	mov	muldiva_, result1
00a48     01 00 00 FF 
00a4c     80 B1 05 F6 | 	mov	muldivb_, ##896
00a50     67 00 A0 FD | 	call	#unsdivide_
00a54     D7 82 01 F6 | 	mov	local11, muldiva_
00a58                 | '   x2:=getrnd()+//100
00a58     1B 02 61 FD | 	getrnd	result1
00a5c     81 AE 01 F6 | 	mov	muldiva_, result1
00a60     64 B0 05 F6 | 	mov	muldivb_, #100
00a64     67 00 A0 FD | 	call	#unsdivide_
00a68     D7 84 01 F6 | 	mov	local12, muldiva_
00a6c                 | '   y1:=getrnd()+//496
00a6c     1B 02 61 FD | 	getrnd	result1
00a70     81 AE 01 F6 | 	mov	muldiva_, result1
00a74     F0 B1 05 F6 | 	mov	muldivb_, #496
00a78     67 00 A0 FD | 	call	#unsdivide_
00a7c     D7 86 01 F6 | 	mov	local13, muldiva_
00a80                 | '   y2:=getrnd()+//100
00a80     1B 02 61 FD | 	getrnd	result1
00a84     81 AE 01 F6 | 	mov	muldiva_, result1
00a88     64 B0 05 F6 | 	mov	muldivb_, #100
00a8c     67 00 A0 FD | 	call	#unsdivide_
00a90     C1 94 01 F6 | 	mov	local20, local11
00a94     C2 94 01 F1 | 	add	local20, local12
00a98     C3 96 01 F6 | 	mov	local21, local13
00a9c     D7 96 01 F1 | 	add	local21, muldiva_
00aa0                 | ' 
00aa0                 | ' 
00aa0                 | '   box(x1,y1,x1+x2,y1+y2,ccc)  
00aa0     C1 98 01 F6 | 	mov	local22, local11
00aa4     C3 9A 01 F6 | 	mov	local23, local13
00aa8     C0 9C 01 F6 | 	mov	local24, local10
00aac                 | ' 
00aac                 | ' repeat yy from y1 to y2
00aac     CD 96 59 F2 | 	cmps	local21, local23 wcz
00ab0     01 9E 05 16 |  if_a	mov	local25, #1
00ab4     01 9E 65 E6 |  if_be	neg	local25, #1
00ab8     CF 96 01 F1 | 	add	local21, local25
00abc                 | LR__0006
00abc                 | '   line(x1,yy,x2,yy,c)
00abc     CC 64 01 F6 | 	mov	arg01, local22
00ac0     CA 68 01 F6 | 	mov	arg03, local20
00ac4     CE 6C 01 F6 | 	mov	arg05, local24
00ac8     CD 66 01 F6 | 	mov	arg02, local23
00acc     CD 6A 01 F6 | 	mov	arg04, local23
00ad0     F4 09 B0 FD | 	call	#_line
00ad4     CF 9A 01 F1 | 	add	local23, local25
00ad8     CB 9A 09 F2 | 	cmp	local23, local21 wz
00adc     DC FF 9F 5D |  if_ne	jmp	#LR__0006
00ae0     D5 7F 6D FB | 	djnz	local09, #LR__0005
00ae4                 | '       
00ae4                 | '   
00ae4                 | ' {
00ae4                 | ' }
00ae4                 | ' setfontfamily(4)
00ae4                 | ' 
00ae4                 | ' font_family:=afontnum
00ae4     D4 F2 04 F1 | 	add	objptr, #212
00ae8     79 08 68 FC | 	wrlong	#4, objptr
00aec     D4 F2 84 F1 | 	sub	objptr, #212
00af0                 | ' repeat amode from 512 to 1023
00af0     09 A0 C5 F9 | 	decod	local26, #9
00af4                 | LR__0007
00af4                 | '   setmode(amode)
00af4     D0 64 01 F6 | 	mov	arg01, local26
00af8     8C 12 B0 FD | 	call	#_setmode
00afc     D0 80 01 F6 | 	mov	local10, local26
00b00     04 80 45 F0 | 	shr	local10, #4
00b04     03 80 0D F5 | 	and	local10, #3 wz
00b08                 | '   ccc:=((amode>>4)&3)
00b08                 | '   if (ccc==0)
00b08     80 01 90 5D |  if_ne	jmp	#LR__0008
00b0c                 | '     cls(0,1)
00b0c     00 64 05 F6 | 	mov	arg01, #0
00b10     01 66 05 F6 | 	mov	arg02, #1
00b14     10 10 B0 FD | 	call	#_cls
00b18                 | '     outtextxycg(0,0,string("mode"),0,1)
00b18     19 00 00 FF 
00b1c     DA 69 05 F6 | 	mov	arg03, ##@LR__0206
00b20     00 64 05 F6 | 	mov	arg01, #0
00b24     00 66 05 F6 | 	mov	arg02, #0
00b28     00 6A 05 F6 | 	mov	arg04, #0
00b2c     01 6C 05 F6 | 	mov	arg05, #1
00b30     38 0C B0 FD | 	call	#_outtextxycg
00b34                 | '     outtextxycg(0,16,string("cpl"),0,1)
00b34     19 00 00 FF 
00b38     DF 69 05 F6 | 	mov	arg03, ##@LR__0207
00b3c     00 64 05 F6 | 	mov	arg01, #0
00b40     10 66 05 F6 | 	mov	arg02, #16
00b44     00 6A 05 F6 | 	mov	arg04, #0
00b48     01 6C 05 F6 | 	mov	arg05, #1
00b4c     1C 0C B0 FD | 	call	#_outtextxycg
00b50                 | '     outtextxycg(0,32,string("bufptr"),0,1)
00b50     19 00 00 FF 
00b54     E3 69 05 F6 | 	mov	arg03, ##@LR__0208
00b58     00 64 05 F6 | 	mov	arg01, #0
00b5c     20 66 05 F6 | 	mov	arg02, #32
00b60     00 6A 05 F6 | 	mov	arg04, #0
00b64     01 6C 05 F6 | 	mov	arg05, #1
00b68     00 0C B0 FD | 	call	#_outtextxycg
00b6c                 | '     outtextxycg(0,48,string("buflen"),0,1)
00b6c     19 00 00 FF 
00b70     EA 69 05 F6 | 	mov	arg03, ##@LR__0209
00b74     00 64 05 F6 | 	mov	arg01, #0
00b78     30 66 05 F6 | 	mov	arg02, #48
00b7c     00 6A 05 F6 | 	mov	arg04, #0
00b80     01 6C 05 F6 | 	mov	arg05, #1
00b84     E4 0B B0 FD | 	call	#_outtextxycg
00b88                 | '     outtextxycg(0,64,string("lines"),0,1)
00b88     19 00 00 FF 
00b8c     F1 69 05 F6 | 	mov	arg03, ##@LR__0210
00b90     00 64 05 F6 | 	mov	arg01, #0
00b94     40 66 05 F6 | 	mov	arg02, #64
00b98     00 6A 05 F6 | 	mov	arg04, #0
00b9c     01 6C 05 F6 | 	mov	arg05, #1
00ba0     C8 0B B0 FD | 	call	#_outtextxycg
00ba4                 | '     outtextxycg(64,0,inttostr(amode),0,1)
00ba4     40 A2 05 F6 | 	mov	local27, #64
00ba8     00 A4 05 F6 | 	mov	local28, #0
00bac     D0 64 01 F6 | 	mov	arg01, local26
00bb0     C4 10 B0 FD | 	call	#_inttostr
00bb4     81 68 01 F6 | 	mov	arg03, result1
00bb8     D1 64 01 F6 | 	mov	arg01, local27
00bbc     D2 66 01 F6 | 	mov	arg02, local28
00bc0     00 6A 05 F6 | 	mov	arg04, #0
00bc4     01 6C 05 F6 | 	mov	arg05, #1
00bc8     A0 0B B0 FD | 	call	#_outtextxycg
00bcc                 | '     outtextxycg(64,16,inttostr(cpl),0,1)
00bcc     40 A2 05 F6 | 	mov	local27, #64
00bd0     10 A4 05 F6 | 	mov	local28, #16
00bd4     94 F2 04 F1 | 	add	objptr, #148
00bd8     79 64 01 FB | 	rdlong	arg01, objptr
00bdc     94 F2 84 F1 | 	sub	objptr, #148
00be0     94 10 B0 FD | 	call	#_inttostr
00be4     81 68 01 F6 | 	mov	arg03, result1
00be8     D1 64 01 F6 | 	mov	arg01, local27
00bec     D2 66 01 F6 | 	mov	arg02, local28
00bf0     00 6A 05 F6 | 	mov	arg04, #0
00bf4     01 6C 05 F6 | 	mov	arg05, #1
00bf8     70 0B B0 FD | 	call	#_outtextxycg
00bfc                 | '     outtextxycg(64,32,inttostr(buf_ptr),0,1)
00bfc     40 A2 05 F6 | 	mov	local27, #64
00c00     20 A4 05 F6 | 	mov	local28, #32
00c04     79 64 01 FB | 	rdlong	arg01, objptr
00c08     6C 10 B0 FD | 	call	#_inttostr
00c0c     81 68 01 F6 | 	mov	arg03, result1
00c10     D1 64 01 F6 | 	mov	arg01, local27
00c14     D2 66 01 F6 | 	mov	arg02, local28
00c18     00 6A 05 F6 | 	mov	arg04, #0
00c1c     01 6C 05 F6 | 	mov	arg05, #1
00c20     48 0B B0 FD | 	call	#_outtextxycg
00c24     34 F2 04 F1 | 	add	objptr, #52
00c28     79 64 01 FB | 	rdlong	arg01, objptr
00c2c     34 F2 84 F1 | 	sub	objptr, #52
00c30     02 64 65 F0 | 	shl	arg01, #2
00c34                 | '     outtextxycg(64,48,inttostr(buflen*4),0,1)
00c34     40 A2 05 F6 | 	mov	local27, #64
00c38     30 A4 05 F6 | 	mov	local28, #48
00c3c     38 10 B0 FD | 	call	#_inttostr
00c40     81 68 01 F6 | 	mov	arg03, result1
00c44     D1 64 01 F6 | 	mov	arg01, local27
00c48     D2 66 01 F6 | 	mov	arg02, local28
00c4c     00 6A 05 F6 | 	mov	arg04, #0
00c50     01 6C 05 F6 | 	mov	arg05, #1
00c54     14 0B B0 FD | 	call	#_outtextxycg
00c58                 | '     outtextxycg(64,64,inttostr(lines),0,1)
00c58     40 A2 05 F6 | 	mov	local27, #64
00c5c     40 A4 05 F6 | 	mov	local28, #64
00c60     98 F2 04 F1 | 	add	objptr, #152
00c64     79 64 01 FB | 	rdlong	arg01, objptr
00c68     98 F2 84 F1 | 	sub	objptr, #152
00c6c     08 10 B0 FD | 	call	#_inttostr
00c70     81 68 01 F6 | 	mov	arg03, result1
00c74     D1 64 01 F6 | 	mov	arg01, local27
00c78     D2 66 01 F6 | 	mov	arg02, local28
00c7c     00 6A 05 F6 | 	mov	arg04, #0
00c80     01 6C 05 F6 | 	mov	arg05, #1
00c84     E4 0A B0 FD | 	call	#_outtextxycg
00c88     94 04 90 FD | 	jmp	#LR__0014
00c8c                 | LR__0008
00c8c                 | '   elseif (ccc==1)
00c8c     01 80 0D F2 | 	cmp	local10, #1 wz
00c90     80 01 90 5D |  if_ne	jmp	#LR__0009
00c94                 | '     cls(0,0)
00c94     00 64 05 F6 | 	mov	arg01, #0
00c98     00 66 05 F6 | 	mov	arg02, #0
00c9c     88 0E B0 FD | 	call	#_cls
00ca0                 | '     outtextxycg(0,0,string("mode"),3,0)
00ca0     19 00 00 FF 
00ca4     F7 69 05 F6 | 	mov	arg03, ##@LR__0211
00ca8     00 64 05 F6 | 	mov	arg01, #0
00cac     00 66 05 F6 | 	mov	arg02, #0
00cb0     03 6A 05 F6 | 	mov	arg04, #3
00cb4     00 6C 05 F6 | 	mov	arg05, #0
00cb8     B0 0A B0 FD | 	call	#_outtextxycg
00cbc                 | '     outtextxycg(0,16,string("cpl"),3,0)'
00cbc     19 00 00 FF 
00cc0     FC 69 05 F6 | 	mov	arg03, ##@LR__0212
00cc4     00 64 05 F6 | 	mov	arg01, #0
00cc8     10 66 05 F6 | 	mov	arg02, #16
00ccc     03 6A 05 F6 | 	mov	arg04, #3
00cd0     00 6C 05 F6 | 	mov	arg05, #0
00cd4     94 0A B0 FD | 	call	#_outtextxycg
00cd8                 | '     outtextxycg(0,32,string("buf_ptr"),3,0)
00cd8     1A 00 00 FF 
00cdc     00 68 05 F6 | 	mov	arg03, ##@LR__0213
00ce0     00 64 05 F6 | 	mov	arg01, #0
00ce4     20 66 05 F6 | 	mov	arg02, #32
00ce8     03 6A 05 F6 | 	mov	arg04, #3
00cec     00 6C 05 F6 | 	mov	arg05, #0
00cf0     78 0A B0 FD | 	call	#_outtextxycg
00cf4                 | '     outtextxycg(0,48,string("buflen"),3,0)
00cf4     1A 00 00 FF 
00cf8     08 68 05 F6 | 	mov	arg03, ##@LR__0214
00cfc     00 64 05 F6 | 	mov	arg01, #0
00d00     30 66 05 F6 | 	mov	arg02, #48
00d04     03 6A 05 F6 | 	mov	arg04, #3
00d08     00 6C 05 F6 | 	mov	arg05, #0
00d0c     5C 0A B0 FD | 	call	#_outtextxycg
00d10                 | '     outtextxycg(0,64,string("lines"),3,0)
00d10     1A 00 00 FF 
00d14     0F 68 05 F6 | 	mov	arg03, ##@LR__0215
00d18     00 64 05 F6 | 	mov	arg01, #0
00d1c     40 66 05 F6 | 	mov	arg02, #64
00d20     03 6A 05 F6 | 	mov	arg04, #3
00d24     00 6C 05 F6 | 	mov	arg05, #0
00d28     40 0A B0 FD | 	call	#_outtextxycg
00d2c                 | '     outtextxycg(64,0,inttostr(amode),2,0)
00d2c     40 A2 05 F6 | 	mov	local27, #64
00d30     00 A4 05 F6 | 	mov	local28, #0
00d34     D0 64 01 F6 | 	mov	arg01, local26
00d38     3C 0F B0 FD | 	call	#_inttostr
00d3c     81 68 01 F6 | 	mov	arg03, result1
00d40     D1 64 01 F6 | 	mov	arg01, local27
00d44     D2 66 01 F6 | 	mov	arg02, local28
00d48     02 6A 05 F6 | 	mov	arg04, #2
00d4c     00 6C 05 F6 | 	mov	arg05, #0
00d50     18 0A B0 FD | 	call	#_outtextxycg
00d54                 | '     outtextxycg(64,16,inttostr(cpl),2,0)
00d54     40 A2 05 F6 | 	mov	local27, #64
00d58     10 A4 05 F6 | 	mov	local28, #16
00d5c     94 F2 04 F1 | 	add	objptr, #148
00d60     79 64 01 FB | 	rdlong	arg01, objptr
00d64     94 F2 84 F1 | 	sub	objptr, #148
00d68     0C 0F B0 FD | 	call	#_inttostr
00d6c     81 68 01 F6 | 	mov	arg03, result1
00d70     D1 64 01 F6 | 	mov	arg01, local27
00d74     D2 66 01 F6 | 	mov	arg02, local28
00d78     02 6A 05 F6 | 	mov	arg04, #2
00d7c     00 6C 05 F6 | 	mov	arg05, #0
00d80     E8 09 B0 FD | 	call	#_outtextxycg
00d84                 | '     outtextxycg(64,32,inttostr(buf_ptr),2,0)
00d84     40 A2 05 F6 | 	mov	local27, #64
00d88     20 A4 05 F6 | 	mov	local28, #32
00d8c     79 64 01 FB | 	rdlong	arg01, objptr
00d90     E4 0E B0 FD | 	call	#_inttostr
00d94     81 68 01 F6 | 	mov	arg03, result1
00d98     D1 64 01 F6 | 	mov	arg01, local27
00d9c     D2 66 01 F6 | 	mov	arg02, local28
00da0     02 6A 05 F6 | 	mov	arg04, #2
00da4     00 6C 05 F6 | 	mov	arg05, #0
00da8     C0 09 B0 FD | 	call	#_outtextxycg
00dac     34 F2 04 F1 | 	add	objptr, #52
00db0     79 64 01 FB | 	rdlong	arg01, objptr
00db4     34 F2 84 F1 | 	sub	objptr, #52
00db8     02 64 65 F0 | 	shl	arg01, #2
00dbc                 | '     outtextxycg(64,48,inttostr(buflen*4),2,0)
00dbc     40 A2 05 F6 | 	mov	local27, #64
00dc0     30 A4 05 F6 | 	mov	local28, #48
00dc4     B0 0E B0 FD | 	call	#_inttostr
00dc8     81 68 01 F6 | 	mov	arg03, result1
00dcc     D1 64 01 F6 | 	mov	arg01, local27
00dd0     D2 66 01 F6 | 	mov	arg02, local28
00dd4     02 6A 05 F6 | 	mov	arg04, #2
00dd8     00 6C 05 F6 | 	mov	arg05, #0
00ddc     8C 09 B0 FD | 	call	#_outtextxycg
00de0                 | '     outtextxycg(64,64,inttostr(lines),2,0)
00de0     40 A2 05 F6 | 	mov	local27, #64
00de4     40 A4 05 F6 | 	mov	local28, #64
00de8     98 F2 04 F1 | 	add	objptr, #152
00dec     79 64 01 FB | 	rdlong	arg01, objptr
00df0     98 F2 84 F1 | 	sub	objptr, #152
00df4     80 0E B0 FD | 	call	#_inttostr
00df8     81 68 01 F6 | 	mov	arg03, result1
00dfc     D1 64 01 F6 | 	mov	arg01, local27
00e00     D2 66 01 F6 | 	mov	arg02, local28
00e04     02 6A 05 F6 | 	mov	arg04, #2
00e08     00 6C 05 F6 | 	mov	arg05, #0
00e0c     5C 09 B0 FD | 	call	#_outtextxycg
00e10     0C 03 90 FD | 	jmp	#LR__0013
00e14                 | LR__0009
00e14                 | '   elseif (ccc==2)
00e14     02 80 0D F2 | 	cmp	local10, #2 wz
00e18     80 01 90 5D |  if_ne	jmp	#LR__0010
00e1c                 | '     cls(0,0)
00e1c     00 64 05 F6 | 	mov	arg01, #0
00e20     00 66 05 F6 | 	mov	arg02, #0
00e24     00 0D B0 FD | 	call	#_cls
00e28                 | '     outtextxycg(0,0,string("mode"),9,0)
00e28     1A 00 00 FF 
00e2c     15 68 05 F6 | 	mov	arg03, ##@LR__0216
00e30     00 64 05 F6 | 	mov	arg01, #0
00e34     00 66 05 F6 | 	mov	arg02, #0
00e38     09 6A 05 F6 | 	mov	arg04, #9
00e3c     00 6C 05 F6 | 	mov	arg05, #0
00e40     28 09 B0 FD | 	call	#_outtextxycg
00e44                 | '     outtextxycg(0,16,string("cpl"),9,0)'
00e44     1A 00 00 FF 
00e48     1A 68 05 F6 | 	mov	arg03, ##@LR__0217
00e4c     00 64 05 F6 | 	mov	arg01, #0
00e50     10 66 05 F6 | 	mov	arg02, #16
00e54     09 6A 05 F6 | 	mov	arg04, #9
00e58     00 6C 05 F6 | 	mov	arg05, #0
00e5c     0C 09 B0 FD | 	call	#_outtextxycg
00e60                 | '     outtextxycg(0,32,string("buf_ptr"),9,0)
00e60     1A 00 00 FF 
00e64     1E 68 05 F6 | 	mov	arg03, ##@LR__0218
00e68     00 64 05 F6 | 	mov	arg01, #0
00e6c     20 66 05 F6 | 	mov	arg02, #32
00e70     09 6A 05 F6 | 	mov	arg04, #9
00e74     00 6C 05 F6 | 	mov	arg05, #0
00e78     F0 08 B0 FD | 	call	#_outtextxycg
00e7c                 | '     outtextxycg(0,48,string("buflen"),9,0)
00e7c     1A 00 00 FF 
00e80     26 68 05 F6 | 	mov	arg03, ##@LR__0219
00e84     00 64 05 F6 | 	mov	arg01, #0
00e88     30 66 05 F6 | 	mov	arg02, #48
00e8c     09 6A 05 F6 | 	mov	arg04, #9
00e90     00 6C 05 F6 | 	mov	arg05, #0
00e94     D4 08 B0 FD | 	call	#_outtextxycg
00e98                 | '     outtextxycg(0,64,string("lines"),9,0)
00e98     1A 00 00 FF 
00e9c     2D 68 05 F6 | 	mov	arg03, ##@LR__0220
00ea0     00 64 05 F6 | 	mov	arg01, #0
00ea4     40 66 05 F6 | 	mov	arg02, #64
00ea8     09 6A 05 F6 | 	mov	arg04, #9
00eac     00 6C 05 F6 | 	mov	arg05, #0
00eb0     B8 08 B0 FD | 	call	#_outtextxycg
00eb4                 | '     outtextxycg(64,0,inttostr(amode),4,0)
00eb4     40 A2 05 F6 | 	mov	local27, #64
00eb8     00 A4 05 F6 | 	mov	local28, #0
00ebc     D0 64 01 F6 | 	mov	arg01, local26
00ec0     B4 0D B0 FD | 	call	#_inttostr
00ec4     81 68 01 F6 | 	mov	arg03, result1
00ec8     D1 64 01 F6 | 	mov	arg01, local27
00ecc     D2 66 01 F6 | 	mov	arg02, local28
00ed0     04 6A 05 F6 | 	mov	arg04, #4
00ed4     00 6C 05 F6 | 	mov	arg05, #0
00ed8     90 08 B0 FD | 	call	#_outtextxycg
00edc                 | '     outtextxycg(64,16,inttostr(cpl),4,0)
00edc     40 A2 05 F6 | 	mov	local27, #64
00ee0     10 A4 05 F6 | 	mov	local28, #16
00ee4     94 F2 04 F1 | 	add	objptr, #148
00ee8     79 64 01 FB | 	rdlong	arg01, objptr
00eec     94 F2 84 F1 | 	sub	objptr, #148
00ef0     84 0D B0 FD | 	call	#_inttostr
00ef4     81 68 01 F6 | 	mov	arg03, result1
00ef8     D1 64 01 F6 | 	mov	arg01, local27
00efc     D2 66 01 F6 | 	mov	arg02, local28
00f00     04 6A 05 F6 | 	mov	arg04, #4
00f04     00 6C 05 F6 | 	mov	arg05, #0
00f08     60 08 B0 FD | 	call	#_outtextxycg
00f0c                 | '     outtextxycg(64,32,inttostr(buf_ptr),4,0)
00f0c     40 A2 05 F6 | 	mov	local27, #64
00f10     20 A4 05 F6 | 	mov	local28, #32
00f14     79 64 01 FB | 	rdlong	arg01, objptr
00f18     5C 0D B0 FD | 	call	#_inttostr
00f1c     81 68 01 F6 | 	mov	arg03, result1
00f20     D1 64 01 F6 | 	mov	arg01, local27
00f24     D2 66 01 F6 | 	mov	arg02, local28
00f28     04 6A 05 F6 | 	mov	arg04, #4
00f2c     00 6C 05 F6 | 	mov	arg05, #0
00f30     38 08 B0 FD | 	call	#_outtextxycg
00f34     34 F2 04 F1 | 	add	objptr, #52
00f38     79 64 01 FB | 	rdlong	arg01, objptr
00f3c     34 F2 84 F1 | 	sub	objptr, #52
00f40     02 64 65 F0 | 	shl	arg01, #2
00f44                 | '     outtextxycg(64,48,inttostr(buflen*4),4,0)
00f44     40 A2 05 F6 | 	mov	local27, #64
00f48     30 A4 05 F6 | 	mov	local28, #48
00f4c     28 0D B0 FD | 	call	#_inttostr
00f50     81 68 01 F6 | 	mov	arg03, result1
00f54     D1 64 01 F6 | 	mov	arg01, local27
00f58     D2 66 01 F6 | 	mov	arg02, local28
00f5c     04 6A 05 F6 | 	mov	arg04, #4
00f60     00 6C 05 F6 | 	mov	arg05, #0
00f64     04 08 B0 FD | 	call	#_outtextxycg
00f68                 | '     outtextxycg(64,64,inttostr(lines),4,0)
00f68     40 A2 05 F6 | 	mov	local27, #64
00f6c     40 A4 05 F6 | 	mov	local28, #64
00f70     98 F2 04 F1 | 	add	objptr, #152
00f74     79 64 01 FB | 	rdlong	arg01, objptr
00f78     98 F2 84 F1 | 	sub	objptr, #152
00f7c     F8 0C B0 FD | 	call	#_inttostr
00f80     81 68 01 F6 | 	mov	arg03, result1
00f84     D1 64 01 F6 | 	mov	arg01, local27
00f88     D2 66 01 F6 | 	mov	arg02, local28
00f8c     04 6A 05 F6 | 	mov	arg04, #4
00f90     00 6C 05 F6 | 	mov	arg05, #0
00f94     D4 07 B0 FD | 	call	#_outtextxycg
00f98     84 01 90 FD | 	jmp	#LR__0012
00f9c                 | LR__0010
00f9c                 | '   elseif (ccc==3)
00f9c     03 80 0D F2 | 	cmp	local10, #3 wz
00fa0     7C 01 90 5D |  if_ne	jmp	#LR__0011
00fa4                 | '     cls(0,0)
00fa4     00 64 05 F6 | 	mov	arg01, #0
00fa8     00 66 05 F6 | 	mov	arg02, #0
00fac     78 0B B0 FD | 	call	#_cls
00fb0                 | '     outtextxycg(0,0,string("mode"),120,0)
00fb0     1A 00 00 FF 
00fb4     33 68 05 F6 | 	mov	arg03, ##@LR__0221
00fb8     00 64 05 F6 | 	mov	arg01, #0
00fbc     00 66 05 F6 | 	mov	arg02, #0
00fc0     78 6A 05 F6 | 	mov	arg04, #120
00fc4     00 6C 05 F6 | 	mov	arg05, #0
00fc8     A0 07 B0 FD | 	call	#_outtextxycg
00fcc                 | '     outtextxycg(0,16,string("cpl"),120,0)'
00fcc     1A 00 00 FF 
00fd0     38 68 05 F6 | 	mov	arg03, ##@LR__0222
00fd4     00 64 05 F6 | 	mov	arg01, #0
00fd8     10 66 05 F6 | 	mov	arg02, #16
00fdc     78 6A 05 F6 | 	mov	arg04, #120
00fe0     00 6C 05 F6 | 	mov	arg05, #0
00fe4     84 07 B0 FD | 	call	#_outtextxycg
00fe8                 | '     outtextxycg(0,32,string("buf_ptr"),120,0)
00fe8     1A 00 00 FF 
00fec     3C 68 05 F6 | 	mov	arg03, ##@LR__0223
00ff0     00 64 05 F6 | 	mov	arg01, #0
00ff4     20 66 05 F6 | 	mov	arg02, #32
00ff8     78 6A 05 F6 | 	mov	arg04, #120
00ffc     00 6C 05 F6 | 	mov	arg05, #0
01000     68 07 B0 FD | 	call	#_outtextxycg
01004                 | '     outtextxycg(0,48,string("buflen"),120,0)
01004     1A 00 00 FF 
01008     44 68 05 F6 | 	mov	arg03, ##@LR__0224
0100c     00 64 05 F6 | 	mov	arg01, #0
01010     30 66 05 F6 | 	mov	arg02, #48
01014     78 6A 05 F6 | 	mov	arg04, #120
01018     00 6C 05 F6 | 	mov	arg05, #0
0101c     4C 07 B0 FD | 	call	#_outtextxycg
01020                 | '     outtextxycg(0,64,string("lines"),120,0)
01020     1A 00 00 FF 
01024     4B 68 05 F6 | 	mov	arg03, ##@LR__0225
01028     00 64 05 F6 | 	mov	arg01, #0
0102c     40 66 05 F6 | 	mov	arg02, #64
01030     78 6A 05 F6 | 	mov	arg04, #120
01034     00 6C 05 F6 | 	mov	arg05, #0
01038     30 07 B0 FD | 	call	#_outtextxycg
0103c                 | '     outtextxycg(64,0,inttostr(amode),40,0)
0103c     40 A2 05 F6 | 	mov	local27, #64
01040     00 A4 05 F6 | 	mov	local28, #0
01044     D0 64 01 F6 | 	mov	arg01, local26
01048     2C 0C B0 FD | 	call	#_inttostr
0104c     81 68 01 F6 | 	mov	arg03, result1
01050     D1 64 01 F6 | 	mov	arg01, local27
01054     D2 66 01 F6 | 	mov	arg02, local28
01058     28 6A 05 F6 | 	mov	arg04, #40
0105c     00 6C 05 F6 | 	mov	arg05, #0
01060     08 07 B0 FD | 	call	#_outtextxycg
01064                 | '     outtextxycg(64,16,inttostr(cpl),40,0)
01064     40 A2 05 F6 | 	mov	local27, #64
01068     10 A4 05 F6 | 	mov	local28, #16
0106c     94 F2 04 F1 | 	add	objptr, #148
01070     79 64 01 FB | 	rdlong	arg01, objptr
01074     94 F2 84 F1 | 	sub	objptr, #148
01078     FC 0B B0 FD | 	call	#_inttostr
0107c     81 68 01 F6 | 	mov	arg03, result1
01080     D1 64 01 F6 | 	mov	arg01, local27
01084     D2 66 01 F6 | 	mov	arg02, local28
01088     28 6A 05 F6 | 	mov	arg04, #40
0108c     00 6C 05 F6 | 	mov	arg05, #0
01090     D8 06 B0 FD | 	call	#_outtextxycg
01094                 | '     outtextxycg(64,32,inttostr(buf_ptr),40,0)
01094     40 A2 05 F6 | 	mov	local27, #64
01098     20 A4 05 F6 | 	mov	local28, #32
0109c     79 64 01 FB | 	rdlong	arg01, objptr
010a0     D4 0B B0 FD | 	call	#_inttostr
010a4     81 68 01 F6 | 	mov	arg03, result1
010a8     D1 64 01 F6 | 	mov	arg01, local27
010ac     D2 66 01 F6 | 	mov	arg02, local28
010b0     28 6A 05 F6 | 	mov	arg04, #40
010b4     00 6C 05 F6 | 	mov	arg05, #0
010b8     B0 06 B0 FD | 	call	#_outtextxycg
010bc     34 F2 04 F1 | 	add	objptr, #52
010c0     79 64 01 FB | 	rdlong	arg01, objptr
010c4     34 F2 84 F1 | 	sub	objptr, #52
010c8     02 64 65 F0 | 	shl	arg01, #2
010cc                 | '     outtextxycg(64,48,inttostr(buflen*4),40,0)
010cc     40 A2 05 F6 | 	mov	local27, #64
010d0     30 A4 05 F6 | 	mov	local28, #48
010d4     A0 0B B0 FD | 	call	#_inttostr
010d8     81 68 01 F6 | 	mov	arg03, result1
010dc     D1 64 01 F6 | 	mov	arg01, local27
010e0     D2 66 01 F6 | 	mov	arg02, local28
010e4     28 6A 05 F6 | 	mov	arg04, #40
010e8     00 6C 05 F6 | 	mov	arg05, #0
010ec     7C 06 B0 FD | 	call	#_outtextxycg
010f0                 | '     outtextxycg(64,64,inttostr(lines),40,0)
010f0     40 A2 05 F6 | 	mov	local27, #64
010f4     40 A4 05 F6 | 	mov	local28, #64
010f8     98 F2 04 F1 | 	add	objptr, #152
010fc     79 64 01 FB | 	rdlong	arg01, objptr
01100     98 F2 84 F1 | 	sub	objptr, #152
01104     70 0B B0 FD | 	call	#_inttostr
01108     81 68 01 F6 | 	mov	arg03, result1
0110c     D1 64 01 F6 | 	mov	arg01, local27
01110     D2 66 01 F6 | 	mov	arg02, local28
01114     28 6A 05 F6 | 	mov	arg04, #40
01118     00 6C 05 F6 | 	mov	arg05, #0
0111c     4C 06 B0 FD | 	call	#_outtextxycg
01120                 | LR__0011
01120                 | LR__0012
01120                 | LR__0013
01120                 | LR__0014
01120                 | '   waitvbl(240)
01120                 | ' 
01120                 | ' ''---------- Wait for start of vblank. Amount=delay in frames
01120                 | ' 
01120                 | ' repeat i from 1 to amount
01120     01 A6 05 F6 | 	mov	local29, #1
01124     01 A8 05 F6 | 	mov	local30, #1
01128     F1 AA 05 F6 | 	mov	local31, #241
0112c                 | LR__0015
0112c                 | '   repeat until vblank==0
0112c                 | LR__0016
0112c     44 F2 04 F1 | 	add	objptr, #68
01130     79 AC 09 FB | 	rdlong	local32, objptr wz
01134     44 F2 84 F1 | 	sub	objptr, #68
01138     0C 00 90 AD |  if_e	jmp	#LR__0017
0113c                 | '     waitus(100)
0113c     64 64 05 F6 | 	mov	arg01, #100
01140     20 19 B0 FD | 	call	#__system___waitus
01144     E4 FF 9F FD | 	jmp	#LR__0016
01148                 | LR__0017
01148                 | '   repeat until vblank==1
01148                 | LR__0018
01148     44 F2 04 F1 | 	add	objptr, #68
0114c     79 AC 01 FB | 	rdlong	local32, objptr
01150     44 F2 84 F1 | 	sub	objptr, #68
01154     01 AC 0D F2 | 	cmp	local32, #1 wz
01158     0C 00 90 AD |  if_e	jmp	#LR__0019
0115c                 | '     waitus(100)
0115c     64 64 05 F6 | 	mov	arg01, #100
01160     00 19 B0 FD | 	call	#__system___waitus
01164     E0 FF 9F FD | 	jmp	#LR__0018
01168                 | LR__0019
01168     01 A6 05 F1 | 	add	local29, #1
0116c     F1 A6 0D F2 | 	cmp	local29, #241 wz
01170     B8 FF 9F 5D |  if_ne	jmp	#LR__0015
01174     01 A0 05 F1 | 	add	local26, #1
01178     02 00 00 FF 
0117c     00 A0 5D F2 | 	cmps	local26, ##1024 wcz
01180     70 F9 9F CD |  if_b	jmp	#LR__0007
01184                 | ' 
01184                 | ' repeat
01184                 | LR__0020
01184     FC FF 9F FD | 	jmp	#LR__0020
01188     46 F0 03 F6 | 	mov	ptra, fp
0118c     5A 00 A0 FD | 	call	#popregs_
01190                 | _dummy_ret
01190     2D 00 64 FD | 	ret
01194                 | 
01194                 | ' 
01194                 | ' '------------------------------
01194                 | ' 
01194                 | ' pub fcircle(x0,y0,r,c) | d,x,y,da,db
01194                 | _fcircle
01194     0D 88 04 F6 | 	mov	COUNT_, #13
01198     4B 00 A0 FD | 	call	#pushregs_
0119c     B2 6E 01 F6 | 	mov	local01, arg01
011a0     B3 70 01 F6 | 	mov	local02, arg02
011a4     B4 72 01 F6 | 	mov	local03, arg03
011a8     B5 74 01 F6 | 	mov	local04, arg04
011ac     B9 76 01 F6 | 	mov	local05, local03
011b0     02 76 65 F0 | 	shl	local05, #2
011b4     05 78 05 F6 | 	mov	local06, #5
011b8     BB 78 81 F1 | 	sub	local06, local05
011bc                 | ' 
011bc                 | ' d:=5-4*r
011bc                 | ' x:=0
011bc     00 7A 05 F6 | 	mov	local07, #0
011c0                 | ' y:=r
011c0     FF FF 7F FF 
011c4     FE 73 05 FD | 	qmul	local03, ##-2
011c8     18 7C 61 FD | 	getqx	local08
011cc     05 7C 05 F1 | 	add	local08, #5
011d0     02 7C 65 F0 | 	shl	local08, #2
011d4                 | ' da:=(-2*r+5)*4
011d4                 | ' db:=3*4
011d4     0C 7E 05 F6 | 	mov	local09, #12
011d8                 | ' repeat while (x<=y) 
011d8                 | LR__0021
011d8     B9 7A 59 F2 | 	cmps	local07, local03 wcz
011dc     C4 00 90 1D |  if_a	jmp	#LR__0023
011e0     B7 80 01 F6 | 	mov	local10, local01
011e4     BD 80 81 F1 | 	sub	local10, local07
011e8     B8 6A 01 F6 | 	mov	arg04, local02
011ec     B9 6A 81 F1 | 	sub	arg04, local03
011f0     B7 82 01 F6 | 	mov	local11, local01
011f4     BD 82 01 F1 | 	add	local11, local07
011f8                 | '   line(x0-x,y0-y,x0+x,y0-y,c)
011f8     C0 64 01 F6 | 	mov	arg01, local10
011fc     B5 66 01 F6 | 	mov	arg02, arg04
01200     C1 68 01 F6 | 	mov	arg03, local11
01204     BA 6C 01 F6 | 	mov	arg05, local04
01208     BC 02 B0 FD | 	call	#_line
0120c     B8 6A 01 F6 | 	mov	arg04, local02
01210     B9 6A 01 F1 | 	add	arg04, local03
01214                 | '   line(x0-x,y0+y,x0+x,y0+y,c)
01214     C0 64 01 F6 | 	mov	arg01, local10
01218     B5 66 01 F6 | 	mov	arg02, arg04
0121c     C1 68 01 F6 | 	mov	arg03, local11
01220     BA 6C 01 F6 | 	mov	arg05, local04
01224     A0 02 B0 FD | 	call	#_line
01228     B7 84 01 F6 | 	mov	local12, local01
0122c     B9 84 81 F1 | 	sub	local12, local03
01230     B8 6A 01 F6 | 	mov	arg04, local02
01234     BD 6A 81 F1 | 	sub	arg04, local07
01238     B7 86 01 F6 | 	mov	local13, local01
0123c     B9 86 01 F1 | 	add	local13, local03
01240                 | '   line(x0-y,y0-x,x0+y,y0-x,c)
01240     C2 64 01 F6 | 	mov	arg01, local12
01244     B5 66 01 F6 | 	mov	arg02, arg04
01248     C3 68 01 F6 | 	mov	arg03, local13
0124c     BA 6C 01 F6 | 	mov	arg05, local04
01250     74 02 B0 FD | 	call	#_line
01254     B8 6A 01 F6 | 	mov	arg04, local02
01258     BD 6A 01 F1 | 	add	arg04, local07
0125c                 | '   line(x0-y,y0+x,x0+y,y0+x,c)
0125c     C2 64 01 F6 | 	mov	arg01, local12
01260     B5 66 01 F6 | 	mov	arg02, arg04
01264     C3 68 01 F6 | 	mov	arg03, local13
01268     BA 6C 01 F6 | 	mov	arg05, local04
0126c     58 02 B0 FD | 	call	#_line
01270                 | '   if d>0 
01270     00 78 5D F2 | 	cmps	local06, #0 wcz
01274     18 00 90 ED |  if_be	jmp	#LR__0022
01278                 | '     d+=da
01278     BE 78 01 F1 | 	add	local06, local08
0127c                 | '     y-=1
0127c     01 72 85 F1 | 	sub	local03, #1
01280                 | '     x+=1
01280     01 7A 05 F1 | 	add	local07, #1
01284                 | '     da+=4*4
01284     10 7C 05 F1 | 	add	local08, #16
01288                 | '     db+=2*4
01288     08 7E 05 F1 | 	add	local09, #8
0128c                 | '   else
0128c     48 FF 9F FD | 	jmp	#LR__0021
01290                 | LR__0022
01290                 | '     d+=db
01290     BF 78 01 F1 | 	add	local06, local09
01294                 | '     x+=1
01294     01 7A 05 F1 | 	add	local07, #1
01298                 | '     da+=2*4
01298     08 7C 05 F1 | 	add	local08, #8
0129c                 | '     db+=2*4
0129c     08 7E 05 F1 | 	add	local09, #8
012a0     34 FF 9F FD | 	jmp	#LR__0021
012a4                 | LR__0023
012a4     46 F0 03 F6 | 	mov	ptra, fp
012a8     5A 00 A0 FD | 	call	#popregs_
012ac                 | _fcircle_ret
012ac     2D 00 64 FD | 	ret
012b0                 | 
012b0                 | '  
012b0                 | '  
012b0                 | '  
012b0                 | ' pub circle(x0,y0,r,c) | d,x,y,da,db
012b0                 | _circle
012b0     15 88 04 F6 | 	mov	COUNT_, #21
012b4     4B 00 A0 FD | 	call	#pushregs_
012b8     B2 6E 01 F6 | 	mov	local01, arg01
012bc     B3 70 01 F6 | 	mov	local02, arg02
012c0     B4 72 01 F6 | 	mov	local03, arg03
012c4     B5 74 01 F6 | 	mov	local04, arg04
012c8     B9 76 01 F6 | 	mov	local05, local03
012cc     02 76 65 F0 | 	shl	local05, #2
012d0     05 78 05 F6 | 	mov	local06, #5
012d4     BB 78 81 F1 | 	sub	local06, local05
012d8                 | ' 
012d8                 | '  
012d8                 | ' d:=5-4*r
012d8                 | ' x:=0
012d8     00 7A 05 F6 | 	mov	local07, #0
012dc                 | ' y:=r
012dc     FF FF 7F FF 
012e0     FE 73 05 FD | 	qmul	local03, ##-2
012e4     18 7C 61 FD | 	getqx	local08
012e8     05 7C 05 F1 | 	add	local08, #5
012ec     02 7C 65 F0 | 	shl	local08, #2
012f0                 | ' da:=(-2*r+5)*4
012f0                 | ' db:=3*4
012f0     0C 7E 05 F6 | 	mov	local09, #12
012f4                 | ' repeat while (x<=y) 
012f4                 | LR__0024
012f4     B9 7A 59 F2 | 	cmps	local07, local03 wcz
012f8     C0 01 90 1D |  if_a	jmp	#LR__0026
012fc     B7 80 01 F6 | 	mov	local10, local01
01300     BD 80 81 F1 | 	sub	local10, local07
01304     B8 82 01 F6 | 	mov	local11, local02
01308     B9 82 81 F1 | 	sub	local11, local03
0130c                 | '   putpixel(x0-x,y0-y,c)
0130c     E4 F2 04 F1 | 	add	objptr, #228
01310     79 84 01 FB | 	rdlong	local12, objptr
01314     E4 F2 84 F1 | 	sub	objptr, #228
01318     C2 86 01 FB | 	rdlong	local13, local12
0131c     04 84 05 F1 | 	add	local12, #4
01320     C2 88 01 FB | 	rdlong	local14, local12
01324     C0 64 01 F6 | 	mov	arg01, local10
01328     C1 66 01 F6 | 	mov	arg02, local11
0132c     BA 68 01 F6 | 	mov	arg03, local04
01330     79 8A 01 F6 | 	mov	local15, objptr
01334     C3 F2 00 F6 | 	mov	objptr, local13
01338     2D 88 61 FD | 	call	local14
0133c     B8 8C 01 F6 | 	mov	local16, local02
01340     B9 8C 01 F1 | 	add	local16, local03
01344                 | '   putpixel(x0-x,y0+y,c)
01344     E4 8A 05 F1 | 	add	local15, #228
01348     C5 84 01 FB | 	rdlong	local12, local15
0134c     E4 8A 85 F1 | 	sub	local15, #228
01350     C2 F2 00 FB | 	rdlong	objptr, local12
01354     04 84 05 F1 | 	add	local12, #4
01358     C2 88 01 FB | 	rdlong	local14, local12
0135c     C0 64 01 F6 | 	mov	arg01, local10
01360     C6 66 01 F6 | 	mov	arg02, local16
01364     BA 68 01 F6 | 	mov	arg03, local04
01368     2D 88 61 FD | 	call	local14
0136c     B7 8E 01 F6 | 	mov	local17, local01
01370     BD 8E 01 F1 | 	add	local17, local07
01374                 | '   putpixel(x0+x,y0-y,c)
01374     E4 8A 05 F1 | 	add	local15, #228
01378     C5 84 01 FB | 	rdlong	local12, local15
0137c     E4 8A 85 F1 | 	sub	local15, #228
01380     C2 F2 00 FB | 	rdlong	objptr, local12
01384     04 84 05 F1 | 	add	local12, #4
01388     C2 88 01 FB | 	rdlong	local14, local12
0138c     C7 64 01 F6 | 	mov	arg01, local17
01390     C1 66 01 F6 | 	mov	arg02, local11
01394     BA 68 01 F6 | 	mov	arg03, local04
01398     2D 88 61 FD | 	call	local14
0139c                 | '   putpixel(x0+x,y0+y,c)
0139c     E4 8A 05 F1 | 	add	local15, #228
013a0     C5 84 01 FB | 	rdlong	local12, local15
013a4     E4 8A 85 F1 | 	sub	local15, #228
013a8     C2 F2 00 FB | 	rdlong	objptr, local12
013ac     04 84 05 F1 | 	add	local12, #4
013b0     C2 88 01 FB | 	rdlong	local14, local12
013b4     C7 64 01 F6 | 	mov	arg01, local17
013b8     C6 66 01 F6 | 	mov	arg02, local16
013bc     BA 68 01 F6 | 	mov	arg03, local04
013c0     2D 88 61 FD | 	call	local14
013c4     B7 90 01 F6 | 	mov	local18, local01
013c8     B9 90 81 F1 | 	sub	local18, local03
013cc     B8 92 01 F6 | 	mov	local19, local02
013d0     BD 92 81 F1 | 	sub	local19, local07
013d4                 | '   putpixel(x0-y,y0-x,c)
013d4     E4 8A 05 F1 | 	add	local15, #228
013d8     C5 84 01 FB | 	rdlong	local12, local15
013dc     E4 8A 85 F1 | 	sub	local15, #228
013e0     C2 F2 00 FB | 	rdlong	objptr, local12
013e4     04 84 05 F1 | 	add	local12, #4
013e8     C2 88 01 FB | 	rdlong	local14, local12
013ec     C8 64 01 F6 | 	mov	arg01, local18
013f0     C9 66 01 F6 | 	mov	arg02, local19
013f4     BA 68 01 F6 | 	mov	arg03, local04
013f8     2D 88 61 FD | 	call	local14
013fc     B8 94 01 F6 | 	mov	local20, local02
01400     BD 94 01 F1 | 	add	local20, local07
01404                 | '   putpixel(x0-y,y0+x,c)
01404     E4 8A 05 F1 | 	add	local15, #228
01408     C5 84 01 FB | 	rdlong	local12, local15
0140c     E4 8A 85 F1 | 	sub	local15, #228
01410     C2 F2 00 FB | 	rdlong	objptr, local12
01414     04 84 05 F1 | 	add	local12, #4
01418     C2 88 01 FB | 	rdlong	local14, local12
0141c     C8 64 01 F6 | 	mov	arg01, local18
01420     CA 66 01 F6 | 	mov	arg02, local20
01424     BA 68 01 F6 | 	mov	arg03, local04
01428     2D 88 61 FD | 	call	local14
0142c     B7 96 01 F6 | 	mov	local21, local01
01430     B9 96 01 F1 | 	add	local21, local03
01434                 | '   putpixel(x0+y,y0-x,c)
01434     E4 8A 05 F1 | 	add	local15, #228
01438     C5 84 01 FB | 	rdlong	local12, local15
0143c     E4 8A 85 F1 | 	sub	local15, #228
01440     C2 F2 00 FB | 	rdlong	objptr, local12
01444     04 84 05 F1 | 	add	local12, #4
01448     C2 88 01 FB | 	rdlong	local14, local12
0144c     CB 64 01 F6 | 	mov	arg01, local21
01450     C9 66 01 F6 | 	mov	arg02, local19
01454     BA 68 01 F6 | 	mov	arg03, local04
01458     2D 88 61 FD | 	call	local14
0145c                 | '   putpixel(x0+y,y0+x,c)
0145c     E4 8A 05 F1 | 	add	local15, #228
01460     C5 84 01 FB | 	rdlong	local12, local15
01464     E4 8A 85 F1 | 	sub	local15, #228
01468     C2 F2 00 FB | 	rdlong	objptr, local12
0146c     04 84 05 F1 | 	add	local12, #4
01470     C2 88 01 FB | 	rdlong	local14, local12
01474     CB 64 01 F6 | 	mov	arg01, local21
01478     CA 66 01 F6 | 	mov	arg02, local20
0147c     BA 68 01 F6 | 	mov	arg03, local04
01480     2D 88 61 FD | 	call	local14
01484     C5 F2 00 F6 | 	mov	objptr, local15
01488                 | '   if d>0 
01488     00 78 5D F2 | 	cmps	local06, #0 wcz
0148c     18 00 90 ED |  if_be	jmp	#LR__0025
01490                 | '     d+=da
01490     BE 78 01 F1 | 	add	local06, local08
01494                 | '     y-=1
01494     01 72 85 F1 | 	sub	local03, #1
01498                 | '     x+=1
01498     01 7A 05 F1 | 	add	local07, #1
0149c                 | '     da+=4*4
0149c     10 7C 05 F1 | 	add	local08, #16
014a0                 | '     db+=2*4
014a0     08 7E 05 F1 | 	add	local09, #8
014a4                 | '   else
014a4     4C FE 9F FD | 	jmp	#LR__0024
014a8                 | LR__0025
014a8                 | '     d+=db
014a8     BF 78 01 F1 | 	add	local06, local09
014ac                 | '     x+=1
014ac     01 7A 05 F1 | 	add	local07, #1
014b0                 | '     da+=2*4
014b0     08 7C 05 F1 | 	add	local08, #8
014b4                 | '     db+=2*4
014b4     08 7E 05 F1 | 	add	local09, #8
014b8     38 FE 9F FD | 	jmp	#LR__0024
014bc                 | LR__0026
014bc     46 F0 03 F6 | 	mov	ptra, fp
014c0     5A 00 A0 FD | 	call	#popregs_
014c4                 | _circle_ret
014c4     2D 00 64 FD | 	ret
014c8                 | 
014c8                 | ' 
014c8                 | ' 
014c8                 | ' pub line(x1,y1,x2,y2,c) | d,dx,dy,ai,bi,xi,yi,x,y
014c8                 | _line
014c8     12 88 04 F6 | 	mov	COUNT_, #18
014cc     4B 00 A0 FD | 	call	#pushregs_
014d0     B2 6E 01 F6 | 	mov	local01, arg01
014d4     B3 70 01 F6 | 	mov	local02, arg02
014d8     B4 72 01 F6 | 	mov	local03, arg03
014dc     B5 74 01 F6 | 	mov	local04, arg04
014e0     B6 76 01 F6 | 	mov	local05, arg05
014e4                 | ' 
014e4                 | ' 
014e4                 | ' x:=x1
014e4     B7 78 01 F6 | 	mov	local06, local01
014e8                 | ' y:=y1
014e8     B8 7A 01 F6 | 	mov	local07, local02
014ec                 | ' 
014ec                 | ' if (x1<x2) 
014ec     B9 6E 59 F2 | 	cmps	local01, local03 wcz
014f0     10 00 90 3D |  if_ae	jmp	#LR__0027
014f4                 | '   xi:=1
014f4     01 7C 05 F6 | 	mov	local08, #1
014f8     B9 7E 01 F6 | 	mov	local09, local03
014fc     B7 7E 81 F1 | 	sub	local09, local01
01500                 | '   dx:=x2-x1
01500                 | ' else
01500     0C 00 90 FD | 	jmp	#LR__0028
01504                 | LR__0027
01504                 | '   xi:=-1
01504     01 7C 65 F6 | 	neg	local08, #1
01508     B9 6E 81 F1 | 	sub	local01, local03
0150c                 | '   dx:=x1-x2
0150c     B7 7E 01 F6 | 	mov	local09, local01
01510                 | LR__0028
01510                 | '   
01510                 | ' if (y1<y2) 
01510     BA 70 59 F2 | 	cmps	local02, local04 wcz
01514     10 00 90 3D |  if_ae	jmp	#LR__0029
01518                 | '   yi:=1
01518     01 80 05 F6 | 	mov	local10, #1
0151c     BA 82 01 F6 | 	mov	local11, local04
01520     B8 82 81 F1 | 	sub	local11, local02
01524                 | '   dy:=y2-y1
01524                 | ' else
01524     0C 00 90 FD | 	jmp	#LR__0030
01528                 | LR__0029
01528                 | '   yi:=-1
01528     01 80 65 F6 | 	neg	local10, #1
0152c     BA 70 81 F1 | 	sub	local02, local04
01530                 | '   dy:=y1-y2
01530     B8 82 01 F6 | 	mov	local11, local02
01534                 | LR__0030
01534                 | ' 
01534                 | ' putpixel(x,y,c)
01534     E4 F2 04 F1 | 	add	objptr, #228
01538     79 84 01 FB | 	rdlong	local12, objptr
0153c     E4 F2 84 F1 | 	sub	objptr, #228
01540     C2 86 01 FB | 	rdlong	local13, local12
01544     04 84 05 F1 | 	add	local12, #4
01548     C2 88 01 FB | 	rdlong	local14, local12
0154c     BC 64 01 F6 | 	mov	arg01, local06
01550     BD 66 01 F6 | 	mov	arg02, local07
01554     BB 68 01 F6 | 	mov	arg03, local05
01558     79 8A 01 F6 | 	mov	local15, objptr
0155c     C3 F2 00 F6 | 	mov	objptr, local13
01560     2D 88 61 FD | 	call	local14
01564     C5 F2 00 F6 | 	mov	objptr, local15
01568                 | ' 
01568                 | ' if (dx>dy)
01568     C1 7E 59 F2 | 	cmps	local09, local11 wcz
0156c     7C 00 90 ED |  if_be	jmp	#LR__0034
01570     C1 8C 01 F6 | 	mov	local16, local11
01574     BF 8C 81 F1 | 	sub	local16, local09
01578     01 8C 65 F0 | 	shl	local16, #1
0157c                 | '   ai:=(dy-dx)*2
0157c     01 82 65 F0 | 	shl	local11, #1
01580     C1 8E 01 F6 | 	mov	local17, local11
01584                 | '   bi:=dy*2
01584     C7 90 01 F6 | 	mov	local18, local17
01588     BF 90 81 F1 | 	sub	local18, local09
0158c                 | '   d:= bi-dx
0158c                 | '   repeat while (x<>x2) 
0158c                 | LR__0031
0158c     B9 78 09 F2 | 	cmp	local06, local03 wz
01590     D4 00 90 AD |  if_e	jmp	#LR__0039
01594                 | '     if (d>=0) 
01594     00 90 5D F2 | 	cmps	local18, #0 wcz
01598     10 00 90 CD |  if_b	jmp	#LR__0032
0159c                 | '       x+=xi
0159c     BE 78 01 F1 | 	add	local06, local08
015a0                 | '       y+=yi
015a0     C0 7A 01 F1 | 	add	local07, local10
015a4                 | '       d+=ai
015a4     C6 90 01 F1 | 	add	local18, local16
015a8                 | '     else
015a8     08 00 90 FD | 	jmp	#LR__0033
015ac                 | LR__0032
015ac                 | '       d+=bi
015ac     C7 90 01 F1 | 	add	local18, local17
015b0                 | '       x+=xi
015b0     BE 78 01 F1 | 	add	local06, local08
015b4                 | LR__0033
015b4                 | '     putpixel(x,y,c)
015b4     E4 F2 04 F1 | 	add	objptr, #228
015b8     79 84 01 FB | 	rdlong	local12, objptr
015bc     E4 F2 84 F1 | 	sub	objptr, #228
015c0     C2 86 01 FB | 	rdlong	local13, local12
015c4     04 84 05 F1 | 	add	local12, #4
015c8     C2 88 01 FB | 	rdlong	local14, local12
015cc     BC 64 01 F6 | 	mov	arg01, local06
015d0     BD 66 01 F6 | 	mov	arg02, local07
015d4     BB 68 01 F6 | 	mov	arg03, local05
015d8     79 8A 01 F6 | 	mov	local15, objptr
015dc     C3 F2 00 F6 | 	mov	objptr, local13
015e0     2D 88 61 FD | 	call	local14
015e4     C5 F2 00 F6 | 	mov	objptr, local15
015e8     A0 FF 9F FD | 	jmp	#LR__0031
015ec                 | ' else
015ec                 | LR__0034
015ec     BF 8C 01 F6 | 	mov	local16, local09
015f0     C1 8C 81 F1 | 	sub	local16, local11
015f4     01 8C 65 F0 | 	shl	local16, #1
015f8                 | '   ai:=(dx-dy)*2
015f8     01 7E 65 F0 | 	shl	local09, #1
015fc     BF 8E 01 F6 | 	mov	local17, local09
01600                 | '   bi:=dx*2
01600     C7 90 01 F6 | 	mov	local18, local17
01604     C1 90 81 F1 | 	sub	local18, local11
01608                 | '   d:=bi-dy
01608                 | '   repeat while (y<>y2)
01608                 | LR__0035
01608     BA 7A 09 F2 | 	cmp	local07, local04 wz
0160c     58 00 90 AD |  if_e	jmp	#LR__0038
01610                 | '     if (d>=0)
01610     00 90 5D F2 | 	cmps	local18, #0 wcz
01614     10 00 90 CD |  if_b	jmp	#LR__0036
01618                 | '       x+=xi
01618     BE 78 01 F1 | 	add	local06, local08
0161c                 | '       y+=yi
0161c     C0 7A 01 F1 | 	add	local07, local10
01620                 | '       d+=ai
01620     C6 90 01 F1 | 	add	local18, local16
01624                 | '     else
01624     08 00 90 FD | 	jmp	#LR__0037
01628                 | LR__0036
01628                 | '       d+=bi
01628     C7 90 01 F1 | 	add	local18, local17
0162c                 | '       y+=yi
0162c     C0 7A 01 F1 | 	add	local07, local10
01630                 | LR__0037
01630                 | '     putpixel(x, y,c)
01630     E4 F2 04 F1 | 	add	objptr, #228
01634     79 84 01 FB | 	rdlong	local12, objptr
01638     E4 F2 84 F1 | 	sub	objptr, #228
0163c     C2 86 01 FB | 	rdlong	local13, local12
01640     04 84 05 F1 | 	add	local12, #4
01644     C2 88 01 FB | 	rdlong	local14, local12
01648     BC 64 01 F6 | 	mov	arg01, local06
0164c     BD 66 01 F6 | 	mov	arg02, local07
01650     BB 68 01 F6 | 	mov	arg03, local05
01654     79 8A 01 F6 | 	mov	local15, objptr
01658     C3 F2 00 F6 | 	mov	objptr, local13
0165c     2D 88 61 FD | 	call	local14
01660     C5 F2 00 F6 | 	mov	objptr, local15
01664     A0 FF 9F FD | 	jmp	#LR__0035
01668                 | LR__0038
01668                 | LR__0039
01668     46 F0 03 F6 | 	mov	ptra, fp
0166c     5A 00 A0 FD | 	call	#popregs_
01670                 | _line_ret
01670     2D 00 64 FD | 	ret
01674                 | 
01674                 | ' 
01674                 | ' pub putcharxycg(x,y,achar,f,b) |xx, yy,bb
01674                 | _putcharxycg
01674     0E 88 04 F6 | 	mov	COUNT_, #14
01678     4B 00 A0 FD | 	call	#pushregs_
0167c     B2 6E 01 F6 | 	mov	local01, arg01
01680     B3 70 01 F6 | 	mov	local02, arg02
01684     B4 72 01 F6 | 	mov	local03, arg03
01688     B5 74 01 F6 | 	mov	local04, arg04
0168c     B6 76 01 F6 | 	mov	local05, arg05
01690     04 72 65 F0 | 	shl	local03, #4
01694     00 78 05 F6 | 	mov	local06, #0
01698                 | LR__0040
01698     7C 7A 01 F6 | 	mov	local07, ptr__dat__
0169c     D4 F2 04 F1 | 	add	objptr, #212
016a0     79 7C 01 FB | 	rdlong	local08, objptr
016a4     D4 F2 84 F1 | 	sub	objptr, #212
016a8     0A 7C 65 F0 | 	shl	local08, #10
016ac     BE 7A 01 F1 | 	add	local07, local08
016b0     B9 7A 01 F1 | 	add	local07, local03
016b4     BC 7A 01 F1 | 	add	local07, local06
016b8                 | '   bb:=byte[@vga_font+font_family<<10+achar<<4+yy]
016b8     BD 7E C1 FA | 	rdbyte	local09, local07
016bc                 | '   repeat xx from 0 to 7
016bc     00 80 05 F6 | 	mov	local10, #0
016c0                 | LR__0041
016c0                 | '     if (bb&(1<<xx))<>0
016c0     C0 82 C1 F9 | 	decod	local11, local10
016c4     C1 7E C9 F7 | 	test	local09, local11 wz
016c8     40 00 90 AD |  if_e	jmp	#LR__0042
016cc     C0 64 01 F6 | 	mov	arg01, local10
016d0     B7 64 01 F1 | 	add	arg01, local01
016d4     BC 66 01 F6 | 	mov	arg02, local06
016d8     B8 66 01 F1 | 	add	arg02, local02
016dc                 | '       putpixel(xx+x,yy+y,f)
016dc     E4 F2 04 F1 | 	add	objptr, #228
016e0     79 84 01 FB | 	rdlong	local12, objptr
016e4     E4 F2 84 F1 | 	sub	objptr, #228
016e8     C2 82 01 FB | 	rdlong	local11, local12
016ec     04 84 05 F1 | 	add	local12, #4
016f0     C2 86 01 FB | 	rdlong	local13, local12
016f4     BA 68 01 F6 | 	mov	arg03, local04
016f8     79 88 01 F6 | 	mov	local14, objptr
016fc     C1 F2 00 F6 | 	mov	objptr, local11
01700     2D 86 61 FD | 	call	local13
01704     C4 F2 00 F6 | 	mov	objptr, local14
01708                 | '     else
01708     3C 00 90 FD | 	jmp	#LR__0043
0170c                 | LR__0042
0170c     C0 64 01 F6 | 	mov	arg01, local10
01710     B7 64 01 F1 | 	add	arg01, local01
01714     BC 66 01 F6 | 	mov	arg02, local06
01718     B8 66 01 F1 | 	add	arg02, local02
0171c                 | '       putpixel(xx+x,yy+y,b)
0171c     E4 F2 04 F1 | 	add	objptr, #228
01720     79 84 01 FB | 	rdlong	local12, objptr
01724     E4 F2 84 F1 | 	sub	objptr, #228
01728     C2 82 01 FB | 	rdlong	local11, local12
0172c     04 84 05 F1 | 	add	local12, #4
01730     C2 86 01 FB | 	rdlong	local13, local12
01734     BB 68 01 F6 | 	mov	arg03, local05
01738     79 88 01 F6 | 	mov	local14, objptr
0173c     C1 F2 00 F6 | 	mov	objptr, local11
01740     2D 86 61 FD | 	call	local13
01744     C4 F2 00 F6 | 	mov	objptr, local14
01748                 | LR__0043
01748     01 80 05 F1 | 	add	local10, #1
0174c     08 80 5D F2 | 	cmps	local10, #8 wcz
01750     6C FF 9F CD |  if_b	jmp	#LR__0041
01754     01 78 05 F1 | 	add	local06, #1
01758     10 78 5D F2 | 	cmps	local06, #16 wcz
0175c     38 FF 9F CD |  if_b	jmp	#LR__0040
01760     46 F0 03 F6 | 	mov	ptra, fp
01764     5A 00 A0 FD | 	call	#popregs_
01768                 | _putcharxycg_ret
01768     2D 00 64 FD | 	ret
0176c                 | 
0176c                 | ' 
0176c                 | ' pub outtextxycg(x,y,text,f,b) | iii,c
0176c                 | _outtextxycg
0176c     0C 88 04 F6 | 	mov	COUNT_, #12
01770     4B 00 A0 FD | 	call	#pushregs_
01774     B2 6E 01 F6 | 	mov	local01, arg01
01778     B3 70 01 F6 | 	mov	local02, arg02
0177c     B4 72 01 F6 | 	mov	local03, arg03
01780     B5 74 01 F6 | 	mov	local04, arg04
01784     B6 76 01 F6 | 	mov	local05, arg05
01788                 | ' 
01788                 | ' repeat iii from 0 to strsize(text)-1
01788     00 78 05 F6 | 	mov	local06, #0
0178c     B9 64 01 F6 | 	mov	arg01, local03
01790     00 7A 05 F6 | 	mov	local07, #0
01794     78 E8 9F FE | 	loc	pa,	#(@LR__0045-@LR__0044)
01798     35 00 A0 FD | 	call	#FCACHE_LOAD_
0179c                 | LR__0044
0179c     B2 7C C9 FA | 	rdbyte	local08, arg01 wz
017a0     01 7A 05 51 |  if_ne	add	local07, #1
017a4     01 64 05 51 |  if_ne	add	arg01, #1
017a8     F0 FF 9F 5D |  if_ne	jmp	#LR__0044
017ac                 | LR__0045
017ac     BD 02 01 F6 | 	mov	result1, local07
017b0     81 7E 01 F6 | 	mov	local09, result1
017b4     01 7E 85 F1 | 	sub	local09, #1
017b8     00 7E 5D F2 | 	cmps	local09, #0 wcz
017bc     01 80 05 16 |  if_a	mov	local10, #1
017c0     01 80 65 E6 |  if_be	neg	local10, #1
017c4     C0 7E 01 F1 | 	add	local09, local10
017c8                 | LR__0046
017c8     BC 82 01 F6 | 	mov	local11, local06
017cc     03 82 65 F0 | 	shl	local11, #3
017d0     B7 64 01 F6 | 	mov	arg01, local01
017d4     C1 64 01 F1 | 	add	arg01, local11
017d8     B9 84 01 F6 | 	mov	local12, local03
017dc     BC 84 01 F1 | 	add	local12, local06
017e0                 | '   putcharxycg(x+8*iii,y,byte[text+iii],f,b)
017e0     B8 66 01 F6 | 	mov	arg02, local02
017e4     C2 68 C1 FA | 	rdbyte	arg03, local12
017e8     BA 6A 01 F6 | 	mov	arg04, local04
017ec     BB 6C 01 F6 | 	mov	arg05, local05
017f0     80 FE BF FD | 	call	#_putcharxycg
017f4     C0 78 01 F1 | 	add	local06, local10
017f8     BF 78 09 F2 | 	cmp	local06, local09 wz
017fc     C8 FF 9F 5D |  if_ne	jmp	#LR__0046
01800     46 F0 03 F6 | 	mov	ptra, fp
01804     5A 00 A0 FD | 	call	#popregs_
01808                 | _outtextxycg_ret
01808     2D 00 64 FD | 	ret
0180c                 | 
0180c                 | ' 
0180c                 | ' 
0180c                 | ' ''---------- putpixel - put a pixel on the screen
0180c                 | ' 
0180c                 | ' pub putpixel1(x,y,c) |byte b
0180c                 | _putpixel1
0180c                 | ' 
0180c                 | ' 
0180c                 | ' if ((x>=0) & (x<32*cpl) & (y>=0) & (y<lines))
0180c     00 06 05 F6 | 	mov	_var01, #0
01810     00 64 5D F2 | 	cmps	arg01, #0 wcz
01814     01 06 65 36 |  if_ae	neg	_var01, #1
01818     00 08 05 F6 | 	mov	_var02, #0
0181c     94 F2 04 F1 | 	add	objptr, #148
01820     79 0A 01 FB | 	rdlong	_var03, objptr
01824     05 0A 65 F0 | 	shl	_var03, #5
01828     85 64 59 F2 | 	cmps	arg01, _var03 wcz
0182c     01 08 65 C6 |  if_b	neg	_var02, #1
01830     84 06 01 F5 | 	and	_var01, _var02
01834     00 0C 05 F6 | 	mov	_var04, #0
01838     00 66 5D F2 | 	cmps	arg02, #0 wcz
0183c     01 0C 65 36 |  if_ae	neg	_var04, #1
01840     86 06 01 F5 | 	and	_var01, _var04
01844     00 0E 05 F6 | 	mov	_var05, #0
01848     04 F2 04 F1 | 	add	objptr, #4
0184c     79 10 01 FB | 	rdlong	_var06, objptr
01850     98 F2 84 F1 | 	sub	objptr, #152
01854     88 66 59 F2 | 	cmps	arg02, _var06 wcz
01858     01 0E 65 C6 |  if_b	neg	_var05, #1
0185c     87 06 C9 F7 | 	test	_var01, _var05 wz
01860     8C 00 90 AD |  if_e	jmp	#LR__0049
01864     94 F2 04 F1 | 	add	objptr, #148
01868     79 12 01 FB | 	rdlong	_var07, objptr
0186c     94 F2 84 F1 | 	sub	objptr, #148
01870     02 12 65 F0 | 	shl	_var07, #2
01874     B3 12 01 FD | 	qmul	_var07, arg02
01878     18 14 61 FD | 	getqx	_var08
0187c     79 16 01 FB | 	rdlong	_var09, objptr
01880     8A 16 01 F1 | 	add	_var09, _var08
01884     B2 18 01 F6 | 	mov	_var10, arg01
01888     03 18 45 F0 | 	shr	_var10, #3
0188c     8C 16 01 F1 | 	add	_var09, _var10
01890                 | '     b:=byte[buf_ptr+4*cpl*y+(x>>3)]
01890     8B 1A C1 FA | 	rdbyte	_var11, _var09
01894                 | '     if (c==0)
01894     00 68 0D F2 | 	cmp	arg03, #0 wz
01898     18 00 90 5D |  if_ne	jmp	#LR__0047
0189c     B2 06 51 F6 | 	abs	_var01, arg01 wc
018a0     07 06 05 F5 | 	and	_var01, #7
018a4     83 06 61 C6 |  if_b	neg	_var01, _var01
018a8     83 1C C1 F9 | 	decod	_var12, _var01
018ac                 | '       b:=b & !(1<<(x//8))
018ac     8E 1A 21 F5 | 	andn	_var11, _var12
018b0                 | '     else
018b0     14 00 90 FD | 	jmp	#LR__0048
018b4                 | LR__0047
018b4     B2 06 51 F6 | 	abs	_var01, arg01 wc
018b8     07 06 05 F5 | 	and	_var01, #7
018bc     83 06 61 C6 |  if_b	neg	_var01, _var01
018c0     83 1E C1 F9 | 	decod	_var13, _var01
018c4                 | '       b:=b |(1<<(x//8))
018c4     8F 1A 41 F5 | 	or	_var11, _var13
018c8                 | LR__0048
018c8     94 F2 04 F1 | 	add	objptr, #148
018cc     79 20 01 FB | 	rdlong	_var14, objptr
018d0     94 F2 84 F1 | 	sub	objptr, #148
018d4     02 20 65 F0 | 	shl	_var14, #2
018d8     B3 20 01 FD | 	qmul	_var14, arg02
018dc     18 22 61 FD | 	getqx	_var15
018e0     79 24 01 FB | 	rdlong	_var16, objptr
018e4     91 24 01 F1 | 	add	_var16, _var15
018e8     8C 24 01 F1 | 	add	_var16, _var10
018ec                 | '     byte[buf_ptr+4*cpl*y+(x>>3)]:=b
018ec     92 1A 41 FC | 	wrbyte	_var11, _var16
018f0                 | LR__0049
018f0                 | _putpixel1_ret
018f0     2D 00 64 FD | 	ret
018f4                 | 
018f4                 | ' 
018f4                 | ' 
018f4                 | ' pub putpixel2(x,y,c) |byte b
018f4                 | _putpixel2
018f4                 | ' 
018f4                 | ' 
018f4                 | ' if ((x>=0) & (x<16*cpl) & (y>=0) & (y<lines))
018f4     00 06 05 F6 | 	mov	_var01, #0
018f8     00 64 5D F2 | 	cmps	arg01, #0 wcz
018fc     01 06 65 36 |  if_ae	neg	_var01, #1
01900     00 08 05 F6 | 	mov	_var02, #0
01904     94 F2 04 F1 | 	add	objptr, #148
01908     79 0A 01 FB | 	rdlong	_var03, objptr
0190c     04 0A 65 F0 | 	shl	_var03, #4
01910     85 64 59 F2 | 	cmps	arg01, _var03 wcz
01914     01 08 65 C6 |  if_b	neg	_var02, #1
01918     84 06 01 F5 | 	and	_var01, _var02
0191c     00 0C 05 F6 | 	mov	_var04, #0
01920     00 66 5D F2 | 	cmps	arg02, #0 wcz
01924     01 0C 65 36 |  if_ae	neg	_var04, #1
01928     86 06 01 F5 | 	and	_var01, _var04
0192c     00 0E 05 F6 | 	mov	_var05, #0
01930     04 F2 04 F1 | 	add	objptr, #4
01934     79 10 01 FB | 	rdlong	_var06, objptr
01938     98 F2 84 F1 | 	sub	objptr, #152
0193c     88 66 59 F2 | 	cmps	arg02, _var06 wcz
01940     01 0E 65 C6 |  if_b	neg	_var05, #1
01944     87 06 C9 F7 | 	test	_var01, _var05 wz
01948     7C 00 90 AD |  if_e	jmp	#LR__0050
0194c     94 F2 04 F1 | 	add	objptr, #148
01950     79 12 01 FB | 	rdlong	_var07, objptr
01954     94 F2 84 F1 | 	sub	objptr, #148
01958     02 12 65 F0 | 	shl	_var07, #2
0195c     B3 12 01 FD | 	qmul	_var07, arg02
01960     18 14 61 FD | 	getqx	_var08
01964     79 16 01 FB | 	rdlong	_var09, objptr
01968     8A 16 01 F1 | 	add	_var09, _var08
0196c     B2 18 01 F6 | 	mov	_var10, arg01
01970     02 18 45 F0 | 	shr	_var10, #2
01974     8C 16 01 F1 | 	add	_var09, _var10
01978                 | '     b:=byte[buf_ptr+4*cpl*y+(x>>2)]
01978     8B 1A C1 FA | 	rdbyte	_var11, _var09
0197c     B2 06 51 F6 | 	abs	_var01, arg01 wc
01980     03 06 05 F5 | 	and	_var01, #3
01984     83 06 61 C6 |  if_b	neg	_var01, _var01
01988     01 06 65 F0 | 	shl	_var01, #1
0198c     03 1C 05 F6 | 	mov	_var12, #3
01990     83 1C 61 F0 | 	shl	_var12, _var01
01994                 | '     b:=b & !(%11<<((x//4)<<1))
01994     8E 1A 21 F5 | 	andn	_var11, _var12
01998     83 68 61 F0 | 	shl	arg03, _var01
0199c                 | '     b:=b |(c<<((x//4)<<1))
0199c     B4 1A 41 F5 | 	or	_var11, arg03
019a0     94 F2 04 F1 | 	add	objptr, #148
019a4     79 1E 01 FB | 	rdlong	_var13, objptr
019a8     94 F2 84 F1 | 	sub	objptr, #148
019ac     02 1E 65 F0 | 	shl	_var13, #2
019b0     B3 1E 01 FD | 	qmul	_var13, arg02
019b4     18 20 61 FD | 	getqx	_var14
019b8     79 22 01 FB | 	rdlong	_var15, objptr
019bc     90 22 01 F1 | 	add	_var15, _var14
019c0     8C 22 01 F1 | 	add	_var15, _var10
019c4                 | '     byte[buf_ptr+4*cpl*y+(x>>2)]:=b
019c4     91 1A 41 FC | 	wrbyte	_var11, _var15
019c8                 | LR__0050
019c8                 | _putpixel2_ret
019c8     2D 00 64 FD | 	ret
019cc                 | 
019cc                 | ' 
019cc                 | ' 
019cc                 | ' pub putpixel4(x,y,c) |byte b
019cc                 | _putpixel4
019cc                 | ' 
019cc                 | ' if ((x>=0) & (x<16*cpl) & (y>=0) & (y<lines))
019cc     00 06 05 F6 | 	mov	_var01, #0
019d0     00 64 5D F2 | 	cmps	arg01, #0 wcz
019d4     01 06 65 36 |  if_ae	neg	_var01, #1
019d8     00 08 05 F6 | 	mov	_var02, #0
019dc     94 F2 04 F1 | 	add	objptr, #148
019e0     79 0A 01 FB | 	rdlong	_var03, objptr
019e4     04 0A 65 F0 | 	shl	_var03, #4
019e8     85 64 59 F2 | 	cmps	arg01, _var03 wcz
019ec     01 08 65 C6 |  if_b	neg	_var02, #1
019f0     84 06 01 F5 | 	and	_var01, _var02
019f4     00 0C 05 F6 | 	mov	_var04, #0
019f8     00 66 5D F2 | 	cmps	arg02, #0 wcz
019fc     01 0C 65 36 |  if_ae	neg	_var04, #1
01a00     86 06 01 F5 | 	and	_var01, _var04
01a04     00 0E 05 F6 | 	mov	_var05, #0
01a08     04 F2 04 F1 | 	add	objptr, #4
01a0c     79 10 01 FB | 	rdlong	_var06, objptr
01a10     98 F2 84 F1 | 	sub	objptr, #152
01a14     88 66 59 F2 | 	cmps	arg02, _var06 wcz
01a18     01 0E 65 C6 |  if_b	neg	_var05, #1
01a1c     87 06 C9 F7 | 	test	_var01, _var05 wz
01a20     7C 00 90 AD |  if_e	jmp	#LR__0051
01a24     94 F2 04 F1 | 	add	objptr, #148
01a28     79 12 01 FB | 	rdlong	_var07, objptr
01a2c     94 F2 84 F1 | 	sub	objptr, #148
01a30     02 12 65 F0 | 	shl	_var07, #2
01a34     B3 12 01 FD | 	qmul	_var07, arg02
01a38     18 14 61 FD | 	getqx	_var08
01a3c     79 16 01 FB | 	rdlong	_var09, objptr
01a40     8A 16 01 F1 | 	add	_var09, _var08
01a44     B2 18 01 F6 | 	mov	_var10, arg01
01a48     01 18 45 F0 | 	shr	_var10, #1
01a4c     8C 16 01 F1 | 	add	_var09, _var10
01a50                 | '     b:=byte[buf_ptr+4*cpl*y+(x>>1)]
01a50     8B 1A C1 FA | 	rdbyte	_var11, _var09
01a54     B2 06 51 F6 | 	abs	_var01, arg01 wc
01a58     01 06 05 F5 | 	and	_var01, #1
01a5c     83 06 61 C6 |  if_b	neg	_var01, _var01
01a60     02 06 65 F0 | 	shl	_var01, #2
01a64     0F 1C 05 F6 | 	mov	_var12, #15
01a68     83 1C 61 F0 | 	shl	_var12, _var01
01a6c                 | '     b:=b & !(%1111<<((x//2)<<2))
01a6c     8E 1A 21 F5 | 	andn	_var11, _var12
01a70     83 68 61 F0 | 	shl	arg03, _var01
01a74                 | '     b:=b |(c<<((x//2)<<2))
01a74     B4 1A 41 F5 | 	or	_var11, arg03
01a78     94 F2 04 F1 | 	add	objptr, #148
01a7c     79 1E 01 FB | 	rdlong	_var13, objptr
01a80     94 F2 84 F1 | 	sub	objptr, #148
01a84     02 1E 65 F0 | 	shl	_var13, #2
01a88     B3 1E 01 FD | 	qmul	_var13, arg02
01a8c     18 20 61 FD | 	getqx	_var14
01a90     79 22 01 FB | 	rdlong	_var15, objptr
01a94     90 22 01 F1 | 	add	_var15, _var14
01a98     8C 22 01 F1 | 	add	_var15, _var10
01a9c                 | '     byte[buf_ptr+4*cpl*y+(x>>1)]:=b
01a9c     91 1A 41 FC | 	wrbyte	_var11, _var15
01aa0                 | LR__0051
01aa0                 | _putpixel4_ret
01aa0     2D 00 64 FD | 	ret
01aa4                 | 
01aa4                 | ' 
01aa4                 | ' 
01aa4                 | ' pub putpixel8(x,y,c)
01aa4                 | _putpixel8
01aa4                 | ' 
01aa4                 | ' if ((x>=0) & (x<4*cpl) & (y>=0) & (y<lines))
01aa4     00 06 05 F6 | 	mov	_var01, #0
01aa8     00 64 5D F2 | 	cmps	arg01, #0 wcz
01aac     01 06 65 36 |  if_ae	neg	_var01, #1
01ab0     00 08 05 F6 | 	mov	_var02, #0
01ab4     94 F2 04 F1 | 	add	objptr, #148
01ab8     79 0A 01 FB | 	rdlong	_var03, objptr
01abc     02 0A 65 F0 | 	shl	_var03, #2
01ac0     85 64 59 F2 | 	cmps	arg01, _var03 wcz
01ac4     01 08 65 C6 |  if_b	neg	_var02, #1
01ac8     84 06 01 F5 | 	and	_var01, _var02
01acc     00 0C 05 F6 | 	mov	_var04, #0
01ad0     00 66 5D F2 | 	cmps	arg02, #0 wcz
01ad4     01 0C 65 36 |  if_ae	neg	_var04, #1
01ad8     86 06 01 F5 | 	and	_var01, _var04
01adc     00 0E 05 F6 | 	mov	_var05, #0
01ae0     04 F2 04 F1 | 	add	objptr, #4
01ae4     79 10 01 FB | 	rdlong	_var06, objptr
01ae8     98 F2 84 F1 | 	sub	objptr, #152
01aec     88 66 59 F2 | 	cmps	arg02, _var06 wcz
01af0     01 0E 65 C6 |  if_b	neg	_var05, #1
01af4     87 06 C9 F7 | 	test	_var01, _var05 wz
01af8     28 00 90 AD |  if_e	jmp	#LR__0052
01afc     94 F2 04 F1 | 	add	objptr, #148
01b00     79 12 01 FB | 	rdlong	_var07, objptr
01b04     94 F2 84 F1 | 	sub	objptr, #148
01b08     02 12 65 F0 | 	shl	_var07, #2
01b0c     B3 12 01 FD | 	qmul	_var07, arg02
01b10     18 14 61 FD | 	getqx	_var08
01b14     79 16 01 FB | 	rdlong	_var09, objptr
01b18     8A 16 01 F1 | 	add	_var09, _var08
01b1c     B2 16 01 F1 | 	add	_var09, arg01
01b20                 | '     byte[buf_ptr+4*cpl*y+x]:=c
01b20     8B 68 41 FC | 	wrbyte	arg03, _var09
01b24                 | LR__0052
01b24                 | _putpixel8_ret
01b24     2D 00 64 FD | 	ret
01b28                 | 
01b28                 | ' 
01b28                 | ' 
01b28                 | ' '*************************************************************************
01b28                 | ' '                                                                        *
01b28                 | ' '  Text functions                                                        *
01b28                 | ' '                                                                        *
01b28                 | ' '*************************************************************************
01b28                 | ' 
01b28                 | ' ''---------- Clear the screen, set its foreground/background color
01b28                 | ' 
01b28                 | ' pub cls(fc,bc)   :c
01b28                 | _cls
01b28     07 88 04 F6 | 	mov	COUNT_, #7
01b2c     4B 00 A0 FD | 	call	#pushregs_
01b30     B2 6E 01 F6 | 	mov	local01, arg01
01b34     B3 70 01 F6 | 	mov	local02, arg02
01b38                 | ' 
01b38                 | ' if (graphmode<512)
01b38     D0 F2 04 F1 | 	add	objptr, #208
01b3c     79 72 01 FB | 	rdlong	local03, objptr
01b40     D0 F2 84 F1 | 	sub	objptr, #208
01b44     01 00 00 FF 
01b48     00 72 5D F2 | 	cmps	local03, ##512 wcz
01b4c     48 00 90 3D |  if_ae	jmp	#LR__0057
01b50     B7 74 01 F6 | 	mov	local04, local01
01b54     18 74 65 F0 | 	shl	local04, #24
01b58     B8 76 01 F6 | 	mov	local05, local02
01b5c     10 76 65 F0 | 	shl	local05, #16
01b60     BB 74 01 F1 | 	add	local04, local05
01b64     20 74 05 F1 | 	add	local04, #32
01b68                 | '   c:=fc<<24+bc<<16+$20
01b68                 | '   longfill(buf_ptr,c,buflen)
01b68     79 64 01 FB | 	rdlong	arg01, objptr
01b6c     34 F2 04 F1 | 	add	objptr, #52
01b70     79 68 09 FB | 	rdlong	arg03, objptr wz
01b74     34 F2 84 F1 | 	sub	objptr, #52
01b78     BA 66 01 F6 | 	mov	arg02, local04
01b7c     C4 00 90 AD |  if_e	jmp	#LR__0063
01b80     88 E4 9F FE | 	loc	pa,	#(@LR__0055-@LR__0053)
01b84     35 00 A0 FD | 	call	#FCACHE_LOAD_
01b88                 | LR__0053
01b88     B4 04 D8 FC | 	rep	@LR__0056, arg03
01b8c                 | LR__0054
01b8c     B2 66 61 FC | 	wrlong	arg02, arg01
01b90     04 64 05 F1 | 	add	arg01, #4
01b94                 | LR__0055
01b94                 | LR__0056
01b94                 | ' else
01b94     AC 00 90 FD | 	jmp	#LR__0063
01b98                 | LR__0057
01b98                 | '   if (graphmode & 48) ==48
01b98     D0 F2 04 F1 | 	add	objptr, #208
01b9c     79 72 01 FB | 	rdlong	local03, objptr
01ba0     D0 F2 84 F1 | 	sub	objptr, #208
01ba4     30 72 05 F5 | 	and	local03, #48
01ba8     30 72 0D F2 | 	cmp	local03, #48 wz
01bac                 | '     c:=bc
01bac     B8 74 01 A6 |  if_e	mov	local04, local02
01bb0     74 00 90 AD |  if_e	jmp	#LR__0062
01bb4                 | '   elseif (graphmode & 48) ==32
01bb4     D0 F2 04 F1 | 	add	objptr, #208
01bb8     79 72 01 FB | 	rdlong	local03, objptr
01bbc     D0 F2 84 F1 | 	sub	objptr, #208
01bc0     30 72 05 F5 | 	and	local03, #48
01bc4     20 72 0D F2 | 	cmp	local03, #32 wz
01bc8     10 00 90 5D |  if_ne	jmp	#LR__0058
01bcc     B8 74 01 F6 | 	mov	local04, local02
01bd0     04 74 65 F0 | 	shl	local04, #4
01bd4     B8 74 01 F1 | 	add	local04, local02
01bd8                 | '     c:=bc<<4+bc
01bd8     4C 00 90 FD | 	jmp	#LR__0061
01bdc                 | LR__0058
01bdc                 | '   elseif (graphmode & 48) ==16
01bdc     D0 F2 04 F1 | 	add	objptr, #208
01be0     79 72 01 FB | 	rdlong	local03, objptr
01be4     D0 F2 84 F1 | 	sub	objptr, #208
01be8     30 72 05 F5 | 	and	local03, #48
01bec     10 72 0D F2 | 	cmp	local03, #16 wz
01bf0     28 00 90 5D |  if_ne	jmp	#LR__0059
01bf4     B8 74 01 F6 | 	mov	local04, local02
01bf8     06 74 65 F0 | 	shl	local04, #6
01bfc     B8 78 01 F6 | 	mov	local06, local02
01c00     04 78 65 F0 | 	shl	local06, #4
01c04     BC 74 01 F1 | 	add	local04, local06
01c08     B8 7A 01 F6 | 	mov	local07, local02
01c0c     02 7A 65 F0 | 	shl	local07, #2
01c10     BD 74 01 F1 | 	add	local04, local07
01c14     B8 74 01 F1 | 	add	local04, local02
01c18                 | '     c:=bc<<6+bc<<4+bc<<2+bc
01c18                 | '   else
01c18     0C 00 90 FD | 	jmp	#LR__0060
01c1c                 | LR__0059
01c1c                 | '     if bc==1
01c1c     01 70 0D F2 | 	cmp	local02, #1 wz
01c20                 | '       c:=255
01c20     FF 74 05 A6 |  if_e	mov	local04, #255
01c24                 | '     else
01c24                 | '       c:=0
01c24     00 74 05 56 |  if_ne	mov	local04, #0
01c28                 | LR__0060
01c28                 | LR__0061
01c28                 | LR__0062
01c28     34 F2 04 F1 | 	add	objptr, #52
01c2c     79 68 01 FB | 	rdlong	arg03, objptr
01c30     34 F2 84 F1 | 	sub	objptr, #52
01c34     02 68 65 F0 | 	shl	arg03, #2
01c38                 | '   bytefill(buf_ptr,c,buflen*4)
01c38     79 64 01 FB | 	rdlong	arg01, objptr
01c3c     BA 66 01 F6 | 	mov	arg02, local04
01c40     80 0B B0 FD | 	call	#__system__bytefill
01c44                 | LR__0063
01c44                 | ' setwritecolors(fc,bc)
01c44                 | ' 
01c44                 | ' 
01c44                 | ' write_color:=ff
01c44     3C F2 04 F1 | 	add	objptr, #60
01c48     79 6E 61 FC | 	wrlong	local01, objptr
01c4c                 | ' write_background:=bb
01c4c     04 F2 04 F1 | 	add	objptr, #4
01c50     79 70 61 FC | 	wrlong	local02, objptr
01c54                 | ' cursor_x:=0
01c54     08 F2 84 F1 | 	sub	objptr, #8
01c58     79 00 48 FC | 	wrbyte	#0, objptr
01c5c                 | ' cursor_y:=0
01c5c     01 F2 04 F1 | 	add	objptr, #1
01c60     79 00 48 FC | 	wrbyte	#0, objptr
01c64     39 F2 84 F1 | 	sub	objptr, #57
01c68     BA 02 01 F6 | 	mov	result1, local04
01c6c     46 F0 03 F6 | 	mov	ptra, fp
01c70     5A 00 A0 FD | 	call	#popregs_
01c74                 | _cls_ret
01c74     2D 00 64 FD | 	ret
01c78                 | 
01c78                 | ' 
01c78                 | ' 
01c78                 | ' '*************************************************************************
01c78                 | ' '                                                                        *
01c78                 | ' '  Conversions                                                           *
01c78                 | ' '                                                                        *
01c78                 | ' '*************************************************************************
01c78                 | ' 
01c78                 | ' ''---------- Convert a integer to dec string, return a pointer
01c78                 | ' 
01c78                 | ' pub inttostr(i):result |q,pos,k,j
01c78                 | _inttostr
01c78     07 88 04 F6 | 	mov	COUNT_, #7
01c7c     4B 00 A0 FD | 	call	#pushregs_
01c80     B2 6E 01 F6 | 	mov	local01, arg01
01c84                 | ' 
01c84                 | ' j:=i
01c84     B7 70 09 F6 | 	mov	local02, local01 wz
01c88                 | ' pos:=10
01c88     0A 72 05 F6 | 	mov	local03, #10
01c8c                 | ' k:=0
01c8c     00 74 05 F6 | 	mov	local04, #0
01c90                 | ' 
01c90                 | ' if (j==0)
01c90     18 00 90 5D |  if_ne	jmp	#LR__0064
01c94                 | '   n_string[0]:=48
01c94     48 F2 04 F1 | 	add	objptr, #72
01c98     79 60 48 FC | 	wrbyte	#48, objptr
01c9c                 | '   n_string[1]:=0
01c9c     01 F2 04 F1 | 	add	objptr, #1
01ca0     79 00 48 FC | 	wrbyte	#0, objptr
01ca4     49 F2 84 F1 | 	sub	objptr, #73
01ca8                 | ' 
01ca8                 | ' else
01ca8     C4 00 90 FD | 	jmp	#LR__0071
01cac                 | LR__0064
01cac                 | '   if (j<0)
01cac     00 70 5D F2 | 	cmps	local02, #0 wcz
01cb0                 | '     j:=0-j
01cb0     B8 70 61 C6 |  if_b	neg	local02, local02
01cb4                 | '     k:=45
01cb4     2D 74 05 C6 |  if_b	mov	local04, #45
01cb8                 | ' 
01cb8                 | '   n_string[11]:=0
01cb8     53 F2 04 F1 | 	add	objptr, #83
01cbc     79 00 48 FC | 	wrbyte	#0, objptr
01cc0     53 F2 84 F1 | 	sub	objptr, #83
01cc4     78 E3 9F FE | 	loc	pa,	#(@LR__0066-@LR__0065)
01cc8     35 00 A0 FD | 	call	#FCACHE_LOAD_
01ccc                 | '   repeat while (pos>-1)
01ccc                 | LR__0065
01ccc     FF FF 7F FF 
01cd0     FF 73 5D F2 | 	cmps	local03, ##-1 wcz
01cd4     34 00 90 ED |  if_be	jmp	#LR__0067
01cd8     B8 AE 01 F6 | 	mov	muldiva_, local02
01cdc     0A B0 05 F6 | 	mov	muldivb_, #10
01ce0     6B 00 A0 FD | 	call	#divide_
01ce4     D7 76 01 F6 | 	mov	local05, muldiva_
01ce8                 | '     q:=j//10
01ce8                 | '     q:=48+q
01ce8     30 76 05 F1 | 	add	local05, #48
01cec     B9 78 01 F6 | 	mov	local06, local03
01cf0     48 F2 04 F1 | 	add	objptr, #72
01cf4     79 78 01 F1 | 	add	local06, objptr
01cf8                 | '     n_string[pos]:=q
01cf8     BC 76 41 FC | 	wrbyte	local05, local06
01cfc                 | '     j:=j/10
01cfc     D8 70 01 F6 | 	mov	local02, muldivb_
01d00                 | '     pos-=1
01d00     01 72 85 F1 | 	sub	local03, #1
01d04     48 F2 84 F1 | 	sub	objptr, #72
01d08     C0 FF 9F FD | 	jmp	#LR__0065
01d0c                 | LR__0066
01d0c                 | LR__0067
01d0c                 | '   repeat while n_string[0]==48
01d0c                 | LR__0068
01d0c     48 F2 04 F1 | 	add	objptr, #72
01d10     79 7A C1 FA | 	rdbyte	local07, objptr
01d14     48 F2 84 F1 | 	sub	objptr, #72
01d18     30 7A 0D F2 | 	cmp	local07, #48 wz
01d1c     20 00 90 5D |  if_ne	jmp	#LR__0069
01d20     48 F2 04 F1 | 	add	objptr, #72
01d24     79 64 01 F6 | 	mov	arg01, objptr
01d28     48 F2 84 F1 | 	sub	objptr, #72
01d2c     B2 66 01 F6 | 	mov	arg02, arg01
01d30     01 66 05 F1 | 	add	arg02, #1
01d34                 | '     bytemove(@n_string,@n_string+1,12)
01d34     0C 68 05 F6 | 	mov	arg03, #12
01d38     E0 0A B0 FD | 	call	#__system__bytemove
01d3c     CC FF 9F FD | 	jmp	#LR__0068
01d40                 | LR__0069
01d40                 | ' 
01d40                 | '   if k==45
01d40     2D 74 0D F2 | 	cmp	local04, #45 wz
01d44     28 00 90 5D |  if_ne	jmp	#LR__0070
01d48     48 F2 04 F1 | 	add	objptr, #72
01d4c     79 66 01 F6 | 	mov	arg02, objptr
01d50     48 F2 84 F1 | 	sub	objptr, #72
01d54     B3 64 01 F6 | 	mov	arg01, arg02
01d58     01 64 05 F1 | 	add	arg01, #1
01d5c                 | '      bytemove(@n_string+1,@n_string,12)
01d5c     0C 68 05 F6 | 	mov	arg03, #12
01d60     B8 0A B0 FD | 	call	#__system__bytemove
01d64                 | '      n_string[0]:=k
01d64     48 F2 04 F1 | 	add	objptr, #72
01d68     79 74 41 FC | 	wrbyte	local04, objptr
01d6c     48 F2 84 F1 | 	sub	objptr, #72
01d70                 | LR__0070
01d70                 | LR__0071
01d70     48 F2 04 F1 | 	add	objptr, #72
01d74     79 02 01 F6 | 	mov	result1, objptr
01d78     48 F2 84 F1 | 	sub	objptr, #72
01d7c                 | ' 
01d7c                 | ' q:=@n_string
01d7c                 | ' return q
01d7c     46 F0 03 F6 | 	mov	ptra, fp
01d80     5A 00 A0 FD | 	call	#popregs_
01d84                 | _inttostr_ret
01d84     2D 00 64 FD | 	ret
01d88                 | 
01d88                 | ' 
01d88                 | ' 
01d88                 | ' 
01d88                 | ' '*************************************************************************
01d88                 | ' '                                                                        *
01d88                 | ' '  Mode setting and driver start                                                          *
01d88                 | ' '                                                                        *
01d88                 | ' '*************************************************************************
01d88                 | ' 
01d88                 | ' ''---------  Set the graphics mode
01d88                 | ' 
01d88                 | ' 
01d88                 | ' 
01d88                 | ' pub setmode(mode) | i', 'xzoom, yzoom, azoom
01d88                 | _setmode
01d88     1C 88 04 F6 | 	mov	COUNT_, #28
01d8c     4B 00 A0 FD | 	call	#pushregs_
01d90     B2 6E 01 F6 | 	mov	local01, arg01
01d94                 | ' 
01d94                 | ' '' mode:tn_bb_cc_vv_hh
01d94                 | ' '' hh - h.zoom, vv-v.zoom, cc-c.depth,
01d94                 | ' '' bb - borders/total pixels, 00-wide/1140, 01 medium/1026, 10 narrow/912, 11 no border, 1024 px PAL, 880 px NTSC
01d94                 | ' 
01d94                 | ' if mode==(512+192+48)
01d94     01 00 00 FF 
01d98     F0 6E 0D F2 | 	cmp	local01, ##752 wz
01d9c                 | '   return 'no RAM
01d9c     94 05 90 AD |  if_e	jmp	#LR__0093
01da0                 | ' 
01da0                 | ' case_fast (mode>>6) & 7 ' timings are the same for graphic and text
01da0     B7 70 01 F6 | 	mov	local02, local01
01da4     06 70 45 F0 | 	shr	local02, #6
01da8     07 70 05 F5 | 	and	local02, #7
01dac     08 70 25 F3 | 	fle	local02, #8
01db0     B8 72 01 F6 | 	mov	local03, local02
01db4     30 72 61 FD | 	jmprel	local03
01db8                 | LR__0072
01db8     20 00 90 FD | 	jmp	#LR__0073
01dbc     58 00 90 FD | 	jmp	#LR__0074
01dc0     90 00 90 FD | 	jmp	#LR__0075
01dc4     C8 00 90 FD | 	jmp	#LR__0076
01dc8     00 01 90 FD | 	jmp	#LR__0077
01dcc     38 01 90 FD | 	jmp	#LR__0078
01dd0     70 01 90 FD | 	jmp	#LR__0079
01dd4     A8 01 90 FD | 	jmp	#LR__0080
01dd8     E4 01 90 FD | 	jmp	#LR__0081
01ddc                 | LR__0073
01ddc                 | ' 
01ddc                 | '     0:  longmove(@timings,@timings000,16)   'PAL 50 Hz signaling 1140x624, active 800x480, 100x30 text, wide border, 2 colors per pixel, 00_00_00_00_00=0, 354_693_878 Hz
01ddc     54 F2 04 F1 | 	add	objptr, #84
01de0     79 64 01 F6 | 	mov	arg01, objptr
01de4     54 F2 84 F1 | 	sub	objptr, #84
01de8     0E 00 00 FF 
01dec     58 F8 04 F1 | 	add	ptr__dat__, ##7256
01df0     7C 74 01 F6 | 	mov	local04, ptr__dat__
01df4     BA 76 01 F6 | 	mov	local05, local04
01df8     10 78 05 F6 | 	mov	local06, #16
01dfc     BB 66 01 F6 | 	mov	arg02, local05
01e00     10 68 05 F6 | 	mov	arg03, #16
01e04     0E 00 00 FF 
01e08     58 F8 84 F1 | 	sub	ptr__dat__, ##7256
01e0c     9C 0A B0 FD | 	call	#__system__longmove
01e10     81 7A 01 F6 | 	mov	local07, result1
01e14     A8 01 90 FD | 	jmp	#LR__0081
01e18                 | LR__0074
01e18                 | '     1:  longmove(@timings,@timings064,16)   'PAL 50 Hz signaling 1026x624, active 880x496, 110x31 text, medium border, 2 colors per pixel 00_01_00_00_00=64, 319_215_686 Hz
01e18     54 F2 04 F1 | 	add	objptr, #84
01e1c     79 64 01 F6 | 	mov	arg01, objptr
01e20     54 F2 84 F1 | 	sub	objptr, #84
01e24     0E 00 00 FF 
01e28     98 F8 04 F1 | 	add	ptr__dat__, ##7320
01e2c     7C 74 01 F6 | 	mov	local04, ptr__dat__
01e30     BA 76 01 F6 | 	mov	local05, local04
01e34     10 78 05 F6 | 	mov	local06, #16
01e38     BB 66 01 F6 | 	mov	arg02, local05
01e3c     10 68 05 F6 | 	mov	arg03, #16
01e40     0E 00 00 FF 
01e44     98 F8 84 F1 | 	sub	ptr__dat__, ##7320
01e48     60 0A B0 FD | 	call	#__system__longmove
01e4c     81 7A 01 F6 | 	mov	local07, result1
01e50     6C 01 90 FD | 	jmp	#LR__0081
01e54                 | LR__0075
01e54                 | '     2:  longmove(@timings,@timings128,16)   'PAL 50 Hz signaling 912x624, active 800x480, 100x30 text, medium border, 2 colors per pixel 00_10_00_00_00=64, 283750000z
01e54     54 F2 04 F1 | 	add	objptr, #84
01e58     79 64 01 F6 | 	mov	arg01, objptr
01e5c     54 F2 84 F1 | 	sub	objptr, #84
01e60     0E 00 00 FF 
01e64     D8 F8 04 F1 | 	add	ptr__dat__, ##7384
01e68     7C 74 01 F6 | 	mov	local04, ptr__dat__
01e6c     BA 76 01 F6 | 	mov	local05, local04
01e70     10 78 05 F6 | 	mov	local06, #16
01e74     BB 66 01 F6 | 	mov	arg02, local05
01e78     10 68 05 F6 | 	mov	arg03, #16
01e7c     0E 00 00 FF 
01e80     D8 F8 84 F1 | 	sub	ptr__dat__, ##7384
01e84     24 0A B0 FD | 	call	#__system__longmove
01e88     81 7A 01 F6 | 	mov	local07, result1
01e8c     30 01 90 FD | 	jmp	#LR__0081
01e90                 | LR__0076
01e90                 | '     3:  longmove(@timings,@timings192,16)   'PAL 50 Hz signaling 1140x624, active 1024x576, 128x36 text, borderless, 2 colors per pixel 00_11_00_00_00=6192, 354_693_878 Hz
01e90     54 F2 04 F1 | 	add	objptr, #84
01e94     79 64 01 F6 | 	mov	arg01, objptr
01e98     54 F2 84 F1 | 	sub	objptr, #84
01e9c     0E 00 00 FF 
01ea0     18 F9 04 F1 | 	add	ptr__dat__, ##7448
01ea4     7C 74 01 F6 | 	mov	local04, ptr__dat__
01ea8     BA 76 01 F6 | 	mov	local05, local04
01eac     10 78 05 F6 | 	mov	local06, #16
01eb0     BB 66 01 F6 | 	mov	arg02, local05
01eb4     10 68 05 F6 | 	mov	arg03, #16
01eb8     0E 00 00 FF 
01ebc     18 F9 84 F1 | 	sub	ptr__dat__, ##7448
01ec0     E8 09 B0 FD | 	call	#__system__longmove
01ec4     81 7A 01 F6 | 	mov	local07, result1
01ec8     F4 00 90 FD | 	jmp	#LR__0081
01ecc                 | LR__0077
01ecc                 | '     4:  longmove(@timings,@timings256,16)   'NTSC 50 Hz signaling 1140x524, active 800x480, 100x30 text, NO PLACE FOR wide border, 2 colors per pixel, 01_00_00_00_00=256, 357959184 Hz
01ecc     54 F2 04 F1 | 	add	objptr, #84
01ed0     79 64 01 F6 | 	mov	arg01, objptr
01ed4     54 F2 84 F1 | 	sub	objptr, #84
01ed8     0E 00 00 FF 
01edc     58 F9 04 F1 | 	add	ptr__dat__, ##7512
01ee0     7C 74 01 F6 | 	mov	local04, ptr__dat__
01ee4     BA 76 01 F6 | 	mov	local05, local04
01ee8     10 78 05 F6 | 	mov	local06, #16
01eec     BB 66 01 F6 | 	mov	arg02, local05
01ef0     10 68 05 F6 | 	mov	arg03, #16
01ef4     0E 00 00 FF 
01ef8     58 F9 84 F1 | 	sub	ptr__dat__, ##7512
01efc     AC 09 B0 FD | 	call	#__system__longmove
01f00     81 7A 01 F6 | 	mov	local07, result1
01f04     B8 00 90 FD | 	jmp	#LR__0081
01f08                 | LR__0078
01f08                 | '     5:  longmove(@timings,@timings320,16)   'NTSC 50 Hz signaling 1026x524, active 800x480, 100x30 text, NO PLACE FOR wide border, 2 colors per pixel, 01_01_00_00_00=320, 322162162 Hz
01f08     54 F2 04 F1 | 	add	objptr, #84
01f0c     79 64 01 F6 | 	mov	arg01, objptr
01f10     54 F2 84 F1 | 	sub	objptr, #84
01f14     0E 00 00 FF 
01f18     98 F9 04 F1 | 	add	ptr__dat__, ##7576
01f1c     7C 74 01 F6 | 	mov	local04, ptr__dat__
01f20     BA 76 01 F6 | 	mov	local05, local04
01f24     10 78 05 F6 | 	mov	local06, #16
01f28     BB 66 01 F6 | 	mov	arg02, local05
01f2c     10 68 05 F6 | 	mov	arg03, #16
01f30     0E 00 00 FF 
01f34     98 F9 84 F1 | 	sub	ptr__dat__, ##7576
01f38     70 09 B0 FD | 	call	#__system__longmove
01f3c     81 7A 01 F6 | 	mov	local07, result1
01f40     7C 00 90 FD | 	jmp	#LR__0081
01f44                 | LR__0079
01f44                 | '     6:  longmove(@timings,@timings384,16)   'NTSC 50 Hz signaling 912x524, active 800x480, 100x30 text, NO PLACE FOR wide border, 2 colors per pixel, 01_10_00_00_00=384, 286363636 Hz
01f44     54 F2 04 F1 | 	add	objptr, #84
01f48     79 64 01 F6 | 	mov	arg01, objptr
01f4c     54 F2 84 F1 | 	sub	objptr, #84
01f50     0E 00 00 FF 
01f54     D8 F9 04 F1 | 	add	ptr__dat__, ##7640
01f58     7C 74 01 F6 | 	mov	local04, ptr__dat__
01f5c     BA 76 01 F6 | 	mov	local05, local04
01f60     10 78 05 F6 | 	mov	local06, #16
01f64     BB 66 01 F6 | 	mov	arg02, local05
01f68     10 68 05 F6 | 	mov	arg03, #16
01f6c     0E 00 00 FF 
01f70     D8 F9 84 F1 | 	sub	ptr__dat__, ##7640
01f74     34 09 B0 FD | 	call	#__system__longmove
01f78     81 7A 01 F6 | 	mov	local07, result1
01f7c     40 00 90 FD | 	jmp	#LR__0081
01f80                 | LR__0080
01f80                 | '     7:  longmove(@timings,@timings448,16)   'NTSC 50 Hz signaling 1026x524, active 880x496, 110x31 text, borderless, 2 colors per pixel, 01_11_00_00_00=496, 322162162 Hz
01f80     54 F2 04 F1 | 	add	objptr, #84
01f84     79 7C 01 F6 | 	mov	local08, objptr
01f88     BE 7E 01 F6 | 	mov	local09, local08
01f8c     0F 00 00 FF 
01f90     18 F8 04 F1 | 	add	ptr__dat__, ##7704
01f94     7C 74 01 F6 | 	mov	local04, ptr__dat__
01f98     BA 76 01 F6 | 	mov	local05, local04
01f9c     10 78 05 F6 | 	mov	local06, #16
01fa0     BF 64 01 F6 | 	mov	arg01, local09
01fa4     BB 66 01 F6 | 	mov	arg02, local05
01fa8     10 68 05 F6 | 	mov	arg03, #16
01fac     54 F2 84 F1 | 	sub	objptr, #84
01fb0     0F 00 00 FF 
01fb4     18 F8 84 F1 | 	sub	ptr__dat__, ##7704
01fb8     F0 08 B0 FD | 	call	#__system__longmove
01fbc     81 7A 01 F6 | 	mov	local07, result1
01fc0                 | LR__0081
01fc0                 | ' 
01fc0                 | ' ' 4-bit graphics: do nothing with timings :)
01fc0                 | ' 
01fc0                 | ' if (mode & (%10_00_11_0000))==(%10_00_11_0000) ' 8bit graphics, 4 pixels per long instead of 8, cpp x2
01fc0     B7 70 01 F6 | 	mov	local02, local01
01fc4     01 00 00 FF 
01fc8     30 70 05 F5 | 	and	local02, ##560
01fcc     01 00 00 FF 
01fd0     30 70 0D F2 | 	cmp	local02, ##560 wz
01fd4     2C 00 90 5D |  if_ne	jmp	#LR__0082
01fd8                 | '   timings[5]:=4
01fd8     68 F2 04 F1 | 	add	objptr, #104
01fdc     79 08 68 FC | 	wrlong	#4, objptr
01fe0     18 F2 04 F1 | 	add	objptr, #24
01fe4     79 80 01 FB | 	rdlong	local10, objptr
01fe8     01 80 65 F0 | 	shl	local10, #1
01fec                 | '   timings[11]:=timings[11]<<1
01fec     79 80 61 FC | 	wrlong	local10, objptr
01ff0                 | '   putpixel:=p8
01ff0     74 F2 04 F1 | 	add	objptr, #116
01ff4     79 70 01 FB | 	rdlong	local02, objptr
01ff8     10 F2 84 F1 | 	sub	objptr, #16
01ffc     79 70 61 FC | 	wrlong	local02, objptr
02000     E4 F2 84 F1 | 	sub	objptr, #228
02004                 | LR__0082
02004                 | ' 
02004                 | ' if (mode & (%10_00_11_0000))==(%10_00_01_0000) ' 2bit graphics, 16 pixels per long instead of 8, cpp /2
02004     B7 70 01 F6 | 	mov	local02, local01
02008     01 00 00 FF 
0200c     30 70 05 F5 | 	and	local02, ##560
02010     01 00 00 FF 
02014     10 70 0D F2 | 	cmp	local02, ##528 wz
02018     2C 00 90 5D |  if_ne	jmp	#LR__0083
0201c                 | '   timings[5]:=16
0201c     68 F2 04 F1 | 	add	objptr, #104
02020     79 20 68 FC | 	wrlong	#16, objptr
02024     18 F2 04 F1 | 	add	objptr, #24
02028     79 82 01 FB | 	rdlong	local11, objptr
0202c     01 82 45 F0 | 	shr	local11, #1
02030                 | '   timings[11]:=timings[11]>>1
02030     79 82 61 FC | 	wrlong	local11, objptr
02034                 | '   putpixel:=p2
02034     6C F2 04 F1 | 	add	objptr, #108
02038     79 70 01 FB | 	rdlong	local02, objptr
0203c     08 F2 84 F1 | 	sub	objptr, #8
02040     79 70 61 FC | 	wrlong	local02, objptr
02044     E4 F2 84 F1 | 	sub	objptr, #228
02048                 | LR__0083
02048                 | ' 
02048                 | ' if (mode & (%10_00_11_0000))==(%10_00_00_0000) ' 1bit graphics, 32 pixels per long instead of 8, cpp /4
02048     B7 70 01 F6 | 	mov	local02, local01
0204c     01 00 00 FF 
02050     30 70 05 F5 | 	and	local02, ##560
02054     01 00 00 FF 
02058     00 70 0D F2 | 	cmp	local02, ##512 wz
0205c     2C 00 90 5D |  if_ne	jmp	#LR__0084
02060                 | '   timings[5]:=32
02060     68 F2 04 F1 | 	add	objptr, #104
02064     79 40 68 FC | 	wrlong	#32, objptr
02068     18 F2 04 F1 | 	add	objptr, #24
0206c     79 84 01 FB | 	rdlong	local12, objptr
02070     02 84 45 F0 | 	shr	local12, #2
02074                 | '   timings[11]:=timings[11]>>2
02074     79 84 61 FC | 	wrlong	local12, objptr
02078                 | '   putpixel:=p1
02078     68 F2 04 F1 | 	add	objptr, #104
0207c     79 70 01 FB | 	rdlong	local02, objptr
02080     04 F2 84 F1 | 	sub	objptr, #4
02084     79 70 61 FC | 	wrlong	local02, objptr
02088     E4 F2 84 F1 | 	sub	objptr, #228
0208c                 | LR__0084
0208c                 | ' 
0208c                 | ' if (mode & (%10_00_11_0000))==(%10_00_10_0000) ' 4bit graphics,
0208c     B7 70 01 F6 | 	mov	local02, local01
02090     01 00 00 FF 
02094     30 70 05 F5 | 	and	local02, ##560
02098     01 00 00 FF 
0209c     20 70 0D F2 | 	cmp	local02, ##544 wz
020a0     14 00 90 5D |  if_ne	jmp	#LR__0085
020a4                 | '   putpixel:=p4
020a4     F0 F2 04 F1 | 	add	objptr, #240
020a8     79 70 01 FB | 	rdlong	local02, objptr
020ac     0C F2 84 F1 | 	sub	objptr, #12
020b0     79 70 61 FC | 	wrlong	local02, objptr
020b4     E4 F2 84 F1 | 	sub	objptr, #228
020b8                 | LR__0085
020b8                 | ' 
020b8                 | ' 
020b8                 | ' repeat i from 0 to 4
020b8     00 86 05 F6 | 	mov	local13, #0
020bc     84 DF 9F FE | 	loc	pa,	#(@LR__0087-@LR__0086)
020c0     35 00 A0 FD | 	call	#FCACHE_LOAD_
020c4                 | LR__0086
020c4     C3 88 01 F6 | 	mov	local14, local13
020c8     02 88 65 F0 | 	shl	local14, #2
020cc     54 F2 04 F1 | 	add	objptr, #84
020d0     79 88 01 F1 | 	add	local14, objptr
020d4     2C F2 84 F1 | 	sub	objptr, #44
020d8     79 8A 01 FB | 	rdlong	local15, objptr
020dc     28 F2 84 F1 | 	sub	objptr, #40
020e0     11 8A 65 F0 | 	shl	local15, #17
020e4     C4 8C 01 FB | 	rdlong	local16, local14
020e8     C5 8C 01 F1 | 	add	local16, local15
020ec     C6 8E 01 F6 | 	mov	local17, local16
020f0     80 40 38 FF 
020f4     00 8E 05 F1 | 	add	local17, ##1887502336
020f8                 | '   timings[i]:=timings[i]+hdmibase<<17+ timingsxxt
020f8     C4 8E 61 FC | 	wrlong	local17, local14
020fc     01 86 05 F1 | 	add	local13, #1
02100     05 86 5D F2 | 	cmps	local13, #5 wcz
02104     BC FF 9F CD |  if_b	jmp	#LR__0086
02108                 | LR__0087
02108     28 F2 04 F1 | 	add	objptr, #40
0210c     79 90 01 FB | 	rdlong	local18, objptr
02110     11 90 65 F0 | 	shl	local18, #17
02114     40 F2 04 F1 | 	add	objptr, #64
02118     79 92 01 FB | 	rdlong	local19, objptr
0211c     C8 92 01 F1 | 	add	local19, local18
02120                 | ' timings[5]:=timings[5]+hdmibase<<17
02120     79 92 61 FC | 	wrlong	local19, objptr
02124                 | ' clkfreq:=timings[13]
02124     20 F2 04 F1 | 	add	objptr, #32
02128     79 70 01 FB | 	rdlong	local02, objptr
0212c     14 70 65 FC | 	wrlong	local02, #20
02130                 | ' hubset(timings[14])
02130     04 F2 04 F1 | 	add	objptr, #4
02134     79 64 01 FB | 	rdlong	arg01, objptr
02138     8C F2 84 F1 | 	sub	objptr, #140
0213c     00 64 61 FD | 	hubset	arg01
02140                 | ' waitms(1)
02140     01 64 05 F6 | 	mov	arg01, #1
02144     BC 08 B0 FD | 	call	#__system___waitms
02148     B7 94 01 F6 | 	mov	local20, local01
0214c     03 94 05 F5 | 	and	local20, #3
02150     CA 96 C1 F9 | 	decod	local21, local20
02154                 | ' 
02154                 | ' 
02154                 | ' xzoom:=1<<(mode & 3)
02154     D8 F2 04 F1 | 	add	objptr, #216
02158     79 96 61 FC | 	wrlong	local21, objptr
0215c                 | ' 
0215c                 | ' if (xzoom==8) && (((mode>>4)&3)<>3)
0215c     CB 7C 01 F6 | 	mov	local08, local21
02160     D8 F2 84 F1 | 	sub	objptr, #216
02164     08 7C 0D F2 | 	cmp	local08, #8 wz
02168     24 00 90 5D |  if_ne	jmp	#LR__0088
0216c     B7 7E 01 F6 | 	mov	local09, local01
02170     04 7E 45 F0 | 	shr	local09, #4
02174     03 7E 05 F5 | 	and	local09, #3
02178     03 7E 0D F2 | 	cmp	local09, #3 wz
0217c     10 00 90 AD |  if_e	jmp	#LR__0088
02180                 | '   xzoom:=4
02180     04 70 05 F6 | 	mov	local02, #4
02184     D8 F2 04 F1 | 	add	objptr, #216
02188     79 08 68 FC | 	wrlong	#4, objptr
0218c     D8 F2 84 F1 | 	sub	objptr, #216
02190                 | LR__0088
02190     B7 98 01 F6 | 	mov	local22, local01
02194     02 98 45 F0 | 	shr	local22, #2
02198     03 98 05 F5 | 	and	local22, #3
0219c     CC 9A C1 F9 | 	decod	local23, local22
021a0                 | ' 
021a0                 | ' yzoom:=1<<((mode>>2) & 3)
021a0     DC F2 04 F1 | 	add	objptr, #220
021a4     79 9A 61 FC | 	wrlong	local23, objptr
021a8     04 F2 84 F1 | 	sub	objptr, #4
021ac     79 7C 01 FB | 	rdlong	local08, objptr
021b0     04 F2 04 F1 | 	add	objptr, #4
021b4     79 74 01 FB | 	rdlong	local04, objptr
021b8     BA 7C 01 FD | 	qmul	local08, local04
021bc     18 9C 61 FD | 	getqx	local24
021c0                 | ' azoom:=xzoom*yzoom
021c0     04 F2 04 F1 | 	add	objptr, #4
021c4     79 9C 61 FC | 	wrlong	local24, objptr
021c8                 | ' 
021c8                 | ' cpl:=timings[11]
021c8     60 F2 84 F1 | 	sub	objptr, #96
021cc     79 70 01 FB | 	rdlong	local02, objptr
021d0     14 F2 04 F1 | 	add	objptr, #20
021d4     79 70 61 FC | 	wrlong	local02, objptr
021d8     94 F2 84 F1 | 	sub	objptr, #148
021dc                 | ' if (mode<512)
021dc     01 00 00 FF 
021e0     00 6E 5D F2 | 	cmps	local01, ##512 wcz
021e4     60 00 90 3D |  if_ae	jmp	#LR__0089
021e8     84 F2 04 F1 | 	add	objptr, #132
021ec     79 AE 01 FB | 	rdlong	muldiva_, objptr
021f0     04 AE 45 F0 | 	shr	muldiva_, #4
021f4     58 F2 04 F1 | 	add	objptr, #88
021f8     79 B0 01 FB | 	rdlong	muldivb_, objptr
021fc     DC F2 84 F1 | 	sub	objptr, #220
02200     67 00 A0 FD | 	call	#unsdivide_
02204                 | '   lines:=(timings[12]>>4)+/yzoom
02204     98 F2 04 F1 | 	add	objptr, #152
02208     79 B0 61 FC | 	wrlong	muldivb_, objptr
0220c                 | '   if ((timings[12]>>4)+//yzoom) <>0
0220c     14 F2 84 F1 | 	sub	objptr, #20
02210     79 AE 01 FB | 	rdlong	muldiva_, objptr
02214     04 AE 45 F0 | 	shr	muldiva_, #4
02218     58 F2 04 F1 | 	add	objptr, #88
0221c     79 B0 01 FB | 	rdlong	muldivb_, objptr
02220     DC F2 84 F1 | 	sub	objptr, #220
02224     67 00 A0 FD | 	call	#unsdivide_
02228     00 AE 0D F2 | 	cmp	muldiva_, #0 wz
0222c     AC 00 90 AD |  if_e	jmp	#LR__0092
02230                 | '     lines +=1
02230     98 F2 04 F1 | 	add	objptr, #152
02234     79 70 01 FB | 	rdlong	local02, objptr
02238     01 70 05 F1 | 	add	local02, #1
0223c     79 70 61 FC | 	wrlong	local02, objptr
02240     98 F2 84 F1 | 	sub	objptr, #152
02244                 | ' 
02244                 | ' else
02244     94 00 90 FD | 	jmp	#LR__0092
02248                 | LR__0089
02248     84 F2 04 F1 | 	add	objptr, #132
0224c     79 AE 01 FB | 	rdlong	muldiva_, objptr
02250     58 F2 04 F1 | 	add	objptr, #88
02254     79 B0 01 FB | 	rdlong	muldivb_, objptr
02258     DC F2 84 F1 | 	sub	objptr, #220
0225c     6B 00 A0 FD | 	call	#divide_
02260                 | '   lines:=timings[12]/yzoom
02260     98 F2 04 F1 | 	add	objptr, #152
02264     79 B0 61 FC | 	wrlong	muldivb_, objptr
02268                 | '   if cpl//xzoom==0
02268     04 F2 84 F1 | 	sub	objptr, #4
0226c     79 AE 01 FB | 	rdlong	muldiva_, objptr
02270     44 F2 04 F1 | 	add	objptr, #68
02274     79 B0 01 FB | 	rdlong	muldivb_, objptr
02278     D8 F2 84 F1 | 	sub	objptr, #216
0227c     6B 00 A0 FD | 	call	#divide_
02280     00 AE 0D F2 | 	cmp	muldiva_, #0 wz
02284     28 00 90 5D |  if_ne	jmp	#LR__0090
02288                 | '     cpl:=cpl/xzoom
02288     94 F2 04 F1 | 	add	objptr, #148
0228c     79 AE 01 FB | 	rdlong	muldiva_, objptr
02290     44 F2 04 F1 | 	add	objptr, #68
02294     79 B0 01 FB | 	rdlong	muldivb_, objptr
02298     D8 F2 84 F1 | 	sub	objptr, #216
0229c     6B 00 A0 FD | 	call	#divide_
022a0     94 F2 04 F1 | 	add	objptr, #148
022a4     79 B0 61 FC | 	wrlong	muldivb_, objptr
022a8     94 F2 84 F1 | 	sub	objptr, #148
022ac                 | '   else
022ac     2C 00 90 FD | 	jmp	#LR__0091
022b0                 | LR__0090
022b0     94 F2 04 F1 | 	add	objptr, #148
022b4     79 AE 01 FB | 	rdlong	muldiva_, objptr
022b8     44 F2 04 F1 | 	add	objptr, #68
022bc     79 B0 01 FB | 	rdlong	muldivb_, objptr
022c0     D8 F2 84 F1 | 	sub	objptr, #216
022c4     6B 00 A0 FD | 	call	#divide_
022c8     D8 9E 01 F6 | 	mov	local25, muldivb_
022cc     01 9E 05 F1 | 	add	local25, #1
022d0                 | '     cpl:=cpl/xzoom+1
022d0     94 F2 04 F1 | 	add	objptr, #148
022d4     79 9E 61 FC | 	wrlong	local25, objptr
022d8     94 F2 84 F1 | 	sub	objptr, #148
022dc                 | LR__0091
022dc                 | LR__0092
022dc     94 F2 04 F1 | 	add	objptr, #148
022e0     79 7C 01 FB | 	rdlong	local08, objptr
022e4     04 F2 04 F1 | 	add	objptr, #4
022e8     79 74 01 FB | 	rdlong	local04, objptr
022ec     BA 7C 01 FD | 	qmul	local08, local04
022f0     18 A0 61 FD | 	getqx	local26
022f4                 | ' 
022f4                 | ' buflen:=(cpl*lines)
022f4     64 F2 84 F1 | 	sub	objptr, #100
022f8     79 A0 61 FC | 	wrlong	local26, objptr
022fc     34 F2 84 F1 | 	sub	objptr, #52
02300     02 A0 65 F0 | 	shl	local26, #2
02304     13 A2 C5 F9 | 	decod	local27, #19
02308     D0 A2 81 F1 | 	sub	local27, local26
0230c                 | ' 
0230c                 | ' buf_ptr:=$80000-4*buflen
0230c     79 A2 61 FC | 	wrlong	local27, objptr
02310     54 F2 04 F1 | 	add	objptr, #84
02314     79 A4 01 F6 | 	mov	local28, objptr
02318                 | ' mode_ptr:=@timings
02318     40 F2 84 F1 | 	sub	objptr, #64
0231c     79 A4 61 FC | 	wrlong	local28, objptr
02320                 | ' graphmode:=mode
02320     BC F2 04 F1 | 	add	objptr, #188
02324     79 6E 61 FC | 	wrlong	local01, objptr
02328     D0 F2 84 F1 | 	sub	objptr, #208
0232c                 | ' makedl(mode)
0232c     B7 64 01 F6 | 	mov	arg01, local01
02330     0C 00 B0 FD | 	call	#_makedl
02334                 | LR__0093
02334     46 F0 03 F6 | 	mov	ptra, fp
02338     5A 00 A0 FD | 	call	#popregs_
0233c                 | _setmode_ret
0233c     2D 00 64 FD | 	ret
02340                 | 
02340                 | ' 
02340                 | ' 
02340                 | ' 
02340                 | ' 
02340                 | ' '---------- Make a display list
02340                 | ' 
02340                 | ' pub makedl (mode) |i, fontline2,charline,bufstart,zoom1,vzoom,lpc,hzoom
02340                 | _makedl
02340                 | ' 
02340                 | ' ''--%aaaa_aaaa_aaaa_aaaa_aazz_nnnn_llll_ll_01 - txt
02340                 | '   '' aaaa_aaaa_aaaa_aaaa_aazz_rrrr_rrrr_cc_10 - graph
02340                 | '   '' aaaa_aaaa_aaaa-aaaa_aarr_rrrr_rrrr_rr_11 - extended, next long to read
02340                 | ' 
02340                 | ' '   0 - display a up/down border line
02340                 | ' 
02340                 | ' '  ' aaaa_aaaa_aaaa_aaaa_aazz_nnnn_llll_ll_01 - text line
02340                 | ' '    aaaa_aaaa_aaaa_aaaa_aa00 - buffer start, has to be aligned, 1 long for char, ff_bb_rr_cc, foreground, background,reserved, charcode
02340                 | ' '    zz - zoom, 00-x1, 01-x2, 10-x4, 11-blank line
02340                 | ' '    nnnn - font line to display, 0..15
02340                 | ' '    llllll - character line, determines the cursor Y position
02340                 | ' 
02340                 | ' 
02340                 | ' if (mode &256==0)
02340     00 65 CD F7 | 	test	arg01, #256 wz
02344     1C 00 90 5D |  if_ne	jmp	#LR__0094
02348     79 06 01 FB | 	rdlong	_var01, objptr
0234c     04 00 00 FF 
02350     00 07 85 F1 | 	sub	_var01, ##2304
02354                 | '   dl_ptr:=buf_ptr-4*576
02354     20 F2 04 F1 | 	add	objptr, #32
02358     79 06 61 FC | 	wrlong	_var01, objptr
0235c     20 F2 84 F1 | 	sub	objptr, #32
02360                 | ' else
02360     18 00 90 FD | 	jmp	#LR__0095
02364                 | LR__0094
02364     79 08 01 FB | 	rdlong	_var02, objptr
02368     03 00 00 FF 
0236c     C0 09 85 F1 | 	sub	_var02, ##1984
02370                 | '   dl_ptr:=buf_ptr-4*496
02370     20 F2 04 F1 | 	add	objptr, #32
02374     79 08 61 FC | 	wrlong	_var02, objptr
02378     20 F2 84 F1 | 	sub	objptr, #32
0237c                 | LR__0095
0237c     B2 0A 01 F6 | 	mov	_var03, arg01
02380     02 0A 45 F0 | 	shr	_var03, #2
02384     03 0A 05 F5 | 	and	_var03, #3
02388                 | ' 
02388                 | ' vzoom:=((mode>>2) & 3)
02388                 | ' 
02388                 | ' 
02388                 | ' if mode<512 '' text modes
02388     01 00 00 FF 
0238c     00 64 5D F2 | 	cmps	arg01, ##512 wcz
02390     E4 01 90 3D |  if_ae	jmp	#LR__0103
02394                 | ' 
02394                 | '   if timings[6]>0 'borders
02394     6C F2 04 F1 | 	add	objptr, #108
02398     79 0C 01 FB | 	rdlong	_var04, objptr
0239c     6C F2 84 F1 | 	sub	objptr, #108
023a0     00 0C 5D F2 | 	cmps	_var04, #0 wcz
023a4     D4 00 90 ED |  if_be	jmp	#LR__0100
023a8                 | '     repeat i from 0 to timings[6]-1 '0 to -1
023a8     00 0E 05 F6 | 	mov	_var05, #0
023ac     6C F2 04 F1 | 	add	objptr, #108
023b0     79 10 01 FB | 	rdlong	_var06, objptr
023b4     6C F2 84 F1 | 	sub	objptr, #108
023b8     01 10 85 F1 | 	sub	_var06, #1
023bc     00 10 5D F2 | 	cmps	_var06, #0 wcz
023c0     01 12 05 16 |  if_a	mov	_var07, #1
023c4     01 12 65 E6 |  if_be	neg	_var07, #1
023c8     89 14 01 F6 | 	mov	_var08, _var07
023cc     89 10 01 F1 | 	add	_var06, _var07
023d0     54 DC 9F FE | 	loc	pa,	#(@LR__0097-@LR__0096)
023d4     35 00 A0 FD | 	call	#FCACHE_LOAD_
023d8                 | LR__0096
023d8     87 16 01 F6 | 	mov	_var09, _var05
023dc     02 16 65 F0 | 	shl	_var09, #2
023e0     20 F2 04 F1 | 	add	objptr, #32
023e4     79 18 01 FB | 	rdlong	_var10, objptr
023e8     20 F2 84 F1 | 	sub	objptr, #32
023ec     8B 18 01 F1 | 	add	_var10, _var09
023f0                 | '       long[dl_ptr+4*i]:=$0
023f0     8C 00 68 FC | 	wrlong	#0, _var10
023f4     8A 0E 01 F1 | 	add	_var05, _var08
023f8     88 0E 09 F2 | 	cmp	_var05, _var06 wz
023fc     D8 FF 9F 5D |  if_ne	jmp	#LR__0096
02400                 | LR__0097
02400                 | '     repeat i from timings[6]+timings[12] to timings[15]-1
02400     6C F2 04 F1 | 	add	objptr, #108
02404     79 0E 01 FB | 	rdlong	_var05, objptr
02408     18 F2 04 F1 | 	add	objptr, #24
0240c     79 12 01 FB | 	rdlong	_var07, objptr
02410     89 0E 01 F1 | 	add	_var05, _var07
02414     0C F2 04 F1 | 	add	objptr, #12
02418     79 1A 01 FB | 	rdlong	_var11, objptr
0241c     01 1A 85 F1 | 	sub	_var11, #1
02420     24 F2 84 F1 | 	sub	objptr, #36
02424     79 1C 01 FB | 	rdlong	_var12, objptr
02428     18 F2 04 F1 | 	add	objptr, #24
0242c     79 1E 01 FB | 	rdlong	_var13, objptr
02430     84 F2 84 F1 | 	sub	objptr, #132
02434     8F 1C 01 F1 | 	add	_var12, _var13
02438     8E 1A 59 F2 | 	cmps	_var11, _var12 wcz
0243c     01 20 05 16 |  if_a	mov	_var14, #1
02440     01 20 65 E6 |  if_be	neg	_var14, #1
02444     90 22 01 F6 | 	mov	_var15, _var14
02448     90 1A 01 F1 | 	add	_var11, _var14
0244c     D8 DB 9F FE | 	loc	pa,	#(@LR__0099-@LR__0098)
02450     35 00 A0 FD | 	call	#FCACHE_LOAD_
02454                 | LR__0098
02454     87 24 01 F6 | 	mov	_var16, _var05
02458     02 24 65 F0 | 	shl	_var16, #2
0245c     20 F2 04 F1 | 	add	objptr, #32
02460     79 26 01 FB | 	rdlong	_var17, objptr
02464     20 F2 84 F1 | 	sub	objptr, #32
02468     92 26 01 F1 | 	add	_var17, _var16
0246c                 | '       long[dl_ptr+4*i]:=$0
0246c     93 00 68 FC | 	wrlong	#0, _var17
02470     91 0E 01 F1 | 	add	_var05, _var15
02474     8D 0E 09 F2 | 	cmp	_var05, _var11 wz
02478     D8 FF 9F 5D |  if_ne	jmp	#LR__0098
0247c                 | LR__0099
0247c                 | LR__0100
0247c     10 28 05 F6 | 	mov	_var18, #16
02480     85 28 61 F0 | 	shl	_var18, _var03
02484                 | '   lpc:=16<<vzoom
02484                 | '   repeat i from timings[6] to timings[6]+timings[12]-1
02484     6C F2 04 F1 | 	add	objptr, #108
02488     79 0E 01 FB | 	rdlong	_var05, objptr
0248c     87 2A 01 F6 | 	mov	_var19, _var05
02490     18 F2 04 F1 | 	add	objptr, #24
02494     79 2C 01 FB | 	rdlong	_var20, objptr
02498     96 2A 01 F1 | 	add	_var19, _var20
0249c     01 2A 85 F1 | 	sub	_var19, #1
024a0     18 F2 84 F1 | 	sub	objptr, #24
024a4     79 20 01 FB | 	rdlong	_var14, objptr
024a8     6C F2 84 F1 | 	sub	objptr, #108
024ac     90 2A 59 F2 | 	cmps	_var19, _var14 wcz
024b0     01 2E 05 16 |  if_a	mov	_var21, #1
024b4     01 2E 65 E6 |  if_be	neg	_var21, #1
024b8     97 30 01 F6 | 	mov	_var22, _var21
024bc     97 2A 01 F1 | 	add	_var19, _var21
024c0     EC DB 9F FE | 	loc	pa,	#(@LR__0102-@LR__0101)
024c4     35 00 A0 FD | 	call	#FCACHE_LOAD_
024c8                 | LR__0101
024c8     87 AE 01 F6 | 	mov	muldiva_, _var05
024cc     6C F2 04 F1 | 	add	objptr, #108
024d0     79 32 01 FB | 	rdlong	_var23, objptr
024d4     6C F2 84 F1 | 	sub	objptr, #108
024d8     99 AE 81 F1 | 	sub	muldiva_, _var23
024dc     94 B0 01 F6 | 	mov	muldivb_, _var18
024e0     67 00 A0 FD | 	call	#unsdivide_
024e4     85 AE 41 F0 | 	shr	muldiva_, _var03
024e8                 | '     fontline2:=((i-timings[6])+//lpc)>>vzoom
024e8     D7 34 01 F6 | 	mov	_var24, muldiva_
024ec     87 AE 01 F6 | 	mov	muldiva_, _var05
024f0     6C F2 04 F1 | 	add	objptr, #108
024f4     79 32 01 FB | 	rdlong	_var23, objptr
024f8     6C F2 84 F1 | 	sub	objptr, #108
024fc     99 AE 81 F1 | 	sub	muldiva_, _var23
02500     94 B0 01 F6 | 	mov	muldivb_, _var18
02504     67 00 A0 FD | 	call	#unsdivide_
02508     D8 36 01 F6 | 	mov	_var25, muldivb_
0250c                 | '     charline:=(i-timings[6])+/lpc
0250c     94 F2 04 F1 | 	add	objptr, #148
02510     79 32 01 FB | 	rdlong	_var23, objptr
02514     94 F2 84 F1 | 	sub	objptr, #148
02518     9B 32 01 FD | 	qmul	_var23, _var25
0251c     18 38 61 FD | 	getqx	_var26
02520     02 38 65 F0 | 	shl	_var26, #2
02524     79 3A 01 FB | 	rdlong	_var27, objptr
02528     9C 3A 01 F1 | 	add	_var27, _var26
0252c     B2 3C 01 F6 | 	mov	_var28, arg01
02530     03 3C 05 F5 | 	and	_var28, #3
02534     9E 3A 01 F1 | 	add	_var27, _var28
02538                 | '     bufstart:=buf_ptr+4*((cpl)*charline)+(mode&3)
02538     0C 3A 65 F0 | 	shl	_var27, #12
0253c     08 34 65 F0 | 	shl	_var24, #8
02540     9A 3A 01 F1 | 	add	_var27, _var24
02544     02 36 65 F0 | 	shl	_var25, #2
02548     9B 3A 01 F1 | 	add	_var27, _var25
0254c     01 3A 05 F1 | 	add	_var27, #1
02550     87 3E 01 F6 | 	mov	_var29, _var05
02554     02 3E 65 F0 | 	shl	_var29, #2
02558     20 F2 04 F1 | 	add	objptr, #32
0255c     79 40 01 FB | 	rdlong	_var30, objptr
02560     20 F2 84 F1 | 	sub	objptr, #32
02564     9F 40 01 F1 | 	add	_var30, _var29
02568                 | '     long[dl_ptr+4*i]:=(bufstart<<12)+(fontline2<<8)+(charline<<2)+1
02568     A0 3A 61 FC | 	wrlong	_var27, _var30
0256c     98 0E 01 F1 | 	add	_var05, _var22
02570     95 0E 09 F2 | 	cmp	_var05, _var19 wz
02574     50 FF 9F 5D |  if_ne	jmp	#LR__0101
02578                 | LR__0102
02578                 | LR__0103
02578                 | ' 
02578                 | ' 
02578                 | ' 
02578                 | ' if (mode>=512)' and (mode & (%10_00_00_0000))==(%10_00_00_0000) ' graphics -> all modes TODO :mode 560+192=752 = 10_11_11_0000 impossib,e because out of memory
02578     01 00 00 FF 
0257c     00 64 5D F2 | 	cmps	arg01, ##512 wcz
02580     AC 01 90 CD |  if_b	jmp	#LR__0111
02584                 | ' 
02584                 | '   if timings[6]>0 'borders
02584     6C F2 04 F1 | 	add	objptr, #108
02588     79 0C 01 FB | 	rdlong	_var04, objptr
0258c     6C F2 84 F1 | 	sub	objptr, #108
02590     00 0C 5D F2 | 	cmps	_var04, #0 wcz
02594     D4 00 90 ED |  if_be	jmp	#LR__0108
02598                 | '     repeat i from 0 to timings[6]-1 '0 to -1
02598     00 0E 05 F6 | 	mov	_var05, #0
0259c     6C F2 04 F1 | 	add	objptr, #108
025a0     79 42 01 FB | 	rdlong	_var31, objptr
025a4     6C F2 84 F1 | 	sub	objptr, #108
025a8     01 42 85 F1 | 	sub	_var31, #1
025ac     00 42 5D F2 | 	cmps	_var31, #0 wcz
025b0     01 12 05 16 |  if_a	mov	_var07, #1
025b4     01 12 65 E6 |  if_be	neg	_var07, #1
025b8     89 44 01 F6 | 	mov	_var32, _var07
025bc     89 42 01 F1 | 	add	_var31, _var07
025c0     64 DA 9F FE | 	loc	pa,	#(@LR__0105-@LR__0104)
025c4     35 00 A0 FD | 	call	#FCACHE_LOAD_
025c8                 | LR__0104
025c8     87 46 01 F6 | 	mov	_var33, _var05
025cc     02 46 65 F0 | 	shl	_var33, #2
025d0     20 F2 04 F1 | 	add	objptr, #32
025d4     79 48 01 FB | 	rdlong	_var34, objptr
025d8     20 F2 84 F1 | 	sub	objptr, #32
025dc     A3 48 01 F1 | 	add	_var34, _var33
025e0                 | '       long[dl_ptr+4*i]:=$0
025e0     A4 00 68 FC | 	wrlong	#0, _var34
025e4     A2 0E 01 F1 | 	add	_var05, _var32
025e8     A1 0E 09 F2 | 	cmp	_var05, _var31 wz
025ec     D8 FF 9F 5D |  if_ne	jmp	#LR__0104
025f0                 | LR__0105
025f0                 | '     repeat i from timings[6]+timings[12] to timings[15]-1
025f0     6C F2 04 F1 | 	add	objptr, #108
025f4     79 0E 01 FB | 	rdlong	_var05, objptr
025f8     18 F2 04 F1 | 	add	objptr, #24
025fc     79 12 01 FB | 	rdlong	_var07, objptr
02600     89 0E 01 F1 | 	add	_var05, _var07
02604     0C F2 04 F1 | 	add	objptr, #12
02608     79 4A 01 FB | 	rdlong	_var35, objptr
0260c     01 4A 85 F1 | 	sub	_var35, #1
02610     24 F2 84 F1 | 	sub	objptr, #36
02614     79 1C 01 FB | 	rdlong	_var12, objptr
02618     18 F2 04 F1 | 	add	objptr, #24
0261c     79 1E 01 FB | 	rdlong	_var13, objptr
02620     84 F2 84 F1 | 	sub	objptr, #132
02624     8F 1C 01 F1 | 	add	_var12, _var13
02628     8E 4A 59 F2 | 	cmps	_var35, _var12 wcz
0262c     01 20 05 16 |  if_a	mov	_var14, #1
02630     01 20 65 E6 |  if_be	neg	_var14, #1
02634     90 4C 01 F6 | 	mov	_var36, _var14
02638     90 4A 01 F1 | 	add	_var35, _var14
0263c     E8 D9 9F FE | 	loc	pa,	#(@LR__0107-@LR__0106)
02640     35 00 A0 FD | 	call	#FCACHE_LOAD_
02644                 | LR__0106
02644     87 4E 01 F6 | 	mov	_var37, _var05
02648     02 4E 65 F0 | 	shl	_var37, #2
0264c     20 F2 04 F1 | 	add	objptr, #32
02650     79 50 01 FB | 	rdlong	_var38, objptr
02654     20 F2 84 F1 | 	sub	objptr, #32
02658     A7 50 01 F1 | 	add	_var38, _var37
0265c                 | '       long[dl_ptr+4*i]:=$0
0265c     A8 00 68 FC | 	wrlong	#0, _var38
02660     A6 0E 01 F1 | 	add	_var05, _var36
02664     A5 0E 09 F2 | 	cmp	_var05, _var35 wz
02668     D8 FF 9F 5D |  if_ne	jmp	#LR__0106
0266c                 | LR__0107
0266c                 | LR__0108
0266c                 | '   repeat i from timings[6] to timings[6]+timings[12]-1
0266c     6C F2 04 F1 | 	add	objptr, #108
02670     79 0E 01 FB | 	rdlong	_var05, objptr
02674     87 52 01 F6 | 	mov	_var39, _var05
02678     18 F2 04 F1 | 	add	objptr, #24
0267c     79 2C 01 FB | 	rdlong	_var20, objptr
02680     96 52 01 F1 | 	add	_var39, _var20
02684     01 52 85 F1 | 	sub	_var39, #1
02688     18 F2 84 F1 | 	sub	objptr, #24
0268c     79 20 01 FB | 	rdlong	_var14, objptr
02690     6C F2 84 F1 | 	sub	objptr, #108
02694     90 52 59 F2 | 	cmps	_var39, _var14 wcz
02698     01 2E 05 16 |  if_a	mov	_var21, #1
0269c     01 2E 65 E6 |  if_be	neg	_var21, #1
026a0     97 54 01 F6 | 	mov	_var40, _var21
026a4     97 52 01 F1 | 	add	_var39, _var21
026a8     D4 D9 9F FE | 	loc	pa,	#(@LR__0110-@LR__0109)
026ac     35 00 A0 FD | 	call	#FCACHE_LOAD_
026b0                 | LR__0109
026b0     87 56 01 F6 | 	mov	_var41, _var05
026b4     6C F2 04 F1 | 	add	objptr, #108
026b8     79 32 01 FB | 	rdlong	_var23, objptr
026bc     99 56 81 F1 | 	sub	_var41, _var23
026c0     85 56 41 F0 | 	shr	_var41, _var03
026c4     28 F2 04 F1 | 	add	objptr, #40
026c8     79 32 01 FB | 	rdlong	_var23, objptr
026cc     94 F2 84 F1 | 	sub	objptr, #148
026d0     AB 32 01 FD | 	qmul	_var23, _var41
026d4     18 58 61 FD | 	getqx	_var42
026d8     02 58 65 F0 | 	shl	_var42, #2
026dc     79 5A 01 FB | 	rdlong	_var43, objptr
026e0     AC 5A 01 F1 | 	add	_var43, _var42
026e4     B2 5C 01 F6 | 	mov	_var44, arg01
026e8     03 5C 05 F5 | 	and	_var44, #3
026ec     AE 5A 01 F1 | 	add	_var43, _var44
026f0                 | '     bufstart:=buf_ptr+4*(cpl*((i-timings[6])>>vzoom))+(mode&3)
026f0     0C 5A 65 F0 | 	shl	_var43, #12
026f4     02 5A 05 F1 | 	add	_var43, #2
026f8     B2 5E 01 F6 | 	mov	_var45, arg01
026fc     30 5E 05 F5 | 	and	_var45, #48
02700     02 5E 45 F0 | 	shr	_var45, #2
02704     AF 5A 01 F1 | 	add	_var43, _var45
02708     87 60 01 F6 | 	mov	_var46, _var05
0270c     02 60 65 F0 | 	shl	_var46, #2
02710     20 F2 04 F1 | 	add	objptr, #32
02714     79 62 01 FB | 	rdlong	_var47, objptr
02718     20 F2 84 F1 | 	sub	objptr, #32
0271c     B0 62 01 F1 | 	add	_var47, _var46
02720                 | '     long[dl_ptr+4*i]:=(bufstart<<12)+2+(mode &48)>>2
02720     B1 5A 61 FC | 	wrlong	_var43, _var47
02724     AA 0E 01 F1 | 	add	_var05, _var40
02728     A9 0E 09 F2 | 	cmp	_var05, _var39 wz
0272c     80 FF 9F 5D |  if_ne	jmp	#LR__0109
02730                 | LR__0110
02730                 | LR__0111
02730                 | _makedl_ret
02730     2D 00 64 FD | 	ret
02734                 | hubexit
02734     23 00 80 FD | 	jmp	#cogexit
02738                 | 
02738                 | __system___setbaud
02738     14 AE 05 FB | 	rdlong	muldiva_, #20
0273c     B2 B0 01 F6 | 	mov	muldivb_, arg01
02740     6B 00 A0 FD | 	call	#divide_
02744     40 7C 64 FD | 	dirl	#62
02748     40 7E 64 FD | 	dirl	#63
0274c     7B B0 61 FC | 	wrlong	muldivb_, ptr___system__dat__
02750     10 B0 65 F0 | 	shl	muldivb_, #16
02754     07 66 05 F6 | 	mov	arg02, #7
02758     D8 66 01 F1 | 	add	arg02, muldivb_
0275c     3E F8 0C FC | 	wrpin	#124, #62
02760     3E 66 15 FC | 	wxpin	arg02, #62
02764     3F 7C 0C FC | 	wrpin	#62, #63
02768     14 66 05 F1 | 	add	arg02, #20
0276c     3F 66 15 FC | 	wxpin	arg02, #63
02770     41 7C 64 FD | 	dirh	#62
02774     41 7E 64 FD | 	dirh	#63
02778                 | __system___setbaud_ret
02778     2D 00 64 FD | 	ret
0277c                 | 
0277c                 | __system___txraw
0277c     02 88 04 F6 | 	mov	COUNT_, #2
02780     4B 00 A0 FD | 	call	#pushregs_
02784     B2 6E 01 F6 | 	mov	local01, arg01
02788     7B 70 09 FB | 	rdlong	local02, ptr___system__dat__ wz
0278c     0C 00 90 5D |  if_ne	jmp	#LR__0112
02790     C2 01 00 FF 
02794     00 64 05 F6 | 	mov	arg01, ##230400
02798     9C FF BF FD | 	call	#__system___setbaud
0279c                 | LR__0112
0279c     3E 6E 25 FC | 	wypin	local01, #62
027a0     1F 02 64 FD | 	waitx	#1
027a4     60 D8 9F FE | 	loc	pa,	#(@LR__0114-@LR__0113)
027a8     35 00 A0 FD | 	call	#FCACHE_LOAD_
027ac                 | LR__0113
027ac     40 7C 74 FD | 	testp	#62 wc
027b0     F8 FF 9F 3D |  if_nc	jmp	#LR__0113
027b4                 | LR__0114
027b4     01 02 05 F6 | 	mov	result1, #1
027b8     46 F0 03 F6 | 	mov	ptra, fp
027bc     5A 00 A0 FD | 	call	#popregs_
027c0                 | __system___txraw_ret
027c0     2D 00 64 FD | 	ret
027c4                 | 
027c4                 | __system__bytefill
027c4     B3 06 01 F6 | 	mov	_var01, arg02
027c8     08 06 65 F0 | 	shl	_var01, #8
027cc     B3 06 41 F5 | 	or	_var01, arg02
027d0     83 08 01 F6 | 	mov	_var02, _var01
027d4     10 08 65 F0 | 	shl	_var02, #16
027d8     83 08 41 F5 | 	or	_var02, _var01
027dc     38 D8 9F FE | 	loc	pa,	#(@LR__0116-@LR__0115)
027e0     35 00 A0 FD | 	call	#FCACHE_LOAD_
027e4                 | LR__0115
027e4     03 68 5D F2 | 	cmps	arg03, #3 wcz
027e8     10 00 90 ED |  if_be	jmp	#LR__0117
027ec     B2 08 61 FC | 	wrlong	_var02, arg01
027f0     04 64 05 F1 | 	add	arg01, #4
027f4     04 68 85 F1 | 	sub	arg03, #4
027f8     E8 FF 9F FD | 	jmp	#LR__0115
027fc                 | LR__0116
027fc                 | LR__0117
027fc     00 68 0D F2 | 	cmp	arg03, #0 wz
02800     14 00 90 AD |  if_e	jmp	#LR__0122
02804     04 D8 9F FE | 	loc	pa,	#(@LR__0120-@LR__0118)
02808     35 00 A0 FD | 	call	#FCACHE_LOAD_
0280c                 | LR__0118
0280c     B4 04 D8 FC | 	rep	@LR__0121, arg03
02810                 | LR__0119
02810     B2 66 41 FC | 	wrbyte	arg02, arg01
02814     01 64 05 F1 | 	add	arg01, #1
02818                 | LR__0120
02818                 | LR__0121
02818                 | LR__0122
02818                 | __system__bytefill_ret
02818     2D 00 64 FD | 	ret
0281c                 | 
0281c                 | __system__bytemove
0281c     B2 06 01 F6 | 	mov	_var01, arg01
02820     B3 64 59 F2 | 	cmps	arg01, arg02 wcz
02824     50 00 90 3D |  if_ae	jmp	#LR__0130
02828     F4 D7 9F FE | 	loc	pa,	#(@LR__0124-@LR__0123)
0282c     35 00 A0 FD | 	call	#FCACHE_LOAD_
02830                 | LR__0123
02830     03 68 5D F2 | 	cmps	arg03, #3 wcz
02834     18 00 90 ED |  if_be	jmp	#LR__0125
02838     B3 08 01 FB | 	rdlong	_var02, arg02
0283c     B2 08 61 FC | 	wrlong	_var02, arg01
02840     04 64 05 F1 | 	add	arg01, #4
02844     04 66 05 F1 | 	add	arg02, #4
02848     04 68 85 F1 | 	sub	arg03, #4
0284c     E0 FF 9F FD | 	jmp	#LR__0123
02850                 | LR__0124
02850                 | LR__0125
02850     B4 0A 09 F6 | 	mov	_var03, arg03 wz
02854     4C 00 90 AD |  if_e	jmp	#LR__0136
02858     B8 D7 9F FE | 	loc	pa,	#(@LR__0128-@LR__0126)
0285c     35 00 A0 FD | 	call	#FCACHE_LOAD_
02860                 | LR__0126
02860     85 08 D8 FC | 	rep	@LR__0129, _var03
02864                 | LR__0127
02864     B3 08 C1 FA | 	rdbyte	_var02, arg02
02868     B2 08 41 FC | 	wrbyte	_var02, arg01
0286c     01 64 05 F1 | 	add	arg01, #1
02870     01 66 05 F1 | 	add	arg02, #1
02874                 | LR__0128
02874                 | LR__0129
02874     2C 00 90 FD | 	jmp	#LR__0136
02878                 | LR__0130
02878     B4 64 01 F1 | 	add	arg01, arg03
0287c     B4 66 01 F1 | 	add	arg02, arg03
02880     B4 0C 09 F6 | 	mov	_var04, arg03 wz
02884     1C 00 90 AD |  if_e	jmp	#LR__0135
02888     88 D7 9F FE | 	loc	pa,	#(@LR__0133-@LR__0131)
0288c     35 00 A0 FD | 	call	#FCACHE_LOAD_
02890                 | LR__0131
02890     86 08 D8 FC | 	rep	@LR__0134, _var04
02894                 | LR__0132
02894     01 64 85 F1 | 	sub	arg01, #1
02898     01 66 85 F1 | 	sub	arg02, #1
0289c     B3 08 C1 FA | 	rdbyte	_var02, arg02
028a0     B2 08 41 FC | 	wrbyte	_var02, arg01
028a4                 | LR__0133
028a4                 | LR__0134
028a4                 | LR__0135
028a4                 | LR__0136
028a4     83 02 01 F6 | 	mov	result1, _var01
028a8                 | __system__bytemove_ret
028a8     2D 00 64 FD | 	ret
028ac                 | 
028ac                 | __system__longmove
028ac     B2 06 01 F6 | 	mov	_var01, arg01
028b0     B3 64 59 F2 | 	cmps	arg01, arg02 wcz
028b4     28 00 90 3D |  if_ae	jmp	#LR__0141
028b8     B4 08 09 F6 | 	mov	_var02, arg03 wz
028bc     54 00 90 AD |  if_e	jmp	#LR__0147
028c0     50 D7 9F FE | 	loc	pa,	#(@LR__0139-@LR__0137)
028c4     35 00 A0 FD | 	call	#FCACHE_LOAD_
028c8                 | LR__0137
028c8     84 08 D8 FC | 	rep	@LR__0140, _var02
028cc                 | LR__0138
028cc     B3 0A 01 FB | 	rdlong	_var03, arg02
028d0     B2 0A 61 FC | 	wrlong	_var03, arg01
028d4     04 64 05 F1 | 	add	arg01, #4
028d8     04 66 05 F1 | 	add	arg02, #4
028dc                 | LR__0139
028dc                 | LR__0140
028dc     34 00 90 FD | 	jmp	#LR__0147
028e0                 | LR__0141
028e0     B4 0C 01 F6 | 	mov	_var04, arg03
028e4     02 0C 65 F0 | 	shl	_var04, #2
028e8     86 64 01 F1 | 	add	arg01, _var04
028ec     86 66 01 F1 | 	add	arg02, _var04
028f0     B4 0E 09 F6 | 	mov	_var05, arg03 wz
028f4     1C 00 90 AD |  if_e	jmp	#LR__0146
028f8     18 D7 9F FE | 	loc	pa,	#(@LR__0144-@LR__0142)
028fc     35 00 A0 FD | 	call	#FCACHE_LOAD_
02900                 | LR__0142
02900     87 08 D8 FC | 	rep	@LR__0145, _var05
02904                 | LR__0143
02904     04 64 85 F1 | 	sub	arg01, #4
02908     04 66 85 F1 | 	sub	arg02, #4
0290c     B3 0A 01 FB | 	rdlong	_var03, arg02
02910     B2 0A 61 FC | 	wrlong	_var03, arg01
02914                 | LR__0144
02914                 | LR__0145
02914                 | LR__0146
02914                 | LR__0147
02914     83 02 01 F6 | 	mov	result1, _var01
02918                 | __system__longmove_ret
02918     2D 00 64 FD | 	ret
0291c                 | 
0291c                 | __system___make_methodptr
0291c     04 88 04 F6 | 	mov	COUNT_, #4
02920     4B 00 A0 FD | 	call	#pushregs_
02924     B2 6E 01 F6 | 	mov	local01, arg01
02928     B3 70 01 F6 | 	mov	local02, arg02
0292c     08 64 05 F6 | 	mov	arg01, #8
02930     74 04 B0 FD | 	call	#__system___gc_alloc_managed
02934     81 72 09 F6 | 	mov	local03, result1 wz
02938     10 00 90 AD |  if_e	jmp	#LR__0148
0293c     B9 6E 61 FC | 	wrlong	local01, local03
02940     B9 74 01 F6 | 	mov	local04, local03
02944     04 74 05 F1 | 	add	local04, #4
02948     BA 70 61 FC | 	wrlong	local02, local04
0294c                 | LR__0148
0294c     B9 02 01 F6 | 	mov	result1, local03
02950     46 F0 03 F6 | 	mov	ptra, fp
02954     5A 00 A0 FD | 	call	#popregs_
02958                 | __system___make_methodptr_ret
02958     2D 00 64 FD | 	ret
0295c                 | 
0295c                 | __system___tx
0295c     02 88 04 F6 | 	mov	COUNT_, #2
02960     4B 00 A0 FD | 	call	#pushregs_
02964     B2 6E 01 F6 | 	mov	local01, arg01
02968     0A 6E 0D F2 | 	cmp	local01, #10 wz
0296c     20 00 90 5D |  if_ne	jmp	#LR__0149
02970     08 F6 04 F1 | 	add	ptr___system__dat__, #8
02974     7B 70 01 FB | 	rdlong	local02, ptr___system__dat__
02978     08 F6 84 F1 | 	sub	ptr___system__dat__, #8
0297c     02 70 CD F7 | 	test	local02, #2 wz
02980     0C 00 90 AD |  if_e	jmp	#LR__0149
02984     0D 70 05 F6 | 	mov	local02, #13
02988     0D 64 05 F6 | 	mov	arg01, #13
0298c     EC FD BF FD | 	call	#__system___txraw
02990                 | LR__0149
02990     B7 64 01 F6 | 	mov	arg01, local01
02994     E4 FD BF FD | 	call	#__system___txraw
02998     46 F0 03 F6 | 	mov	ptra, fp
0299c     5A 00 A0 FD | 	call	#popregs_
029a0                 | __system___tx_ret
029a0     2D 00 64 FD | 	ret
029a4                 | 
029a4                 | __system___lockmem
029a4     02 88 04 F6 | 	mov	COUNT_, #2
029a8     4B 00 A0 FD | 	call	#pushregs_
029ac     B2 6E 01 F6 | 	mov	local01, arg01
029b0     8C D6 9F FE | 	loc	pa,	#(@LR__0152-@LR__0150)
029b4     35 00 A0 FD | 	call	#FCACHE_LOAD_
029b8                 | LR__0150
029b8                 | LR__0151
029b8     FF FF 7F FF 
029bc     FD 65 05 FB | 	rdlong	arg01, ##-3
029c0     06 64 71 FD | 	locktry	arg01 wc
029c4     FF FF 7F FF 
029c8     FF 03 A5 F5 | 	muxnc	result1, ##-1
029cc     00 02 0D F2 | 	cmp	result1, #0 wz
029d0     E4 FF 9F 5D |  if_ne	jmp	#LR__0151
029d4     B7 70 C9 FA | 	rdbyte	local02, local01 wz
029d8     B7 02 48 AC |  if_e	wrbyte	#1, local01
029dc     FF FF 7F FF 
029e0     FD 65 05 FB | 	rdlong	arg01, ##-3
029e4     07 64 71 FD | 	lockrel	arg01 wc
029e8     FF FF 7F FF 
029ec     FF 03 85 F5 | 	muxc	result1, ##-1
029f0     00 70 0D F2 | 	cmp	local02, #0 wz
029f4     C0 FF 9F 5D |  if_ne	jmp	#LR__0150
029f8                 | LR__0152
029f8     46 F0 03 F6 | 	mov	ptra, fp
029fc     5A 00 A0 FD | 	call	#popregs_
02a00                 | __system___lockmem_ret
02a00     2D 00 64 FD | 	ret
02a04                 | 
02a04                 | __system___waitms
02a04     02 88 04 F6 | 	mov	COUNT_, #2
02a08     4B 00 A0 FD | 	call	#pushregs_
02a0c     B2 6E 01 F6 | 	mov	local01, arg01
02a10     14 70 05 FB | 	rdlong	local02, #20
02a14     00 D6 9F FE | 	loc	pa,	#(@LR__0154-@LR__0153)
02a18     35 00 A0 FD | 	call	#FCACHE_LOAD_
02a1c                 | LR__0153
02a1c     01 00 00 FF 
02a20     E8 6F 5D F2 | 	cmps	local01, ##1000 wcz
02a24     1F 70 61 1D |  if_a	waitx	local02
02a28     01 00 00 1F 
02a2c     E8 6F 85 11 |  if_a	sub	local01, ##1000
02a30     E8 FF 9F 1D |  if_a	jmp	#LR__0153
02a34                 | LR__0154
02a34     00 6E 5D F2 | 	cmps	local01, #0 wcz
02a38     1C 00 90 ED |  if_be	jmp	#LR__0155
02a3c     B8 AE 01 F6 | 	mov	muldiva_, local02
02a40     01 00 00 FF 
02a44     E8 B1 05 F6 | 	mov	muldivb_, ##1000
02a48     6B 00 A0 FD | 	call	#divide_
02a4c     D8 6E 01 FD | 	qmul	local01, muldivb_
02a50     18 64 61 FD | 	getqx	arg01
02a54     1F 64 61 FD | 	waitx	arg01
02a58                 | LR__0155
02a58     46 F0 03 F6 | 	mov	ptra, fp
02a5c     5A 00 A0 FD | 	call	#popregs_
02a60                 | __system___waitms_ret
02a60     2D 00 64 FD | 	ret
02a64                 | 
02a64                 | __system___waitus
02a64     02 88 04 F6 | 	mov	COUNT_, #2
02a68     4B 00 A0 FD | 	call	#pushregs_
02a6c     B2 6E 01 F6 | 	mov	local01, arg01
02a70     14 70 05 FB | 	rdlong	local02, #20
02a74     A0 D5 9F FE | 	loc	pa,	#(@LR__0157-@LR__0156)
02a78     35 00 A0 FD | 	call	#FCACHE_LOAD_
02a7c                 | LR__0156
02a7c     A1 07 00 FF 
02a80     40 6E 5D F2 | 	cmps	local01, ##1000000 wcz
02a84     1F 70 61 1D |  if_a	waitx	local02
02a88     A1 07 00 1F 
02a8c     40 6E 85 11 |  if_a	sub	local01, ##1000000
02a90     E8 FF 9F 1D |  if_a	jmp	#LR__0156
02a94                 | LR__0157
02a94     00 6E 5D F2 | 	cmps	local01, #0 wcz
02a98     1C 00 90 ED |  if_be	jmp	#LR__0158
02a9c     B8 AE 01 F6 | 	mov	muldiva_, local02
02aa0     A1 07 00 FF 
02aa4     40 B0 05 F6 | 	mov	muldivb_, ##1000000
02aa8     6B 00 A0 FD | 	call	#divide_
02aac     D8 6E 01 FD | 	qmul	local01, muldivb_
02ab0     18 64 61 FD | 	getqx	arg01
02ab4     1F 64 61 FD | 	waitx	arg01
02ab8                 | LR__0158
02ab8     46 F0 03 F6 | 	mov	ptra, fp
02abc     5A 00 A0 FD | 	call	#popregs_
02ac0                 | __system___waitus_ret
02ac0     2D 00 64 FD | 	ret
02ac4                 | 
02ac4                 | __system___gc_ptrs
02ac4     75 06 01 F6 | 	mov	_var01, __heap_ptr
02ac8     83 08 01 F6 | 	mov	_var02, _var01
02acc     07 00 00 FF 
02ad0     F8 09 05 F1 | 	add	_var02, ##4088
02ad4     83 0A 09 FB | 	rdlong	_var03, _var01 wz
02ad8     74 00 90 5D |  if_ne	jmp	#LR__0159
02adc     84 0C 01 F6 | 	mov	_var04, _var02
02ae0     83 0C 81 F1 | 	sub	_var04, _var01
02ae4     83 02 58 FC | 	wrword	#1, _var01
02ae8     83 0E 01 F6 | 	mov	_var05, _var01
02aec     02 0E 05 F1 | 	add	_var05, #2
02af0     36 00 80 FF 
02af4     87 20 59 FC | 	wrword	##27792, _var05
02af8     83 10 01 F6 | 	mov	_var06, _var01
02afc     04 10 05 F1 | 	add	_var06, #4
02b00     88 00 58 FC | 	wrword	#0, _var06
02b04     83 12 01 F6 | 	mov	_var07, _var01
02b08     06 12 05 F1 | 	add	_var07, #6
02b0c     89 02 58 FC | 	wrword	#1, _var07
02b10     10 06 05 F1 | 	add	_var01, #16
02b14     86 0A 51 F6 | 	abs	_var03, _var04 wc
02b18     04 0A 45 F0 | 	shr	_var03, #4
02b1c     85 0A 61 C6 |  if_b	neg	_var03, _var03
02b20     83 0A 51 FC | 	wrword	_var03, _var01
02b24     83 14 01 F6 | 	mov	_var08, _var01
02b28     02 14 05 F1 | 	add	_var08, #2
02b2c     36 00 80 FF 
02b30     8A 1E 59 FC | 	wrword	##27791, _var08
02b34     83 16 01 F6 | 	mov	_var09, _var01
02b38     04 16 05 F1 | 	add	_var09, #4
02b3c     8B 00 58 FC | 	wrword	#0, _var09
02b40     83 18 01 F6 | 	mov	_var10, _var01
02b44     06 18 05 F1 | 	add	_var10, #6
02b48     8C 00 58 FC | 	wrword	#0, _var10
02b4c     10 06 85 F1 | 	sub	_var01, #16
02b50                 | LR__0159
02b50     84 04 01 F6 | 	mov	result2, _var02
02b54     83 02 01 F6 | 	mov	result1, _var01
02b58                 | __system___gc_ptrs_ret
02b58     2D 00 64 FD | 	ret
02b5c                 | 
02b5c                 | __system___gc_nextBlockPtr
02b5c     02 88 04 F6 | 	mov	COUNT_, #2
02b60     4B 00 A0 FD | 	call	#pushregs_
02b64     B2 6E 01 F6 | 	mov	local01, arg01
02b68     B7 70 E9 FA | 	rdword	local02, local01 wz
02b6c     10 00 90 5D |  if_ne	jmp	#LR__0160
02b70     19 00 00 FF 
02b74     88 65 05 F6 | 	mov	arg01, ##@LR__0203
02b78     F8 01 B0 FD | 	call	#__system___gc_errmsg
02b7c     0C 00 90 FD | 	jmp	#LR__0161
02b80                 | LR__0160
02b80     04 70 65 F0 | 	shl	local02, #4
02b84     B7 02 01 F6 | 	mov	result1, local01
02b88     B8 02 01 F1 | 	add	result1, local02
02b8c                 | LR__0161
02b8c     46 F0 03 F6 | 	mov	ptra, fp
02b90     5A 00 A0 FD | 	call	#popregs_
02b94                 | __system___gc_nextBlockPtr_ret
02b94     2D 00 64 FD | 	ret
02b98                 | 
02b98                 | __system___gc_tryalloc
02b98     1B 88 04 F6 | 	mov	COUNT_, #27
02b9c     4B 00 A0 FD | 	call	#pushregs_
02ba0     B2 6E 01 F6 | 	mov	local01, arg01
02ba4     B3 70 01 F6 | 	mov	local02, arg02
02ba8     18 FF BF FD | 	call	#__system___gc_ptrs
02bac     81 72 01 F6 | 	mov	local03, result1
02bb0     82 74 01 F6 | 	mov	local04, result2
02bb4     B9 76 01 F6 | 	mov	local05, local03
02bb8     00 78 05 F6 | 	mov	local06, #0
02bbc     98 D4 9F FE | 	loc	pa,	#(@LR__0163-@LR__0162)
02bc0     35 00 A0 FD | 	call	#FCACHE_LOAD_
02bc4                 | LR__0162
02bc4     BB 7A 01 F6 | 	mov	local07, local05
02bc8     06 76 05 F1 | 	add	local05, #6
02bcc     BB 7C 01 F6 | 	mov	local08, local05
02bd0     B9 7E 01 F6 | 	mov	local09, local03
02bd4     BE 80 E1 FA | 	rdword	local10, local08
02bd8     BF 64 01 F6 | 	mov	arg01, local09
02bdc     C0 66 09 F6 | 	mov	arg02, local10 wz
02be0     00 02 05 A6 |  if_e	mov	result1, #0
02be4     04 66 65 50 |  if_ne	shl	arg02, #4
02be8     B3 64 01 51 |  if_ne	add	arg01, arg02
02bec     B2 02 01 56 |  if_ne	mov	result1, arg01
02bf0     81 82 01 F6 | 	mov	local11, result1
02bf4     C1 76 09 F6 | 	mov	local05, local11 wz
02bf8     BB 7E 01 56 |  if_ne	mov	local09, local05
02bfc     BF 84 01 56 |  if_ne	mov	local12, local09
02c00     C2 78 E1 5A |  if_ne	rdword	local06, local12
02c04     00 76 0D F2 | 	cmp	local05, #0 wz
02c08     10 00 90 AD |  if_e	jmp	#LR__0164
02c0c     BA 76 59 F2 | 	cmps	local05, local04 wcz
02c10     08 00 90 3D |  if_ae	jmp	#LR__0164
02c14     BC 6E 59 F2 | 	cmps	local01, local06 wcz
02c18     A8 FF 9F 1D |  if_a	jmp	#LR__0162
02c1c                 | LR__0163
02c1c                 | LR__0164
02c1c     00 76 0D F2 | 	cmp	local05, #0 wz
02c20     BB 02 01 A6 |  if_e	mov	result1, local05
02c24     40 01 90 AD |  if_e	jmp	#LR__0167
02c28     BB 86 01 F6 | 	mov	local13, local05
02c2c     06 86 05 F1 | 	add	local13, #6
02c30     C3 88 E1 FA | 	rdword	local14, local13
02c34     BC 6E 59 F2 | 	cmps	local01, local06 wcz
02c38     CC 00 90 3D |  if_ae	jmp	#LR__0166
02c3c     BB 8A 01 F6 | 	mov	local15, local05
02c40     C5 6E 51 FC | 	wrword	local01, local15
02c44     B7 8C 01 F6 | 	mov	local16, local01
02c48     04 8C 65 F0 | 	shl	local16, #4
02c4c     BB 8E 01 F6 | 	mov	local17, local05
02c50     C6 8E 01 F1 | 	add	local17, local16
02c54     BC 90 01 F6 | 	mov	local18, local06
02c58     B7 90 81 F1 | 	sub	local18, local01
02c5c     C7 92 01 F6 | 	mov	local19, local17
02c60     C9 90 51 FC | 	wrword	local18, local19
02c64     C7 94 01 F6 | 	mov	local20, local17
02c68     02 94 05 F1 | 	add	local20, #2
02c6c     36 00 80 FF 
02c70     CA 1E 59 FC | 	wrword	##27791, local20
02c74     C7 96 01 F6 | 	mov	local21, local17
02c78     04 96 05 F1 | 	add	local21, #4
02c7c     BB 66 09 F6 | 	mov	arg02, local05 wz
02c80     00 02 05 A6 |  if_e	mov	result1, #0
02c84     B9 66 81 51 |  if_ne	sub	arg02, local03
02c88     04 66 45 50 |  if_ne	shr	arg02, #4
02c8c     B3 02 01 56 |  if_ne	mov	result1, arg02
02c90     CB 02 51 FC | 	wrword	result1, local21
02c94     C7 98 01 F6 | 	mov	local22, local17
02c98     C3 7E E1 FA | 	rdword	local09, local13
02c9c     06 98 05 F1 | 	add	local22, #6
02ca0     CC 7E 51 FC | 	wrword	local09, local22
02ca4     C7 9A 01 F6 | 	mov	local23, local17
02ca8     CD 66 09 F6 | 	mov	arg02, local23 wz
02cac     00 02 05 A6 |  if_e	mov	result1, #0
02cb0     B9 66 81 51 |  if_ne	sub	arg02, local03
02cb4     04 66 45 50 |  if_ne	shr	arg02, #4
02cb8     B3 02 01 56 |  if_ne	mov	result1, arg02
02cbc     81 88 01 F6 | 	mov	local14, result1
02cc0     C7 64 01 F6 | 	mov	arg01, local17
02cc4     94 FE BF FD | 	call	#__system___gc_nextBlockPtr
02cc8     81 9C 09 F6 | 	mov	local24, result1 wz
02ccc     38 00 90 AD |  if_e	jmp	#LR__0165
02cd0     BA 9C 59 F2 | 	cmps	local24, local04 wcz
02cd4     30 00 90 3D |  if_ae	jmp	#LR__0165
02cd8     CE 9E 01 F6 | 	mov	local25, local24
02cdc     04 9E 05 F1 | 	add	local25, #4
02ce0     B9 7E 01 F6 | 	mov	local09, local03
02ce4     CD 80 01 F6 | 	mov	local10, local23
02ce8     BF 64 01 F6 | 	mov	arg01, local09
02cec     C0 66 09 F6 | 	mov	arg02, local10 wz
02cf0     00 02 05 A6 |  if_e	mov	result1, #0
02cf4     B2 66 81 51 |  if_ne	sub	arg02, arg01
02cf8     04 66 45 50 |  if_ne	shr	arg02, #4
02cfc     B3 02 01 56 |  if_ne	mov	result1, arg02
02d00     81 82 01 F6 | 	mov	local11, result1
02d04     CF 82 51 FC | 	wrword	local11, local25
02d08                 | LR__0165
02d08                 | LR__0166
02d08     06 7A 05 F1 | 	add	local07, #6
02d0c     BD 88 51 FC | 	wrword	local14, local07
02d10     36 00 00 FF 
02d14     80 7E 05 F6 | 	mov	local09, ##27776
02d18     B8 7E 41 F5 | 	or	local09, local02
02d1c     BB A0 01 F6 | 	mov	local26, local05
02d20     02 A0 05 F1 | 	add	local26, #2
02d24     01 02 61 FD | 	cogid	result1
02d28     81 7E 41 F5 | 	or	local09, result1
02d2c     D0 7E 51 FC | 	wrword	local09, local26
02d30     B9 A2 01 F6 | 	mov	local27, local03
02d34     08 A2 05 F1 | 	add	local27, #8
02d38     D1 7E E1 FA | 	rdword	local09, local27
02d3c     C3 7E 51 FC | 	wrword	local09, local13
02d40     BB 66 09 F6 | 	mov	arg02, local05 wz
02d44     00 02 05 A6 |  if_e	mov	result1, #0
02d48     B9 66 81 51 |  if_ne	sub	arg02, local03
02d4c     04 66 45 50 |  if_ne	shr	arg02, #4
02d50     B3 02 01 56 |  if_ne	mov	result1, arg02
02d54     D1 02 51 FC | 	wrword	result1, local27
02d58     08 76 05 F1 | 	add	local05, #8
02d5c     BB 02 01 F6 | 	mov	result1, local05
02d60     00 C0 31 FF 
02d64     00 02 45 F5 | 	or	result1, ##1669332992
02d68                 | LR__0167
02d68     46 F0 03 F6 | 	mov	ptra, fp
02d6c     5A 00 A0 FD | 	call	#popregs_
02d70                 | __system___gc_tryalloc_ret
02d70     2D 00 64 FD | 	ret
02d74                 | 
02d74                 | __system___gc_errmsg
02d74     02 88 04 F6 | 	mov	COUNT_, #2
02d78     4B 00 A0 FD | 	call	#pushregs_
02d7c     B2 6E 01 F6 | 	mov	local01, arg01
02d80                 | LR__0168
02d80     B7 70 C9 FA | 	rdbyte	local02, local01 wz
02d84     01 6E 05 F1 | 	add	local01, #1
02d88     0C 00 90 AD |  if_e	jmp	#LR__0169
02d8c     B8 64 01 F6 | 	mov	arg01, local02
02d90     C8 FB BF FD | 	call	#__system___tx
02d94     E8 FF 9F FD | 	jmp	#LR__0168
02d98                 | LR__0169
02d98     00 02 05 F6 | 	mov	result1, #0
02d9c     46 F0 03 F6 | 	mov	ptra, fp
02da0     5A 00 A0 FD | 	call	#popregs_
02da4                 | __system___gc_errmsg_ret
02da4     2D 00 64 FD | 	ret
02da8                 | 
02da8                 | __system___gc_alloc_managed
02da8     02 88 04 F6 | 	mov	COUNT_, #2
02dac     4B 00 A0 FD | 	call	#pushregs_
02db0     B2 6E 01 F6 | 	mov	local01, arg01
02db4     00 66 05 F6 | 	mov	arg02, #0
02db8     30 00 B0 FD | 	call	#__system___gc_doalloc
02dbc     81 70 09 F6 | 	mov	local02, result1 wz
02dc0     18 00 90 5D |  if_ne	jmp	#LR__0170
02dc4     00 6E 5D F2 | 	cmps	local01, #0 wcz
02dc8     10 00 90 ED |  if_be	jmp	#LR__0170
02dcc     19 00 00 FF 
02dd0     A4 65 05 F6 | 	mov	arg01, ##@LR__0204
02dd4     9C FF BF FD | 	call	#__system___gc_errmsg
02dd8     04 00 90 FD | 	jmp	#LR__0171
02ddc                 | LR__0170
02ddc     B8 02 01 F6 | 	mov	result1, local02
02de0                 | LR__0171
02de0     46 F0 03 F6 | 	mov	ptra, fp
02de4     5A 00 A0 FD | 	call	#popregs_
02de8                 | __system___gc_alloc_managed_ret
02de8     2D 00 64 FD | 	ret
02dec                 | 
02dec                 | __system___gc_doalloc
02dec     07 88 04 F6 | 	mov	COUNT_, #7
02df0     4B 00 A0 FD | 	call	#pushregs_
02df4     B2 6E 09 F6 | 	mov	local01, arg01 wz
02df8     B3 70 01 F6 | 	mov	local02, arg02
02dfc     00 02 05 A6 |  if_e	mov	result1, #0
02e00     8C 00 90 AD |  if_e	jmp	#LR__0179
02e04     17 6E 05 F1 | 	add	local01, #23
02e08     0F 6E 25 F5 | 	andn	local01, #15
02e0c     04 6E 45 F0 | 	shr	local01, #4
02e10     0C F6 04 F1 | 	add	ptr___system__dat__, #12
02e14     7B 72 01 F6 | 	mov	local03, ptr___system__dat__
02e18     B9 64 01 F6 | 	mov	arg01, local03
02e1c     0C F6 84 F1 | 	sub	ptr___system__dat__, #12
02e20     80 FB BF FD | 	call	#__system___lockmem
02e24     B7 64 01 F6 | 	mov	arg01, local01
02e28     B8 66 01 F6 | 	mov	arg02, local02
02e2c     68 FD BF FD | 	call	#__system___gc_tryalloc
02e30     81 74 09 F6 | 	mov	local04, result1 wz
02e34     14 00 90 5D |  if_ne	jmp	#LR__0172
02e38     38 03 B0 FD | 	call	#__system___gc_docollect
02e3c     B7 64 01 F6 | 	mov	arg01, local01
02e40     B8 66 01 F6 | 	mov	arg02, local02
02e44     50 FD BF FD | 	call	#__system___gc_tryalloc
02e48     81 74 01 F6 | 	mov	local04, result1
02e4c                 | LR__0172
02e4c     B9 00 48 FC | 	wrbyte	#0, local03
02e50     00 74 0D F2 | 	cmp	local04, #0 wz
02e54     34 00 90 AD |  if_e	jmp	#LR__0178
02e58     04 6E 65 F0 | 	shl	local01, #4
02e5c     08 6E 85 F1 | 	sub	local01, #8
02e60     B7 76 51 F6 | 	abs	local05, local01 wc
02e64     02 76 45 F0 | 	shr	local05, #2
02e68     BB 76 61 C6 |  if_b	neg	local05, local05
02e6c     BB 78 09 F6 | 	mov	local06, local05 wz
02e70     BA 7A 01 F6 | 	mov	local07, local04
02e74     14 00 90 AD |  if_e	jmp	#LR__0177
02e78     90 D1 9F FE | 	loc	pa,	#(@LR__0175-@LR__0173)
02e7c     35 00 A0 FD | 	call	#FCACHE_LOAD_
02e80                 | LR__0173
02e80     BC 04 D8 FC | 	rep	@LR__0176, local06
02e84                 | LR__0174
02e84     BD 00 68 FC | 	wrlong	#0, local07
02e88     04 7A 05 F1 | 	add	local07, #4
02e8c                 | LR__0175
02e8c                 | LR__0176
02e8c                 | LR__0177
02e8c                 | LR__0178
02e8c     BA 02 01 F6 | 	mov	result1, local04
02e90                 | LR__0179
02e90     46 F0 03 F6 | 	mov	ptra, fp
02e94     5A 00 A0 FD | 	call	#popregs_
02e98                 | __system___gc_doalloc_ret
02e98     2D 00 64 FD | 	ret
02e9c                 | 
02e9c                 | __system___gc_isvalidptr
02e9c     B4 06 01 F6 | 	mov	_var01, arg03
02ea0     83 08 01 F6 | 	mov	_var02, _var01
02ea4     00 F8 7F FF 
02ea8     00 08 05 F5 | 	and	_var02, ##-1048576
02eac     00 C0 31 FF 
02eb0     00 08 0D F2 | 	cmp	_var02, ##1669332992 wz
02eb4     00 02 05 56 |  if_ne	mov	result1, #0
02eb8     60 00 90 5D |  if_ne	jmp	#__system___gc_isvalidptr_ret
02ebc     08 06 85 F1 | 	sub	_var01, #8
02ec0     83 0A 01 F6 | 	mov	_var03, _var01
02ec4     00 F8 7F FF 
02ec8     00 0A 25 F5 | 	andn	_var03, ##-1048576
02ecc     B2 0A 59 F2 | 	cmps	_var03, arg01 wcz
02ed0     08 00 90 CD |  if_b	jmp	#LR__0180
02ed4     B3 0A 59 F2 | 	cmps	_var03, arg02 wcz
02ed8     08 00 90 CD |  if_b	jmp	#LR__0181
02edc                 | LR__0180
02edc     00 02 05 F6 | 	mov	result1, #0
02ee0     38 00 90 FD | 	jmp	#__system___gc_isvalidptr_ret
02ee4                 | LR__0181
02ee4     85 08 01 F6 | 	mov	_var02, _var03
02ee8     B2 08 61 F5 | 	xor	_var02, arg01
02eec     0F 08 0D F5 | 	and	_var02, #15 wz
02ef0     00 02 05 56 |  if_ne	mov	result1, #0
02ef4     24 00 90 5D |  if_ne	jmp	#__system___gc_isvalidptr_ret
02ef8     85 0C 01 F6 | 	mov	_var04, _var03
02efc     02 0C 05 F1 | 	add	_var04, #2
02f00     86 08 E1 FA | 	rdword	_var02, _var04
02f04     7F 00 00 FF 
02f08     C0 09 05 F5 | 	and	_var02, ##65472
02f0c     36 00 00 FF 
02f10     80 08 0D F2 | 	cmp	_var02, ##27776 wz
02f14     00 02 05 56 |  if_ne	mov	result1, #0
02f18     85 02 01 A6 |  if_e	mov	result1, _var03
02f1c                 | __system___gc_isvalidptr_ret
02f1c     2D 00 64 FD | 	ret
02f20                 | 
02f20                 | __system___gc_dofree
02f20     1A 88 04 F6 | 	mov	COUNT_, #26
02f24     4B 00 A0 FD | 	call	#pushregs_
02f28     B2 6E 01 F6 | 	mov	local01, arg01
02f2c     94 FB BF FD | 	call	#__system___gc_ptrs
02f30     82 70 01 F6 | 	mov	local02, result2
02f34     81 72 01 F6 | 	mov	local03, result1
02f38     B7 74 01 F6 | 	mov	local04, local01
02f3c     02 74 05 F1 | 	add	local04, #2
02f40     36 00 80 FF 
02f44     BA 1E 59 FC | 	wrword	##27791, local04
02f48     B7 76 01 F6 | 	mov	local05, local01
02f4c     B7 64 01 F6 | 	mov	arg01, local01
02f50     08 FC BF FD | 	call	#__system___gc_nextBlockPtr
02f54     81 78 01 F6 | 	mov	local06, result1
02f58     F4 D0 9F FE | 	loc	pa,	#(@LR__0183-@LR__0182)
02f5c     35 00 A0 FD | 	call	#FCACHE_LOAD_
02f60                 | LR__0182
02f60     04 76 05 F1 | 	add	local05, #4
02f64     BB 7A 01 F6 | 	mov	local07, local05
02f68     BD 66 E9 FA | 	rdword	arg02, local07 wz
02f6c     B9 64 01 F6 | 	mov	arg01, local03
02f70     00 02 05 A6 |  if_e	mov	result1, #0
02f74     04 66 65 50 |  if_ne	shl	arg02, #4
02f78     B3 64 01 51 |  if_ne	add	arg01, arg02
02f7c     B2 02 01 56 |  if_ne	mov	result1, arg01
02f80     81 76 09 F6 | 	mov	local05, result1 wz
02f84     28 00 90 AD |  if_e	jmp	#LR__0184
02f88     BB 64 01 F6 | 	mov	arg01, local05
02f8c     00 7C 05 F6 | 	mov	local08, #0
02f90     02 64 05 F1 | 	add	arg01, #2
02f94     B2 7E E1 FA | 	rdword	local09, arg01
02f98     36 00 00 FF 
02f9c     8F 7E 0D F2 | 	cmp	local09, ##27791 wz
02fa0     01 7C 65 A6 |  if_e	neg	local08, #1
02fa4     BE 02 01 F6 | 	mov	result1, local08
02fa8     81 80 09 F6 | 	mov	local10, result1 wz
02fac     B0 FF 9F AD |  if_e	jmp	#LR__0182
02fb0                 | LR__0183
02fb0                 | LR__0184
02fb0     00 76 0D F2 | 	cmp	local05, #0 wz
02fb4     B9 76 01 A6 |  if_e	mov	local05, local03
02fb8     BB 82 01 F6 | 	mov	local11, local05
02fbc     06 82 05 F1 | 	add	local11, #6
02fc0     B7 84 01 F6 | 	mov	local12, local01
02fc4     C1 86 E1 FA | 	rdword	local13, local11
02fc8     06 84 05 F1 | 	add	local12, #6
02fcc     C2 86 51 FC | 	wrword	local13, local12
02fd0     B7 66 09 F6 | 	mov	arg02, local01 wz
02fd4     00 02 05 A6 |  if_e	mov	result1, #0
02fd8     B9 66 81 51 |  if_ne	sub	arg02, local03
02fdc     04 66 45 50 |  if_ne	shr	arg02, #4
02fe0     B3 02 01 56 |  if_ne	mov	result1, arg02
02fe4     81 88 01 F6 | 	mov	local14, result1
02fe8     C1 88 51 FC | 	wrword	local14, local11
02fec     B9 76 09 F2 | 	cmp	local05, local03 wz
02ff0     74 00 90 AD |  if_e	jmp	#LR__0187
02ff4     BB 64 01 F6 | 	mov	arg01, local05
02ff8     60 FB BF FD | 	call	#__system___gc_nextBlockPtr
02ffc     B7 02 09 F2 | 	cmp	result1, local01 wz
03000     64 00 90 5D |  if_ne	jmp	#LR__0186
03004     BB 8A 01 F6 | 	mov	local15, local05
03008     C5 8C E1 FA | 	rdword	local16, local15
0300c     B7 8E 01 F6 | 	mov	local17, local01
03010     C7 80 E1 FA | 	rdword	local10, local17
03014     C0 8C 01 F1 | 	add	local16, local10
03018     C5 8C 51 FC | 	wrword	local16, local15
0301c     BA 00 58 FC | 	wrword	#0, local04
03020     B7 64 01 F6 | 	mov	arg01, local01
03024     34 FB BF FD | 	call	#__system___gc_nextBlockPtr
03028     81 78 01 F6 | 	mov	local06, result1
0302c     B8 78 59 F2 | 	cmps	local06, local02 wcz
03030     24 00 90 3D |  if_ae	jmp	#LR__0185
03034     BC 90 01 F6 | 	mov	local18, local06
03038     04 90 05 F1 | 	add	local18, #4
0303c     BB 66 09 F6 | 	mov	arg02, local05 wz
03040     00 02 05 A6 |  if_e	mov	result1, #0
03044     B9 66 81 51 |  if_ne	sub	arg02, local03
03048     04 66 45 50 |  if_ne	shr	arg02, #4
0304c     B3 02 01 56 |  if_ne	mov	result1, arg02
03050     81 88 01 F6 | 	mov	local14, result1
03054     C8 88 51 FC | 	wrword	local14, local18
03058                 | LR__0185
03058     C2 86 E1 FA | 	rdword	local13, local12
0305c     C1 86 51 FC | 	wrword	local13, local11
03060     C2 00 58 FC | 	wrword	#0, local12
03064     BB 6E 01 F6 | 	mov	local01, local05
03068                 | LR__0186
03068                 | LR__0187
03068     B7 64 01 F6 | 	mov	arg01, local01
0306c     EC FA BF FD | 	call	#__system___gc_nextBlockPtr
03070     81 92 09 F6 | 	mov	local19, result1 wz
03074     C4 00 90 AD |  if_e	jmp	#LR__0189
03078     B8 92 59 F2 | 	cmps	local19, local02 wcz
0307c     BC 00 90 3D |  if_ae	jmp	#LR__0189
03080     C9 64 01 F6 | 	mov	arg01, local19
03084     00 7C 05 F6 | 	mov	local08, #0
03088     02 64 05 F1 | 	add	arg01, #2
0308c     B2 7E E1 FA | 	rdword	local09, arg01
03090     36 00 00 FF 
03094     8F 7E 0D F2 | 	cmp	local09, ##27791 wz
03098     01 7C 65 A6 |  if_e	neg	local08, #1
0309c     BE 02 09 F6 | 	mov	result1, local08 wz
030a0     98 00 90 AD |  if_e	jmp	#LR__0189
030a4     B7 76 01 F6 | 	mov	local05, local01
030a8     C9 6E 01 F6 | 	mov	local01, local19
030ac     BB 94 01 F6 | 	mov	local20, local05
030b0     CA 96 E1 FA | 	rdword	local21, local20
030b4     B7 98 01 F6 | 	mov	local22, local01
030b8     CC 80 E1 FA | 	rdword	local10, local22
030bc     C0 96 01 F1 | 	add	local21, local10
030c0     CA 96 51 FC | 	wrword	local21, local20
030c4     B7 9A 01 F6 | 	mov	local23, local01
030c8     06 9A 05 F1 | 	add	local23, #6
030cc     BB 9C 01 F6 | 	mov	local24, local05
030d0     CD 86 E1 FA | 	rdword	local13, local23
030d4     06 9C 05 F1 | 	add	local24, #6
030d8     CE 86 51 FC | 	wrword	local13, local24
030dc     B7 9E 01 F6 | 	mov	local25, local01
030e0     02 9E 05 F1 | 	add	local25, #2
030e4     CF 54 59 FC | 	wrword	#170, local25
030e8     CD 00 58 FC | 	wrword	#0, local23
030ec     B7 86 01 F6 | 	mov	local13, local01
030f0     C3 64 01 F6 | 	mov	arg01, local13
030f4     64 FA BF FD | 	call	#__system___gc_nextBlockPtr
030f8     81 80 01 F6 | 	mov	local10, result1
030fc     C0 78 09 F6 | 	mov	local06, local10 wz
03100     38 00 90 AD |  if_e	jmp	#LR__0188
03104     B8 78 59 F2 | 	cmps	local06, local02 wcz
03108     30 00 90 3D |  if_ae	jmp	#LR__0188
0310c     BC A0 01 F6 | 	mov	local26, local06
03110     04 A0 05 F1 | 	add	local26, #4
03114     B9 86 01 F6 | 	mov	local13, local03
03118     BB 80 01 F6 | 	mov	local10, local05
0311c     C3 64 01 F6 | 	mov	arg01, local13
03120     C0 66 09 F6 | 	mov	arg02, local10 wz
03124     00 02 05 A6 |  if_e	mov	result1, #0
03128     B2 66 81 51 |  if_ne	sub	arg02, arg01
0312c     04 66 45 50 |  if_ne	shr	arg02, #4
03130     B3 02 01 56 |  if_ne	mov	result1, arg02
03134     81 88 01 F6 | 	mov	local14, result1
03138     D0 88 51 FC | 	wrword	local14, local26
0313c                 | LR__0188
0313c                 | LR__0189
0313c     BC 02 01 F6 | 	mov	result1, local06
03140     46 F0 03 F6 | 	mov	ptra, fp
03144     5A 00 A0 FD | 	call	#popregs_
03148                 | __system___gc_dofree_ret
03148     2D 00 64 FD | 	ret
0314c                 | 
0314c                 | __system____topofstack
0314c     00 88 04 F6 | 	mov	COUNT_, #0
03150     4B 00 A0 FD | 	call	#pushregs_
03154     0C F0 07 F1 | 	add	ptra, #12
03158     04 8C 04 F1 | 	add	fp, #4
0315c     46 64 61 FC | 	wrlong	arg01, fp
03160     46 02 01 F6 | 	mov	result1, fp
03164     04 8C 84 F1 | 	sub	fp, #4
03168     46 F0 03 F6 | 	mov	ptra, fp
0316c     5A 00 A0 FD | 	call	#popregs_
03170                 | __system____topofstack_ret
03170     2D 00 64 FD | 	ret
03174                 | 
03174                 | __system___gc_docollect
03174     0C 88 04 F6 | 	mov	COUNT_, #12
03178     4B 00 A0 FD | 	call	#pushregs_
0317c     44 F9 BF FD | 	call	#__system___gc_ptrs
03180     82 6E 01 F6 | 	mov	local01, result2
03184     81 70 01 F6 | 	mov	local02, result1
03188     B8 64 01 F6 | 	mov	arg01, local02
0318c     CC F9 BF FD | 	call	#__system___gc_nextBlockPtr
03190     81 72 09 F6 | 	mov	local03, result1 wz
03194     01 02 61 FD | 	cogid	result1
03198     81 74 01 F6 | 	mov	local04, result1
0319c     2C 00 90 AD |  if_e	jmp	#LR__0191
031a0                 | LR__0190
031a0     B7 72 59 F2 | 	cmps	local03, local01 wcz
031a4     24 00 90 3D |  if_ae	jmp	#LR__0191
031a8     B9 76 01 F6 | 	mov	local05, local03
031ac     02 76 05 F1 | 	add	local05, #2
031b0     BB 78 E1 FA | 	rdword	local06, local05
031b4     20 78 25 F5 | 	andn	local06, #32
031b8     BB 78 51 FC | 	wrword	local06, local05
031bc     B9 64 01 F6 | 	mov	arg01, local03
031c0     98 F9 BF FD | 	call	#__system___gc_nextBlockPtr
031c4     81 72 09 F6 | 	mov	local03, result1 wz
031c8     D4 FF 9F 5D |  if_ne	jmp	#LR__0190
031cc                 | LR__0191
031cc     00 7A 05 F6 | 	mov	local07, #0
031d0     00 64 05 F6 | 	mov	arg01, #0
031d4     74 FF BF FD | 	call	#__system____topofstack
031d8     81 7C 01 F6 | 	mov	local08, result1
031dc     BD 64 01 F6 | 	mov	arg01, local07
031e0     BE 66 01 F6 | 	mov	arg02, local08
031e4     A0 00 B0 FD | 	call	#__system___gc_markhub
031e8     2C 01 B0 FD | 	call	#__system___gc_markcog
031ec     B8 64 01 F6 | 	mov	arg01, local02
031f0     68 F9 BF FD | 	call	#__system___gc_nextBlockPtr
031f4     81 7E 09 F6 | 	mov	local09, result1 wz
031f8     10 00 90 5D |  if_ne	jmp	#LR__0192
031fc     19 00 00 FF 
03200     C1 65 05 F6 | 	mov	arg01, ##@LR__0205
03204     6C FB BF FD | 	call	#__system___gc_errmsg
03208     70 00 90 FD | 	jmp	#LR__0198
0320c                 | LR__0192
0320c                 | LR__0193
0320c     BF 72 01 F6 | 	mov	local03, local09
03210     B9 64 01 F6 | 	mov	arg01, local03
03214     44 F9 BF FD | 	call	#__system___gc_nextBlockPtr
03218     81 7E 01 F6 | 	mov	local09, result1
0321c     B9 80 01 F6 | 	mov	local10, local03
03220     02 80 05 F1 | 	add	local10, #2
03224     C0 82 E1 FA | 	rdword	local11, local10
03228     20 82 CD F7 | 	test	local11, #32 wz
0322c     3C 00 90 5D |  if_ne	jmp	#LR__0196
03230     C1 84 01 F6 | 	mov	local12, local11
03234     10 84 0D F5 | 	and	local12, #16 wz
03238     30 00 90 5D |  if_ne	jmp	#LR__0196
0323c     C1 7A 01 F6 | 	mov	local07, local11
03240     0F 7A 05 F5 | 	and	local07, #15
03244     BD 82 01 F6 | 	mov	local11, local07
03248     BA 82 09 F2 | 	cmp	local11, local04 wz
0324c     08 00 90 AD |  if_e	jmp	#LR__0194
03250     0E 82 0D F2 | 	cmp	local11, #14 wz
03254     14 00 90 5D |  if_ne	jmp	#LR__0195
03258                 | LR__0194
03258     B9 7A 01 F6 | 	mov	local07, local03
0325c     BD 64 01 F6 | 	mov	arg01, local07
03260     BC FC BF FD | 	call	#__system___gc_dofree
03264     81 84 01 F6 | 	mov	local12, result1
03268     C2 7E 01 F6 | 	mov	local09, local12
0326c                 | LR__0195
0326c                 | LR__0196
0326c     00 7E 0D F2 | 	cmp	local09, #0 wz
03270     08 00 90 AD |  if_e	jmp	#LR__0197
03274     B7 7E 59 F2 | 	cmps	local09, local01 wcz
03278     90 FF 9F CD |  if_b	jmp	#LR__0193
0327c                 | LR__0197
0327c                 | LR__0198
0327c     46 F0 03 F6 | 	mov	ptra, fp
03280     5A 00 A0 FD | 	call	#popregs_
03284                 | __system___gc_docollect_ret
03284     2D 00 64 FD | 	ret
03288                 | 
03288                 | __system___gc_markhub
03288     0A 88 04 F6 | 	mov	COUNT_, #10
0328c     4B 00 A0 FD | 	call	#pushregs_
03290     B2 6E 01 F6 | 	mov	local01, arg01
03294     B3 70 01 F6 | 	mov	local02, arg02
03298     28 F8 BF FD | 	call	#__system___gc_ptrs
0329c     81 72 01 F6 | 	mov	local03, result1
032a0     82 74 01 F6 | 	mov	local04, result2
032a4                 | LR__0199
032a4     B8 6E 59 F2 | 	cmps	local01, local02 wcz
032a8     60 00 90 3D |  if_ae	jmp	#LR__0200
032ac     B7 68 01 FB | 	rdlong	arg03, local01
032b0     04 6E 05 F1 | 	add	local01, #4
032b4     B9 64 01 F6 | 	mov	arg01, local03
032b8     BA 66 01 F6 | 	mov	arg02, local04
032bc     DC FB BF FD | 	call	#__system___gc_isvalidptr
032c0     81 76 09 F6 | 	mov	local05, result1 wz
032c4     DC FF 9F AD |  if_e	jmp	#LR__0199
032c8     BB 64 01 F6 | 	mov	arg01, local05
032cc     00 78 05 F6 | 	mov	local06, #0
032d0     02 64 05 F1 | 	add	arg01, #2
032d4     B2 7A E1 FA | 	rdword	local07, arg01
032d8     36 00 00 FF 
032dc     8F 7A 0D F2 | 	cmp	local07, ##27791 wz
032e0     01 78 65 A6 |  if_e	neg	local06, #1
032e4     BC 02 01 F6 | 	mov	result1, local06
032e8     81 7C 09 F6 | 	mov	local08, result1 wz
032ec     B4 FF 9F 5D |  if_ne	jmp	#LR__0199
032f0     BB 7E 01 F6 | 	mov	local09, local05
032f4     02 7E 05 F1 | 	add	local09, #2
032f8     BF 80 E1 FA | 	rdword	local10, local09
032fc     0F 80 25 F5 | 	andn	local10, #15
03300     2E 80 45 F5 | 	or	local10, #46
03304     BF 80 51 FC | 	wrword	local10, local09
03308     98 FF 9F FD | 	jmp	#LR__0199
0330c                 | LR__0200
0330c     46 F0 03 F6 | 	mov	ptra, fp
03310     5A 00 A0 FD | 	call	#popregs_
03314                 | __system___gc_markhub_ret
03314     2D 00 64 FD | 	ret
03318                 | 
03318                 | __system___gc_markcog
03318     07 88 04 F6 | 	mov	COUNT_, #7
0331c     4B 00 A0 FD | 	call	#pushregs_
03320     A0 F7 BF FD | 	call	#__system___gc_ptrs
03324     81 6E 01 F6 | 	mov	local01, result1
03328     82 70 01 F6 | 	mov	local02, result2
0332c     00 72 05 F6 | 	mov	local03, #0
03330                 | LR__0201
03330     F0 75 05 F6 | 	mov	local04, #496
03334     B9 74 81 F1 | 	sub	local04, local03
03338     F0 77 05 F6 | 	mov	local05, #496
0333c     BA 76 01 F1 | 	add	local05, local04
03340                 | 	'.live	local05
03340     00 76 95 F9 | 	alts	local05, #0
03344     BB 78 01 F6 | 	mov	local06, local05
03348     B8 66 01 F6 | 	mov	arg02, local02
0334c     B7 64 01 F6 | 	mov	arg01, local01
03350     BC 68 01 F6 | 	mov	arg03, local06
03354     44 FB BF FD | 	call	#__system___gc_isvalidptr
03358     81 78 09 F6 | 	mov	local06, result1 wz
0335c     10 00 90 AD |  if_e	jmp	#LR__0202
03360     02 78 05 F1 | 	add	local06, #2
03364     BC 7A E1 FA | 	rdword	local07, local06
03368     20 7A 45 F5 | 	or	local07, #32
0336c     BC 7A 51 FC | 	wrword	local07, local06
03370                 | LR__0202
03370     01 72 05 F1 | 	add	local03, #1
03374     F0 73 5D F2 | 	cmps	local03, #496 wcz
03378     B4 FF 9F CD |  if_b	jmp	#LR__0201
0337c     46 F0 03 F6 | 	mov	ptra, fp
03380     5A 00 A0 FD | 	call	#popregs_
03384                 | __system___gc_markcog_ret
03384     2D 00 64 FD | 	ret
03388                 | 
03388                 | LR__0203
03388     20 21 21 21 
0338c     20 63 6F 72 
03390     72 75 70 74 
03394     65 64 20 68 
03398     65 61 70 3F 
0339c     3F 3F 20 21 
033a0     21 21 20    | 	byte	" !!! corrupted heap??? !!! "
033a3     00          | 	byte	0
033a4                 | LR__0204
033a4     20 21 21 21 
033a8     20 6F 75 74 
033ac     20 6F 66 20 
033b0     68 65 61 70 
033b4     20 6D 65 6D 
033b8     6F 72 79 20 
033bc     21 21 21 20 | 	byte	" !!! out of heap memory !!! "
033c0     00          | 	byte	0
033c1                 | LR__0205
033c1     20 21 21 21 
033c5     20 63 6F 72 
033c9     72 75 70 74 
033cd     65 64 20 68 
033d1     65 61 70 20 
033d5     21 21 21 20 | 	byte	" !!! corrupted heap !!! "
033d9     00          | 	byte	0
033da                 | LR__0206
033da     6D 6F 64 65 | 	byte	"mode"
033de     00          | 	byte	0
033df                 | LR__0207
033df     63 70 6C    | 	byte	"cpl"
033e2     00          | 	byte	0
033e3                 | LR__0208
033e3     62 75 66 70 
033e7     74 72       | 	byte	"bufptr"
033e9     00          | 	byte	0
033ea                 | LR__0209
033ea     62 75 66 6C 
033ee     65 6E       | 	byte	"buflen"
033f0     00          | 	byte	0
033f1                 | LR__0210
033f1     6C 69 6E 65 
033f5     73          | 	byte	"lines"
033f6     00          | 	byte	0
033f7                 | LR__0211
033f7     6D 6F 64 65 | 	byte	"mode"
033fb     00          | 	byte	0
033fc                 | LR__0212
033fc     63 70 6C    | 	byte	"cpl"
033ff     00          | 	byte	0
03400                 | LR__0213
03400     62 75 66 5F 
03404     70 74 72    | 	byte	"buf_ptr"
03407     00          | 	byte	0
03408                 | LR__0214
03408     62 75 66 6C 
0340c     65 6E       | 	byte	"buflen"
0340e     00          | 	byte	0
0340f                 | LR__0215
0340f     6C 69 6E 65 
03413     73          | 	byte	"lines"
03414     00          | 	byte	0
03415                 | LR__0216
03415     6D 6F 64 65 | 	byte	"mode"
03419     00          | 	byte	0
0341a                 | LR__0217
0341a     63 70 6C    | 	byte	"cpl"
0341d     00          | 	byte	0
0341e                 | LR__0218
0341e     62 75 66 5F 
03422     70 74 72    | 	byte	"buf_ptr"
03425     00          | 	byte	0
03426                 | LR__0219
03426     62 75 66 6C 
0342a     65 6E       | 	byte	"buflen"
0342c     00          | 	byte	0
0342d                 | LR__0220
0342d     6C 69 6E 65 
03431     73          | 	byte	"lines"
03432     00          | 	byte	0
03433                 | LR__0221
03433     6D 6F 64 65 | 	byte	"mode"
03437     00          | 	byte	0
03438                 | LR__0222
03438     63 70 6C    | 	byte	"cpl"
0343b     00          | 	byte	0
0343c                 | LR__0223
0343c     62 75 66 5F 
03440     70 74 72    | 	byte	"buf_ptr"
03443     00          | 	byte	0
03444                 | LR__0224
03444     62 75 66 6C 
03448     65 6E       | 	byte	"buflen"
0344a     00          | 	byte	0
0344b                 | LR__0225
0344b     6C 69 6E 65 
0344f     73          | 	byte	"lines"
03450     00          | 	byte	0
03451     00 00 00    | 	alignl
03454                 | _dat_
03454     00 00 00 00 
03458     00 00 00 00 
0345c     00 00 00 00 
03460     00 00 00 00 
03464     00 00 00    | vga_font       file "vgafont.def"
03467     7E 81 A5 81 
0346b     81 BD 99 81 
0346f     81 7E 00 00 
03473     00 00 00 00 | 	byte	$7e, $81, $a5, $81, $81, $bd, $99, $81, $81, $7e, $00, $00, $00, $00, $00, $00
03477     7E FF DB FF 
0347b     FF C3 E7 FF 
0347f     FF 7E 00 00 
03483     00 00 00 00 | 	byte	$7e, $ff, $db, $ff, $ff, $c3, $e7, $ff, $ff, $7e, $00, $00, $00, $00, $00, $00
03487     00 36 7F 7F 
0348b     7F 7F 3E 1C 
0348f     08 00 00 00 
03493     00 00 00 00 | 	byte	$00, $36, $7f, $7f, $7f, $7f, $3e, $1c, $08, $00, $00, $00, $00, $00, $00, $00
03497     00 08 1C 3E 
0349b     7F 3E 1C 08 
0349f     00 00 00 00 
034a3     00 00 00 00 | 	byte	$00, $08, $1c, $3e, $7f, $3e, $1c, $08, $00, $00, $00, $00, $00, $00, $00, $00
034a7     18 3C 3C E7 
034ab     E7 E7 18 18 
034af     3C 00 00 00 
034b3     00 00 00 00 | 	byte	$18, $3c, $3c, $e7, $e7, $e7, $18, $18, $3c, $00, $00, $00, $00, $00, $00, $00
034b7     18 3C 7E FF 
034bb     FF 7E 18 18 
034bf     3C 00 00 00 
034c3     00 00 00 00 | 	byte	$18, $3c, $7e, $ff, $ff, $7e, $18, $18, $3c, $00, $00, $00, $00, $00, $00, $00
034c7     00 00 00 18 
034cb     3C 3C 18 00 
034cf     00 00 00 00 
034d3     00 FF FF FF | 	byte	$00, $00, $00, $18, $3c, $3c, $18, $00, $00, $00, $00, $00, $00, $ff, $ff, $ff
034d7     FF FF FF E7 
034db     C3 C3 E7 FF 
034df     FF FF FF FF 
034e3     FF 00 00 00 | 	byte	$ff, $ff, $ff, $e7, $c3, $c3, $e7, $ff, $ff, $ff, $ff, $ff, $ff, $00, $00, $00
034e7     00 00 3C 66 
034eb     42 42 66 3C 
034ef     00 00 00 00 
034f3     00 FF FF FF | 	byte	$00, $00, $3c, $66, $42, $42, $66, $3c, $00, $00, $00, $00, $00, $ff, $ff, $ff
034f7     FF FF C3 99 
034fb     BD BD 99 C3 
034ff     FF FF FF FF 
03503     FF 00 00 00 | 	byte	$ff, $ff, $c3, $99, $bd, $bd, $99, $c3, $ff, $ff, $ff, $ff, $ff, $00, $00, $00
03507     78 70 58 4C 
0350b     1E 33 33 33 
0350f     33 1E 00 00 
03513     00 00 00 00 | 	byte	$78, $70, $58, $4c, $1e, $33, $33, $33, $33, $1e, $00, $00, $00, $00, $00, $00
03517     3C 66 66 66 
0351b     66 3C 18 7E 
0351f     18 18 00 00 
03523     00 00 00 00 | 	byte	$3c, $66, $66, $66, $66, $3c, $18, $7e, $18, $18, $00, $00, $00, $00, $00, $00
03527     FC CC FC 0C 
0352b     0C 0C 0C 0E 
0352f     0F 07 00 00 
03533     00 00 00 00 | 	byte	$fc, $cc, $fc, $0c, $0c, $0c, $0c, $0e, $0f, $07, $00, $00, $00, $00, $00, $00
03537     FE C6 FE C6 
0353b     C6 C6 C6 E6 
0353f     E7 67 03 00 
03543     00 00 00 00 | 	byte	$fe, $c6, $fe, $c6, $c6, $c6, $c6, $e6, $e7, $67, $03, $00, $00, $00, $00, $00
03547     18 18 DB 3C 
0354b     E7 3C DB 18 
0354f     18 00 00 00 
03553     00 00 00 01 | 	byte	$18, $18, $db, $3c, $e7, $3c, $db, $18, $18, $00, $00, $00, $00, $00, $00, $01
03557     03 07 0F 1F 
0355b     7F 1F 0F 07 
0355f     03 01 00 00 
03563     00 00 00 40 | 	byte	$03, $07, $0f, $1f, $7f, $1f, $0f, $07, $03, $01, $00, $00, $00, $00, $00, $40
03567     60 70 78 7C 
0356b     7F 7C 78 70 
0356f     60 40 00 00 
03573     00 00 00 00 | 	byte	$60, $70, $78, $7c, $7f, $7c, $78, $70, $60, $40, $00, $00, $00, $00, $00, $00
03577     18 3C 7E 18 
0357b     18 18 7E 3C 
0357f     18 00 00 00 
03583     00 00 00 00 | 	byte	$18, $3c, $7e, $18, $18, $18, $7e, $3c, $18, $00, $00, $00, $00, $00, $00, $00
03587     66 66 66 66 
0358b     66 66 66    | 	byte	$66[7]
0358e     00 66 66 00 
03592     00 00 00 00 
03596     00 FE DB DB 
0359a     DB DE D8 D8 | 	byte	$00, $66, $66, $00, $00, $00, $00, $00, $00, $fe, $db, $db, $db, $de, $d8, $d8
0359e     D8 D8 D8 00 
035a2     00 00 00 3E 
035a6     63 06 1C 36 
035aa     63 63 36 1C | 	byte	$d8, $d8, $d8, $00, $00, $00, $00, $3e, $63, $06, $1c, $36, $63, $63, $36, $1c
035ae     30 63 3E 00 
035b2     00 00 00 00 
035b6     00 00 00 00 
035ba     00 00 00 7F | 	byte	$30, $63, $3e, $00, $00, $00, $00, $00, $00, $00, $00, $00, $00, $00, $00, $7f
035be     7F 7F 7F 00 
035c2     00 00 00 00 
035c6     00 18 3C 7E 
035ca     18 18 18 7E | 	byte	$7f, $7f, $7f, $00, $00, $00, $00, $00, $00, $18, $3c, $7e, $18, $18, $18, $7e
035ce     3C 18 7E 00 
035d2     00 00 00 00 
035d6     00 18 3C 7E 
035da     18 18 18 18 | 	byte	$3c, $18, $7e, $00, $00, $00, $00, $00, $00, $18, $3c, $7e, $18, $18, $18, $18
035de     18 18 18 00 
035e2     00 00 00 00 
035e6     00 18 18 18 
035ea     18 18 18 18 | 	byte	$18, $18, $18, $00, $00, $00, $00, $00, $00, $18, $18, $18, $18, $18, $18, $18
035ee     7E 3C 18 00 
035f2     00 00 00 00 
035f6     00 00 00 18 
035fa     30 7F 30 18 | 	byte	$7e, $3c, $18, $00, $00, $00, $00, $00, $00, $00, $00, $18, $30, $7f, $30, $18
035fe     00 00 00 00 
03602     00 00 00 00 
03606     00 00 00    | 	byte	$00[11]
03609     0C 06 7F 06 
0360d     0C 00 00 00 
03611     00 00 00 00 
03615     00 00 00 00 | 	byte	$0c, $06, $7f, $06, $0c, $00, $00, $00, $00, $00, $00, $00, $00, $00, $00, $00
03619     00 03 03 03 
0361d     7F 00 00 00 
03621     00 00 00 00 
03625     00 00 00 00 | 	byte	$00, $03, $03, $03, $7f, $00, $00, $00, $00, $00, $00, $00, $00, $00, $00, $00
03629     14 36 7F 36 
0362d     14 00 00 00 
03631     00 00 00 00 
03635     00 00 00 08 | 	byte	$14, $36, $7f, $36, $14, $00, $00, $00, $00, $00, $00, $00, $00, $00, $00, $08
03639     1C 1C 3E 3E 
0363d     7F 7F 00 00 
03641     00 00 00 00 
03645     00 00 00 7F | 	byte	$1c, $1c, $3e, $3e, $7f, $7f, $00, $00, $00, $00, $00, $00, $00, $00, $00, $7f
03649     7F 3E 3E 1C 
0364d     1C 08 00 00 
03651     00 00 00 00 
03655     00 00 00 00 | 	byte	$7f, $3e, $3e, $1c, $1c, $08, $00, $00, $00, $00, $00, $00, $00, $00, $00, $00
03659     00 00 00 00 
0365d     00 00 00 00 
03661     00 00 00 00 
03665     00 00       | 	byte	$00[14]
03667     18 3C 3C 3C 
0366b     18 18 18 00 
0366f     18 18 00 00 
03673     00 00 66 66 | 	byte	$18, $3c, $3c, $3c, $18, $18, $18, $00, $18, $18, $00, $00, $00, $00, $66, $66
03677     66 24 00 00 
0367b     00 00 00 00 
0367f     00 00 00 00 
03683     00 00 00 00 | 	byte	$66, $24, $00, $00, $00, $00, $00, $00, $00, $00, $00, $00, $00, $00, $00, $00
03687     00 36 36 7F 
0368b     36 36 36 7F 
0368f     36 36 00 00 
03693     00 00 18 18 | 	byte	$00, $36, $36, $7f, $36, $36, $36, $7f, $36, $36, $00, $00, $00, $00, $18, $18
03697     3E 63 43 03 
0369b     3E 60 60 61 
0369f     63 3E 18 18 
036a3     00 00 00 00 | 	byte	$3e, $63, $43, $03, $3e, $60, $60, $61, $63, $3e, $18, $18, $00, $00, $00, $00
036a7     00 00 43 63 
036ab     30 18 0C 06 
036af     63 61 00 00 
036b3     00 00 00 00 | 	byte	$00, $00, $43, $63, $30, $18, $0c, $06, $63, $61, $00, $00, $00, $00, $00, $00
036b7     1C 36 36 1C 
036bb     6E 3B 33 33 
036bf     33 6E 00 00 
036c3     00 00 00 00 | 	byte	$1c, $36, $36, $1c, $6e, $3b, $33, $33, $33, $6e, $00, $00, $00, $00, $00, $00
036c7     0C 0C 0C 06 
036cb     00 00 00 00 
036cf     00 00 00 00 
036d3     00 00 00 00 | 	byte	$0c, $0c, $0c, $06, $00, $00, $00, $00, $00, $00, $00, $00, $00, $00, $00, $00
036d7     30 18 0C 0C 
036db     0C 0C 0C 0C 
036df     18 30 00 00 
036e3     00 00 00 00 | 	byte	$30, $18, $0c, $0c, $0c, $0c, $0c, $0c, $18, $30, $00, $00, $00, $00, $00, $00
036e7     0C 18 30 30 
036eb     30 30 30 30 
036ef     18 0C 00 00 
036f3     00 00 00 00 | 	byte	$0c, $18, $30, $30, $30, $30, $30, $30, $18, $0c, $00, $00, $00, $00, $00, $00
036f7     00 00 00 66 
036fb     3C FF 3C 66 
036ff     00 00 00 00 
03703     00 00 00 00 | 	byte	$00, $00, $00, $66, $3c, $ff, $3c, $66, $00, $00, $00, $00, $00, $00, $00, $00
03707     00 00 00 18 
0370b     18 7E 18 18 
0370f     00 00 00 00 
03713     00 00 00 00 | 	byte	$00, $00, $00, $18, $18, $7e, $18, $18, $00, $00, $00, $00, $00, $00, $00, $00
03717     00 00 00 00 
0371b     00 00 00 00 | 	byte	$00[8]
0371f     18 18 18 0C 
03723     00 00 00 00 
03727     00 00 00 00 
0372b     00 7F 00 00 | 	byte	$18, $18, $18, $0c, $00, $00, $00, $00, $00, $00, $00, $00, $00, $7f, $00, $00
0372f     00 00 00 00 
03733     00 00 00 00 
03737     00 00 00 00 
0373b     00 00 00 00 | 	byte	$00[16]
0373f     18 18 00 00 
03743     00 00 00 00 
03747     00 00 40 60 
0374b     30 18 0C 06 | 	byte	$18, $18, $00, $00, $00, $00, $00, $00, $00, $00, $40, $60, $30, $18, $0c, $06
0374f     03 01 00 00 
03753     00 00 00 00 
03757     1C 36 63 63 
0375b     6B 6B 63 63 | 	byte	$03, $01, $00, $00, $00, $00, $00, $00, $1c, $36, $63, $63, $6b, $6b, $63, $63
0375f     36 1C 00 00 
03763     00 00 00 00 
03767     18 1C 1E 18 
0376b     18 18 18 18 | 	byte	$36, $1c, $00, $00, $00, $00, $00, $00, $18, $1c, $1e, $18, $18, $18, $18, $18
0376f     18 7E 00 00 
03773     00 00 00 00 
03777     3E 63 60 30 
0377b     18 0C 06 03 | 	byte	$18, $7e, $00, $00, $00, $00, $00, $00, $3e, $63, $60, $30, $18, $0c, $06, $03
0377f     63 7F 00 00 
03783     00 00 00 00 
03787     3E 63 60 60 
0378b     3C 60 60 60 | 	byte	$63, $7f, $00, $00, $00, $00, $00, $00, $3e, $63, $60, $60, $3c, $60, $60, $60
0378f     63 3E 00 00 
03793     00 00 00 00 
03797     30 38 3C 36 
0379b     33 7F 30 30 | 	byte	$63, $3e, $00, $00, $00, $00, $00, $00, $30, $38, $3c, $36, $33, $7f, $30, $30
0379f     30 78 00 00 
037a3     00 00 00 00 
037a7     7F 03 03 03 
037ab     3F 60 60 60 | 	byte	$30, $78, $00, $00, $00, $00, $00, $00, $7f, $03, $03, $03, $3f, $60, $60, $60
037af     63 3E 00 00 
037b3     00 00 00 00 
037b7     1C 06 03 03 
037bb     3F 63 63 63 | 	byte	$63, $3e, $00, $00, $00, $00, $00, $00, $1c, $06, $03, $03, $3f, $63, $63, $63
037bf     63 3E 00 00 
037c3     00 00 00 00 
037c7     7F 63 60 60 
037cb     30 18 0C 0C | 	byte	$63, $3e, $00, $00, $00, $00, $00, $00, $7f, $63, $60, $60, $30, $18, $0c, $0c
037cf     0C 0C 00 00 
037d3     00 00 00 00 
037d7     3E 63 63 63 
037db     3E 63 63 63 | 	byte	$0c, $0c, $00, $00, $00, $00, $00, $00, $3e, $63, $63, $63, $3e, $63, $63, $63
037df     63 3E 00 00 
037e3     00 00 00 00 
037e7     3E 63 63 63 
037eb     7E 60 60 60 | 	byte	$63, $3e, $00, $00, $00, $00, $00, $00, $3e, $63, $63, $63, $7e, $60, $60, $60
037ef     30 1E 00 00 
037f3     00 00 00 00 
037f7     00 00 00 18 
037fb     18 00 00 00 | 	byte	$30, $1e, $00, $00, $00, $00, $00, $00, $00, $00, $00, $18, $18, $00, $00, $00
037ff     18 18 00 00 
03803     00 00 00 00 
03807     00 00 00 18 
0380b     18 00 00 00 | 	byte	$18, $18, $00, $00, $00, $00, $00, $00, $00, $00, $00, $18, $18, $00, $00, $00
0380f     18 18 0C 00 
03813     00 00 00 00 
03817     00 60 30 18 
0381b     0C 06 0C 18 | 	byte	$18, $18, $0c, $00, $00, $00, $00, $00, $00, $60, $30, $18, $0c, $06, $0c, $18
0381f     30 60 00 00 
03823     00 00 00 00 
03827     00 00 00 7E 
0382b     00 00 7E 00 | 	byte	$30, $60, $00, $00, $00, $00, $00, $00, $00, $00, $00, $7e, $00, $00, $7e, $00
0382f     00 00 00 00 
03833     00 00 00 00 
03837     00          | 	byte	$00[9]
03838     06 0C 18 30 
0383c     60 30 18 0C 
03840     06 00 00 00 
03844     00 00 00 3E | 	byte	$06, $0c, $18, $30, $60, $30, $18, $0c, $06, $00, $00, $00, $00, $00, $00, $3e
03848     63 63 30 18 
0384c     18 18 00 18 
03850     18 00 00 00 
03854     00 00 00 00 | 	byte	$63, $63, $30, $18, $18, $18, $00, $18, $18, $00, $00, $00, $00, $00, $00, $00
03858     3E 63 63 7B 
0385c     7B 7B 3B 03 
03860     3E 00 00 00 
03864     00 00 00 08 | 	byte	$3e, $63, $63, $7b, $7b, $7b, $3b, $03, $3e, $00, $00, $00, $00, $00, $00, $08
03868     1C 36 63 63 
0386c     7F 63 63 63 
03870     63 00 00 00 
03874     00 00 00 3F | 	byte	$1c, $36, $63, $63, $7f, $63, $63, $63, $63, $00, $00, $00, $00, $00, $00, $3f
03878     66 66 66 3E 
0387c     66 66 66 66 
03880     3F 00 00 00 
03884     00 00 00 3C | 	byte	$66, $66, $66, $3e, $66, $66, $66, $66, $3f, $00, $00, $00, $00, $00, $00, $3c
03888     66 43 03 03 
0388c     03 03 43 66 
03890     3C 00 00 00 
03894     00 00 00 1F | 	byte	$66, $43, $03, $03, $03, $03, $43, $66, $3c, $00, $00, $00, $00, $00, $00, $1f
03898     36 66 66 66 
0389c     66 66 66 36 
038a0     1F 00 00 00 
038a4     00 00 00 7F | 	byte	$36, $66, $66, $66, $66, $66, $66, $36, $1f, $00, $00, $00, $00, $00, $00, $7f
038a8     66 46 16 1E 
038ac     16 06 46 66 
038b0     7F 00 00 00 
038b4     00 00 00 7F | 	byte	$66, $46, $16, $1e, $16, $06, $46, $66, $7f, $00, $00, $00, $00, $00, $00, $7f
038b8     66 46 16 1E 
038bc     16 06 06 06 
038c0     0F 00 00 00 
038c4     00 00 00 3C | 	byte	$66, $46, $16, $1e, $16, $06, $06, $06, $0f, $00, $00, $00, $00, $00, $00, $3c
038c8     66 43 03 03 
038cc     7B 63 63 66 
038d0     5C 00 00 00 
038d4     00 00 00 63 | 	byte	$66, $43, $03, $03, $7b, $63, $63, $66, $5c, $00, $00, $00, $00, $00, $00, $63
038d8     63 63 63 7F 
038dc     63 63 63 63 
038e0     63 00 00 00 
038e4     00 00 00 3C | 	byte	$63, $63, $63, $7f, $63, $63, $63, $63, $63, $00, $00, $00, $00, $00, $00, $3c
038e8     18 18 18 18 
038ec     18 18 18 18 | 	byte	$18[8]
038f0     3C 00 00 00 
038f4     00 00 00 78 
038f8     30 30 30 30 
038fc     30 33 33 33 | 	byte	$3c, $00, $00, $00, $00, $00, $00, $78, $30, $30, $30, $30, $30, $33, $33, $33
03900     1E 00 00 00 
03904     00 00 00 67 
03908     66 66 36 1E 
0390c     1E 36 66 66 | 	byte	$1e, $00, $00, $00, $00, $00, $00, $67, $66, $66, $36, $1e, $1e, $36, $66, $66
03910     67 00 00 00 
03914     00 00 00 0F 
03918     06 06 06 06 
0391c     06 06 46 66 | 	byte	$67, $00, $00, $00, $00, $00, $00, $0f, $06, $06, $06, $06, $06, $06, $46, $66
03920     7F 00 00 00 
03924     00 00 00 63 
03928     77 7F 7F 6B 
0392c     63 63 63 63 | 	byte	$7f, $00, $00, $00, $00, $00, $00, $63, $77, $7f, $7f, $6b, $63, $63, $63, $63
03930     63 00 00 00 
03934     00 00 00 63 
03938     67 6F 7F 7B 
0393c     73 63 63 63 | 	byte	$63, $00, $00, $00, $00, $00, $00, $63, $67, $6f, $7f, $7b, $73, $63, $63, $63
03940     63 00 00 00 
03944     00 00 00 3E 
03948     63 63 63 63 
0394c     63 63 63 63 | 	byte	$63, $00, $00, $00, $00, $00, $00, $3e, $63, $63, $63, $63, $63, $63, $63, $63
03950     3E 00 00 00 
03954     00 00 00 3F 
03958     66 66 66 3E 
0395c     06 06 06 06 | 	byte	$3e, $00, $00, $00, $00, $00, $00, $3f, $66, $66, $66, $3e, $06, $06, $06, $06
03960     0F 00 00 00 
03964     00 00 00 3E 
03968     63 63 63 63 
0396c     63 63 6B 7B | 	byte	$0f, $00, $00, $00, $00, $00, $00, $3e, $63, $63, $63, $63, $63, $63, $6b, $7b
03970     3E 30 70 00 
03974     00 00 00 3F 
03978     66 66 66 3E 
0397c     36 66 66 66 | 	byte	$3e, $30, $70, $00, $00, $00, $00, $3f, $66, $66, $66, $3e, $36, $66, $66, $66
03980     67 00 00 00 
03984     00 00 00 3E 
03988     63 63 06 1C 
0398c     30 60 63 63 | 	byte	$67, $00, $00, $00, $00, $00, $00, $3e, $63, $63, $06, $1c, $30, $60, $63, $63
03990     3E 00 00 00 
03994     00 00 00 7E 
03998     7E 5A 18 18 
0399c     18 18 18 18 | 	byte	$3e, $00, $00, $00, $00, $00, $00, $7e, $7e, $5a, $18, $18, $18, $18, $18, $18
039a0     3C 00 00 00 
039a4     00 00 00 63 
039a8     63 63 63 63 
039ac     63 63 63 63 | 	byte	$3c, $00, $00, $00, $00, $00, $00, $63, $63, $63, $63, $63, $63, $63, $63, $63
039b0     3E 00 00 00 
039b4     00 00 00 63 
039b8     63 63 63 63 
039bc     63 63 36 1C | 	byte	$3e, $00, $00, $00, $00, $00, $00, $63, $63, $63, $63, $63, $63, $63, $36, $1c
039c0     08 00 00 00 
039c4     00 00 00 63 
039c8     63 63 63 6B 
039cc     6B 6B 7F 77 | 	byte	$08, $00, $00, $00, $00, $00, $00, $63, $63, $63, $63, $6b, $6b, $6b, $7f, $77
039d0     36 00 00 00 
039d4     00 00 00 63 
039d8     63 36 3E 1C 
039dc     1C 3E 36 63 | 	byte	$36, $00, $00, $00, $00, $00, $00, $63, $63, $36, $3e, $1c, $1c, $3e, $36, $63
039e0     63 00 00 00 
039e4     00 00 00 66 
039e8     66 66 66 3C 
039ec     18 18 18 18 | 	byte	$63, $00, $00, $00, $00, $00, $00, $66, $66, $66, $66, $3c, $18, $18, $18, $18
039f0     3C 00 00 00 
039f4     00 00 00 7F 
039f8     63 61 30 18 
039fc     0C 06 43 63 | 	byte	$3c, $00, $00, $00, $00, $00, $00, $7f, $63, $61, $30, $18, $0c, $06, $43, $63
03a00     7F 00 00 00 
03a04     00 00 00 3C 
03a08     0C 0C 0C 0C 
03a0c     0C 0C 0C 0C | 	byte	$7f, $00, $00, $00, $00, $00, $00, $3c, $0c, $0c, $0c, $0c, $0c, $0c, $0c, $0c
03a10     3C 00 00 00 
03a14     00 00 00 00 
03a18     01 03 07 0E 
03a1c     1C 38 70 60 | 	byte	$3c, $00, $00, $00, $00, $00, $00, $00, $01, $03, $07, $0e, $1c, $38, $70, $60
03a20     40 00 00 00 
03a24     00 00 00 3C 
03a28     30 30 30 30 
03a2c     30 30 30 30 | 	byte	$40, $00, $00, $00, $00, $00, $00, $3c, $30, $30, $30, $30, $30, $30, $30, $30
03a30     3C 00 00 00 
03a34     1C 36 00 00 
03a38     00 00 00 00 
03a3c     00 00 00 00 | 	byte	$3c, $00, $00, $00, $1c, $36, $00, $00, $00, $00, $00, $00, $00, $00, $00, $00
03a40     00 00 00 00 
03a44     00 00 00 00 
03a48     00 00 00 00 
03a4c     00 00 00 00 
03a50     00          | 	byte	$00[17]
03a51     FF 00 00 0C 
03a55     18 00 00 00 
03a59     00 00 00 00 
03a5d     00 00 00 00 | 	byte	$ff, $00, $00, $0c, $18, $00, $00, $00, $00, $00, $00, $00, $00, $00, $00, $00
03a61     00 00 00 00 
03a65     00 00 00 00 
03a69     00          | 	byte	$00[9]
03a6a     1E 30 3E 33 
03a6e     33 33 6E 00 
03a72     00 00 00 00 
03a76     00 07 06 06 | 	byte	$1e, $30, $3e, $33, $33, $33, $6e, $00, $00, $00, $00, $00, $00, $07, $06, $06
03a7a     1E 36 66 66 
03a7e     66 66 3E 00 
03a82     00 00 00 00 
03a86     00 00 00 00 | 	byte	$1e, $36, $66, $66, $66, $66, $3e, $00, $00, $00, $00, $00, $00, $00, $00, $00
03a8a     3E 63 03 03 
03a8e     03 63 3E 00 
03a92     00 00 00 00 
03a96     00 38 30 30 | 	byte	$3e, $63, $03, $03, $03, $63, $3e, $00, $00, $00, $00, $00, $00, $38, $30, $30
03a9a     3C 36 33 33 
03a9e     33 33 6E 00 
03aa2     00 00 00 00 
03aa6     00 00 00 00 | 	byte	$3c, $36, $33, $33, $33, $33, $6e, $00, $00, $00, $00, $00, $00, $00, $00, $00
03aaa     3E 63 7F 03 
03aae     03 63 3E 00 
03ab2     00 00 00 00 
03ab6     00 38 6C 4C | 	byte	$3e, $63, $7f, $03, $03, $63, $3e, $00, $00, $00, $00, $00, $00, $38, $6c, $4c
03aba     0C 1E 0C 0C 
03abe     0C 0C 1E 00 
03ac2     00 00 00 00 
03ac6     00 00 00 00 | 	byte	$0c, $1e, $0c, $0c, $0c, $0c, $1e, $00, $00, $00, $00, $00, $00, $00, $00, $00
03aca     6E 33 33 33 
03ace     33 33 3E 30 
03ad2     33 1E 00 00 
03ad6     00 07 06 06 | 	byte	$6e, $33, $33, $33, $33, $33, $3e, $30, $33, $1e, $00, $00, $00, $07, $06, $06
03ada     36 6E 66 66 
03ade     66 66 67 00 
03ae2     00 00 00 00 
03ae6     00 18 18 00 | 	byte	$36, $6e, $66, $66, $66, $66, $67, $00, $00, $00, $00, $00, $00, $18, $18, $00
03aea     1C 18 18 18 
03aee     18 18 3C 00 
03af2     00 00 00 00 
03af6     00 60 60 00 | 	byte	$1c, $18, $18, $18, $18, $18, $3c, $00, $00, $00, $00, $00, $00, $60, $60, $00
03afa     70 60 60 60 
03afe     60 60 60 66 
03b02     66 3C 00 00 
03b06     00 07 06 06 | 	byte	$70, $60, $60, $60, $60, $60, $60, $66, $66, $3c, $00, $00, $00, $07, $06, $06
03b0a     66 36 1E 1E 
03b0e     36 66 67 00 
03b12     00 00 00 00 
03b16     00 1C 18 18 | 	byte	$66, $36, $1e, $1e, $36, $66, $67, $00, $00, $00, $00, $00, $00, $1c, $18, $18
03b1a     18 18 18 18 
03b1e     18 18       | 	byte	$18[6]
03b20     3C 00 00 00 
03b24     00 00 00 00 
03b28     00 00 37 7F 
03b2c     6B 6B 6B 6B | 	byte	$3c, $00, $00, $00, $00, $00, $00, $00, $00, $00, $37, $7f, $6b, $6b, $6b, $6b
03b30     63 00 00 00 
03b34     00 00 00 00 
03b38     00 00 3B 66 
03b3c     66 66 66 66 | 	byte	$63, $00, $00, $00, $00, $00, $00, $00, $00, $00, $3b, $66, $66, $66, $66, $66
03b40     66 00 00 00 
03b44     00 00 00 00 
03b48     00 00 3E 63 
03b4c     63 63 63 63 | 	byte	$66, $00, $00, $00, $00, $00, $00, $00, $00, $00, $3e, $63, $63, $63, $63, $63
03b50     3E 00 00 00 
03b54     00 00 00 00 
03b58     00 00 3B 66 
03b5c     66 66 66 66 | 	byte	$3e, $00, $00, $00, $00, $00, $00, $00, $00, $00, $3b, $66, $66, $66, $66, $66
03b60     3E 06 06 0F 
03b64     00 00 00 00 
03b68     00 00 6E 33 
03b6c     33 33 33 33 | 	byte	$3e, $06, $06, $0f, $00, $00, $00, $00, $00, $00, $6e, $33, $33, $33, $33, $33
03b70     3E 30 30 78 
03b74     00 00 00 00 
03b78     00 00 3B 6E 
03b7c     66 06 06 06 | 	byte	$3e, $30, $30, $78, $00, $00, $00, $00, $00, $00, $3b, $6e, $66, $06, $06, $06
03b80     0F 00 00 00 
03b84     00 00 00 00 
03b88     00 00 3E 63 
03b8c     06 1C 30 63 | 	byte	$0f, $00, $00, $00, $00, $00, $00, $00, $00, $00, $3e, $63, $06, $1c, $30, $63
03b90     3E 00 00 00 
03b94     00 00 00 08 
03b98     0C 0C 3F 0C 
03b9c     0C 0C 0C 6C | 	byte	$3e, $00, $00, $00, $00, $00, $00, $08, $0c, $0c, $3f, $0c, $0c, $0c, $0c, $6c
03ba0     38 00 00 00 
03ba4     00 00 00 00 
03ba8     00 00 33 33 
03bac     33 33 33 33 | 	byte	$38, $00, $00, $00, $00, $00, $00, $00, $00, $00, $33, $33, $33, $33, $33, $33
03bb0     6E 00 00 00 
03bb4     00 00 00 00 
03bb8     00 00 63 63 
03bbc     63 63 63 36 | 	byte	$6e, $00, $00, $00, $00, $00, $00, $00, $00, $00, $63, $63, $63, $63, $63, $36
03bc0     1C 00 00 00 
03bc4     00 00 00 00 
03bc8     00 00 63 63 
03bcc     6B 6B 6B 7F | 	byte	$1c, $00, $00, $00, $00, $00, $00, $00, $00, $00, $63, $63, $6b, $6b, $6b, $7f
03bd0     36 00 00 00 
03bd4     00 00 00 00 
03bd8     00 00 63 36 
03bdc     1C 1C 1C 36 | 	byte	$36, $00, $00, $00, $00, $00, $00, $00, $00, $00, $63, $36, $1c, $1c, $1c, $36
03be0     63 00 00 00 
03be4     00 00 00 00 
03be8     00 00 63 63 
03bec     63 63 63 63 | 	byte	$63, $00, $00, $00, $00, $00, $00, $00, $00, $00, $63, $63, $63, $63, $63, $63
03bf0     7E 60 30 1F 
03bf4     00 00 00 00 
03bf8     00 00 7F 33 
03bfc     18 0C 06 63 | 	byte	$7e, $60, $30, $1f, $00, $00, $00, $00, $00, $00, $7f, $33, $18, $0c, $06, $63
03c00     7F 00 00 00 
03c04     00 00 00 70 
03c08     18 18 18 0E 
03c0c     18 18 18 18 | 	byte	$7f, $00, $00, $00, $00, $00, $00, $70, $18, $18, $18, $0e, $18, $18, $18, $18
03c10     70 00 00 00 
03c14     00 00 00 18 
03c18     18 18 18 18 
03c1c     18 18 18 18 | 	byte	$70, $00, $00, $00, $00, $00, $00, $18, $18, $18, $18, $18, $18, $18, $18, $18
03c20     18 00 00 00 
03c24     00 00 00 0E 
03c28     18 18 18 70 
03c2c     18 18 18 18 | 	byte	$18, $00, $00, $00, $00, $00, $00, $0e, $18, $18, $18, $70, $18, $18, $18, $18
03c30     0E 00 00 00 
03c34     6E 3B 00 00 
03c38     00 00 00 00 
03c3c     00 00 00 00 | 	byte	$0e, $00, $00, $00, $6e, $3b, $00, $00, $00, $00, $00, $00, $00, $00, $00, $00
03c40     00 00 00 00 
03c44     00 00 00 00 
03c48     00 00       | 	byte	$00[10]
03c4a     08 1C 36 63 
03c4e     63 63 7F 00 
03c52     00 00 00 00 
03c56     00 3C 66 43 | 	byte	$08, $1c, $36, $63, $63, $63, $7f, $00, $00, $00, $00, $00, $00, $3c, $66, $43
03c5a     03 03 03 03 
03c5e     43 66 3C 18 
03c62     30 1E 00 00 
03c66     00 00 33 00 | 	byte	$03, $03, $03, $03, $43, $66, $3c, $18, $30, $1e, $00, $00, $00, $00, $33, $00
03c6a     33 33 33 33 
03c6e     33 33       | 	byte	$33[6]
03c70     6E 00 00 00 
03c74     00 00 60 30 
03c78     18 00 3E 63 
03c7c     7F 03 03 63 | 	byte	$6e, $00, $00, $00, $00, $00, $60, $30, $18, $00, $3e, $63, $7f, $03, $03, $63
03c80     3E 00 00 00 
03c84     00 00 08 1C 
03c88     36 00 1E 30 
03c8c     3E 33 33 33 | 	byte	$3e, $00, $00, $00, $00, $00, $08, $1c, $36, $00, $1e, $30, $3e, $33, $33, $33
03c90     6E 00 00 00 
03c94     00 00 00 00 
03c98     33 00 1E 30 
03c9c     3E 33 33 33 | 	byte	$6e, $00, $00, $00, $00, $00, $00, $00, $33, $00, $1e, $30, $3e, $33, $33, $33
03ca0     6E 00 00 00 
03ca4     00 00 1C 36 
03ca8     1C 00 33 33 
03cac     33 33 33 33 | 	byte	$6e, $00, $00, $00, $00, $00, $1c, $36, $1c, $00, $33, $33, $33, $33, $33, $33
03cb0     6E 00 00 00 
03cb4     00 00 60 30 
03cb8     18 00 3E 63 
03cbc     03 03 03 63 | 	byte	$6e, $00, $00, $00, $00, $00, $60, $30, $18, $00, $3e, $63, $03, $03, $03, $63
03cc0     3E 00 00 00 
03cc4     00 00 00 00 
03cc8     00 00 3E 63 
03ccc     03 03 03 63 | 	byte	$3e, $00, $00, $00, $00, $00, $00, $00, $00, $00, $3e, $63, $03, $03, $03, $63
03cd0     3E 18 30 1E 
03cd4     00 00 00 1C 
03cd8     58 78 38 18 
03cdc     1C 1E 1A 18 | 	byte	$3e, $18, $30, $1e, $00, $00, $00, $1c, $58, $78, $38, $18, $1c, $1e, $1a, $18
03ce0     3C 00 00 00 
03ce4     00 00 00 00 
03ce8     63 00 3E 63 
03cec     7F 03 03 63 | 	byte	$3c, $00, $00, $00, $00, $00, $00, $00, $63, $00, $3e, $63, $7f, $03, $03, $63
03cf0     3E 00 00 00 
03cf4     66 33 00 3E 
03cf8     63 63 63 63 
03cfc     63 63 63 63 | 	byte	$3e, $00, $00, $00, $66, $33, $00, $3e, $63, $63, $63, $63, $63, $63, $63, $63
03d00     3E 00 00 00 
03d04     00 00 CC 66 
03d08     33 00 3E 63 
03d0c     63 63 63 63 | 	byte	$3e, $00, $00, $00, $00, $00, $cc, $66, $33, $00, $3e, $63, $63, $63, $63, $63
03d10     3E 00 00 00 
03d14     00 00 18 3C 
03d18     66 00 1C 18 
03d1c     18 18 18 18 | 	byte	$3e, $00, $00, $00, $00, $00, $18, $3c, $66, $00, $1c, $18, $18, $18, $18, $18
03d20     3C 00 00 00 
03d24     30 18 00 7F 
03d28     63 61 30 18 
03d2c     0C 06 43 63 | 	byte	$3c, $00, $00, $00, $30, $18, $00, $7f, $63, $61, $30, $18, $0c, $06, $43, $63
03d30     7F 00 00 00 
03d34     00 63 00 08 
03d38     1C 36 63 63 
03d3c     7F 63 63 63 | 	byte	$7f, $00, $00, $00, $00, $63, $00, $08, $1c, $36, $63, $63, $7f, $63, $63, $63
03d40     63 00 00 00 
03d44     30 18 00 3C 
03d48     66 43 03 03 
03d4c     03 03 43 66 | 	byte	$63, $00, $00, $00, $30, $18, $00, $3c, $66, $43, $03, $03, $03, $03, $43, $66
03d50     3C 00 00 00 
03d54     30 18 00 7F 
03d58     66 46 16 1E 
03d5c     16 06 46 66 | 	byte	$3c, $00, $00, $00, $30, $18, $00, $7f, $66, $46, $16, $1e, $16, $06, $46, $66
03d60     7F 00 00 00 
03d64     0C 06 00 0F 
03d68     06 06 06 06 
03d6c     06 06 46 66 | 	byte	$7f, $00, $00, $00, $0c, $06, $00, $0f, $06, $06, $06, $06, $06, $06, $46, $66
03d70     7F 00 00 00 
03d74     30 18 00 1C 
03d78     18 18 18 18 
03d7c     18 18 18 18 | 	byte	$7f, $00, $00, $00, $30, $18, $00, $1c, $18, $18, $18, $18, $18, $18, $18, $18
03d80     3C 00 00 00 
03d84     00 00 08 1C 
03d88     36 00 3E 63 
03d8c     63 63 63 63 | 	byte	$3c, $00, $00, $00, $00, $00, $08, $1c, $36, $00, $3e, $63, $63, $63, $63, $63
03d90     3E 00 00 00 
03d94     00 00 00 00 
03d98     63 00 3E 63 
03d9c     63 63 63 63 | 	byte	$3e, $00, $00, $00, $00, $00, $00, $00, $63, $00, $3e, $63, $63, $63, $63, $63
03da0     3E 00 00 00 
03da4     00 00 00 6F 
03da8     46 26 06 06 
03dac     06 06 46 66 | 	byte	$3e, $00, $00, $00, $00, $00, $00, $6f, $46, $26, $06, $06, $06, $06, $46, $66
03db0     7F 00 00 00 
03db4     00 00 00 6E 
03db8     4C 2C 0C 0C 
03dbc     0C 0C 0C 0C | 	byte	$7f, $00, $00, $00, $00, $00, $00, $6e, $4c, $2c, $0c, $0c, $0c, $0c, $0c, $0c
03dc0     1E 00 00 00 
03dc4     30 18 00 3E 
03dc8     63 63 06 1C 
03dcc     30 60 63 63 | 	byte	$1e, $00, $00, $00, $30, $18, $00, $3e, $63, $63, $06, $1c, $30, $60, $63, $63
03dd0     3E 00 00 00 
03dd4     00 00 60 30 
03dd8     18 00 3E 63 
03ddc     06 1C 30 63 | 	byte	$3e, $00, $00, $00, $00, $00, $60, $30, $18, $00, $3e, $63, $06, $1c, $30, $63
03de0     3E 00 00 00 
03de4     00 63 00 3E 
03de8     63 63 63 63 
03dec     63 63 63 63 | 	byte	$3e, $00, $00, $00, $00, $63, $00, $3e, $63, $63, $63, $63, $63, $63, $63, $63
03df0     3E 00 00 00 
03df4     00 63 00 63 
03df8     63 63 63 63 
03dfc     63 63 63 63 | 	byte	$3e, $00, $00, $00, $00, $63, $00, $63, $63, $63, $63, $63, $63, $63, $63, $63
03e00     3E 00 00 00 
03e04     6C 38 00 7E 
03e08     7E 5A 18 18 
03e0c     18 18 18 18 | 	byte	$3e, $00, $00, $00, $6c, $38, $00, $7e, $7e, $5a, $18, $18, $18, $18, $18, $18
03e10     3C 00 00 00 
03e14     00 00 60 48 
03e18     2C 0C 3F 0C 
03e1c     0C 0C 0C 6C | 	byte	$3c, $00, $00, $00, $00, $00, $60, $48, $2c, $0c, $3f, $0c, $0c, $0c, $0c, $6c
03e20     38 00 00 00 
03e24     00 00 00 0F 
03e28     26 36 1E 0E 
03e2c     07 07 46 66 | 	byte	$38, $00, $00, $00, $00, $00, $00, $0f, $26, $36, $1e, $0e, $07, $07, $46, $66
03e30     7F 00 00 00 
03e34     00 00 00 00 
03e38     00 63 36 1C 
03e3c     1C 36 63 00 | 	byte	$7f, $00, $00, $00, $00, $00, $00, $00, $00, $63, $36, $1c, $1c, $36, $63, $00
03e40     00 00 00 00 
03e44     00 00       | 	byte	$00[6]
03e46     36 1C 08 00 
03e4a     3E 63 03 03 
03e4e     03 63 3E 00 
03e52     00 00 00 00 | 	byte	$36, $1c, $08, $00, $3e, $63, $03, $03, $03, $63, $3e, $00, $00, $00, $00, $00
03e56     30 18 0C 00 
03e5a     1E 30 3E 33 
03e5e     33 33 6E 00 
03e62     00 00 00 00 | 	byte	$30, $18, $0c, $00, $1e, $30, $3e, $33, $33, $33, $6e, $00, $00, $00, $00, $00
03e66     60 30 18 00 
03e6a     1C 18 18 18 
03e6e     18 18 3C 00 
03e72     00 00 00 00 | 	byte	$60, $30, $18, $00, $1c, $18, $18, $18, $18, $18, $3c, $00, $00, $00, $00, $00
03e76     60 30 18 00 
03e7a     3E 63 63 63 
03e7e     63 63 3E 00 
03e82     00 00 00 00 | 	byte	$60, $30, $18, $00, $3e, $63, $63, $63, $63, $63, $3e, $00, $00, $00, $00, $00
03e86     30 18 0C 00 
03e8a     33 33 33 33 
03e8e     33 33 6E 00 
03e92     00 00 00 00 | 	byte	$30, $18, $0c, $00, $33, $33, $33, $33, $33, $33, $6e, $00, $00, $00, $00, $00
03e96     00 08 1C 36 
03e9a     63 63 7F 63 
03e9e     63 63 63 18 
03ea2     0C 78 00 00 | 	byte	$00, $08, $1c, $36, $63, $63, $7f, $63, $63, $63, $63, $18, $0c, $78, $00, $00
03ea6     00 00 00 00 
03eaa     1E 30 3E 33 
03eae     33 33 6E 18 
03eb2     0C 78 36 1C | 	byte	$00, $00, $00, $00, $1e, $30, $3e, $33, $33, $33, $6e, $18, $0c, $78, $36, $1c
03eb6     00 7F 63 61 
03eba     30 18 0C 06 
03ebe     43 63 7F 00 
03ec2     00 00 00 00 | 	byte	$00, $7f, $63, $61, $30, $18, $0c, $06, $43, $63, $7f, $00, $00, $00, $00, $00
03ec6     36 1C 08 00 
03eca     7F 33 18 0C 
03ece     06 63 7F 00 
03ed2     00 00 00 00 | 	byte	$36, $1c, $08, $00, $7f, $33, $18, $0c, $06, $63, $7f, $00, $00, $00, $00, $00
03ed6     00 7F 66 46 
03eda     16 1E 16 06 
03ede     46 66 7F 18 
03ee2     0C 78 00 00 | 	byte	$00, $7f, $66, $46, $16, $1e, $16, $06, $46, $66, $7f, $18, $0c, $78, $00, $00
03ee6     00 00 00 00 
03eea     3E 63 7F 03 
03eee     03 63 3E 18 
03ef2     0C 78 00 00 | 	byte	$00, $00, $00, $00, $3e, $63, $7f, $03, $03, $63, $3e, $18, $0c, $78, $00, $00
03ef6     00 3C 66 03 
03efa     1F 03 0F 03 
03efe     03 66 3C 00 
03f02     00 00 00 00 | 	byte	$00, $3c, $66, $03, $1f, $03, $0f, $03, $03, $66, $3c, $00, $00, $00, $00, $00
03f06     60 30 18 00 
03f0a     7F 33 18 0C 
03f0e     06 63 7F 00 
03f12     00 00 6C 38 | 	byte	$60, $30, $18, $00, $7f, $33, $18, $0c, $06, $63, $7f, $00, $00, $00, $6c, $38
03f16     00 3C 66 43 
03f1a     03 03 03 03 
03f1e     43 66 3C 00 
03f22     00 00 00 00 | 	byte	$00, $3c, $66, $43, $03, $03, $03, $03, $43, $66, $3c, $00, $00, $00, $00, $00
03f26     00 00 00 00 
03f2a     3E 63 06 1C 
03f2e     30 63 3E 18 
03f32     30 1E 00 00 | 	byte	$00, $00, $00, $00, $3e, $63, $06, $1c, $30, $63, $3e, $18, $30, $1e, $00, $00
03f36     00 00 00 00 
03f3a     00 00       | 	byte	$00[6]
03f3c     6C 36 1B 36 
03f40     6C 00 00 00 
03f44     00 00 00 00 
03f48     00 00 00 00 | 	byte	$6c, $36, $1b, $36, $6c, $00, $00, $00, $00, $00, $00, $00, $00, $00, $00, $00
03f4c     1B 36 6C 36 
03f50     1B 00 00 00 
03f54     88 22 88 22 
03f58     88 22 88 22 | 	byte	$1b, $36, $6c, $36, $1b, $00, $00, $00, $88, $22, $88, $22, $88, $22, $88, $22
03f5c     88 22 88 22 
03f60     88 22 88 22 
03f64     AA 55 AA 55 
03f68     AA 55 AA 55 | 	byte	$88, $22, $88, $22, $88, $22, $88, $22, $aa, $55, $aa, $55, $aa, $55, $aa, $55
03f6c     AA 55 AA 55 
03f70     AA 55 AA 55 
03f74     BB EE BB EE 
03f78     BB EE BB EE | 	byte	$aa, $55, $aa, $55, $aa, $55, $aa, $55, $bb, $ee, $bb, $ee, $bb, $ee, $bb, $ee
03f7c     BB EE BB EE 
03f80     BB EE BB EE 
03f84     18 18 18 18 
03f88     18 18 18 18 | 	byte	$bb, $ee, $bb, $ee, $bb, $ee, $bb, $ee, $18, $18, $18, $18, $18, $18, $18, $18
03f8c     18 18 18 18 
03f90     18 18 18 18 
03f94     18 18 18 18 
03f98     18 18 18    | 	byte	$18[15]
03f9b     1F 18 18 18 
03f9f     18 18 18 18 
03fa3     18 30 18 00 
03fa7     08 1C 36 63 | 	byte	$1f, $18, $18, $18, $18, $18, $18, $18, $18, $30, $18, $00, $08, $1c, $36, $63
03fab     63 7F 63 63 
03faf     63 63 00 00 
03fb3     00 1C 36 00 
03fb7     08 1C 36 63 | 	byte	$63, $7f, $63, $63, $63, $63, $00, $00, $00, $1c, $36, $00, $08, $1c, $36, $63
03fbb     63 7F 63 63 
03fbf     63 63 00 00 
03fc3     00 36 1C 00 
03fc7     7F 66 46 16 | 	byte	$63, $7f, $63, $63, $63, $63, $00, $00, $00, $36, $1c, $00, $7f, $66, $46, $16
03fcb     1E 16 06 46 
03fcf     66 7F 00 00 
03fd3     00 00 00 00 
03fd7     3E 63 63 06 | 	byte	$1e, $16, $06, $46, $66, $7f, $00, $00, $00, $00, $00, $00, $3e, $63, $63, $06
03fdb     1C 30 60 63 
03fdf     63 3E 18 30 
03fe3     1E 6C 6C 6C 
03fe7     6C 6C 6F 60 | 	byte	$1c, $30, $60, $63, $63, $3e, $18, $30, $1e, $6c, $6c, $6c, $6c, $6c, $6f, $60
03feb     6F 6C 6C 6C 
03fef     6C 6C 6C 6C 
03ff3     6C 6C 6C 6C 
03ff7     6C 6C 6C 6C | 	byte	$6f, $6c, $6c, $6c, $6c, $6c, $6c, $6c, $6c, $6c, $6c, $6c, $6c, $6c, $6c, $6c
03ffb     6C 6C 6C 6C 
03fff     6C 6C 6C 6C 
04003     6C          | 	byte	$6c[9]
04004     00 00 00 00 
04008     00          | 	byte	$00[5]
04009     7F 60 6F 6C 
0400d     6C 6C 6C 6C 
04011     6C 6C 6C 6C 
04015     6C 6C 6C 6C | 	byte	$7f, $60, $6f, $6c, $6c, $6c, $6c, $6c, $6c, $6c, $6c, $6c, $6c, $6c, $6c, $6c
04019     6F 60 7F 00 
0401d     00 00 00 00 
04021     00 00 00 18 
04025     18 00 7F 63 | 	byte	$6f, $60, $7f, $00, $00, $00, $00, $00, $00, $00, $00, $18, $18, $00, $7f, $63
04029     61 30 18 0C 
0402d     06 43 63 7F 
04031     00 00 00 00 
04035     00 00 18 18 | 	byte	$61, $30, $18, $0c, $06, $43, $63, $7f, $00, $00, $00, $00, $00, $00, $18, $18
04039     00 7F 33 18 
0403d     0C 06 63 7F 
04041     00 00 00 00 
04045     00 00 00 00 | 	byte	$00, $7f, $33, $18, $0c, $06, $63, $7f, $00, $00, $00, $00, $00, $00, $00, $00
04049     00 00 1F 18 
0404d     18 18 18 18 
04051     18 18 18 18 
04055     18 18 18 18 | 	byte	$00, $00, $1f, $18, $18, $18, $18, $18, $18, $18, $18, $18, $18, $18, $18, $18
04059     18 18 F8 00 
0405d     00 00 00 00 
04061     00 00 00 18 
04065     18 18 18 18 | 	byte	$18, $18, $f8, $00, $00, $00, $00, $00, $00, $00, $00, $18, $18, $18, $18, $18
04069     18 18 FF 00 
0406d     00 00 00 00 
04071     00 00 00 00 
04075     00 00 00 00 | 	byte	$18, $18, $ff, $00, $00, $00, $00, $00, $00, $00, $00, $00, $00, $00, $00, $00
04079     00 00 FF 18 
0407d     18 18 18 18 
04081     18 18 18 18 
04085     18 18 18 18 | 	byte	$00, $00, $ff, $18, $18, $18, $18, $18, $18, $18, $18, $18, $18, $18, $18, $18
04089     18 18 F8 18 
0408d     18 18 18 18 
04091     18 18 18 00 
04095     00 00 00 00 | 	byte	$18, $18, $f8, $18, $18, $18, $18, $18, $18, $18, $18, $00, $00, $00, $00, $00
04099     00 00 FF 00 
0409d     00 00 00 00 
040a1     00 00 00 18 
040a5     18 18 18 18 | 	byte	$00, $00, $ff, $00, $00, $00, $00, $00, $00, $00, $00, $18, $18, $18, $18, $18
040a9     18 18 FF 18 
040ad     18 18 18 18 
040b1     18 18 18 63 
040b5     3E 00 08 1C | 	byte	$18, $18, $ff, $18, $18, $18, $18, $18, $18, $18, $18, $63, $3e, $00, $08, $1c
040b9     36 63 63 7F 
040bd     63 63 63 63 
040c1     00 00 00 00 
040c5     00 00 63 3E | 	byte	$36, $63, $63, $7f, $63, $63, $63, $63, $00, $00, $00, $00, $00, $00, $63, $3e
040c9     00 1E 30 3E 
040cd     33 33 33 6E 
040d1     00 00 00 6C 
040d5     6C 6C 6C 6C | 	byte	$00, $1e, $30, $3e, $33, $33, $33, $6e, $00, $00, $00, $6c, $6c, $6c, $6c, $6c
040d9     EC 0C FC 00 
040dd     00 00 00 00 
040e1     00 00 00 00 
040e5     00 00 00 00 | 	byte	$ec, $0c, $fc, $00, $00, $00, $00, $00, $00, $00, $00, $00, $00, $00, $00, $00
040e9     FC 0C EC 6C 
040ed     6C 6C 6C 6C 
040f1     6C 6C 6C 6C 
040f5     6C 6C 6C 6C | 	byte	$fc, $0c, $ec, $6c, $6c, $6c, $6c, $6c, $6c, $6c, $6c, $6c, $6c, $6c, $6c, $6c
040f9     EF 00 FF 00 
040fd     00 00 00 00 
04101     00 00 00 00 
04105     00 00 00 00 | 	byte	$ef, $00, $ff, $00, $00, $00, $00, $00, $00, $00, $00, $00, $00, $00, $00, $00
04109     FF 00 EF 6C 
0410d     6C 6C 6C 6C 
04111     6C 6C 6C 6C 
04115     6C 6C 6C 6C | 	byte	$ff, $00, $ef, $6c, $6c, $6c, $6c, $6c, $6c, $6c, $6c, $6c, $6c, $6c, $6c, $6c
04119     EC 0C EC 6C 
0411d     6C 6C 6C 6C 
04121     6C 6C 6C 00 
04125     00 00 00 00 | 	byte	$ec, $0c, $ec, $6c, $6c, $6c, $6c, $6c, $6c, $6c, $6c, $00, $00, $00, $00, $00
04129     FF 00 FF 00 
0412d     00 00 00 00 
04131     00 00 00 6C 
04135     6C 6C 6C 6C | 	byte	$ff, $00, $ff, $00, $00, $00, $00, $00, $00, $00, $00, $6c, $6c, $6c, $6c, $6c
04139     EF 00 EF 6C 
0413d     6C 6C 6C 6C 
04141     6C 6C 6C 00 
04145     00 00 00 00 | 	byte	$ef, $00, $ef, $6c, $6c, $6c, $6c, $6c, $6c, $6c, $6c, $00, $00, $00, $00, $00
04149     63 3E 63 63 
0414d     63 63 3E 63 
04151     00 00 00 00 
04155     00 00 30 7E | 	byte	$63, $3e, $63, $63, $63, $63, $3e, $63, $00, $00, $00, $00, $00, $00, $30, $7e
04159     30 3C 36 33 
0415d     33 33 33 6E 
04161     00 00 00 00 
04165     00 00 1F 36 | 	byte	$30, $3c, $36, $33, $33, $33, $33, $6e, $00, $00, $00, $00, $00, $00, $1f, $36
04169     66 66 6F 66 
0416d     66 66 36 1F 
04171     00 00 00 36 
04175     1C 00 1F 36 | 	byte	$66, $66, $6f, $66, $66, $66, $36, $1f, $00, $00, $00, $36, $1c, $00, $1f, $36
04179     66 66 66 66 
0417d     66 66       | 	byte	$66[6]
0417f     36 1F 00 00 
04183     00 00 63 00 
04187     7F 66 46 16 
0418b     1E 16 06 46 | 	byte	$36, $1f, $00, $00, $00, $00, $63, $00, $7f, $66, $46, $16, $1e, $16, $06, $46
0418f     66 7F 00 00 
04193     00 6C 38 00 
04197     38 30 30 3C 
0419b     36 33 33 33 | 	byte	$66, $7f, $00, $00, $00, $6c, $38, $00, $38, $30, $30, $3c, $36, $33, $33, $33
0419f     33 6E 00 00 
041a3     00 36 1C 00 
041a7     63 67 6F 7F 
041ab     7B 73 63 63 | 	byte	$33, $6e, $00, $00, $00, $36, $1c, $00, $63, $67, $6f, $7f, $7b, $73, $63, $63
041af     63 63 00 00 
041b3     00 30 18 00 
041b7     3C 18 18 18 
041bb     18 18 18 18 | 	byte	$63, $63, $00, $00, $00, $30, $18, $00, $3c, $18, $18, $18, $18, $18, $18, $18
041bf     18 3C 00 00 
041c3     00 3C 66 00 
041c7     3C 18 18 18 
041cb     18 18 18 18 | 	byte	$18, $3c, $00, $00, $00, $3c, $66, $00, $3c, $18, $18, $18, $18, $18, $18, $18
041cf     18 3C 00 00 
041d3     00 00 00 36 
041d7     1C 08 00 3E 
041db     63 7F 03 03 | 	byte	$18, $3c, $00, $00, $00, $00, $00, $36, $1c, $08, $00, $3e, $63, $7f, $03, $03
041df     63 3E 00 00 
041e3     00 18 18 18 
041e7     18 18 18 18 
041eb     1F 00 00 00 | 	byte	$63, $3e, $00, $00, $00, $18, $18, $18, $18, $18, $18, $18, $1f, $00, $00, $00
041ef     00 00 00 00 
041f3     00 00 00 00 
041f7     00 00 00 00 | 	byte	$00[12]
041fb     F8 18 18 18 
041ff     18 18 18 18 
04203     18 FF FF FF 
04207     FF FF FF FF | 	byte	$f8, $18, $18, $18, $18, $18, $18, $18, $18, $ff, $ff, $ff, $ff, $ff, $ff, $ff
0420b     FF FF FF FF 
0420f     FF FF FF FF 
04213     FF          | 	byte	$ff[9]
04214     00 00 00 00 
04218     00 00 00    | 	byte	$00[7]
0421b     FF FF FF FF 
0421f     FF FF FF FF 
04223     FF          | 	byte	$ff[9]
04224     00 00 00 7E 
04228     7E 5A 18 18 
0422c     18 18 18 18 
04230     3C 18 30 1E | 	byte	$00, $00, $00, $7e, $7e, $5a, $18, $18, $18, $18, $18, $18, $3c, $18, $30, $1e
04234     1C 36 1C 63 
04238     63 63 63 63 
0423c     63 63 63 63 
04240     3E 00 00 00 | 	byte	$1c, $36, $1c, $63, $63, $63, $63, $63, $63, $63, $63, $63, $3e, $00, $00, $00
04244     FF FF FF FF 
04248     FF FF FF    | 	byte	$ff[7]
0424b     00 00 00 00 
0424f     00 00 00 00 
04253     00          | 	byte	$00[9]
04254     30 18 00 3E 
04258     63 63 63 63 
0425c     63 63 63 63 
04260     3E 00 00 00 | 	byte	$30, $18, $00, $3e, $63, $63, $63, $63, $63, $63, $63, $63, $3e, $00, $00, $00
04264     00 00 00 1E 
04268     33 33 33 1B 
0426c     33 63 63 63 
04270     33 00 00 00 | 	byte	$00, $00, $00, $1e, $33, $33, $33, $1b, $33, $63, $63, $63, $33, $00, $00, $00
04274     1C 36 00 3E 
04278     63 63 63 63 
0427c     63 63 63 63 
04280     3E 00 00 00 | 	byte	$1c, $36, $00, $3e, $63, $63, $63, $63, $63, $63, $63, $63, $3e, $00, $00, $00
04284     30 18 00 63 
04288     67 6F 7F 7B 
0428c     73 63 63 63 
04290     63 00 00 00 | 	byte	$30, $18, $00, $63, $67, $6f, $7f, $7b, $73, $63, $63, $63, $63, $00, $00, $00
04294     00 00 60 30 
04298     18 00 3B 66 
0429c     66 66 66 66 
042a0     66 00 00 00 | 	byte	$00, $00, $60, $30, $18, $00, $3b, $66, $66, $66, $66, $66, $66, $00, $00, $00
042a4     00 00 36 1C 
042a8     08 00 3B 66 
042ac     66 66 66 66 
042b0     66 00 00 00 | 	byte	$00, $00, $36, $1c, $08, $00, $3b, $66, $66, $66, $66, $66, $66, $00, $00, $00
042b4     36 1C 00 3E 
042b8     63 63 06 1C 
042bc     30 60 63 63 
042c0     3E 00 00 00 | 	byte	$36, $1c, $00, $3e, $63, $63, $06, $1c, $30, $60, $63, $63, $3e, $00, $00, $00
042c4     00 00 36 1C 
042c8     08 00 3E 63 
042cc     06 1C 30 63 
042d0     3E 00 00 00 | 	byte	$00, $00, $36, $1c, $08, $00, $3e, $63, $06, $1c, $30, $63, $3e, $00, $00, $00
042d4     30 18 00 3F 
042d8     66 66 66 3E 
042dc     36 66 66 66 
042e0     6F 00 00 00 | 	byte	$30, $18, $00, $3f, $66, $66, $66, $3e, $36, $66, $66, $66, $6f, $00, $00, $00
042e4     30 18 00 63 
042e8     63 63 63 63 
042ec     63 63 63 63 
042f0     3E 00 00 00 | 	byte	$30, $18, $00, $63, $63, $63, $63, $63, $63, $63, $63, $63, $3e, $00, $00, $00
042f4     00 00 60 30 
042f8     18 00 3B 6E 
042fc     66 06 06 06 
04300     0F 00 00 00 | 	byte	$00, $00, $60, $30, $18, $00, $3b, $6e, $66, $06, $06, $06, $0f, $00, $00, $00
04304     66 33 00 63 
04308     63 63 63 63 
0430c     63 63 63 63 
04310     3E 00 00 00 | 	byte	$66, $33, $00, $63, $63, $63, $63, $63, $63, $63, $63, $63, $3e, $00, $00, $00
04314     00 00 60 30 
04318     18 00 63 63 
0431c     63 63 63 63 
04320     7E 60 30 1F | 	byte	$00, $00, $60, $30, $18, $00, $63, $63, $63, $63, $63, $63, $7e, $60, $30, $1f
04324     30 18 00 66 
04328     66 66 66 3C 
0432c     18 18 18 18 
04330     3C 00 00 00 | 	byte	$30, $18, $00, $66, $66, $66, $66, $3c, $18, $18, $18, $18, $3c, $00, $00, $00
04334     00 00 00 08 
04338     0C 0C 3F 0C 
0433c     0C 0C 0C 6C 
04340     38 18 30 1E | 	byte	$00, $00, $00, $08, $0c, $0c, $3f, $0c, $0c, $0c, $0c, $6c, $38, $18, $30, $1e
04344     30 18 00 00 
04348     00 00 00 00 
0434c     00 00 00 00 
04350     00 00 00 00 | 	byte	$30, $18, $00, $00, $00, $00, $00, $00, $00, $00, $00, $00, $00, $00, $00, $00
04354     00 00 00 00 
04358     00 00 00 00 | 	byte	$00[8]
0435c     7F 00 00 00 
04360     00 00 00 00 
04364     66 33 00 00 
04368     00 00 00 00 | 	byte	$7f, $00, $00, $00, $00, $00, $00, $00, $66, $33, $00, $00, $00, $00, $00, $00
0436c     00 00 00 00 
04370     00 00 00 00 
04374     00 00 00 00 
04378     00 00 00 00 
0437c     00 00 00 00 
04380     00          | 	byte	$00[21]
04381     0C 06 3C 36 
04385     1C 00 00 00 
04389     00 00 00 00 
0438d     00 00 00 00 | 	byte	$0c, $06, $3c, $36, $1c, $00, $00, $00, $00, $00, $00, $00, $00, $00, $00, $00
04391     00 00 00 63 
04395     3E 00 00 00 
04399     00 00 00 00 
0439d     00 00 00 00 | 	byte	$00, $00, $00, $63, $3e, $00, $00, $00, $00, $00, $00, $00, $00, $00, $00, $00
043a1     00 00 00 00 
043a5     3E 63 06 1C 
043a9     36 63 63 36 
043ad     1C 30 63 3E | 	byte	$00, $00, $00, $00, $3e, $63, $06, $1c, $36, $63, $63, $36, $1c, $30, $63, $3e
043b1     00 00 00 00 
043b5     00 00 00 00 | 	byte	$00[8]
043b9     18 00 7E 00 
043bd     18 00 00 00 
043c1     00 00 00 00 
043c5     00 00 00 00 | 	byte	$18, $00, $7e, $00, $18, $00, $00, $00, $00, $00, $00, $00, $00, $00, $00, $00
043c9     00 00 00 00 
043cd     00 00 00 00 | 	byte	$00[8]
043d1     18 30 1E 00 
043d5     00 00 1C 36 
043d9     36 1C 00 00 
043dd     00 00 00 00 | 	byte	$18, $30, $1e, $00, $00, $00, $1c, $36, $36, $1c, $00, $00, $00, $00, $00, $00
043e1     00 00 00 00 
043e5     63 00 00 00 
043e9     00 00 00 00 
043ed     00 00 00 00 | 	byte	$00, $00, $00, $00, $63, $00, $00, $00, $00, $00, $00, $00, $00, $00, $00, $00
043f1     00 00 00 18 
043f5     18 00 00 00 
043f9     00 00 00 00 
043fd     00 00 00 00 | 	byte	$00, $00, $00, $18, $18, $00, $00, $00, $00, $00, $00, $00, $00, $00, $00, $00
04401     00 00 00 00 
04405     00          | 	byte	$00[5]
04406     CC 66 33 00 
0440a     33 33 33 33 
0440e     33 33 6E 00 
04412     00 00 36 1C | 	byte	$cc, $66, $33, $00, $33, $33, $33, $33, $33, $33, $6e, $00, $00, $00, $36, $1c
04416     00 3F 66 66 
0441a     66 3E 36 66 
0441e     66 66 6F 00 
04422     00 00 00 00 | 	byte	$00, $3f, $66, $66, $66, $3e, $36, $66, $66, $66, $6f, $00, $00, $00, $00, $00
04426     36 1C 08 00 
0442a     3B 6E 66 06 
0442e     06 06 0F 00 
04432     00 00 00 00 | 	byte	$36, $1c, $08, $00, $3b, $6e, $66, $06, $06, $06, $0f, $00, $00, $00, $00, $00
04436     00 00 00 7E 
0443a     7E 7E 7E 7E 
0443e     7E 7E 00 00 
04442     00 00 00 00 | 	byte	$00, $00, $00, $7e, $7e, $7e, $7e, $7e, $7e, $7e, $00, $00, $00, $00, $00, $00
04446     00 00 00 00 
0444a     00 00 00 00 
0444e     00 00 00 00 
04452     00 00       | 	byte	$00, $00, $00, $00, $00, $00, $00, $00, $00, $00, $00, $00, $00, $00
04454     00 00 00 00 
      ...             
04484     00 00 00 00 
04488     00 00 00    | st_font        file "st4font.def"
0448b     FF FF 00 00 
0448f     00 00 00 00 
04493     00 18 18 18 
04497     18 18 18 18 | 	byte	$ff, $ff, $00, $00, $00, $00, $00, $00, $00, $18, $18, $18, $18, $18, $18, $18
0449b     18 18 18 18 
0449f     18 18 18 18 
044a3     18          | 	byte	$18[9]
044a4     00 00 00 00 
044a8     00 00 00    | 	byte	$00[7]
044ab     FF FF 18 18 
044af     18 18 18 18 
044b3     18 18 18 18 
044b7     18 18 18 18 | 	byte	$ff, $ff, $18, $18, $18, $18, $18, $18, $18, $18, $18, $18, $18, $18, $18, $18
044bb     FF FF 00 00 
044bf     00 00 00 00 
044c3     00 18 18 18 
044c7     18 18 18 18 | 	byte	$ff, $ff, $00, $00, $00, $00, $00, $00, $00, $18, $18, $18, $18, $18, $18, $18
044cb     1F 1F 18 18 
044cf     18 18 18 18 
044d3     18 18 18 18 
044d7     18 18 18 18 | 	byte	$1f, $1f, $18, $18, $18, $18, $18, $18, $18, $18, $18, $18, $18, $18, $18, $18
044db     F8 F8 18 18 
044df     18 18 18 18 
044e3     18 00 00 00 
044e7     00 00 00 00 | 	byte	$f8, $f8, $18, $18, $18, $18, $18, $18, $18, $00, $00, $00, $00, $00, $00, $00
044eb     1F 1F 18 18 
044ef     18 18 18 18 
044f3     18 00 00 00 
044f7     00 00 00 00 | 	byte	$1f, $1f, $18, $18, $18, $18, $18, $18, $18, $00, $00, $00, $00, $00, $00, $00
044fb     F8 F8 18 18 
044ff     18 18 18 18 
04503     18 18 18 18 
04507     18 18 18 18 | 	byte	$f8, $f8, $18, $18, $18, $18, $18, $18, $18, $18, $18, $18, $18, $18, $18, $18
0450b     1F 1F 00 00 
0450f     00 00 00 00 
04513     00 18 18 18 
04517     18 18 18 18 | 	byte	$1f, $1f, $00, $00, $00, $00, $00, $00, $00, $18, $18, $18, $18, $18, $18, $18
0451b     F8 F8 00 00 
0451f     00 00 00 00 
04523     00 18 18 18 
04527     18 18 18 18 | 	byte	$f8, $f8, $00, $00, $00, $00, $00, $00, $00, $18, $18, $18, $18, $18, $18, $18
0452b     FF FF 18 18 
0452f     18 18 18 18 
04533     18 00 00 18 
04537     3C 7E 66 66 | 	byte	$ff, $ff, $18, $18, $18, $18, $18, $18, $18, $00, $00, $18, $3c, $7e, $66, $66
0453b     66 7E 7E 66 
0453f     66 66 66 30 
04543     18 00 00 7E 
04547     7E 06 06 3E | 	byte	$66, $7e, $7e, $66, $66, $66, $66, $30, $18, $00, $00, $7e, $7e, $06, $06, $3e
0454b     3E 06 06 06 
0454f     06 7E 7E 18 
04553     0C 30 18 3C 
04557     7E 66 66 06 | 	byte	$3e, $06, $06, $06, $06, $7e, $7e, $18, $0c, $30, $18, $3c, $7e, $66, $66, $06
0455b     06 06 06 66 
0455f     66 7E 3C 00 
04563     00 30 18 66 
04567     66 66 6E 6E | 	byte	$06, $06, $06, $66, $66, $7e, $3c, $00, $00, $30, $18, $66, $66, $66, $6e, $6e
0456b     7E 7E 76 76 
0456f     66 66 66 00 
04573     00 30 18 7C 
04577     7E 06 06 0E | 	byte	$7e, $7e, $76, $76, $66, $66, $66, $00, $00, $30, $18, $7c, $7e, $06, $06, $0e
0457b     1C 38 70 60 
0457f     60 7E 3E 00 
04583     00 30 18 7E 
04587     7E 30 30 18 | 	byte	$1c, $38, $70, $60, $60, $7e, $3e, $00, $00, $30, $18, $7e, $7e, $30, $30, $18
0458b     18 0C 0C 06 
0458f     06 7E 7E 00 
04593     00 18 18 00 
04597     7E 7E 30 30 | 	byte	$18, $0c, $0c, $06, $06, $7e, $7e, $00, $00, $18, $18, $00, $7e, $7e, $30, $30
0459b     18 18 0C 0C 
0459f     06 7E 7E 00 
045a3     00 30 18 3C 
045a7     7E 66 66 66 | 	byte	$18, $18, $0c, $0c, $06, $7e, $7e, $00, $00, $30, $18, $3c, $7e, $66, $66, $66
045ab     66 66 66 66 
045af     66          | 	byte	$66[5]
045b0     7E 3C 00 00 
045b4     00 00 06 06 
045b8     06 06 16 1E 
045bc     0E 06 06 06 | 	byte	$7e, $3c, $00, $00, $00, $00, $06, $06, $06, $06, $16, $1e, $0e, $06, $06, $06
045c0     7E 7E 00 00 
045c4     00 00 00 00 
045c8     00 3C 7C 60 
045cc     7C 7E 66 66 | 	byte	$7e, $7e, $00, $00, $00, $00, $00, $00, $00, $3c, $7c, $60, $7c, $7e, $66, $66
045d0     7E 7C 30 18 
045d4     00 00 00 00 
045d8     00 3C 7E 66 
045dc     66 7E 06 06 | 	byte	$7e, $7c, $30, $18, $00, $00, $00, $00, $00, $3c, $7e, $66, $66, $7e, $06, $06
045e0     7E 7C 18 0C 
045e4     00 00 30 18 
045e8     00 3C 3E 06 
045ec     06 06 06 06 | 	byte	$7e, $7c, $18, $0c, $00, $00, $30, $18, $00, $3c, $3e, $06, $06, $06, $06, $06
045f0     7E 7C 00 00 
045f4     00 00 30 18 
045f8     00 3E 7E 66 
045fc     66 66 66 66 | 	byte	$7e, $7c, $00, $00, $00, $00, $30, $18, $00, $3e, $7e, $66, $66, $66, $66, $66
04600     66 66 00 00 
04604     00 00 30 18 
04608     00 7C 7E 06 
0460c     0E 3C 70 60 | 	byte	$66, $66, $00, $00, $00, $00, $30, $18, $00, $7c, $7e, $06, $0e, $3c, $70, $60
04610     7E 3E 00 00 
04614     00 00 30 18 
04618     00 7E 7E 30 
0461c     18 18 0C 0C | 	byte	$7e, $3e, $00, $00, $00, $00, $30, $18, $00, $7e, $7e, $30, $18, $18, $0c, $0c
04620     7E 7E 00 00 
04624     00 00 18 18 
04628     00 7E 7E 30 
0462c     18 18 0C 0C | 	byte	$7e, $7e, $00, $00, $00, $00, $18, $18, $00, $7e, $7e, $30, $18, $18, $0c, $0c
04630     7E 7E 00 00 
04634     00 00 30 18 
04638     00 3C 7E 66 
0463c     66 66 66 66 | 	byte	$7e, $7e, $00, $00, $00, $00, $30, $18, $00, $3c, $7e, $66, $66, $66, $66, $66
04640     7E 3C 00 00 
04644     00 00 1C 1C 
04648     18 18 38 3C 
0464c     1C 18 18 18 | 	byte	$7e, $3c, $00, $00, $00, $00, $1c, $1c, $18, $18, $38, $3c, $1c, $18, $18, $18
04650     3C 3C 00 00 
04654     00 00 00 00 
04658     00 00 00 00 
0465c     00 00 00 00 | 	byte	$3c, $3c, $00, $00, $00, $00, $00, $00, $00, $00, $00, $00, $00, $00, $00, $00
04660     00 00 00 00 
04664     00 00       | 	byte	$00[6]
04666     18 18 18 18 
0466a     18 18 18 18 | 	byte	$18[8]
0466e     00 00 18 18 
04672     00 00 00 00 
04676     66 66 66 66 
0467a     00 00 00 00 | 	byte	$00, $00, $18, $18, $00, $00, $00, $00, $66, $66, $66, $66, $00, $00, $00, $00
0467e     00 00 00 00 
04682     00 00 00 00 
04686     00          | 	byte	$00[9]
04687     66 66 FF FF 
0468b     66 66 FF FF 
0468f     66 66 00 00 
04693     00 00 18 18 | 	byte	$66, $66, $ff, $ff, $66, $66, $ff, $ff, $66, $66, $00, $00, $00, $00, $18, $18
04697     7C 7E 06 06 
0469b     3E 7C 60 60 
0469f     7E 3E 18 18 
046a3     00 00 00 66 | 	byte	$7c, $7e, $06, $06, $3e, $7c, $60, $60, $7e, $3e, $18, $18, $00, $00, $00, $66
046a7     66 30 30 18 
046ab     18 0C 0C 66 
046af     66 00 00 00 
046b3     00 00 3C 7E | 	byte	$66, $30, $30, $18, $18, $0c, $0c, $66, $66, $00, $00, $00, $00, $00, $3c, $7e
046b7     66 66 3C 1C 
046bb     1C FC FE 66 
046bf     66 FE FC 00 
046c3     00 00 00 18 | 	byte	$66, $66, $3c, $1c, $1c, $fc, $fe, $66, $66, $fe, $fc, $00, $00, $00, $00, $18
046c7     18 18 18 18 
046cb     00 00 00 00 
046cf     00 00 00 00 
046d3     00 00 00 30 | 	byte	$18, $18, $18, $18, $00, $00, $00, $00, $00, $00, $00, $00, $00, $00, $00, $30
046d7     18 1C 0C 0C 
046db     0C 0C 0C 0C 
046df     1C 18 30 00 
046e3     00 00 00 0C | 	byte	$18, $1c, $0c, $0c, $0c, $0c, $0c, $0c, $1c, $18, $30, $00, $00, $00, $00, $0c
046e7     18 38 30 30 
046eb     30 30 30 30 
046ef     38 18 0C 00 
046f3     00 00 00 00 | 	byte	$18, $38, $30, $30, $30, $30, $30, $30, $38, $18, $0c, $00, $00, $00, $00, $00
046f7     66 66 3C 3C 
046fb     FF FF 3C 3C 
046ff     66 66 00 00 
04703     00 00 00 00 | 	byte	$66, $66, $3c, $3c, $ff, $ff, $3c, $3c, $66, $66, $00, $00, $00, $00, $00, $00
04707     00 18 18 18 
0470b     7E 7E 18 18 
0470f     18 00 00 00 
04713     00 00 00 00 | 	byte	$00, $18, $18, $18, $7e, $7e, $18, $18, $18, $00, $00, $00, $00, $00, $00, $00
04717     00 00 00 00 
0471b     00 00       | 	byte	$00[6]
0471d     18 18 18 18 
04721     18          | 	byte	$18[5]
04722     0C 04 00 00 
04726     00 00 00 00 
0472a     7E 7E 00 00 
0472e     00 00 00 00 | 	byte	$0c, $04, $00, $00, $00, $00, $00, $00, $7e, $7e, $00, $00, $00, $00, $00, $00
04732     00 00 00 00 
04736     00 00 00 00 
0473a     00 00 00 00 
0473e     00          | 	byte	$00[13]
0473f     18 18 18 00 
04743     00 00 00 60 
04747     60 60 30 30 
0474b     18 18 0C 0C | 	byte	$18, $18, $18, $00, $00, $00, $00, $60, $60, $60, $30, $30, $18, $18, $0c, $0c
0474f     06 06 06 00 
04753     00 00 00 3C 
04757     7E 66 66 66 
0475b     76 6E 66 66 | 	byte	$06, $06, $06, $00, $00, $00, $00, $3c, $7e, $66, $66, $66, $76, $6e, $66, $66
0475f     66 7E 3C 00 
04763     00 00 00 18 
04767     18 1C 1C 18 
0476b     18 18 18 18 | 	byte	$66, $7e, $3c, $00, $00, $00, $00, $18, $18, $1c, $1c, $18, $18, $18, $18, $18
0476f     18 7E 7E 00 
04773     00 00 00 3C 
04777     7E 66 66 30 
0477b     30 18 18 0C | 	byte	$18, $7e, $7e, $00, $00, $00, $00, $3c, $7e, $66, $66, $30, $30, $18, $18, $0c
0477f     0C 7E 7E 00 
04783     00 00 00 7E 
04787     7E 30 30 18 
0478b     18 30 30 66 | 	byte	$0c, $7e, $7e, $00, $00, $00, $00, $7e, $7e, $30, $30, $18, $18, $30, $30, $66
0478f     66 7E 3C 00 
04793     00 00 00 30 
04797     30 38 38 3C 
0479b     3C 36 36 7E | 	byte	$66, $7e, $3c, $00, $00, $00, $00, $30, $30, $38, $38, $3c, $3c, $36, $36, $7e
0479f     7E 30 30 00 
047a3     00 00 00 7E 
047a7     7E 06 06 3E 
047ab     7E 60 60 60 | 	byte	$7e, $30, $30, $00, $00, $00, $00, $7e, $7e, $06, $06, $3e, $7e, $60, $60, $60
047af     66 7E 3C 00 
047b3     00 00 00 38 
047b7     3C 0E 06 06 
047bb     3E 7E 66 66 | 	byte	$66, $7e, $3c, $00, $00, $00, $00, $38, $3c, $0e, $06, $06, $3e, $7e, $66, $66
047bf     66 7E 3C 00 
047c3     00 00 00 7E 
047c7     7E 60 60 30 
047cb     30 18 18 0C | 	byte	$66, $7e, $3c, $00, $00, $00, $00, $7e, $7e, $60, $60, $30, $30, $18, $18, $0c
047cf     0C 0C 0C 00 
047d3     00 00 00 3C 
047d7     7E 66 66 3C 
047db     3C 66 66 66 | 	byte	$0c, $0c, $0c, $00, $00, $00, $00, $3c, $7e, $66, $66, $3c, $3c, $66, $66, $66
047df     66 7E 3C 00 
047e3     00 00 00 3C 
047e7     7E 66 66 7E 
047eb     7C 60 60 60 | 	byte	$66, $7e, $3c, $00, $00, $00, $00, $3c, $7e, $66, $66, $7e, $7c, $60, $60, $60
047ef     70 3C 1C 00 
047f3     00 00 00 00 
047f7     00 00 18 18 
047fb     18 00 00 00 | 	byte	$70, $3c, $1c, $00, $00, $00, $00, $00, $00, $00, $18, $18, $18, $00, $00, $00
047ff     18 18 18 00 
04803     00 00 00 00 
04807     00 00 18 18 
0480b     18 00 00 18 | 	byte	$18, $18, $18, $00, $00, $00, $00, $00, $00, $00, $18, $18, $18, $00, $00, $18
0480f     18 18 18 0C 
04813     04 00 00 00 
04817     70 38 1C 0E 
0481b     07 0E 1C 38 | 	byte	$18, $18, $18, $0c, $04, $00, $00, $00, $70, $38, $1c, $0e, $07, $0e, $1c, $38
0481f     70 00 00 00 
04823     00 00 00 00 
04827     00 00 7E 7E 
0482b     00 00 7E 7E | 	byte	$70, $00, $00, $00, $00, $00, $00, $00, $00, $00, $7e, $7e, $00, $00, $7e, $7e
0482f     00 00 00 00 
04833     00 00 00 00 | 	byte	$00[8]
04837     0E 1C 38 70 
0483b     E0 70 38 1C 
0483f     0E 00 00 00 
04843     00 00 00 3C | 	byte	$0e, $1c, $38, $70, $e0, $70, $38, $1c, $0e, $00, $00, $00, $00, $00, $00, $3c
04847     7E 66 66 30 
0484b     30 18 18 18 
0484f     00 18 18 00 
04853     00 00 00 3C | 	byte	$7e, $66, $66, $30, $30, $18, $18, $18, $00, $18, $18, $00, $00, $00, $00, $3c
04857     7E 66 66 66 
0485b     66 36 06 66 
0485f     66 7E 3C 00 
04863     00 00 00 18 | 	byte	$7e, $66, $66, $66, $66, $36, $06, $66, $66, $7e, $3c, $00, $00, $00, $00, $18
04867     3C 7E 66 66 
0486b     66 7E 7E 66 
0486f     66 66 66 00 
04873     00 00 00 3E | 	byte	$3c, $7e, $66, $66, $66, $7e, $7e, $66, $66, $66, $66, $00, $00, $00, $00, $3e
04877     7E 66 66 7E 
0487b     3E 66 66 66 
0487f     66 7E 3E 00 
04883     00 00 00 3C | 	byte	$7e, $66, $66, $7e, $3e, $66, $66, $66, $66, $7e, $3e, $00, $00, $00, $00, $3c
04887     7E 66 66 06 
0488b     06 06 06 66 
0488f     66 7E 3C 00 
04893     00 00 00 3E | 	byte	$7e, $66, $66, $06, $06, $06, $06, $66, $66, $7e, $3c, $00, $00, $00, $00, $3e
04897     7E 66 66 66 
0489b     66 66 66 66 
0489f     66 7E 3E 00 
048a3     00 00 00 7E | 	byte	$7e, $66, $66, $66, $66, $66, $66, $66, $66, $7e, $3e, $00, $00, $00, $00, $7e
048a7     7E 06 06 3E 
048ab     3E 06 06 06 
048af     06 7E 7E 00 
048b3     00 00 00 7E | 	byte	$7e, $06, $06, $3e, $3e, $06, $06, $06, $06, $7e, $7e, $00, $00, $00, $00, $7e
048b7     7E 06 06 3E 
048bb     3E 06 06 06 
048bf     06 06 06 00 
048c3     00 00 00 7C | 	byte	$7e, $06, $06, $3e, $3e, $06, $06, $06, $06, $06, $06, $00, $00, $00, $00, $7c
048c7     7E 06 06 76 
048cb     76 66 66 66 
048cf     66 7E 3C 00 
048d3     00 00 00 66 | 	byte	$7e, $06, $06, $76, $76, $66, $66, $66, $66, $7e, $3c, $00, $00, $00, $00, $66
048d7     66 66 66 7E 
048db     7E 66 66 66 
048df     66 66 66 00 
048e3     00 00 00 7E | 	byte	$66, $66, $66, $7e, $7e, $66, $66, $66, $66, $66, $66, $00, $00, $00, $00, $7e
048e7     7E 18 18 18 
048eb     18 18 18 18 
048ef     18 7E 7E 00 
048f3     00 00 00 60 | 	byte	$7e, $18, $18, $18, $18, $18, $18, $18, $18, $7e, $7e, $00, $00, $00, $00, $60
048f7     60 60 60 60 
048fb     60 60 60    | 	byte	$60[7]
048fe     66 66 7E 3C 
04902     00 00 00 00 
04906     66 66 36 36 
0490a     1E 1E 36 36 | 	byte	$66, $66, $7e, $3c, $00, $00, $00, $00, $66, $66, $36, $36, $1e, $1e, $36, $36
0490e     66 66 C6 C6 
04912     00 00 00 00 
04916     06 06 06 06 
0491a     06 06 06 06 | 	byte	$66, $66, $c6, $c6, $00, $00, $00, $00, $06, $06, $06, $06, $06, $06, $06, $06
0491e     06 06 7E 7E 
04922     00 00 00 00 
04926     C6 C6 EE EE 
0492a     FE D6 D6 C6 | 	byte	$06, $06, $7e, $7e, $00, $00, $00, $00, $c6, $c6, $ee, $ee, $fe, $d6, $d6, $c6
0492e     C6 C6 C6 C6 
04932     00 00 00 00 
04936     66 66 66 6E 
0493a     6E 7E 7E 76 | 	byte	$c6, $c6, $c6, $c6, $00, $00, $00, $00, $66, $66, $66, $6e, $6e, $7e, $7e, $76
0493e     76 66 66 66 
04942     00 00 00 00 
04946     3C 7E 66 66 
0494a     66 66 66 66 | 	byte	$76, $66, $66, $66, $00, $00, $00, $00, $3c, $7e, $66, $66, $66, $66, $66, $66
0494e     66 66 7E 3C 
04952     00 00 00 00 
04956     3E 7E 66 66 
0495a     66 66 7E 3E | 	byte	$66, $66, $7e, $3c, $00, $00, $00, $00, $3e, $7e, $66, $66, $66, $66, $7e, $3e
0495e     06 06 06 06 
04962     00 00 00 00 
04966     3C 7E 66 66 
0496a     66 66 66 66 | 	byte	$06, $06, $06, $06, $00, $00, $00, $00, $3c, $7e, $66, $66, $66, $66, $66, $66
0496e     66 56 3E 6C 
04972     00 00 00 00 
04976     3E 7E 66 66 
0497a     66 7E 3E 36 | 	byte	$66, $56, $3e, $6c, $00, $00, $00, $00, $3e, $7e, $66, $66, $66, $7e, $3e, $36
0497e     66 66 C6 C6 
04982     00 00 00 00 
04986     7C 7E 06 06 
0498a     0E 1C 38 70 | 	byte	$66, $66, $c6, $c6, $00, $00, $00, $00, $7c, $7e, $06, $06, $0e, $1c, $38, $70
0498e     60 60 7E 3E 
04992     00 00 00 00 
04996     7E 7E 18 18 
0499a     18 18 18 18 | 	byte	$60, $60, $7e, $3e, $00, $00, $00, $00, $7e, $7e, $18, $18, $18, $18, $18, $18
0499e     18 18 18 18 
049a2     00 00 00 00 
049a6     66 66 66 66 
049aa     66 66 66 66 | 	byte	$18, $18, $18, $18, $00, $00, $00, $00, $66, $66, $66, $66, $66, $66, $66, $66
049ae     66 66 7E 3C 
049b2     00 00 00 00 
049b6     66 66 66 66 
049ba     66 66 66 66 | 	byte	$66, $66, $7e, $3c, $00, $00, $00, $00, $66, $66, $66, $66, $66, $66, $66, $66
049be     3C 3C 18 18 
049c2     00 00 00 00 
049c6     C6 C6 C6 C6 
049ca     C6 D6 D6 FE | 	byte	$3c, $3c, $18, $18, $00, $00, $00, $00, $c6, $c6, $c6, $c6, $c6, $d6, $d6, $fe
049ce     FE EE C6 82 
049d2     00 00 00 00 
049d6     66 66 66 3C 
049da     3C 18 18 3C | 	byte	$fe, $ee, $c6, $82, $00, $00, $00, $00, $66, $66, $66, $3c, $3c, $18, $18, $3c
049de     3C 66 66 66 
049e2     00 00 00 00 
049e6     66 66 66 66 
049ea     66 3C 3C 18 | 	byte	$3c, $66, $66, $66, $00, $00, $00, $00, $66, $66, $66, $66, $66, $3c, $3c, $18
049ee     18 18 18 18 
049f2     00 00 00 00 
049f6     7E 7E 30 30 
049fa     18 18 0C 0C | 	byte	$18, $18, $18, $18, $00, $00, $00, $00, $7e, $7e, $30, $30, $18, $18, $0c, $0c
049fe     06 06 7E 7E 
04a02     00 00 00 00 
04a06     3C 3C 0C 0C 
04a0a     0C 0C 0C 0C | 	byte	$06, $06, $7e, $7e, $00, $00, $00, $00, $3c, $3c, $0c, $0c, $0c, $0c, $0c, $0c
04a0e     0C 0C 3C 3C 
04a12     00 00 00 00 
04a16     06 06 0C 0C 
04a1a     18 18 30 30 | 	byte	$0c, $0c, $3c, $3c, $00, $00, $00, $00, $06, $06, $0c, $0c, $18, $18, $30, $30
04a1e     60 60 C0 C0 
04a22     00 00 00 00 
04a26     3C 3C 30 30 
04a2a     30 30 30 30 | 	byte	$60, $60, $c0, $c0, $00, $00, $00, $00, $3c, $3c, $30, $30, $30, $30, $30, $30
04a2e     30 30 3C 3C 
04a32     00 00 00 00 
04a36     18 18 3C 3C 
04a3a     66 66 00 00 | 	byte	$30, $30, $3c, $3c, $00, $00, $00, $00, $18, $18, $3c, $3c, $66, $66, $00, $00
04a3e     00 00 00 00 
04a42     00 00 00 00 
04a46     00 00 00 00 
04a4a     00 00 00 00 
04a4e     00 00       | 	byte	$00[18]
04a50     FE FE 00 00 
04a54     00 00 0C 0C 
04a58     18 18 00 00 
04a5c     00 00 00 00 | 	byte	$fe, $fe, $00, $00, $00, $00, $0c, $0c, $18, $18, $00, $00, $00, $00, $00, $00
04a60     00 00 00 00 
04a64     00 00 00 00 
04a68     00          | 	byte	$00[9]
04a69     3C 7C 60 7C 
04a6d     7E 66 66 7E 
04a71     7C 00 00 00 
04a75     00 06 06 06 | 	byte	$3c, $7c, $60, $7c, $7e, $66, $66, $7e, $7c, $00, $00, $00, $00, $06, $06, $06
04a79     3E 7E 66 66 
04a7d     66 66 66 7E 
04a81     3E 00 00 00 
04a85     00 00 00 00 | 	byte	$3e, $7e, $66, $66, $66, $66, $66, $7e, $3e, $00, $00, $00, $00, $00, $00, $00
04a89     3C 3E 06 06 
04a8d     06 06 06 7E 
04a91     7C 00 00 00 
04a95     00 60 60 60 | 	byte	$3c, $3e, $06, $06, $06, $06, $06, $7e, $7c, $00, $00, $00, $00, $60, $60, $60
04a99     7C 7E 66 66 
04a9d     66 66 66 7E 
04aa1     7C 00 00 00 
04aa5     00 00 00 00 | 	byte	$7c, $7e, $66, $66, $66, $66, $66, $7e, $7c, $00, $00, $00, $00, $00, $00, $00
04aa9     3C 7E 66 66 
04aad     7E 06 06 7E 
04ab1     7C 00 00 00 
04ab5     00 70 78 18 | 	byte	$3c, $7e, $66, $66, $7e, $06, $06, $7e, $7c, $00, $00, $00, $00, $70, $78, $18
04ab9     18 7E 7E 18 
04abd     18 18 18 18 
04ac1     18 00 00 00 
04ac5     00 00 00 00 | 	byte	$18, $7e, $7e, $18, $18, $18, $18, $18, $18, $00, $00, $00, $00, $00, $00, $00
04ac9     7C 7E 66 66 
04acd     66 66 7E 7C 
04ad1     60 7E 3E 00 
04ad5     00 06 06 06 | 	byte	$7c, $7e, $66, $66, $66, $66, $7e, $7c, $60, $7e, $3e, $00, $00, $06, $06, $06
04ad9     3E 7E 66 66 
04add     66 66 66 66 
04ae1     66 00 00 00 
04ae5     00 18 18 00 | 	byte	$3e, $7e, $66, $66, $66, $66, $66, $66, $66, $00, $00, $00, $00, $18, $18, $00
04ae9     1C 1C 18 18 
04aed     18 18 18 3C 
04af1     3C 00 00 00 
04af5     00 30 30 00 | 	byte	$1c, $1c, $18, $18, $18, $18, $18, $3c, $3c, $00, $00, $00, $00, $30, $30, $00
04af9     30 30 30 30 
04afd     30 30 30 30 
04b01     30          | 	byte	$30[9]
04b02     3E 1E 00 00 
04b06     06 06 06 36 
04b0a     36 1E 1E 1E 
04b0e     36 36 66 66 | 	byte	$3e, $1e, $00, $00, $06, $06, $06, $36, $36, $1e, $1e, $1e, $36, $36, $66, $66
04b12     00 00 00 00 
04b16     1C 1C 18 18 
04b1a     18 18 18 18 
04b1e     18 18 3C 3C | 	byte	$00, $00, $00, $00, $1c, $1c, $18, $18, $18, $18, $18, $18, $18, $18, $3c, $3c
04b22     00 00 00 00 
04b26     00 00 00    | 	byte	$00[7]
04b29     6C FE FE D6 
04b2d     D6 C6 C6 C6 
04b31     C6 00 00 00 
04b35     00 00 00 00 | 	byte	$6c, $fe, $fe, $d6, $d6, $c6, $c6, $c6, $c6, $00, $00, $00, $00, $00, $00, $00
04b39     3E 7E 66 66 
04b3d     66 66 66 66 
04b41     66 00 00 00 
04b45     00 00 00 00 | 	byte	$3e, $7e, $66, $66, $66, $66, $66, $66, $66, $00, $00, $00, $00, $00, $00, $00
04b49     3C 7E 66 66 
04b4d     66 66 66 7E 
04b51     3C 00 00 00 
04b55     00 00 00 00 | 	byte	$3c, $7e, $66, $66, $66, $66, $66, $7e, $3c, $00, $00, $00, $00, $00, $00, $00
04b59     3E 7E 66 66 
04b5d     66 66 66 7E 
04b61     3E 06 06 00 
04b65     00 00 00 00 | 	byte	$3e, $7e, $66, $66, $66, $66, $66, $7e, $3e, $06, $06, $00, $00, $00, $00, $00
04b69     7C 7E 66 66 
04b6d     66 66 66 7E 
04b71     7C 60 60 00 
04b75     00 00 00 00 | 	byte	$7c, $7e, $66, $66, $66, $66, $66, $7e, $7c, $60, $60, $00, $00, $00, $00, $00
04b79     3E 7E 66 06 
04b7d     06 06 06 06 
04b81     06 00 00 00 
04b85     00 00 00 00 | 	byte	$3e, $7e, $66, $06, $06, $06, $06, $06, $06, $00, $00, $00, $00, $00, $00, $00
04b89     7C 7E 06 0E 
04b8d     3C 70 60 7E 
04b91     3E 00 00 00 
04b95     00 00 18 18 | 	byte	$7c, $7e, $06, $0e, $3c, $70, $60, $7e, $3e, $00, $00, $00, $00, $00, $18, $18
04b99     7E 7E 18 18 
04b9d     18 18 18 78 
04ba1     70 00 00 00 
04ba5     00 00 00 00 | 	byte	$7e, $7e, $18, $18, $18, $18, $18, $78, $70, $00, $00, $00, $00, $00, $00, $00
04ba9     66 66 66 66 
04bad     66 66 66    | 	byte	$66[7]
04bb0     7E 7C 00 00 
04bb4     00 00 00 00 
04bb8     00 66 66 66 
04bbc     66 66 3C 3C | 	byte	$7e, $7c, $00, $00, $00, $00, $00, $00, $00, $66, $66, $66, $66, $66, $3c, $3c
04bc0     18 18 00 00 
04bc4     00 00 00 00 
04bc8     00 C6 C6 D6 
04bcc     D6 FE FE EE | 	byte	$18, $18, $00, $00, $00, $00, $00, $00, $00, $c6, $c6, $d6, $d6, $fe, $fe, $ee
04bd0     C6 82 00 00 
04bd4     00 00 00 00 
04bd8     00 66 66 3C 
04bdc     3C 18 3C 3C | 	byte	$c6, $82, $00, $00, $00, $00, $00, $00, $00, $66, $66, $3c, $3c, $18, $3c, $3c
04be0     66 66 00 00 
04be4     00 00 00 00 
04be8     00 66 66 66 
04bec     66 66 66 7E | 	byte	$66, $66, $00, $00, $00, $00, $00, $00, $00, $66, $66, $66, $66, $66, $66, $7e
04bf0     7C 60 7E 3E 
04bf4     00 00 00 00 
04bf8     00 7E 7E 30 
04bfc     18 18 0C 0C | 	byte	$7c, $60, $7e, $3e, $00, $00, $00, $00, $00, $7e, $7e, $30, $18, $18, $0c, $0c
04c00     7E 7E 00 00 
04c04     00 00 30 18 
04c08     18 18 18 0C 
04c0c     0C 18 18 18 | 	byte	$7e, $7e, $00, $00, $00, $00, $30, $18, $18, $18, $18, $0c, $0c, $18, $18, $18
04c10     18 30 00 00 
04c14     00 00 18 18 
04c18     18 18 18 18 
04c1c     18 18 18 18 | 	byte	$18, $30, $00, $00, $00, $00, $18, $18, $18, $18, $18, $18, $18, $18, $18, $18
04c20     18 18 00 00 
04c24     00 00 0C 18 
04c28     18 18 18 30 
04c2c     30 18 18 18 | 	byte	$18, $18, $00, $00, $00, $00, $0c, $18, $18, $18, $18, $30, $30, $18, $18, $18
04c30     18 0C 00 00 
04c34     00 00 6C 7E 
04c38     36 00 00 00 
04c3c     00 00 00 00 | 	byte	$18, $0c, $00, $00, $00, $00, $6c, $7e, $36, $00, $00, $00, $00, $00, $00, $00
04c40     00 00 00 00 
04c44     00 00 00 00 
04c48     00          | 	byte	$00[9]
04c49     18 18 18 18 
04c4d     18 18 00 00 
04c51     00 00 00    | 	byte	$18, $18, $18, $18, $18, $18, $00, $00, $00, $00, $00
04c54     00 00 00 00 
04c58     00          | ataripalette   file "ataripalettep2.def"
04c59     11 11 11 00 
04c5d     22 22 22 00 
04c61     33 33 33 00 
04c65     44 44 44 00 | 	byte	$11, $11, $11, $00, $22, $22, $22, $00, $33, $33, $33, $00, $44, $44, $44, $00
04c69     55 55 55 00 
04c6d     66 66 66 00 
04c71     77 77 77 00 
04c75     88 88 88 00 | 	byte	$55, $55, $55, $00, $66, $66, $66, $00, $77, $77, $77, $00, $88, $88, $88, $00
04c79     99 99 99 00 
04c7d     AA AA AA 00 
04c81     BB BB BB 00 
04c85     CC CC CC 00 | 	byte	$99, $99, $99, $00, $aa, $aa, $aa, $00, $bb, $bb, $bb, $00, $cc, $cc, $cc, $00
04c89     DD DD DD 00 
04c8d     EE EE EE 00 
04c91     FF FF FF 00 
04c95     00 0A 20 00 | 	byte	$dd, $dd, $dd, $00, $ee, $ee, $ee, $00, $ff, $ff, $ff, $00, $00, $0a, $20, $00
04c99     00 14 40 00 
04c9d     00 1E 60 00 
04ca1     00 28 80 00 
04ca5     00 32 9F 00 | 	byte	$00, $14, $40, $00, $00, $1e, $60, $00, $00, $28, $80, $00, $00, $32, $9f, $00
04ca9     00 3C BF 00 
04cad     00 46 DF 00 
04cb1     00 50 FF 00 
04cb5     1C 63 FF 00 | 	byte	$00, $3c, $bf, $00, $00, $46, $df, $00, $00, $50, $ff, $00, $1c, $63, $ff, $00
04cb9     39 77 FF 00 
04cbd     55 8A FF 00 
04cc1     71 9E FF 00 
04cc5     8E B1 FF 00 | 	byte	$39, $77, $ff, $00, $55, $8a, $ff, $00, $71, $9e, $ff, $00, $8e, $b1, $ff, $00
04cc9     AA C5 FF 00 
04ccd     C6 D8 FF 00 
04cd1     E3 EC FF 00 
04cd5     00 00 20 00 | 	byte	$aa, $c5, $ff, $00, $c6, $d8, $ff, $00, $e3, $ec, $ff, $00, $00, $00, $20, $00
04cd9     00 00 40 00 
04cdd     00 00 60 00 
04ce1     00 00 80 00 
04ce5     00 00 9F 00 | 	byte	$00, $00, $40, $00, $00, $00, $60, $00, $00, $00, $80, $00, $00, $00, $9f, $00
04ce9     00 00 BF 00 
04ced     00 00 DF 00 
04cf1     00 00 FF 00 
04cf5     1C 1C FF 00 | 	byte	$00, $00, $bf, $00, $00, $00, $df, $00, $00, $00, $ff, $00, $1c, $1c, $ff, $00
04cf9     39 39 FF 00 
04cfd     55 55 FF 00 
04d01     71 71 FF 00 
04d05     8E 8E FF 00 | 	byte	$39, $39, $ff, $00, $55, $55, $ff, $00, $71, $71, $ff, $00, $8e, $8e, $ff, $00
04d09     AA AA FF 00 
04d0d     C6 C6 FF 00 
04d11     E3 E3 FF 00 
04d15     10 00 20 00 | 	byte	$aa, $aa, $ff, $00, $c6, $c6, $ff, $00, $e3, $e3, $ff, $00, $10, $00, $20, $00
04d19     20 00 40 00 
04d1d     30 00 60 00 
04d21     40 00 80 00 
04d25     50 00 9F 00 | 	byte	$20, $00, $40, $00, $30, $00, $60, $00, $40, $00, $80, $00, $50, $00, $9f, $00
04d29     60 00 BF 00 
04d2d     70 00 DF 00 
04d31     80 00 FF 00 
04d35     8E 1C FF 00 | 	byte	$60, $00, $bf, $00, $70, $00, $df, $00, $80, $00, $ff, $00, $8e, $1c, $ff, $00
04d39     9C 39 FF 00 
04d3d     AA 55 FF 00 
04d41     B8 71 FF 00 
04d45     C7 8E FF 00 | 	byte	$9c, $39, $ff, $00, $aa, $55, $ff, $00, $b8, $71, $ff, $00, $c7, $8e, $ff, $00
04d49     D5 AA FF 00 
04d4d     E3 C6 FF 00 
04d51     F1 E3 FF 00 
04d55     20 00 20 00 | 	byte	$d5, $aa, $ff, $00, $e3, $c6, $ff, $00, $f1, $e3, $ff, $00, $20, $00, $20, $00
04d59     40 00 40 00 
04d5d     60 00 60 00 
04d61     80 00 80 00 
04d65     9F 00 9F 00 | 	byte	$40, $00, $40, $00, $60, $00, $60, $00, $80, $00, $80, $00, $9f, $00, $9f, $00
04d69     BF 00 BF 00 
04d6d     DF 00 DF 00 
04d71     FF 00 FF 00 
04d75     FF 1C FF 00 | 	byte	$bf, $00, $bf, $00, $df, $00, $df, $00, $ff, $00, $ff, $00, $ff, $1c, $ff, $00
04d79     FF 39 FF 00 
04d7d     FF 55 FF 00 
04d81     FF 71 FF 00 
04d85     FF 8E FF 00 | 	byte	$ff, $39, $ff, $00, $ff, $55, $ff, $00, $ff, $71, $ff, $00, $ff, $8e, $ff, $00
04d89     FF AA FF 00 
04d8d     FF C6 FF 00 
04d91     FF E3 FF 00 
04d95     20 00 10 00 | 	byte	$ff, $aa, $ff, $00, $ff, $c6, $ff, $00, $ff, $e3, $ff, $00, $20, $00, $10, $00
04d99     40 00 20 00 
04d9d     60 00 30 00 
04da1     80 00 40 00 
04da5     9F 00 50 00 | 	byte	$40, $00, $20, $00, $60, $00, $30, $00, $80, $00, $40, $00, $9f, $00, $50, $00
04da9     BF 00 60 00 
04dad     DF 00 70 00 
04db1     FF 00 80 00 
04db5     FF 1C 8E 00 | 	byte	$bf, $00, $60, $00, $df, $00, $70, $00, $ff, $00, $80, $00, $ff, $1c, $8e, $00
04db9     FF 39 9C 00 
04dbd     FF 55 AA 00 
04dc1     FF 71 B8 00 
04dc5     FF 8E C7 00 | 	byte	$ff, $39, $9c, $00, $ff, $55, $aa, $00, $ff, $71, $b8, $00, $ff, $8e, $c7, $00
04dc9     FF AA D5 00 
04dcd     FF C6 E3 00 
04dd1     FF E3 F1 00 
04dd5     20 00 00 00 | 	byte	$ff, $aa, $d5, $00, $ff, $c6, $e3, $00, $ff, $e3, $f1, $00, $20, $00, $00, $00
04dd9     40 00 00 00 
04ddd     60 00 00 00 
04de1     80 00 00 00 
04de5     9F 00 00 00 | 	byte	$40, $00, $00, $00, $60, $00, $00, $00, $80, $00, $00, $00, $9f, $00, $00, $00
04de9     BF 00 00 00 
04ded     DF 00 00 00 
04df1     FF 00 00 00 
04df5     FF 1C 1C 00 | 	byte	$bf, $00, $00, $00, $df, $00, $00, $00, $ff, $00, $00, $00, $ff, $1c, $1c, $00
04df9     FF 39 39 00 
04dfd     FF 55 55 00 
04e01     FF 71 71 00 
04e05     FF 8E 8E 00 | 	byte	$ff, $39, $39, $00, $ff, $55, $55, $00, $ff, $71, $71, $00, $ff, $8e, $8e, $00
04e09     FF AA AA 00 
04e0d     FF C6 C6 00 
04e11     FF E3 E3 00 
04e15     20 08 00 00 | 	byte	$ff, $aa, $aa, $00, $ff, $c6, $c6, $00, $ff, $e3, $e3, $00, $20, $08, $00, $00
04e19     40 10 00 00 
04e1d     60 18 00 00 
04e21     80 20 00 00 
04e25     9F 28 00 00 | 	byte	$40, $10, $00, $00, $60, $18, $00, $00, $80, $20, $00, $00, $9f, $28, $00, $00
04e29     BF 30 00 00 
04e2d     DF 38 00 00 
04e31     FF 40 00 00 
04e35     FF 55 1C 00 | 	byte	$bf, $30, $00, $00, $df, $38, $00, $00, $ff, $40, $00, $00, $ff, $55, $1c, $00
04e39     FF 6A 39 00 
04e3d     FF 80 55 00 
04e41     FF 95 71 00 
04e45     FF AA 8E 00 | 	byte	$ff, $6a, $39, $00, $ff, $80, $55, $00, $ff, $95, $71, $00, $ff, $aa, $8e, $00
04e49     FF BF AA 00 
04e4d     FF D5 C6 00 
04e51     FF EA E3 00 
04e55     20 10 00 00 | 	byte	$ff, $bf, $aa, $00, $ff, $d5, $c6, $00, $ff, $ea, $e3, $00, $20, $10, $00, $00
04e59     40 20 00 00 
04e5d     60 30 00 00 
04e61     80 40 00 00 
04e65     9F 50 00 00 | 	byte	$40, $20, $00, $00, $60, $30, $00, $00, $80, $40, $00, $00, $9f, $50, $00, $00
04e69     BF 60 00 00 
04e6d     DF 70 00 00 
04e71     FF 80 00 00 
04e75     FF 8E 1C 00 | 	byte	$bf, $60, $00, $00, $df, $70, $00, $00, $ff, $80, $00, $00, $ff, $8e, $1c, $00
04e79     FF 9C 39 00 
04e7d     FF AA 55 00 
04e81     FF B8 71 00 
04e85     FF C7 8E 00 | 	byte	$ff, $9c, $39, $00, $ff, $aa, $55, $00, $ff, $b8, $71, $00, $ff, $c7, $8e, $00
04e89     FF D5 AA 00 
04e8d     FF E3 C6 00 
04e91     FF F1 E3 00 
04e95     20 18 00 00 | 	byte	$ff, $d5, $aa, $00, $ff, $e3, $c6, $00, $ff, $f1, $e3, $00, $20, $18, $00, $00
04e99     40 30 00 00 
04e9d     60 48 00 00 
04ea1     80 60 00 00 
04ea5     9F 78 00 00 | 	byte	$40, $30, $00, $00, $60, $48, $00, $00, $80, $60, $00, $00, $9f, $78, $00, $00
04ea9     BF 90 00 00 
04ead     DF A8 00 00 
04eb1     FF C0 00 00 
04eb5     FF C7 1C 00 | 	byte	$bf, $90, $00, $00, $df, $a8, $00, $00, $ff, $c0, $00, $00, $ff, $c7, $1c, $00
04eb9     FF CE 39 00 
04ebd     FF D5 55 00 
04ec1     FF DC 71 00 
04ec5     FF E3 8E 00 | 	byte	$ff, $ce, $39, $00, $ff, $d5, $55, $00, $ff, $dc, $71, $00, $ff, $e3, $8e, $00
04ec9     FF EA AA 00 
04ecd     FF F1 C6 00 
04ed1     FF F8 E3 00 
04ed5     18 20 00 00 | 	byte	$ff, $ea, $aa, $00, $ff, $f1, $c6, $00, $ff, $f8, $e3, $00, $18, $20, $00, $00
04ed9     30 40 00 00 
04edd     48 60 00 00 
04ee1     60 80 00 00 
04ee5     78 9F 00 00 | 	byte	$30, $40, $00, $00, $48, $60, $00, $00, $60, $80, $00, $00, $78, $9f, $00, $00
04ee9     90 BF 00 00 
04eed     A8 DF 00 00 
04ef1     C0 FF 00 00 
04ef5     C7 FF 1C 00 | 	byte	$90, $bf, $00, $00, $a8, $df, $00, $00, $c0, $ff, $00, $00, $c7, $ff, $1c, $00
04ef9     CE FF 39 00 
04efd     D5 FF 55 00 
04f01     DC FF 71 00 
04f05     E3 FF 8E 00 | 	byte	$ce, $ff, $39, $00, $d5, $ff, $55, $00, $dc, $ff, $71, $00, $e3, $ff, $8e, $00
04f09     EA FF AA 00 
04f0d     F1 FF C6 00 
04f11     F8 FF E3 00 
04f15     00 20 00 00 | 	byte	$ea, $ff, $aa, $00, $f1, $ff, $c6, $00, $f8, $ff, $e3, $00, $00, $20, $00, $00
04f19     00 40 00 00 
04f1d     00 60 00 00 
04f21     00 80 00 00 
04f25     00 9F 00 00 | 	byte	$00, $40, $00, $00, $00, $60, $00, $00, $00, $80, $00, $00, $00, $9f, $00, $00
04f29     00 BF 00 00 
04f2d     00 DF 00 00 
04f31     00 FF 00 00 
04f35     1C FF 1C 00 | 	byte	$00, $bf, $00, $00, $00, $df, $00, $00, $00, $ff, $00, $00, $1c, $ff, $1c, $00
04f39     39 FF 39 00 
04f3d     55 FF 55 00 
04f41     71 FF 71 00 
04f45     8E FF 8E 00 | 	byte	$39, $ff, $39, $00, $55, $ff, $55, $00, $71, $ff, $71, $00, $8e, $ff, $8e, $00
04f49     AA FF AA 00 
04f4d     C6 FF C6 00 
04f51     E3 FF E3 00 
04f55     00 20 0A 00 | 	byte	$aa, $ff, $aa, $00, $c6, $ff, $c6, $00, $e3, $ff, $e3, $00, $00, $20, $0a, $00
04f59     00 40 14 00 
04f5d     00 60 1E 00 
04f61     00 80 28 00 
04f65     00 9F 32 00 | 	byte	$00, $40, $14, $00, $00, $60, $1e, $00, $00, $80, $28, $00, $00, $9f, $32, $00
04f69     00 BF 3C 00 
04f6d     00 DF 46 00 
04f71     00 FF 50 00 
04f75     1C FF 63 00 | 	byte	$00, $bf, $3c, $00, $00, $df, $46, $00, $00, $ff, $50, $00, $1c, $ff, $63, $00
04f79     39 FF 77 00 
04f7d     55 FF 8A 00 
04f81     71 FF 9E 00 
04f85     8E FF B1 00 | 	byte	$39, $ff, $77, $00, $55, $ff, $8a, $00, $71, $ff, $9e, $00, $8e, $ff, $b1, $00
04f89     AA FF C5 00 
04f8d     C6 FF D8 00 
04f91     E3 FF EC 00 
04f95     00 20 14 00 | 	byte	$aa, $ff, $c5, $00, $c6, $ff, $d8, $00, $e3, $ff, $ec, $00, $00, $20, $14, $00
04f99     00 40 28 00 
04f9d     00 60 3C 00 
04fa1     00 80 50 00 
04fa5     00 9F 64 00 | 	byte	$00, $40, $28, $00, $00, $60, $3c, $00, $00, $80, $50, $00, $00, $9f, $64, $00
04fa9     00 BF 78 00 
04fad     00 DF 8C 00 
04fb1     00 FF A0 00 
04fb5     1C FF AB 00 | 	byte	$00, $bf, $78, $00, $00, $df, $8c, $00, $00, $ff, $a0, $00, $1c, $ff, $ab, $00
04fb9     39 FF B5 00 
04fbd     55 FF C0 00 
04fc1     71 FF CA 00 
04fc5     8E FF D5 00 | 	byte	$39, $ff, $b5, $00, $55, $ff, $c0, $00, $71, $ff, $ca, $00, $8e, $ff, $d5, $00
04fc9     AA FF DF 00 
04fcd     C6 FF EA 00 
04fd1     E3 FF F4 00 
04fd5     00 20 20 00 | 	byte	$aa, $ff, $df, $00, $c6, $ff, $ea, $00, $e3, $ff, $f4, $00, $00, $20, $20, $00
04fd9     00 40 40 00 
04fdd     00 60 60 00 
04fe1     00 80 80 00 
04fe5     00 9F 9F 00 | 	byte	$00, $40, $40, $00, $00, $60, $60, $00, $00, $80, $80, $00, $00, $9f, $9f, $00
04fe9     00 BF BF 00 
04fed     00 DF DF 00 
04ff1     00 FF FF 00 
04ff5     1C FF FF 00 | 	byte	$00, $bf, $bf, $00, $00, $df, $df, $00, $00, $ff, $ff, $00, $1c, $ff, $ff, $00
04ff9     39 FF FF 00 
04ffd     55 FF FF 00 
05001     71 FF FF 00 
05005     8E FF FF 00 | 	byte	$39, $ff, $ff, $00, $55, $ff, $ff, $00, $71, $ff, $ff, $00, $8e, $ff, $ff, $00
05009     AA FF FF 00 
0500d     C6 FF FF 00 
05011     E3 FF FF 00 
05015     00 14 20 00 | 	byte	$aa, $ff, $ff, $00, $c6, $ff, $ff, $00, $e3, $ff, $ff, $00, $00, $14, $20, $00
05019     00 28 40 00 
0501d     00 3C 60 00 
05021     00 50 80 00 
05025     00 64 9F 00 | 	byte	$00, $28, $40, $00, $00, $3c, $60, $00, $00, $50, $80, $00, $00, $64, $9f, $00
05029     00 78 BF 00 
0502d     00 8C DF 00 
05031     00 A0 FF 00 
05035     1C AB FF 00 | 	byte	$00, $78, $bf, $00, $00, $8c, $df, $00, $00, $a0, $ff, $00, $1c, $ab, $ff, $00
05039     39 B5 FF 00 
0503d     55 C0 FF 00 
05041     71 CA FF 00 
05045     8E D5 FF 00 | 	byte	$39, $b5, $ff, $00, $55, $c0, $ff, $00, $71, $ca, $ff, $00, $8e, $d5, $ff, $00
05049     AA DF FF 00 
0504d     C6 EA FF 00 
05051     E3 F4 FF    | 	byte	$aa, $df, $ff, $00, $c6, $ea, $ff, $00, $e3, $f4, $ff
05054     00 00 00 00 
05058     00          | vga16              long  $00000000,$00008000,$00800000,$00808000,$80000000,$80008000,$80400000,$AAAAAA00,$55555500,$0000FF00,$00FF0000,$00FFFF00,$FF000000,$FF00FF00,$FFFF0000,$FFFFFF00
05059     80 00 00 00 
0505d     00 80 00 00 
05061     80 80 00 00 
05065     00 00 80 00 | 	byte	$80, $00, $00, $00, $00, $80, $00, $00, $80, $80, $00, $00, $00, $00, $80, $00
05069     80 00 80 00 
0506d     00 40 80 00 
05071     AA AA AA 00 
05075     55 55 55 00 | 	byte	$80, $00, $80, $00, $00, $40, $80, $00, $aa, $aa, $aa, $00, $55, $55, $55, $00
05079     FF 00 00 00 
0507d     00 FF 00 00 
05081     FF FF 00 00 
05085     00 00 FF 00 | 	byte	$ff, $00, $00, $00, $00, $ff, $00, $00, $ff, $ff, $00, $00, $00, $00, $ff, $00
05089     FF 00 FF 00 
0508d     00 FF FF 00 
05091     FF FF FF    | 	byte	$ff, $00, $ff, $00, $00, $ff, $ff, $00, $ff, $ff, $ff
05094     00 00 00 00 
05098     00 80 80 80 
0509c     00 00 00 FF 
050a0     00 FF FF FF | fourcolors     long  $00000000,$80808000,$FF000000,$FFFFFF00 'black,red,gray,white
050a4     00 00 00 00 
050a8     00 FF FF FF | twocolors      long  $00000000,$FFFFFF00
050ac                 | '**********************************************************************************
050ac                 | '
050ac                 | '        Timings and colors definitions
050ac                 | '
050ac                 | '**********************************************************************************
050ac                 | 
050ac                 |    'streamer sets for text mode, to add to timings[0..5]
050ac                 | 
050ac                 | 
050ac                 | '                     bf.hs, hs,  bf.vis  visible, lr bord, pixel, ud bord,  up p., vsync, down p., mode, cpl, scanlines,  clock,                  hubset                  total vis lines
050ac     10 00 00 00 
050b0     50 00 00 00 
050b4     14 00 00 00 
050b8     00 04 00 00 | timings000      long   16,   80,    20,    1024,    112,     8,     48,      16,      16,    16,      0,  100,   480,     354693878,   %1_110000__11_0110_1100__1111_1011,   576
050bc     70 00 00 00 
050c0     08 00 00 00 
050c4     30 00 00 00 
050c8     10 00 00 00 | 	byte	$70, $00, $00, $00, $08, $00, $00, $00, $30, $00, $00, $00, $10, $00, $00, $00
050cc     10 00 00 00 
050d0     10 00 00 00 
050d4     00 00 00 00 
050d8     64 00 00 00 | 	byte	$10, $00, $00, $00, $10, $00, $00, $00, $00, $00, $00, $00, $64, $00, $00, $00
050dc     E0 01 00 00 
050e0     F6 32 24 15 
050e4     FB 6C C3 01 
050e8     40 02 00 00 | 	byte	$e0, $01, $00, $00, $f6, $32, $24, $15, $fb, $6c, $c3, $01, $40, $02, $00, $00
050ec     12 00 00 00 
050f0     30 00 00 00 
050f4     10 00 00 00 
050f8     B0 03 00 00 | timings064      long   18,   48,    16,     944,     24,     8,     24,      24,      32,    24,     64,  112,   496,     319215686,   %1_110010__11_0010_1101__1111_1011,   544
050fc     18 00 00 00 
05100     08 00 00 00 
05104     18 00 00 00 
05108     18 00 00 00 | 	byte	$18, $00, $00, $00, $08, $00, $00, $00, $18, $00, $00, $00, $18, $00, $00, $00
0510c     20 00 00 00 
05110     18 00 00 00 
05114     40 00 00 00 
05118     70 00 00 00 | 	byte	$20, $00, $00, $00, $18, $00, $00, $00, $40, $00, $00, $00, $70, $00, $00, $00
0511c     F0 01 00 00 
05120     46 D8 06 13 
05124     FB 2D CB 01 
05128     20 02 00 00 | 	byte	$f0, $01, $00, $00, $46, $d8, $06, $13, $fb, $2d, $cb, $01, $20, $02, $00, $00
0512c     10 00 00 00 
05130     40 00 00 00 
05134     10 00 00 00 
05138     30 03 00 00 | timings128      long   16,   64,    16,     816,      8,     8,     8,       32,      64,    32,    128,  100,   480,     283750000,   %1_111111__11_1000_1011__1111_1011,   496
0513c     08 00 00 00 
05140     08 00 00 00 
05144     08 00 00 00 
05148     20 00 00 00 | 	byte	$08, $00, $00, $00, $08, $00, $00, $00, $08, $00, $00, $00, $20, $00, $00, $00
0514c     40 00 00 00 
05150     20 00 00 00 
05154     80 00 00 00 
05158     64 00 00 00 | 	byte	$40, $00, $00, $00, $20, $00, $00, $00, $80, $00, $00, $00, $64, $00, $00, $00
0515c     E0 01 00 00 
05160     70 AE E9 10 
05164     FB 8B FF 01 
05168     F0 01 00 00 | 	byte	$e0, $01, $00, $00, $70, $ae, $e9, $10, $fb, $8b, $ff, $01, $f0, $01, $00, $00
0516c     10 00 00 00 
05170     50 00 00 00 
05174     14 00 00 00 
05178     00 04 00 00 | timings192      long   16,   80,    20,    1024,      0,     8,     0,       16,      16,    16,    192,  128,   576,     354693878,   %1_110000__11_0110_1100__1111_1011,   576
0517c     00 00 00 00 
05180     08 00 00 00 
05184     00 00 00 00 
05188     10 00 00 00 | 	byte	$00, $00, $00, $00, $08, $00, $00, $00, $00, $00, $00, $00, $10, $00, $00, $00
0518c     10 00 00 00 
05190     10 00 00 00 
05194     C0 00 00 00 
05198     80 00 00 00 | 	byte	$10, $00, $00, $00, $10, $00, $00, $00, $c0, $00, $00, $00, $80, $00, $00, $00
0519c     40 02 00 00 
051a0     F6 32 24 15 
051a4     FB 6C C3 01 
051a8     40 02 00 00 | 	byte	$40, $02, $00, $00, $f6, $32, $24, $15, $fb, $6c, $c3, $01, $40, $02, $00, $00
051ac     50 00 00 00 
051b0     A0 00 00 00 
051b4     54 00 00 00 
051b8     30 03 00 00 | timings256      long   80,  160,    84,     816,      8,     8,     8,        8,      12,     8,    256,  100,   480,     357959184,   %1_110000__11_0110_0100__1111_1011,   496
051bc     08 00 00 00 
051c0     08 00 00 00 
051c4     08 00 00 00 
051c8     08 00 00 00 | 	byte	$08, $00, $00, $00, $08, $00, $00, $00, $08, $00, $00, $00, $08, $00, $00, $00
051cc     0C 00 00 00 
051d0     08 00 00 00 
051d4     00 01 00 00 
051d8     64 00 00 00 | 	byte	$0c, $00, $00, $00, $08, $00, $00, $00, $00, $01, $00, $00, $64, $00, $00, $00
051dc     E0 01 00 00 
051e0     10 06 56 15 
051e4     FB 64 C3 01 
051e8     F0 01 00 00 | 	byte	$e0, $01, $00, $00, $10, $06, $56, $15, $fb, $64, $c3, $01, $f0, $01, $00, $00
051ec     50 00 00 00 
051f0     32 00 00 00 
051f4     50 00 00 00 
051f8     30 03 00 00 | timings320      long   80,   50,    80,     816,      8,     8,     8,        8,      12,     8,    320,  100,   480,     322162162,   %1_100100__10_0101_0011__1111_1011,   496
051fc     08 00 00 00 
05200     08 00 00 00 
05204     08 00 00 00 
05208     08 00 00 00 | 	byte	$08, $00, $00, $00, $08, $00, $00, $00, $08, $00, $00, $00, $08, $00, $00, $00
0520c     0C 00 00 00 
05210     08 00 00 00 
05214     40 01 00 00 
05218     64 00 00 00 | 	byte	$0c, $00, $00, $00, $08, $00, $00, $00, $40, $01, $00, $00, $64, $00, $00, $00
0521c     E0 01 00 00 
05220     F2 CD 33 13 
05224     FB 53 92 01 
05228     F0 01 00 00 | 	byte	$e0, $01, $00, $00, $f2, $cd, $33, $13, $fb, $53, $92, $01, $f0, $01, $00, $00
0522c     18 00 00 00 
05230     30 00 00 00 
05234     18 00 00 00 
05238     30 03 00 00 | timings384      long   24,   48,    24,     816,      8,     8,     8,        8,      12,     8,    384,  100,   480,     286363636,   %1_010101__01_0011_1010__1111_1011,   496
0523c     08 00 00 00 
05240     08 00 00 00 
05244     08 00 00 00 
05248     08 00 00 00 | 	byte	$08, $00, $00, $00, $08, $00, $00, $00, $08, $00, $00, $00, $08, $00, $00, $00
0524c     0C 00 00 00 
05250     08 00 00 00 
05254     80 01 00 00 
05258     64 00 00 00 | 	byte	$0c, $00, $00, $00, $08, $00, $00, $00, $80, $01, $00, $00, $64, $00, $00, $00
0525c     E0 01 00 00 
05260     F4 8F 11 11 
05264     FB 3A 55 01 
05268     F0 01 00 00 | 	byte	$e0, $01, $00, $00, $f4, $8f, $11, $11, $fb, $3a, $55, $01, $f0, $01, $00, $00
0526c     20 00 00 00 
05270     40 00 00 00 
05274     22 00 00 00 
05278     80 03 00 00 | timings448      long   32,   64,    34,     896,      0,     8,     0,        8,      12,     8,    448,  112,   496,     322162162,   %1_100100__10_0101_0011__1111_1011,   496
0527c     00 00 00 00 
05280     08 00 00 00 
05284     00 00 00 00 
05288     08 00 00 00 | 	byte	$00, $00, $00, $00, $08, $00, $00, $00, $00, $00, $00, $00, $08, $00, $00, $00
0528c     0C 00 00 00 
05290     08 00 00 00 
05294     C0 01 00 00 
05298     70 00 00 00 | 	byte	$0c, $00, $00, $00, $08, $00, $00, $00, $c0, $01, $00, $00, $70, $00, $00, $00
0529c     F0 01 00 00 
052a0     F2 CD 33 13 
052a4     FB 53 92 01 
052a8     F0 01 00 00 | 	byte	$f0, $01, $00, $00, $f2, $cd, $33, $13, $fb, $53, $92, $01, $f0, $01, $00, $00
052ac                 | 
052ac     10 00 00 00 
052b0     50 00 00 00 
052b4     14 00 00 00 
052b8     00 04 00 00 | timings512      long   16,   80,    20,    1024,    112,     8,     48,      16,      16,    16,    544,  100,   480,     354693878,   %1_110000__11_0110_1100__1111_1011,   576
052bc     70 00 00 00 
052c0     08 00 00 00 
052c4     30 00 00 00 
052c8     10 00 00 00 | 	byte	$70, $00, $00, $00, $08, $00, $00, $00, $30, $00, $00, $00, $10, $00, $00, $00
052cc     10 00 00 00 
052d0     10 00 00 00 
052d4     20 02 00 00 
052d8     64 00 00 00 | 	byte	$10, $00, $00, $00, $10, $00, $00, $00, $20, $02, $00, $00, $64, $00, $00, $00
052dc     E0 01 00 00 
052e0     F6 32 24 15 
052e4     FB 6C C3 01 
052e8     40 02 00 00 | 	byte	$e0, $01, $00, $00, $f6, $32, $24, $15, $fb, $6c, $c3, $01, $40, $02, $00, $00
052ec     10 00 00 00 
052f0     50 00 00 00 
052f4     14 00 00 00 
052f8     00 04 00 00 | timings560      long   16,   80,    20,    1024,    112,     4,     48,      16,      16,    16,    544,  200,   480,     354693878,   %1_110000__11_0110_1100__1111_1011,   576
052fc     70 00 00 00 
05300     04 00 00 00 
05304     30 00 00 00 
05308     10 00 00 00 | 	byte	$70, $00, $00, $00, $04, $00, $00, $00, $30, $00, $00, $00, $10, $00, $00, $00
0530c     10 00 00 00 
05310     10 00 00 00 
05314     20 02 00 00 
05318     C8 00 00 00 | 	byte	$10, $00, $00, $00, $10, $00, $00, $00, $20, $02, $00, $00, $c8, $00, $00, $00
0531c     E0 01 00 00 
05320     F6 32 24 15 
05324     FB 6C C3 01 
05328     40 02 00 00 | 	byte	$e0, $01, $00, $00, $f6, $32, $24, $15, $fb, $6c, $c3, $01, $40, $02, $00, $00
0532c                 | 
0532c                 | 
0532c     00 75 C7 97 
05330     27 47 F6 0A 
05334     05 79 CB 9B 
05338     2B 4B EA 0F | vgacolors       byte   0, 117, 199, 151, 39, 71, 246, 10, 5, 121, 203, 155, 43, 75, 234, 15
0533c                 | 
0533c     28 14 64 FD | hdmi            setq    #10
05340     00 D9 06 FB |                 rdlong  framebuf,  ptra                 'read pointers
05344                 | 
05344     29 FE 65 FD |                 setq2   #255
05348     72 01 00 FB |                 rdlong  $000, paletteptr                'read palette
0534c     02 00 00 FF 
05350     00 E4 06 F1 |                 add     paletteptr,##1024                ' Atari type 256 colors
05354     29 1E 64 FD |                 setq2   #15
05358     72 C1 03 FB |                 rdlong  480,paletteptr                  ' 16 color palette at 480
0535c     00 00 00 FF 
05360     40 E4 06 F1 |                 add     paletteptr,##64                 '
05364     29 06 64 FD |                 setq2   #3
05368     72 81 03 FB |                 rdlong  448,paletteptr                  ' 4  color palette at 448
0536c     00 00 00 FF 
05370     10 E4 06 F1 |                 add     paletteptr,##16
05374     29 02 64 FD |                 setq2   #1
05378     72 41 03 FB |                 rdlong  416,paletteptr                  ' 2 color palette at 416
0537c                 | 
0537c                 | 
0537c     00 14 6F FC |                 wrlong  #aend,#0                         'write driver length to hub#0: DEBUG/demo
05380     3C 00 66 FD |                 setcmod #$100                           'enable HDMI mode
05384     07 F4 06 F6 |                 mov     ii,#7
05388     06 F4 66 F0 |                 shl     ii,#6
0538c     76 F5 02 F1 |                 add     ii,hbase
05390     58 F4 62 FD |                 drvl    ii                                 '#7<<6 + hdmi_base      ' enable HDMI pins
05394     7B 0B 80 FF 
05398     7A 01 0B FC |                 wrpin   ##%10110_1111_0111_10_00000_0, ii  '#7<<6 + hdmi_base      ' a '123 ohm BITDAC for pins
0539c                 | 
0539c     66 66 86 FF 
053a0     1D 9A 65 FD |                 setxfrq ##$0CCCCCCC+1                   'set streamer freq to 1/10th clk
053a4                 | 
053a4                 | 
053a4                 | ''--------  frame rendering main loop  ---------------------------------------------------
053a4                 | 
053a4                 | p101
053a4     28 14 64 FD |                 setq    #10
053a8     00 D9 06 FB |                 rdlong  framebuf,  ptra
053ac     28 1E 64 FD |                 setq    #15
053b0     71 95 02 FB |                 rdlong  m_bs,modeptr                     ' read timings
053b4     6E 93 02 FB |                 rdlong border,borderptr
053b8                 | 
053b8     01 BE 06 F1 |                 add     frames,#1
053bc     74 F1 02 F6 |                 mov     dlptr2,dlptr
053c0                 | 
053c0     70 C1 02 FB |                 rdlong  cursorx, cursorptr               ' read cursor position
053c4     60 C3 EA F8 |                 getbyte cursory, cursorx,#1              ' y position at byte #1
053c8     60 BD F2 F8 |                 getbyte cursorsh,cursorx,#2              ' shape at byte #2
053cc     FF C0 06 F5 |                 and     cursorx,#255                     ' clear the cursor x varioble from y and shape
053d0                 |  '' mailbox
053d0     73 FF 02 FB |                 rdlong  t1,commandptr                    ' A mailbox interface, read the command
053d4     04 E6 06 F1 |                 add     commandptr,#4
053d8     73 01 03 FB |                 rdlong  t2,commandptr                    ' read the argument
053dc     04 E6 86 F1 |                 sub     commandptr,#4                    ' restore the pionter
053e0     00 FF 1E F2 |                 cmp     t1,#256  wcz                     '
053e4     7F 01 33 CC |          if_lt  wrlut   t2,t1                            ' command 0..255-> set the color in LUT
053e8     01 FF 06 F6 |                 mov     t1, #257                         ' 257=idle
053ec     73 FF 62 FC |                 wrlong  t1,commandptr                    ' write 257 to hub variable so the program can test if command was done
053f0                 |  '' up porch
053f0                 | 
053f0     45 F9 02 F6 |                 mov     hsync0,sync_000                  '
053f4     46 FB 02 F6 |                 mov     hsync1,sync_001
053f8     1B A2 46 FB |                 callpa  i_upporch ,#blank
053fc     6F 01 68 FC |                 wrlong  #0,vblankptr
05400                 | 
05400                 | '' cursor blinking
05400                 | 
05400     04 BE 0E F4 |                 testb   frames,#4 wz                     ' cursor blinks at framerate/16, todo: define
05404     81 C0 06 A6 |          if_z   mov     cursorx,#129                     ' to switch the cursor off, move it out of the screen
05408                 | 
05408                 | '' main screen
05408                 | 
05408     00 B8 06 F6 |                 mov linenum,#0
0540c                 | 
0540c     78 F3 02 FB | p301            rdlong  dl,dlptr2
05410                 | 
05410     79 F7 02 F6 |                 mov     framebuf2,dl                    ' read a line start in the framebuffer from DL entry
05414     0E F6 46 F0 |                 shr     framebuf2,#14
05418     02 F6 66 F0 |                 shl     framebuf2,#2
0541c                 | 
0541c     79 FF E2 F8 |                 getbyte t1,dl,#0
05420     00 FE 0E F2 |                 cmp     t1,#0 wz
05424     34 00 90 AD |     if_z        jmp     #borderline
05428                 | 
05428     00 F2 16 F4 |                  testb   dl,#0  wc     ' bit 0 set = text OR extended:TODO
0542c     50 00 90 CD |           if_c   jmp     #textline
05430     50 02 90 3D |           if_nc  jmp     #graphline
05434                 | '
05434     01 B8 06 F1 | p302            add     linenum,#1
05438     04 F0 06 F1 |                 add     dlptr2,#4
0543c     59 B9 0A F2 |                 cmp     linenum,i_totalvis  wz
05440     C8 FF 9F 5D |          if_nz  jmp     #p301
05444                 | 
05444     6F 03 68 FC | p112            wrlong  #1,vblankptr
05448     07 A6 46 FB |                 callpa  i_downporch ,#blank             'bottom blanks
0544c                 | 
0544c     47 F9 02 F6 |                 mov     hsync0,sync_222                 'vsync on
05450     48 FB 02 F6 |                 mov     hsync1,sync_223
05454     04 A4 46 FB |                 callpa  i_vsync,#blank                  'vertical sync blanks
05458     48 FF 9F FD |                 jmp     #p101
0545c                 | 
0545c                 | '' ---------------  END of frame rendering loop -------------------------------------------
0545c                 | 
0545c                 | 
0545c     14 00 B0 FD | borderline      call    #hsync                      ' make a border
05460     49 9B C2 FC |                 xcont   m_vi,border
05464     CC FF 9F FD |                 jmp     #p302
05468                 | 
05468                 | 
05468     08 00 B0 FD | blank           call    #hsync                          'blank lines
0546c     7C 9B C2 FC |                 xcont   m_vi,hsync0
05470     FD ED 6F 0B |         _ret_   djnz    pa,#blank
05474                 | 
05474     7C 95 C2 FC | hsync           xcont   m_bs,hsync0                     'horizontal sync
05478     7D 97 B2 FC |                 xzero   m_sn,hsync1
0547c     7C 99 C2 0C |         _ret_   xcont   m_bv,hsync0
05480                 | 
05480                 | 
05480                 | 
05480                 | ''--%aaaa_aaaa_aaaa_aaaa_aazz_nnnn_llll_ll_01 - txt
05480                 |   '' aaaa_aaaa_aaaa_aaaa_aazz_rrrr_rrrr_cc_10 - graph
05480                 |   '' aaaa_aaaa_aaaa-aaaa_aarr_rrrr_rrrr_rr_11 - extended, next long to read
05480                 | 
05480                 | '' Display a text line DL[31..12]=addr, nibble #1=textline, zoom: todo
05480                 | 
05480     60 C7 02 F6 | textline        mov     cursorpos2,cursorx              ' we need another var for cursor as this code will repeat 16x for every char line
05484                 | 
05484     79 FD 52 F8 |                 getnib  fontline,dl,#2                 ' fontline is 0 to 15, a line in font def
05488     79 13 5B F8 |                 getnib  zoom, dl,#3
0548c     03 12 07 F5 |                 and             zoom, #3
05490                 | 
05490                 | 
05490                 | 
05490     79 B7 02 F6 |                 mov     linestart,dl                    ' linestart will be used for checking cursor y and compute line start addr in the buffer
05494     02 B6 46 F0 |                 shr     linestart,#2                    ' scanline to char line
05498     3F B6 06 F5 |                 and     linestart,#63
0549c     61 B7 0A F2 |                 cmp     linestart,cursory wz            ' if the cursor is not here
054a0     81 C6 06 56 |           if_nz mov     cursorpos2,#129                 ' move it out of the screen
054a4                 | 
054a4     CC FF BF FD |                 call    #hsync                          ' now call hsync to gain some time between xconts
054a8                 | 
054a8                 |                        ' if fontline =0, get a border color
054a8                 | 
054a8     4E FF 32 F9 | p102            getword t1,m_border,#0
054ac     00 FE 0E F2 |                 cmp     t1, #0 wz
054b0     49 9D C2 5C |           if_nz xcont   m_border,border                 ' display a left border if exists
054b4                 | 
054b4     5E FD 1A F2 |                 cmp     fontline,cursorsh wcz           ' if the cursor have to be not displayed due to its shape
054b8     81 C4 06 C6 |           if_c  mov     cursorpos,#129                  ' move it out of the screen
054bc     63 C5 02 36 |          if_nc  mov     cursorpos,cursorpos2
054c0     01 C4 06 F1 |                 add     cursorpos,#1                    ' we will substract #1 below so compensate this here
054c4     6D 01 03 F6 |                 mov     t2,fontbuf                      ' font definition pointer
054c8     7E 01 03 F1 |                 add     t2,fontline                     ' add a current font line
054cc     4F B5 02 F6 |                 mov m_lut2, m_lut1
054d0     67 B5 02 F1 |                 add m_lut2, lutt1
054d4     55 0B 03 F6 |                 mov cpl2,i_cpl
054d8                 | 
054d8     02 12 0F F2 |                cmp zoom,#2 wz
054dc     E4 00 90 AD |           if_z jmp #p420
054e0     01 12 0F F2 |                cmp zoom,#1 wz
054e4     64 00 90 AD |           if_z jmp #p410
054e8     00 12 0F F2 |                 cmp zoom,#0 wz
054ec     04 00 90 AD |           if_z jmp #p400
054f0     50 01 90 FD |                jmp #p430
054f4                 | 
054f4                 |                    '
054f4                 |  ''---------------------------------------------------------------------------------------------------------
054f4     7B 0D 03 FB |  p400                   rdlong  char,framebuf2          ' read a long char                          '1
054f8     86 0F F3 F8 |                         getbyte backcolor,char,#2       ' byte #2 - background color                '2
054fc     86 11 FB F8 |                         getbyte charcolor,char,#3       ' byte #3 - foreground color                '3
05500     86 0D E3 F8 |                         getbyte char,char, #0           ' word #0 - char code                       '4
05504     04 F6 06 F1 |                         add     framebuf2,#4            ' point to the next long                    '5
05508     04 0C 67 F0 |                         shl     char,#4                 ' 1 char=16 bytes in font def               '6
0550c     80 0D 03 F1 |                         add     char,t2                 ' add this to font/line pointer             '7
05510     86 FF C2 FA |                         rdbyte  t1,char                 ' and get 8 pixels prom there               '8
05514     01 C4 8E F1 |                         sub     cursorpos,#1 wz         ' if there is a cursor                      '9
05518     FF FE 66 A5 |                   if_z  xor     t1, #$FF                ' reverse the colors                        '10
0551c                 | 
0551c     7F B5 C2 FC |                         xcont m_lut2,t1
05520                 | 
05520     87 07 A3 FA |                         rdlut   t5,backcolor            ' read a background color from palette      '13
05524     5D 07 33 FC |                         wrlut   t5,lutaddr              ' and write it to LUT #0 or #32             '14
05528     01 BA 06 F1 |                         add     lutaddr,#1                                                          '15
0552c     88 07 A3 FA |                         rdlut   t5,charcolor            ' the same for the foreground               '16
05530     5D 07 33 FC |                         wrlut   t5,lutaddr                                                          '17
05534     01 BA 86 F1 |                         sub     lutaddr,#1
05538                 | 
05538     10 B4 E6 F4 |                         bitnot  m_lut2,#16                                                          '19
0553c     10 9E E6 F4 |                         bitnot  m_lut1,#16                                                          '19
05540     20 BA 66 F5 |                         xor     lutaddr,#32             ' use LUT #0-1 and 32-33                    '20
05544                 | 
05544     EB 0B 6F FB |                         djnz   cpl2,#p400
05548     28 01 90 FD |  p401                   jmp    #p103
0554c                 | 
0554c                 | ''------------------------------------------------------------------------------------------------------------
0554c                 | 
0554c     01 0A 47 F0 |  p410                   shr cpl2,#1
05550                 | 
05550                 | ''---------------------------------------------------------------------------------------------------------
05550     7B 0D 03 FB |  p412                   rdlong  char,framebuf2          ' read a long char                          '1
05554     86 0F F3 F8 |                         getbyte backcolor,char,#2       ' byte #2 - background color                '2
05558     86 11 FB F8 |                         getbyte charcolor,char,#3       ' byte #3 - foreground color                '3
0555c     86 0D E3 F8 |                         getbyte char,char, #0           ' word #0 - char code                       '4
05560     04 F6 06 F1 |                         add     framebuf2,#4            ' point to the next long                    '5
05564     04 0C 67 F0 |                         shl     char,#4                 ' 1 char=16 bytes in font def               '6
05568     80 0D 03 F1 |                         add     char,t2                 ' add this to font/line pointer             '7
0556c     86 FF C2 FA |                         rdbyte  t1,char                 ' and get 8 pixels prom there               '8
05570     01 C4 8E F1 |                         sub     cursorpos,#1 wz         ' if there is a cursor                      '9
05574     FF FE 66 A5 |                   if_z  xor     t1, #$FF                ' reverse the colors                        '10
05578                 | 
05578                 | 
05578     7F 03 4B F8 |                         getnib t3,t1,#1                   ' 4 pixels to t3                                              '1  - +
0557c     7F FF 42 F8 |                         getnib t1,t1,#0                   ' 4 pixels to t1                                                      '2  - +
05580     63 FE 62 FD |                         mergew t1                         ' make 01010101 from 1111                                     '3  - +
05584     03 FE 06 FA |                         mul t1,#3
05588     7F B5 C2 FC |                         xcont m_lut2,t1
0558c     87 07 A3 FA |                         rdlut   t5,backcolor            ' read a background color from palette      '13
05590     5D 07 33 FC |                         wrlut   t5,lutaddr              ' and write it to LUT #0 or #32             '14
05594     01 BA 06 F1 |                         add     lutaddr,#1                                                          '15
05598     88 07 A3 FA |                         rdlut   t5,charcolor            ' the same for the foreground               '16
0559c     5D 07 33 FC |                         wrlut   t5,lutaddr                                                          '17
055a0     01 BA 86 F1 |                         sub     lutaddr,#1
055a4     63 02 63 FD |                         mergew t3
055a8     03 02 07 FA |                         mul t3,#3
055ac     81 B5 C2 FC |                         xcont m_lut2,t3
055b0                 | 
055b0     10 B4 E6 F4 |                         bitnot  m_lut2,#16                                                          '19
055b4     10 9E E6 F4 |                         bitnot  m_lut1,#16                                                          '19
055b8                 | 
055b8     20 BA 66 F5 |                         xor     lutaddr,#32             ' use LUT #0-1 and 32-33                    '20
055bc                 | 
055bc     E4 0B 6F FB |                         djnz   cpl2,#p412
055c0     B0 00 90 FD |  p411                   jmp    #p103
055c4                 | 
055c4                 | ''------------------------------------------------------------------------------------------------------------
055c4                 | 
055c4     02 0A 47 F0 |  p420                   shr cpl2,#2
055c8                 | 
055c8                 | ''---------------------------------------------------------------------------------------
055c8     7B 0D 03 FB |  p422                   rdlong  char,framebuf2          ' read a long char                          '1
055cc     86 0F F3 F8 |                         getbyte backcolor,char,#2       ' byte #2 - background color                '2
055d0     86 11 FB F8 |                         getbyte charcolor,char,#3       ' byte #3 - foreground color                '3
055d4     86 0D E3 F8 |                         getbyte char,char, #0           ' word #0 - char code                       '4
055d8     04 F6 06 F1 |                         add     framebuf2,#4            ' point to the next long                    '5
055dc     04 0C 67 F0 |                         shl     char,#4                 ' 1 char=16 bytes in font def               '6
055e0     80 0D 03 F1 |                         add     char,t2                 ' add this to font/line pointer             '7
055e4     86 FF C2 FA |                         rdbyte  t1,char                 ' and get 8 pixels prom there               '8
055e8     01 C4 8E F1 |                         sub     cursorpos,#1 wz         ' if there is a cursor                      '9
055ec     FF FE 66 A5 |                   if_z  xor     t1, #$FF                ' reverse the colors                        '10
055f0                 | 
055f0     61 FE 62 FD |                         mergeb t1
055f4     7F 03 3B F9 |                         getword t3,t1,#1
055f8     0F FE 06 FA |                         mul t1,#15
055fc     7F B5 C2 FC |                         xcont m_lut2,t1
05600                 | 
05600     87 07 A3 FA |                         rdlut   t5,backcolor            ' read a background color from palette      '13
05604     5D 07 33 FC |                         wrlut   t5,lutaddr              ' and write it to LUT #0 or #32             '14
05608     01 BA 06 F1 |                         add     lutaddr,#1                                                          '15
0560c     88 07 A3 FA |                         rdlut   t5,charcolor            ' the same for the foreground               '16
05610     5D 07 33 FC |                         wrlut   t5,lutaddr                                                          '17
05614     01 BA 86 F1 |                         sub     lutaddr,#1
05618                 | 
05618     7F 05 EB F8 |                         getbyte t4,t1,#1        '
0561c     82 B5 C2 FC |                         xcont m_lut2,t4                                                                                                           '
05620                 | 
05620     0F 02 07 FA |                         mul t3,#15
05624     81 B5 C2 FC |                         xcont m_lut2,t3
05628                 | 
05628     81 07 EB F8 |                         getbyte t5,t3,#1
0562c     83 B5 C2 FC |                         xcont m_lut2, t5
05630     10 B4 E6 F4 |                         bitnot  m_lut2,#16                                                          '19
05634     10 9E E6 F4 |                         bitnot  m_lut1,#16                                                          '19
05638                 | 
05638     20 BA 66 F5 |                         xor     lutaddr,#32             ' use LUT #0-1 and 32-33                    '20
0563c                 | 
0563c     E2 0B 6F FB |                         djnz   cpl2,#p422
05640     30 00 90 FD |  p421                   jmp    #p103
05644                 | 
05644                 | '--------------------------------------------------------------------------------------------------------------
05644                 | 
05644     7B 0D 03 FB |  p430                   rdlong  char,framebuf2          ' read a long char                          '1
05648     86 0F F3 F8 |                         getbyte backcolor,char,#2       ' byte #2 - background color                '2
0564c     86 11 FB F8 |                         getbyte charcolor,char,#3       ' byte #3 - foreground color                '3
05650                 | 
05650     00 B4 C6 FC |                         xcont m_lut2,#0
05654                 | 
05654     87 07 A3 FA |                         rdlut   t5,backcolor            ' read a background color from palette      '13
05658     5D 07 33 FC |                         wrlut   t5,lutaddr              ' and write it to LUT #0 or #32             '14
0565c     01 BA 06 F1 |                         add     lutaddr,#1                                                          '15
05660     88 07 A3 FA |                         rdlut   t5,charcolor            ' the same for the foreground               '16
05664     5D 07 33 FC |                         wrlut   t5,lutaddr                                                          '17
05668     01 BA 86 F1 |                         sub     lutaddr,#1
0566c                 | 
0566c     F5 0B 6F FB |                         djnz   cpl2,#p430
05670     00 00 90 FD |  p431                   jmp    #p103
05674                 | 
05674                 | ''------------------------------------------------------------------------------------------------------------
05674                 | 
05674                 | 
05674                 | 
05674     4E FF 32 F9 | p103            getword  t1,m_border,#0
05678     00 FE 0E F2 |                 cmp      t1, #0 wz
0567c     49 9D C2 5C |                 if_nz    xcont   m_border,border            'display a right border if exists
05680                 | 
05680     B0 FD 9F FD |                 jmp #p302
05684                 | 
05684                 | '' -------------------------------------- END of text line ---------------------------------
05684                 | 
05684                 |   '' aaaa_aaaa_aaaa_aaaa_aazz_rrrr_rrrr_cc_10 - graph - display a graphics line
05684                 | 
05684     EC FD BF FD | graphline       call    #hsync                          ' now call hsync to gain some time between xconts
05688                 | 
05688                 | 
05688     4E FF 32 F9 | p202            getword t1,m_border,#0
0568c     00 FE 0E F2 |                 cmp     t1, #0 wz
05690     49 9D C2 5C |           if_nz xcont   m_border,border                 ' display a left border if exists
05694                 | 
05694                 | '----------------------------------------- display pixels
05694                 | 
05694     4F B5 02 F6 |                 mov     m_lut2,m_lut1                   ' m_lut1 loaded from hub timing block, pixel per long
05698     55 0B 03 F6 |                 mov     cpl2,i_cpl                      ' i_cpl in graphic modes is longs per line
0569c                 | 
0569c     79 13 5B F8 |                 getnib  zoom, dl,#3
056a0     03 12 07 F5 |                 and             zoom, #3                        ' get a horizontal zoom for the line
056a4                 | 
056a4     79 B7 02 F6 |                 mov     colordepth,dl                   ' get a color depth, reuse linestart var f         '
056a8     0C B6 06 F5 |                 and     colordepth,#12
056ac                 | 
056ac     00 B6 0E F2 |                 cmp     colordepth,#%0000 wz            ' 1 bpp modes
056b0     68 B5 02 A1 |           if_z  add     m_lut2,lutg1
056b4     68 00 90 AD |           if_z  jmp     #p240
056b8                 | 
056b8     04 B6 0E F2 |                 cmp     colordepth,#%0100 wz            ' 2 bpp modes
056bc     69 B5 02 A1 |           if_z  add     m_lut2,lutg2
056c0     9C 00 90 AD |           if_z  jmp     #p250
056c4                 | 
056c4     08 B6 0E F2 |                 cmp     colordepth,#%1000 wz            ' 4 bpp modes
056c8     6A B5 02 A1 |           if_z  add     m_lut2,lutg4
056cc     00 01 90 AD |           if_z  jmp     #p260
056d0                 | 
056d0     6B B5 02 F1 |                 add m_lut2,lutg8                        ' 8 bpp modes
056d4                 | 
056d4                 | '' --- 8 bit color modes
056d4                 | 
056d4     00 12 0F F2 |                 cmp zoom, #%00 wz   '256 colors, zoom x1
056d8     54 01 90 AD |                 if_z jmp #p251      'there is an universal loop for 1x zoom at p251, saves one long of skip pattern
056dc                 | 
056dc     01 12 0F F2 |                 cmp zoom, #%01 wz   '256 colors, zoom x2
056e0     2A 08 07 A6 |            if_z mov skippattern,#%101010
056e4                 |  '
056e4     02 12 0F F2 |                 cmp zoom, #%10 wz   '256 colors, zoom x4
056e8     19 08 07 A6 |            if_z mov skippattern,#%011001
056ec                 |  '
056ec     03 12 0F F2 |                 cmp zoom, #%11 wz   '256 colors, zoom x8
056f0     11 08 07 A6 |           if_z  mov skippattern,#%010001
056f4     01 0A 47 A0 |           if_z  shr cpl2,#1         ' if 8x zoom, 2 xconts used in one loop, so divide loop count by 2
056f8                 |               '
056f8                 | 
056f8     7B 0D 03 FB | p231               rdlong  char,framebuf2
056fc     32 08 63 FD |                    skipf skippattern
05700     50 0C FF F9 |                    movbyts char,#%01010000         '0 1 1
05704     00 0C FF F9 |                    movbyts char,#%00000000         '1 0 0
05708     86 B5 C2 FC |                    xcont   m_lut2,char             '0 0 0
0570c     86 B5 C2 FC |                    xcont   m_lut2,char             '1 1 0
05710                 |               '    add     framebuf2,#4            '1 1 1
05710     02 F6 06 F1 |                    add     framebuf2,#2                    '0 1 1
05714     01 F6 06 F1 |                    add     framebuf2,#1                '1 0 0
05718     F7 0B 6F FB |                    djnz    cpl2,#p231
0571c                 | 
0571c     20 01 90 FD |                jmp    #p203
05720                 | 
05720                 | '' --- 1 bit color modes
05720                 | 
05720     00 12 0F F2 | p240          cmp zoom, #%00 wz     '2 colors, zoom x1
05724     08 01 90 AD |        if_z   jmp #p251              'there is an universal loop for 1x zoom at p251, saves one long of skip pattern
05728                 | 
05728     01 12 0F F2 |               cmp zoom, #%01 wz     '2 colors, zoom x2
0572c     13 08 07 A6 |        if_z   mov skippattern,#%10011
05730     08 08 07 56 |        if_nz  mov skippattern,#%01000
05734                 | 
05734                 | 
05734     7B 0D E3 FA | p241               rdword  char,framebuf2
05738     44 0C FF F9 |                    movbyts char,#%01000100
0573c     63 0C 63 FD |                    mergew  char
05740     32 08 63 FD |                    skipf skippattern
05744     44 0C FF F9 |                    movbyts char,#%01000100         ' 1 0
05748     63 0C 63 FD |                    mergew  char                    ' 1 0
0574c     86 B5 C2 FC |                    xcont   m_lut2,char             ' 0 0
05750     02 F6 06 F1 |                    add     framebuf2,#2                    ' 0 1
05754     01 F6 06 F1 |                    add     framebuf2,#1                ' 1 0
05758     F6 0B 6F FB |                    djnz   cpl2,#p241
0575c                 | 
0575c                 | 
0575c     E0 00 90 FD |                jmp    #p203
05760                 | 
05760                 | '' --- 2 bit color modes
05760                 | 
05760     00 12 0F F2 | p250          cmp zoom, #%00 wz     '4 colors, zoom x1
05764     C8 00 90 AD |        if_z   jmp #p251
05768                 | 
05768     01 12 0F F2 |               cmp zoom, #%01 wz     '4 colors, zoom x2
0576c     30 00 90 AD |        if_z   jmp #p252
05770                 | 
05770                 | 
05770     7B 0D C3 FA | p254               rdbyte char,framebuf2
05774     04 06 07 F6 |                    mov  t5,#4
05778     02 0C 67 F0 | p255               shl  char,#2
0577c     86 FF 52 F8 |                    getnib  t1,char,#2
05780     03 FE 06 F5 |                    and     t1,#3
05784     55 FE 06 FA |                    mul     t1,#$55
05788     7F 01 03 F9 |                    rolbyte  t2,t1,#0
0578c     FA 07 6F FB |                    djnz    t5,#p255
05790     80 B5 C2 FC |                    xcont   m_lut2,t2
05794     01 F6 06 F1 |                    add     framebuf2,#1
05798     F5 0B 6F FB |                    djnz    cpl2,#p254
0579c     A0 00 90 FD |                    jmp     #p203
057a0                 | 
057a0     7B 0D E3 FA | p252               rdword char,framebuf2
057a4     08 06 07 F6 |                    mov  t5,#8
057a8     02 0C 67 F0 | p253               shl  char,#2
057ac     86 FF 62 F8 |                    getnib  t1,char,#4
057b0     03 FE 06 F5 |                    and     t1,#3
057b4     05 FE 06 FA |                    mul     t1,#5
057b8     7F 01 83 F8 |                    rolnib  t2,t1,#0
057bc     FA 07 6F FB |                    djnz    t5,#p253
057c0     80 B5 C2 FC |                    xcont   m_lut2,t2
057c4     02 F6 06 F1 |                    add     framebuf2,#2
057c8     F5 0B 6F FB |                    djnz    cpl2,#p252
057cc     70 00 90 FD |                    jmp     #p203
057d0                 | 
057d0                 | '' ------ 4 bit color modes
057d0                 | 
057d0     00 12 0F F2 | p260          cmp zoom, #%00 wz     '4 colors, zoom x1, the same loop as 2bpp
057d4     58 00 90 AD |        if_z   jmp #p251
057d8                 | 
057d8     01 12 0F F2 |               cmp zoom, #%01 wz     '4 colors, zoom x2
057dc     2C 00 90 AD |        if_z   jmp #p262
057e0                 | 
057e0                 | 
057e0     7B 0D C3 FA | p263               rdbyte char,framebuf2
057e4     02 0A DC FC |                            rep #5,#2
057e8     86 01 8B F8 |                              rolnib t2,char,#1
057ec     86 01 8B F8 |                                  rolnib t2,char,#1
057f0     86 01 8B F8 |                              rolnib t2,char,#1
057f4     86 01 8B F8 |                                  rolnib t2,char,#1
057f8     04 0C 67 F0 |                              shl char,#4
057fc     80 B5 C2 FC |                    xcont   m_lut2,t2
05800     01 F6 06 F1 |                    add     framebuf2,#1
05804     F6 0B 6F FB |                    djnz    cpl2,#p263
05808     34 00 90 FD |                    jmp     #p203
0580c                 | 
0580c     7B 0D E3 FA | p262               rdword  char,framebuf2
05810     04 06 DC FC |                            rep #3,#4
05814     86 01 9B F8 |                              rolnib t2,char,#3
05818     86 01 9B F8 |                                  rolnib t2,char,#3
0581c     04 0C 67 F0 |                              shl char,#4
05820     80 B5 C2 FC |                    xcont   m_lut2,t2
05824     02 F6 06 F1 |                    add     framebuf2,#2
05828     F8 0B 6F FB |                    djnz    cpl2,#p262
0582c     10 00 90 FD |                    jmp     #p203
05830                 | 
05830                 | ''---------- all color modes without zoom
05830                 | 
05830     7B 0D 03 FB | p251               rdlong  char,framebuf2
05834     86 B5 C2 FC |                    xcont   m_lut2,char
05838     04 F6 06 F1 |                    add     framebuf2,#4
0583c     FC 0B 6F FB |                    djnz    cpl2,#p251     ' no jmp #p203, not needed here
05840                 | 
05840                 |  ''-----------------------------------------------------------------------------------------
05840     4E FF 32 F9 | p203            getword  t1,m_border,#0
05844     00 FE 0E F2 |                 cmp      t1, #0 wz
05848     49 9D C2 5C |                 if_nz    xcont   m_border,border            'display a right border if exists
0584c                 | 
0584c     E4 FB 9F FD |                 jmp #p302
05850                 | 
05850                 | '' -------------------------------------- END of graph  line ---------------------------------
05850                 | 
05850                 | '' consts and vars
05850                 | 
05850     52 4D 35 D5 | sync_000        long    %1101010100_1101010100_1101010100_10    '
05854     AE 42 35 D5 | sync_001        long    %1101010100_1101010100_0010101011_10    '        hsync
05858     52 45 15 55 | sync_222        long    %0101010100_0101010100_0101010100_10    'vsync
0585c     AE 4A 15 55 | sync_223        long    %0101010100_0101010100_1010101011_10    'vsync + hsync
05860                 | 
05860     00 2C 1A 00 | border          long    %00000000_00011010_00101100_00000000
05864                 | 
05864                 | '------ these longs will be set by setmode function
05864                 | 
05864     00 00 00 00 | m_bs            long    0        'blanks before sync
05868     00 00 00 00 | m_sn            long    0        'sync
0586c     00 00 00 00 | m_bv            long    0        'blanks before visible
05870     00 00 00 00 | m_vi            long    0        'visible pixels #
05874     00 00 00 00 | m_border        long    0        'left/right borders
05878     00 00 00 00 | m_lut1          long    0        'characters
0587c     00 00 00 00 | i_vborder       long    0        'up/down borders
05880     00 00 00 00 | i_upporch       long    0        'up porch lines
05884     00 00 00 00 | i_vsync         long    0        'vsync lines
05888     00 00 00 00 | i_downporch     long    0        'down porch lines
0588c     00 00 00 00 | i_modenum       long    0        'mode #
05890     00 00 00 00 | i_cpl           long    0        'chars/longs per line
05894     00 00 00 00 | i_lines         long    0        'scanlines #
05898     00 00 00 00 | i_clock         long    0
0589c     00 00 00 00 | i_hubset        long    0
058a0     00 00 00 00 | i_totalvis      long    0
058a4                 | 
058a4                 | '-------------------------------------
058a4                 | 
058a4     00 00 00 00 | m_lut2          long    0
058a8                 | 
058a8                 | colordepth
058a8     00 00 00 00 | linestart       long    0
058ac     00 00 00 00 | linenum         long    0
058b0     00 01 00 00 | lutaddr         long    256
058b4                 | 
058b4     0E 00 00 00 | cursorsh        long    14
058b8     00 00 00 00 | frames          long    0
058bc     00 00 00 00 | cursorx         long    0
058c0     00 00 00 00 | cursory         long    0
058c4     00 00 00 00 | cursorpos       long    0
058c8     00 00 00 00 | cursorpos2      long    0
058cc     00 00 00 00 | fontstart       long    0
058d0     00 00 00 00 | border2 long 0
058d4     00 00 81 70 | lutiv           long $70810000
058d8     00 00 88 00 | lutt1           long $00880000
058dc     00 00 8D 00 | lutg1           long $008d0000
058e0     00 00 8E 10 | lutg2           long $108e0000
058e4     00 00 8F 20 | lutg4           long $208f0000
058e8     00 00 80 30 | lutg8           long $30800000
058ec                 | framebuf        res     1
058ec                 | fontbuf         res     1
058ec                 | borderptr       res     1
058ec                 | vblankptr       res     1
058ec                 | cursorptr       res     1
058ec                 | modeptr         res     1
058ec                 | paletteptr      res     1
058ec                 | commandptr      res     1
058ec                 | dlptr                   res     1
058ec                 | fontnumptr      res     1
058ec                 | hbase           res     1
058ec                 | borderptr2      res     1
058ec                 | dlptr2 res 1
058ec                 | dl              res 1
058ec                 | ii              res     1
058ec                 | framebuf2       res     1
058ec                 | hsync0          res     1
058ec                 | hsync1          res     1
058ec                 | fontline        res     1
058ec                 | t1              res     1
058ec                 | t2              res     1
058ec                 | t3 res 1
058ec                 | t4 res 1
058ec                 | t5 res 1
058ec                 | skippattern res 1
058ec                 | cpl2 res 1
058ec                 | char            res     1
058ec                 | backcolor       res     1
058ec                 | charcolor       res     1
058ec                 | zoom res 1
058ec     00 00 00 00 | aend             long 0
058f0                 | 	alignl
058f0                 | __system__dat_
058f0     00 00 00 00 
058f4     00 00 00 00 
058f8     03 00 00 00 
058fc     00 00 00 00 | 	byte	$00, $00, $00, $00, $00, $00, $00, $00, $03, $00, $00, $00, $00, $00, $00, $00
05900                 | __heap_base
05900     00 00 00 00 
      ...             
06900     00 00 00 00 
06904     00 00 00 00 | 	long	0[1026]
06908                 | objmem
06908     00 00 00 00 | 	long	0[1]
0690c 083             | 	org	COG_BSS_START
0690c 083             | _var01
0690c 083             | 	res	1
0690c 084             | _var02
0690c 084             | 	res	1
0690c 085             | _var03
0690c 085             | 	res	1
0690c 086             | _var04
0690c 086             | 	res	1
0690c 087             | _var05
0690c 087             | 	res	1
0690c 088             | _var06
0690c 088             | 	res	1
0690c 089             | _var07
0690c 089             | 	res	1
0690c 08a             | _var08
0690c 08a             | 	res	1
0690c 08b             | _var09
0690c 08b             | 	res	1
0690c 08c             | _var10
0690c 08c             | 	res	1
0690c 08d             | _var11
0690c 08d             | 	res	1
0690c 08e             | _var12
0690c 08e             | 	res	1
0690c 08f             | _var13
0690c 08f             | 	res	1
0690c 090             | _var14
0690c 090             | 	res	1
0690c 091             | _var15
0690c 091             | 	res	1
0690c 092             | _var16
0690c 092             | 	res	1
0690c 093             | _var17
0690c 093             | 	res	1
0690c 094             | _var18
0690c 094             | 	res	1
0690c 095             | _var19
0690c 095             | 	res	1
0690c 096             | _var20
0690c 096             | 	res	1
0690c 097             | _var21
0690c 097             | 	res	1
0690c 098             | _var22
0690c 098             | 	res	1
0690c 099             | _var23
0690c 099             | 	res	1
0690c 09a             | _var24
0690c 09a             | 	res	1
0690c 09b             | _var25
0690c 09b             | 	res	1
0690c 09c             | _var26
0690c 09c             | 	res	1
0690c 09d             | _var27
0690c 09d             | 	res	1
0690c 09e             | _var28
0690c 09e             | 	res	1
0690c 09f             | _var29
0690c 09f             | 	res	1
0690c 0a0             | _var30
0690c 0a0             | 	res	1
0690c 0a1             | _var31
0690c 0a1             | 	res	1
0690c 0a2             | _var32
0690c 0a2             | 	res	1
0690c 0a3             | _var33
0690c 0a3             | 	res	1
0690c 0a4             | _var34
0690c 0a4             | 	res	1
0690c 0a5             | _var35
0690c 0a5             | 	res	1
0690c 0a6             | _var36
0690c 0a6             | 	res	1
0690c 0a7             | _var37
0690c 0a7             | 	res	1
0690c 0a8             | _var38
0690c 0a8             | 	res	1
0690c 0a9             | _var39
0690c 0a9             | 	res	1
0690c 0aa             | _var40
0690c 0aa             | 	res	1
0690c 0ab             | _var41
0690c 0ab             | 	res	1
0690c 0ac             | _var42
0690c 0ac             | 	res	1
0690c 0ad             | _var43
0690c 0ad             | 	res	1
0690c 0ae             | _var44
0690c 0ae             | 	res	1
0690c 0af             | _var45
0690c 0af             | 	res	1
0690c 0b0             | _var46
0690c 0b0             | 	res	1
0690c 0b1             | _var47
0690c 0b1             | 	res	1
0690c 0b2             | arg01
0690c 0b2             | 	res	1
0690c 0b3             | arg02
0690c 0b3             | 	res	1
0690c 0b4             | arg03
0690c 0b4             | 	res	1
0690c 0b5             | arg04
0690c 0b5             | 	res	1
0690c 0b6             | arg05
0690c 0b6             | 	res	1
0690c 0b7             | local01
0690c 0b7             | 	res	1
0690c 0b8             | local02
0690c 0b8             | 	res	1
0690c 0b9             | local03
0690c 0b9             | 	res	1
0690c 0ba             | local04
0690c 0ba             | 	res	1
0690c 0bb             | local05
0690c 0bb             | 	res	1
0690c 0bc             | local06
0690c 0bc             | 	res	1
0690c 0bd             | local07
0690c 0bd             | 	res	1
0690c 0be             | local08
0690c 0be             | 	res	1
0690c 0bf             | local09
0690c 0bf             | 	res	1
0690c 0c0             | local10
0690c 0c0             | 	res	1
0690c 0c1             | local11
0690c 0c1             | 	res	1
0690c 0c2             | local12
0690c 0c2             | 	res	1
0690c 0c3             | local13
0690c 0c3             | 	res	1
0690c 0c4             | local14
0690c 0c4             | 	res	1
0690c 0c5             | local15
0690c 0c5             | 	res	1
0690c 0c6             | local16
0690c 0c6             | 	res	1
0690c 0c7             | local17
0690c 0c7             | 	res	1
0690c 0c8             | local18
0690c 0c8             | 	res	1
0690c 0c9             | local19
0690c 0c9             | 	res	1
0690c 0ca             | local20
0690c 0ca             | 	res	1
0690c 0cb             | local21
0690c 0cb             | 	res	1
0690c 0cc             | local22
0690c 0cc             | 	res	1
0690c 0cd             | local23
0690c 0cd             | 	res	1
0690c 0ce             | local24
0690c 0ce             | 	res	1
0690c 0cf             | local25
0690c 0cf             | 	res	1
0690c 0d0             | local26
0690c 0d0             | 	res	1
0690c 0d1             | local27
0690c 0d1             | 	res	1
0690c 0d2             | local28
0690c 0d2             | 	res	1
0690c 0d3             | local29
0690c 0d3             | 	res	1
0690c 0d4             | local30
0690c 0d4             | 	res	1
0690c 0d5             | local31
0690c 0d5             | 	res	1
0690c 0d6             | local32
0690c 0d6             | 	res	1
0690c 0d7             | muldiva_
0690c 0d7             | 	res	1
0690c 0d8             | muldivb_
0690c 0d8             | 	res	1
0690c 0d9             | 	fit	480