
00000                 | 
00000                 | #line 1 "D:/programowanie/20210307-ultibo-propeller/ultibo-propeller/hng012/hng020.p2asm"
00000                 | ' 
00000                 | ' 
00000                 | ' hdmi_base       = 48             'must be a multiple of 8
00000                 | con
00000                 | 	hdmi_base = 48
00000                 | ' _clkfreq        = 345_000_000    'start safe, hubset will do the rest. The clock will be changed to:
00000                 | 	_clkfreq = 345000000
00000                 | ' 
00000                 | ' ' 354_689_500   200x Atari 8-bit PAL,  50x Amiga PAL  - real settings: 49,869-> 354_693_878  - 1.0000123 - mode 0 and 192
00000                 | ' ' 357_954_500   200x Atari 8-bit NTSC, 50x Amiga NTSC - real settings: 49,877-> 357_959_184  - 1.0000131 - mode 256
00000                 | ' 
00000                 | ' ' 319_220_550   180x PAL  - real settings: 51,814-> 319_215_686 - 0.9999848 - mode 64
00000                 | ' ' 322_159_050   180x NTSC - real settings: 37,596-> 322_162_162 - 1.0000097 - mode 320 and 448
00000                 | ' 
00000                 | ' ' 283_751_600   160x PAL  - real settings: 64,908-> 283_750_000 - 0.9999944 - mode 128
00000                 | ' ' 286_363_600   160x NTSC - real settings: 22,315-> 286_363_636 - 1.0000001 - mode 384
00000                 | ' 
00000                 | ' ''--------- VGA DOS color definition constants
00000                 | ' 
00000                 | ' c_black         =    0
00000                 | 	c_black = 0
00000                 | ' c_blue          =  117
00000                 | 	c_blue = 117
00000                 | ' c_green         =  199
00000                 | 	c_green = 199
00000                 | ' c_cyan          =  149
00000                 | 	c_cyan = 149
00000                 | ' c_red           =   39
00000                 | 	c_red = 39
00000                 | ' c_magenta       =   71
00000                 | 	c_magenta = 71
00000                 | ' c_brown         =  246
00000                 | 	c_brown = 246
00000                 | ' c_lightgray     =   10
00000                 | 	c_lightgray = 10
00000                 | ' c_darkgray      =    5
00000                 | 	c_darkgray = 5
00000                 | ' c_lightblue     =  121
00000                 | 	c_lightblue = 121
00000                 | ' c_lightgreen    =  203
00000                 | 	c_lightgreen = 203
00000                 | ' c_lightcyan     =  155
00000                 | 	c_lightcyan = 155
00000                 | ' c_lightred      =   43
00000                 | 	c_lightred = 43
00000                 | ' c_lightmagenta  =   75
00000                 | 	c_lightmagenta = 75
00000                 | ' c_yellow        =  234
00000                 | 	c_yellow = 234
00000                 | ' c_white         =   15
00000                 | 	c_white = 15
00000                 | ' 
00000                 | ' timingsxxt      =  $70810000
00000                 | 	timingsxxt = 1887502336
00000                 | dat
00000 000 00 00 00 00 | 	nop
00004 001 01 EC 63 FD | 	cogid	pa
00008 002 02 00 00 FF 
0000c 003 04 EC E7 FC | 	coginit	pa,##$404
00010                 | 	orgh	$10
00010     00 00 00 00 | 	long	0	'reserved
00014     00 00 00 00 | 	long	0 ' clock frequency: will default to 345000000
00018     00 00 00 00 | 	long	0 ' clock mode: will default to $10c44fb
0001c     00 00 00 00 
      ...             
003f8     00 00 00 00 
003fc     00 00 00 00 | 	orgh	$400
00400     00 F6 04 06 |  _ret_	mov	result1, #0
00404 000             | 	org	0
00404 000             | entry
00404 000 00 F0 0F F2 | 	cmp	ptra, #0 wz
00408 001 94 00 90 5D |  if_ne	jmp	#spininit
0040c 002 78 F0 03 F6 | 	mov	ptra, objptr
00410 003 E4 F0 07 F1 | 	add	ptra, #228
00414 004 14 EC 0F FB | 	rdlong	pa, #20 wz
00418 005 68 00 90 5D |  if_ne	jmp	#skip_clock_set_
0041c 006 00 00 64 FD | 	hubset	#0
00420 007 22 86 80 FF 
00424 008 00 F0 65 FD | 	hubset	##17581304
00428 009 86 01 80 FF 
0042c 00a 1F 80 66 FD | 	waitx	##200000
00430 00b 22 86 00 FF 
00434 00c FB EC 07 F6 | 	mov	pa, ##17581307
00438 00d 00 EC 63 FD | 	hubset	pa
0043c 00e 18 EC 67 FC | 	wrlong	pa, #24
00440 00f 24 48 8A FF 
00444 010 14 80 6C FC | 	wrlong	##345000000, #20
00448 011 38 00 90 FD | 	jmp	#skip_clock_set_
0044c 012 00 00 00 00 
      ...             
0047c 01e 00 00 00 00 
00480 01f 00 00 00 00 | 	orgf	32
00484 020             | skip_clock_set_
00484 020 04 EA 60 FD | 	locknew	__lockreg
00488 021 79 EA 60 FC | 	wrlong	__lockreg, ptr___lockreg_
0048c 022 F4 05 A0 FD | 	call	#_dummy
00490 023             | cogexit
00490 023 38 01 80 FF 
00494 024 1F 00 66 FD | 	waitx	##160000
00498 025 01 E8 61 FD | 	cogid	arg01
0049c 026 03 E8 61 FD | 	cogstop	arg01
004a0 027             | spininit
004a0 027 00 F1 04 FB | 	rdlong	objptr, ptra
004a4 028 04 F0 07 F1 | 	add	ptra, #4
004a8 029 00 F7 04 FB | 	rdlong	result1, ptra
004ac 02a 04 F0 07 F1 | 	add	ptra, #4
004b0 02b 00 E9 05 FB | 	rdlong	arg01, ptra
004b4 02c 04 F0 07 F1 | 	add	ptra, #4
004b8 02d 00 EB 05 FB | 	rdlong	arg02, ptra
004bc 02e 04 F0 07 F1 | 	add	ptra, #4
004c0 02f 00 ED 05 FB | 	rdlong	arg03, ptra
004c4 030 04 F0 07 F1 | 	add	ptra, #4
004c8 031 00 EF 05 FB | 	rdlong	arg04, ptra
004cc 032 10 F0 87 F1 | 	sub	ptra, #16
004d0 033 2D F6 60 FD | 	call	result1
004d4 034 B8 FF 9F FD | 	jmp	#cogexit
004d8 035             | FCACHE_LOAD_
004d8 035 2B 86 60 FD |     pop	fcache_tmpb_
004dc 036 F6 87 00 F1 |     add	fcache_tmpb_, pa
004e0 037 2A 86 60 FD |     push	fcache_tmpb_
004e4 038 F6 87 80 F1 |     sub	fcache_tmpb_, pa
004e8 039 02 EC 47 F0 |     shr	pa, #2
004ec 03a F6 85 00 F6 |     mov	fcache_tmpa_, pa
004f0 03b 00 85 04 F1 |     add	fcache_tmpa_, #$100
004f4 03c 42 82 30 FC |     wrlut ret_instr_, fcache_tmpa_
004f8 03d 01 EC 87 F1 |     sub	pa, #1
004fc 03e 29 EC 63 FD |     setq2	pa
00500 03f 43 00 02 FB |     rdlong	$100-0, fcache_tmpb_
00504 040 00 03 80 FD |     jmp	#\$300 ' jmp to cache
00508 041             | ret_instr_
00508 041 2D 00 64 FD |     ret
0050c 042             | fcache_tmpa_
0050c 042 00 00 00 00 |     long 0
00510 043             | fcache_tmpb_
00510 043 00 00 00 00 |     long 0
00514 044             | COUNT_
00514 044 00 00 00 00 |     long 0
00518 045             | RETADDR_
00518 045 00 00 00 00 |     long 0
0051c 046             | fp
0051c 046 00 00 00 00 |     long 0
00520 047             | gosub_
00520 047 00 88 04 F6 |     mov  COUNT_, #0
00524 048 F4 EC 03 F6 |     mov  pa, arg01
00528 049 2B 8A 60 FD |     pop  RETADDR_
0052c 04a 1C 00 90 FD |     jmp  #pushregs_done_
00530 04b             | pushregs_
00530 04b 2B EC 63 FD |     pop  pa
00534 04c 2B 8A 60 FD |     pop  RETADDR_
00538 04d 04 88 94 FB |     tjz  COUNT_, #pushregs_done_
0053c 04e 01 88 84 F1 |     sub  COUNT_, #1
00540 04f 28 88 60 FD |     setq COUNT_
00544 050 00 F3 65 FC |     wrlong local01, ptra
00548 051 01 88 04 F1 |     add  COUNT_, #1
0054c 052             | pushregs_done_
0054c 052 02 88 64 F0 |     shl  COUNT_, #2
00550 053 44 F0 03 F1 |     add  ptra, COUNT_
00554 054 02 88 44 F0 |     shr  COUNT_, #2
00558 055 28 04 64 FD |     setq #2 ' push 3 registers starting at COUNT_
0055c 056 00 89 64 FC |     wrlong COUNT_, ptra
00560 057 0C F0 07 F1 |     add    ptra, #12
00564 058 F8 8D 00 F6 |     mov    fp, ptra
00568 059 2C EC 63 FD |     jmp  pa
0056c 05a             |  popregs_
0056c 05a 2B EC 63 FD |     pop    pa
00570 05b 0C F0 87 F1 |     sub    ptra, #12
00574 05c 28 04 64 FD |     setq   #2
00578 05d 00 89 04 FB |     rdlong COUNT_, ptra
0057c 05e 06 88 94 FB |     tjz    COUNT_, #popregs__ret
00580 05f 02 88 64 F0 |     shl    COUNT_, #2
00584 060 44 F0 83 F1 |     sub    ptra, COUNT_
00588 061 02 88 44 F0 |     shr    COUNT_, #2
0058c 062 01 88 84 F1 |     sub    COUNT_, #1
00590 063 28 88 60 FD |     setq   COUNT_
00594 064 00 F3 05 FB |     rdlong local01, ptra
00598 065             | popregs__ret
00598 065 2A 8A 60 FD |     push   RETADDR_
0059c 066 2C EC 63 FD |     jmp    pa
005a0 067             | 
005a0 067             | unsdivide_
005a0 067 28 00 64 FD |        setq    #0
005a4 068 3E 7B 12 FD |        qdiv    muldiva_, muldivb_
005a8 069 18 7C 62 FD |        getqx   muldivb_
005ac 06a 19 7A 62 0D |  _ret_ getqy   muldiva_
005b0 06b             | 
005b0 06b             | divide_
005b0 06b 3D 7B 52 F6 |        abs     muldiva_,muldiva_     wc       'abs(x)
005b4 06c 03 EE 84 F5 |        muxc    itmp2_,#%11                    'store sign of x
005b8 06d 3E 7D 5A F6 |        abs     muldivb_,muldivb_     wcz      'abs(y)
005bc 06e 02 EE 64 C5 |  if_c  xor     itmp2_,#%10                    'store sign of y
005c0 06f 2D 00 64 AD |  if_z  ret
005c4 070 D8 FF BF FD |        call    #unsdivide_
005c8 071 01 EE D4 F7 |        test    itmp2_,#1        wc       'restore sign, remainder
005cc 072 3D 7B 82 F6 |        negc    muldiva_,muldiva_ 
005d0 073 02 EE D4 F7 |        test    itmp2_,#%10      wc       'restore sign, division result
005d4 074 3E 7D 82 06 |  _ret_ negc    muldivb_,muldivb_
005d8 075             | 
005d8 075             | __lockreg
005d8 075 00 00 00 00 | 	long	0
005dc 076             | itmp1_
005dc 076 00 00 00 00 | 	long	0
005e0 077             | itmp2_
005e0 077 00 00 00 00 | 	long	0
005e4 078             | objptr
005e4 078 E0 4D 00 00 | 	long	@objmem
005e8 079             | ptr___lockreg_
005e8 079 D8 05 00 00 | 	long	@__lockreg
005ec 07a             | ptr__dat__
005ec 07a 40 28 00 00 | 	long	@_dat_
005f0 07b             | result1
005f0 07b 00 00 00 00 | 	long	0
005f4 07c             | COG_BSS_START
005f4 07c             | 	fit	480
005f4                 | 	orgh
005f4                 | hubentry
005f4                 | 
005f4                 | ' 
005f4                 | ' ''--------- timings
005f4                 | ' ' 0  m_bs        - before sync,             16      80
005f4                 | ' ' 1  m_sn        - sync                     80     160
005f4                 | ' ' 2  m_bv        - before visible           20      84
005f4                 | ' ' 3  m_vi        - visible                1024     816
005f4                 | ' ' 4  m_border    - left and right borders  112       8
005f4                 | ' ' 5  m_lut1      - pixels per char           8       8
005f4                 | ' ' 6  i_vborder   - up and down border       48       8
005f4                 | ' ' 7  i_upporch   - up non visible           16       8
005f4                 | ' ' 8  i_vsync     - vsync                    16      12
005f4                 | ' ' 9  i_downporch - down non visible         16       8
005f4                 | ' '10  mode #
005f4                 | ' '11  cpl         - character per line
005f4                 | ' '12  scanlines #
005f4                 | ' '13  clock
005f4                 | ' '14  hubset value for clock settings
005f4                 | ' 
005f4                 | ' 
005f4                 | ' '*************************************************************************
005f4                 | ' '                                                                        *
005f4                 | ' '  A dummy start function if someone runs this driver alone              *
005f4                 | ' '                                                                        *
005f4                 | ' '*************************************************************************
005f4                 | ' 
005f4                 | ' pub dummy()|i,x,y,ntsc,bbb,ccc,zzx,zzy,amode
005f4                 | _dummy
005f4     44 88 04 F6 | 	mov	COUNT_, #68
005f8     4B 00 A0 FD | 	call	#pushregs_
005fc                 | ' '' this is not a main program.
005fc                 | ' 
005fc                 | ' start(32,48)
005fc     20 E8 05 F6 | 	mov	arg01, #32
00600     30 EA 05 F6 | 	mov	arg02, #48
00604     30 F0 04 F1 | 	add	objptr, #48
00608     78 F2 01 F6 | 	mov	local01, objptr
0060c                 | ' 
0060c                 | ' ' initialize pointers and variables
0060c                 | ' 
0060c                 | ' border_ptr:=@bordercolor
0060c     28 F0 84 F1 | 	sub	objptr, #40
00610     78 F2 61 FC | 	wrlong	local01, objptr
00614     08 00 00 FF 
00618     00 F4 04 F1 | 	add	ptr__dat__, ##4096
0061c                 | ' font_ptr:=@st_font
0061c     04 F0 84 F1 | 	sub	objptr, #4
00620     78 F4 60 FC | 	wrlong	ptr__dat__, objptr
00624                 | ' hdmibase:=base
00624     24 F0 04 F1 | 	add	objptr, #36
00628     78 60 68 FC | 	wrlong	#48, objptr
0062c     28 F0 84 F1 | 	sub	objptr, #40
00630                 | ' 
00630                 | ' ' the mode has to be set here to enable computing the buffer length
00630                 | ' 
00630                 | ' setmode(mode)
00630     08 00 00 FF 
00634     00 F4 84 F1 | 	sub	ptr__dat__, ##4096
00638     94 13 B0 FD | 	call	#_setmode
0063c     44 F0 04 F1 | 	add	objptr, #68
00640     78 F4 01 F6 | 	mov	local02, objptr
00644                 | ' 
00644                 | ' 
00644                 | ' vblank_ptr:=@vblank
00644     38 F0 84 F1 | 	sub	objptr, #56
00648     78 F4 61 FC | 	wrlong	local02, objptr
0064c     2C F0 04 F1 | 	add	objptr, #44
00650     78 F6 01 F6 | 	mov	local03, objptr
00654                 | ' cursor_ptr:=@cursor_x
00654     28 F0 84 F1 | 	sub	objptr, #40
00658     78 F6 61 FC | 	wrlong	local03, objptr
0065c     0C 00 00 FF 
00660     00 F4 04 F1 | 	add	ptr__dat__, ##6144
00664                 | ' 
00664                 | ' palette_ptr:=@ataripalette
00664     08 F0 04 F1 | 	add	objptr, #8
00668     78 F4 60 FC | 	wrlong	ptr__dat__, objptr
0066c     84 F0 04 F1 | 	add	objptr, #132
00670     78 F8 01 F6 | 	mov	local04, objptr
00674                 | ' command_ptr:=@cmd1
00674     80 F0 84 F1 | 	sub	objptr, #128
00678     78 F8 61 FC | 	wrlong	local04, objptr
0067c     88 F0 04 F1 | 	add	objptr, #136
00680     78 FA 01 F6 | 	mov	local05, objptr
00684                 | ' fontnum_ptr:=@fontnum
00684     80 F0 84 F1 | 	sub	objptr, #128
00688     78 FA 61 FC | 	wrlong	local05, objptr
0068c                 | ' 
0068c                 | ' fontnum:=0  ' PC type font ' TODO: font# in buffer byte #1
0068c     80 F0 04 F1 | 	add	objptr, #128
00690     78 00 68 FC | 	wrlong	#0, objptr
00694     1C F0 04 F1 | 	add	objptr, #28
00698     78 E8 01 F6 | 	mov	arg01, objptr
0069c     C0 F0 84 F1 | 	sub	objptr, #192
006a0     03 00 00 FF 
006a4     D8 F4 04 F1 | 	add	ptr__dat__, ##1752
006a8     7A EA 01 F6 | 	mov	arg02, ptr__dat__
006ac     0F 00 00 FF 
006b0     D8 F4 84 F1 | 	sub	ptr__dat__, ##7896
006b4                 | ' bytemove(@colors,@vgacolors,16)
006b4     10 EC 05 F6 | 	mov	arg03, #16
006b8     D8 1E B0 FD | 	call	#__system__bytemove
006bc                 | ' 
006bc                 | ' ' initialize a cursor
006bc                 | ' 
006bc                 | ' cursor_x:=0
006bc     38 F0 04 F1 | 	add	objptr, #56
006c0     78 00 48 FC | 	wrbyte	#0, objptr
006c4                 | ' cursor_y:=0
006c4     01 F0 04 F1 | 	add	objptr, #1
006c8     78 00 48 FC | 	wrbyte	#0, objptr
006cc                 | ' cursor_sh:=14
006cc     01 F0 04 F1 | 	add	objptr, #1
006d0     78 1C 48 FC | 	wrbyte	#14, objptr
006d4                 | ' 
006d4                 | ' cmd1:=257 ' set command idle
006d4     62 F0 04 F1 | 	add	objptr, #98
006d8     78 02 6A FC | 	wrlong	#257, objptr
006dc     9C F0 84 F1 | 	sub	objptr, #156
006e0                 | ' 
006e0                 | ' ' start the cog
006e0                 | ' 
006e0                 | ' cog:=coginit(16,@hdmi, @buf_ptr)
006e0     0F 00 00 FF 
006e4     E8 F4 04 F1 | 	add	ptr__dat__, ##7912
006e8     7A EA 01 F6 | 	mov	arg02, ptr__dat__
006ec     0F 00 00 FF 
006f0     E8 F4 84 F1 | 	sub	ptr__dat__, ##7912
006f4     78 EC 01 F6 | 	mov	arg03, objptr
006f8     10 E8 05 F6 | 	mov	arg01, #16
006fc     28 EC 61 FD | 	setq	arg03
00700     F5 E8 F1 FC | 	coginit	arg01, arg02 wc
00704     01 E8 65 C6 |  if_b	neg	arg01, #1
00708     F4 F6 00 F6 | 	mov	result1, arg01
0070c     7B FC 01 F6 | 	mov	local06, result1
00710     2C F0 04 F1 | 	add	objptr, #44
00714     78 FC 61 FC | 	wrlong	local06, objptr
00718     2C F0 84 F1 | 	sub	objptr, #44
0071c                 | ' waitms(20)
0071c     14 E8 05 F6 | 	mov	arg01, #20
00720     70 1F B0 FD | 	call	#__system___waitms
00724                 | ' 
00724                 | ' ' clear the screen and set the colors to green on black
00724                 | ' 
00724                 | ' cls(c_green,c_black)
00724     C7 E8 05 F6 | 	mov	arg01, #199
00728     00 EA 05 F6 | 	mov	arg02, #0
0072c     78 0F B0 FD | 	call	#_cls
00730                 | ' setbordercolor(0,0,128)
00730     0F EC C5 F9 | 	decod	arg03, #15
00734                 | ' 
00734                 | ' color:=r<<24+g<<16+b<<8
00734                 | ' bordercolor:=color
00734     30 F0 04 F1 | 	add	objptr, #48
00738     40 00 80 FF 
0073c     78 00 68 FC | 	wrlong	##32768, objptr
00740                 | ' setwritecolors(c_green,c_black)
00740                 | ' 
00740                 | ' 
00740                 | ' write_color:=ff
00740     0C F0 04 F1 | 	add	objptr, #12
00744     78 8E 69 FC | 	wrlong	#199, objptr
00748                 | ' write_background:=bb
00748     04 F0 04 F1 | 	add	objptr, #4
0074c     78 00 68 FC | 	wrlong	#0, objptr
00750                 | ' 
00750                 | ' return cog
00750     14 F0 84 F1 | 	sub	objptr, #20
00754     78 F6 00 FB | 	rdlong	result1, objptr
00758     2C F0 84 F1 | 	sub	objptr, #44
0075c                 | ' cls(154,147)
0075c     9A E8 05 F6 | 	mov	arg01, #154
00760     93 EA 05 F6 | 	mov	arg02, #147
00764     40 0F B0 FD | 	call	#_cls
00768                 | ' writeln(inttostr(buflen))
00768     34 F0 04 F1 | 	add	objptr, #52
0076c     78 E8 01 FB | 	rdlong	arg01, objptr
00770     34 F0 84 F1 | 	sub	objptr, #52
00774     48 11 B0 FD | 	call	#_inttostr
00778                 | ' 
00778                 | ' write(text)
00778     7B FE 01 F6 | 	mov	local07, result1
0077c     3C F0 04 F1 | 	add	objptr, #60
00780     78 00 02 FB | 	rdlong	local08, objptr
00784     18 00 66 F0 | 	shl	local08, #24
00788     04 F0 04 F1 | 	add	objptr, #4
0078c     78 02 02 FB | 	rdlong	local09, objptr
00790     10 02 66 F0 | 	shl	local09, #16
00794     01 01 02 F1 | 	add	local08, local09
00798                 | ' 
00798                 | ' c:=write_color<<24+write_background<<16
00798                 | ' 'debug(uhex_long(write_color))
00798                 | ' ncy:=cursor_y
00798     07 F0 84 F1 | 	sub	objptr, #7
0079c     78 04 C2 FA | 	rdbyte	local10, objptr
007a0                 | ' ncx:=cursor_x+strsize(text)
007a0     01 F0 84 F1 | 	sub	objptr, #1
007a4     78 06 C2 FA | 	rdbyte	local11, objptr
007a8     38 F0 84 F1 | 	sub	objptr, #56
007ac     FF E8 01 F6 | 	mov	arg01, local07
007b0     00 08 06 F6 | 	mov	local12, #0
007b4     58 F8 9F FE | 	loc	pa,	#(@LR__0002-@LR__0001)
007b8     35 00 A0 FD | 	call	#FCACHE_LOAD_
007bc                 | LR__0001
007bc     F4 0A CA FA | 	rdbyte	local13, arg01 wz
007c0     01 08 06 51 |  if_ne	add	local12, #1
007c4     01 E8 05 51 |  if_ne	add	arg01, #1
007c8     F0 FF 9F 5D |  if_ne	jmp	#LR__0001
007cc                 | LR__0002
007cc     04 F7 00 F6 | 	mov	result1, local12
007d0     04 07 02 F1 | 	add	local11, local12
007d4     03 0D 02 F6 | 	mov	local14, local11
007d8     54 F8 9F FE | 	loc	pa,	#(@LR__0004-@LR__0003)
007dc     35 00 A0 FD | 	call	#FCACHE_LOAD_
007e0                 | ' repeat while ncx>cpl-1
007e0                 | LR__0003
007e0     94 F0 04 F1 | 	add	objptr, #148
007e4     78 06 02 FB | 	rdlong	local11, objptr
007e8     94 F0 84 F1 | 	sub	objptr, #148
007ec     01 06 86 F1 | 	sub	local11, #1
007f0     03 0D 5A F2 | 	cmps	local14, local11 wcz
007f4     18 00 90 ED |  if_be	jmp	#LR__0005
007f8                 | '   ncx-=cpl
007f8     94 F0 04 F1 | 	add	objptr, #148
007fc     78 0E 02 FB | 	rdlong	local15, objptr
00800     94 F0 84 F1 | 	sub	objptr, #148
00804     07 0D 82 F1 | 	sub	local14, local15
00808                 | '   ncy+=1
00808     01 04 06 F1 | 	add	local10, #1
0080c     D0 FF 9F FD | 	jmp	#LR__0003
00810                 | LR__0004
00810                 | LR__0005
00810                 | ' repeat while ncy>lines-1
00810                 | LR__0006
00810     98 F0 04 F1 | 	add	objptr, #152
00814     78 06 02 FB | 	rdlong	local11, objptr
00818     98 F0 84 F1 | 	sub	objptr, #152
0081c     01 06 86 F1 | 	sub	local11, #1
00820     03 05 5A F2 | 	cmps	local10, local11 wcz
00824     20 00 90 ED |  if_be	jmp	#LR__0007
00828                 | '   ncy-=1
00828     01 04 86 F1 | 	sub	local10, #1
0082c                 | '   scrollup()
0082c     C8 0F B0 FD | 	call	#_scrollup
00830                 | '   cursor_y-=1
00830     39 F0 04 F1 | 	add	objptr, #57
00834     78 06 C2 FA | 	rdbyte	local11, objptr
00838     01 06 86 F1 | 	sub	local11, #1
0083c     78 06 42 FC | 	wrbyte	local11, objptr
00840     39 F0 84 F1 | 	sub	objptr, #57
00844     C8 FF 9F FD | 	jmp	#LR__0006
00848                 | LR__0007
00848                 | ' 
00848                 | ' repeat iii from 0 to strsize(text)-1
00848     00 10 06 F6 | 	mov	local16, #0
0084c     FF E8 01 F6 | 	mov	arg01, local07
00850     00 08 06 F6 | 	mov	local12, #0
00854     B8 F7 9F FE | 	loc	pa,	#(@LR__0009-@LR__0008)
00858     35 00 A0 FD | 	call	#FCACHE_LOAD_
0085c                 | LR__0008
0085c     F4 0A CA FA | 	rdbyte	local13, arg01 wz
00860     01 08 06 51 |  if_ne	add	local12, #1
00864     01 E8 05 51 |  if_ne	add	arg01, #1
00868     F0 FF 9F 5D |  if_ne	jmp	#LR__0008
0086c                 | LR__0009
0086c     04 13 02 F6 | 	mov	local17, local12
00870     01 12 86 F1 | 	sub	local17, #1
00874     00 12 5E F2 | 	cmps	local17, #0 wcz
00878     01 14 06 16 |  if_a	mov	local18, #1
0087c     01 14 66 E6 |  if_be	neg	local18, #1
00880     0A 13 02 F1 | 	add	local17, local18
00884     D0 F7 9F FE | 	loc	pa,	#(@LR__0011-@LR__0010)
00888     35 00 A0 FD | 	call	#FCACHE_LOAD_
0088c                 | LR__0010
0088c     94 F0 04 F1 | 	add	objptr, #148
00890     78 16 02 FB | 	rdlong	local19, objptr
00894     5B F0 84 F1 | 	sub	objptr, #91
00898     78 18 C2 FA | 	rdbyte	local20, objptr
0089c     0C 17 02 FD | 	qmul	local19, local20
008a0     18 1A 62 FD | 	getqx	local21
008a4     01 F0 84 F1 | 	sub	objptr, #1
008a8     78 16 C2 FA | 	rdbyte	local19, objptr
008ac     38 F0 84 F1 | 	sub	objptr, #56
008b0     0B 1B 02 F1 | 	add	local21, local19
008b4     08 1B 02 F1 | 	add	local21, local16
008b8     02 1A 66 F0 | 	shl	local21, #2
008bc     78 1C 02 FB | 	rdlong	local22, objptr
008c0     0D 1D 02 F1 | 	add	local22, local21
008c4     0E 1F 02 FB | 	rdlong	local23, local22
008c8     7F 00 00 FF 
008cc     FF 1F 06 F5 | 	and	local23, ##65535
008d0     00 1F 42 F5 | 	or	local23, local08
008d4                 | ' 
008d4                 | '   long[buf_ptr+4*(cpl*cursor_y+cursor_x+iii)]:=long[buf_ptr+4*(cpl*cursor_y+cursor_x+iii)] &$FFFF | c
008d4     0E 1F 62 FC | 	wrlong	local23, local22
008d8     0A 11 02 F1 | 	add	local16, local18
008dc     09 11 0A F2 | 	cmp	local16, local17 wz
008e0     A8 FF 9F 5D |  if_ne	jmp	#LR__0010
008e4                 | LR__0011
008e4                 | ' 
008e4                 | ' outtextxy(cursor_x,cursor_y,text)
008e4     38 F0 04 F1 | 	add	objptr, #56
008e8     78 20 C2 FA | 	rdbyte	local24, objptr
008ec     01 F0 04 F1 | 	add	objptr, #1
008f0     78 EA C1 FA | 	rdbyte	arg02, objptr
008f4     39 F0 84 F1 | 	sub	objptr, #57
008f8     FF EC 01 F6 | 	mov	arg03, local07
008fc     F5 22 02 F6 | 	mov	local25, arg02
00900     F6 24 02 F6 | 	mov	local26, arg03
00904                 | ' 
00904                 | ' repeat iii from 0 to strsize(text)-1
00904     00 26 06 F6 | 	mov	local27, #0
00908     12 E9 01 F6 | 	mov	arg01, local26
0090c     00 08 06 F6 | 	mov	local12, #0
00910     FC F6 9F FE | 	loc	pa,	#(@LR__0013-@LR__0012)
00914     35 00 A0 FD | 	call	#FCACHE_LOAD_
00918                 | LR__0012
00918     F4 0A CA FA | 	rdbyte	local13, arg01 wz
0091c     01 08 06 51 |  if_ne	add	local12, #1
00920     01 E8 05 51 |  if_ne	add	arg01, #1
00924     F0 FF 9F 5D |  if_ne	jmp	#LR__0012
00928                 | LR__0013
00928     04 F7 00 F6 | 	mov	result1, local12
0092c     7B 28 02 F6 | 	mov	local28, result1
00930     01 28 86 F1 | 	sub	local28, #1
00934     00 28 5E F2 | 	cmps	local28, #0 wcz
00938     01 2A 06 16 |  if_a	mov	local29, #1
0093c     01 2A 66 E6 |  if_be	neg	local29, #1
00940     15 29 02 F1 | 	add	local28, local29
00944     08 F7 9F FE | 	loc	pa,	#(@LR__0015-@LR__0014)
00948     35 00 A0 FD | 	call	#FCACHE_LOAD_
0094c                 | LR__0014
0094c     94 F0 04 F1 | 	add	objptr, #148
00950     78 2C 02 FB | 	rdlong	local30, objptr
00954     94 F0 84 F1 | 	sub	objptr, #148
00958     11 2D 02 FD | 	qmul	local30, local25
0095c     18 2E 62 FD | 	getqx	local31
00960     10 2F 02 F1 | 	add	local31, local24
00964     13 2F 02 F1 | 	add	local31, local27
00968     02 2E 66 F0 | 	shl	local31, #2
0096c     78 30 02 FB | 	rdlong	local32, objptr
00970     17 31 02 F1 | 	add	local32, local31
00974     18 33 02 FB | 	rdlong	local33, local32
00978     FF 32 26 F5 | 	andn	local33, #255
0097c     12 35 02 F6 | 	mov	local34, local26
00980     13 35 02 F1 | 	add	local34, local27
00984     1A 2D C2 FA | 	rdbyte	local30, local34
00988     16 33 42 F5 | 	or	local33, local30
0098c                 | '   long[buf_ptr+4*(cpl*y+x+iii)]:=(long[buf_ptr+4*(cpl*y+x+iii)] & $FFFFFF00)  | byte[text+iii]
0098c     18 33 62 FC | 	wrlong	local33, local32
00990     15 27 02 F1 | 	add	local27, local29
00994     14 27 0A F2 | 	cmp	local27, local28 wz
00998     B0 FF 9F 5D |  if_ne	jmp	#LR__0014
0099c                 | LR__0015
0099c                 | ' 
0099c                 | ' cursor_x:=ncx
0099c     38 F0 04 F1 | 	add	objptr, #56
009a0     78 0C 42 FC | 	wrbyte	local14, objptr
009a4                 | ' cursor_y:=ncy
009a4     01 F0 04 F1 | 	add	objptr, #1
009a8     78 04 42 FC | 	wrbyte	local10, objptr
009ac                 | ' cursor_x:=0
009ac     01 F0 84 F1 | 	sub	objptr, #1
009b0     78 00 48 FC | 	wrbyte	#0, objptr
009b4                 | ' cursor_y+=1
009b4     01 F0 04 F1 | 	add	objptr, #1
009b8     78 36 C2 FA | 	rdbyte	local35, objptr
009bc     01 36 06 F1 | 	add	local35, #1
009c0     78 36 42 FC | 	wrbyte	local35, objptr
009c4                 | ' if (cursor_y>lines-1)
009c4     5F F0 04 F1 | 	add	objptr, #95
009c8     78 36 02 FB | 	rdlong	local35, objptr
009cc     01 36 86 F1 | 	sub	local35, #1
009d0     5F F0 84 F1 | 	sub	objptr, #95
009d4     78 38 C2 FA | 	rdbyte	local36, objptr
009d8     39 F0 84 F1 | 	sub	objptr, #57
009dc     1B 39 5A F2 | 	cmps	local36, local35 wcz
009e0     1C 00 90 ED |  if_be	jmp	#LR__0016
009e4                 | '   scrollup()
009e4     10 0E B0 FD | 	call	#_scrollup
009e8     98 F0 04 F1 | 	add	objptr, #152
009ec     78 3A 02 FB | 	rdlong	local37, objptr
009f0     01 3A 86 F1 | 	sub	local37, #1
009f4                 | '   cursor_y:=lines-1
009f4     5F F0 84 F1 | 	sub	objptr, #95
009f8     78 3A 42 FC | 	wrbyte	local37, objptr
009fc     39 F0 84 F1 | 	sub	objptr, #57
00a00                 | LR__0016
00a00                 | ' waitvbl(240)
00a00     F0 E8 05 F6 | 	mov	arg01, #240
00a04     2C 0C B0 FD | 	call	#_waitvbl
00a08                 | ' setmode (563)
00a08     01 00 00 FF 
00a0c     33 E8 05 F6 | 	mov	arg01, ##563
00a10     BC 0F B0 FD | 	call	#_setmode
00a14                 | ' cls(15,0)
00a14     0F E8 05 F6 | 	mov	arg01, #15
00a18     00 EA 05 F6 | 	mov	arg02, #0
00a1c     88 0C B0 FD | 	call	#_cls
00a20                 | ' outtextxyc8(0,0,string("1234567890123456789012345678901234567890"),120,0)
00a20     13 00 00 FF 
00a24     54 3D 06 F6 | 	mov	local38, ##@LR__0175
00a28                 | ' 
00a28                 | ' repeat iii from 0 to strsize(text)-1
00a28     00 3E 06 F6 | 	mov	local39, #0
00a2c     1E E9 01 F6 | 	mov	arg01, local38
00a30     00 08 06 F6 | 	mov	local12, #0
00a34     D8 F5 9F FE | 	loc	pa,	#(@LR__0018-@LR__0017)
00a38     35 00 A0 FD | 	call	#FCACHE_LOAD_
00a3c                 | LR__0017
00a3c     F4 0A CA FA | 	rdbyte	local13, arg01 wz
00a40     01 08 06 51 |  if_ne	add	local12, #1
00a44     01 E8 05 51 |  if_ne	add	arg01, #1
00a48     F0 FF 9F 5D |  if_ne	jmp	#LR__0017
00a4c                 | LR__0018
00a4c     04 F7 00 F6 | 	mov	result1, local12
00a50     7B 40 02 F6 | 	mov	local40, result1
00a54     01 40 86 F1 | 	sub	local40, #1
00a58     00 40 5E F2 | 	cmps	local40, #0 wcz
00a5c     01 42 06 16 |  if_a	mov	local41, #1
00a60     01 42 66 E6 |  if_be	neg	local41, #1
00a64     21 41 02 F1 | 	add	local40, local41
00a68                 | LR__0019
00a68     1F 45 02 F6 | 	mov	local42, local39
00a6c     03 44 66 F0 | 	shl	local42, #3
00a70     1E 47 02 F6 | 	mov	local43, local38
00a74     1F 47 02 F1 | 	add	local43, local39
00a78                 | ' 
00a78                 | '     putcharxyc8(x+8*iii,y,byte[text+iii],f,b)
00a78     23 49 C2 FA | 	rdbyte	local44, local43
00a7c     78 EE 05 F6 | 	mov	arg04, #120
00a80     00 F0 05 F6 | 	mov	arg05, #0
00a84     04 48 66 F0 | 	shl	local44, #4
00a88     00 4A 06 F6 | 	mov	local45, #0
00a8c                 | LR__0020
00a8c     7A 4C 02 F6 | 	mov	local46, ptr__dat__
00a90     24 4D 02 F1 | 	add	local46, local44
00a94     25 4D 02 F1 | 	add	local46, local45
00a98                 | '   bb:=byte[@vga_font+16*achar+yy]
00a98     26 4F C2 FA | 	rdbyte	local47, local46
00a9c                 | '   repeat xx from 0 to 7
00a9c     00 50 06 F6 | 	mov	local48, #0
00aa0                 | LR__0021
00aa0                 | '     if (bb&(1<<xx))<>0
00aa0     28 53 C2 F9 | 	decod	local49, local48
00aa4     29 4F CA F7 | 	test	local47, local49 wz
00aa8     18 00 90 AD |  if_e	jmp	#LR__0022
00aac     28 E9 01 F6 | 	mov	arg01, local48
00ab0     22 E9 01 F1 | 	add	arg01, local42
00ab4     25 EB 01 F6 | 	mov	arg02, local45
00ab8                 | '       putpixel8(xx+x,yy+y,f)
00ab8     78 EC 05 F6 | 	mov	arg03, #120
00abc     58 08 B0 FD | 	call	#_putpixel8
00ac0                 | '     else
00ac0     14 00 90 FD | 	jmp	#LR__0023
00ac4                 | LR__0022
00ac4     28 E9 01 F6 | 	mov	arg01, local48
00ac8     22 E9 01 F1 | 	add	arg01, local42
00acc     25 EB 01 F6 | 	mov	arg02, local45
00ad0                 | '       putpixel8(xx+x,yy+y,b)  
00ad0     00 EC 05 F6 | 	mov	arg03, #0
00ad4     40 08 B0 FD | 	call	#_putpixel8
00ad8                 | LR__0023
00ad8     01 50 06 F1 | 	add	local48, #1
00adc     08 50 5E F2 | 	cmps	local48, #8 wcz
00ae0     BC FF 9F CD |  if_b	jmp	#LR__0021
00ae4     01 4A 06 F1 | 	add	local45, #1
00ae8     10 4A 5E F2 | 	cmps	local45, #16 wcz
00aec     9C FF 9F CD |  if_b	jmp	#LR__0020
00af0     21 3F 02 F1 | 	add	local39, local41
00af4     20 3F 0A F2 | 	cmp	local39, local40 wz
00af8     6C FF 9F 5D |  if_ne	jmp	#LR__0019
00afc                 | ' waitvbl(240)
00afc     F0 E8 05 F6 | 	mov	arg01, #240
00b00     30 0B B0 FD | 	call	#_waitvbl
00b04                 | ' setmode(514+64)
00b04     01 00 00 FF 
00b08     42 E8 05 F6 | 	mov	arg01, ##578
00b0c     C0 0E B0 FD | 	call	#_setmode
00b10                 | ' cls(0,0)
00b10     00 E8 05 F6 | 	mov	arg01, #0
00b14     00 EA 05 F6 | 	mov	arg02, #0
00b18     8C 0B B0 FD | 	call	#_cls
00b1c                 | '  outtextxyc1(0,0,string("1234567890123456789012345678901234567890"),1,0)
00b1c     13 00 00 FF 
00b20     7D ED 05 F6 | 	mov	arg03, ##@LR__0176
00b24     00 E8 05 F6 | 	mov	arg01, #0
00b28     00 EA 05 F6 | 	mov	arg02, #0
00b2c     01 EE 05 F6 | 	mov	arg04, #1
00b30     00 F0 05 F6 | 	mov	arg05, #0
00b34     E4 04 B0 FD | 	call	#_outtextxyc1
00b38                 | ' outtextxyc1(32,32,inttostr(cpl),1,0)
00b38     20 54 06 F6 | 	mov	local50, #32
00b3c     20 56 06 F6 | 	mov	local51, #32
00b40     94 F0 04 F1 | 	add	objptr, #148
00b44     78 E8 01 FB | 	rdlong	arg01, objptr
00b48     94 F0 84 F1 | 	sub	objptr, #148
00b4c     70 0D B0 FD | 	call	#_inttostr
00b50     7B EC 01 F6 | 	mov	arg03, result1
00b54     2A E9 01 F6 | 	mov	arg01, local50
00b58     2B EB 01 F6 | 	mov	arg02, local51
00b5c     01 EE 05 F6 | 	mov	arg04, #1
00b60     00 F0 05 F6 | 	mov	arg05, #0
00b64     B4 04 B0 FD | 	call	#_outtextxyc1
00b68                 | ' waitvbl(480)
00b68     E0 E9 05 F6 | 	mov	arg01, #480
00b6c     C4 0A B0 FD | 	call	#_waitvbl
00b70                 | ' 
00b70                 | ' setmode(514+64+16)
00b70     01 00 00 FF 
00b74     52 E8 05 F6 | 	mov	arg01, ##594
00b78     54 0E B0 FD | 	call	#_setmode
00b7c                 | ' cls(0,0)
00b7c     00 E8 05 F6 | 	mov	arg01, #0
00b80     00 EA 05 F6 | 	mov	arg02, #0
00b84     20 0B B0 FD | 	call	#_cls
00b88                 | ' outtextxyc2(0,0,string("1234567890123456789012345678901234567890"),2,0)
00b88     13 00 00 FF 
00b8c     A6 59 06 F6 | 	mov	local52, ##@LR__0177
00b90                 | ' 
00b90                 | ' repeat iii from 0 to strsize(text)-1
00b90     00 5A 06 F6 | 	mov	local53, #0
00b94     2C E9 01 F6 | 	mov	arg01, local52
00b98     00 08 06 F6 | 	mov	local12, #0
00b9c     70 F4 9F FE | 	loc	pa,	#(@LR__0025-@LR__0024)
00ba0     35 00 A0 FD | 	call	#FCACHE_LOAD_
00ba4                 | LR__0024
00ba4     F4 0A CA FA | 	rdbyte	local13, arg01 wz
00ba8     01 08 06 51 |  if_ne	add	local12, #1
00bac     01 E8 05 51 |  if_ne	add	arg01, #1
00bb0     F0 FF 9F 5D |  if_ne	jmp	#LR__0024
00bb4                 | LR__0025
00bb4     04 F7 00 F6 | 	mov	result1, local12
00bb8     7B 5C 02 F6 | 	mov	local54, result1
00bbc     01 5C 86 F1 | 	sub	local54, #1
00bc0     00 5C 5E F2 | 	cmps	local54, #0 wcz
00bc4     01 5E 06 16 |  if_a	mov	local55, #1
00bc8     01 5E 66 E6 |  if_be	neg	local55, #1
00bcc     2F 5D 02 F1 | 	add	local54, local55
00bd0                 | LR__0026
00bd0     2D 61 02 F6 | 	mov	local56, local53
00bd4     03 60 66 F0 | 	shl	local56, #3
00bd8     2C 63 02 F6 | 	mov	local57, local52
00bdc     2D 63 02 F1 | 	add	local57, local53
00be0                 | ' 
00be0                 | '     putcharxyc2(x+8*iii,y,byte[text+iii],f,b)
00be0     31 65 C2 FA | 	rdbyte	local58, local57
00be4     02 EE 05 F6 | 	mov	arg04, #2
00be8     00 F0 05 F6 | 	mov	arg05, #0
00bec     04 64 66 F0 | 	shl	local58, #4
00bf0     00 66 06 F6 | 	mov	local59, #0
00bf4                 | LR__0027
00bf4     7A 68 02 F6 | 	mov	local60, ptr__dat__
00bf8     32 69 02 F1 | 	add	local60, local58
00bfc     33 69 02 F1 | 	add	local60, local59
00c00     08 00 00 FF 
00c04     00 68 06 F1 | 	add	local60, ##4096
00c08                 | '   bb:=byte[@vga_font+16*achar+yy+4096]
00c08     34 6B C2 FA | 	rdbyte	local61, local60
00c0c                 | '   repeat xx from 0 to 7
00c0c     00 6C 06 F6 | 	mov	local62, #0
00c10                 | LR__0028
00c10                 | '     if (bb&(1<<xx))<>0
00c10     36 6F C2 F9 | 	decod	local63, local62
00c14     37 6B CA F7 | 	test	local61, local63 wz
00c18     18 00 90 AD |  if_e	jmp	#LR__0029
00c1c     36 E9 01 F6 | 	mov	arg01, local62
00c20     30 E9 01 F1 | 	add	arg01, local56
00c24     33 EB 01 F6 | 	mov	arg02, local59
00c28                 | '       putpixel2(xx+x,yy+y,f)
00c28     02 EC 05 F6 | 	mov	arg03, #2
00c2c     54 08 B0 FD | 	call	#_putpixel2
00c30                 | '     else
00c30     14 00 90 FD | 	jmp	#LR__0030
00c34                 | LR__0029
00c34     36 E9 01 F6 | 	mov	arg01, local62
00c38     30 E9 01 F1 | 	add	arg01, local56
00c3c     33 EB 01 F6 | 	mov	arg02, local59
00c40                 | '       putpixel2(xx+x,yy+y,b)  
00c40     00 EC 05 F6 | 	mov	arg03, #0
00c44     3C 08 B0 FD | 	call	#_putpixel2
00c48                 | LR__0030
00c48     01 6C 06 F1 | 	add	local62, #1
00c4c     08 6C 5E F2 | 	cmps	local62, #8 wcz
00c50     BC FF 9F CD |  if_b	jmp	#LR__0028
00c54     01 66 06 F1 | 	add	local59, #1
00c58     10 66 5E F2 | 	cmps	local59, #16 wcz
00c5c     94 FF 9F CD |  if_b	jmp	#LR__0027
00c60     2F 5B 02 F1 | 	add	local53, local55
00c64     2E 5B 0A F2 | 	cmp	local53, local54 wz
00c68     64 FF 9F 5D |  if_ne	jmp	#LR__0026
00c6c                 | ' waitvbl(480)
00c6c     E0 E9 05 F6 | 	mov	arg01, #480
00c70     C0 09 B0 FD | 	call	#_waitvbl
00c74                 | ' 
00c74                 | ' amode:=(512+192+32+0+3)
00c74                 | ' setmode(amode)
00c74     01 00 00 FF 
00c78     E3 E8 05 F6 | 	mov	arg01, ##739
00c7c     50 0D B0 FD | 	call	#_setmode
00c80                 | ' cls(0,0)
00c80     00 E8 05 F6 | 	mov	arg01, #0
00c84     00 EA 05 F6 | 	mov	arg02, #0
00c88     1C 0A B0 FD | 	call	#_cls
00c8c                 | ' 
00c8c                 | ' outtextxyc4(0,0,string("mode"),9,0)
00c8c     13 00 00 FF 
00c90     CF ED 05 F6 | 	mov	arg03, ##@LR__0178
00c94     00 E8 05 F6 | 	mov	arg01, #0
00c98     00 EA 05 F6 | 	mov	arg02, #0
00c9c     09 EE 05 F6 | 	mov	arg04, #9
00ca0     00 F0 05 F6 | 	mov	arg05, #0
00ca4     D4 02 B0 FD | 	call	#_outtextxyc4
00ca8                 | ' outtextxyc4(0,16,string("lpl"),9,0)'
00ca8     13 00 00 FF 
00cac     D4 ED 05 F6 | 	mov	arg03, ##@LR__0179
00cb0     00 E8 05 F6 | 	mov	arg01, #0
00cb4     10 EA 05 F6 | 	mov	arg02, #16
00cb8     09 EE 05 F6 | 	mov	arg04, #9
00cbc     00 F0 05 F6 | 	mov	arg05, #0
00cc0     B8 02 B0 FD | 	call	#_outtextxyc4
00cc4                 | ' outtextxyc4(0,32,string("buf_ptr"),9,0)
00cc4     13 00 00 FF 
00cc8     D8 ED 05 F6 | 	mov	arg03, ##@LR__0180
00ccc     00 E8 05 F6 | 	mov	arg01, #0
00cd0     20 EA 05 F6 | 	mov	arg02, #32
00cd4     09 EE 05 F6 | 	mov	arg04, #9
00cd8     00 F0 05 F6 | 	mov	arg05, #0
00cdc     9C 02 B0 FD | 	call	#_outtextxyc4
00ce0                 | ' outtextxyc4(0,48,string("buflen"),9,0)
00ce0     13 00 00 FF 
00ce4     E0 ED 05 F6 | 	mov	arg03, ##@LR__0181
00ce8     00 E8 05 F6 | 	mov	arg01, #0
00cec     30 EA 05 F6 | 	mov	arg02, #48
00cf0     09 EE 05 F6 | 	mov	arg04, #9
00cf4     00 F0 05 F6 | 	mov	arg05, #0
00cf8     80 02 B0 FD | 	call	#_outtextxyc4
00cfc                 | ' outtextxyc4(0,64,string("lines"),9,0)
00cfc     13 00 00 FF 
00d00     E7 ED 05 F6 | 	mov	arg03, ##@LR__0182
00d04     00 E8 05 F6 | 	mov	arg01, #0
00d08     40 EA 05 F6 | 	mov	arg02, #64
00d0c     09 EE 05 F6 | 	mov	arg04, #9
00d10     00 F0 05 F6 | 	mov	arg05, #0
00d14     64 02 B0 FD | 	call	#_outtextxyc4
00d18                 | ' outtextxyc4(80,0,inttostr(amode),4,14)
00d18     50 54 06 F6 | 	mov	local50, #80
00d1c     00 56 06 F6 | 	mov	local51, #0
00d20     01 00 00 FF 
00d24     E3 E8 05 F6 | 	mov	arg01, ##739
00d28     94 0B B0 FD | 	call	#_inttostr
00d2c     7B EC 01 F6 | 	mov	arg03, result1
00d30     2A E9 01 F6 | 	mov	arg01, local50
00d34     2B EB 01 F6 | 	mov	arg02, local51
00d38     04 EE 05 F6 | 	mov	arg04, #4
00d3c     0E F0 05 F6 | 	mov	arg05, #14
00d40     38 02 B0 FD | 	call	#_outtextxyc4
00d44                 | ' outtextxyc4(80,16,inttostr(cpl),4,14)
00d44     50 54 06 F6 | 	mov	local50, #80
00d48     10 56 06 F6 | 	mov	local51, #16
00d4c     94 F0 04 F1 | 	add	objptr, #148
00d50     78 E8 01 FB | 	rdlong	arg01, objptr
00d54     94 F0 84 F1 | 	sub	objptr, #148
00d58     64 0B B0 FD | 	call	#_inttostr
00d5c     7B EC 01 F6 | 	mov	arg03, result1
00d60     2A E9 01 F6 | 	mov	arg01, local50
00d64     2B EB 01 F6 | 	mov	arg02, local51
00d68     04 EE 05 F6 | 	mov	arg04, #4
00d6c     0E F0 05 F6 | 	mov	arg05, #14
00d70     08 02 B0 FD | 	call	#_outtextxyc4
00d74                 | ' outtextxyc4(80,32,inttostr(buf_ptr),4,14)
00d74     50 54 06 F6 | 	mov	local50, #80
00d78     20 56 06 F6 | 	mov	local51, #32
00d7c     78 E8 01 FB | 	rdlong	arg01, objptr
00d80     3C 0B B0 FD | 	call	#_inttostr
00d84     7B EC 01 F6 | 	mov	arg03, result1
00d88     2A E9 01 F6 | 	mov	arg01, local50
00d8c     2B EB 01 F6 | 	mov	arg02, local51
00d90     04 EE 05 F6 | 	mov	arg04, #4
00d94     0E F0 05 F6 | 	mov	arg05, #14
00d98     E0 01 B0 FD | 	call	#_outtextxyc4
00d9c     34 F0 04 F1 | 	add	objptr, #52
00da0     78 E8 01 FB | 	rdlong	arg01, objptr
00da4     34 F0 84 F1 | 	sub	objptr, #52
00da8     02 E8 65 F0 | 	shl	arg01, #2
00dac                 | ' outtextxyc4(80,48,inttostr(buflen*4),4,14)
00dac     50 54 06 F6 | 	mov	local50, #80
00db0     30 56 06 F6 | 	mov	local51, #48
00db4     08 0B B0 FD | 	call	#_inttostr
00db8     7B EC 01 F6 | 	mov	arg03, result1
00dbc     2A E9 01 F6 | 	mov	arg01, local50
00dc0     2B EB 01 F6 | 	mov	arg02, local51
00dc4     04 EE 05 F6 | 	mov	arg04, #4
00dc8     0E F0 05 F6 | 	mov	arg05, #14
00dcc     AC 01 B0 FD | 	call	#_outtextxyc4
00dd0                 | ' outtextxyc4(80,64,inttostr(lines),4,0)   
00dd0     50 54 06 F6 | 	mov	local50, #80
00dd4     40 56 06 F6 | 	mov	local51, #64
00dd8     98 F0 04 F1 | 	add	objptr, #152
00ddc     78 E8 01 FB | 	rdlong	arg01, objptr
00de0     98 F0 84 F1 | 	sub	objptr, #152
00de4     D8 0A B0 FD | 	call	#_inttostr
00de8     7B EC 01 F6 | 	mov	arg03, result1
00dec     2A E9 01 F6 | 	mov	arg01, local50
00df0     2B EB 01 F6 | 	mov	arg02, local51
00df4     04 EE 05 F6 | 	mov	arg04, #4
00df8     00 F0 05 F6 | 	mov	arg05, #0
00dfc     7C 01 B0 FD | 	call	#_outtextxyc4
00e00                 | ' waitvbl(2400)
00e00     04 00 00 FF 
00e04     60 E9 05 F6 | 	mov	arg01, ##2400
00e08     28 08 B0 FD | 	call	#_waitvbl
00e0c                 | ' setmode(512+192+48+0+1)
00e0c     01 00 00 FF 
00e10     F1 E8 05 F6 | 	mov	arg01, ##753
00e14     B8 0B B0 FD | 	call	#_setmode
00e18                 | ' cls(15,15)
00e18     0F E8 05 F6 | 	mov	arg01, #15
00e1c     0F EA 05 F6 | 	mov	arg02, #15
00e20     84 08 B0 FD | 	call	#_cls
00e24     80 70 06 F6 | 	mov	local64, #128
00e28     00 72 06 F6 | 	mov	local65, #0
00e2c                 | LR__0031
00e2c     38 55 52 F6 | 	abs	local50, local64 wc
00e30     FF 54 06 F5 | 	and	local50, #255
00e34     2A 55 62 C6 |  if_b	neg	local50, local50
00e38     2A 75 02 F6 | 	mov	local66, local50
00e3c     00 76 06 F6 | 	mov	local67, #0
00e40                 | LR__0032
00e40                 | '     putpixel8(ccc,bbb,(bbb+128)//256)
00e40     39 EB 01 F6 | 	mov	arg02, local65
00e44     3A ED 01 F6 | 	mov	arg03, local66
00e48     3B E9 01 F6 | 	mov	arg01, local67
00e4c     C8 04 B0 FD | 	call	#_putpixel8
00e50     01 76 06 F1 | 	add	local67, #1
00e54     01 00 00 FF 
00e58     00 76 5E F2 | 	cmps	local67, ##512 wcz
00e5c     E0 FF 9F CD |  if_b	jmp	#LR__0032
00e60     01 72 06 F1 | 	add	local65, #1
00e64     01 70 06 F1 | 	add	local64, #1
00e68     01 00 00 FF 
00e6c     40 72 5E F2 | 	cmps	local65, ##576 wcz
00e70     B8 FF 9F CD |  if_b	jmp	#LR__0031
00e74                 | ' outtextxyc8a(0,0+2,string("1234567890123456789012345678901234567890"),24)
00e74     13 00 00 FF 
00e78     ED ED 05 F6 | 	mov	arg03, ##@LR__0183
00e7c     00 E8 05 F6 | 	mov	arg01, #0
00e80     02 EA 05 F6 | 	mov	arg02, #2
00e84     18 EE 05 F6 | 	mov	arg04, #24
00e88     30 02 B0 FD | 	call	#_outtextxyc8a
00e8c                 | ' outtextxyc8a(0,16+2,string("256 colors"),40)
00e8c     14 00 00 FF 
00e90     16 EC 05 F6 | 	mov	arg03, ##@LR__0184
00e94     00 E8 05 F6 | 	mov	arg01, #0
00e98     12 EA 05 F6 | 	mov	arg02, #18
00e9c     28 EE 05 F6 | 	mov	arg04, #40
00ea0     18 02 B0 FD | 	call	#_outtextxyc8a
00ea4                 | ' outtextxyc8a(0,32+2,string("512x576 pixels"),56)
00ea4     14 00 00 FF 
00ea8     21 EC 05 F6 | 	mov	arg03, ##@LR__0185
00eac     00 E8 05 F6 | 	mov	arg01, #0
00eb0     22 EA 05 F6 | 	mov	arg02, #34
00eb4     38 EE 05 F6 | 	mov	arg04, #56
00eb8     00 02 B0 FD | 	call	#_outtextxyc8a
00ebc                 | ' outtextxyc8a(0,48+2,inttostr(buflen),72)
00ebc     00 54 06 F6 | 	mov	local50, #0
00ec0     32 56 06 F6 | 	mov	local51, #50
00ec4     34 F0 04 F1 | 	add	objptr, #52
00ec8     78 E8 01 FB | 	rdlong	arg01, objptr
00ecc     34 F0 84 F1 | 	sub	objptr, #52
00ed0     EC 09 B0 FD | 	call	#_inttostr
00ed4     7B EC 01 F6 | 	mov	arg03, result1
00ed8     2A E9 01 F6 | 	mov	arg01, local50
00edc     2B EB 01 F6 | 	mov	arg02, local51
00ee0     48 EE 05 F6 | 	mov	arg04, #72
00ee4     D4 01 B0 FD | 	call	#_outtextxyc8a
00ee8                 | ' outtextxyc8a(48,48+2,string("longs buffer"),88)
00ee8     14 00 00 FF 
00eec     30 EC 05 F6 | 	mov	arg03, ##@LR__0186
00ef0     30 E8 05 F6 | 	mov	arg01, #48
00ef4     32 EA 05 F6 | 	mov	arg02, #50
00ef8     58 EE 05 F6 | 	mov	arg04, #88
00efc     BC 01 B0 FD | 	call	#_outtextxyc8a
00f00                 | ' outtextxyc8a(0,64+2,inttostr(long[0]),104)
00f00     00 54 06 F6 | 	mov	local50, #0
00f04     42 56 06 F6 | 	mov	local51, #66
00f08     00 E8 05 FB | 	rdlong	arg01, #0
00f0c     B0 09 B0 FD | 	call	#_inttostr
00f10     7B EC 01 F6 | 	mov	arg03, result1
00f14     2A E9 01 F6 | 	mov	arg01, local50
00f18     2B EB 01 F6 | 	mov	arg02, local51
00f1c     68 EE 05 F6 | 	mov	arg04, #104
00f20     98 01 B0 FD | 	call	#_outtextxyc8a
00f24                 | ' repeat
00f24                 | LR__0033
00f24                 | '   waitvbl(0)
00f24     00 E8 05 F6 | 	mov	arg01, #0
00f28     08 07 B0 FD | 	call	#_waitvbl
00f2c                 | ' '  ccc:=(getrnd+//576)<<2
00f2c                 | '   
00f2c                 | '   bbb:=long[dl_ptr]
00f2c     20 F0 04 F1 | 	add	objptr, #32
00f30     78 EA 01 FB | 	rdlong	arg02, objptr
00f34     F5 72 02 FB | 	rdlong	local65, arg02
00f38     04 EA 05 F1 | 	add	arg02, #4
00f3c                 | '   longmove(dl_ptr,dl_ptr+4,575)
00f3c     78 E8 01 FB | 	rdlong	arg01, objptr
00f40     20 F0 84 F1 | 	sub	objptr, #32
00f44     01 00 00 FF 
00f48     3F EC 05 F6 | 	mov	arg03, ##575
00f4c     D4 16 B0 FD | 	call	#__system__longmove
00f50     20 F0 04 F1 | 	add	objptr, #32
00f54     78 78 02 FB | 	rdlong	local68, objptr
00f58     20 F0 84 F1 | 	sub	objptr, #32
00f5c     04 00 00 FF 
00f60     FC 78 06 F1 | 	add	local68, ##2300
00f64                 | ' '  repeat i from 0 to 574
00f64                 | ' '    long[dl_ptr+4*i]:=long[dl_ptr+4*i+4]
00f64                 | ' '  long[dl_ptr+4*574]:=bbb
00f64                 | '   long[dl_ptr+4*575]:=bbb
00f64     3C 73 62 FC | 	wrlong	local65, local68
00f68     B8 FF 9F FD | 	jmp	#LR__0033
00f6c                 | ' 
00f6c                 | ' {{
00f6c                 | '           waitvbl(240)	}}
00f6c                 | ' 'cls(0,1)    
00f6c                 | ' 
00f6c                 | ' 'putcharxycz8(50,50,97,40,0,1,1)
00f6c                 | ' 'repeat x from 0 to 31
00f6c                 | ' '  repeat i from 0 to 479
00f6c                 | ' '    putpixel4(i+x,i,2)
00f6c                 | ' '  waitvbl(0)
00f6c                 | ' 'outtextxyc4(0,0,string("cpl"),1,0)
00f6c                 | ' 'outtextxyc4(0,16,string("buf_ptr"),1,0)
00f6c                 | ' 'outtextxyc4(0,32,string("buflen"),1,0)
00f6c                 | ' 'outtextxyc4(0,48,string("lines"),1,0)
00f6c                 | ' 'outtextxyc4(100,0,inttostr(cpl),1,0)
00f6c                 | ' 'outtextxyc4(100,16,inttostr(buf_ptr),1,0)
00f6c                 | ' 'outtextxyc4(100,32,inttostr(buflen*4),1,0)
00f6c                 | ' 'outtextxyc4(100,48,inttostr(lines),1,0)
00f6c                 | ' 'repeat i from 2*cpl to  -2*cpl  
00f6c                 | ' '  outtextxyc4(i,100,string("1234567890123456789012345678901234567890"),1,0) 
00f6c                 | ' '  waitvbl(5) 
00f6c                 | ' 'i:=cpl
00f6c                 | ' 'waitvbl(2400)
00f6c                 | ' 'setmode (0)
00f6c                 | ' 'cls(154,147)
00f6c                 | ' 'writeln(inttostr(i))
00f6c                 | ' 'cls(154,147)
00f6c                 | ' 'writeln(inttostr(xzoom))
00f6c                 | ' 'writeln(inttostr(buflen))
00f6c                 | ' 'writeln(string("Hello, World!"))
00f6c                 | ' 'writeln(string("You started the driver instead of your main program!"))
00f6c                 | ' 'writeln(string("This is an alpha 0.13 version of displaylisted driver"))
00f6c                 | ' 'writeln(inttohex(buf_ptr,8))
00f6c                 | ' 'writeln(string("This line is reversed"))
00f6c                 | ' 'writeln(string("The text above is double height, while this line is single height"))
00f6c                 | ' 'writeln(string("Did you ever see a BLUE monitor?"))
00f6c                 | ' 'repeat i from 0 to 300
00f6c                 | '  ' write(inttohex(long[dl_ptr+4*i],8))
00f6c                 | '   'write(string("  "))
00f6c                 | ' 'waitms(1000)
00f6c                 | ' repeat
00f6c                 | LR__0034
00f6c     FC FF 9F FD | 	jmp	#LR__0034
00f70     46 F0 03 F6 | 	mov	ptra, fp
00f74     5A 00 A0 FD | 	call	#popregs_
00f78                 | _dummy_ret
00f78     2D 00 64 FD | 	ret
00f7c                 | 
00f7c                 | ' 
00f7c                 | ' pub outtextxyc4(x,y,text,f,b) | iii,c
00f7c                 | _outtextxyc4
00f7c     0C 88 04 F6 | 	mov	COUNT_, #12
00f80     4B 00 A0 FD | 	call	#pushregs_
00f84     F4 F2 01 F6 | 	mov	local01, arg01
00f88     F5 F4 01 F6 | 	mov	local02, arg02
00f8c     F6 F6 01 F6 | 	mov	local03, arg03
00f90     F7 F8 01 F6 | 	mov	local04, arg04
00f94     F8 FA 01 F6 | 	mov	local05, arg05
00f98                 | ' 
00f98                 | ' repeat iii from 0 to strsize(text)-1
00f98     00 FC 05 F6 | 	mov	local06, #0
00f9c     FB E8 01 F6 | 	mov	arg01, local03
00fa0     00 FE 05 F6 | 	mov	local07, #0
00fa4     68 F0 9F FE | 	loc	pa,	#(@LR__0036-@LR__0035)
00fa8     35 00 A0 FD | 	call	#FCACHE_LOAD_
00fac                 | LR__0035
00fac     F4 00 CA FA | 	rdbyte	local08, arg01 wz
00fb0     01 FE 05 51 |  if_ne	add	local07, #1
00fb4     01 E8 05 51 |  if_ne	add	arg01, #1
00fb8     F0 FF 9F 5D |  if_ne	jmp	#LR__0035
00fbc                 | LR__0036
00fbc     FF F6 00 F6 | 	mov	result1, local07
00fc0     7B 02 02 F6 | 	mov	local09, result1
00fc4     01 02 86 F1 | 	sub	local09, #1
00fc8     00 02 5E F2 | 	cmps	local09, #0 wcz
00fcc     01 04 06 16 |  if_a	mov	local10, #1
00fd0     01 04 66 E6 |  if_be	neg	local10, #1
00fd4     02 03 02 F1 | 	add	local09, local10
00fd8                 | LR__0037
00fd8     FE 06 02 F6 | 	mov	local11, local06
00fdc     03 06 66 F0 | 	shl	local11, #3
00fe0     F9 E8 01 F6 | 	mov	arg01, local01
00fe4     03 E9 01 F1 | 	add	arg01, local11
00fe8     FB 08 02 F6 | 	mov	local12, local03
00fec     FE 08 02 F1 | 	add	local12, local06
00ff0                 | ' 
00ff0                 | '     putcharxyc4(x+8*iii,y,byte[text+iii],f,b)
00ff0     FA EA 01 F6 | 	mov	arg02, local02
00ff4     04 ED C1 FA | 	rdbyte	arg03, local12
00ff8     FC EE 01 F6 | 	mov	arg04, local04
00ffc     FD F0 01 F6 | 	mov	arg05, local05
01000     50 01 B0 FD | 	call	#_putcharxyc4
01004     02 FD 01 F1 | 	add	local06, local10
01008     01 FD 09 F2 | 	cmp	local06, local09 wz
0100c     C8 FF 9F 5D |  if_ne	jmp	#LR__0037
01010     46 F0 03 F6 | 	mov	ptra, fp
01014     5A 00 A0 FD | 	call	#popregs_
01018                 | _outtextxyc4_ret
01018     2D 00 64 FD | 	ret
0101c                 | 
0101c                 | ' 
0101c                 | ' pub outtextxyc1(x,y,text,f,b) | iii,c
0101c                 | _outtextxyc1
0101c     0C 88 04 F6 | 	mov	COUNT_, #12
01020     4B 00 A0 FD | 	call	#pushregs_
01024     F4 F2 01 F6 | 	mov	local01, arg01
01028     F5 F4 01 F6 | 	mov	local02, arg02
0102c     F6 F6 01 F6 | 	mov	local03, arg03
01030     F7 F8 01 F6 | 	mov	local04, arg04
01034     F8 FA 01 F6 | 	mov	local05, arg05
01038                 | ' 
01038                 | ' repeat iii from 0 to strsize(text)-1
01038     00 FC 05 F6 | 	mov	local06, #0
0103c     FB E8 01 F6 | 	mov	arg01, local03
01040     00 FE 05 F6 | 	mov	local07, #0
01044     C8 EF 9F FE | 	loc	pa,	#(@LR__0039-@LR__0038)
01048     35 00 A0 FD | 	call	#FCACHE_LOAD_
0104c                 | LR__0038
0104c     F4 00 CA FA | 	rdbyte	local08, arg01 wz
01050     01 FE 05 51 |  if_ne	add	local07, #1
01054     01 E8 05 51 |  if_ne	add	arg01, #1
01058     F0 FF 9F 5D |  if_ne	jmp	#LR__0038
0105c                 | LR__0039
0105c     FF F6 00 F6 | 	mov	result1, local07
01060     7B 02 02 F6 | 	mov	local09, result1
01064     01 02 86 F1 | 	sub	local09, #1
01068     00 02 5E F2 | 	cmps	local09, #0 wcz
0106c     01 04 06 16 |  if_a	mov	local10, #1
01070     01 04 66 E6 |  if_be	neg	local10, #1
01074     02 03 02 F1 | 	add	local09, local10
01078                 | LR__0040
01078     FE 06 02 F6 | 	mov	local11, local06
0107c     03 06 66 F0 | 	shl	local11, #3
01080     F9 E8 01 F6 | 	mov	arg01, local01
01084     03 E9 01 F1 | 	add	arg01, local11
01088     FB 08 02 F6 | 	mov	local12, local03
0108c     FE 08 02 F1 | 	add	local12, local06
01090                 | ' 
01090                 | '     putcharxyc1(x+8*iii,y,byte[text+iii],f,b)
01090     FA EA 01 F6 | 	mov	arg02, local02
01094     04 ED C1 FA | 	rdbyte	arg03, local12
01098     FC EE 01 F6 | 	mov	arg04, local04
0109c     FD F0 01 F6 | 	mov	arg05, local05
010a0     4C 01 B0 FD | 	call	#_putcharxyc1
010a4     02 FD 01 F1 | 	add	local06, local10
010a8     01 FD 09 F2 | 	cmp	local06, local09 wz
010ac     C8 FF 9F 5D |  if_ne	jmp	#LR__0040
010b0     46 F0 03 F6 | 	mov	ptra, fp
010b4     5A 00 A0 FD | 	call	#popregs_
010b8                 | _outtextxyc1_ret
010b8     2D 00 64 FD | 	ret
010bc                 | 
010bc                 | ' 
010bc                 | ' pub outtextxyc8a(x,y,text,f) | iii,c
010bc                 | _outtextxyc8a
010bc     0B 88 04 F6 | 	mov	COUNT_, #11
010c0     4B 00 A0 FD | 	call	#pushregs_
010c4     F4 F2 01 F6 | 	mov	local01, arg01
010c8     F5 F4 01 F6 | 	mov	local02, arg02
010cc     F6 F6 01 F6 | 	mov	local03, arg03
010d0     F7 F8 01 F6 | 	mov	local04, arg04
010d4                 | ' 
010d4                 | ' repeat iii from 0 to strsize(text)-1
010d4     00 FA 05 F6 | 	mov	local05, #0
010d8     FB E8 01 F6 | 	mov	arg01, local03
010dc     00 FC 05 F6 | 	mov	local06, #0
010e0     2C EF 9F FE | 	loc	pa,	#(@LR__0042-@LR__0041)
010e4     35 00 A0 FD | 	call	#FCACHE_LOAD_
010e8                 | LR__0041
010e8     F4 FE C9 FA | 	rdbyte	local07, arg01 wz
010ec     01 FC 05 51 |  if_ne	add	local06, #1
010f0     01 E8 05 51 |  if_ne	add	arg01, #1
010f4     F0 FF 9F 5D |  if_ne	jmp	#LR__0041
010f8                 | LR__0042
010f8     FE F6 00 F6 | 	mov	result1, local06
010fc     7B 00 02 F6 | 	mov	local08, result1
01100     01 00 86 F1 | 	sub	local08, #1
01104     00 00 5E F2 | 	cmps	local08, #0 wcz
01108     01 02 06 16 |  if_a	mov	local09, #1
0110c     01 02 66 E6 |  if_be	neg	local09, #1
01110     01 01 02 F1 | 	add	local08, local09
01114                 | LR__0043
01114     FD 04 02 F6 | 	mov	local10, local05
01118     03 04 66 F0 | 	shl	local10, #3
0111c     F9 E8 01 F6 | 	mov	arg01, local01
01120     02 E9 01 F1 | 	add	arg01, local10
01124     FB 06 02 F6 | 	mov	local11, local03
01128     FD 06 02 F1 | 	add	local11, local05
0112c                 | ' 
0112c                 | '     putcharxyc8a(x+8*iii,y,byte[text+iii],f)
0112c     FA EA 01 F6 | 	mov	arg02, local02
01130     03 ED C1 FA | 	rdbyte	arg03, local11
01134     FC EE 01 F6 | 	mov	arg04, local04
01138     58 01 B0 FD | 	call	#_putcharxyc8a
0113c     01 FB 01 F1 | 	add	local05, local09
01140     00 FB 09 F2 | 	cmp	local05, local08 wz
01144     CC FF 9F 5D |  if_ne	jmp	#LR__0043
01148     46 F0 03 F6 | 	mov	ptra, fp
0114c     5A 00 A0 FD | 	call	#popregs_
01150                 | _outtextxyc8a_ret
01150     2D 00 64 FD | 	ret
01154                 | 
01154                 | '  
01154                 | ' pub putcharxyc4(x,y,achar,f,b) |xx, yy,bb
01154                 | _putcharxyc4
01154     0A 88 04 F6 | 	mov	COUNT_, #10
01158     4B 00 A0 FD | 	call	#pushregs_
0115c     F4 F2 01 F6 | 	mov	local01, arg01
01160     F5 F4 01 F6 | 	mov	local02, arg02
01164     F6 F6 01 F6 | 	mov	local03, arg03
01168     F7 F8 01 F6 | 	mov	local04, arg04
0116c     F8 FA 01 F6 | 	mov	local05, arg05
01170     04 F6 65 F0 | 	shl	local03, #4
01174     00 FC 05 F6 | 	mov	local06, #0
01178                 | LR__0044
01178     7A FE 01 F6 | 	mov	local07, ptr__dat__
0117c     FB FE 01 F1 | 	add	local07, local03
01180     FE FE 01 F1 | 	add	local07, local06
01184                 | '   bb:=byte[@vga_font+16*achar+yy]
01184     FF 00 C2 FA | 	rdbyte	local08, local07
01188                 | '   repeat xx from 0 to 7
01188     00 02 06 F6 | 	mov	local09, #0
0118c                 | LR__0045
0118c                 | '     if (bb&(1<<xx))<>0
0118c     01 05 C2 F9 | 	decod	local10, local09
01190     02 01 CA F7 | 	test	local08, local10 wz
01194     1C 00 90 AD |  if_e	jmp	#LR__0046
01198     01 E9 01 F6 | 	mov	arg01, local09
0119c     F9 E8 01 F1 | 	add	arg01, local01
011a0     FE EA 01 F6 | 	mov	arg02, local06
011a4     FA EA 01 F1 | 	add	arg02, local02
011a8                 | '       putpixel4(xx+x,yy+y,f)
011a8     FC EC 01 F6 | 	mov	arg03, local04
011ac     AC 03 B0 FD | 	call	#_putpixel4
011b0                 | '     else
011b0     18 00 90 FD | 	jmp	#LR__0047
011b4                 | LR__0046
011b4     01 E9 01 F6 | 	mov	arg01, local09
011b8     F9 E8 01 F1 | 	add	arg01, local01
011bc     FE EA 01 F6 | 	mov	arg02, local06
011c0     FA EA 01 F1 | 	add	arg02, local02
011c4                 | '       putpixel4(xx+x,yy+y,b)   
011c4     FD EC 01 F6 | 	mov	arg03, local05
011c8     90 03 B0 FD | 	call	#_putpixel4
011cc                 | LR__0047
011cc     01 02 06 F1 | 	add	local09, #1
011d0     08 02 5E F2 | 	cmps	local09, #8 wcz
011d4     B4 FF 9F CD |  if_b	jmp	#LR__0045
011d8     01 FC 05 F1 | 	add	local06, #1
011dc     10 FC 5D F2 | 	cmps	local06, #16 wcz
011e0     94 FF 9F CD |  if_b	jmp	#LR__0044
011e4     46 F0 03 F6 | 	mov	ptra, fp
011e8     5A 00 A0 FD | 	call	#popregs_
011ec                 | _putcharxyc4_ret
011ec     2D 00 64 FD | 	ret
011f0                 | 
011f0                 | '             
011f0                 | ' 
011f0                 | ' pub putcharxyc1(x,y,achar,f,b) |xx, yy,bb
011f0                 | _putcharxyc1
011f0     0A 88 04 F6 | 	mov	COUNT_, #10
011f4     4B 00 A0 FD | 	call	#pushregs_
011f8     F4 F2 01 F6 | 	mov	local01, arg01
011fc     F5 F4 01 F6 | 	mov	local02, arg02
01200     F6 F6 01 F6 | 	mov	local03, arg03
01204     F7 F8 01 F6 | 	mov	local04, arg04
01208     F8 FA 01 F6 | 	mov	local05, arg05
0120c     04 F6 65 F0 | 	shl	local03, #4
01210     00 FC 05 F6 | 	mov	local06, #0
01214                 | LR__0048
01214     7A FE 01 F6 | 	mov	local07, ptr__dat__
01218     FB FE 01 F1 | 	add	local07, local03
0121c     FE FE 01 F1 | 	add	local07, local06
01220     08 00 00 FF 
01224     00 FE 05 F1 | 	add	local07, ##4096
01228                 | '   bb:=byte[@vga_font+16*achar+yy+4096]
01228     FF 00 C2 FA | 	rdbyte	local08, local07
0122c                 | '   repeat xx from 0 to 7
0122c     00 02 06 F6 | 	mov	local09, #0
01230                 | LR__0049
01230                 | '     if (bb&(1<<xx))<>0
01230     01 05 C2 F9 | 	decod	local10, local09
01234     02 01 CA F7 | 	test	local08, local10 wz
01238     1C 00 90 AD |  if_e	jmp	#LR__0050
0123c     01 E9 01 F6 | 	mov	arg01, local09
01240     F9 E8 01 F1 | 	add	arg01, local01
01244     FE EA 01 F6 | 	mov	arg02, local06
01248     FA EA 01 F1 | 	add	arg02, local02
0124c                 | '       putpixel1(xx+x,yy+y,f)
0124c     FC EC 01 F6 | 	mov	arg03, local04
01250     48 01 B0 FD | 	call	#_putpixel1
01254                 | '     else
01254     18 00 90 FD | 	jmp	#LR__0051
01258                 | LR__0050
01258     01 E9 01 F6 | 	mov	arg01, local09
0125c     F9 E8 01 F1 | 	add	arg01, local01
01260     FE EA 01 F6 | 	mov	arg02, local06
01264     FA EA 01 F1 | 	add	arg02, local02
01268                 | '       putpixel1(xx+x,yy+y,b)  
01268     FD EC 01 F6 | 	mov	arg03, local05
0126c     2C 01 B0 FD | 	call	#_putpixel1
01270                 | LR__0051
01270     01 02 06 F1 | 	add	local09, #1
01274     08 02 5E F2 | 	cmps	local09, #8 wcz
01278     B4 FF 9F CD |  if_b	jmp	#LR__0049
0127c     01 FC 05 F1 | 	add	local06, #1
01280     10 FC 5D F2 | 	cmps	local06, #16 wcz
01284     8C FF 9F CD |  if_b	jmp	#LR__0048
01288     46 F0 03 F6 | 	mov	ptra, fp
0128c     5A 00 A0 FD | 	call	#popregs_
01290                 | _putcharxyc1_ret
01290     2D 00 64 FD | 	ret
01294                 | 
01294                 | ' 
01294                 | ' 
01294                 | ' pub putcharxyc8a(x,y,achar,f) |xx, yy,bb
01294                 | _putcharxyc8a
01294     09 88 04 F6 | 	mov	COUNT_, #9
01298     4B 00 A0 FD | 	call	#pushregs_
0129c     F4 F2 01 F6 | 	mov	local01, arg01
012a0     F5 F4 01 F6 | 	mov	local02, arg02
012a4     F6 F6 01 F6 | 	mov	local03, arg03
012a8     F7 F8 01 F6 | 	mov	local04, arg04
012ac     04 F6 65 F0 | 	shl	local03, #4
012b0     00 FA 05 F6 | 	mov	local05, #0
012b4                 | LR__0052
012b4     7A FC 01 F6 | 	mov	local06, ptr__dat__
012b8     08 00 00 FF 
012bc     00 FC 05 F1 | 	add	local06, ##4096
012c0     FB FC 01 F1 | 	add	local06, local03
012c4     FD FC 01 F1 | 	add	local06, local05
012c8                 | '   bb:=byte[@vga_font+4096+16*achar+yy]
012c8     FE FE C1 FA | 	rdbyte	local07, local06
012cc                 | '   repeat xx from 0 to 7
012cc     00 00 06 F6 | 	mov	local08, #0
012d0                 | LR__0053
012d0                 | '     if (bb&(1<<xx))<>0
012d0     00 03 C2 F9 | 	decod	local09, local08
012d4     01 FF C9 F7 | 	test	local07, local09 wz
012d8     18 00 90 AD |  if_e	jmp	#LR__0054
012dc     00 E9 01 F6 | 	mov	arg01, local08
012e0     F9 E8 01 F1 | 	add	arg01, local01
012e4     FD EA 01 F6 | 	mov	arg02, local05
012e8     FA EA 01 F1 | 	add	arg02, local02
012ec                 | '       putpixel8(xx+x,yy+y,f)
012ec     FC EC 01 F6 | 	mov	arg03, local04
012f0     24 00 B0 FD | 	call	#_putpixel8
012f4                 | LR__0054
012f4     01 00 06 F1 | 	add	local08, #1
012f8     08 00 5E F2 | 	cmps	local08, #8 wcz
012fc     D0 FF 9F CD |  if_b	jmp	#LR__0053
01300     01 FA 05 F1 | 	add	local05, #1
01304     10 FA 5D F2 | 	cmps	local05, #16 wcz
01308     A8 FF 9F CD |  if_b	jmp	#LR__0052
0130c     46 F0 03 F6 | 	mov	ptra, fp
01310     5A 00 A0 FD | 	call	#popregs_
01314                 | _putcharxyc8a_ret
01314     2D 00 64 FD | 	ret
01318                 | 
01318                 | ' 
01318                 | ' 
01318                 | ' pub putpixel8(x,y,c)
01318                 | _putpixel8
01318                 | ' 
01318                 | ' 
01318                 | ' if ((x>=0) & (x<4*cpl) & (y>=0) & (y<lines)) 
01318     00 F8 04 F6 | 	mov	_var01, #0
0131c     00 E8 5D F2 | 	cmps	arg01, #0 wcz
01320     01 F8 64 36 |  if_ae	neg	_var01, #1
01324     00 FA 04 F6 | 	mov	_var02, #0
01328     94 F0 04 F1 | 	add	objptr, #148
0132c     78 FC 00 FB | 	rdlong	_var03, objptr
01330     02 FC 64 F0 | 	shl	_var03, #2
01334     7E E8 59 F2 | 	cmps	arg01, _var03 wcz
01338     01 FA 64 C6 |  if_b	neg	_var02, #1
0133c     7D F8 00 F5 | 	and	_var01, _var02
01340     00 FE 04 F6 | 	mov	_var04, #0
01344     00 EA 5D F2 | 	cmps	arg02, #0 wcz
01348     01 FE 64 36 |  if_ae	neg	_var04, #1
0134c     7F F8 00 F5 | 	and	_var01, _var04
01350     00 00 05 F6 | 	mov	_var05, #0
01354     04 F0 04 F1 | 	add	objptr, #4
01358     78 02 01 FB | 	rdlong	_var06, objptr
0135c     98 F0 84 F1 | 	sub	objptr, #152
01360     81 EA 59 F2 | 	cmps	arg02, _var06 wcz
01364     01 00 65 C6 |  if_b	neg	_var05, #1
01368     80 F8 C8 F7 | 	test	_var01, _var05 wz
0136c     28 00 90 AD |  if_e	jmp	#LR__0055
01370     94 F0 04 F1 | 	add	objptr, #148
01374     78 04 01 FB | 	rdlong	_var07, objptr
01378     94 F0 84 F1 | 	sub	objptr, #148
0137c     02 04 65 F0 | 	shl	_var07, #2
01380     F5 04 01 FD | 	qmul	_var07, arg02
01384     18 06 61 FD | 	getqx	_var08
01388     78 08 01 FB | 	rdlong	_var09, objptr
0138c     83 08 01 F1 | 	add	_var09, _var08
01390     F4 08 01 F1 | 	add	_var09, arg01
01394                 | '     byte[buf_ptr+4*cpl*y+x]:=c
01394     84 EC 41 FC | 	wrbyte	arg03, _var09
01398                 | LR__0055
01398                 | _putpixel8_ret
01398     2D 00 64 FD | 	ret
0139c                 | 
0139c                 | ' 
0139c                 | ' pub putpixel1(x,y,c) |byte b
0139c                 | _putpixel1
0139c                 | ' 
0139c                 | ' 
0139c                 | ' if ((x>=0) & (x<32*cpl) & (y>=0) & (y<lines)) 
0139c     00 F8 04 F6 | 	mov	_var01, #0
013a0     00 E8 5D F2 | 	cmps	arg01, #0 wcz
013a4     01 F8 64 36 |  if_ae	neg	_var01, #1
013a8     00 FA 04 F6 | 	mov	_var02, #0
013ac     94 F0 04 F1 | 	add	objptr, #148
013b0     78 FC 00 FB | 	rdlong	_var03, objptr
013b4     05 FC 64 F0 | 	shl	_var03, #5
013b8     7E E8 59 F2 | 	cmps	arg01, _var03 wcz
013bc     01 FA 64 C6 |  if_b	neg	_var02, #1
013c0     7D F8 00 F5 | 	and	_var01, _var02
013c4     00 FE 04 F6 | 	mov	_var04, #0
013c8     00 EA 5D F2 | 	cmps	arg02, #0 wcz
013cc     01 FE 64 36 |  if_ae	neg	_var04, #1
013d0     7F F8 00 F5 | 	and	_var01, _var04
013d4     00 00 05 F6 | 	mov	_var05, #0
013d8     04 F0 04 F1 | 	add	objptr, #4
013dc     78 02 01 FB | 	rdlong	_var06, objptr
013e0     98 F0 84 F1 | 	sub	objptr, #152
013e4     81 EA 59 F2 | 	cmps	arg02, _var06 wcz
013e8     01 00 65 C6 |  if_b	neg	_var05, #1
013ec     80 F8 C8 F7 | 	test	_var01, _var05 wz
013f0     8C 00 90 AD |  if_e	jmp	#LR__0058
013f4     94 F0 04 F1 | 	add	objptr, #148
013f8     78 04 01 FB | 	rdlong	_var07, objptr
013fc     94 F0 84 F1 | 	sub	objptr, #148
01400     02 04 65 F0 | 	shl	_var07, #2
01404     F5 04 01 FD | 	qmul	_var07, arg02
01408     18 06 61 FD | 	getqx	_var08
0140c     78 08 01 FB | 	rdlong	_var09, objptr
01410     83 08 01 F1 | 	add	_var09, _var08
01414     F4 0A 01 F6 | 	mov	_var10, arg01
01418     03 0A 45 F0 | 	shr	_var10, #3
0141c     85 08 01 F1 | 	add	_var09, _var10
01420                 | '     b:=byte[buf_ptr+4*cpl*y+(x>>3)]
01420     84 20 C1 FA | 	rdbyte	_var11, _var09
01424                 | '     if (c==0) 
01424     00 EC 0D F2 | 	cmp	arg03, #0 wz
01428     18 00 90 5D |  if_ne	jmp	#LR__0056
0142c     F4 F8 50 F6 | 	abs	_var01, arg01 wc
01430     07 F8 04 F5 | 	and	_var01, #7
01434     7C F8 60 C6 |  if_b	neg	_var01, _var01
01438     7C 36 C1 F9 | 	decod	_var12, _var01
0143c                 | '       b:=b & !(1<<(x//8))
0143c     9B 20 21 F5 | 	andn	_var11, _var12
01440                 | '     else 
01440     14 00 90 FD | 	jmp	#LR__0057
01444                 | LR__0056
01444     F4 F8 50 F6 | 	abs	_var01, arg01 wc
01448     07 F8 04 F5 | 	and	_var01, #7
0144c     7C F8 60 C6 |  if_b	neg	_var01, _var01
01450     7C 3A C1 F9 | 	decod	_var13, _var01
01454                 | '       b:=b |(1<<(x//8)) 
01454     9D 20 41 F5 | 	or	_var11, _var13
01458                 | LR__0057
01458     94 F0 04 F1 | 	add	objptr, #148
0145c     78 3C 01 FB | 	rdlong	_var14, objptr
01460     94 F0 84 F1 | 	sub	objptr, #148
01464     02 3C 65 F0 | 	shl	_var14, #2
01468     F5 3C 01 FD | 	qmul	_var14, arg02
0146c     18 3E 61 FD | 	getqx	_var15
01470     78 40 01 FB | 	rdlong	_var16, objptr
01474     9F 40 01 F1 | 	add	_var16, _var15
01478     85 40 01 F1 | 	add	_var16, _var10
0147c                 | '     byte[buf_ptr+4*cpl*y+(x>>3)]:=b
0147c     A0 20 41 FC | 	wrbyte	_var11, _var16
01480                 | LR__0058
01480                 | _putpixel1_ret
01480     2D 00 64 FD | 	ret
01484                 | 
01484                 | ' 
01484                 | ' pub putpixel2(x,y,c) |byte b
01484                 | _putpixel2
01484                 | ' 
01484                 | ' 
01484                 | ' if ((x>=0) & (x<16*cpl) & (y>=0) & (y<lines)) 
01484     00 F8 04 F6 | 	mov	_var01, #0
01488     00 E8 5D F2 | 	cmps	arg01, #0 wcz
0148c     01 F8 64 36 |  if_ae	neg	_var01, #1
01490     00 FA 04 F6 | 	mov	_var02, #0
01494     94 F0 04 F1 | 	add	objptr, #148
01498     78 FC 00 FB | 	rdlong	_var03, objptr
0149c     04 FC 64 F0 | 	shl	_var03, #4
014a0     7E E8 59 F2 | 	cmps	arg01, _var03 wcz
014a4     01 FA 64 C6 |  if_b	neg	_var02, #1
014a8     7D F8 00 F5 | 	and	_var01, _var02
014ac     00 FE 04 F6 | 	mov	_var04, #0
014b0     00 EA 5D F2 | 	cmps	arg02, #0 wcz
014b4     01 FE 64 36 |  if_ae	neg	_var04, #1
014b8     7F F8 00 F5 | 	and	_var01, _var04
014bc     00 00 05 F6 | 	mov	_var05, #0
014c0     04 F0 04 F1 | 	add	objptr, #4
014c4     78 02 01 FB | 	rdlong	_var06, objptr
014c8     98 F0 84 F1 | 	sub	objptr, #152
014cc     81 EA 59 F2 | 	cmps	arg02, _var06 wcz
014d0     01 00 65 C6 |  if_b	neg	_var05, #1
014d4     80 F8 C8 F7 | 	test	_var01, _var05 wz
014d8     7C 00 90 AD |  if_e	jmp	#LR__0059
014dc     94 F0 04 F1 | 	add	objptr, #148
014e0     78 04 01 FB | 	rdlong	_var07, objptr
014e4     94 F0 84 F1 | 	sub	objptr, #148
014e8     02 04 65 F0 | 	shl	_var07, #2
014ec     F5 04 01 FD | 	qmul	_var07, arg02
014f0     18 06 61 FD | 	getqx	_var08
014f4     78 08 01 FB | 	rdlong	_var09, objptr
014f8     83 08 01 F1 | 	add	_var09, _var08
014fc     F4 0A 01 F6 | 	mov	_var10, arg01
01500     02 0A 45 F0 | 	shr	_var10, #2
01504     85 08 01 F1 | 	add	_var09, _var10
01508                 | '     b:=byte[buf_ptr+4*cpl*y+(x>>2)]
01508     84 20 C1 FA | 	rdbyte	_var11, _var09
0150c     F4 F8 50 F6 | 	abs	_var01, arg01 wc
01510     03 F8 04 F5 | 	and	_var01, #3
01514     7C F8 60 C6 |  if_b	neg	_var01, _var01
01518     01 F8 64 F0 | 	shl	_var01, #1
0151c     03 36 05 F6 | 	mov	_var12, #3
01520     7C 36 61 F0 | 	shl	_var12, _var01
01524                 | '     b:=b & !(%11<<((x//4)<<1))
01524     9B 20 21 F5 | 	andn	_var11, _var12
01528     7C EC 61 F0 | 	shl	arg03, _var01
0152c                 | '     b:=b |(c<<((x//4)<<1)) 
0152c     F6 20 41 F5 | 	or	_var11, arg03
01530     94 F0 04 F1 | 	add	objptr, #148
01534     78 3A 01 FB | 	rdlong	_var13, objptr
01538     94 F0 84 F1 | 	sub	objptr, #148
0153c     02 3A 65 F0 | 	shl	_var13, #2
01540     F5 3A 01 FD | 	qmul	_var13, arg02
01544     18 3C 61 FD | 	getqx	_var14
01548     78 3E 01 FB | 	rdlong	_var15, objptr
0154c     9E 3E 01 F1 | 	add	_var15, _var14
01550     85 3E 01 F1 | 	add	_var15, _var10
01554                 | '     byte[buf_ptr+4*cpl*y+(x>>2)]:=b
01554     9F 20 41 FC | 	wrbyte	_var11, _var15
01558                 | LR__0059
01558                 | _putpixel2_ret
01558     2D 00 64 FD | 	ret
0155c                 | 
0155c                 | '     
0155c                 | ' pub putpixel4(x,y,c) |byte b
0155c                 | _putpixel4
0155c                 | ' 
0155c                 | ' 
0155c                 | ' if ((x>=0) & (x<16*cpl) & (y>=0) & (y<lines)) 
0155c     00 F8 04 F6 | 	mov	_var01, #0
01560     00 E8 5D F2 | 	cmps	arg01, #0 wcz
01564     01 F8 64 36 |  if_ae	neg	_var01, #1
01568     00 FA 04 F6 | 	mov	_var02, #0
0156c     94 F0 04 F1 | 	add	objptr, #148
01570     78 FC 00 FB | 	rdlong	_var03, objptr
01574     04 FC 64 F0 | 	shl	_var03, #4
01578     7E E8 59 F2 | 	cmps	arg01, _var03 wcz
0157c     01 FA 64 C6 |  if_b	neg	_var02, #1
01580     7D F8 00 F5 | 	and	_var01, _var02
01584     00 FE 04 F6 | 	mov	_var04, #0
01588     00 EA 5D F2 | 	cmps	arg02, #0 wcz
0158c     01 FE 64 36 |  if_ae	neg	_var04, #1
01590     7F F8 00 F5 | 	and	_var01, _var04
01594     00 00 05 F6 | 	mov	_var05, #0
01598     04 F0 04 F1 | 	add	objptr, #4
0159c     78 02 01 FB | 	rdlong	_var06, objptr
015a0     98 F0 84 F1 | 	sub	objptr, #152
015a4     81 EA 59 F2 | 	cmps	arg02, _var06 wcz
015a8     01 00 65 C6 |  if_b	neg	_var05, #1
015ac     80 F8 C8 F7 | 	test	_var01, _var05 wz
015b0     7C 00 90 AD |  if_e	jmp	#LR__0060
015b4     94 F0 04 F1 | 	add	objptr, #148
015b8     78 04 01 FB | 	rdlong	_var07, objptr
015bc     94 F0 84 F1 | 	sub	objptr, #148
015c0     02 04 65 F0 | 	shl	_var07, #2
015c4     F5 04 01 FD | 	qmul	_var07, arg02
015c8     18 06 61 FD | 	getqx	_var08
015cc     78 08 01 FB | 	rdlong	_var09, objptr
015d0     83 08 01 F1 | 	add	_var09, _var08
015d4     F4 0A 01 F6 | 	mov	_var10, arg01
015d8     01 0A 45 F0 | 	shr	_var10, #1
015dc     85 08 01 F1 | 	add	_var09, _var10
015e0                 | '     b:=byte[buf_ptr+4*cpl*y+(x>>1)]
015e0     84 20 C1 FA | 	rdbyte	_var11, _var09
015e4     F4 F8 50 F6 | 	abs	_var01, arg01 wc
015e8     01 F8 04 F5 | 	and	_var01, #1
015ec     7C F8 60 C6 |  if_b	neg	_var01, _var01
015f0     02 F8 64 F0 | 	shl	_var01, #2
015f4     0F 36 05 F6 | 	mov	_var12, #15
015f8     7C 36 61 F0 | 	shl	_var12, _var01
015fc                 | '     b:=b & !(%1111<<((x//2)<<2))
015fc     9B 20 21 F5 | 	andn	_var11, _var12
01600     7C EC 61 F0 | 	shl	arg03, _var01
01604                 | '     b:=b |(c<<((x//2)<<2)) 
01604     F6 20 41 F5 | 	or	_var11, arg03
01608     94 F0 04 F1 | 	add	objptr, #148
0160c     78 3A 01 FB | 	rdlong	_var13, objptr
01610     94 F0 84 F1 | 	sub	objptr, #148
01614     02 3A 65 F0 | 	shl	_var13, #2
01618     F5 3A 01 FD | 	qmul	_var13, arg02
0161c     18 3C 61 FD | 	getqx	_var14
01620     78 3E 01 FB | 	rdlong	_var15, objptr
01624     9E 3E 01 F1 | 	add	_var15, _var14
01628     85 3E 01 F1 | 	add	_var15, _var10
0162c                 | '     byte[buf_ptr+4*cpl*y+(x>>1)]:=b
0162c     9F 20 41 FC | 	wrbyte	_var11, _var15
01630                 | LR__0060
01630                 | _putpixel4_ret
01630     2D 00 64 FD | 	ret
01634                 | 
01634                 | ' 
01634                 | ' '*************************************************************************
01634                 | ' '                                                                        *
01634                 | ' '  VBlank functions                                                      *
01634                 | ' '                                                                        *
01634                 | ' '*************************************************************************
01634                 | ' 
01634                 | ' pub waitvbl(amount) | i
01634                 | _waitvbl
01634     04 88 04 F6 | 	mov	COUNT_, #4
01638     4B 00 A0 FD | 	call	#pushregs_
0163c     F4 F2 01 F6 | 	mov	local01, arg01
01640                 | ' 
01640                 | ' ''---------- Wait for start of vblank. Amount=delay in frames
01640                 | ' 
01640                 | ' repeat i from 1 to amount
01640     01 F4 05 F6 | 	mov	local02, #1
01644     01 F2 5D F2 | 	cmps	local01, #1 wcz
01648     01 F6 05 16 |  if_a	mov	local03, #1
0164c     01 F6 65 E6 |  if_be	neg	local03, #1
01650     FB F2 01 F1 | 	add	local01, local03
01654                 | LR__0061
01654                 | '   repeat until vblank==0
01654                 | LR__0062
01654     44 F0 04 F1 | 	add	objptr, #68
01658     78 F8 09 FB | 	rdlong	local04, objptr wz
0165c     44 F0 84 F1 | 	sub	objptr, #68
01660     0C 00 90 AD |  if_e	jmp	#LR__0063
01664                 | '     waitus(100)
01664     64 E8 05 F6 | 	mov	arg01, #100
01668     88 10 B0 FD | 	call	#__system___waitus
0166c     E4 FF 9F FD | 	jmp	#LR__0062
01670                 | LR__0063
01670                 | '   repeat until vblank==1
01670                 | LR__0064
01670     44 F0 04 F1 | 	add	objptr, #68
01674     78 F8 01 FB | 	rdlong	local04, objptr
01678     44 F0 84 F1 | 	sub	objptr, #68
0167c     01 F8 0D F2 | 	cmp	local04, #1 wz
01680     0C 00 90 AD |  if_e	jmp	#LR__0065
01684                 | '     waitus(100)
01684     64 E8 05 F6 | 	mov	arg01, #100
01688     68 10 B0 FD | 	call	#__system___waitus
0168c     E0 FF 9F FD | 	jmp	#LR__0064
01690                 | LR__0065
01690     FB F4 01 F1 | 	add	local02, local03
01694     F9 F4 09 F2 | 	cmp	local02, local01 wz
01698     B8 FF 9F 5D |  if_ne	jmp	#LR__0061
0169c     46 F0 03 F6 | 	mov	ptra, fp
016a0     5A 00 A0 FD | 	call	#popregs_
016a4                 | _waitvbl_ret
016a4     2D 00 64 FD | 	ret
016a8                 | 
016a8                 | ' 
016a8                 | ' 
016a8                 | ' '*************************************************************************
016a8                 | ' '                                                                        *
016a8                 | ' '  Text functions                                                        *
016a8                 | ' '                                                                        *
016a8                 | ' '*************************************************************************
016a8                 | ' 
016a8                 | ' ''---------- Clear the screen, set its foreground/background color
016a8                 | ' 
016a8                 | ' pub cls(fc,bc)   :c
016a8                 | _cls
016a8     07 88 04 F6 | 	mov	COUNT_, #7
016ac     4B 00 A0 FD | 	call	#pushregs_
016b0     F4 F2 01 F6 | 	mov	local01, arg01
016b4     F5 F4 01 F6 | 	mov	local02, arg02
016b8                 | ' 
016b8                 | ' if (graphmode<512)
016b8     D0 F0 04 F1 | 	add	objptr, #208
016bc     78 F6 01 FB | 	rdlong	local03, objptr
016c0     D0 F0 84 F1 | 	sub	objptr, #208
016c4     01 00 00 FF 
016c8     00 F6 5D F2 | 	cmps	local03, ##512 wcz
016cc     48 00 90 3D |  if_ae	jmp	#LR__0070
016d0     F9 F8 01 F6 | 	mov	local04, local01
016d4     18 F8 65 F0 | 	shl	local04, #24
016d8     FA FA 01 F6 | 	mov	local05, local02
016dc     10 FA 65 F0 | 	shl	local05, #16
016e0     FD F8 01 F1 | 	add	local04, local05
016e4     20 F8 05 F1 | 	add	local04, #32
016e8                 | '   c:=fc<<24+bc<<16+$20
016e8                 | '   longfill(buf_ptr,c,buflen)
016e8     78 E8 01 FB | 	rdlong	arg01, objptr
016ec     34 F0 04 F1 | 	add	objptr, #52
016f0     78 EC 09 FB | 	rdlong	arg03, objptr wz
016f4     34 F0 84 F1 | 	sub	objptr, #52
016f8     FC EA 01 F6 | 	mov	arg02, local04
016fc     C4 00 90 AD |  if_e	jmp	#LR__0076
01700     08 E9 9F FE | 	loc	pa,	#(@LR__0068-@LR__0066)
01704     35 00 A0 FD | 	call	#FCACHE_LOAD_
01708                 | LR__0066
01708     F6 04 D8 FC | 	rep	@LR__0069, arg03
0170c                 | LR__0067
0170c     F4 EA 61 FC | 	wrlong	arg02, arg01
01710     04 E8 05 F1 | 	add	arg01, #4
01714                 | LR__0068
01714                 | LR__0069
01714                 | ' else
01714     AC 00 90 FD | 	jmp	#LR__0076
01718                 | LR__0070
01718                 | '   if (graphmode & 48) ==48
01718     D0 F0 04 F1 | 	add	objptr, #208
0171c     78 F6 01 FB | 	rdlong	local03, objptr
01720     D0 F0 84 F1 | 	sub	objptr, #208
01724     30 F6 05 F5 | 	and	local03, #48
01728     30 F6 0D F2 | 	cmp	local03, #48 wz
0172c                 | '     c:=bc
0172c     FA F8 01 A6 |  if_e	mov	local04, local02
01730     74 00 90 AD |  if_e	jmp	#LR__0075
01734                 | '   elseif (graphmode & 48) ==32
01734     D0 F0 04 F1 | 	add	objptr, #208
01738     78 F6 01 FB | 	rdlong	local03, objptr
0173c     D0 F0 84 F1 | 	sub	objptr, #208
01740     30 F6 05 F5 | 	and	local03, #48
01744     20 F6 0D F2 | 	cmp	local03, #32 wz
01748     10 00 90 5D |  if_ne	jmp	#LR__0071
0174c     FA F8 01 F6 | 	mov	local04, local02
01750     04 F8 65 F0 | 	shl	local04, #4
01754     FA F8 01 F1 | 	add	local04, local02
01758                 | '     c:=bc<<4+bc
01758     4C 00 90 FD | 	jmp	#LR__0074
0175c                 | LR__0071
0175c                 | '   elseif (graphmode & 48) ==16
0175c     D0 F0 04 F1 | 	add	objptr, #208
01760     78 F6 01 FB | 	rdlong	local03, objptr
01764     D0 F0 84 F1 | 	sub	objptr, #208
01768     30 F6 05 F5 | 	and	local03, #48
0176c     10 F6 0D F2 | 	cmp	local03, #16 wz
01770     28 00 90 5D |  if_ne	jmp	#LR__0072
01774     FA F8 01 F6 | 	mov	local04, local02
01778     06 F8 65 F0 | 	shl	local04, #6
0177c     FA FC 01 F6 | 	mov	local06, local02
01780     04 FC 65 F0 | 	shl	local06, #4
01784     FE F8 01 F1 | 	add	local04, local06
01788     FA FE 01 F6 | 	mov	local07, local02
0178c     02 FE 65 F0 | 	shl	local07, #2
01790     FF F8 01 F1 | 	add	local04, local07
01794     FA F8 01 F1 | 	add	local04, local02
01798                 | '     c:=bc<<6+bc<<4+bc<<2+bc
01798                 | '   else
01798     0C 00 90 FD | 	jmp	#LR__0073
0179c                 | LR__0072
0179c                 | '     if bc==1
0179c     01 F4 0D F2 | 	cmp	local02, #1 wz
017a0                 | '       c:=255
017a0     FF F8 05 A6 |  if_e	mov	local04, #255
017a4                 | '     else
017a4                 | '       c:=0    
017a4     00 F8 05 56 |  if_ne	mov	local04, #0
017a8                 | LR__0073
017a8                 | LR__0074
017a8                 | LR__0075
017a8     34 F0 04 F1 | 	add	objptr, #52
017ac     78 EC 01 FB | 	rdlong	arg03, objptr
017b0     34 F0 84 F1 | 	sub	objptr, #52
017b4     02 EC 65 F0 | 	shl	arg03, #2
017b8                 | '   bytefill(buf_ptr,c,buflen*4)
017b8     78 E8 01 FB | 	rdlong	arg01, objptr
017bc     FC EA 01 F6 | 	mov	arg02, local04
017c0     78 0D B0 FD | 	call	#__system__bytefill
017c4                 | LR__0076
017c4                 | ' setwritecolors(fc,bc)
017c4                 | ' 
017c4                 | ' 
017c4                 | ' write_color:=ff
017c4     3C F0 04 F1 | 	add	objptr, #60
017c8     78 F2 61 FC | 	wrlong	local01, objptr
017cc                 | ' write_background:=bb
017cc     04 F0 04 F1 | 	add	objptr, #4
017d0     78 F4 61 FC | 	wrlong	local02, objptr
017d4                 | ' cursor_x:=0
017d4     08 F0 84 F1 | 	sub	objptr, #8
017d8     78 00 48 FC | 	wrbyte	#0, objptr
017dc                 | ' cursor_y:=0
017dc     01 F0 04 F1 | 	add	objptr, #1
017e0     78 00 48 FC | 	wrbyte	#0, objptr
017e4     39 F0 84 F1 | 	sub	objptr, #57
017e8     FC F6 00 F6 | 	mov	result1, local04
017ec     46 F0 03 F6 | 	mov	ptra, fp
017f0     5A 00 A0 FD | 	call	#popregs_
017f4                 | _cls_ret
017f4     2D 00 64 FD | 	ret
017f8                 | 
017f8                 | ' 
017f8                 | ' ''-----------  Scroll the screen one line up
017f8                 | ' 
017f8                 | ' pub scrollup() | i
017f8                 | _scrollup
017f8     0A 88 04 F6 | 	mov	COUNT_, #10
017fc     4B 00 A0 FD | 	call	#pushregs_
01800     94 F0 04 F1 | 	add	objptr, #148
01804     78 F2 01 FB | 	rdlong	local01, objptr
01808     94 F0 84 F1 | 	sub	objptr, #148
0180c     02 F2 65 F0 | 	shl	local01, #2
01810     78 EA 01 FB | 	rdlong	arg02, objptr
01814     F9 EA 01 F1 | 	add	arg02, local01
01818     34 F0 04 F1 | 	add	objptr, #52
0181c     78 EC 01 FB | 	rdlong	arg03, objptr
01820     60 F0 04 F1 | 	add	objptr, #96
01824     78 F4 01 FB | 	rdlong	local02, objptr
01828     94 F0 84 F1 | 	sub	objptr, #148
0182c     FA EC 81 F1 | 	sub	arg03, local02
01830                 | ' 
01830                 | ' longmove(buf_ptr,buf_ptr+4*cpl,buflen-cpl)
01830     78 E8 01 FB | 	rdlong	arg01, objptr
01834     EC 0D B0 FD | 	call	#__system__longmove
01838                 | ' repeat i from buflen-cpl to buflen-1
01838     34 F0 04 F1 | 	add	objptr, #52
0183c     78 F6 01 FB | 	rdlong	local03, objptr
01840     60 F0 04 F1 | 	add	objptr, #96
01844     78 F4 01 FB | 	rdlong	local02, objptr
01848     FA F6 81 F1 | 	sub	local03, local02
0184c     60 F0 84 F1 | 	sub	objptr, #96
01850     78 F8 01 FB | 	rdlong	local04, objptr
01854     01 F8 85 F1 | 	sub	local04, #1
01858     78 FA 01 FB | 	rdlong	local05, objptr
0185c     60 F0 04 F1 | 	add	objptr, #96
01860     78 FC 01 FB | 	rdlong	local06, objptr
01864     94 F0 84 F1 | 	sub	objptr, #148
01868     FE FA 81 F1 | 	sub	local05, local06
0186c     FD F8 59 F2 | 	cmps	local04, local05 wcz
01870     01 FE 05 16 |  if_a	mov	local07, #1
01874     01 FE 65 E6 |  if_be	neg	local07, #1
01878     FF F8 01 F1 | 	add	local04, local07
0187c     B0 E7 9F FE | 	loc	pa,	#(@LR__0078-@LR__0077)
01880     35 00 A0 FD | 	call	#FCACHE_LOAD_
01884                 | LR__0077
01884     FB 00 02 F6 | 	mov	local08, local03
01888     02 00 66 F0 | 	shl	local08, #2
0188c     78 02 02 FB | 	rdlong	local09, objptr
01890     00 03 02 F1 | 	add	local09, local08
01894     01 05 02 FB | 	rdlong	local10, local09
01898     80 FF 7F FF 
0189c     00 04 06 F5 | 	and	local10, ##-65536
018a0     20 04 46 F5 | 	or	local10, #32
018a4                 | '   long[buf_ptr+4*i]:=(long[buf_ptr+4*i] & $FFFF0000) | 32
018a4     01 05 62 FC | 	wrlong	local10, local09
018a8     FF F6 01 F1 | 	add	local03, local07
018ac     FC F6 09 F2 | 	cmp	local03, local04 wz
018b0     D0 FF 9F 5D |  if_ne	jmp	#LR__0077
018b4                 | LR__0078
018b4     46 F0 03 F6 | 	mov	ptra, fp
018b8     5A 00 A0 FD | 	call	#popregs_
018bc                 | _scrollup_ret
018bc     2D 00 64 FD | 	ret
018c0                 | 
018c0                 | ' 
018c0                 | ' 
018c0                 | ' '*************************************************************************
018c0                 | ' '                                                                        *
018c0                 | ' '  Conversions                                                           *
018c0                 | ' '                                                                        *
018c0                 | ' '*************************************************************************
018c0                 | ' 
018c0                 | ' ''---------- Convert a integer to dec string, return a pointer
018c0                 | ' 
018c0                 | ' pub inttostr(i):result |q,pos,k,j
018c0                 | _inttostr
018c0     07 88 04 F6 | 	mov	COUNT_, #7
018c4     4B 00 A0 FD | 	call	#pushregs_
018c8     F4 F2 01 F6 | 	mov	local01, arg01
018cc                 | ' 
018cc                 | ' j:=i
018cc     F9 F4 09 F6 | 	mov	local02, local01 wz
018d0                 | ' pos:=10
018d0     0A F6 05 F6 | 	mov	local03, #10
018d4                 | ' k:=0
018d4     00 F8 05 F6 | 	mov	local04, #0
018d8                 | ' 
018d8                 | ' if (j==0)
018d8     18 00 90 5D |  if_ne	jmp	#LR__0079
018dc                 | '   n_string[0]:=48
018dc     48 F0 04 F1 | 	add	objptr, #72
018e0     78 60 48 FC | 	wrbyte	#48, objptr
018e4                 | '   n_string[1]:=0
018e4     01 F0 04 F1 | 	add	objptr, #1
018e8     78 00 48 FC | 	wrbyte	#0, objptr
018ec     49 F0 84 F1 | 	sub	objptr, #73
018f0                 | ' 
018f0                 | ' else
018f0     C4 00 90 FD | 	jmp	#LR__0086
018f4                 | LR__0079
018f4                 | '   if (j<0)
018f4     00 F4 5D F2 | 	cmps	local02, #0 wcz
018f8                 | '     j:=0-j
018f8     FA F4 61 C6 |  if_b	neg	local02, local02
018fc                 | '     k:=45
018fc     2D F8 05 C6 |  if_b	mov	local04, #45
01900                 | ' 
01900                 | '   n_string[11]:=0
01900     53 F0 04 F1 | 	add	objptr, #83
01904     78 00 48 FC | 	wrbyte	#0, objptr
01908     53 F0 84 F1 | 	sub	objptr, #83
0190c     30 E7 9F FE | 	loc	pa,	#(@LR__0081-@LR__0080)
01910     35 00 A0 FD | 	call	#FCACHE_LOAD_
01914                 | '   repeat while (pos>-1)
01914                 | LR__0080
01914     FF FF 7F FF 
01918     FF F7 5D F2 | 	cmps	local03, ##-1 wcz
0191c     34 00 90 ED |  if_be	jmp	#LR__0082
01920     FA 7A 02 F6 | 	mov	muldiva_, local02
01924     0A 7C 06 F6 | 	mov	muldivb_, #10
01928     6B 00 A0 FD | 	call	#divide_
0192c     3D FB 01 F6 | 	mov	local05, muldiva_
01930                 | '     q:=j//10
01930                 | '     q:=48+q
01930     30 FA 05 F1 | 	add	local05, #48
01934     FB FC 01 F6 | 	mov	local06, local03
01938     48 F0 04 F1 | 	add	objptr, #72
0193c     78 FC 01 F1 | 	add	local06, objptr
01940                 | '     n_string[pos]:=q
01940     FE FA 41 FC | 	wrbyte	local05, local06
01944                 | '     j:=j/10
01944     3E F5 01 F6 | 	mov	local02, muldivb_
01948                 | '     pos-=1
01948     01 F6 85 F1 | 	sub	local03, #1
0194c     48 F0 84 F1 | 	sub	objptr, #72
01950     C0 FF 9F FD | 	jmp	#LR__0080
01954                 | LR__0081
01954                 | LR__0082
01954                 | '   repeat while n_string[0]==48
01954                 | LR__0083
01954     48 F0 04 F1 | 	add	objptr, #72
01958     78 FE C1 FA | 	rdbyte	local07, objptr
0195c     48 F0 84 F1 | 	sub	objptr, #72
01960     30 FE 0D F2 | 	cmp	local07, #48 wz
01964     20 00 90 5D |  if_ne	jmp	#LR__0084
01968     48 F0 04 F1 | 	add	objptr, #72
0196c     78 E8 01 F6 | 	mov	arg01, objptr
01970     48 F0 84 F1 | 	sub	objptr, #72
01974     F4 EA 01 F6 | 	mov	arg02, arg01
01978     01 EA 05 F1 | 	add	arg02, #1
0197c                 | '     bytemove(@n_string,@n_string+1,12)
0197c     0C EC 05 F6 | 	mov	arg03, #12
01980     10 0C B0 FD | 	call	#__system__bytemove
01984     CC FF 9F FD | 	jmp	#LR__0083
01988                 | LR__0084
01988                 | ' 
01988                 | '   if k==45
01988     2D F8 0D F2 | 	cmp	local04, #45 wz
0198c     28 00 90 5D |  if_ne	jmp	#LR__0085
01990     48 F0 04 F1 | 	add	objptr, #72
01994     78 EA 01 F6 | 	mov	arg02, objptr
01998     48 F0 84 F1 | 	sub	objptr, #72
0199c     F5 E8 01 F6 | 	mov	arg01, arg02
019a0     01 E8 05 F1 | 	add	arg01, #1
019a4                 | '      bytemove(@n_string+1,@n_string,12)
019a4     0C EC 05 F6 | 	mov	arg03, #12
019a8     E8 0B B0 FD | 	call	#__system__bytemove
019ac                 | '      n_string[0]:=k
019ac     48 F0 04 F1 | 	add	objptr, #72
019b0     78 F8 41 FC | 	wrbyte	local04, objptr
019b4     48 F0 84 F1 | 	sub	objptr, #72
019b8                 | LR__0085
019b8                 | LR__0086
019b8     48 F0 04 F1 | 	add	objptr, #72
019bc     78 F6 00 F6 | 	mov	result1, objptr
019c0     48 F0 84 F1 | 	sub	objptr, #72
019c4                 | ' 
019c4                 | ' q:=@n_string
019c4                 | ' return q
019c4     46 F0 03 F6 | 	mov	ptra, fp
019c8     5A 00 A0 FD | 	call	#popregs_
019cc                 | _inttostr_ret
019cc     2D 00 64 FD | 	ret
019d0                 | 
019d0                 | ' 
019d0                 | ' 
019d0                 | ' 
019d0                 | ' '*************************************************************************
019d0                 | ' '                                                                        *
019d0                 | ' '  Mode setting and driver start                                                          *
019d0                 | ' '                                                                        *
019d0                 | ' '*************************************************************************
019d0                 | ' 
019d0                 | ' ''---------  Set the graphics mode
019d0                 | ' 
019d0                 | ' pub setmode(mode) | i', 'xzoom, yzoom, azoom
019d0                 | _setmode
019d0     19 88 04 F6 | 	mov	COUNT_, #25
019d4     4B 00 A0 FD | 	call	#pushregs_
019d8     F4 F2 01 F6 | 	mov	local01, arg01
019dc                 | ' 
019dc                 | ' '' mode:tn_bb_cc_vv_hh
019dc                 | ' '' hh - h.zoom, vv-v.zoom, cc-c.depth,
019dc                 | ' '' bb - borders/total pixels, 00-wide/1140, 01 medium/1026, 10 narrow/912, 11 no border, 1024 px PAL, 880 px NTSC
019dc                 | ' 
019dc                 | ' case_fast (mode>>6) & 7 ' timings are the same for graphic and text
019dc     F9 F4 01 F6 | 	mov	local02, local01
019e0     06 F4 45 F0 | 	shr	local02, #6
019e4     07 F4 05 F5 | 	and	local02, #7
019e8     08 F4 25 F3 | 	fle	local02, #8
019ec     FA F6 01 F6 | 	mov	local03, local02
019f0     30 F6 61 FD | 	jmprel	local03
019f4                 | LR__0087
019f4     20 00 90 FD | 	jmp	#LR__0088
019f8     48 00 90 FD | 	jmp	#LR__0089
019fc     70 00 90 FD | 	jmp	#LR__0090
01a00     98 00 90 FD | 	jmp	#LR__0091
01a04     C0 00 90 FD | 	jmp	#LR__0092
01a08     E8 00 90 FD | 	jmp	#LR__0093
01a0c     10 01 90 FD | 	jmp	#LR__0094
01a10     38 01 90 FD | 	jmp	#LR__0095
01a14     70 01 90 FD | 	jmp	#LR__0096
01a18                 | LR__0088
01a18                 | '                               
01a18                 | '     0:  longmove(@timings,@timings000,16)   'PAL 50 Hz signaling 1140x624, active 800x480, 100x30 text, wide border, 2 colors per pixel, 00_00_00_00_00=0, 354_693_878 Hz
01a18     54 F0 04 F1 | 	add	objptr, #84
01a1c     78 E8 01 F6 | 	mov	arg01, objptr
01a20     54 F0 84 F1 | 	sub	objptr, #84
01a24     0E 00 00 FF 
01a28     58 F4 04 F1 | 	add	ptr__dat__, ##7256
01a2c     7A EA 01 F6 | 	mov	arg02, ptr__dat__
01a30     0E 00 00 FF 
01a34     58 F4 84 F1 | 	sub	ptr__dat__, ##7256
01a38     10 EC 05 F6 | 	mov	arg03, #16
01a3c     E4 0B B0 FD | 	call	#__system__longmove
01a40     44 01 90 FD | 	jmp	#LR__0096
01a44                 | LR__0089
01a44                 | '     1:  longmove(@timings,@timings064,16)   'PAL 50 Hz signaling 1026x624, active 880x496, 110x31 text, medium border, 2 colors per pixel 00_01_00_00_00=64, 319_215_686 Hz
01a44     54 F0 04 F1 | 	add	objptr, #84
01a48     78 E8 01 F6 | 	mov	arg01, objptr
01a4c     54 F0 84 F1 | 	sub	objptr, #84
01a50     0E 00 00 FF 
01a54     98 F4 04 F1 | 	add	ptr__dat__, ##7320
01a58     7A EA 01 F6 | 	mov	arg02, ptr__dat__
01a5c     0E 00 00 FF 
01a60     98 F4 84 F1 | 	sub	ptr__dat__, ##7320
01a64     10 EC 05 F6 | 	mov	arg03, #16
01a68     B8 0B B0 FD | 	call	#__system__longmove
01a6c     18 01 90 FD | 	jmp	#LR__0096
01a70                 | LR__0090
01a70                 | '     2:  longmove(@timings,@timings128,16)   'PAL 50 Hz signaling 912x624, active 800x480, 100x30 text, medium border, 2 colors per pixel 00_10_00_00_00=64, 283750000z
01a70     54 F0 04 F1 | 	add	objptr, #84
01a74     78 E8 01 F6 | 	mov	arg01, objptr
01a78     54 F0 84 F1 | 	sub	objptr, #84
01a7c     0E 00 00 FF 
01a80     D8 F4 04 F1 | 	add	ptr__dat__, ##7384
01a84     7A EA 01 F6 | 	mov	arg02, ptr__dat__
01a88     0E 00 00 FF 
01a8c     D8 F4 84 F1 | 	sub	ptr__dat__, ##7384
01a90     10 EC 05 F6 | 	mov	arg03, #16
01a94     8C 0B B0 FD | 	call	#__system__longmove
01a98     EC 00 90 FD | 	jmp	#LR__0096
01a9c                 | LR__0091
01a9c                 | '     3:  longmove(@timings,@timings192,16)   'PAL 50 Hz signaling 1140x624, active 1024x576, 128x36 text, borderless, 2 colors per pixel 00_11_00_00_00=6192, 354_693_878 Hz
01a9c     54 F0 04 F1 | 	add	objptr, #84
01aa0     78 E8 01 F6 | 	mov	arg01, objptr
01aa4     54 F0 84 F1 | 	sub	objptr, #84
01aa8     0E 00 00 FF 
01aac     18 F5 04 F1 | 	add	ptr__dat__, ##7448
01ab0     7A EA 01 F6 | 	mov	arg02, ptr__dat__
01ab4     0E 00 00 FF 
01ab8     18 F5 84 F1 | 	sub	ptr__dat__, ##7448
01abc     10 EC 05 F6 | 	mov	arg03, #16
01ac0     60 0B B0 FD | 	call	#__system__longmove
01ac4     C0 00 90 FD | 	jmp	#LR__0096
01ac8                 | LR__0092
01ac8                 | '     4:  longmove(@timings,@timings256,16)   'NTSC 50 Hz signaling 1140x524, active 800x480, 100x30 text, NO PLACE FOR wide border, 2 colors per pixel, 01_00_00_00_00=256, 357959184 Hz
01ac8     54 F0 04 F1 | 	add	objptr, #84
01acc     78 E8 01 F6 | 	mov	arg01, objptr
01ad0     54 F0 84 F1 | 	sub	objptr, #84
01ad4     0E 00 00 FF 
01ad8     58 F5 04 F1 | 	add	ptr__dat__, ##7512
01adc     7A EA 01 F6 | 	mov	arg02, ptr__dat__
01ae0     0E 00 00 FF 
01ae4     58 F5 84 F1 | 	sub	ptr__dat__, ##7512
01ae8     10 EC 05 F6 | 	mov	arg03, #16
01aec     34 0B B0 FD | 	call	#__system__longmove
01af0     94 00 90 FD | 	jmp	#LR__0096
01af4                 | LR__0093
01af4                 | '     5:  longmove(@timings,@timings320,16)   'NTSC 50 Hz signaling 1026x524, active 800x480, 100x30 text, NO PLACE FOR wide border, 2 colors per pixel, 01_01_00_00_00=320, 322162162 Hz
01af4     54 F0 04 F1 | 	add	objptr, #84
01af8     78 E8 01 F6 | 	mov	arg01, objptr
01afc     54 F0 84 F1 | 	sub	objptr, #84
01b00     0E 00 00 FF 
01b04     98 F5 04 F1 | 	add	ptr__dat__, ##7576
01b08     7A EA 01 F6 | 	mov	arg02, ptr__dat__
01b0c     0E 00 00 FF 
01b10     98 F5 84 F1 | 	sub	ptr__dat__, ##7576
01b14     10 EC 05 F6 | 	mov	arg03, #16
01b18     08 0B B0 FD | 	call	#__system__longmove
01b1c     68 00 90 FD | 	jmp	#LR__0096
01b20                 | LR__0094
01b20                 | '     6:  longmove(@timings,@timings384,16)   'NTSC 50 Hz signaling 912x524, active 800x480, 100x30 text, NO PLACE FOR wide border, 2 colors per pixel, 01_10_00_00_00=384, 286363636 Hz
01b20     54 F0 04 F1 | 	add	objptr, #84
01b24     78 E8 01 F6 | 	mov	arg01, objptr
01b28     54 F0 84 F1 | 	sub	objptr, #84
01b2c     0E 00 00 FF 
01b30     D8 F5 04 F1 | 	add	ptr__dat__, ##7640
01b34     7A EA 01 F6 | 	mov	arg02, ptr__dat__
01b38     0E 00 00 FF 
01b3c     D8 F5 84 F1 | 	sub	ptr__dat__, ##7640
01b40     10 EC 05 F6 | 	mov	arg03, #16
01b44     DC 0A B0 FD | 	call	#__system__longmove
01b48     3C 00 90 FD | 	jmp	#LR__0096
01b4c                 | LR__0095
01b4c                 | '     7:  longmove(@timings,@timings448,16)   'NTSC 50 Hz signaling 1026x524, active 880x496, 110x31 text, borderless, 2 colors per pixel, 01_11_00_00_00=496, 322162162 Hz
01b4c     54 F0 04 F1 | 	add	objptr, #84
01b50     78 F8 01 F6 | 	mov	local04, objptr
01b54     FC FA 01 F6 | 	mov	local05, local04
01b58     0F 00 00 FF 
01b5c     18 F4 04 F1 | 	add	ptr__dat__, ##7704
01b60     7A FC 01 F6 | 	mov	local06, ptr__dat__
01b64     FE FE 01 F6 | 	mov	local07, local06
01b68     10 00 06 F6 | 	mov	local08, #16
01b6c     FD E8 01 F6 | 	mov	arg01, local05
01b70     FF EA 01 F6 | 	mov	arg02, local07
01b74     10 EC 05 F6 | 	mov	arg03, #16
01b78     54 F0 84 F1 | 	sub	objptr, #84
01b7c     0F 00 00 FF 
01b80     18 F4 84 F1 | 	sub	ptr__dat__, ##7704
01b84     9C 0A B0 FD | 	call	#__system__longmove
01b88                 | LR__0096
01b88                 | ' 
01b88                 | ' ' 4-bit graphics: do nothing with timings :) 
01b88                 | ' 
01b88                 | ' if (mode & (%10_00_11_0000))==(%10_00_11_0000) ' 8bit graphics, 4 pixels per long instead of 8, cpp x2 
01b88     F9 F4 01 F6 | 	mov	local02, local01
01b8c     01 00 00 FF 
01b90     30 F4 05 F5 | 	and	local02, ##560
01b94     01 00 00 FF 
01b98     30 F4 0D F2 | 	cmp	local02, ##560 wz
01b9c     1C 00 90 5D |  if_ne	jmp	#LR__0097
01ba0                 | '   timings[5]:=4
01ba0     68 F0 04 F1 | 	add	objptr, #104
01ba4     78 08 68 FC | 	wrlong	#4, objptr
01ba8     18 F0 04 F1 | 	add	objptr, #24
01bac     78 02 02 FB | 	rdlong	local09, objptr
01bb0     01 02 66 F0 | 	shl	local09, #1
01bb4                 | '   timings[11]:=timings[11]<<1
01bb4     78 02 62 FC | 	wrlong	local09, objptr
01bb8     80 F0 84 F1 | 	sub	objptr, #128
01bbc                 | LR__0097
01bbc                 | '   
01bbc                 | ' if (mode & (%10_00_11_0000))==(%10_00_01_0000) ' 2bit graphics, 16 pixels per long instead of 8, cpp /2 
01bbc     F9 F4 01 F6 | 	mov	local02, local01
01bc0     01 00 00 FF 
01bc4     30 F4 05 F5 | 	and	local02, ##560
01bc8     01 00 00 FF 
01bcc     10 F4 0D F2 | 	cmp	local02, ##528 wz
01bd0     1C 00 90 5D |  if_ne	jmp	#LR__0098
01bd4                 | '   timings[5]:=16
01bd4     68 F0 04 F1 | 	add	objptr, #104
01bd8     78 20 68 FC | 	wrlong	#16, objptr
01bdc     18 F0 04 F1 | 	add	objptr, #24
01be0     78 04 02 FB | 	rdlong	local10, objptr
01be4     01 04 46 F0 | 	shr	local10, #1
01be8                 | '   timings[11]:=timings[11]>>1
01be8     78 04 62 FC | 	wrlong	local10, objptr
01bec     80 F0 84 F1 | 	sub	objptr, #128
01bf0                 | LR__0098
01bf0                 | '   
01bf0                 | ' if (mode & (%10_00_11_0000))==(%10_00_00_0000) ' 1bit graphics, 32 pixels per long instead of 8, cpp /4 
01bf0     F9 F4 01 F6 | 	mov	local02, local01
01bf4     01 00 00 FF 
01bf8     30 F4 05 F5 | 	and	local02, ##560
01bfc     01 00 00 FF 
01c00     00 F4 0D F2 | 	cmp	local02, ##512 wz
01c04     1C 00 90 5D |  if_ne	jmp	#LR__0099
01c08                 | '   timings[5]:=32
01c08     68 F0 04 F1 | 	add	objptr, #104
01c0c     78 40 68 FC | 	wrlong	#32, objptr
01c10     18 F0 04 F1 | 	add	objptr, #24
01c14     78 06 02 FB | 	rdlong	local11, objptr
01c18     02 06 46 F0 | 	shr	local11, #2
01c1c                 | '   timings[11]:=timings[11]>>2
01c1c     78 06 62 FC | 	wrlong	local11, objptr
01c20     80 F0 84 F1 | 	sub	objptr, #128
01c24                 | LR__0099
01c24                 | ' 
01c24                 | ' 
01c24                 | ' repeat i from 0 to 4
01c24     00 08 06 F6 | 	mov	local12, #0
01c28     14 E4 9F FE | 	loc	pa,	#(@LR__0101-@LR__0100)
01c2c     35 00 A0 FD | 	call	#FCACHE_LOAD_
01c30                 | LR__0100
01c30     04 0B 02 F6 | 	mov	local13, local12
01c34     02 0A 66 F0 | 	shl	local13, #2
01c38     54 F0 04 F1 | 	add	objptr, #84
01c3c     78 0A 02 F1 | 	add	local13, objptr
01c40     2C F0 84 F1 | 	sub	objptr, #44
01c44     78 0C 02 FB | 	rdlong	local14, objptr
01c48     28 F0 84 F1 | 	sub	objptr, #40
01c4c     11 0C 66 F0 | 	shl	local14, #17
01c50     05 0F 02 FB | 	rdlong	local15, local13
01c54     06 0F 02 F1 | 	add	local15, local14
01c58     80 40 38 FF 
01c5c     00 0E 06 F1 | 	add	local15, ##1887502336
01c60                 | '   timings[i]:=timings[i]+hdmibase<<17+ timingsxxt
01c60     05 0F 62 FC | 	wrlong	local15, local13
01c64     01 08 06 F1 | 	add	local12, #1
01c68     05 08 5E F2 | 	cmps	local12, #5 wcz
01c6c     C0 FF 9F CD |  if_b	jmp	#LR__0100
01c70                 | LR__0101
01c70     28 F0 04 F1 | 	add	objptr, #40
01c74     78 10 02 FB | 	rdlong	local16, objptr
01c78     11 10 66 F0 | 	shl	local16, #17
01c7c     40 F0 04 F1 | 	add	objptr, #64
01c80     78 12 02 FB | 	rdlong	local17, objptr
01c84     08 13 02 F1 | 	add	local17, local16
01c88                 | ' timings[5]:=timings[5]+hdmibase<<17  
01c88     78 12 62 FC | 	wrlong	local17, objptr
01c8c                 | ' clkfreq:=timings[13]
01c8c     20 F0 04 F1 | 	add	objptr, #32
01c90     78 F4 01 FB | 	rdlong	local02, objptr
01c94     14 F4 65 FC | 	wrlong	local02, #20
01c98                 | ' hubset(timings[14])
01c98     04 F0 04 F1 | 	add	objptr, #4
01c9c     78 E8 01 FB | 	rdlong	arg01, objptr
01ca0     8C F0 84 F1 | 	sub	objptr, #140
01ca4     00 E8 61 FD | 	hubset	arg01
01ca8                 | ' waitms(1)
01ca8     01 E8 05 F6 | 	mov	arg01, #1
01cac     E4 09 B0 FD | 	call	#__system___waitms
01cb0     F9 14 02 F6 | 	mov	local18, local01
01cb4     03 14 06 F5 | 	and	local18, #3
01cb8     0A 17 C2 F9 | 	decod	local19, local18
01cbc                 | ' 
01cbc                 | '   
01cbc                 | ' xzoom:=1<<(mode & 3)
01cbc     D4 F0 04 F1 | 	add	objptr, #212
01cc0     78 16 62 FC | 	wrlong	local19, objptr
01cc4     F9 18 02 F6 | 	mov	local20, local01
01cc8     02 18 46 F0 | 	shr	local20, #2
01ccc     03 18 06 F5 | 	and	local20, #3
01cd0     0C 1B C2 F9 | 	decod	local21, local20
01cd4                 | ' yzoom:=1<<((mode>>2) & 3)
01cd4     04 F0 04 F1 | 	add	objptr, #4
01cd8     78 1A 62 FC | 	wrlong	local21, objptr
01cdc     04 F0 84 F1 | 	sub	objptr, #4
01ce0     78 F8 01 FB | 	rdlong	local04, objptr
01ce4     04 F0 04 F1 | 	add	objptr, #4
01ce8     78 FC 01 FB | 	rdlong	local06, objptr
01cec     FE F8 01 FD | 	qmul	local04, local06
01cf0     18 1C 62 FD | 	getqx	local22
01cf4                 | ' azoom:=xzoom*yzoom
01cf4     04 F0 04 F1 | 	add	objptr, #4
01cf8     78 1C 62 FC | 	wrlong	local22, objptr
01cfc                 | '    
01cfc                 | ' cpl:=timings[11]
01cfc     5C F0 84 F1 | 	sub	objptr, #92
01d00     78 F4 01 FB | 	rdlong	local02, objptr
01d04     14 F0 04 F1 | 	add	objptr, #20
01d08     78 F4 61 FC | 	wrlong	local02, objptr
01d0c     94 F0 84 F1 | 	sub	objptr, #148
01d10                 | ' if (mode<512)
01d10     01 00 00 FF 
01d14     00 F2 5D F2 | 	cmps	local01, ##512 wcz
01d18     84 00 90 3D |  if_ae	jmp	#LR__0103
01d1c     84 F0 04 F1 | 	add	objptr, #132
01d20     78 7A 02 FB | 	rdlong	muldiva_, objptr
01d24     04 7A 46 F0 | 	shr	muldiva_, #4
01d28     54 F0 04 F1 | 	add	objptr, #84
01d2c     78 7C 02 FB | 	rdlong	muldivb_, objptr
01d30     D8 F0 84 F1 | 	sub	objptr, #216
01d34     67 00 A0 FD | 	call	#unsdivide_
01d38                 | '   lines:=(timings[12]>>4)+/yzoom
01d38     98 F0 04 F1 | 	add	objptr, #152
01d3c     78 7C 62 FC | 	wrlong	muldivb_, objptr
01d40                 | '   if ((timings[12]>>4)+//yzoom) <>0
01d40     14 F0 84 F1 | 	sub	objptr, #20
01d44     78 7A 02 FB | 	rdlong	muldiva_, objptr
01d48     04 7A 46 F0 | 	shr	muldiva_, #4
01d4c     54 F0 04 F1 | 	add	objptr, #84
01d50     78 7C 02 FB | 	rdlong	muldivb_, objptr
01d54     D8 F0 84 F1 | 	sub	objptr, #216
01d58     67 00 A0 FD | 	call	#unsdivide_
01d5c     00 7A 0E F2 | 	cmp	muldiva_, #0 wz
01d60     14 00 90 AD |  if_e	jmp	#LR__0102
01d64                 | '     lines +=1
01d64     98 F0 04 F1 | 	add	objptr, #152
01d68     78 F4 01 FB | 	rdlong	local02, objptr
01d6c     01 F4 05 F1 | 	add	local02, #1
01d70     78 F4 61 FC | 	wrlong	local02, objptr
01d74     98 F0 84 F1 | 	sub	objptr, #152
01d78                 | LR__0102
01d78                 | '   cpl:=cpl/xzoom
01d78     94 F0 04 F1 | 	add	objptr, #148
01d7c     78 7A 02 FB | 	rdlong	muldiva_, objptr
01d80     40 F0 04 F1 | 	add	objptr, #64
01d84     78 7C 02 FB | 	rdlong	muldivb_, objptr
01d88     D4 F0 84 F1 | 	sub	objptr, #212
01d8c     6B 00 A0 FD | 	call	#divide_
01d90     94 F0 04 F1 | 	add	objptr, #148
01d94     78 7C 62 FC | 	wrlong	muldivb_, objptr
01d98     94 F0 84 F1 | 	sub	objptr, #148
01d9c                 | ' else
01d9c     44 00 90 FD | 	jmp	#LR__0104
01da0                 | LR__0103
01da0     84 F0 04 F1 | 	add	objptr, #132
01da4     78 7A 02 FB | 	rdlong	muldiva_, objptr
01da8     54 F0 04 F1 | 	add	objptr, #84
01dac     78 7C 02 FB | 	rdlong	muldivb_, objptr
01db0     D8 F0 84 F1 | 	sub	objptr, #216
01db4     6B 00 A0 FD | 	call	#divide_
01db8                 | '   lines:=timings[12]/yzoom
01db8     98 F0 04 F1 | 	add	objptr, #152
01dbc     78 7C 62 FC | 	wrlong	muldivb_, objptr
01dc0                 | '   cpl:=cpl/xzoom
01dc0     04 F0 84 F1 | 	sub	objptr, #4
01dc4     78 7A 02 FB | 	rdlong	muldiva_, objptr
01dc8     40 F0 04 F1 | 	add	objptr, #64
01dcc     78 7C 02 FB | 	rdlong	muldivb_, objptr
01dd0     D4 F0 84 F1 | 	sub	objptr, #212
01dd4     6B 00 A0 FD | 	call	#divide_
01dd8     94 F0 04 F1 | 	add	objptr, #148
01ddc     78 7C 62 FC | 	wrlong	muldivb_, objptr
01de0     94 F0 84 F1 | 	sub	objptr, #148
01de4                 | LR__0104
01de4     94 F0 04 F1 | 	add	objptr, #148
01de8     78 F8 01 FB | 	rdlong	local04, objptr
01dec     04 F0 04 F1 | 	add	objptr, #4
01df0     78 FC 01 FB | 	rdlong	local06, objptr
01df4     FE F8 01 FD | 	qmul	local04, local06
01df8     18 1E 62 FD | 	getqx	local23
01dfc                 | ' 
01dfc                 | ' buflen:=(cpl*lines)
01dfc     64 F0 84 F1 | 	sub	objptr, #100
01e00     78 1E 62 FC | 	wrlong	local23, objptr
01e04     34 F0 84 F1 | 	sub	objptr, #52
01e08     02 1E 66 F0 | 	shl	local23, #2
01e0c     13 20 C6 F9 | 	decod	local24, #19
01e10     0F 21 82 F1 | 	sub	local24, local23
01e14                 | ' 
01e14                 | ' buf_ptr:=$80000-4*buflen
01e14     78 20 62 FC | 	wrlong	local24, objptr
01e18     54 F0 04 F1 | 	add	objptr, #84
01e1c     78 22 02 F6 | 	mov	local25, objptr
01e20                 | ' mode_ptr:=@timings
01e20     40 F0 84 F1 | 	sub	objptr, #64
01e24     78 22 62 FC | 	wrlong	local25, objptr
01e28                 | ' graphmode:=mode
01e28     BC F0 04 F1 | 	add	objptr, #188
01e2c     78 F2 61 FC | 	wrlong	local01, objptr
01e30     D0 F0 84 F1 | 	sub	objptr, #208
01e34                 | ' pintoggle(15)
01e34     5F 1E 64 FD | 	drvnot	#15
01e38                 | ' makedl(mode)
01e38     F9 E8 01 F6 | 	mov	arg01, local01
01e3c     0C 00 B0 FD | 	call	#_makedl
01e40     46 F0 03 F6 | 	mov	ptra, fp
01e44     5A 00 A0 FD | 	call	#popregs_
01e48                 | _setmode_ret
01e48     2D 00 64 FD | 	ret
01e4c                 | 
01e4c                 | ' 
01e4c                 | ' 
01e4c                 | ' '---------- Make a display list
01e4c                 | ' 
01e4c                 | ' pub makedl (mode) |i, fontline,charline,bufstart,zoom1,vzoom,lpc,hzoom
01e4c                 | _makedl
01e4c     F4 F8 00 F6 | 	mov	_var01, arg01
01e50                 | ' 
01e50                 | ' ''--%aaaa_aaaa_aaaa_aaaa_aazz_nnnn_llll_ll_01 - txt
01e50                 | '   '' aaaa_aaaa_aaaa_aaaa_aazz_rrrr_rrrr_cc_10 - graph
01e50                 | '   '' aaaa_aaaa_aaaa-aaaa_aarr_rrrr_rrrr_rr_11 - extended, next long to read 
01e50                 | '   
01e50                 | ' '   0 - display a up/down border line
01e50                 | '     
01e50                 | ' '  ' aaaa_aaaa_aaaa_aaaa_aazz_nnnn_llll_ll_01 - text line
01e50                 | ' '    aaaa_aaaa_aaaa_aaaa_aa00 - buffer start, has to be aligned, 1 long for char, ff_bb_rr_cc, foreground, background,reserved, charcode
01e50                 | ' '    zz - zoom, 00-x1, 01-x2, 10-x4, 11-blank line
01e50                 | ' '    nnnn - font line to display, 0..15
01e50                 | ' '    llllll - character line, determines the cursor Y position
01e50                 | ' 
01e50                 | ' 
01e50                 | ' if (mode &256==0) 
01e50     00 F9 CC F7 | 	test	_var01, #256 wz
01e54     1C 00 90 5D |  if_ne	jmp	#LR__0105
01e58     78 FA 00 FB | 	rdlong	_var02, objptr
01e5c     04 00 00 FF 
01e60     00 FB 84 F1 | 	sub	_var02, ##2304
01e64                 | '   dl_ptr:=buf_ptr-4*576 
01e64     20 F0 04 F1 | 	add	objptr, #32
01e68     78 FA 60 FC | 	wrlong	_var02, objptr
01e6c     20 F0 84 F1 | 	sub	objptr, #32
01e70                 | ' else 
01e70     18 00 90 FD | 	jmp	#LR__0106
01e74                 | LR__0105
01e74     78 FC 00 FB | 	rdlong	_var03, objptr
01e78     03 00 00 FF 
01e7c     C0 FD 84 F1 | 	sub	_var03, ##1984
01e80                 | '   dl_ptr:=buf_ptr-4*496
01e80     20 F0 04 F1 | 	add	objptr, #32
01e84     78 FC 60 FC | 	wrlong	_var03, objptr
01e88     20 F0 84 F1 | 	sub	objptr, #32
01e8c                 | LR__0106
01e8c     7C FE 00 F6 | 	mov	_var04, _var01
01e90     02 FE 44 F0 | 	shr	_var04, #2
01e94     7F 00 01 F6 | 	mov	_var05, _var04
01e98     03 00 05 F5 | 	and	_var05, #3
01e9c                 | ' 
01e9c                 | ' vzoom:=((mode>>2) & 3)
01e9c     80 02 01 F6 | 	mov	_var06, _var05
01ea0                 | '  
01ea0                 | ' 
01ea0                 | ' 
01ea0                 | ' 
01ea0                 | ' 
01ea0                 | ' if mode<512 '' text modes
01ea0     01 00 00 FF 
01ea4     00 F8 5C F2 | 	cmps	_var01, ##512 wcz
01ea8                 | ' 
01ea8                 | ' 
01ea8                 | ' if mode<64
01ea8     40 F8 5C F2 | 	cmps	_var01, #64 wcz
01eac     34 01 90 3D |  if_ae	jmp	#LR__0112
01eb0                 | '   repeat i from 0 to 47
01eb0     00 04 05 F6 | 	mov	_var07, #0
01eb4     A4 E1 9F FE | 	loc	pa,	#(@LR__0109-@LR__0107)
01eb8     35 00 A0 FD | 	call	#FCACHE_LOAD_
01ebc                 | LR__0107
01ebc     82 06 01 F6 | 	mov	_var08, _var07
01ec0     02 06 65 F0 | 	shl	_var08, #2
01ec4     20 F0 04 F1 | 	add	objptr, #32
01ec8     78 08 01 FB | 	rdlong	_var09, objptr
01ecc     20 F0 84 F1 | 	sub	objptr, #32
01ed0     83 08 01 F1 | 	add	_var09, _var08
01ed4                 | '     long[dl_ptr+4*i]:=0
01ed4     84 00 68 FC | 	wrlong	#0, _var09
01ed8     01 04 05 F1 | 	add	_var07, #1
01edc     30 04 5D F2 | 	cmps	_var07, #48 wcz
01ee0     D8 FF 9F CD |  if_b	jmp	#LR__0107
01ee4                 | '   repeat i from 528 to 575
01ee4     01 00 00 FF 
01ee8     10 04 05 F6 | 	mov	_var07, ##528
01eec                 | LR__0108
01eec     82 0A 01 F6 | 	mov	_var10, _var07
01ef0     02 0A 65 F0 | 	shl	_var10, #2
01ef4     20 F0 04 F1 | 	add	objptr, #32
01ef8     78 20 01 FB | 	rdlong	_var11, objptr
01efc     20 F0 84 F1 | 	sub	objptr, #32
01f00     85 20 01 F1 | 	add	_var11, _var10
01f04                 | '     long[dl_ptr+4*i]:=$0  
01f04     90 00 68 FC | 	wrlong	#0, _var11
01f08     01 04 05 F1 | 	add	_var07, #1
01f0c     01 00 00 FF 
01f10     40 04 5D F2 | 	cmps	_var07, ##576 wcz
01f14     D4 FF 9F CD |  if_b	jmp	#LR__0108
01f18                 | LR__0109
01f18     10 36 05 F6 | 	mov	_var12, #16
01f1c     81 36 61 F0 | 	shl	_var12, _var06
01f20                 | '   
01f20                 | '   lpc:=16<<vzoom 
01f20     9B 3A 01 F6 | 	mov	_var13, _var12
01f24                 | '   repeat i from 48 to 527
01f24     30 04 05 F6 | 	mov	_var07, #48
01f28     88 E1 9F FE | 	loc	pa,	#(@LR__0111-@LR__0110)
01f2c     35 00 A0 FD | 	call	#FCACHE_LOAD_
01f30                 | LR__0110
01f30     82 3C 01 F6 | 	mov	_var14, _var07
01f34     30 3C 85 F1 | 	sub	_var14, #48
01f38     9E 7A 02 F6 | 	mov	muldiva_, _var14
01f3c     9D 7C 02 F6 | 	mov	muldivb_, _var13
01f40     67 00 A0 FD | 	call	#unsdivide_
01f44     3D 3F 01 F6 | 	mov	_var15, muldiva_
01f48     9F 40 01 F6 | 	mov	_var16, _var15
01f4c     81 40 41 F0 | 	shr	_var16, _var06
01f50                 | '     fontline:=((i-48)+//lpc)>>vzoom
01f50     A0 42 01 F6 | 	mov	_var17, _var16
01f54     3E 45 01 F6 | 	mov	_var18, muldivb_
01f58                 | '     charline:=(i-48)+/lpc
01f58     A2 46 01 F6 | 	mov	_var19, _var18
01f5c     94 F0 04 F1 | 	add	objptr, #148
01f60     78 48 01 FB | 	rdlong	_var20, objptr
01f64     94 F0 84 F1 | 	sub	objptr, #148
01f68     A3 48 01 FD | 	qmul	_var20, _var19
01f6c     18 4A 61 FD | 	getqx	_var21
01f70     A5 4C 01 F6 | 	mov	_var22, _var21
01f74     02 4C 65 F0 | 	shl	_var22, #2
01f78     78 4E 01 FB | 	rdlong	_var23, objptr
01f7c     A6 4E 01 F1 | 	add	_var23, _var22
01f80     7C 50 01 F6 | 	mov	_var24, _var01
01f84     03 50 05 F5 | 	and	_var24, #3
01f88     A7 52 01 F6 | 	mov	_var25, _var23
01f8c     A8 52 01 F1 | 	add	_var25, _var24
01f90                 | '     bufstart:=buf_ptr+4*((cpl)*charline)+(mode&3)
01f90     A9 54 01 F6 | 	mov	_var26, _var25
01f94     0C 54 65 F0 | 	shl	_var26, #12
01f98     08 42 65 F0 | 	shl	_var17, #8
01f9c     AA 56 01 F6 | 	mov	_var27, _var26
01fa0     A1 56 01 F1 | 	add	_var27, _var17
01fa4     02 46 65 F0 | 	shl	_var19, #2
01fa8     AB 58 01 F6 | 	mov	_var28, _var27
01fac     A3 58 01 F1 | 	add	_var28, _var19
01fb0     AC 5A 01 F6 | 	mov	_var29, _var28
01fb4     01 5A 05 F1 | 	add	_var29, #1
01fb8     82 5C 01 F6 | 	mov	_var30, _var07
01fbc     02 5C 65 F0 | 	shl	_var30, #2
01fc0     20 F0 04 F1 | 	add	objptr, #32
01fc4     78 5E 01 FB | 	rdlong	_var31, objptr
01fc8     20 F0 84 F1 | 	sub	objptr, #32
01fcc     AE 5E 01 F1 | 	add	_var31, _var30
01fd0                 | '     long[dl_ptr+4*i]:=(bufstart<<12)+(fontline<<8)+(charline<<2)+1
01fd0     AF 5A 61 FC | 	wrlong	_var29, _var31
01fd4     01 04 05 F1 | 	add	_var07, #1
01fd8     01 00 00 FF 
01fdc     10 04 5D F2 | 	cmps	_var07, ##528 wcz
01fe0     4C FF 9F CD |  if_b	jmp	#LR__0110
01fe4                 | LR__0111
01fe4                 | LR__0112
01fe4                 | ' 
01fe4                 | ' 
01fe4                 | ' if (mode>=64) and (mode<128)
01fe4     40 F8 5C F2 | 	cmps	_var01, #64 wcz
01fe8     54 01 90 CD |  if_b	jmp	#LR__0118
01fec     80 F8 5C F2 | 	cmps	_var01, #128 wcz
01ff0     4C 01 90 3D |  if_ae	jmp	#LR__0118
01ff4                 | ' 
01ff4                 | '   repeat i from 0 to 23
01ff4     00 04 05 F6 | 	mov	_var07, #0
01ff8     60 E0 9F FE | 	loc	pa,	#(@LR__0115-@LR__0113)
01ffc     35 00 A0 FD | 	call	#FCACHE_LOAD_
02000                 | LR__0113
02000     82 60 01 F6 | 	mov	_var32, _var07
02004     02 60 65 F0 | 	shl	_var32, #2
02008     20 F0 04 F1 | 	add	objptr, #32
0200c     78 62 01 FB | 	rdlong	_var33, objptr
02010     20 F0 84 F1 | 	sub	objptr, #32
02014     B0 62 01 F1 | 	add	_var33, _var32
02018                 | '     long[dl_ptr+4*i]:=0
02018     B1 00 68 FC | 	wrlong	#0, _var33
0201c     01 04 05 F1 | 	add	_var07, #1
02020     18 04 5D F2 | 	cmps	_var07, #24 wcz
02024     D8 FF 9F CD |  if_b	jmp	#LR__0113
02028                 | '   repeat i from 520 to 543
02028     01 00 00 FF 
0202c     08 04 05 F6 | 	mov	_var07, ##520
02030                 | LR__0114
02030     82 64 01 F6 | 	mov	_var34, _var07
02034     02 64 65 F0 | 	shl	_var34, #2
02038     20 F0 04 F1 | 	add	objptr, #32
0203c     78 66 01 FB | 	rdlong	_var35, objptr
02040     20 F0 84 F1 | 	sub	objptr, #32
02044     B2 66 01 F1 | 	add	_var35, _var34
02048                 | '     long[dl_ptr+4*i]:=$0  
02048     B3 00 68 FC | 	wrlong	#0, _var35
0204c     01 04 05 F1 | 	add	_var07, #1
02050     01 00 00 FF 
02054     20 04 5D F2 | 	cmps	_var07, ##544 wcz
02058     D4 FF 9F CD |  if_b	jmp	#LR__0114
0205c                 | LR__0115
0205c     10 68 05 F6 | 	mov	_var36, #16
02060     81 68 61 F0 | 	shl	_var36, _var06
02064                 | '  
02064                 | '   lpc:=16<<vzoom 
02064     B4 3A 01 F6 | 	mov	_var13, _var36
02068                 | '   repeat i from 24 to 519
02068     18 04 05 F6 | 	mov	_var07, #24
0206c     5C E0 9F FE | 	loc	pa,	#(@LR__0117-@LR__0116)
02070     35 00 A0 FD | 	call	#FCACHE_LOAD_
02074                 | LR__0116
02074     82 6A 01 F6 | 	mov	_var37, _var07
02078     18 6A 85 F1 | 	sub	_var37, #24
0207c     B5 7A 02 F6 | 	mov	muldiva_, _var37
02080     9D 7C 02 F6 | 	mov	muldivb_, _var13
02084     67 00 A0 FD | 	call	#unsdivide_
02088     3D 6D 01 F6 | 	mov	_var38, muldiva_
0208c     B6 6E 01 F6 | 	mov	_var39, _var38
02090     81 6E 41 F0 | 	shr	_var39, _var06
02094                 | '     fontline:=((i-24)+//lpc)>>vzoom
02094     B7 70 01 F6 | 	mov	_var40, _var39
02098     3E 73 01 F6 | 	mov	_var41, muldivb_
0209c                 | '     charline:=(i-24)+/lpc
0209c     B9 74 01 F6 | 	mov	_var42, _var41
020a0     94 F0 04 F1 | 	add	objptr, #148
020a4     78 76 01 FB | 	rdlong	_var43, objptr
020a8     94 F0 84 F1 | 	sub	objptr, #148
020ac     BA 76 01 FD | 	qmul	_var43, _var42
020b0     18 78 61 FD | 	getqx	_var44
020b4     BC 7A 01 F6 | 	mov	_var45, _var44
020b8     02 7A 65 F0 | 	shl	_var45, #2
020bc     78 7C 01 FB | 	rdlong	_var46, objptr
020c0     BD 7C 01 F1 | 	add	_var46, _var45
020c4     7C 7E 01 F6 | 	mov	_var47, _var01
020c8     03 7E 05 F5 | 	and	_var47, #3
020cc     BE 80 01 F6 | 	mov	_var48, _var46
020d0     BF 80 01 F1 | 	add	_var48, _var47
020d4                 | '     bufstart:=buf_ptr+4*((cpl)*charline)+(mode&3)
020d4     C0 82 01 F6 | 	mov	_var49, _var48
020d8     C1 84 01 F6 | 	mov	_var50, _var49
020dc     0C 84 65 F0 | 	shl	_var50, #12
020e0     B8 86 01 F6 | 	mov	_var51, _var40
020e4     08 86 65 F0 | 	shl	_var51, #8
020e8     C2 88 01 F6 | 	mov	_var52, _var50
020ec     C3 88 01 F1 | 	add	_var52, _var51
020f0     BA 8A 01 F6 | 	mov	_var53, _var42
020f4     02 8A 65 F0 | 	shl	_var53, #2
020f8     C4 8C 01 F6 | 	mov	_var54, _var52
020fc     C5 8C 01 F1 | 	add	_var54, _var53
02100     C6 8E 01 F6 | 	mov	_var55, _var54
02104     01 8E 05 F1 | 	add	_var55, #1
02108     82 90 01 F6 | 	mov	_var56, _var07
0210c     02 90 65 F0 | 	shl	_var56, #2
02110     20 F0 04 F1 | 	add	objptr, #32
02114     78 92 01 FB | 	rdlong	_var57, objptr
02118     20 F0 84 F1 | 	sub	objptr, #32
0211c     C8 92 01 F1 | 	add	_var57, _var56
02120                 | '     long[dl_ptr+4*i]:=(bufstart<<12)+(fontline<<8)+(charline<<2)+1
02120     C9 8E 61 FC | 	wrlong	_var55, _var57
02124     82 94 01 F6 | 	mov	_var58, _var07
02128     82 48 01 F6 | 	mov	_var20, _var07
0212c     01 48 05 F1 | 	add	_var20, #1
02130     A4 04 01 F6 | 	mov	_var07, _var20
02134     01 00 00 FF 
02138     08 04 5D F2 | 	cmps	_var07, ##520 wcz
0213c     34 FF 9F CD |  if_b	jmp	#LR__0116
02140                 | LR__0117
02140                 | LR__0118
02140                 | ' 
02140                 | ' if (mode>=128) and (mode<192)
02140     80 F8 5C F2 | 	cmps	_var01, #128 wcz
02144     48 01 90 CD |  if_b	jmp	#LR__0124
02148     C0 F8 5C F2 | 	cmps	_var01, #192 wcz
0214c     40 01 90 3D |  if_ae	jmp	#LR__0124
02150                 | ' 
02150                 | '   repeat i from 0 to 7
02150     00 04 05 F6 | 	mov	_var07, #0
02154     FC DE 9F FE | 	loc	pa,	#(@LR__0121-@LR__0119)
02158     35 00 A0 FD | 	call	#FCACHE_LOAD_
0215c                 | LR__0119
0215c     82 96 01 F6 | 	mov	_var59, _var07
02160     02 96 65 F0 | 	shl	_var59, #2
02164     20 F0 04 F1 | 	add	objptr, #32
02168     78 98 01 FB | 	rdlong	_var60, objptr
0216c     20 F0 84 F1 | 	sub	objptr, #32
02170     CB 98 01 F1 | 	add	_var60, _var59
02174                 | '     long[dl_ptr+4*i]:=0
02174     CC 00 68 FC | 	wrlong	#0, _var60
02178     01 04 05 F1 | 	add	_var07, #1
0217c     08 04 5D F2 | 	cmps	_var07, #8 wcz
02180     D8 FF 9F CD |  if_b	jmp	#LR__0119
02184                 | '   repeat i from 488 to 495
02184     E8 05 05 F6 | 	mov	_var07, #488
02188                 | LR__0120
02188     82 9A 01 F6 | 	mov	_var61, _var07
0218c     02 9A 65 F0 | 	shl	_var61, #2
02190     20 F0 04 F1 | 	add	objptr, #32
02194     78 9C 01 FB | 	rdlong	_var62, objptr
02198     20 F0 84 F1 | 	sub	objptr, #32
0219c     CD 9C 01 F1 | 	add	_var62, _var61
021a0                 | '     long[dl_ptr+4*i]:=$0  
021a0     CE 00 68 FC | 	wrlong	#0, _var62
021a4     01 04 05 F1 | 	add	_var07, #1
021a8     F0 05 5D F2 | 	cmps	_var07, #496 wcz
021ac     D8 FF 9F CD |  if_b	jmp	#LR__0120
021b0                 | LR__0121
021b0     10 9E 05 F6 | 	mov	_var63, #16
021b4     81 9E 61 F0 | 	shl	_var63, _var06
021b8                 | '  
021b8                 | '   lpc:=16<<vzoom 
021b8     CF 3A 01 F6 | 	mov	_var13, _var63
021bc                 | '   repeat i from 8 to 487
021bc     08 04 05 F6 | 	mov	_var07, #8
021c0     04 DF 9F FE | 	loc	pa,	#(@LR__0123-@LR__0122)
021c4     35 00 A0 FD | 	call	#FCACHE_LOAD_
021c8                 | LR__0122
021c8     82 A0 01 F6 | 	mov	_var64, _var07
021cc     08 A0 85 F1 | 	sub	_var64, #8
021d0     D0 7A 02 F6 | 	mov	muldiva_, _var64
021d4     9D 7C 02 F6 | 	mov	muldivb_, _var13
021d8     67 00 A0 FD | 	call	#unsdivide_
021dc     3D A3 01 F6 | 	mov	_var65, muldiva_
021e0     D1 A4 01 F6 | 	mov	_var66, _var65
021e4     81 A4 41 F0 | 	shr	_var66, _var06
021e8                 | '     fontline:=((i-8)+//lpc)>>vzoom
021e8     D2 70 01 F6 | 	mov	_var40, _var66
021ec     3E A7 01 F6 | 	mov	_var67, muldivb_
021f0                 | '     charline:=(i-8)+/lpc
021f0     D3 74 01 F6 | 	mov	_var42, _var67
021f4     94 F0 04 F1 | 	add	objptr, #148
021f8     78 76 01 FB | 	rdlong	_var43, objptr
021fc     94 F0 84 F1 | 	sub	objptr, #148
02200     BA 76 01 FD | 	qmul	_var43, _var42
02204     18 A8 61 FD | 	getqx	_var68
02208     D4 AA 01 F6 | 	mov	_var69, _var68
0220c     02 AA 65 F0 | 	shl	_var69, #2
02210     78 AC 01 FB | 	rdlong	_var70, objptr
02214     D5 AC 01 F1 | 	add	_var70, _var69
02218     7C AE 01 F6 | 	mov	_var71, _var01
0221c     03 AE 05 F5 | 	and	_var71, #3
02220     D6 B0 01 F6 | 	mov	_var72, _var70
02224     D7 B0 01 F1 | 	add	_var72, _var71
02228                 | '     bufstart:=buf_ptr+4*((cpl)*charline)+(mode&3)
02228     D8 82 01 F6 | 	mov	_var49, _var72
0222c     C1 B2 01 F6 | 	mov	_var73, _var49
02230     0C B2 65 F0 | 	shl	_var73, #12
02234     B8 B4 01 F6 | 	mov	_var74, _var40
02238     08 B4 65 F0 | 	shl	_var74, #8
0223c     D9 B6 01 F6 | 	mov	_var75, _var73
02240     DA B6 01 F1 | 	add	_var75, _var74
02244     BA B8 01 F6 | 	mov	_var76, _var42
02248     02 B8 65 F0 | 	shl	_var76, #2
0224c     DB BA 01 F6 | 	mov	_var77, _var75
02250     DC BA 01 F1 | 	add	_var77, _var76
02254     DD BC 01 F6 | 	mov	_var78, _var77
02258     01 BC 05 F1 | 	add	_var78, #1
0225c     82 BE 01 F6 | 	mov	_var79, _var07
02260     02 BE 65 F0 | 	shl	_var79, #2
02264     20 F0 04 F1 | 	add	objptr, #32
02268     78 C0 01 FB | 	rdlong	_var80, objptr
0226c     20 F0 84 F1 | 	sub	objptr, #32
02270     DF C0 01 F1 | 	add	_var80, _var79
02274                 | '     long[dl_ptr+4*i]:=(bufstart<<12)+(fontline<<8)+(charline<<2)+1
02274     E0 BC 61 FC | 	wrlong	_var78, _var80
02278     82 94 01 F6 | 	mov	_var58, _var07
0227c     82 48 01 F6 | 	mov	_var20, _var07
02280     01 48 05 F1 | 	add	_var20, #1
02284     A4 04 01 F6 | 	mov	_var07, _var20
02288     E8 05 5D F2 | 	cmps	_var07, #488 wcz
0228c     38 FF 9F CD |  if_b	jmp	#LR__0122
02290                 | LR__0123
02290                 | LR__0124
02290                 | ' 
02290                 | ' if (mode>=192) and (mode<256)
02290     C0 F8 5C F2 | 	cmps	_var01, #192 wcz
02294     E4 00 90 CD |  if_b	jmp	#LR__0127
02298     00 F9 5C F2 | 	cmps	_var01, #256 wcz
0229c     DC 00 90 3D |  if_ae	jmp	#LR__0127
022a0     10 C2 05 F6 | 	mov	_var81, #16
022a4     81 C2 61 F0 | 	shl	_var81, _var06
022a8                 | ' 
022a8                 | '  
022a8                 | '   lpc:=16<<vzoom 
022a8     E1 3A 01 F6 | 	mov	_var13, _var81
022ac                 | '   repeat i from 0 to 575
022ac     00 04 05 F6 | 	mov	_var07, #0
022b0     10 DE 9F FE | 	loc	pa,	#(@LR__0126-@LR__0125)
022b4     35 00 A0 FD | 	call	#FCACHE_LOAD_
022b8                 | LR__0125
022b8     82 7A 02 F6 | 	mov	muldiva_, _var07
022bc     9D 7C 02 F6 | 	mov	muldivb_, _var13
022c0     67 00 A0 FD | 	call	#unsdivide_
022c4     3D C5 01 F6 | 	mov	_var82, muldiva_
022c8     E2 C6 01 F6 | 	mov	_var83, _var82
022cc     81 C6 41 F0 | 	shr	_var83, _var06
022d0                 | '     fontline:=((i)+//lpc)>>vzoom
022d0     E3 70 01 F6 | 	mov	_var40, _var83
022d4     3E C9 01 F6 | 	mov	_var84, muldivb_
022d8                 | '     charline:=(i)+/lpc
022d8     E4 74 01 F6 | 	mov	_var42, _var84
022dc     94 F0 04 F1 | 	add	objptr, #148
022e0     78 76 01 FB | 	rdlong	_var43, objptr
022e4     94 F0 84 F1 | 	sub	objptr, #148
022e8     BA 76 01 FD | 	qmul	_var43, _var42
022ec     18 CA 61 FD | 	getqx	_var85
022f0     E5 CC 01 F6 | 	mov	_var86, _var85
022f4     02 CC 65 F0 | 	shl	_var86, #2
022f8     78 CE 01 FB | 	rdlong	_var87, objptr
022fc     E6 CE 01 F1 | 	add	_var87, _var86
02300     7C D0 01 F6 | 	mov	_var88, _var01
02304     03 D0 05 F5 | 	and	_var88, #3
02308     E7 D2 01 F6 | 	mov	_var89, _var87
0230c     E8 D2 01 F1 | 	add	_var89, _var88
02310                 | '     bufstart:=buf_ptr+4*((cpl)*charline)+(mode&3)
02310     E9 82 01 F6 | 	mov	_var49, _var89
02314     C1 D4 01 F6 | 	mov	_var90, _var49
02318     0C D4 65 F0 | 	shl	_var90, #12
0231c     B8 D6 01 F6 | 	mov	_var91, _var40
02320     08 D6 65 F0 | 	shl	_var91, #8
02324     EA D8 01 F6 | 	mov	_var92, _var90
02328     EB D8 01 F1 | 	add	_var92, _var91
0232c     BA DA 01 F6 | 	mov	_var93, _var42
02330     02 DA 65 F0 | 	shl	_var93, #2
02334     EC DC 01 F6 | 	mov	_var94, _var92
02338     ED DC 01 F1 | 	add	_var94, _var93
0233c     EE DE 01 F6 | 	mov	_var95, _var94
02340     01 DE 05 F1 | 	add	_var95, #1
02344     82 E0 01 F6 | 	mov	_var96, _var07
02348     02 E0 65 F0 | 	shl	_var96, #2
0234c     20 F0 04 F1 | 	add	objptr, #32
02350     78 E2 01 FB | 	rdlong	_var97, objptr
02354     20 F0 84 F1 | 	sub	objptr, #32
02358     F0 E2 01 F1 | 	add	_var97, _var96
0235c                 | '     long[dl_ptr+4*i]:=(bufstart<<12)+(fontline<<8)+(charline<<2)+1
0235c     F1 DE 61 FC | 	wrlong	_var95, _var97
02360     82 94 01 F6 | 	mov	_var58, _var07
02364     82 48 01 F6 | 	mov	_var20, _var07
02368     01 48 05 F1 | 	add	_var20, #1
0236c     A4 04 01 F6 | 	mov	_var07, _var20
02370     01 00 00 FF 
02374     40 04 5D F2 | 	cmps	_var07, ##576 wcz
02378     3C FF 9F CD |  if_b	jmp	#LR__0125
0237c                 | LR__0126
0237c                 | LR__0127
0237c                 | ' 
0237c                 | ' '' graphics modes 
0237c                 | ' 
0237c                 | ' 
0237c                 | ' 
0237c                 | ' if (mode>=512)' and (mode & (%10_00_00_0000))==(%10_00_00_0000) ' graphics -> all modes TODO :mode 560+192=752 = 10_11_11_0000 impossib,e because out of memory
0237c     01 00 00 FF 
02380     00 F8 5C F2 | 	cmps	_var01, ##512 wcz
02384     AC 01 90 CD |  if_b	jmp	#LR__0135
02388                 | ' 
02388                 | '   if timings[6]>0 'borders
02388     6C F0 04 F1 | 	add	objptr, #108
0238c     78 94 01 FB | 	rdlong	_var58, objptr
02390     6C F0 84 F1 | 	sub	objptr, #108
02394     00 94 5D F2 | 	cmps	_var58, #0 wcz
02398     D4 00 90 ED |  if_be	jmp	#LR__0132
0239c                 | '     repeat i from 0 to timings[6]-1 '0 to -1
0239c     00 04 05 F6 | 	mov	_var07, #0
023a0     6C F0 04 F1 | 	add	objptr, #108
023a4     78 E4 01 FB | 	rdlong	_var98, objptr
023a8     6C F0 84 F1 | 	sub	objptr, #108
023ac     01 E4 85 F1 | 	sub	_var98, #1
023b0     00 E4 5D F2 | 	cmps	_var98, #0 wcz
023b4     01 76 05 16 |  if_a	mov	_var43, #1
023b8     01 76 65 E6 |  if_be	neg	_var43, #1
023bc     BB E6 01 F6 | 	mov	_var99, _var43
023c0     BB E4 01 F1 | 	add	_var98, _var43
023c4     60 DC 9F FE | 	loc	pa,	#(@LR__0129-@LR__0128)
023c8     35 00 A0 FD | 	call	#FCACHE_LOAD_
023cc                 | LR__0128
023cc     82 0C 01 F6 | 	mov	_var100, _var07
023d0     02 0C 65 F0 | 	shl	_var100, #2
023d4     20 F0 04 F1 | 	add	objptr, #32
023d8     78 0E 01 FB | 	rdlong	_var101, objptr
023dc     20 F0 84 F1 | 	sub	objptr, #32
023e0     86 0E 01 F1 | 	add	_var101, _var100
023e4                 | '       long[dl_ptr+4*i]:=$0  
023e4     87 00 68 FC | 	wrlong	#0, _var101
023e8     F3 04 01 F1 | 	add	_var07, _var99
023ec     F2 04 09 F2 | 	cmp	_var07, _var98 wz
023f0     D8 FF 9F 5D |  if_ne	jmp	#LR__0128
023f4                 | LR__0129
023f4                 | '     repeat i from timings[6]+timings[12] to timings[15]-1 
023f4     6C F0 04 F1 | 	add	objptr, #108
023f8     78 04 01 FB | 	rdlong	_var07, objptr
023fc     18 F0 04 F1 | 	add	objptr, #24
02400     78 76 01 FB | 	rdlong	_var43, objptr
02404     BB 04 01 F1 | 	add	_var07, _var43
02408     0C F0 04 F1 | 	add	objptr, #12
0240c     78 10 01 FB | 	rdlong	_var102, objptr
02410     01 10 85 F1 | 	sub	_var102, #1
02414     24 F0 84 F1 | 	sub	objptr, #36
02418     78 12 01 FB | 	rdlong	_var103, objptr
0241c     18 F0 04 F1 | 	add	objptr, #24
02420     78 14 01 FB | 	rdlong	_var104, objptr
02424     84 F0 84 F1 | 	sub	objptr, #132
02428     8A 12 01 F1 | 	add	_var103, _var104
0242c     89 10 59 F2 | 	cmps	_var102, _var103 wcz
02430     01 16 05 16 |  if_a	mov	_var105, #1
02434     01 16 65 E6 |  if_be	neg	_var105, #1
02438     8B 18 01 F6 | 	mov	_var106, _var105
0243c     8B 10 01 F1 | 	add	_var102, _var105
02440     E4 DB 9F FE | 	loc	pa,	#(@LR__0131-@LR__0130)
02444     35 00 A0 FD | 	call	#FCACHE_LOAD_
02448                 | LR__0130
02448     82 1A 01 F6 | 	mov	_var107, _var07
0244c     02 1A 65 F0 | 	shl	_var107, #2
02450     20 F0 04 F1 | 	add	objptr, #32
02454     78 1C 01 FB | 	rdlong	_var108, objptr
02458     20 F0 84 F1 | 	sub	objptr, #32
0245c     8D 1C 01 F1 | 	add	_var108, _var107
02460                 | '       long[dl_ptr+4*i]:=$0   
02460     8E 00 68 FC | 	wrlong	#0, _var108
02464     8C 04 01 F1 | 	add	_var07, _var106
02468     88 04 09 F2 | 	cmp	_var07, _var102 wz
0246c     D8 FF 9F 5D |  if_ne	jmp	#LR__0130
02470                 | LR__0131
02470                 | LR__0132
02470                 | '   repeat i from timings[6] to timings[6]+timings[12]-1  
02470     6C F0 04 F1 | 	add	objptr, #108
02474     78 04 01 FB | 	rdlong	_var07, objptr
02478     82 1E 01 F6 | 	mov	_var109, _var07
0247c     18 F0 04 F1 | 	add	objptr, #24
02480     78 22 01 FB | 	rdlong	_var110, objptr
02484     91 1E 01 F1 | 	add	_var109, _var110
02488     01 1E 85 F1 | 	sub	_var109, #1
0248c     18 F0 84 F1 | 	sub	objptr, #24
02490     78 16 01 FB | 	rdlong	_var105, objptr
02494     6C F0 84 F1 | 	sub	objptr, #108
02498     8B 1E 59 F2 | 	cmps	_var109, _var105 wcz
0249c     01 24 05 16 |  if_a	mov	_var111, #1
024a0     01 24 65 E6 |  if_be	neg	_var111, #1
024a4     92 26 01 F6 | 	mov	_var112, _var111
024a8     92 1E 01 F1 | 	add	_var109, _var111
024ac     D0 DB 9F FE | 	loc	pa,	#(@LR__0134-@LR__0133)
024b0     35 00 A0 FD | 	call	#FCACHE_LOAD_
024b4                 | LR__0133
024b4     82 28 01 F6 | 	mov	_var113, _var07
024b8     6C F0 04 F1 | 	add	objptr, #108
024bc     78 2A 01 FB | 	rdlong	_var114, objptr
024c0     95 28 81 F1 | 	sub	_var113, _var114
024c4     81 28 41 F0 | 	shr	_var113, _var06
024c8     28 F0 04 F1 | 	add	objptr, #40
024cc     78 2A 01 FB | 	rdlong	_var114, objptr
024d0     94 F0 84 F1 | 	sub	objptr, #148
024d4     94 2A 01 FD | 	qmul	_var114, _var113
024d8     18 2C 61 FD | 	getqx	_var115
024dc     02 2C 65 F0 | 	shl	_var115, #2
024e0     78 2E 01 FB | 	rdlong	_var116, objptr
024e4     96 2E 01 F1 | 	add	_var116, _var115
024e8     7C 30 01 F6 | 	mov	_var117, _var01
024ec     03 30 05 F5 | 	and	_var117, #3
024f0     98 2E 01 F1 | 	add	_var116, _var117
024f4                 | '     bufstart:=buf_ptr+4*(cpl*((i-timings[6])>>vzoom))+(mode&3)
024f4     0C 2E 65 F0 | 	shl	_var116, #12
024f8     02 2E 05 F1 | 	add	_var116, #2
024fc     7C 32 01 F6 | 	mov	_var118, _var01
02500     30 32 05 F5 | 	and	_var118, #48
02504     02 32 45 F0 | 	shr	_var118, #2
02508     99 2E 01 F1 | 	add	_var116, _var118
0250c     82 34 01 F6 | 	mov	_var119, _var07
02510     02 34 65 F0 | 	shl	_var119, #2
02514     20 F0 04 F1 | 	add	objptr, #32
02518     78 38 01 FB | 	rdlong	_var120, objptr
0251c     20 F0 84 F1 | 	sub	objptr, #32
02520     9A 38 01 F1 | 	add	_var120, _var119
02524                 | '     long[dl_ptr+4*i]:=(bufstart<<12)+2+(mode &48)>>2  
02524     9C 2E 61 FC | 	wrlong	_var116, _var120
02528     93 04 01 F1 | 	add	_var07, _var112
0252c     8F 04 09 F2 | 	cmp	_var07, _var109 wz
02530     80 FF 9F 5D |  if_ne	jmp	#LR__0133
02534                 | LR__0134
02534                 | LR__0135
02534                 | _makedl_ret
02534     2D 00 64 FD | 	ret
02538                 | hubexit
02538     23 00 80 FD | 	jmp	#cogexit
0253c                 | 
0253c                 | __system__bytefill
0253c     F5 F8 00 F6 | 	mov	_var01, arg02
02540     08 F8 64 F0 | 	shl	_var01, #8
02544     F5 F8 40 F5 | 	or	_var01, arg02
02548     7C FA 00 F6 | 	mov	_var02, _var01
0254c     10 FA 64 F0 | 	shl	_var02, #16
02550     7C FA 40 F5 | 	or	_var02, _var01
02554     C0 DA 9F FE | 	loc	pa,	#(@LR__0137-@LR__0136)
02558     35 00 A0 FD | 	call	#FCACHE_LOAD_
0255c                 | LR__0136
0255c     03 EC 5D F2 | 	cmps	arg03, #3 wcz
02560     10 00 90 ED |  if_be	jmp	#LR__0138
02564     F4 FA 60 FC | 	wrlong	_var02, arg01
02568     04 E8 05 F1 | 	add	arg01, #4
0256c     04 EC 85 F1 | 	sub	arg03, #4
02570     E8 FF 9F FD | 	jmp	#LR__0136
02574                 | LR__0137
02574                 | LR__0138
02574     00 EC 0D F2 | 	cmp	arg03, #0 wz
02578     14 00 90 AD |  if_e	jmp	#LR__0143
0257c     8C DA 9F FE | 	loc	pa,	#(@LR__0141-@LR__0139)
02580     35 00 A0 FD | 	call	#FCACHE_LOAD_
02584                 | LR__0139
02584     F6 04 D8 FC | 	rep	@LR__0142, arg03
02588                 | LR__0140
02588     F4 EA 41 FC | 	wrbyte	arg02, arg01
0258c     01 E8 05 F1 | 	add	arg01, #1
02590                 | LR__0141
02590                 | LR__0142
02590                 | LR__0143
02590                 | __system__bytefill_ret
02590     2D 00 64 FD | 	ret
02594                 | 
02594                 | __system__bytemove
02594     F4 F8 00 F6 | 	mov	_var01, arg01
02598     F5 E8 59 F2 | 	cmps	arg01, arg02 wcz
0259c     50 00 90 3D |  if_ae	jmp	#LR__0151
025a0     7C DA 9F FE | 	loc	pa,	#(@LR__0145-@LR__0144)
025a4     35 00 A0 FD | 	call	#FCACHE_LOAD_
025a8                 | LR__0144
025a8     03 EC 5D F2 | 	cmps	arg03, #3 wcz
025ac     18 00 90 ED |  if_be	jmp	#LR__0146
025b0     F5 FA 00 FB | 	rdlong	_var02, arg02
025b4     F4 FA 60 FC | 	wrlong	_var02, arg01
025b8     04 E8 05 F1 | 	add	arg01, #4
025bc     04 EA 05 F1 | 	add	arg02, #4
025c0     04 EC 85 F1 | 	sub	arg03, #4
025c4     E0 FF 9F FD | 	jmp	#LR__0144
025c8                 | LR__0145
025c8                 | LR__0146
025c8     F6 FC 08 F6 | 	mov	_var03, arg03 wz
025cc     4C 00 90 AD |  if_e	jmp	#LR__0157
025d0     40 DA 9F FE | 	loc	pa,	#(@LR__0149-@LR__0147)
025d4     35 00 A0 FD | 	call	#FCACHE_LOAD_
025d8                 | LR__0147
025d8     7E 08 D8 FC | 	rep	@LR__0150, _var03
025dc                 | LR__0148
025dc     F5 FA C0 FA | 	rdbyte	_var02, arg02
025e0     F4 FA 40 FC | 	wrbyte	_var02, arg01
025e4     01 E8 05 F1 | 	add	arg01, #1
025e8     01 EA 05 F1 | 	add	arg02, #1
025ec                 | LR__0149
025ec                 | LR__0150
025ec     2C 00 90 FD | 	jmp	#LR__0157
025f0                 | LR__0151
025f0     F6 E8 01 F1 | 	add	arg01, arg03
025f4     F6 EA 01 F1 | 	add	arg02, arg03
025f8     F6 FE 08 F6 | 	mov	_var04, arg03 wz
025fc     1C 00 90 AD |  if_e	jmp	#LR__0156
02600     10 DA 9F FE | 	loc	pa,	#(@LR__0154-@LR__0152)
02604     35 00 A0 FD | 	call	#FCACHE_LOAD_
02608                 | LR__0152
02608     7F 08 D8 FC | 	rep	@LR__0155, _var04
0260c                 | LR__0153
0260c     01 E8 85 F1 | 	sub	arg01, #1
02610     01 EA 85 F1 | 	sub	arg02, #1
02614     F5 FA C0 FA | 	rdbyte	_var02, arg02
02618     F4 FA 40 FC | 	wrbyte	_var02, arg01
0261c                 | LR__0154
0261c                 | LR__0155
0261c                 | LR__0156
0261c                 | LR__0157
0261c     7C F6 00 F6 | 	mov	result1, _var01
02620                 | __system__bytemove_ret
02620     2D 00 64 FD | 	ret
02624                 | 
02624                 | __system__longmove
02624     F4 F8 00 F6 | 	mov	_var01, arg01
02628     F5 E8 59 F2 | 	cmps	arg01, arg02 wcz
0262c     28 00 90 3D |  if_ae	jmp	#LR__0162
02630     F6 FA 08 F6 | 	mov	_var02, arg03 wz
02634     54 00 90 AD |  if_e	jmp	#LR__0168
02638     D8 D9 9F FE | 	loc	pa,	#(@LR__0160-@LR__0158)
0263c     35 00 A0 FD | 	call	#FCACHE_LOAD_
02640                 | LR__0158
02640     7D 08 D8 FC | 	rep	@LR__0161, _var02
02644                 | LR__0159
02644     F5 FC 00 FB | 	rdlong	_var03, arg02
02648     F4 FC 60 FC | 	wrlong	_var03, arg01
0264c     04 E8 05 F1 | 	add	arg01, #4
02650     04 EA 05 F1 | 	add	arg02, #4
02654                 | LR__0160
02654                 | LR__0161
02654     34 00 90 FD | 	jmp	#LR__0168
02658                 | LR__0162
02658     F6 FE 00 F6 | 	mov	_var04, arg03
0265c     02 FE 64 F0 | 	shl	_var04, #2
02660     7F E8 01 F1 | 	add	arg01, _var04
02664     7F EA 01 F1 | 	add	arg02, _var04
02668     F6 00 09 F6 | 	mov	_var05, arg03 wz
0266c     1C 00 90 AD |  if_e	jmp	#LR__0167
02670     A0 D9 9F FE | 	loc	pa,	#(@LR__0165-@LR__0163)
02674     35 00 A0 FD | 	call	#FCACHE_LOAD_
02678                 | LR__0163
02678     80 08 D8 FC | 	rep	@LR__0166, _var05
0267c                 | LR__0164
0267c     04 E8 85 F1 | 	sub	arg01, #4
02680     04 EA 85 F1 | 	sub	arg02, #4
02684     F5 FC 00 FB | 	rdlong	_var03, arg02
02688     F4 FC 60 FC | 	wrlong	_var03, arg01
0268c                 | LR__0165
0268c                 | LR__0166
0268c                 | LR__0167
0268c                 | LR__0168
0268c     7C F6 00 F6 | 	mov	result1, _var01
02690                 | __system__longmove_ret
02690     2D 00 64 FD | 	ret
02694                 | 
02694                 | __system___waitms
02694     02 88 04 F6 | 	mov	COUNT_, #2
02698     4B 00 A0 FD | 	call	#pushregs_
0269c     F4 F2 01 F6 | 	mov	local01, arg01
026a0     14 F4 05 FB | 	rdlong	local02, #20
026a4     70 D9 9F FE | 	loc	pa,	#(@LR__0170-@LR__0169)
026a8     35 00 A0 FD | 	call	#FCACHE_LOAD_
026ac                 | LR__0169
026ac     01 00 00 FF 
026b0     E8 F3 5D F2 | 	cmps	local01, ##1000 wcz
026b4     1F F4 61 1D |  if_a	waitx	local02
026b8     01 00 00 1F 
026bc     E8 F3 85 11 |  if_a	sub	local01, ##1000
026c0     E8 FF 9F 1D |  if_a	jmp	#LR__0169
026c4                 | LR__0170
026c4     00 F2 5D F2 | 	cmps	local01, #0 wcz
026c8     1C 00 90 ED |  if_be	jmp	#LR__0171
026cc     FA 7A 02 F6 | 	mov	muldiva_, local02
026d0     01 00 00 FF 
026d4     E8 7D 06 F6 | 	mov	muldivb_, ##1000
026d8     6B 00 A0 FD | 	call	#divide_
026dc     3E F3 01 FD | 	qmul	local01, muldivb_
026e0     18 E8 61 FD | 	getqx	arg01
026e4     1F E8 61 FD | 	waitx	arg01
026e8                 | LR__0171
026e8     46 F0 03 F6 | 	mov	ptra, fp
026ec     5A 00 A0 FD | 	call	#popregs_
026f0                 | __system___waitms_ret
026f0     2D 00 64 FD | 	ret
026f4                 | 
026f4                 | __system___waitus
026f4     02 88 04 F6 | 	mov	COUNT_, #2
026f8     4B 00 A0 FD | 	call	#pushregs_
026fc     F4 F2 01 F6 | 	mov	local01, arg01
02700     14 F4 05 FB | 	rdlong	local02, #20
02704     10 D9 9F FE | 	loc	pa,	#(@LR__0173-@LR__0172)
02708     35 00 A0 FD | 	call	#FCACHE_LOAD_
0270c                 | LR__0172
0270c     A1 07 00 FF 
02710     40 F2 5D F2 | 	cmps	local01, ##1000000 wcz
02714     1F F4 61 1D |  if_a	waitx	local02
02718     A1 07 00 1F 
0271c     40 F2 85 11 |  if_a	sub	local01, ##1000000
02720     E8 FF 9F 1D |  if_a	jmp	#LR__0172
02724                 | LR__0173
02724     00 F2 5D F2 | 	cmps	local01, #0 wcz
02728     1C 00 90 ED |  if_be	jmp	#LR__0174
0272c     FA 7A 02 F6 | 	mov	muldiva_, local02
02730     A1 07 00 FF 
02734     40 7C 06 F6 | 	mov	muldivb_, ##1000000
02738     6B 00 A0 FD | 	call	#divide_
0273c     3E F3 01 FD | 	qmul	local01, muldivb_
02740     18 E8 61 FD | 	getqx	arg01
02744     1F E8 61 FD | 	waitx	arg01
02748                 | LR__0174
02748     46 F0 03 F6 | 	mov	ptra, fp
0274c     5A 00 A0 FD | 	call	#popregs_
02750                 | __system___waitus_ret
02750     2D 00 64 FD | 	ret
02754                 | 
02754                 | LR__0175
02754     31 32 33 34 
02758     35 36 37 38 
0275c     39 30 31 32 
02760     33 34 35 36 
02764     37 38 39 30 
02768     31 32 33 34 
0276c     35 36 37 38 
02770     39 30 31 32 
02774     33 34 35 36 
02778     37 38 39 30 | 	byte	"1234567890123456789012345678901234567890"
0277c     00          | 	byte	0
0277d                 | LR__0176
0277d     31 32 33 34 
02781     35 36 37 38 
02785     39 30 31 32 
02789     33 34 35 36 
0278d     37 38 39 30 
02791     31 32 33 34 
02795     35 36 37 38 
02799     39 30 31 32 
0279d     33 34 35 36 
027a1     37 38 39 30 | 	byte	"1234567890123456789012345678901234567890"
027a5     00          | 	byte	0
027a6                 | LR__0177
027a6     31 32 33 34 
027aa     35 36 37 38 
027ae     39 30 31 32 
027b2     33 34 35 36 
027b6     37 38 39 30 
027ba     31 32 33 34 
027be     35 36 37 38 
027c2     39 30 31 32 
027c6     33 34 35 36 
027ca     37 38 39 30 | 	byte	"1234567890123456789012345678901234567890"
027ce     00          | 	byte	0
027cf                 | LR__0178
027cf     6D 6F 64 65 | 	byte	"mode"
027d3     00          | 	byte	0
027d4                 | LR__0179
027d4     6C 70 6C    | 	byte	"lpl"
027d7     00          | 	byte	0
027d8                 | LR__0180
027d8     62 75 66 5F 
027dc     70 74 72    | 	byte	"buf_ptr"
027df     00          | 	byte	0
027e0                 | LR__0181
027e0     62 75 66 6C 
027e4     65 6E       | 	byte	"buflen"
027e6     00          | 	byte	0
027e7                 | LR__0182
027e7     6C 69 6E 65 
027eb     73          | 	byte	"lines"
027ec     00          | 	byte	0
027ed                 | LR__0183
027ed     31 32 33 34 
027f1     35 36 37 38 
027f5     39 30 31 32 
027f9     33 34 35 36 
027fd     37 38 39 30 
02801     31 32 33 34 
02805     35 36 37 38 
02809     39 30 31 32 
0280d     33 34 35 36 
02811     37 38 39 30 | 	byte	"1234567890123456789012345678901234567890"
02815     00          | 	byte	0
02816                 | LR__0184
02816     32 35 36 20 
0281a     63 6F 6C 6F 
0281e     72 73       | 	byte	"256 colors"
02820     00          | 	byte	0
02821                 | LR__0185
02821     35 31 32 78 
02825     35 37 36 20 
02829     70 69 78 65 
0282d     6C 73       | 	byte	"512x576 pixels"
0282f     00          | 	byte	0
02830                 | LR__0186
02830     6C 6F 6E 67 
02834     73 20 62 75 
02838     66 66 65 72 | 	byte	"longs buffer"
0283c     00          | 	byte	0
0283d     00 00 00    | 	alignl
02840                 | _dat_
02840     00 00 00 00 
02844     00 00 00 00 
02848     00 00 00 00 
0284c     00 00 00 00 
02850     00 00 00    | vga_font       file "vgafont.def"
02853     7E 81 A5 81 
02857     81 BD 99 81 
0285b     81 7E 00 00 
0285f     00 00 00 00 | 	byte	$7e, $81, $a5, $81, $81, $bd, $99, $81, $81, $7e, $00, $00, $00, $00, $00, $00
02863     7E FF DB FF 
02867     FF C3 E7 FF 
0286b     FF 7E 00 00 
0286f     00 00 00 00 | 	byte	$7e, $ff, $db, $ff, $ff, $c3, $e7, $ff, $ff, $7e, $00, $00, $00, $00, $00, $00
02873     00 36 7F 7F 
02877     7F 7F 3E 1C 
0287b     08 00 00 00 
0287f     00 00 00 00 | 	byte	$00, $36, $7f, $7f, $7f, $7f, $3e, $1c, $08, $00, $00, $00, $00, $00, $00, $00
02883     00 08 1C 3E 
02887     7F 3E 1C 08 
0288b     00 00 00 00 
0288f     00 00 00 00 | 	byte	$00, $08, $1c, $3e, $7f, $3e, $1c, $08, $00, $00, $00, $00, $00, $00, $00, $00
02893     18 3C 3C E7 
02897     E7 E7 18 18 
0289b     3C 00 00 00 
0289f     00 00 00 00 | 	byte	$18, $3c, $3c, $e7, $e7, $e7, $18, $18, $3c, $00, $00, $00, $00, $00, $00, $00
028a3     18 3C 7E FF 
028a7     FF 7E 18 18 
028ab     3C 00 00 00 
028af     00 00 00 00 | 	byte	$18, $3c, $7e, $ff, $ff, $7e, $18, $18, $3c, $00, $00, $00, $00, $00, $00, $00
028b3     00 00 00 18 
028b7     3C 3C 18 00 
028bb     00 00 00 00 
028bf     00 FF FF FF | 	byte	$00, $00, $00, $18, $3c, $3c, $18, $00, $00, $00, $00, $00, $00, $ff, $ff, $ff
028c3     FF FF FF E7 
028c7     C3 C3 E7 FF 
028cb     FF FF FF FF 
028cf     FF 00 00 00 | 	byte	$ff, $ff, $ff, $e7, $c3, $c3, $e7, $ff, $ff, $ff, $ff, $ff, $ff, $00, $00, $00
028d3     00 00 3C 66 
028d7     42 42 66 3C 
028db     00 00 00 00 
028df     00 FF FF FF | 	byte	$00, $00, $3c, $66, $42, $42, $66, $3c, $00, $00, $00, $00, $00, $ff, $ff, $ff
028e3     FF FF C3 99 
028e7     BD BD 99 C3 
028eb     FF FF FF FF 
028ef     FF 00 00 00 | 	byte	$ff, $ff, $c3, $99, $bd, $bd, $99, $c3, $ff, $ff, $ff, $ff, $ff, $00, $00, $00
028f3     78 70 58 4C 
028f7     1E 33 33 33 
028fb     33 1E 00 00 
028ff     00 00 00 00 | 	byte	$78, $70, $58, $4c, $1e, $33, $33, $33, $33, $1e, $00, $00, $00, $00, $00, $00
02903     3C 66 66 66 
02907     66 3C 18 7E 
0290b     18 18 00 00 
0290f     00 00 00 00 | 	byte	$3c, $66, $66, $66, $66, $3c, $18, $7e, $18, $18, $00, $00, $00, $00, $00, $00
02913     FC CC FC 0C 
02917     0C 0C 0C 0E 
0291b     0F 07 00 00 
0291f     00 00 00 00 | 	byte	$fc, $cc, $fc, $0c, $0c, $0c, $0c, $0e, $0f, $07, $00, $00, $00, $00, $00, $00
02923     FE C6 FE C6 
02927     C6 C6 C6 E6 
0292b     E7 67 03 00 
0292f     00 00 00 00 | 	byte	$fe, $c6, $fe, $c6, $c6, $c6, $c6, $e6, $e7, $67, $03, $00, $00, $00, $00, $00
02933     18 18 DB 3C 
02937     E7 3C DB 18 
0293b     18 00 00 00 
0293f     00 00 00 01 | 	byte	$18, $18, $db, $3c, $e7, $3c, $db, $18, $18, $00, $00, $00, $00, $00, $00, $01
02943     03 07 0F 1F 
02947     7F 1F 0F 07 
0294b     03 01 00 00 
0294f     00 00 00 40 | 	byte	$03, $07, $0f, $1f, $7f, $1f, $0f, $07, $03, $01, $00, $00, $00, $00, $00, $40
02953     60 70 78 7C 
02957     7F 7C 78 70 
0295b     60 40 00 00 
0295f     00 00 00 00 | 	byte	$60, $70, $78, $7c, $7f, $7c, $78, $70, $60, $40, $00, $00, $00, $00, $00, $00
02963     18 3C 7E 18 
02967     18 18 7E 3C 
0296b     18 00 00 00 
0296f     00 00 00 00 | 	byte	$18, $3c, $7e, $18, $18, $18, $7e, $3c, $18, $00, $00, $00, $00, $00, $00, $00
02973     66 66 66 66 
02977     66 66 66    | 	byte	$66[7]
0297a     00 66 66 00 
0297e     00 00 00 00 
02982     00 FE DB DB 
02986     DB DE D8 D8 | 	byte	$00, $66, $66, $00, $00, $00, $00, $00, $00, $fe, $db, $db, $db, $de, $d8, $d8
0298a     D8 D8 D8 00 
0298e     00 00 00 3E 
02992     63 06 1C 36 
02996     63 63 36 1C | 	byte	$d8, $d8, $d8, $00, $00, $00, $00, $3e, $63, $06, $1c, $36, $63, $63, $36, $1c
0299a     30 63 3E 00 
0299e     00 00 00 00 
029a2     00 00 00 00 
029a6     00 00 00 7F | 	byte	$30, $63, $3e, $00, $00, $00, $00, $00, $00, $00, $00, $00, $00, $00, $00, $7f
029aa     7F 7F 7F 00 
029ae     00 00 00 00 
029b2     00 18 3C 7E 
029b6     18 18 18 7E | 	byte	$7f, $7f, $7f, $00, $00, $00, $00, $00, $00, $18, $3c, $7e, $18, $18, $18, $7e
029ba     3C 18 7E 00 
029be     00 00 00 00 
029c2     00 18 3C 7E 
029c6     18 18 18 18 | 	byte	$3c, $18, $7e, $00, $00, $00, $00, $00, $00, $18, $3c, $7e, $18, $18, $18, $18
029ca     18 18 18 00 
029ce     00 00 00 00 
029d2     00 18 18 18 
029d6     18 18 18 18 | 	byte	$18, $18, $18, $00, $00, $00, $00, $00, $00, $18, $18, $18, $18, $18, $18, $18
029da     7E 3C 18 00 
029de     00 00 00 00 
029e2     00 00 00 18 
029e6     30 7F 30 18 | 	byte	$7e, $3c, $18, $00, $00, $00, $00, $00, $00, $00, $00, $18, $30, $7f, $30, $18
029ea     00 00 00 00 
029ee     00 00 00 00 
029f2     00 00 00    | 	byte	$00[11]
029f5     0C 06 7F 06 
029f9     0C 00 00 00 
029fd     00 00 00 00 
02a01     00 00 00 00 | 	byte	$0c, $06, $7f, $06, $0c, $00, $00, $00, $00, $00, $00, $00, $00, $00, $00, $00
02a05     00 03 03 03 
02a09     7F 00 00 00 
02a0d     00 00 00 00 
02a11     00 00 00 00 | 	byte	$00, $03, $03, $03, $7f, $00, $00, $00, $00, $00, $00, $00, $00, $00, $00, $00
02a15     14 36 7F 36 
02a19     14 00 00 00 
02a1d     00 00 00 00 
02a21     00 00 00 08 | 	byte	$14, $36, $7f, $36, $14, $00, $00, $00, $00, $00, $00, $00, $00, $00, $00, $08
02a25     1C 1C 3E 3E 
02a29     7F 7F 00 00 
02a2d     00 00 00 00 
02a31     00 00 00 7F | 	byte	$1c, $1c, $3e, $3e, $7f, $7f, $00, $00, $00, $00, $00, $00, $00, $00, $00, $7f
02a35     7F 3E 3E 1C 
02a39     1C 08 00 00 
02a3d     00 00 00 00 
02a41     00 00 00 00 | 	byte	$7f, $3e, $3e, $1c, $1c, $08, $00, $00, $00, $00, $00, $00, $00, $00, $00, $00
02a45     00 00 00 00 
02a49     00 00 00 00 
02a4d     00 00 00 00 
02a51     00 00       | 	byte	$00[14]
02a53     18 3C 3C 3C 
02a57     18 18 18 00 
02a5b     18 18 00 00 
02a5f     00 00 66 66 | 	byte	$18, $3c, $3c, $3c, $18, $18, $18, $00, $18, $18, $00, $00, $00, $00, $66, $66
02a63     66 24 00 00 
02a67     00 00 00 00 
02a6b     00 00 00 00 
02a6f     00 00 00 00 | 	byte	$66, $24, $00, $00, $00, $00, $00, $00, $00, $00, $00, $00, $00, $00, $00, $00
02a73     00 36 36 7F 
02a77     36 36 36 7F 
02a7b     36 36 00 00 
02a7f     00 00 18 18 | 	byte	$00, $36, $36, $7f, $36, $36, $36, $7f, $36, $36, $00, $00, $00, $00, $18, $18
02a83     3E 63 43 03 
02a87     3E 60 60 61 
02a8b     63 3E 18 18 
02a8f     00 00 00 00 | 	byte	$3e, $63, $43, $03, $3e, $60, $60, $61, $63, $3e, $18, $18, $00, $00, $00, $00
02a93     00 00 43 63 
02a97     30 18 0C 06 
02a9b     63 61 00 00 
02a9f     00 00 00 00 | 	byte	$00, $00, $43, $63, $30, $18, $0c, $06, $63, $61, $00, $00, $00, $00, $00, $00
02aa3     1C 36 36 1C 
02aa7     6E 3B 33 33 
02aab     33 6E 00 00 
02aaf     00 00 00 00 | 	byte	$1c, $36, $36, $1c, $6e, $3b, $33, $33, $33, $6e, $00, $00, $00, $00, $00, $00
02ab3     0C 0C 0C 06 
02ab7     00 00 00 00 
02abb     00 00 00 00 
02abf     00 00 00 00 | 	byte	$0c, $0c, $0c, $06, $00, $00, $00, $00, $00, $00, $00, $00, $00, $00, $00, $00
02ac3     30 18 0C 0C 
02ac7     0C 0C 0C 0C 
02acb     18 30 00 00 
02acf     00 00 00 00 | 	byte	$30, $18, $0c, $0c, $0c, $0c, $0c, $0c, $18, $30, $00, $00, $00, $00, $00, $00
02ad3     0C 18 30 30 
02ad7     30 30 30 30 
02adb     18 0C 00 00 
02adf     00 00 00 00 | 	byte	$0c, $18, $30, $30, $30, $30, $30, $30, $18, $0c, $00, $00, $00, $00, $00, $00
02ae3     00 00 00 66 
02ae7     3C FF 3C 66 
02aeb     00 00 00 00 
02aef     00 00 00 00 | 	byte	$00, $00, $00, $66, $3c, $ff, $3c, $66, $00, $00, $00, $00, $00, $00, $00, $00
02af3     00 00 00 18 
02af7     18 7E 18 18 
02afb     00 00 00 00 
02aff     00 00 00 00 | 	byte	$00, $00, $00, $18, $18, $7e, $18, $18, $00, $00, $00, $00, $00, $00, $00, $00
02b03     00 00 00 00 
02b07     00 00 00 00 | 	byte	$00[8]
02b0b     18 18 18 0C 
02b0f     00 00 00 00 
02b13     00 00 00 00 
02b17     00 7F 00 00 | 	byte	$18, $18, $18, $0c, $00, $00, $00, $00, $00, $00, $00, $00, $00, $7f, $00, $00
02b1b     00 00 00 00 
02b1f     00 00 00 00 
02b23     00 00 00 00 
02b27     00 00 00 00 | 	byte	$00[16]
02b2b     18 18 00 00 
02b2f     00 00 00 00 
02b33     00 00 40 60 
02b37     30 18 0C 06 | 	byte	$18, $18, $00, $00, $00, $00, $00, $00, $00, $00, $40, $60, $30, $18, $0c, $06
02b3b     03 01 00 00 
02b3f     00 00 00 00 
02b43     1C 36 63 63 
02b47     6B 6B 63 63 | 	byte	$03, $01, $00, $00, $00, $00, $00, $00, $1c, $36, $63, $63, $6b, $6b, $63, $63
02b4b     36 1C 00 00 
02b4f     00 00 00 00 
02b53     18 1C 1E 18 
02b57     18 18 18 18 | 	byte	$36, $1c, $00, $00, $00, $00, $00, $00, $18, $1c, $1e, $18, $18, $18, $18, $18
02b5b     18 7E 00 00 
02b5f     00 00 00 00 
02b63     3E 63 60 30 
02b67     18 0C 06 03 | 	byte	$18, $7e, $00, $00, $00, $00, $00, $00, $3e, $63, $60, $30, $18, $0c, $06, $03
02b6b     63 7F 00 00 
02b6f     00 00 00 00 
02b73     3E 63 60 60 
02b77     3C 60 60 60 | 	byte	$63, $7f, $00, $00, $00, $00, $00, $00, $3e, $63, $60, $60, $3c, $60, $60, $60
02b7b     63 3E 00 00 
02b7f     00 00 00 00 
02b83     30 38 3C 36 
02b87     33 7F 30 30 | 	byte	$63, $3e, $00, $00, $00, $00, $00, $00, $30, $38, $3c, $36, $33, $7f, $30, $30
02b8b     30 78 00 00 
02b8f     00 00 00 00 
02b93     7F 03 03 03 
02b97     3F 60 60 60 | 	byte	$30, $78, $00, $00, $00, $00, $00, $00, $7f, $03, $03, $03, $3f, $60, $60, $60
02b9b     63 3E 00 00 
02b9f     00 00 00 00 
02ba3     1C 06 03 03 
02ba7     3F 63 63 63 | 	byte	$63, $3e, $00, $00, $00, $00, $00, $00, $1c, $06, $03, $03, $3f, $63, $63, $63
02bab     63 3E 00 00 
02baf     00 00 00 00 
02bb3     7F 63 60 60 
02bb7     30 18 0C 0C | 	byte	$63, $3e, $00, $00, $00, $00, $00, $00, $7f, $63, $60, $60, $30, $18, $0c, $0c
02bbb     0C 0C 00 00 
02bbf     00 00 00 00 
02bc3     3E 63 63 63 
02bc7     3E 63 63 63 | 	byte	$0c, $0c, $00, $00, $00, $00, $00, $00, $3e, $63, $63, $63, $3e, $63, $63, $63
02bcb     63 3E 00 00 
02bcf     00 00 00 00 
02bd3     3E 63 63 63 
02bd7     7E 60 60 60 | 	byte	$63, $3e, $00, $00, $00, $00, $00, $00, $3e, $63, $63, $63, $7e, $60, $60, $60
02bdb     30 1E 00 00 
02bdf     00 00 00 00 
02be3     00 00 00 18 
02be7     18 00 00 00 | 	byte	$30, $1e, $00, $00, $00, $00, $00, $00, $00, $00, $00, $18, $18, $00, $00, $00
02beb     18 18 00 00 
02bef     00 00 00 00 
02bf3     00 00 00 18 
02bf7     18 00 00 00 | 	byte	$18, $18, $00, $00, $00, $00, $00, $00, $00, $00, $00, $18, $18, $00, $00, $00
02bfb     18 18 0C 00 
02bff     00 00 00 00 
02c03     00 60 30 18 
02c07     0C 06 0C 18 | 	byte	$18, $18, $0c, $00, $00, $00, $00, $00, $00, $60, $30, $18, $0c, $06, $0c, $18
02c0b     30 60 00 00 
02c0f     00 00 00 00 
02c13     00 00 00 7E 
02c17     00 00 7E 00 | 	byte	$30, $60, $00, $00, $00, $00, $00, $00, $00, $00, $00, $7e, $00, $00, $7e, $00
02c1b     00 00 00 00 
02c1f     00 00 00 00 
02c23     00          | 	byte	$00[9]
02c24     06 0C 18 30 
02c28     60 30 18 0C 
02c2c     06 00 00 00 
02c30     00 00 00 3E | 	byte	$06, $0c, $18, $30, $60, $30, $18, $0c, $06, $00, $00, $00, $00, $00, $00, $3e
02c34     63 63 30 18 
02c38     18 18 00 18 
02c3c     18 00 00 00 
02c40     00 00 00 00 | 	byte	$63, $63, $30, $18, $18, $18, $00, $18, $18, $00, $00, $00, $00, $00, $00, $00
02c44     3E 63 63 7B 
02c48     7B 7B 3B 03 
02c4c     3E 00 00 00 
02c50     00 00 00 08 | 	byte	$3e, $63, $63, $7b, $7b, $7b, $3b, $03, $3e, $00, $00, $00, $00, $00, $00, $08
02c54     1C 36 63 63 
02c58     7F 63 63 63 
02c5c     63 00 00 00 
02c60     00 00 00 3F | 	byte	$1c, $36, $63, $63, $7f, $63, $63, $63, $63, $00, $00, $00, $00, $00, $00, $3f
02c64     66 66 66 3E 
02c68     66 66 66 66 
02c6c     3F 00 00 00 
02c70     00 00 00 3C | 	byte	$66, $66, $66, $3e, $66, $66, $66, $66, $3f, $00, $00, $00, $00, $00, $00, $3c
02c74     66 43 03 03 
02c78     03 03 43 66 
02c7c     3C 00 00 00 
02c80     00 00 00 1F | 	byte	$66, $43, $03, $03, $03, $03, $43, $66, $3c, $00, $00, $00, $00, $00, $00, $1f
02c84     36 66 66 66 
02c88     66 66 66 36 
02c8c     1F 00 00 00 
02c90     00 00 00 7F | 	byte	$36, $66, $66, $66, $66, $66, $66, $36, $1f, $00, $00, $00, $00, $00, $00, $7f
02c94     66 46 16 1E 
02c98     16 06 46 66 
02c9c     7F 00 00 00 
02ca0     00 00 00 7F | 	byte	$66, $46, $16, $1e, $16, $06, $46, $66, $7f, $00, $00, $00, $00, $00, $00, $7f
02ca4     66 46 16 1E 
02ca8     16 06 06 06 
02cac     0F 00 00 00 
02cb0     00 00 00 3C | 	byte	$66, $46, $16, $1e, $16, $06, $06, $06, $0f, $00, $00, $00, $00, $00, $00, $3c
02cb4     66 43 03 03 
02cb8     7B 63 63 66 
02cbc     5C 00 00 00 
02cc0     00 00 00 63 | 	byte	$66, $43, $03, $03, $7b, $63, $63, $66, $5c, $00, $00, $00, $00, $00, $00, $63
02cc4     63 63 63 7F 
02cc8     63 63 63 63 
02ccc     63 00 00 00 
02cd0     00 00 00 3C | 	byte	$63, $63, $63, $7f, $63, $63, $63, $63, $63, $00, $00, $00, $00, $00, $00, $3c
02cd4     18 18 18 18 
02cd8     18 18 18 18 | 	byte	$18[8]
02cdc     3C 00 00 00 
02ce0     00 00 00 78 
02ce4     30 30 30 30 
02ce8     30 33 33 33 | 	byte	$3c, $00, $00, $00, $00, $00, $00, $78, $30, $30, $30, $30, $30, $33, $33, $33
02cec     1E 00 00 00 
02cf0     00 00 00 67 
02cf4     66 66 36 1E 
02cf8     1E 36 66 66 | 	byte	$1e, $00, $00, $00, $00, $00, $00, $67, $66, $66, $36, $1e, $1e, $36, $66, $66
02cfc     67 00 00 00 
02d00     00 00 00 0F 
02d04     06 06 06 06 
02d08     06 06 46 66 | 	byte	$67, $00, $00, $00, $00, $00, $00, $0f, $06, $06, $06, $06, $06, $06, $46, $66
02d0c     7F 00 00 00 
02d10     00 00 00 63 
02d14     77 7F 7F 6B 
02d18     63 63 63 63 | 	byte	$7f, $00, $00, $00, $00, $00, $00, $63, $77, $7f, $7f, $6b, $63, $63, $63, $63
02d1c     63 00 00 00 
02d20     00 00 00 63 
02d24     67 6F 7F 7B 
02d28     73 63 63 63 | 	byte	$63, $00, $00, $00, $00, $00, $00, $63, $67, $6f, $7f, $7b, $73, $63, $63, $63
02d2c     63 00 00 00 
02d30     00 00 00 3E 
02d34     63 63 63 63 
02d38     63 63 63 63 | 	byte	$63, $00, $00, $00, $00, $00, $00, $3e, $63, $63, $63, $63, $63, $63, $63, $63
02d3c     3E 00 00 00 
02d40     00 00 00 3F 
02d44     66 66 66 3E 
02d48     06 06 06 06 | 	byte	$3e, $00, $00, $00, $00, $00, $00, $3f, $66, $66, $66, $3e, $06, $06, $06, $06
02d4c     0F 00 00 00 
02d50     00 00 00 3E 
02d54     63 63 63 63 
02d58     63 63 6B 7B | 	byte	$0f, $00, $00, $00, $00, $00, $00, $3e, $63, $63, $63, $63, $63, $63, $6b, $7b
02d5c     3E 30 70 00 
02d60     00 00 00 3F 
02d64     66 66 66 3E 
02d68     36 66 66 66 | 	byte	$3e, $30, $70, $00, $00, $00, $00, $3f, $66, $66, $66, $3e, $36, $66, $66, $66
02d6c     67 00 00 00 
02d70     00 00 00 3E 
02d74     63 63 06 1C 
02d78     30 60 63 63 | 	byte	$67, $00, $00, $00, $00, $00, $00, $3e, $63, $63, $06, $1c, $30, $60, $63, $63
02d7c     3E 00 00 00 
02d80     00 00 00 7E 
02d84     7E 5A 18 18 
02d88     18 18 18 18 | 	byte	$3e, $00, $00, $00, $00, $00, $00, $7e, $7e, $5a, $18, $18, $18, $18, $18, $18
02d8c     3C 00 00 00 
02d90     00 00 00 63 
02d94     63 63 63 63 
02d98     63 63 63 63 | 	byte	$3c, $00, $00, $00, $00, $00, $00, $63, $63, $63, $63, $63, $63, $63, $63, $63
02d9c     3E 00 00 00 
02da0     00 00 00 63 
02da4     63 63 63 63 
02da8     63 63 36 1C | 	byte	$3e, $00, $00, $00, $00, $00, $00, $63, $63, $63, $63, $63, $63, $63, $36, $1c
02dac     08 00 00 00 
02db0     00 00 00 63 
02db4     63 63 63 6B 
02db8     6B 6B 7F 77 | 	byte	$08, $00, $00, $00, $00, $00, $00, $63, $63, $63, $63, $6b, $6b, $6b, $7f, $77
02dbc     36 00 00 00 
02dc0     00 00 00 63 
02dc4     63 36 3E 1C 
02dc8     1C 3E 36 63 | 	byte	$36, $00, $00, $00, $00, $00, $00, $63, $63, $36, $3e, $1c, $1c, $3e, $36, $63
02dcc     63 00 00 00 
02dd0     00 00 00 66 
02dd4     66 66 66 3C 
02dd8     18 18 18 18 | 	byte	$63, $00, $00, $00, $00, $00, $00, $66, $66, $66, $66, $3c, $18, $18, $18, $18
02ddc     3C 00 00 00 
02de0     00 00 00 7F 
02de4     63 61 30 18 
02de8     0C 06 43 63 | 	byte	$3c, $00, $00, $00, $00, $00, $00, $7f, $63, $61, $30, $18, $0c, $06, $43, $63
02dec     7F 00 00 00 
02df0     00 00 00 3C 
02df4     0C 0C 0C 0C 
02df8     0C 0C 0C 0C | 	byte	$7f, $00, $00, $00, $00, $00, $00, $3c, $0c, $0c, $0c, $0c, $0c, $0c, $0c, $0c
02dfc     3C 00 00 00 
02e00     00 00 00 00 
02e04     01 03 07 0E 
02e08     1C 38 70 60 | 	byte	$3c, $00, $00, $00, $00, $00, $00, $00, $01, $03, $07, $0e, $1c, $38, $70, $60
02e0c     40 00 00 00 
02e10     00 00 00 3C 
02e14     30 30 30 30 
02e18     30 30 30 30 | 	byte	$40, $00, $00, $00, $00, $00, $00, $3c, $30, $30, $30, $30, $30, $30, $30, $30
02e1c     3C 00 00 00 
02e20     1C 36 00 00 
02e24     00 00 00 00 
02e28     00 00 00 00 | 	byte	$3c, $00, $00, $00, $1c, $36, $00, $00, $00, $00, $00, $00, $00, $00, $00, $00
02e2c     00 00 00 00 
02e30     00 00 00 00 
02e34     00 00 00 00 
02e38     00 00 00 00 
02e3c     00          | 	byte	$00[17]
02e3d     FF 00 00 0C 
02e41     18 00 00 00 
02e45     00 00 00 00 
02e49     00 00 00 00 | 	byte	$ff, $00, $00, $0c, $18, $00, $00, $00, $00, $00, $00, $00, $00, $00, $00, $00
02e4d     00 00 00 00 
02e51     00 00 00 00 
02e55     00          | 	byte	$00[9]
02e56     1E 30 3E 33 
02e5a     33 33 6E 00 
02e5e     00 00 00 00 
02e62     00 07 06 06 | 	byte	$1e, $30, $3e, $33, $33, $33, $6e, $00, $00, $00, $00, $00, $00, $07, $06, $06
02e66     1E 36 66 66 
02e6a     66 66 3E 00 
02e6e     00 00 00 00 
02e72     00 00 00 00 | 	byte	$1e, $36, $66, $66, $66, $66, $3e, $00, $00, $00, $00, $00, $00, $00, $00, $00
02e76     3E 63 03 03 
02e7a     03 63 3E 00 
02e7e     00 00 00 00 
02e82     00 38 30 30 | 	byte	$3e, $63, $03, $03, $03, $63, $3e, $00, $00, $00, $00, $00, $00, $38, $30, $30
02e86     3C 36 33 33 
02e8a     33 33 6E 00 
02e8e     00 00 00 00 
02e92     00 00 00 00 | 	byte	$3c, $36, $33, $33, $33, $33, $6e, $00, $00, $00, $00, $00, $00, $00, $00, $00
02e96     3E 63 7F 03 
02e9a     03 63 3E 00 
02e9e     00 00 00 00 
02ea2     00 38 6C 4C | 	byte	$3e, $63, $7f, $03, $03, $63, $3e, $00, $00, $00, $00, $00, $00, $38, $6c, $4c
02ea6     0C 1E 0C 0C 
02eaa     0C 0C 1E 00 
02eae     00 00 00 00 
02eb2     00 00 00 00 | 	byte	$0c, $1e, $0c, $0c, $0c, $0c, $1e, $00, $00, $00, $00, $00, $00, $00, $00, $00
02eb6     6E 33 33 33 
02eba     33 33 3E 30 
02ebe     33 1E 00 00 
02ec2     00 07 06 06 | 	byte	$6e, $33, $33, $33, $33, $33, $3e, $30, $33, $1e, $00, $00, $00, $07, $06, $06
02ec6     36 6E 66 66 
02eca     66 66 67 00 
02ece     00 00 00 00 
02ed2     00 18 18 00 | 	byte	$36, $6e, $66, $66, $66, $66, $67, $00, $00, $00, $00, $00, $00, $18, $18, $00
02ed6     1C 18 18 18 
02eda     18 18 3C 00 
02ede     00 00 00 00 
02ee2     00 60 60 00 | 	byte	$1c, $18, $18, $18, $18, $18, $3c, $00, $00, $00, $00, $00, $00, $60, $60, $00
02ee6     70 60 60 60 
02eea     60 60 60 66 
02eee     66 3C 00 00 
02ef2     00 07 06 06 | 	byte	$70, $60, $60, $60, $60, $60, $60, $66, $66, $3c, $00, $00, $00, $07, $06, $06
02ef6     66 36 1E 1E 
02efa     36 66 67 00 
02efe     00 00 00 00 
02f02     00 1C 18 18 | 	byte	$66, $36, $1e, $1e, $36, $66, $67, $00, $00, $00, $00, $00, $00, $1c, $18, $18
02f06     18 18 18 18 
02f0a     18 18       | 	byte	$18[6]
02f0c     3C 00 00 00 
02f10     00 00 00 00 
02f14     00 00 37 7F 
02f18     6B 6B 6B 6B | 	byte	$3c, $00, $00, $00, $00, $00, $00, $00, $00, $00, $37, $7f, $6b, $6b, $6b, $6b
02f1c     63 00 00 00 
02f20     00 00 00 00 
02f24     00 00 3B 66 
02f28     66 66 66 66 | 	byte	$63, $00, $00, $00, $00, $00, $00, $00, $00, $00, $3b, $66, $66, $66, $66, $66
02f2c     66 00 00 00 
02f30     00 00 00 00 
02f34     00 00 3E 63 
02f38     63 63 63 63 | 	byte	$66, $00, $00, $00, $00, $00, $00, $00, $00, $00, $3e, $63, $63, $63, $63, $63
02f3c     3E 00 00 00 
02f40     00 00 00 00 
02f44     00 00 3B 66 
02f48     66 66 66 66 | 	byte	$3e, $00, $00, $00, $00, $00, $00, $00, $00, $00, $3b, $66, $66, $66, $66, $66
02f4c     3E 06 06 0F 
02f50     00 00 00 00 
02f54     00 00 6E 33 
02f58     33 33 33 33 | 	byte	$3e, $06, $06, $0f, $00, $00, $00, $00, $00, $00, $6e, $33, $33, $33, $33, $33
02f5c     3E 30 30 78 
02f60     00 00 00 00 
02f64     00 00 3B 6E 
02f68     66 06 06 06 | 	byte	$3e, $30, $30, $78, $00, $00, $00, $00, $00, $00, $3b, $6e, $66, $06, $06, $06
02f6c     0F 00 00 00 
02f70     00 00 00 00 
02f74     00 00 3E 63 
02f78     06 1C 30 63 | 	byte	$0f, $00, $00, $00, $00, $00, $00, $00, $00, $00, $3e, $63, $06, $1c, $30, $63
02f7c     3E 00 00 00 
02f80     00 00 00 08 
02f84     0C 0C 3F 0C 
02f88     0C 0C 0C 6C | 	byte	$3e, $00, $00, $00, $00, $00, $00, $08, $0c, $0c, $3f, $0c, $0c, $0c, $0c, $6c
02f8c     38 00 00 00 
02f90     00 00 00 00 
02f94     00 00 33 33 
02f98     33 33 33 33 | 	byte	$38, $00, $00, $00, $00, $00, $00, $00, $00, $00, $33, $33, $33, $33, $33, $33
02f9c     6E 00 00 00 
02fa0     00 00 00 00 
02fa4     00 00 63 63 
02fa8     63 63 63 36 | 	byte	$6e, $00, $00, $00, $00, $00, $00, $00, $00, $00, $63, $63, $63, $63, $63, $36
02fac     1C 00 00 00 
02fb0     00 00 00 00 
02fb4     00 00 63 63 
02fb8     6B 6B 6B 7F | 	byte	$1c, $00, $00, $00, $00, $00, $00, $00, $00, $00, $63, $63, $6b, $6b, $6b, $7f
02fbc     36 00 00 00 
02fc0     00 00 00 00 
02fc4     00 00 63 36 
02fc8     1C 1C 1C 36 | 	byte	$36, $00, $00, $00, $00, $00, $00, $00, $00, $00, $63, $36, $1c, $1c, $1c, $36
02fcc     63 00 00 00 
02fd0     00 00 00 00 
02fd4     00 00 63 63 
02fd8     63 63 63 63 | 	byte	$63, $00, $00, $00, $00, $00, $00, $00, $00, $00, $63, $63, $63, $63, $63, $63
02fdc     7E 60 30 1F 
02fe0     00 00 00 00 
02fe4     00 00 7F 33 
02fe8     18 0C 06 63 | 	byte	$7e, $60, $30, $1f, $00, $00, $00, $00, $00, $00, $7f, $33, $18, $0c, $06, $63
02fec     7F 00 00 00 
02ff0     00 00 00 70 
02ff4     18 18 18 0E 
02ff8     18 18 18 18 | 	byte	$7f, $00, $00, $00, $00, $00, $00, $70, $18, $18, $18, $0e, $18, $18, $18, $18
02ffc     70 00 00 00 
03000     00 00 00 18 
03004     18 18 18 18 
03008     18 18 18 18 | 	byte	$70, $00, $00, $00, $00, $00, $00, $18, $18, $18, $18, $18, $18, $18, $18, $18
0300c     18 00 00 00 
03010     00 00 00 0E 
03014     18 18 18 70 
03018     18 18 18 18 | 	byte	$18, $00, $00, $00, $00, $00, $00, $0e, $18, $18, $18, $70, $18, $18, $18, $18
0301c     0E 00 00 00 
03020     6E 3B 00 00 
03024     00 00 00 00 
03028     00 00 00 00 | 	byte	$0e, $00, $00, $00, $6e, $3b, $00, $00, $00, $00, $00, $00, $00, $00, $00, $00
0302c     00 00 00 00 
03030     00 00 00 00 
03034     00 00       | 	byte	$00[10]
03036     08 1C 36 63 
0303a     63 63 7F 00 
0303e     00 00 00 00 
03042     00 3C 66 43 | 	byte	$08, $1c, $36, $63, $63, $63, $7f, $00, $00, $00, $00, $00, $00, $3c, $66, $43
03046     03 03 03 03 
0304a     43 66 3C 18 
0304e     30 1E 00 00 
03052     00 00 33 00 | 	byte	$03, $03, $03, $03, $43, $66, $3c, $18, $30, $1e, $00, $00, $00, $00, $33, $00
03056     33 33 33 33 
0305a     33 33       | 	byte	$33[6]
0305c     6E 00 00 00 
03060     00 00 60 30 
03064     18 00 3E 63 
03068     7F 03 03 63 | 	byte	$6e, $00, $00, $00, $00, $00, $60, $30, $18, $00, $3e, $63, $7f, $03, $03, $63
0306c     3E 00 00 00 
03070     00 00 08 1C 
03074     36 00 1E 30 
03078     3E 33 33 33 | 	byte	$3e, $00, $00, $00, $00, $00, $08, $1c, $36, $00, $1e, $30, $3e, $33, $33, $33
0307c     6E 00 00 00 
03080     00 00 00 00 
03084     33 00 1E 30 
03088     3E 33 33 33 | 	byte	$6e, $00, $00, $00, $00, $00, $00, $00, $33, $00, $1e, $30, $3e, $33, $33, $33
0308c     6E 00 00 00 
03090     00 00 1C 36 
03094     1C 00 33 33 
03098     33 33 33 33 | 	byte	$6e, $00, $00, $00, $00, $00, $1c, $36, $1c, $00, $33, $33, $33, $33, $33, $33
0309c     6E 00 00 00 
030a0     00 00 60 30 
030a4     18 00 3E 63 
030a8     03 03 03 63 | 	byte	$6e, $00, $00, $00, $00, $00, $60, $30, $18, $00, $3e, $63, $03, $03, $03, $63
030ac     3E 00 00 00 
030b0     00 00 00 00 
030b4     00 00 3E 63 
030b8     03 03 03 63 | 	byte	$3e, $00, $00, $00, $00, $00, $00, $00, $00, $00, $3e, $63, $03, $03, $03, $63
030bc     3E 18 30 1E 
030c0     00 00 00 1C 
030c4     58 78 38 18 
030c8     1C 1E 1A 18 | 	byte	$3e, $18, $30, $1e, $00, $00, $00, $1c, $58, $78, $38, $18, $1c, $1e, $1a, $18
030cc     3C 00 00 00 
030d0     00 00 00 00 
030d4     63 00 3E 63 
030d8     7F 03 03 63 | 	byte	$3c, $00, $00, $00, $00, $00, $00, $00, $63, $00, $3e, $63, $7f, $03, $03, $63
030dc     3E 00 00 00 
030e0     66 33 00 3E 
030e4     63 63 63 63 
030e8     63 63 63 63 | 	byte	$3e, $00, $00, $00, $66, $33, $00, $3e, $63, $63, $63, $63, $63, $63, $63, $63
030ec     3E 00 00 00 
030f0     00 00 CC 66 
030f4     33 00 3E 63 
030f8     63 63 63 63 | 	byte	$3e, $00, $00, $00, $00, $00, $cc, $66, $33, $00, $3e, $63, $63, $63, $63, $63
030fc     3E 00 00 00 
03100     00 00 18 3C 
03104     66 00 1C 18 
03108     18 18 18 18 | 	byte	$3e, $00, $00, $00, $00, $00, $18, $3c, $66, $00, $1c, $18, $18, $18, $18, $18
0310c     3C 00 00 00 
03110     30 18 00 7F 
03114     63 61 30 18 
03118     0C 06 43 63 | 	byte	$3c, $00, $00, $00, $30, $18, $00, $7f, $63, $61, $30, $18, $0c, $06, $43, $63
0311c     7F 00 00 00 
03120     00 63 00 08 
03124     1C 36 63 63 
03128     7F 63 63 63 | 	byte	$7f, $00, $00, $00, $00, $63, $00, $08, $1c, $36, $63, $63, $7f, $63, $63, $63
0312c     63 00 00 00 
03130     30 18 00 3C 
03134     66 43 03 03 
03138     03 03 43 66 | 	byte	$63, $00, $00, $00, $30, $18, $00, $3c, $66, $43, $03, $03, $03, $03, $43, $66
0313c     3C 00 00 00 
03140     30 18 00 7F 
03144     66 46 16 1E 
03148     16 06 46 66 | 	byte	$3c, $00, $00, $00, $30, $18, $00, $7f, $66, $46, $16, $1e, $16, $06, $46, $66
0314c     7F 00 00 00 
03150     0C 06 00 0F 
03154     06 06 06 06 
03158     06 06 46 66 | 	byte	$7f, $00, $00, $00, $0c, $06, $00, $0f, $06, $06, $06, $06, $06, $06, $46, $66
0315c     7F 00 00 00 
03160     30 18 00 1C 
03164     18 18 18 18 
03168     18 18 18 18 | 	byte	$7f, $00, $00, $00, $30, $18, $00, $1c, $18, $18, $18, $18, $18, $18, $18, $18
0316c     3C 00 00 00 
03170     00 00 08 1C 
03174     36 00 3E 63 
03178     63 63 63 63 | 	byte	$3c, $00, $00, $00, $00, $00, $08, $1c, $36, $00, $3e, $63, $63, $63, $63, $63
0317c     3E 00 00 00 
03180     00 00 00 00 
03184     63 00 3E 63 
03188     63 63 63 63 | 	byte	$3e, $00, $00, $00, $00, $00, $00, $00, $63, $00, $3e, $63, $63, $63, $63, $63
0318c     3E 00 00 00 
03190     00 00 00 6F 
03194     46 26 06 06 
03198     06 06 46 66 | 	byte	$3e, $00, $00, $00, $00, $00, $00, $6f, $46, $26, $06, $06, $06, $06, $46, $66
0319c     7F 00 00 00 
031a0     00 00 00 6E 
031a4     4C 2C 0C 0C 
031a8     0C 0C 0C 0C | 	byte	$7f, $00, $00, $00, $00, $00, $00, $6e, $4c, $2c, $0c, $0c, $0c, $0c, $0c, $0c
031ac     1E 00 00 00 
031b0     30 18 00 3E 
031b4     63 63 06 1C 
031b8     30 60 63 63 | 	byte	$1e, $00, $00, $00, $30, $18, $00, $3e, $63, $63, $06, $1c, $30, $60, $63, $63
031bc     3E 00 00 00 
031c0     00 00 60 30 
031c4     18 00 3E 63 
031c8     06 1C 30 63 | 	byte	$3e, $00, $00, $00, $00, $00, $60, $30, $18, $00, $3e, $63, $06, $1c, $30, $63
031cc     3E 00 00 00 
031d0     00 63 00 3E 
031d4     63 63 63 63 
031d8     63 63 63 63 | 	byte	$3e, $00, $00, $00, $00, $63, $00, $3e, $63, $63, $63, $63, $63, $63, $63, $63
031dc     3E 00 00 00 
031e0     00 63 00 63 
031e4     63 63 63 63 
031e8     63 63 63 63 | 	byte	$3e, $00, $00, $00, $00, $63, $00, $63, $63, $63, $63, $63, $63, $63, $63, $63
031ec     3E 00 00 00 
031f0     6C 38 00 7E 
031f4     7E 5A 18 18 
031f8     18 18 18 18 | 	byte	$3e, $00, $00, $00, $6c, $38, $00, $7e, $7e, $5a, $18, $18, $18, $18, $18, $18
031fc     3C 00 00 00 
03200     00 00 60 48 
03204     2C 0C 3F 0C 
03208     0C 0C 0C 6C | 	byte	$3c, $00, $00, $00, $00, $00, $60, $48, $2c, $0c, $3f, $0c, $0c, $0c, $0c, $6c
0320c     38 00 00 00 
03210     00 00 00 0F 
03214     26 36 1E 0E 
03218     07 07 46 66 | 	byte	$38, $00, $00, $00, $00, $00, $00, $0f, $26, $36, $1e, $0e, $07, $07, $46, $66
0321c     7F 00 00 00 
03220     00 00 00 00 
03224     00 63 36 1C 
03228     1C 36 63 00 | 	byte	$7f, $00, $00, $00, $00, $00, $00, $00, $00, $63, $36, $1c, $1c, $36, $63, $00
0322c     00 00 00 00 
03230     00 00       | 	byte	$00[6]
03232     36 1C 08 00 
03236     3E 63 03 03 
0323a     03 63 3E 00 
0323e     00 00 00 00 | 	byte	$36, $1c, $08, $00, $3e, $63, $03, $03, $03, $63, $3e, $00, $00, $00, $00, $00
03242     30 18 0C 00 
03246     1E 30 3E 33 
0324a     33 33 6E 00 
0324e     00 00 00 00 | 	byte	$30, $18, $0c, $00, $1e, $30, $3e, $33, $33, $33, $6e, $00, $00, $00, $00, $00
03252     60 30 18 00 
03256     1C 18 18 18 
0325a     18 18 3C 00 
0325e     00 00 00 00 | 	byte	$60, $30, $18, $00, $1c, $18, $18, $18, $18, $18, $3c, $00, $00, $00, $00, $00
03262     60 30 18 00 
03266     3E 63 63 63 
0326a     63 63 3E 00 
0326e     00 00 00 00 | 	byte	$60, $30, $18, $00, $3e, $63, $63, $63, $63, $63, $3e, $00, $00, $00, $00, $00
03272     30 18 0C 00 
03276     33 33 33 33 
0327a     33 33 6E 00 
0327e     00 00 00 00 | 	byte	$30, $18, $0c, $00, $33, $33, $33, $33, $33, $33, $6e, $00, $00, $00, $00, $00
03282     00 08 1C 36 
03286     63 63 7F 63 
0328a     63 63 63 18 
0328e     0C 78 00 00 | 	byte	$00, $08, $1c, $36, $63, $63, $7f, $63, $63, $63, $63, $18, $0c, $78, $00, $00
03292     00 00 00 00 
03296     1E 30 3E 33 
0329a     33 33 6E 18 
0329e     0C 78 36 1C | 	byte	$00, $00, $00, $00, $1e, $30, $3e, $33, $33, $33, $6e, $18, $0c, $78, $36, $1c
032a2     00 7F 63 61 
032a6     30 18 0C 06 
032aa     43 63 7F 00 
032ae     00 00 00 00 | 	byte	$00, $7f, $63, $61, $30, $18, $0c, $06, $43, $63, $7f, $00, $00, $00, $00, $00
032b2     36 1C 08 00 
032b6     7F 33 18 0C 
032ba     06 63 7F 00 
032be     00 00 00 00 | 	byte	$36, $1c, $08, $00, $7f, $33, $18, $0c, $06, $63, $7f, $00, $00, $00, $00, $00
032c2     00 7F 66 46 
032c6     16 1E 16 06 
032ca     46 66 7F 18 
032ce     0C 78 00 00 | 	byte	$00, $7f, $66, $46, $16, $1e, $16, $06, $46, $66, $7f, $18, $0c, $78, $00, $00
032d2     00 00 00 00 
032d6     3E 63 7F 03 
032da     03 63 3E 18 
032de     0C 78 00 00 | 	byte	$00, $00, $00, $00, $3e, $63, $7f, $03, $03, $63, $3e, $18, $0c, $78, $00, $00
032e2     00 3C 66 03 
032e6     1F 03 0F 03 
032ea     03 66 3C 00 
032ee     00 00 00 00 | 	byte	$00, $3c, $66, $03, $1f, $03, $0f, $03, $03, $66, $3c, $00, $00, $00, $00, $00
032f2     60 30 18 00 
032f6     7F 33 18 0C 
032fa     06 63 7F 00 
032fe     00 00 6C 38 | 	byte	$60, $30, $18, $00, $7f, $33, $18, $0c, $06, $63, $7f, $00, $00, $00, $6c, $38
03302     00 3C 66 43 
03306     03 03 03 03 
0330a     43 66 3C 00 
0330e     00 00 00 00 | 	byte	$00, $3c, $66, $43, $03, $03, $03, $03, $43, $66, $3c, $00, $00, $00, $00, $00
03312     00 00 00 00 
03316     3E 63 06 1C 
0331a     30 63 3E 18 
0331e     30 1E 00 00 | 	byte	$00, $00, $00, $00, $3e, $63, $06, $1c, $30, $63, $3e, $18, $30, $1e, $00, $00
03322     00 00 00 00 
03326     00 00       | 	byte	$00[6]
03328     6C 36 1B 36 
0332c     6C 00 00 00 
03330     00 00 00 00 
03334     00 00 00 00 | 	byte	$6c, $36, $1b, $36, $6c, $00, $00, $00, $00, $00, $00, $00, $00, $00, $00, $00
03338     1B 36 6C 36 
0333c     1B 00 00 00 
03340     88 22 88 22 
03344     88 22 88 22 | 	byte	$1b, $36, $6c, $36, $1b, $00, $00, $00, $88, $22, $88, $22, $88, $22, $88, $22
03348     88 22 88 22 
0334c     88 22 88 22 
03350     AA 55 AA 55 
03354     AA 55 AA 55 | 	byte	$88, $22, $88, $22, $88, $22, $88, $22, $aa, $55, $aa, $55, $aa, $55, $aa, $55
03358     AA 55 AA 55 
0335c     AA 55 AA 55 
03360     BB EE BB EE 
03364     BB EE BB EE | 	byte	$aa, $55, $aa, $55, $aa, $55, $aa, $55, $bb, $ee, $bb, $ee, $bb, $ee, $bb, $ee
03368     BB EE BB EE 
0336c     BB EE BB EE 
03370     18 18 18 18 
03374     18 18 18 18 | 	byte	$bb, $ee, $bb, $ee, $bb, $ee, $bb, $ee, $18, $18, $18, $18, $18, $18, $18, $18
03378     18 18 18 18 
0337c     18 18 18 18 
03380     18 18 18 18 
03384     18 18 18    | 	byte	$18[15]
03387     1F 18 18 18 
0338b     18 18 18 18 
0338f     18 30 18 00 
03393     08 1C 36 63 | 	byte	$1f, $18, $18, $18, $18, $18, $18, $18, $18, $30, $18, $00, $08, $1c, $36, $63
03397     63 7F 63 63 
0339b     63 63 00 00 
0339f     00 1C 36 00 
033a3     08 1C 36 63 | 	byte	$63, $7f, $63, $63, $63, $63, $00, $00, $00, $1c, $36, $00, $08, $1c, $36, $63
033a7     63 7F 63 63 
033ab     63 63 00 00 
033af     00 36 1C 00 
033b3     7F 66 46 16 | 	byte	$63, $7f, $63, $63, $63, $63, $00, $00, $00, $36, $1c, $00, $7f, $66, $46, $16
033b7     1E 16 06 46 
033bb     66 7F 00 00 
033bf     00 00 00 00 
033c3     3E 63 63 06 | 	byte	$1e, $16, $06, $46, $66, $7f, $00, $00, $00, $00, $00, $00, $3e, $63, $63, $06
033c7     1C 30 60 63 
033cb     63 3E 18 30 
033cf     1E 6C 6C 6C 
033d3     6C 6C 6F 60 | 	byte	$1c, $30, $60, $63, $63, $3e, $18, $30, $1e, $6c, $6c, $6c, $6c, $6c, $6f, $60
033d7     6F 6C 6C 6C 
033db     6C 6C 6C 6C 
033df     6C 6C 6C 6C 
033e3     6C 6C 6C 6C | 	byte	$6f, $6c, $6c, $6c, $6c, $6c, $6c, $6c, $6c, $6c, $6c, $6c, $6c, $6c, $6c, $6c
033e7     6C 6C 6C 6C 
033eb     6C 6C 6C 6C 
033ef     6C          | 	byte	$6c[9]
033f0     00 00 00 00 
033f4     00          | 	byte	$00[5]
033f5     7F 60 6F 6C 
033f9     6C 6C 6C 6C 
033fd     6C 6C 6C 6C 
03401     6C 6C 6C 6C | 	byte	$7f, $60, $6f, $6c, $6c, $6c, $6c, $6c, $6c, $6c, $6c, $6c, $6c, $6c, $6c, $6c
03405     6F 60 7F 00 
03409     00 00 00 00 
0340d     00 00 00 18 
03411     18 00 7F 63 | 	byte	$6f, $60, $7f, $00, $00, $00, $00, $00, $00, $00, $00, $18, $18, $00, $7f, $63
03415     61 30 18 0C 
03419     06 43 63 7F 
0341d     00 00 00 00 
03421     00 00 18 18 | 	byte	$61, $30, $18, $0c, $06, $43, $63, $7f, $00, $00, $00, $00, $00, $00, $18, $18
03425     00 7F 33 18 
03429     0C 06 63 7F 
0342d     00 00 00 00 
03431     00 00 00 00 | 	byte	$00, $7f, $33, $18, $0c, $06, $63, $7f, $00, $00, $00, $00, $00, $00, $00, $00
03435     00 00 1F 18 
03439     18 18 18 18 
0343d     18 18 18 18 
03441     18 18 18 18 | 	byte	$00, $00, $1f, $18, $18, $18, $18, $18, $18, $18, $18, $18, $18, $18, $18, $18
03445     18 18 F8 00 
03449     00 00 00 00 
0344d     00 00 00 18 
03451     18 18 18 18 | 	byte	$18, $18, $f8, $00, $00, $00, $00, $00, $00, $00, $00, $18, $18, $18, $18, $18
03455     18 18 FF 00 
03459     00 00 00 00 
0345d     00 00 00 00 
03461     00 00 00 00 | 	byte	$18, $18, $ff, $00, $00, $00, $00, $00, $00, $00, $00, $00, $00, $00, $00, $00
03465     00 00 FF 18 
03469     18 18 18 18 
0346d     18 18 18 18 
03471     18 18 18 18 | 	byte	$00, $00, $ff, $18, $18, $18, $18, $18, $18, $18, $18, $18, $18, $18, $18, $18
03475     18 18 F8 18 
03479     18 18 18 18 
0347d     18 18 18 00 
03481     00 00 00 00 | 	byte	$18, $18, $f8, $18, $18, $18, $18, $18, $18, $18, $18, $00, $00, $00, $00, $00
03485     00 00 FF 00 
03489     00 00 00 00 
0348d     00 00 00 18 
03491     18 18 18 18 | 	byte	$00, $00, $ff, $00, $00, $00, $00, $00, $00, $00, $00, $18, $18, $18, $18, $18
03495     18 18 FF 18 
03499     18 18 18 18 
0349d     18 18 18 63 
034a1     3E 00 08 1C | 	byte	$18, $18, $ff, $18, $18, $18, $18, $18, $18, $18, $18, $63, $3e, $00, $08, $1c
034a5     36 63 63 7F 
034a9     63 63 63 63 
034ad     00 00 00 00 
034b1     00 00 63 3E | 	byte	$36, $63, $63, $7f, $63, $63, $63, $63, $00, $00, $00, $00, $00, $00, $63, $3e
034b5     00 1E 30 3E 
034b9     33 33 33 6E 
034bd     00 00 00 6C 
034c1     6C 6C 6C 6C | 	byte	$00, $1e, $30, $3e, $33, $33, $33, $6e, $00, $00, $00, $6c, $6c, $6c, $6c, $6c
034c5     EC 0C FC 00 
034c9     00 00 00 00 
034cd     00 00 00 00 
034d1     00 00 00 00 | 	byte	$ec, $0c, $fc, $00, $00, $00, $00, $00, $00, $00, $00, $00, $00, $00, $00, $00
034d5     FC 0C EC 6C 
034d9     6C 6C 6C 6C 
034dd     6C 6C 6C 6C 
034e1     6C 6C 6C 6C | 	byte	$fc, $0c, $ec, $6c, $6c, $6c, $6c, $6c, $6c, $6c, $6c, $6c, $6c, $6c, $6c, $6c
034e5     EF 00 FF 00 
034e9     00 00 00 00 
034ed     00 00 00 00 
034f1     00 00 00 00 | 	byte	$ef, $00, $ff, $00, $00, $00, $00, $00, $00, $00, $00, $00, $00, $00, $00, $00
034f5     FF 00 EF 6C 
034f9     6C 6C 6C 6C 
034fd     6C 6C 6C 6C 
03501     6C 6C 6C 6C | 	byte	$ff, $00, $ef, $6c, $6c, $6c, $6c, $6c, $6c, $6c, $6c, $6c, $6c, $6c, $6c, $6c
03505     EC 0C EC 6C 
03509     6C 6C 6C 6C 
0350d     6C 6C 6C 00 
03511     00 00 00 00 | 	byte	$ec, $0c, $ec, $6c, $6c, $6c, $6c, $6c, $6c, $6c, $6c, $00, $00, $00, $00, $00
03515     FF 00 FF 00 
03519     00 00 00 00 
0351d     00 00 00 6C 
03521     6C 6C 6C 6C | 	byte	$ff, $00, $ff, $00, $00, $00, $00, $00, $00, $00, $00, $6c, $6c, $6c, $6c, $6c
03525     EF 00 EF 6C 
03529     6C 6C 6C 6C 
0352d     6C 6C 6C 00 
03531     00 00 00 00 | 	byte	$ef, $00, $ef, $6c, $6c, $6c, $6c, $6c, $6c, $6c, $6c, $00, $00, $00, $00, $00
03535     63 3E 63 63 
03539     63 63 3E 63 
0353d     00 00 00 00 
03541     00 00 30 7E | 	byte	$63, $3e, $63, $63, $63, $63, $3e, $63, $00, $00, $00, $00, $00, $00, $30, $7e
03545     30 3C 36 33 
03549     33 33 33 6E 
0354d     00 00 00 00 
03551     00 00 1F 36 | 	byte	$30, $3c, $36, $33, $33, $33, $33, $6e, $00, $00, $00, $00, $00, $00, $1f, $36
03555     66 66 6F 66 
03559     66 66 36 1F 
0355d     00 00 00 36 
03561     1C 00 1F 36 | 	byte	$66, $66, $6f, $66, $66, $66, $36, $1f, $00, $00, $00, $36, $1c, $00, $1f, $36
03565     66 66 66 66 
03569     66 66       | 	byte	$66[6]
0356b     36 1F 00 00 
0356f     00 00 63 00 
03573     7F 66 46 16 
03577     1E 16 06 46 | 	byte	$36, $1f, $00, $00, $00, $00, $63, $00, $7f, $66, $46, $16, $1e, $16, $06, $46
0357b     66 7F 00 00 
0357f     00 6C 38 00 
03583     38 30 30 3C 
03587     36 33 33 33 | 	byte	$66, $7f, $00, $00, $00, $6c, $38, $00, $38, $30, $30, $3c, $36, $33, $33, $33
0358b     33 6E 00 00 
0358f     00 36 1C 00 
03593     63 67 6F 7F 
03597     7B 73 63 63 | 	byte	$33, $6e, $00, $00, $00, $36, $1c, $00, $63, $67, $6f, $7f, $7b, $73, $63, $63
0359b     63 63 00 00 
0359f     00 30 18 00 
035a3     3C 18 18 18 
035a7     18 18 18 18 | 	byte	$63, $63, $00, $00, $00, $30, $18, $00, $3c, $18, $18, $18, $18, $18, $18, $18
035ab     18 3C 00 00 
035af     00 3C 66 00 
035b3     3C 18 18 18 
035b7     18 18 18 18 | 	byte	$18, $3c, $00, $00, $00, $3c, $66, $00, $3c, $18, $18, $18, $18, $18, $18, $18
035bb     18 3C 00 00 
035bf     00 00 00 36 
035c3     1C 08 00 3E 
035c7     63 7F 03 03 | 	byte	$18, $3c, $00, $00, $00, $00, $00, $36, $1c, $08, $00, $3e, $63, $7f, $03, $03
035cb     63 3E 00 00 
035cf     00 18 18 18 
035d3     18 18 18 18 
035d7     1F 00 00 00 | 	byte	$63, $3e, $00, $00, $00, $18, $18, $18, $18, $18, $18, $18, $1f, $00, $00, $00
035db     00 00 00 00 
035df     00 00 00 00 
035e3     00 00 00 00 | 	byte	$00[12]
035e7     F8 18 18 18 
035eb     18 18 18 18 
035ef     18 FF FF FF 
035f3     FF FF FF FF | 	byte	$f8, $18, $18, $18, $18, $18, $18, $18, $18, $ff, $ff, $ff, $ff, $ff, $ff, $ff
035f7     FF FF FF FF 
035fb     FF FF FF FF 
035ff     FF          | 	byte	$ff[9]
03600     00 00 00 00 
03604     00 00 00    | 	byte	$00[7]
03607     FF FF FF FF 
0360b     FF FF FF FF 
0360f     FF          | 	byte	$ff[9]
03610     00 00 00 7E 
03614     7E 5A 18 18 
03618     18 18 18 18 
0361c     3C 18 30 1E | 	byte	$00, $00, $00, $7e, $7e, $5a, $18, $18, $18, $18, $18, $18, $3c, $18, $30, $1e
03620     1C 36 1C 63 
03624     63 63 63 63 
03628     63 63 63 63 
0362c     3E 00 00 00 | 	byte	$1c, $36, $1c, $63, $63, $63, $63, $63, $63, $63, $63, $63, $3e, $00, $00, $00
03630     FF FF FF FF 
03634     FF FF FF    | 	byte	$ff[7]
03637     00 00 00 00 
0363b     00 00 00 00 
0363f     00          | 	byte	$00[9]
03640     30 18 00 3E 
03644     63 63 63 63 
03648     63 63 63 63 
0364c     3E 00 00 00 | 	byte	$30, $18, $00, $3e, $63, $63, $63, $63, $63, $63, $63, $63, $3e, $00, $00, $00
03650     00 00 00 1E 
03654     33 33 33 1B 
03658     33 63 63 63 
0365c     33 00 00 00 | 	byte	$00, $00, $00, $1e, $33, $33, $33, $1b, $33, $63, $63, $63, $33, $00, $00, $00
03660     1C 36 00 3E 
03664     63 63 63 63 
03668     63 63 63 63 
0366c     3E 00 00 00 | 	byte	$1c, $36, $00, $3e, $63, $63, $63, $63, $63, $63, $63, $63, $3e, $00, $00, $00
03670     30 18 00 63 
03674     67 6F 7F 7B 
03678     73 63 63 63 
0367c     63 00 00 00 | 	byte	$30, $18, $00, $63, $67, $6f, $7f, $7b, $73, $63, $63, $63, $63, $00, $00, $00
03680     00 00 60 30 
03684     18 00 3B 66 
03688     66 66 66 66 
0368c     66 00 00 00 | 	byte	$00, $00, $60, $30, $18, $00, $3b, $66, $66, $66, $66, $66, $66, $00, $00, $00
03690     00 00 36 1C 
03694     08 00 3B 66 
03698     66 66 66 66 
0369c     66 00 00 00 | 	byte	$00, $00, $36, $1c, $08, $00, $3b, $66, $66, $66, $66, $66, $66, $00, $00, $00
036a0     36 1C 00 3E 
036a4     63 63 06 1C 
036a8     30 60 63 63 
036ac     3E 00 00 00 | 	byte	$36, $1c, $00, $3e, $63, $63, $06, $1c, $30, $60, $63, $63, $3e, $00, $00, $00
036b0     00 00 36 1C 
036b4     08 00 3E 63 
036b8     06 1C 30 63 
036bc     3E 00 00 00 | 	byte	$00, $00, $36, $1c, $08, $00, $3e, $63, $06, $1c, $30, $63, $3e, $00, $00, $00
036c0     30 18 00 3F 
036c4     66 66 66 3E 
036c8     36 66 66 66 
036cc     6F 00 00 00 | 	byte	$30, $18, $00, $3f, $66, $66, $66, $3e, $36, $66, $66, $66, $6f, $00, $00, $00
036d0     30 18 00 63 
036d4     63 63 63 63 
036d8     63 63 63 63 
036dc     3E 00 00 00 | 	byte	$30, $18, $00, $63, $63, $63, $63, $63, $63, $63, $63, $63, $3e, $00, $00, $00
036e0     00 00 60 30 
036e4     18 00 3B 6E 
036e8     66 06 06 06 
036ec     0F 00 00 00 | 	byte	$00, $00, $60, $30, $18, $00, $3b, $6e, $66, $06, $06, $06, $0f, $00, $00, $00
036f0     66 33 00 63 
036f4     63 63 63 63 
036f8     63 63 63 63 
036fc     3E 00 00 00 | 	byte	$66, $33, $00, $63, $63, $63, $63, $63, $63, $63, $63, $63, $3e, $00, $00, $00
03700     00 00 60 30 
03704     18 00 63 63 
03708     63 63 63 63 
0370c     7E 60 30 1F | 	byte	$00, $00, $60, $30, $18, $00, $63, $63, $63, $63, $63, $63, $7e, $60, $30, $1f
03710     30 18 00 66 
03714     66 66 66 3C 
03718     18 18 18 18 
0371c     3C 00 00 00 | 	byte	$30, $18, $00, $66, $66, $66, $66, $3c, $18, $18, $18, $18, $3c, $00, $00, $00
03720     00 00 00 08 
03724     0C 0C 3F 0C 
03728     0C 0C 0C 6C 
0372c     38 18 30 1E | 	byte	$00, $00, $00, $08, $0c, $0c, $3f, $0c, $0c, $0c, $0c, $6c, $38, $18, $30, $1e
03730     30 18 00 00 
03734     00 00 00 00 
03738     00 00 00 00 
0373c     00 00 00 00 | 	byte	$30, $18, $00, $00, $00, $00, $00, $00, $00, $00, $00, $00, $00, $00, $00, $00
03740     00 00 00 00 
03744     00 00 00 00 | 	byte	$00[8]
03748     7F 00 00 00 
0374c     00 00 00 00 
03750     66 33 00 00 
03754     00 00 00 00 | 	byte	$7f, $00, $00, $00, $00, $00, $00, $00, $66, $33, $00, $00, $00, $00, $00, $00
03758     00 00 00 00 
0375c     00 00 00 00 
03760     00 00 00 00 
03764     00 00 00 00 
03768     00 00 00 00 
0376c     00          | 	byte	$00[21]
0376d     0C 06 3C 36 
03771     1C 00 00 00 
03775     00 00 00 00 
03779     00 00 00 00 | 	byte	$0c, $06, $3c, $36, $1c, $00, $00, $00, $00, $00, $00, $00, $00, $00, $00, $00
0377d     00 00 00 63 
03781     3E 00 00 00 
03785     00 00 00 00 
03789     00 00 00 00 | 	byte	$00, $00, $00, $63, $3e, $00, $00, $00, $00, $00, $00, $00, $00, $00, $00, $00
0378d     00 00 00 00 
03791     3E 63 06 1C 
03795     36 63 63 36 
03799     1C 30 63 3E | 	byte	$00, $00, $00, $00, $3e, $63, $06, $1c, $36, $63, $63, $36, $1c, $30, $63, $3e
0379d     00 00 00 00 
037a1     00 00 00 00 | 	byte	$00[8]
037a5     18 00 7E 00 
037a9     18 00 00 00 
037ad     00 00 00 00 
037b1     00 00 00 00 | 	byte	$18, $00, $7e, $00, $18, $00, $00, $00, $00, $00, $00, $00, $00, $00, $00, $00
037b5     00 00 00 00 
037b9     00 00 00 00 | 	byte	$00[8]
037bd     18 30 1E 00 
037c1     00 00 1C 36 
037c5     36 1C 00 00 
037c9     00 00 00 00 | 	byte	$18, $30, $1e, $00, $00, $00, $1c, $36, $36, $1c, $00, $00, $00, $00, $00, $00
037cd     00 00 00 00 
037d1     63 00 00 00 
037d5     00 00 00 00 
037d9     00 00 00 00 | 	byte	$00, $00, $00, $00, $63, $00, $00, $00, $00, $00, $00, $00, $00, $00, $00, $00
037dd     00 00 00 18 
037e1     18 00 00 00 
037e5     00 00 00 00 
037e9     00 00 00 00 | 	byte	$00, $00, $00, $18, $18, $00, $00, $00, $00, $00, $00, $00, $00, $00, $00, $00
037ed     00 00 00 00 
037f1     00          | 	byte	$00[5]
037f2     CC 66 33 00 
037f6     33 33 33 33 
037fa     33 33 6E 00 
037fe     00 00 36 1C | 	byte	$cc, $66, $33, $00, $33, $33, $33, $33, $33, $33, $6e, $00, $00, $00, $36, $1c
03802     00 3F 66 66 
03806     66 3E 36 66 
0380a     66 66 6F 00 
0380e     00 00 00 00 | 	byte	$00, $3f, $66, $66, $66, $3e, $36, $66, $66, $66, $6f, $00, $00, $00, $00, $00
03812     36 1C 08 00 
03816     3B 6E 66 06 
0381a     06 06 0F 00 
0381e     00 00 00 00 | 	byte	$36, $1c, $08, $00, $3b, $6e, $66, $06, $06, $06, $0f, $00, $00, $00, $00, $00
03822     00 00 00 7E 
03826     7E 7E 7E 7E 
0382a     7E 7E 00 00 
0382e     00 00 00 00 | 	byte	$00, $00, $00, $7e, $7e, $7e, $7e, $7e, $7e, $7e, $00, $00, $00, $00, $00, $00
03832     00 00 00 00 
03836     00 00 00 00 
0383a     00 00 00 00 
0383e     00 00       | 	byte	$00, $00, $00, $00, $00, $00, $00, $00, $00, $00, $00, $00, $00, $00
03840     00 00 00 00 
      ...             
03870     00 00 00 00 
03874     00 00 00    | st_font        file "st4font.def"
03877     FF FF 00 00 
0387b     00 00 00 00 
0387f     00 18 18 18 
03883     18 18 18 18 | 	byte	$ff, $ff, $00, $00, $00, $00, $00, $00, $00, $18, $18, $18, $18, $18, $18, $18
03887     18 18 18 18 
0388b     18 18 18 18 
0388f     18          | 	byte	$18[9]
03890     00 00 00 00 
03894     00 00 00    | 	byte	$00[7]
03897     FF FF 18 18 
0389b     18 18 18 18 
0389f     18 18 18 18 
038a3     18 18 18 18 | 	byte	$ff, $ff, $18, $18, $18, $18, $18, $18, $18, $18, $18, $18, $18, $18, $18, $18
038a7     FF FF 00 00 
038ab     00 00 00 00 
038af     00 18 18 18 
038b3     18 18 18 18 | 	byte	$ff, $ff, $00, $00, $00, $00, $00, $00, $00, $18, $18, $18, $18, $18, $18, $18
038b7     1F 1F 18 18 
038bb     18 18 18 18 
038bf     18 18 18 18 
038c3     18 18 18 18 | 	byte	$1f, $1f, $18, $18, $18, $18, $18, $18, $18, $18, $18, $18, $18, $18, $18, $18
038c7     F8 F8 18 18 
038cb     18 18 18 18 
038cf     18 00 00 00 
038d3     00 00 00 00 | 	byte	$f8, $f8, $18, $18, $18, $18, $18, $18, $18, $00, $00, $00, $00, $00, $00, $00
038d7     1F 1F 18 18 
038db     18 18 18 18 
038df     18 00 00 00 
038e3     00 00 00 00 | 	byte	$1f, $1f, $18, $18, $18, $18, $18, $18, $18, $00, $00, $00, $00, $00, $00, $00
038e7     F8 F8 18 18 
038eb     18 18 18 18 
038ef     18 18 18 18 
038f3     18 18 18 18 | 	byte	$f8, $f8, $18, $18, $18, $18, $18, $18, $18, $18, $18, $18, $18, $18, $18, $18
038f7     1F 1F 00 00 
038fb     00 00 00 00 
038ff     00 18 18 18 
03903     18 18 18 18 | 	byte	$1f, $1f, $00, $00, $00, $00, $00, $00, $00, $18, $18, $18, $18, $18, $18, $18
03907     F8 F8 00 00 
0390b     00 00 00 00 
0390f     00 18 18 18 
03913     18 18 18 18 | 	byte	$f8, $f8, $00, $00, $00, $00, $00, $00, $00, $18, $18, $18, $18, $18, $18, $18
03917     FF FF 18 18 
0391b     18 18 18 18 
0391f     18 00 00 18 
03923     3C 7E 66 66 | 	byte	$ff, $ff, $18, $18, $18, $18, $18, $18, $18, $00, $00, $18, $3c, $7e, $66, $66
03927     66 7E 7E 66 
0392b     66 66 66 30 
0392f     18 00 00 7E 
03933     7E 06 06 3E | 	byte	$66, $7e, $7e, $66, $66, $66, $66, $30, $18, $00, $00, $7e, $7e, $06, $06, $3e
03937     3E 06 06 06 
0393b     06 7E 7E 18 
0393f     0C 30 18 3C 
03943     7E 66 66 06 | 	byte	$3e, $06, $06, $06, $06, $7e, $7e, $18, $0c, $30, $18, $3c, $7e, $66, $66, $06
03947     06 06 06 66 
0394b     66 7E 3C 00 
0394f     00 30 18 66 
03953     66 66 6E 6E | 	byte	$06, $06, $06, $66, $66, $7e, $3c, $00, $00, $30, $18, $66, $66, $66, $6e, $6e
03957     7E 7E 76 76 
0395b     66 66 66 00 
0395f     00 30 18 7C 
03963     7E 06 06 0E | 	byte	$7e, $7e, $76, $76, $66, $66, $66, $00, $00, $30, $18, $7c, $7e, $06, $06, $0e
03967     1C 38 70 60 
0396b     60 7E 3E 00 
0396f     00 30 18 7E 
03973     7E 30 30 18 | 	byte	$1c, $38, $70, $60, $60, $7e, $3e, $00, $00, $30, $18, $7e, $7e, $30, $30, $18
03977     18 0C 0C 06 
0397b     06 7E 7E 00 
0397f     00 18 18 00 
03983     7E 7E 30 30 | 	byte	$18, $0c, $0c, $06, $06, $7e, $7e, $00, $00, $18, $18, $00, $7e, $7e, $30, $30
03987     18 18 0C 0C 
0398b     06 7E 7E 00 
0398f     00 30 18 3C 
03993     7E 66 66 66 | 	byte	$18, $18, $0c, $0c, $06, $7e, $7e, $00, $00, $30, $18, $3c, $7e, $66, $66, $66
03997     66 66 66 66 
0399b     66          | 	byte	$66[5]
0399c     7E 3C 00 00 
039a0     00 00 06 06 
039a4     06 06 16 1E 
039a8     0E 06 06 06 | 	byte	$7e, $3c, $00, $00, $00, $00, $06, $06, $06, $06, $16, $1e, $0e, $06, $06, $06
039ac     7E 7E 00 00 
039b0     00 00 00 00 
039b4     00 3C 7C 60 
039b8     7C 7E 66 66 | 	byte	$7e, $7e, $00, $00, $00, $00, $00, $00, $00, $3c, $7c, $60, $7c, $7e, $66, $66
039bc     7E 7C 30 18 
039c0     00 00 00 00 
039c4     00 3C 7E 66 
039c8     66 7E 06 06 | 	byte	$7e, $7c, $30, $18, $00, $00, $00, $00, $00, $3c, $7e, $66, $66, $7e, $06, $06
039cc     7E 7C 18 0C 
039d0     00 00 30 18 
039d4     00 3C 3E 06 
039d8     06 06 06 06 | 	byte	$7e, $7c, $18, $0c, $00, $00, $30, $18, $00, $3c, $3e, $06, $06, $06, $06, $06
039dc     7E 7C 00 00 
039e0     00 00 30 18 
039e4     00 3E 7E 66 
039e8     66 66 66 66 | 	byte	$7e, $7c, $00, $00, $00, $00, $30, $18, $00, $3e, $7e, $66, $66, $66, $66, $66
039ec     66 66 00 00 
039f0     00 00 30 18 
039f4     00 7C 7E 06 
039f8     0E 3C 70 60 | 	byte	$66, $66, $00, $00, $00, $00, $30, $18, $00, $7c, $7e, $06, $0e, $3c, $70, $60
039fc     7E 3E 00 00 
03a00     00 00 30 18 
03a04     00 7E 7E 30 
03a08     18 18 0C 0C | 	byte	$7e, $3e, $00, $00, $00, $00, $30, $18, $00, $7e, $7e, $30, $18, $18, $0c, $0c
03a0c     7E 7E 00 00 
03a10     00 00 18 18 
03a14     00 7E 7E 30 
03a18     18 18 0C 0C | 	byte	$7e, $7e, $00, $00, $00, $00, $18, $18, $00, $7e, $7e, $30, $18, $18, $0c, $0c
03a1c     7E 7E 00 00 
03a20     00 00 30 18 
03a24     00 3C 7E 66 
03a28     66 66 66 66 | 	byte	$7e, $7e, $00, $00, $00, $00, $30, $18, $00, $3c, $7e, $66, $66, $66, $66, $66
03a2c     7E 3C 00 00 
03a30     00 00 1C 1C 
03a34     18 18 38 3C 
03a38     1C 18 18 18 | 	byte	$7e, $3c, $00, $00, $00, $00, $1c, $1c, $18, $18, $38, $3c, $1c, $18, $18, $18
03a3c     3C 3C 00 00 
03a40     00 00 00 00 
03a44     00 00 00 00 
03a48     00 00 00 00 | 	byte	$3c, $3c, $00, $00, $00, $00, $00, $00, $00, $00, $00, $00, $00, $00, $00, $00
03a4c     00 00 00 00 
03a50     00 00       | 	byte	$00[6]
03a52     18 18 18 18 
03a56     18 18 18 18 | 	byte	$18[8]
03a5a     00 00 18 18 
03a5e     00 00 00 00 
03a62     66 66 66 66 
03a66     00 00 00 00 | 	byte	$00, $00, $18, $18, $00, $00, $00, $00, $66, $66, $66, $66, $00, $00, $00, $00
03a6a     00 00 00 00 
03a6e     00 00 00 00 
03a72     00          | 	byte	$00[9]
03a73     66 66 FF FF 
03a77     66 66 FF FF 
03a7b     66 66 00 00 
03a7f     00 00 18 18 | 	byte	$66, $66, $ff, $ff, $66, $66, $ff, $ff, $66, $66, $00, $00, $00, $00, $18, $18
03a83     7C 7E 06 06 
03a87     3E 7C 60 60 
03a8b     7E 3E 18 18 
03a8f     00 00 00 66 | 	byte	$7c, $7e, $06, $06, $3e, $7c, $60, $60, $7e, $3e, $18, $18, $00, $00, $00, $66
03a93     66 30 30 18 
03a97     18 0C 0C 66 
03a9b     66 00 00 00 
03a9f     00 00 3C 7E | 	byte	$66, $30, $30, $18, $18, $0c, $0c, $66, $66, $00, $00, $00, $00, $00, $3c, $7e
03aa3     66 66 3C 1C 
03aa7     1C FC FE 66 
03aab     66 FE FC 00 
03aaf     00 00 00 18 | 	byte	$66, $66, $3c, $1c, $1c, $fc, $fe, $66, $66, $fe, $fc, $00, $00, $00, $00, $18
03ab3     18 18 18 18 
03ab7     00 00 00 00 
03abb     00 00 00 00 
03abf     00 00 00 30 | 	byte	$18, $18, $18, $18, $00, $00, $00, $00, $00, $00, $00, $00, $00, $00, $00, $30
03ac3     18 1C 0C 0C 
03ac7     0C 0C 0C 0C 
03acb     1C 18 30 00 
03acf     00 00 00 0C | 	byte	$18, $1c, $0c, $0c, $0c, $0c, $0c, $0c, $1c, $18, $30, $00, $00, $00, $00, $0c
03ad3     18 38 30 30 
03ad7     30 30 30 30 
03adb     38 18 0C 00 
03adf     00 00 00 00 | 	byte	$18, $38, $30, $30, $30, $30, $30, $30, $38, $18, $0c, $00, $00, $00, $00, $00
03ae3     66 66 3C 3C 
03ae7     FF FF 3C 3C 
03aeb     66 66 00 00 
03aef     00 00 00 00 | 	byte	$66, $66, $3c, $3c, $ff, $ff, $3c, $3c, $66, $66, $00, $00, $00, $00, $00, $00
03af3     00 18 18 18 
03af7     7E 7E 18 18 
03afb     18 00 00 00 
03aff     00 00 00 00 | 	byte	$00, $18, $18, $18, $7e, $7e, $18, $18, $18, $00, $00, $00, $00, $00, $00, $00
03b03     00 00 00 00 
03b07     00 00       | 	byte	$00[6]
03b09     18 18 18 18 
03b0d     18          | 	byte	$18[5]
03b0e     0C 04 00 00 
03b12     00 00 00 00 
03b16     7E 7E 00 00 
03b1a     00 00 00 00 | 	byte	$0c, $04, $00, $00, $00, $00, $00, $00, $7e, $7e, $00, $00, $00, $00, $00, $00
03b1e     00 00 00 00 
03b22     00 00 00 00 
03b26     00 00 00 00 
03b2a     00          | 	byte	$00[13]
03b2b     18 18 18 00 
03b2f     00 00 00 60 
03b33     60 60 30 30 
03b37     18 18 0C 0C | 	byte	$18, $18, $18, $00, $00, $00, $00, $60, $60, $60, $30, $30, $18, $18, $0c, $0c
03b3b     06 06 06 00 
03b3f     00 00 00 3C 
03b43     7E 66 66 66 
03b47     76 6E 66 66 | 	byte	$06, $06, $06, $00, $00, $00, $00, $3c, $7e, $66, $66, $66, $76, $6e, $66, $66
03b4b     66 7E 3C 00 
03b4f     00 00 00 18 
03b53     18 1C 1C 18 
03b57     18 18 18 18 | 	byte	$66, $7e, $3c, $00, $00, $00, $00, $18, $18, $1c, $1c, $18, $18, $18, $18, $18
03b5b     18 7E 7E 00 
03b5f     00 00 00 3C 
03b63     7E 66 66 30 
03b67     30 18 18 0C | 	byte	$18, $7e, $7e, $00, $00, $00, $00, $3c, $7e, $66, $66, $30, $30, $18, $18, $0c
03b6b     0C 7E 7E 00 
03b6f     00 00 00 7E 
03b73     7E 30 30 18 
03b77     18 30 30 66 | 	byte	$0c, $7e, $7e, $00, $00, $00, $00, $7e, $7e, $30, $30, $18, $18, $30, $30, $66
03b7b     66 7E 3C 00 
03b7f     00 00 00 30 
03b83     30 38 38 3C 
03b87     3C 36 36 7E | 	byte	$66, $7e, $3c, $00, $00, $00, $00, $30, $30, $38, $38, $3c, $3c, $36, $36, $7e
03b8b     7E 30 30 00 
03b8f     00 00 00 7E 
03b93     7E 06 06 3E 
03b97     7E 60 60 60 | 	byte	$7e, $30, $30, $00, $00, $00, $00, $7e, $7e, $06, $06, $3e, $7e, $60, $60, $60
03b9b     66 7E 3C 00 
03b9f     00 00 00 38 
03ba3     3C 0E 06 06 
03ba7     3E 7E 66 66 | 	byte	$66, $7e, $3c, $00, $00, $00, $00, $38, $3c, $0e, $06, $06, $3e, $7e, $66, $66
03bab     66 7E 3C 00 
03baf     00 00 00 7E 
03bb3     7E 60 60 30 
03bb7     30 18 18 0C | 	byte	$66, $7e, $3c, $00, $00, $00, $00, $7e, $7e, $60, $60, $30, $30, $18, $18, $0c
03bbb     0C 0C 0C 00 
03bbf     00 00 00 3C 
03bc3     7E 66 66 3C 
03bc7     3C 66 66 66 | 	byte	$0c, $0c, $0c, $00, $00, $00, $00, $3c, $7e, $66, $66, $3c, $3c, $66, $66, $66
03bcb     66 7E 3C 00 
03bcf     00 00 00 3C 
03bd3     7E 66 66 7E 
03bd7     7C 60 60 60 | 	byte	$66, $7e, $3c, $00, $00, $00, $00, $3c, $7e, $66, $66, $7e, $7c, $60, $60, $60
03bdb     70 3C 1C 00 
03bdf     00 00 00 00 
03be3     00 00 18 18 
03be7     18 00 00 00 | 	byte	$70, $3c, $1c, $00, $00, $00, $00, $00, $00, $00, $18, $18, $18, $00, $00, $00
03beb     18 18 18 00 
03bef     00 00 00 00 
03bf3     00 00 18 18 
03bf7     18 00 00 18 | 	byte	$18, $18, $18, $00, $00, $00, $00, $00, $00, $00, $18, $18, $18, $00, $00, $18
03bfb     18 18 18 0C 
03bff     04 00 00 00 
03c03     70 38 1C 0E 
03c07     07 0E 1C 38 | 	byte	$18, $18, $18, $0c, $04, $00, $00, $00, $70, $38, $1c, $0e, $07, $0e, $1c, $38
03c0b     70 00 00 00 
03c0f     00 00 00 00 
03c13     00 00 7E 7E 
03c17     00 00 7E 7E | 	byte	$70, $00, $00, $00, $00, $00, $00, $00, $00, $00, $7e, $7e, $00, $00, $7e, $7e
03c1b     00 00 00 00 
03c1f     00 00 00 00 | 	byte	$00[8]
03c23     0E 1C 38 70 
03c27     E0 70 38 1C 
03c2b     0E 00 00 00 
03c2f     00 00 00 3C | 	byte	$0e, $1c, $38, $70, $e0, $70, $38, $1c, $0e, $00, $00, $00, $00, $00, $00, $3c
03c33     7E 66 66 30 
03c37     30 18 18 18 
03c3b     00 18 18 00 
03c3f     00 00 00 3C | 	byte	$7e, $66, $66, $30, $30, $18, $18, $18, $00, $18, $18, $00, $00, $00, $00, $3c
03c43     7E 66 66 66 
03c47     66 36 06 66 
03c4b     66 7E 3C 00 
03c4f     00 00 00 18 | 	byte	$7e, $66, $66, $66, $66, $36, $06, $66, $66, $7e, $3c, $00, $00, $00, $00, $18
03c53     3C 7E 66 66 
03c57     66 7E 7E 66 
03c5b     66 66 66 00 
03c5f     00 00 00 3E | 	byte	$3c, $7e, $66, $66, $66, $7e, $7e, $66, $66, $66, $66, $00, $00, $00, $00, $3e
03c63     7E 66 66 7E 
03c67     3E 66 66 66 
03c6b     66 7E 3E 00 
03c6f     00 00 00 3C | 	byte	$7e, $66, $66, $7e, $3e, $66, $66, $66, $66, $7e, $3e, $00, $00, $00, $00, $3c
03c73     7E 66 66 06 
03c77     06 06 06 66 
03c7b     66 7E 3C 00 
03c7f     00 00 00 3E | 	byte	$7e, $66, $66, $06, $06, $06, $06, $66, $66, $7e, $3c, $00, $00, $00, $00, $3e
03c83     7E 66 66 66 
03c87     66 66 66 66 
03c8b     66 7E 3E 00 
03c8f     00 00 00 7E | 	byte	$7e, $66, $66, $66, $66, $66, $66, $66, $66, $7e, $3e, $00, $00, $00, $00, $7e
03c93     7E 06 06 3E 
03c97     3E 06 06 06 
03c9b     06 7E 7E 00 
03c9f     00 00 00 7E | 	byte	$7e, $06, $06, $3e, $3e, $06, $06, $06, $06, $7e, $7e, $00, $00, $00, $00, $7e
03ca3     7E 06 06 3E 
03ca7     3E 06 06 06 
03cab     06 06 06 00 
03caf     00 00 00 7C | 	byte	$7e, $06, $06, $3e, $3e, $06, $06, $06, $06, $06, $06, $00, $00, $00, $00, $7c
03cb3     7E 06 06 76 
03cb7     76 66 66 66 
03cbb     66 7E 3C 00 
03cbf     00 00 00 66 | 	byte	$7e, $06, $06, $76, $76, $66, $66, $66, $66, $7e, $3c, $00, $00, $00, $00, $66
03cc3     66 66 66 7E 
03cc7     7E 66 66 66 
03ccb     66 66 66 00 
03ccf     00 00 00 7E | 	byte	$66, $66, $66, $7e, $7e, $66, $66, $66, $66, $66, $66, $00, $00, $00, $00, $7e
03cd3     7E 18 18 18 
03cd7     18 18 18 18 
03cdb     18 7E 7E 00 
03cdf     00 00 00 60 | 	byte	$7e, $18, $18, $18, $18, $18, $18, $18, $18, $7e, $7e, $00, $00, $00, $00, $60
03ce3     60 60 60 60 
03ce7     60 60 60    | 	byte	$60[7]
03cea     66 66 7E 3C 
03cee     00 00 00 00 
03cf2     66 66 36 36 
03cf6     1E 1E 36 36 | 	byte	$66, $66, $7e, $3c, $00, $00, $00, $00, $66, $66, $36, $36, $1e, $1e, $36, $36
03cfa     66 66 C6 C6 
03cfe     00 00 00 00 
03d02     06 06 06 06 
03d06     06 06 06 06 | 	byte	$66, $66, $c6, $c6, $00, $00, $00, $00, $06, $06, $06, $06, $06, $06, $06, $06
03d0a     06 06 7E 7E 
03d0e     00 00 00 00 
03d12     C6 C6 EE EE 
03d16     FE D6 D6 C6 | 	byte	$06, $06, $7e, $7e, $00, $00, $00, $00, $c6, $c6, $ee, $ee, $fe, $d6, $d6, $c6
03d1a     C6 C6 C6 C6 
03d1e     00 00 00 00 
03d22     66 66 66 6E 
03d26     6E 7E 7E 76 | 	byte	$c6, $c6, $c6, $c6, $00, $00, $00, $00, $66, $66, $66, $6e, $6e, $7e, $7e, $76
03d2a     76 66 66 66 
03d2e     00 00 00 00 
03d32     3C 7E 66 66 
03d36     66 66 66 66 | 	byte	$76, $66, $66, $66, $00, $00, $00, $00, $3c, $7e, $66, $66, $66, $66, $66, $66
03d3a     66 66 7E 3C 
03d3e     00 00 00 00 
03d42     3E 7E 66 66 
03d46     66 66 7E 3E | 	byte	$66, $66, $7e, $3c, $00, $00, $00, $00, $3e, $7e, $66, $66, $66, $66, $7e, $3e
03d4a     06 06 06 06 
03d4e     00 00 00 00 
03d52     3C 7E 66 66 
03d56     66 66 66 66 | 	byte	$06, $06, $06, $06, $00, $00, $00, $00, $3c, $7e, $66, $66, $66, $66, $66, $66
03d5a     66 56 3E 6C 
03d5e     00 00 00 00 
03d62     3E 7E 66 66 
03d66     66 7E 3E 36 | 	byte	$66, $56, $3e, $6c, $00, $00, $00, $00, $3e, $7e, $66, $66, $66, $7e, $3e, $36
03d6a     66 66 C6 C6 
03d6e     00 00 00 00 
03d72     7C 7E 06 06 
03d76     0E 1C 38 70 | 	byte	$66, $66, $c6, $c6, $00, $00, $00, $00, $7c, $7e, $06, $06, $0e, $1c, $38, $70
03d7a     60 60 7E 3E 
03d7e     00 00 00 00 
03d82     7E 7E 18 18 
03d86     18 18 18 18 | 	byte	$60, $60, $7e, $3e, $00, $00, $00, $00, $7e, $7e, $18, $18, $18, $18, $18, $18
03d8a     18 18 18 18 
03d8e     00 00 00 00 
03d92     66 66 66 66 
03d96     66 66 66 66 | 	byte	$18, $18, $18, $18, $00, $00, $00, $00, $66, $66, $66, $66, $66, $66, $66, $66
03d9a     66 66 7E 3C 
03d9e     00 00 00 00 
03da2     66 66 66 66 
03da6     66 66 66 66 | 	byte	$66, $66, $7e, $3c, $00, $00, $00, $00, $66, $66, $66, $66, $66, $66, $66, $66
03daa     3C 3C 18 18 
03dae     00 00 00 00 
03db2     C6 C6 C6 C6 
03db6     C6 D6 D6 FE | 	byte	$3c, $3c, $18, $18, $00, $00, $00, $00, $c6, $c6, $c6, $c6, $c6, $d6, $d6, $fe
03dba     FE EE C6 82 
03dbe     00 00 00 00 
03dc2     66 66 66 3C 
03dc6     3C 18 18 3C | 	byte	$fe, $ee, $c6, $82, $00, $00, $00, $00, $66, $66, $66, $3c, $3c, $18, $18, $3c
03dca     3C 66 66 66 
03dce     00 00 00 00 
03dd2     66 66 66 66 
03dd6     66 3C 3C 18 | 	byte	$3c, $66, $66, $66, $00, $00, $00, $00, $66, $66, $66, $66, $66, $3c, $3c, $18
03dda     18 18 18 18 
03dde     00 00 00 00 
03de2     7E 7E 30 30 
03de6     18 18 0C 0C | 	byte	$18, $18, $18, $18, $00, $00, $00, $00, $7e, $7e, $30, $30, $18, $18, $0c, $0c
03dea     06 06 7E 7E 
03dee     00 00 00 00 
03df2     3C 3C 0C 0C 
03df6     0C 0C 0C 0C | 	byte	$06, $06, $7e, $7e, $00, $00, $00, $00, $3c, $3c, $0c, $0c, $0c, $0c, $0c, $0c
03dfa     0C 0C 3C 3C 
03dfe     00 00 00 00 
03e02     06 06 0C 0C 
03e06     18 18 30 30 | 	byte	$0c, $0c, $3c, $3c, $00, $00, $00, $00, $06, $06, $0c, $0c, $18, $18, $30, $30
03e0a     60 60 C0 C0 
03e0e     00 00 00 00 
03e12     3C 3C 30 30 
03e16     30 30 30 30 | 	byte	$60, $60, $c0, $c0, $00, $00, $00, $00, $3c, $3c, $30, $30, $30, $30, $30, $30
03e1a     30 30 3C 3C 
03e1e     00 00 00 00 
03e22     18 18 3C 3C 
03e26     66 66 00 00 | 	byte	$30, $30, $3c, $3c, $00, $00, $00, $00, $18, $18, $3c, $3c, $66, $66, $00, $00
03e2a     00 00 00 00 
03e2e     00 00 00 00 
03e32     00 00 00 00 
03e36     00 00 00 00 
03e3a     00 00       | 	byte	$00[18]
03e3c     FE FE 00 00 
03e40     00 00 0C 0C 
03e44     18 18 00 00 
03e48     00 00 00 00 | 	byte	$fe, $fe, $00, $00, $00, $00, $0c, $0c, $18, $18, $00, $00, $00, $00, $00, $00
03e4c     00 00 00 00 
03e50     00 00 00 00 
03e54     00          | 	byte	$00[9]
03e55     3C 7C 60 7C 
03e59     7E 66 66 7E 
03e5d     7C 00 00 00 
03e61     00 06 06 06 | 	byte	$3c, $7c, $60, $7c, $7e, $66, $66, $7e, $7c, $00, $00, $00, $00, $06, $06, $06
03e65     3E 7E 66 66 
03e69     66 66 66 7E 
03e6d     3E 00 00 00 
03e71     00 00 00 00 | 	byte	$3e, $7e, $66, $66, $66, $66, $66, $7e, $3e, $00, $00, $00, $00, $00, $00, $00
03e75     3C 3E 06 06 
03e79     06 06 06 7E 
03e7d     7C 00 00 00 
03e81     00 60 60 60 | 	byte	$3c, $3e, $06, $06, $06, $06, $06, $7e, $7c, $00, $00, $00, $00, $60, $60, $60
03e85     7C 7E 66 66 
03e89     66 66 66 7E 
03e8d     7C 00 00 00 
03e91     00 00 00 00 | 	byte	$7c, $7e, $66, $66, $66, $66, $66, $7e, $7c, $00, $00, $00, $00, $00, $00, $00
03e95     3C 7E 66 66 
03e99     7E 06 06 7E 
03e9d     7C 00 00 00 
03ea1     00 70 78 18 | 	byte	$3c, $7e, $66, $66, $7e, $06, $06, $7e, $7c, $00, $00, $00, $00, $70, $78, $18
03ea5     18 7E 7E 18 
03ea9     18 18 18 18 
03ead     18 00 00 00 
03eb1     00 00 00 00 | 	byte	$18, $7e, $7e, $18, $18, $18, $18, $18, $18, $00, $00, $00, $00, $00, $00, $00
03eb5     7C 7E 66 66 
03eb9     66 66 7E 7C 
03ebd     60 7E 3E 00 
03ec1     00 06 06 06 | 	byte	$7c, $7e, $66, $66, $66, $66, $7e, $7c, $60, $7e, $3e, $00, $00, $06, $06, $06
03ec5     3E 7E 66 66 
03ec9     66 66 66 66 
03ecd     66 00 00 00 
03ed1     00 18 18 00 | 	byte	$3e, $7e, $66, $66, $66, $66, $66, $66, $66, $00, $00, $00, $00, $18, $18, $00
03ed5     1C 1C 18 18 
03ed9     18 18 18 3C 
03edd     3C 00 00 00 
03ee1     00 30 30 00 | 	byte	$1c, $1c, $18, $18, $18, $18, $18, $3c, $3c, $00, $00, $00, $00, $30, $30, $00
03ee5     30 30 30 30 
03ee9     30 30 30 30 
03eed     30          | 	byte	$30[9]
03eee     3E 1E 00 00 
03ef2     06 06 06 36 
03ef6     36 1E 1E 1E 
03efa     36 36 66 66 | 	byte	$3e, $1e, $00, $00, $06, $06, $06, $36, $36, $1e, $1e, $1e, $36, $36, $66, $66
03efe     00 00 00 00 
03f02     1C 1C 18 18 
03f06     18 18 18 18 
03f0a     18 18 3C 3C | 	byte	$00, $00, $00, $00, $1c, $1c, $18, $18, $18, $18, $18, $18, $18, $18, $3c, $3c
03f0e     00 00 00 00 
03f12     00 00 00    | 	byte	$00[7]
03f15     6C FE FE D6 
03f19     D6 C6 C6 C6 
03f1d     C6 00 00 00 
03f21     00 00 00 00 | 	byte	$6c, $fe, $fe, $d6, $d6, $c6, $c6, $c6, $c6, $00, $00, $00, $00, $00, $00, $00
03f25     3E 7E 66 66 
03f29     66 66 66 66 
03f2d     66 00 00 00 
03f31     00 00 00 00 | 	byte	$3e, $7e, $66, $66, $66, $66, $66, $66, $66, $00, $00, $00, $00, $00, $00, $00
03f35     3C 7E 66 66 
03f39     66 66 66 7E 
03f3d     3C 00 00 00 
03f41     00 00 00 00 | 	byte	$3c, $7e, $66, $66, $66, $66, $66, $7e, $3c, $00, $00, $00, $00, $00, $00, $00
03f45     3E 7E 66 66 
03f49     66 66 66 7E 
03f4d     3E 06 06 00 
03f51     00 00 00 00 | 	byte	$3e, $7e, $66, $66, $66, $66, $66, $7e, $3e, $06, $06, $00, $00, $00, $00, $00
03f55     7C 7E 66 66 
03f59     66 66 66 7E 
03f5d     7C 60 60 00 
03f61     00 00 00 00 | 	byte	$7c, $7e, $66, $66, $66, $66, $66, $7e, $7c, $60, $60, $00, $00, $00, $00, $00
03f65     3E 7E 66 06 
03f69     06 06 06 06 
03f6d     06 00 00 00 
03f71     00 00 00 00 | 	byte	$3e, $7e, $66, $06, $06, $06, $06, $06, $06, $00, $00, $00, $00, $00, $00, $00
03f75     7C 7E 06 0E 
03f79     3C 70 60 7E 
03f7d     3E 00 00 00 
03f81     00 00 18 18 | 	byte	$7c, $7e, $06, $0e, $3c, $70, $60, $7e, $3e, $00, $00, $00, $00, $00, $18, $18
03f85     7E 7E 18 18 
03f89     18 18 18 78 
03f8d     70 00 00 00 
03f91     00 00 00 00 | 	byte	$7e, $7e, $18, $18, $18, $18, $18, $78, $70, $00, $00, $00, $00, $00, $00, $00
03f95     66 66 66 66 
03f99     66 66 66    | 	byte	$66[7]
03f9c     7E 7C 00 00 
03fa0     00 00 00 00 
03fa4     00 66 66 66 
03fa8     66 66 3C 3C | 	byte	$7e, $7c, $00, $00, $00, $00, $00, $00, $00, $66, $66, $66, $66, $66, $3c, $3c
03fac     18 18 00 00 
03fb0     00 00 00 00 
03fb4     00 C6 C6 D6 
03fb8     D6 FE FE EE | 	byte	$18, $18, $00, $00, $00, $00, $00, $00, $00, $c6, $c6, $d6, $d6, $fe, $fe, $ee
03fbc     C6 82 00 00 
03fc0     00 00 00 00 
03fc4     00 66 66 3C 
03fc8     3C 18 3C 3C | 	byte	$c6, $82, $00, $00, $00, $00, $00, $00, $00, $66, $66, $3c, $3c, $18, $3c, $3c
03fcc     66 66 00 00 
03fd0     00 00 00 00 
03fd4     00 66 66 66 
03fd8     66 66 66 7E | 	byte	$66, $66, $00, $00, $00, $00, $00, $00, $00, $66, $66, $66, $66, $66, $66, $7e
03fdc     7C 60 7E 3E 
03fe0     00 00 00 00 
03fe4     00 7E 7E 30 
03fe8     18 18 0C 0C | 	byte	$7c, $60, $7e, $3e, $00, $00, $00, $00, $00, $7e, $7e, $30, $18, $18, $0c, $0c
03fec     7E 7E 00 00 
03ff0     00 00 30 18 
03ff4     18 18 18 0C 
03ff8     0C 18 18 18 | 	byte	$7e, $7e, $00, $00, $00, $00, $30, $18, $18, $18, $18, $0c, $0c, $18, $18, $18
03ffc     18 30 00 00 
04000     00 00 18 18 
04004     18 18 18 18 
04008     18 18 18 18 | 	byte	$18, $30, $00, $00, $00, $00, $18, $18, $18, $18, $18, $18, $18, $18, $18, $18
0400c     18 18 00 00 
04010     00 00 0C 18 
04014     18 18 18 30 
04018     30 18 18 18 | 	byte	$18, $18, $00, $00, $00, $00, $0c, $18, $18, $18, $18, $30, $30, $18, $18, $18
0401c     18 0C 00 00 
04020     00 00 6C 7E 
04024     36 00 00 00 
04028     00 00 00 00 | 	byte	$18, $0c, $00, $00, $00, $00, $6c, $7e, $36, $00, $00, $00, $00, $00, $00, $00
0402c     00 00 00 00 
04030     00 00 00 00 
04034     00          | 	byte	$00[9]
04035     18 18 18 18 
04039     18 18 00 00 
0403d     00 00 00    | 	byte	$18, $18, $18, $18, $18, $18, $00, $00, $00, $00, $00
04040     00 00 00 00 
04044     00          | ataripalette   file "ataripalettep2.def"
04045     11 11 11 00 
04049     22 22 22 00 
0404d     33 33 33 00 
04051     44 44 44 00 | 	byte	$11, $11, $11, $00, $22, $22, $22, $00, $33, $33, $33, $00, $44, $44, $44, $00
04055     55 55 55 00 
04059     66 66 66 00 
0405d     77 77 77 00 
04061     88 88 88 00 | 	byte	$55, $55, $55, $00, $66, $66, $66, $00, $77, $77, $77, $00, $88, $88, $88, $00
04065     99 99 99 00 
04069     AA AA AA 00 
0406d     BB BB BB 00 
04071     CC CC CC 00 | 	byte	$99, $99, $99, $00, $aa, $aa, $aa, $00, $bb, $bb, $bb, $00, $cc, $cc, $cc, $00
04075     DD DD DD 00 
04079     EE EE EE 00 
0407d     FF FF FF 00 
04081     00 0A 20 00 | 	byte	$dd, $dd, $dd, $00, $ee, $ee, $ee, $00, $ff, $ff, $ff, $00, $00, $0a, $20, $00
04085     00 14 40 00 
04089     00 1E 60 00 
0408d     00 28 80 00 
04091     00 32 9F 00 | 	byte	$00, $14, $40, $00, $00, $1e, $60, $00, $00, $28, $80, $00, $00, $32, $9f, $00
04095     00 3C BF 00 
04099     00 46 DF 00 
0409d     00 50 FF 00 
040a1     1C 63 FF 00 | 	byte	$00, $3c, $bf, $00, $00, $46, $df, $00, $00, $50, $ff, $00, $1c, $63, $ff, $00
040a5     39 77 FF 00 
040a9     55 8A FF 00 
040ad     71 9E FF 00 
040b1     8E B1 FF 00 | 	byte	$39, $77, $ff, $00, $55, $8a, $ff, $00, $71, $9e, $ff, $00, $8e, $b1, $ff, $00
040b5     AA C5 FF 00 
040b9     C6 D8 FF 00 
040bd     E3 EC FF 00 
040c1     00 00 20 00 | 	byte	$aa, $c5, $ff, $00, $c6, $d8, $ff, $00, $e3, $ec, $ff, $00, $00, $00, $20, $00
040c5     00 00 40 00 
040c9     00 00 60 00 
040cd     00 00 80 00 
040d1     00 00 9F 00 | 	byte	$00, $00, $40, $00, $00, $00, $60, $00, $00, $00, $80, $00, $00, $00, $9f, $00
040d5     00 00 BF 00 
040d9     00 00 DF 00 
040dd     00 00 FF 00 
040e1     1C 1C FF 00 | 	byte	$00, $00, $bf, $00, $00, $00, $df, $00, $00, $00, $ff, $00, $1c, $1c, $ff, $00
040e5     39 39 FF 00 
040e9     55 55 FF 00 
040ed     71 71 FF 00 
040f1     8E 8E FF 00 | 	byte	$39, $39, $ff, $00, $55, $55, $ff, $00, $71, $71, $ff, $00, $8e, $8e, $ff, $00
040f5     AA AA FF 00 
040f9     C6 C6 FF 00 
040fd     E3 E3 FF 00 
04101     10 00 20 00 | 	byte	$aa, $aa, $ff, $00, $c6, $c6, $ff, $00, $e3, $e3, $ff, $00, $10, $00, $20, $00
04105     20 00 40 00 
04109     30 00 60 00 
0410d     40 00 80 00 
04111     50 00 9F 00 | 	byte	$20, $00, $40, $00, $30, $00, $60, $00, $40, $00, $80, $00, $50, $00, $9f, $00
04115     60 00 BF 00 
04119     70 00 DF 00 
0411d     80 00 FF 00 
04121     8E 1C FF 00 | 	byte	$60, $00, $bf, $00, $70, $00, $df, $00, $80, $00, $ff, $00, $8e, $1c, $ff, $00
04125     9C 39 FF 00 
04129     AA 55 FF 00 
0412d     B8 71 FF 00 
04131     C7 8E FF 00 | 	byte	$9c, $39, $ff, $00, $aa, $55, $ff, $00, $b8, $71, $ff, $00, $c7, $8e, $ff, $00
04135     D5 AA FF 00 
04139     E3 C6 FF 00 
0413d     F1 E3 FF 00 
04141     20 00 20 00 | 	byte	$d5, $aa, $ff, $00, $e3, $c6, $ff, $00, $f1, $e3, $ff, $00, $20, $00, $20, $00
04145     40 00 40 00 
04149     60 00 60 00 
0414d     80 00 80 00 
04151     9F 00 9F 00 | 	byte	$40, $00, $40, $00, $60, $00, $60, $00, $80, $00, $80, $00, $9f, $00, $9f, $00
04155     BF 00 BF 00 
04159     DF 00 DF 00 
0415d     FF 00 FF 00 
04161     FF 1C FF 00 | 	byte	$bf, $00, $bf, $00, $df, $00, $df, $00, $ff, $00, $ff, $00, $ff, $1c, $ff, $00
04165     FF 39 FF 00 
04169     FF 55 FF 00 
0416d     FF 71 FF 00 
04171     FF 8E FF 00 | 	byte	$ff, $39, $ff, $00, $ff, $55, $ff, $00, $ff, $71, $ff, $00, $ff, $8e, $ff, $00
04175     FF AA FF 00 
04179     FF C6 FF 00 
0417d     FF E3 FF 00 
04181     20 00 10 00 | 	byte	$ff, $aa, $ff, $00, $ff, $c6, $ff, $00, $ff, $e3, $ff, $00, $20, $00, $10, $00
04185     40 00 20 00 
04189     60 00 30 00 
0418d     80 00 40 00 
04191     9F 00 50 00 | 	byte	$40, $00, $20, $00, $60, $00, $30, $00, $80, $00, $40, $00, $9f, $00, $50, $00
04195     BF 00 60 00 
04199     DF 00 70 00 
0419d     FF 00 80 00 
041a1     FF 1C 8E 00 | 	byte	$bf, $00, $60, $00, $df, $00, $70, $00, $ff, $00, $80, $00, $ff, $1c, $8e, $00
041a5     FF 39 9C 00 
041a9     FF 55 AA 00 
041ad     FF 71 B8 00 
041b1     FF 8E C7 00 | 	byte	$ff, $39, $9c, $00, $ff, $55, $aa, $00, $ff, $71, $b8, $00, $ff, $8e, $c7, $00
041b5     FF AA D5 00 
041b9     FF C6 E3 00 
041bd     FF E3 F1 00 
041c1     20 00 00 00 | 	byte	$ff, $aa, $d5, $00, $ff, $c6, $e3, $00, $ff, $e3, $f1, $00, $20, $00, $00, $00
041c5     40 00 00 00 
041c9     60 00 00 00 
041cd     80 00 00 00 
041d1     9F 00 00 00 | 	byte	$40, $00, $00, $00, $60, $00, $00, $00, $80, $00, $00, $00, $9f, $00, $00, $00
041d5     BF 00 00 00 
041d9     DF 00 00 00 
041dd     FF 00 00 00 
041e1     FF 1C 1C 00 | 	byte	$bf, $00, $00, $00, $df, $00, $00, $00, $ff, $00, $00, $00, $ff, $1c, $1c, $00
041e5     FF 39 39 00 
041e9     FF 55 55 00 
041ed     FF 71 71 00 
041f1     FF 8E 8E 00 | 	byte	$ff, $39, $39, $00, $ff, $55, $55, $00, $ff, $71, $71, $00, $ff, $8e, $8e, $00
041f5     FF AA AA 00 
041f9     FF C6 C6 00 
041fd     FF E3 E3 00 
04201     20 08 00 00 | 	byte	$ff, $aa, $aa, $00, $ff, $c6, $c6, $00, $ff, $e3, $e3, $00, $20, $08, $00, $00
04205     40 10 00 00 
04209     60 18 00 00 
0420d     80 20 00 00 
04211     9F 28 00 00 | 	byte	$40, $10, $00, $00, $60, $18, $00, $00, $80, $20, $00, $00, $9f, $28, $00, $00
04215     BF 30 00 00 
04219     DF 38 00 00 
0421d     FF 40 00 00 
04221     FF 55 1C 00 | 	byte	$bf, $30, $00, $00, $df, $38, $00, $00, $ff, $40, $00, $00, $ff, $55, $1c, $00
04225     FF 6A 39 00 
04229     FF 80 55 00 
0422d     FF 95 71 00 
04231     FF AA 8E 00 | 	byte	$ff, $6a, $39, $00, $ff, $80, $55, $00, $ff, $95, $71, $00, $ff, $aa, $8e, $00
04235     FF BF AA 00 
04239     FF D5 C6 00 
0423d     FF EA E3 00 
04241     20 10 00 00 | 	byte	$ff, $bf, $aa, $00, $ff, $d5, $c6, $00, $ff, $ea, $e3, $00, $20, $10, $00, $00
04245     40 20 00 00 
04249     60 30 00 00 
0424d     80 40 00 00 
04251     9F 50 00 00 | 	byte	$40, $20, $00, $00, $60, $30, $00, $00, $80, $40, $00, $00, $9f, $50, $00, $00
04255     BF 60 00 00 
04259     DF 70 00 00 
0425d     FF 80 00 00 
04261     FF 8E 1C 00 | 	byte	$bf, $60, $00, $00, $df, $70, $00, $00, $ff, $80, $00, $00, $ff, $8e, $1c, $00
04265     FF 9C 39 00 
04269     FF AA 55 00 
0426d     FF B8 71 00 
04271     FF C7 8E 00 | 	byte	$ff, $9c, $39, $00, $ff, $aa, $55, $00, $ff, $b8, $71, $00, $ff, $c7, $8e, $00
04275     FF D5 AA 00 
04279     FF E3 C6 00 
0427d     FF F1 E3 00 
04281     20 18 00 00 | 	byte	$ff, $d5, $aa, $00, $ff, $e3, $c6, $00, $ff, $f1, $e3, $00, $20, $18, $00, $00
04285     40 30 00 00 
04289     60 48 00 00 
0428d     80 60 00 00 
04291     9F 78 00 00 | 	byte	$40, $30, $00, $00, $60, $48, $00, $00, $80, $60, $00, $00, $9f, $78, $00, $00
04295     BF 90 00 00 
04299     DF A8 00 00 
0429d     FF C0 00 00 
042a1     FF C7 1C 00 | 	byte	$bf, $90, $00, $00, $df, $a8, $00, $00, $ff, $c0, $00, $00, $ff, $c7, $1c, $00
042a5     FF CE 39 00 
042a9     FF D5 55 00 
042ad     FF DC 71 00 
042b1     FF E3 8E 00 | 	byte	$ff, $ce, $39, $00, $ff, $d5, $55, $00, $ff, $dc, $71, $00, $ff, $e3, $8e, $00
042b5     FF EA AA 00 
042b9     FF F1 C6 00 
042bd     FF F8 E3 00 
042c1     18 20 00 00 | 	byte	$ff, $ea, $aa, $00, $ff, $f1, $c6, $00, $ff, $f8, $e3, $00, $18, $20, $00, $00
042c5     30 40 00 00 
042c9     48 60 00 00 
042cd     60 80 00 00 
042d1     78 9F 00 00 | 	byte	$30, $40, $00, $00, $48, $60, $00, $00, $60, $80, $00, $00, $78, $9f, $00, $00
042d5     90 BF 00 00 
042d9     A8 DF 00 00 
042dd     C0 FF 00 00 
042e1     C7 FF 1C 00 | 	byte	$90, $bf, $00, $00, $a8, $df, $00, $00, $c0, $ff, $00, $00, $c7, $ff, $1c, $00
042e5     CE FF 39 00 
042e9     D5 FF 55 00 
042ed     DC FF 71 00 
042f1     E3 FF 8E 00 | 	byte	$ce, $ff, $39, $00, $d5, $ff, $55, $00, $dc, $ff, $71, $00, $e3, $ff, $8e, $00
042f5     EA FF AA 00 
042f9     F1 FF C6 00 
042fd     F8 FF E3 00 
04301     00 20 00 00 | 	byte	$ea, $ff, $aa, $00, $f1, $ff, $c6, $00, $f8, $ff, $e3, $00, $00, $20, $00, $00
04305     00 40 00 00 
04309     00 60 00 00 
0430d     00 80 00 00 
04311     00 9F 00 00 | 	byte	$00, $40, $00, $00, $00, $60, $00, $00, $00, $80, $00, $00, $00, $9f, $00, $00
04315     00 BF 00 00 
04319     00 DF 00 00 
0431d     00 FF 00 00 
04321     1C FF 1C 00 | 	byte	$00, $bf, $00, $00, $00, $df, $00, $00, $00, $ff, $00, $00, $1c, $ff, $1c, $00
04325     39 FF 39 00 
04329     55 FF 55 00 
0432d     71 FF 71 00 
04331     8E FF 8E 00 | 	byte	$39, $ff, $39, $00, $55, $ff, $55, $00, $71, $ff, $71, $00, $8e, $ff, $8e, $00
04335     AA FF AA 00 
04339     C6 FF C6 00 
0433d     E3 FF E3 00 
04341     00 20 0A 00 | 	byte	$aa, $ff, $aa, $00, $c6, $ff, $c6, $00, $e3, $ff, $e3, $00, $00, $20, $0a, $00
04345     00 40 14 00 
04349     00 60 1E 00 
0434d     00 80 28 00 
04351     00 9F 32 00 | 	byte	$00, $40, $14, $00, $00, $60, $1e, $00, $00, $80, $28, $00, $00, $9f, $32, $00
04355     00 BF 3C 00 
04359     00 DF 46 00 
0435d     00 FF 50 00 
04361     1C FF 63 00 | 	byte	$00, $bf, $3c, $00, $00, $df, $46, $00, $00, $ff, $50, $00, $1c, $ff, $63, $00
04365     39 FF 77 00 
04369     55 FF 8A 00 
0436d     71 FF 9E 00 
04371     8E FF B1 00 | 	byte	$39, $ff, $77, $00, $55, $ff, $8a, $00, $71, $ff, $9e, $00, $8e, $ff, $b1, $00
04375     AA FF C5 00 
04379     C6 FF D8 00 
0437d     E3 FF EC 00 
04381     00 20 14 00 | 	byte	$aa, $ff, $c5, $00, $c6, $ff, $d8, $00, $e3, $ff, $ec, $00, $00, $20, $14, $00
04385     00 40 28 00 
04389     00 60 3C 00 
0438d     00 80 50 00 
04391     00 9F 64 00 | 	byte	$00, $40, $28, $00, $00, $60, $3c, $00, $00, $80, $50, $00, $00, $9f, $64, $00
04395     00 BF 78 00 
04399     00 DF 8C 00 
0439d     00 FF A0 00 
043a1     1C FF AB 00 | 	byte	$00, $bf, $78, $00, $00, $df, $8c, $00, $00, $ff, $a0, $00, $1c, $ff, $ab, $00
043a5     39 FF B5 00 
043a9     55 FF C0 00 
043ad     71 FF CA 00 
043b1     8E FF D5 00 | 	byte	$39, $ff, $b5, $00, $55, $ff, $c0, $00, $71, $ff, $ca, $00, $8e, $ff, $d5, $00
043b5     AA FF DF 00 
043b9     C6 FF EA 00 
043bd     E3 FF F4 00 
043c1     00 20 20 00 | 	byte	$aa, $ff, $df, $00, $c6, $ff, $ea, $00, $e3, $ff, $f4, $00, $00, $20, $20, $00
043c5     00 40 40 00 
043c9     00 60 60 00 
043cd     00 80 80 00 
043d1     00 9F 9F 00 | 	byte	$00, $40, $40, $00, $00, $60, $60, $00, $00, $80, $80, $00, $00, $9f, $9f, $00
043d5     00 BF BF 00 
043d9     00 DF DF 00 
043dd     00 FF FF 00 
043e1     1C FF FF 00 | 	byte	$00, $bf, $bf, $00, $00, $df, $df, $00, $00, $ff, $ff, $00, $1c, $ff, $ff, $00
043e5     39 FF FF 00 
043e9     55 FF FF 00 
043ed     71 FF FF 00 
043f1     8E FF FF 00 | 	byte	$39, $ff, $ff, $00, $55, $ff, $ff, $00, $71, $ff, $ff, $00, $8e, $ff, $ff, $00
043f5     AA FF FF 00 
043f9     C6 FF FF 00 
043fd     E3 FF FF 00 
04401     00 14 20 00 | 	byte	$aa, $ff, $ff, $00, $c6, $ff, $ff, $00, $e3, $ff, $ff, $00, $00, $14, $20, $00
04405     00 28 40 00 
04409     00 3C 60 00 
0440d     00 50 80 00 
04411     00 64 9F 00 | 	byte	$00, $28, $40, $00, $00, $3c, $60, $00, $00, $50, $80, $00, $00, $64, $9f, $00
04415     00 78 BF 00 
04419     00 8C DF 00 
0441d     00 A0 FF 00 
04421     1C AB FF 00 | 	byte	$00, $78, $bf, $00, $00, $8c, $df, $00, $00, $a0, $ff, $00, $1c, $ab, $ff, $00
04425     39 B5 FF 00 
04429     55 C0 FF 00 
0442d     71 CA FF 00 
04431     8E D5 FF 00 | 	byte	$39, $b5, $ff, $00, $55, $c0, $ff, $00, $71, $ca, $ff, $00, $8e, $d5, $ff, $00
04435     AA DF FF 00 
04439     C6 EA FF 00 
0443d     E3 F4 FF    | 	byte	$aa, $df, $ff, $00, $c6, $ea, $ff, $00, $e3, $f4, $ff
04440     00 00 00 00 
04444     00          | vga16		   long  $00000000,$00008000,$00800000,$00808000,$80000000,$80008000,$80400000,$AAAAAA00,$55555500,$0000FF00,$00FF0000,$00FFFF00,$FF000000,$FF00FF00,$FFFF0000,$FFFFFF00
04445     80 00 00 00 
04449     00 80 00 00 
0444d     80 80 00 00 
04451     00 00 80 00 | 	byte	$80, $00, $00, $00, $00, $80, $00, $00, $80, $80, $00, $00, $00, $00, $80, $00
04455     80 00 80 00 
04459     00 40 80 00 
0445d     AA AA AA 00 
04461     55 55 55 00 | 	byte	$80, $00, $80, $00, $00, $40, $80, $00, $aa, $aa, $aa, $00, $55, $55, $55, $00
04465     FF 00 00 00 
04469     00 FF 00 00 
0446d     FF FF 00 00 
04471     00 00 FF 00 | 	byte	$ff, $00, $00, $00, $00, $ff, $00, $00, $ff, $ff, $00, $00, $00, $00, $ff, $00
04475     FF 00 FF 00 
04479     00 FF FF 00 
0447d     FF FF FF    | 	byte	$ff, $00, $ff, $00, $00, $ff, $ff, $00, $ff, $ff, $ff
04480     00 00 00 00 
04484     00 80 80 80 
04488     00 00 00 FF 
0448c     00 FF FF FF | fourcolors     long  $00000000,$80808000,$FF000000,$FFFFFF00 'black,red,gray,white
04490     00 00 00 00 
04494     00 FF FF FF | twocolors      long  $00000000,$FFFFFF00
04498                 | '**********************************************************************************
04498                 | '
04498                 | '        Timings and colors definitions
04498                 | '
04498                 | '**********************************************************************************
04498                 | 
04498                 |    'streamer sets for text mode, to add to timings[0..5]
04498                 | 
04498                 | 
04498                 | '                     bf.hs, hs,  bf.vis  visible, lr bord, pixel, ud bord,  up p., vsync, down p., mode, cpl, scanlines,  clock,                  hubset                  total vis lines
04498     10 00 00 00 
0449c     50 00 00 00 
044a0     14 00 00 00 
044a4     00 04 00 00 | timings000      long   16,   80,    20,    1024,    112,     8,     48,      16,      16,    16,      0,  100,   480,     354693878,   %1_110000__11_0110_1100__1111_1011,   576
044a8     70 00 00 00 
044ac     08 00 00 00 
044b0     30 00 00 00 
044b4     10 00 00 00 | 	byte	$70, $00, $00, $00, $08, $00, $00, $00, $30, $00, $00, $00, $10, $00, $00, $00
044b8     10 00 00 00 
044bc     10 00 00 00 
044c0     00 00 00 00 
044c4     64 00 00 00 | 	byte	$10, $00, $00, $00, $10, $00, $00, $00, $00, $00, $00, $00, $64, $00, $00, $00
044c8     E0 01 00 00 
044cc     F6 32 24 15 
044d0     FB 6C C3 01 
044d4     40 02 00 00 | 	byte	$e0, $01, $00, $00, $f6, $32, $24, $15, $fb, $6c, $c3, $01, $40, $02, $00, $00
044d8     12 00 00 00 
044dc     30 00 00 00 
044e0     10 00 00 00 
044e4     B0 03 00 00 | timings064      long   18,   48,    16,     944,     24,     8,     24,      24,      32,    24,     64,  112,   496,     319215686,   %1_110010__11_0010_1101__1111_1011,   544
044e8     18 00 00 00 
044ec     08 00 00 00 
044f0     18 00 00 00 
044f4     18 00 00 00 | 	byte	$18, $00, $00, $00, $08, $00, $00, $00, $18, $00, $00, $00, $18, $00, $00, $00
044f8     20 00 00 00 
044fc     18 00 00 00 
04500     40 00 00 00 
04504     70 00 00 00 | 	byte	$20, $00, $00, $00, $18, $00, $00, $00, $40, $00, $00, $00, $70, $00, $00, $00
04508     F0 01 00 00 
0450c     46 D8 06 13 
04510     FB 2D CB 01 
04514     20 02 00 00 | 	byte	$f0, $01, $00, $00, $46, $d8, $06, $13, $fb, $2d, $cb, $01, $20, $02, $00, $00
04518     10 00 00 00 
0451c     40 00 00 00 
04520     10 00 00 00 
04524     30 03 00 00 | timings128      long   16,   64,    16,     816,      8,     8,     8,       32,      64,    32,    128,  100,   480,     283750000,   %1_111111__11_1000_1011__1111_1011,   496
04528     08 00 00 00 
0452c     08 00 00 00 
04530     08 00 00 00 
04534     20 00 00 00 | 	byte	$08, $00, $00, $00, $08, $00, $00, $00, $08, $00, $00, $00, $20, $00, $00, $00
04538     40 00 00 00 
0453c     20 00 00 00 
04540     80 00 00 00 
04544     64 00 00 00 | 	byte	$40, $00, $00, $00, $20, $00, $00, $00, $80, $00, $00, $00, $64, $00, $00, $00
04548     E0 01 00 00 
0454c     70 AE E9 10 
04550     FB 8B FF 01 
04554     F0 01 00 00 | 	byte	$e0, $01, $00, $00, $70, $ae, $e9, $10, $fb, $8b, $ff, $01, $f0, $01, $00, $00
04558     10 00 00 00 
0455c     50 00 00 00 
04560     14 00 00 00 
04564     00 04 00 00 | timings192      long   16,   80,    20,    1024,      0,     8,     0,       16,      16,    16,    192,  128,   576,     354693878,   %1_110000__11_0110_1100__1111_1011,   576
04568     00 00 00 00 
0456c     08 00 00 00 
04570     00 00 00 00 
04574     10 00 00 00 | 	byte	$00, $00, $00, $00, $08, $00, $00, $00, $00, $00, $00, $00, $10, $00, $00, $00
04578     10 00 00 00 
0457c     10 00 00 00 
04580     C0 00 00 00 
04584     80 00 00 00 | 	byte	$10, $00, $00, $00, $10, $00, $00, $00, $c0, $00, $00, $00, $80, $00, $00, $00
04588     40 02 00 00 
0458c     F6 32 24 15 
04590     FB 6C C3 01 
04594     40 02 00 00 | 	byte	$40, $02, $00, $00, $f6, $32, $24, $15, $fb, $6c, $c3, $01, $40, $02, $00, $00
04598     50 00 00 00 
0459c     A0 00 00 00 
045a0     54 00 00 00 
045a4     30 03 00 00 | timings256      long   80,  160,    84,     816,      8,     8,     8,        8,      12,     8,    256,  100,   480,     357959184,   %1_110000__11_0110_0100__1111_1011,   496
045a8     08 00 00 00 
045ac     08 00 00 00 
045b0     08 00 00 00 
045b4     08 00 00 00 | 	byte	$08, $00, $00, $00, $08, $00, $00, $00, $08, $00, $00, $00, $08, $00, $00, $00
045b8     0C 00 00 00 
045bc     08 00 00 00 
045c0     00 01 00 00 
045c4     64 00 00 00 | 	byte	$0c, $00, $00, $00, $08, $00, $00, $00, $00, $01, $00, $00, $64, $00, $00, $00
045c8     E0 01 00 00 
045cc     10 06 56 15 
045d0     FB 64 C3 01 
045d4     F0 01 00 00 | 	byte	$e0, $01, $00, $00, $10, $06, $56, $15, $fb, $64, $c3, $01, $f0, $01, $00, $00
045d8     50 00 00 00 
045dc     32 00 00 00 
045e0     50 00 00 00 
045e4     30 03 00 00 | timings320      long   80,   50,    80,     816,      8,     8,     8,        8,      12,     8,    320,  100,   480,     322162162,   %1_100100__10_0101_0011__1111_1011,   496
045e8     08 00 00 00 
045ec     08 00 00 00 
045f0     08 00 00 00 
045f4     08 00 00 00 | 	byte	$08, $00, $00, $00, $08, $00, $00, $00, $08, $00, $00, $00, $08, $00, $00, $00
045f8     0C 00 00 00 
045fc     08 00 00 00 
04600     40 01 00 00 
04604     64 00 00 00 | 	byte	$0c, $00, $00, $00, $08, $00, $00, $00, $40, $01, $00, $00, $64, $00, $00, $00
04608     E0 01 00 00 
0460c     F2 CD 33 13 
04610     FB 53 92 01 
04614     F0 01 00 00 | 	byte	$e0, $01, $00, $00, $f2, $cd, $33, $13, $fb, $53, $92, $01, $f0, $01, $00, $00
04618     18 00 00 00 
0461c     30 00 00 00 
04620     18 00 00 00 
04624     30 03 00 00 | timings384      long   24,   48,    24,     816,      8,     8,     8,        8,      12,     8,    384,  100,   480,     286363636,   %1_010101__01_0011_1010__1111_1011,   496
04628     08 00 00 00 
0462c     08 00 00 00 
04630     08 00 00 00 
04634     08 00 00 00 | 	byte	$08, $00, $00, $00, $08, $00, $00, $00, $08, $00, $00, $00, $08, $00, $00, $00
04638     0C 00 00 00 
0463c     08 00 00 00 
04640     80 01 00 00 
04644     64 00 00 00 | 	byte	$0c, $00, $00, $00, $08, $00, $00, $00, $80, $01, $00, $00, $64, $00, $00, $00
04648     E0 01 00 00 
0464c     F4 8F 11 11 
04650     FB 3A 55 01 
04654     F0 01 00 00 | 	byte	$e0, $01, $00, $00, $f4, $8f, $11, $11, $fb, $3a, $55, $01, $f0, $01, $00, $00
04658     20 00 00 00 
0465c     40 00 00 00 
04660     22 00 00 00 
04664     80 03 00 00 | timings448      long   32,   64,    34,     896,      0,     8,     0,        8,      12,     8,    448,  112,   496,     322162162,   %1_100100__10_0101_0011__1111_1011,   496
04668     00 00 00 00 
0466c     08 00 00 00 
04670     00 00 00 00 
04674     08 00 00 00 | 	byte	$00, $00, $00, $00, $08, $00, $00, $00, $00, $00, $00, $00, $08, $00, $00, $00
04678     0C 00 00 00 
0467c     08 00 00 00 
04680     C0 01 00 00 
04684     70 00 00 00 | 	byte	$0c, $00, $00, $00, $08, $00, $00, $00, $c0, $01, $00, $00, $70, $00, $00, $00
04688     F0 01 00 00 
0468c     F2 CD 33 13 
04690     FB 53 92 01 
04694     F0 01 00 00 | 	byte	$f0, $01, $00, $00, $f2, $cd, $33, $13, $fb, $53, $92, $01, $f0, $01, $00, $00
04698                 | 
04698     10 00 00 00 
0469c     50 00 00 00 
046a0     14 00 00 00 
046a4     00 04 00 00 | timings512      long   16,   80,    20,    1024,    112,     8,     48,      16,      16,    16,    544,  100,   480,     354693878,   %1_110000__11_0110_1100__1111_1011,   576
046a8     70 00 00 00 
046ac     08 00 00 00 
046b0     30 00 00 00 
046b4     10 00 00 00 | 	byte	$70, $00, $00, $00, $08, $00, $00, $00, $30, $00, $00, $00, $10, $00, $00, $00
046b8     10 00 00 00 
046bc     10 00 00 00 
046c0     20 02 00 00 
046c4     64 00 00 00 | 	byte	$10, $00, $00, $00, $10, $00, $00, $00, $20, $02, $00, $00, $64, $00, $00, $00
046c8     E0 01 00 00 
046cc     F6 32 24 15 
046d0     FB 6C C3 01 
046d4     40 02 00 00 | 	byte	$e0, $01, $00, $00, $f6, $32, $24, $15, $fb, $6c, $c3, $01, $40, $02, $00, $00
046d8     10 00 00 00 
046dc     50 00 00 00 
046e0     14 00 00 00 
046e4     00 04 00 00 | timings560      long   16,   80,    20,    1024,    112,     4,     48,      16,      16,    16,    544,  200,   480,     354693878,   %1_110000__11_0110_1100__1111_1011,   576
046e8     70 00 00 00 
046ec     04 00 00 00 
046f0     30 00 00 00 
046f4     10 00 00 00 | 	byte	$70, $00, $00, $00, $04, $00, $00, $00, $30, $00, $00, $00, $10, $00, $00, $00
046f8     10 00 00 00 
046fc     10 00 00 00 
04700     20 02 00 00 
04704     C8 00 00 00 | 	byte	$10, $00, $00, $00, $10, $00, $00, $00, $20, $02, $00, $00, $c8, $00, $00, $00
04708     E0 01 00 00 
0470c     F6 32 24 15 
04710     FB 6C C3 01 
04714     40 02 00 00 | 	byte	$e0, $01, $00, $00, $f6, $32, $24, $15, $fb, $6c, $c3, $01, $40, $02, $00, $00
04718                 | 
04718                 | 
04718     00 75 C7 97 
0471c     27 47 F6 0A 
04720     05 79 CB 9B 
04724     2B 4B EA 0F | vgacolors       byte   0, 117, 199, 151, 39, 71, 246, 10, 5, 121, 203, 155, 43, 75, 234, 15
04728                 | 
04728     28 14 64 FD | hdmi            setq    #10
0472c     00 5B 07 FB |                 rdlong  framebuf,  ptra                 'read pointers
04730                 | 
04730     29 FE 65 FD |                 setq2   #255
04734     B3 01 00 FB |                 rdlong  $000, paletteptr                'read palette
04738     02 00 00 FF 
0473c     00 66 07 F1 |                 add     paletteptr,##1024                ' Atari type 256 colors  
04740     29 1E 64 FD |                 setq2   #15
04744     B3 C1 03 FB |                 rdlong  480,paletteptr                  ' 16 color palette at 480
04748     00 00 00 FF 
0474c     40 66 07 F1 |                 add     paletteptr,##64                 ' 
04750     29 06 64 FD |                 setq2   #3
04754     B3 81 03 FB |                 rdlong  448,paletteptr                  ' 4  color palette at 448
04758     00 00 00 FF 
0475c     10 66 07 F1 |                 add     paletteptr,##16                
04760     29 02 64 FD |                 setq2   #1
04764     B3 41 03 FB |                 rdlong  416,paletteptr                  ' 2 color palette at 416
04768                 |                 
04768                 | 
04768     00 A0 6F FC |                 wrlong  #aend,#0                         'write driver length to hub#0: DEBUG/demo
0476c     3C 00 66 FD |                 setcmod #$100                           'enable HDMI mode
04770     07 76 07 F6 |                 mov     ii,#7
04774     06 76 67 F0 |                 shl     ii,#6
04778     B7 77 03 F1 |                 add     ii,hbase
0477c     58 76 63 FD |                 drvl    ii                                 '#7<<6 + hdmi_base      ' enable HDMI pins
04780     7B 0B 80 FF 
04784     BB 01 0B FC |                 wrpin   ##%10110_1111_0111_10_00000_0, ii  '#7<<6 + hdmi_base      ' a '123 ohm BITDAC for pins
04788                 | 
04788     66 66 86 FF 
0478c     1D 9A 65 FD |                 setxfrq ##$0CCCCCCC+1                   'set streamer freq to 1/10th clk
04790                 | 
04790                 | 
04790                 | ''--------  frame rendering main loop  ---------------------------------------------------
04790                 | 
04790                 | p101            
04790     28 14 64 FD |                 setq    #10
04794     00 5B 07 FB |                 rdlong  framebuf,  ptra 
04798     28 1E 64 FD |                 setq    #15
0479c     B2 0B 03 FB |                 rdlong  m_bs,modeptr                     ' read timings
047a0     AF 05 03 FB |                 rdlong border,borderptr
047a4                 |      
047a4     01 36 07 F1 |                 add     frames,#1
047a8     B5 73 03 F6 |                 mov     dlptr2,dlptr
047ac                 | 
047ac     B1 39 03 FB |                 rdlong  cursorx, cursorptr               ' read cursor position
047b0     9C 3B EB F8 |                 getbyte cursory, cursorx,#1              ' y position at byte #1
047b4     9C 35 F3 F8 |                 getbyte cursorsh,cursorx,#2              ' shape at byte #2
047b8     FF 38 07 F5 |                 and     cursorx,#255                     ' clear the cursor x varioble from y and shape
047bc                 |  '' mailbox
047bc     B4 81 03 FB |                 rdlong  t1,commandptr                    ' A mailbox interface, read the command
047c0     04 68 07 F1 |                 add     commandptr,#4
047c4     B4 83 03 FB |                 rdlong  t2,commandptr                    ' read the argument
047c8     04 68 87 F1 |                 sub     commandptr,#4                    ' restore the pionter
047cc     00 81 1F F2 |                 cmp     t1,#256  wcz                     '
047d0     C0 83 33 CC |          if_lt  wrlut   t2,t1                            ' command 0..255-> set the color in LUT
047d4     01 81 07 F6 |                 mov     t1, #257                         ' 257=idle
047d8     B4 81 63 FC |                 wrlong  t1,commandptr                    ' write 257 to hub variable so the program can test if command was done
047dc                 |  '' up porch
047dc                 | 
047dc     7E 7B 03 F6 |                 mov     hsync0,sync_000                  '
047e0     7F 7D 03 F6 |                 mov     hsync1,sync_001
047e4     1B 18 47 FB |                 callpa  i_upporch ,#blank
047e8     B0 01 68 FC |                 wrlong  #0,vblankptr
047ec                 | 
047ec                 | '' cursor blinking
047ec                 | 
047ec     04 36 0F F4 |                 testb   frames,#4 wz                     ' cursor blinks at framerate/16, todo: define
047f0     81 38 07 A6 |          if_z   mov     cursorx,#129                     ' to switch the cursor off, move it out of the screen
047f4                 | 
047f4                 | '' main screen
047f4                 | 
047f4     00 30 07 F6 |                 mov linenum,#0
047f8                 | 
047f8     B9 75 03 FB | p301            rdlong  dl,dlptr2
047fc                 | 
047fc     BA 79 03 F6 |                 mov     framebuf2,dl                    ' read a line start in the framebuffer from DL entry
04800     0E 78 47 F0 |                 shr     framebuf2,#14
04804     02 78 67 F0 |                 shl     framebuf2,#2     
04808                 | 
04808     BA 81 E3 F8 |                 getbyte t1,dl,#0 
0480c     00 80 0F F2 |                 cmp     t1,#0 wz
04810     34 00 90 AD |     if_z        jmp     #borderline
04814                 |     
04814     00 74 17 F4 |                  testb   dl,#0  wc     ' bit 0 set = text OR extended:TODO     
04818     50 00 90 CD |           if_c   jmp     #textline
0481c     50 02 90 3D |           if_nc  jmp     #graphline
04820                 | '        
04820     01 30 07 F1 | p302            add     linenum,#1
04824     04 72 07 F1 |                 add     dlptr2,#4
04828     94 31 0B F2 |                 cmp     linenum,i_totalvis  wz
0482c     C8 FF 9F 5D |          if_nz  jmp     #p301                                  
04830                 |                
04830     B0 03 68 FC | p112            wrlong  #1,vblankptr 
04834     07 1C 47 FB |                 callpa  i_downporch ,#blank             'bottom blanks
04838                 | 
04838     80 7B 03 F6 |                 mov     hsync0,sync_222                 'vsync on
0483c     81 7D 03 F6 |                 mov     hsync1,sync_223
04840     04 1A 47 FB |                 callpa  i_vsync,#blank                  'vertical sync blanks
04844     48 FF 9F FD |                 jmp     #p101                    
04848                 |   
04848                 | '' ---------------  END of frame rendering loop -------------------------------------------  
04848                 | 
04848                 | 
04848     14 00 B0 FD | borderline      call    #hsync                      ' make a border
0484c     82 11 C3 FC |                 xcont   m_vi,border 
04850     CC FF 9F FD |                 jmp     #p302 
04854                 | 
04854                 | 
04854     08 00 B0 FD | blank           call    #hsync                          'blank lines
04858     BD 11 C3 FC |                 xcont   m_vi,hsync0
0485c     FD ED 6F 0B |         _ret_   djnz    pa,#blank
04860                 | 
04860     BD 0B C3 FC | hsync           xcont   m_bs,hsync0                     'horizontal sync
04864     BE 0D B3 FC |                 xzero   m_sn,hsync1
04868     BD 0F C3 0C |         _ret_   xcont   m_bv,hsync0
0486c                 | 
0486c                 | 
0486c                 | 
0486c                 | ''--%aaaa_aaaa_aaaa_aaaa_aazz_nnnn_llll_ll_01 - txt
0486c                 |   '' aaaa_aaaa_aaaa_aaaa_aazz_rrrr_rrrr_cc_10 - graph
0486c                 |   '' aaaa_aaaa_aaaa-aaaa_aarr_rrrr_rrrr_rr_11 - extended, next long to read 
0486c                 |   
0486c                 | '' Display a text line DL[31..12]=addr, nibble #1=textline, zoom: todo
0486c                 | 
0486c     9C 3F 03 F6 | textline        mov     cursorpos2,cursorx              ' we need another var for cursor as this code will repeat 16x for every char line
04870                 | 
04870     BA 7F 53 F8 |                 getnib  fontline,dl,#2                 ' fontline is 0 to 15, a line in font def
04874     BA 9F 5B F8 |                 getnib  zoom, dl,#3
04878     03 9E 07 F5 |                 and		zoom, #3  
0487c                 |                 
0487c                 | 
0487c                 | 
0487c     BA 2F 03 F6 |                 mov     linestart,dl                    ' linestart will be used for checking cursor y and compute line start addr in the buffer
04880     02 2E 47 F0 |                 shr     linestart,#2                    ' scanline to char line
04884     3F 2E 07 F5 |                 and     linestart,#63
04888     9D 2F 0B F2 |                 cmp     linestart,cursory wz            ' if the cursor is not here
0488c     81 3E 07 56 |           if_nz mov     cursorpos2,#129                 ' move it out of the screen
04890                 | 
04890     CC FF BF FD |                 call    #hsync                          ' now call hsync to gain some time between xconts
04894                 | 
04894                 |                        ' if fontline =0, get a border color
04894                 |                 
04894     89 81 33 F9 | p102            getword t1,m_border,#0                  
04898     00 80 0F F2 |                 cmp     t1, #0 wz
0489c     82 13 C3 5C |           if_nz xcont   m_border,border                 ' display a left border if exists
048a0                 |         
048a0     9A 7F 1B F2 |                 cmp     fontline,cursorsh wcz           ' if the cursor have to be not displayed due to its shape
048a4     81 3C 07 C6 |           if_c  mov     cursorpos,#129                  ' move it out of the screen
048a8     9F 3D 03 36 |          if_nc  mov     cursorpos,cursorpos2
048ac     01 3C 07 F1 |                 add     cursorpos,#1                    ' we will substract #1 below so compensate this here
048b0     AE 83 03 F6 |                 mov     t2,fontbuf                      ' font definition pointer
048b4     BF 83 03 F1 |                 add     t2,fontline                     ' add a current font line
048b8     8A 2B 03 F6 |                 mov m_lut2, m_lut1
048bc     A8 2B 03 F1 |                 add m_lut2, lutt1
048c0     90 93 03 F6 |                 mov cpl2,i_cpl
048c4                 |   
048c4     02 9E 0F F2 |                cmp zoom,#2 wz
048c8     E4 00 90 AD |           if_z jmp #p420
048cc     01 9E 0F F2 |                cmp zoom,#1 wz
048d0     64 00 90 AD |           if_z jmp #p410
048d4     00 9E 0F F2 |                 cmp zoom,#0 wz
048d8     04 00 90 AD |           if_z jmp #p400    
048dc     50 01 90 FD |                jmp #p430  
048e0                 |           
048e0                 |                    '   
048e0                 |  ''---------------------------------------------------------------------------------------------------------          
048e0     BC 95 03 FB |  p400                   rdlong  char,framebuf2          ' read a long char                          '1
048e4     CA 99 F3 F8 |                         getbyte backcolor,char,#2       ' byte #2 - background color                '2
048e8     CA 9B FB F8 |                         getbyte charcolor,char,#3       ' byte #3 - foreground color                '3
048ec     CA 95 E3 F8 |                         getbyte char,char, #0           ' word #0 - char code                       '4
048f0     04 78 07 F1 |                         add     framebuf2,#4            ' point to the next long                    '5
048f4     04 94 67 F0 |                         shl     char,#4                 ' 1 char=16 bytes in font def               '6
048f8     C1 95 03 F1 |                         add     char,t2                 ' add this to font/line pointer             '7
048fc     CA 81 C3 FA |                         rdbyte  t1,char                 ' and get 8 pixels prom there               '8
04900     01 3C 8F F1 |                         sub     cursorpos,#1 wz         ' if there is a cursor                      '9
04904     FF 80 67 A5 |                   if_z  xor     t1, #$FF                ' reverse the colors                        '10         
04908                 | 
04908     C0 2B C3 FC |                         xcont m_lut2,t1
0490c                 |    
0490c     CC 89 A3 FA |                         rdlut   t5,backcolor            ' read a background color from palette      '13
04910     99 89 33 FC |                         wrlut   t5,lutaddr              ' and write it to LUT #0 or #32             '14
04914     01 32 07 F1 |                         add     lutaddr,#1                                                          '15
04918     CD 89 A3 FA |                         rdlut   t5,charcolor            ' the same for the foreground               '16
0491c     99 89 33 FC |                         wrlut   t5,lutaddr                                                          '17
04920     01 32 87 F1 |                         sub     lutaddr,#1  
04924                 | 
04924     10 2A E7 F4 |                         bitnot  m_lut2,#16                                                          '19
04928     10 14 E7 F4 |                         bitnot  m_lut1,#16                                                          '19
0492c     20 32 67 F5 |                         xor     lutaddr,#32             ' use LUT #0-1 and 32-33                    '20
04930                 | 
04930     EB 93 6F FB |                         djnz   cpl2,#p400   
04934     28 01 90 FD |  p401                   jmp    #p103
04938                 |                         
04938                 | ''------------------------------------------------------------------------------------------------------------
04938                 |   
04938     01 92 47 F0 |  p410                   shr cpl2,#1 
0493c                 |                      
0493c                 | ''---------------------------------------------------------------------------------------------------------          
0493c     BC 95 03 FB |  p412                   rdlong  char,framebuf2          ' read a long char                          '1
04940     CA 99 F3 F8 |                         getbyte backcolor,char,#2       ' byte #2 - background color                '2
04944     CA 9B FB F8 |                         getbyte charcolor,char,#3       ' byte #3 - foreground color                '3
04948     CA 95 E3 F8 |                         getbyte char,char, #0           ' word #0 - char code                       '4
0494c     04 78 07 F1 |                         add     framebuf2,#4            ' point to the next long                    '5
04950     04 94 67 F0 |                         shl     char,#4                 ' 1 char=16 bytes in font def               '6
04954     C1 95 03 F1 |                         add     char,t2                 ' add this to font/line pointer             '7
04958     CA 81 C3 FA |                         rdbyte  t1,char                 ' and get 8 pixels prom there               '8
0495c     01 3C 8F F1 |                         sub     cursorpos,#1 wz         ' if there is a cursor                      '9
04960     FF 80 67 A5 |                   if_z  xor     t1, #$FF                ' reverse the colors                        '10         
04964                 |   
04964                 |   
04964     C0 85 4B F8 |                         getnib t3,t1,#1                   ' 4 pixels to t3  						'1  - +
04968     C0 81 43 F8 |                         getnib t1,t1,#0                   ' 4 pixels to t1							'2  - +
0496c     63 80 63 FD |                         mergew t1                         ' make 01010101 from 1111					'3  - +
04970     03 80 07 FA |                         mul t1,#3 
04974     C0 2B C3 FC |                         xcont m_lut2,t1
04978     CC 89 A3 FA |                         rdlut   t5,backcolor            ' read a background color from palette      '13
0497c     99 89 33 FC |                         wrlut   t5,lutaddr              ' and write it to LUT #0 or #32             '14
04980     01 32 07 F1 |                         add     lutaddr,#1                                                          '15
04984     CD 89 A3 FA |                         rdlut   t5,charcolor            ' the same for the foreground               '16
04988     99 89 33 FC |                         wrlut   t5,lutaddr                                                          '17
0498c     01 32 87 F1 |                         sub     lutaddr,#1                         
04990     63 84 63 FD |                         mergew t3
04994     03 84 07 FA |                         mul t3,#3
04998     C2 2B C3 FC |                         xcont m_lut2,t3
0499c                 |    
0499c     10 2A E7 F4 |                         bitnot  m_lut2,#16                                                          '19
049a0     10 14 E7 F4 |                         bitnot  m_lut1,#16                                                          '19
049a4                 |                         
049a4     20 32 67 F5 |                         xor     lutaddr,#32             ' use LUT #0-1 and 32-33                    '20
049a8                 | 
049a8     E4 93 6F FB |                         djnz   cpl2,#p412              
049ac     B0 00 90 FD |  p411                   jmp    #p103
049b0                 |                         
049b0                 | ''------------------------------------------------------------------------------------------------------------
049b0                 | 
049b0     02 92 47 F0 |  p420                   shr cpl2,#2
049b4                 | 
049b4                 | ''---------------------------------------------------------------------------------------
049b4     BC 95 03 FB |  p422                   rdlong  char,framebuf2          ' read a long char                          '1
049b8     CA 99 F3 F8 |                         getbyte backcolor,char,#2       ' byte #2 - background color                '2
049bc     CA 9B FB F8 |                         getbyte charcolor,char,#3       ' byte #3 - foreground color                '3
049c0     CA 95 E3 F8 |                         getbyte char,char, #0           ' word #0 - char code                       '4
049c4     04 78 07 F1 |                         add     framebuf2,#4            ' point to the next long                    '5
049c8     04 94 67 F0 |                         shl     char,#4                 ' 1 char=16 bytes in font def               '6
049cc     C1 95 03 F1 |                         add     char,t2                 ' add this to font/line pointer             '7
049d0     CA 81 C3 FA |                         rdbyte  t1,char                 ' and get 8 pixels prom there               '8
049d4     01 3C 8F F1 |                         sub     cursorpos,#1 wz         ' if there is a cursor                      '9
049d8     FF 80 67 A5 |                   if_z  xor     t1, #$FF                ' reverse the colors                        '10
049dc                 | 
049dc     61 80 63 FD |                         mergeb t1
049e0     C0 85 3B F9 |                         getword t3,t1,#1
049e4     0F 80 07 FA |                         mul t1,#15
049e8     C0 2B C3 FC |                         xcont m_lut2,t1
049ec                 |                         
049ec     CC 89 A3 FA |                         rdlut   t5,backcolor            ' read a background color from palette      '13
049f0     99 89 33 FC |                         wrlut   t5,lutaddr              ' and write it to LUT #0 or #32             '14
049f4     01 32 07 F1 |                         add     lutaddr,#1                                                          '15
049f8     CD 89 A3 FA |                         rdlut   t5,charcolor            ' the same for the foreground               '16
049fc     99 89 33 FC |                         wrlut   t5,lutaddr                                                          '17
04a00     01 32 87 F1 |                         sub     lutaddr,#1 
04a04                 |                         
04a04     C0 87 EB F8 |                         getbyte t4,t1,#1        '          
04a08     C3 2B C3 FC |                         xcont m_lut2,t4                                                                                                           ' 
04a0c                 |                        
04a0c     0F 84 07 FA |                         mul t3,#15
04a10     C2 2B C3 FC |                         xcont m_lut2,t3
04a14                 |                         
04a14     C2 89 EB F8 |                         getbyte t5,t3,#1
04a18     C4 2B C3 FC |                         xcont m_lut2, t5
04a1c     10 2A E7 F4 |                         bitnot  m_lut2,#16                                                          '19
04a20     10 14 E7 F4 |                         bitnot  m_lut1,#16                                                          '19
04a24                 |                         
04a24     20 32 67 F5 |                         xor     lutaddr,#32             ' use LUT #0-1 and 32-33                    '20
04a28                 | 
04a28     E2 93 6F FB |                         djnz   cpl2,#p422              
04a2c     30 00 90 FD |  p421                   jmp    #p103 
04a30                 |                         
04a30                 | '--------------------------------------------------------------------------------------------------------------                      
04a30                 |         
04a30     BC 95 03 FB |  p430                   rdlong  char,framebuf2          ' read a long char                          '1
04a34     CA 99 F3 F8 |                         getbyte backcolor,char,#2       ' byte #2 - background color                '2
04a38     CA 9B FB F8 |                         getbyte charcolor,char,#3       ' byte #3 - foreground color                '3
04a3c                 |      
04a3c     00 2A C7 FC |                         xcont m_lut2,#0
04a40                 |    
04a40     CC 89 A3 FA |                         rdlut   t5,backcolor            ' read a background color from palette      '13
04a44     99 89 33 FC |                         wrlut   t5,lutaddr              ' and write it to LUT #0 or #32             '14
04a48     01 32 07 F1 |                         add     lutaddr,#1                                                          '15
04a4c     CD 89 A3 FA |                         rdlut   t5,charcolor            ' the same for the foreground               '16
04a50     99 89 33 FC |                         wrlut   t5,lutaddr                                                          '17
04a54     01 32 87 F1 |                         sub     lutaddr,#1  
04a58                 | 
04a58     F5 93 6F FB |                         djnz   cpl2,#p430   
04a5c     00 00 90 FD |  p431                   jmp    #p103
04a60                 |                         
04a60                 | ''------------------------------------------------------------------------------------------------------------
04a60                 |   
04a60                 |                     
04a60                 | 
04a60     89 81 33 F9 | p103            getword  t1,m_border,#0
04a64     00 80 0F F2 |                 cmp      t1, #0 wz
04a68     82 13 C3 5C |                 if_nz    xcont   m_border,border            'display a right border if exists
04a6c                 |                 
04a6c     B0 FD 9F FD |                 jmp #p302
04a70                 |                 
04a70                 | '' -------------------------------------- END of text line ---------------------------------              
04a70                 |                 
04a70                 |   '' aaaa_aaaa_aaaa_aaaa_aazz_rrrr_rrrr_cc_10 - graph - display a graphics line
04a70                 | 
04a70     EC FD BF FD | graphline       call    #hsync                          ' now call hsync to gain some time between xconts
04a74                 | 
04a74                 |                
04a74     89 81 33 F9 | p202            getword t1,m_border,#0                  
04a78     00 80 0F F2 |                 cmp     t1, #0 wz
04a7c     82 13 C3 5C |           if_nz xcont   m_border,border                 ' display a left border if exists
04a80                 |           
04a80                 | '----------------------------------------- display pixels
04a80                 |  
04a80     8A 2B 03 F6 |                 mov     m_lut2,m_lut1                   ' m_lut1 loaded from hub timing block, pixel per long
04a84     90 93 03 F6 |                 mov     cpl2,i_cpl                      ' i_cpl in graphic modes is longs per line
04a88                 | 
04a88     BA 9F 5B F8 |                 getnib  zoom, dl,#3
04a8c     03 9E 07 F5 |                 and		zoom, #3                        ' get a horizontal zoom for the line
04a90                 |              
04a90     BA 2F 03 F6 |                 mov     colordepth,dl                   ' get a color depth, reuse linestart var f         '
04a94     0C 2E 07 F5 |                 and     colordepth,#12
04a98                 |  
04a98     00 2E 0F F2 |                 cmp     colordepth,#%0000 wz            ' 1 bpp modes
04a9c     A9 2B 03 A1 |           if_z  add     m_lut2,lutg1   
04aa0     68 00 90 AD |           if_z  jmp     #p240
04aa4                 |           
04aa4     04 2E 0F F2 |                 cmp     colordepth,#%0100 wz            ' 2 bpp modes
04aa8     AA 2B 03 A1 |           if_z  add     m_lut2,lutg2   
04aac     D0 00 90 AD |           if_z  jmp     #p250
04ab0                 |           
04ab0     08 2E 0F F2 |                 cmp     colordepth,#%1000 wz            ' 4 bpp modes
04ab4     AB 2B 03 A1 |           if_z  add     m_lut2,lutg4   
04ab8     B4 01 90 AD |           if_z  jmp     #p260
04abc                 | 
04abc     AC 2B 03 F1 |                 add m_lut2,lutg8                        ' 8 bpp modes
04ac0                 |             
04ac0                 | '' --- 8 bit color modes 
04ac0                 | 
04ac0     00 9E 0F F2 |                 cmp zoom, #%00 wz   '256 colors, zoom x1
04ac4     D8 00 90 AD |                 if_z jmp #p251      'there is an universal loop for 1x zoom at p251, saves one long of skip pattern
04ac8                 |                    
04ac8     01 9E 0F F2 |                 cmp zoom, #%01 wz   '256 colors, zoom x2
04acc     2A 90 07 A6 |            if_z mov skippattern,#%101010
04ad0                 |  '         
04ad0     02 9E 0F F2 |                 cmp zoom, #%10 wz   '256 colors, zoom x4
04ad4     19 90 07 A6 |            if_z mov skippattern,#%011001
04ad8                 |  '     
04ad8     03 9E 0F F2 |                 cmp zoom, #%11 wz   '256 colors, zoom x8
04adc     11 90 07 A6 |           if_z  mov skippattern,#%010001
04ae0     01 92 47 A0 |           if_z  shr cpl2,#1         ' if 8x zoom, 2 xconts used in one loop, so divide loop count by 2
04ae4                 |               '
04ae4                 |                
04ae4     BC 95 03 FB | p231               rdlong  char,framebuf2           
04ae8     32 90 63 FD |                    skipf skippattern
04aec     50 94 FF F9 |                    movbyts char,#%01010000         '0 1 1
04af0     00 94 FF F9 |                    movbyts char,#%00000000         '1 0 0
04af4     CA 2B C3 FC |                    xcont   m_lut2,char             '0 0 0   
04af8     CA 2B C3 FC |                    xcont   m_lut2,char             '1 1 0
04afc                 |               '    add     framebuf2,#4            '1 1 1
04afc     02 78 07 F1 |                    add     framebuf2,#2			   '0 1 1
04b00     01 78 07 F1 |                    add     framebuf2,#1		       '1 0 0
04b04     F7 93 6F FB |                    djnz    cpl2,#p231                  
04b08                 |  
04b08     04 02 90 FD |                jmp    #p203
04b0c                 |          
04b0c                 | '' --- 1 bit color modes   
04b0c                 | 
04b0c     00 9E 0F F2 | p240          cmp zoom, #%00 wz     '2 colors, zoom x1
04b10     8C 00 90 AD |        if_z   jmp #p251              'there is an universal loop for 1x zoom at p251, saves one long of skip pattern 
04b14                 |                  
04b14     01 9E 0F F2 |               cmp zoom, #%01 wz     '2 colors, zoom x2
04b18     0B 00 00 AF 
04b1c     7C 91 07 A6 |        if_z   mov skippattern,##%1011101111100
04b20                 |            
04b20     02 9E 0F F2 |               cmp zoom, #%10 wz     '2 colors, zoom x4
04b24     07 00 00 AF 
04b28     70 91 07 A6 |        if_z   mov skippattern,##%0111101110000
04b2c                 |       
04b2c     03 9E 0F F2 |               cmp zoom, #%11 wz     '2 colors, zoom x8
04b30     04 00 00 AF 
04b34     00 90 07 A6 |        if_z   mov skippattern,##%0100000000000
04b38     01 92 47 A0 |        if_z   shr cpl2,#1
04b3c                 |  
04b3c                 |          
04b3c     BC 95 03 FB | p241               rdlong  char,framebuf2           
04b40     32 90 63 FD |                    skipf skippattern                   
04b44     44 94 FF F9 |                    movbyts char,#%01000100         '1 0 0 0
04b48     63 94 63 FD |                    mergew  char                    '1 0 0 0
04b4c     44 94 FF F9 |                    movbyts char,#%01000100         '1 1 0 0
04b50     63 94 63 FD |                    mergew  char                    '1 1 0 0
04b54     CA 97 3B F9 |                    getword char2,char,#1           '1 1 1 0
04b58     44 94 FF F9 |                    movbyts char,#%01000100         '1 1 1 0
04b5c     63 94 63 FD |                    mergew  char                    '1 1 1 0
04b60     CA 2B C3 FC |                    xcont   m_lut2,char             '0 0 0 0 
04b64     44 96 FF F9 |                    movbyts char2,#%01000100        '1 1 1 0
04b68     63 96 63 FD |                    mergew char2                    '1 1 1 0
04b6c     CB 2B C3 FC |                    xcont   m_lut2,char2            '1 1 1 0
04b70     02 78 07 F1 |                    add     framebuf2,#2			   '1 0 1 1
04b74     01 78 07 F1 |                    add     framebuf2,#1		       '1 1 0 0
04b78     F0 93 6F FB |                    djnz   cpl2,#p241     
04b7c                 |                 
04b7c                 |  
04b7c     90 01 90 FD |                jmp    #p203
04b80                 | 
04b80                 | '' --- 2 bit color modes   
04b80                 | 
04b80     00 9E 0F F2 | p250          cmp zoom, #%00 wz     '4 colors, zoom x1
04b84     18 00 90 AD |        if_z   jmp #p251 
04b88                 |              
04b88     01 9E 0F F2 |               cmp zoom, #%01 wz     '4 colors, zoom x2
04b8c     24 00 90 AD |        if_z   jmp #p252   
04b90                 |            
04b90     02 9E 0F F2 |               cmp zoom, #%10 wz     '4 colors, zoom x4
04b94     4C 00 90 AD |        if_z   jmp #p254        
04b98                 |       
04b98     01 92 47 F0 |               shr cpl2,#1
04b9c     74 00 90 FD |               jmp #p256        
04ba0                 |                 
04ba0                 |       
04ba0                 |          
04ba0     BC 95 03 FB | p251               rdlong  char,framebuf2           
04ba4     CA 2B C3 FC |                    xcont   m_lut2,char 
04ba8     04 78 07 F1 |                    add     framebuf2,#4          
04bac     FC 93 6F FB |                    djnz    cpl2,#p251  
04bb0     5C 01 90 FD |                    jmp     #p203  
04bb4                 |   
04bb4     BC 95 E3 FA | p252               rdword char,framebuf2
04bb8     08 88 07 F6 |                    mov  t5,#8  
04bbc     02 94 67 F0 | p253               shl  char,#2                  
04bc0     CA 81 63 F8 |                    getnib  t1,char,#4            
04bc4     03 80 07 F5 |                    and     t1,#3                
04bc8     05 80 07 FA |                    mul     t1,#5                
04bcc     C0 83 83 F8 |                    rolnib  t2,t1,#0              
04bd0     FA 89 6F FB |                    djnz    t5,#p253              
04bd4     C1 2B C3 FC |                    xcont   m_lut2,t2 
04bd8     02 78 07 F1 |                    add     framebuf2,#2          
04bdc     F5 93 6F FB |                    djnz    cpl2,#p252  
04be0     2C 01 90 FD |                    jmp     #p203                    
04be4                 | 
04be4     BC 95 C3 FA | p254               rdbyte char,framebuf2
04be8     04 88 07 F6 |                    mov  t5,#4  
04bec     02 94 67 F0 | p255               shl  char,#2              
04bf0     CA 81 53 F8 |                    getnib  t1,char,#2           
04bf4     03 80 07 F5 |                    and     t1,#3                '1 0 0 0
04bf8     55 80 07 FA |                    mul     t1,#$55                '1 0 1 1
04bfc     C0 83 03 F9 |                    rolbyte  t2,t1,#0             '1 0 1 1
04c00     FA 89 6F FB |                    djnz    t5,#p255             '1 0 0 0  
04c04     C1 2B C3 FC |                    xcont   m_lut2,t2 
04c08     01 78 07 F1 |                    add     framebuf2,#1         '0 1 1 1 
04c0c     F5 93 6F FB |                    djnz    cpl2,#p254  
04c10     FC 00 90 FD |                    jmp     #p203                    
04c14                 |                      
04c14     BC 95 C3 FA | p256               rdbyte char,framebuf2
04c18     CA 85 03 F6 |                    mov t3,char
04c1c     02 88 07 F6 |                    mov  t5,#2  
04c20     02 94 67 F0 | p257               shl  char,#2              '1 0 0 0
04c24     CA 81 4B F8 |                    getnib  t1,char,#1          '1 0 1 1
04c28                 |  
04c28     03 80 07 F5 |                    and     t1,#3                '1 0 0 0
04c2c     2A 00 00 FF 
04c30     55 81 07 FA |                    mul     t1,##$5555                '1 0 1 1
04c34     C0 83 43 F9 |                    rolword  t2,t1,#0             '1 0 1 1
04c38     F9 89 6F FB |                    djnz    t5,#p257             '1 0 0 0  
04c3c     C1 2B C3 FC |                    xcont   m_lut2,t2
04c40     02 88 07 F6 |                    mov t5,#2
04c44                 |                   
04c44                 | p258                    
04c44     02 84 67 F0 |                    shl t3,#2
04c48     C2 81 53 F8 |                    getnib  t1,t3,#2 
04c4c     03 80 07 F5 |                    and     t1,#3                '1 0 0 0
04c50     2A 00 00 FF 
04c54     55 81 07 FA |                    mul     t1,##$5555                '1 0 1 1
04c58     C0 83 43 F9 |                    rolword  t2,t1,#0             '1 0 1 1
04c5c     F9 89 6F FB |                    djnz    t5,#p258             '1 0 0 0  
04c60     C1 2B C3 FC |                    xcont   m_lut2,t2
04c64                 |  
04c64                 |                     
04c64     01 78 07 F1 |                    add     framebuf2,#1         '0 1 1 1 
04c68     EA 93 6F FB |                    djnz    cpl2,#p256  
04c6c     A0 00 90 FD |                    jmp     #p203        
04c70                 |   
04c70                 | 
04c70     00 9E 0F F2 | p260          cmp zoom, #%00 wz     '4 colors, zoom x1, the same loop as 2bpp
04c74     28 FF 9F AD |        if_z   jmp #p251 
04c78                 |              
04c78     01 9E 0F F2 |              cmp zoom, #%01 wz     '4 colors, zoom x2
04c7c     10 00 90 AD |        if_z   jmp #p262   
04c80                 |            
04c80     02 9E 0F F2 |                cmp zoom, #%10 wz     '4 colors, zoom x4
04c84     2C 00 90 AD |         if_z   jmp #p263        
04c88     01 92 47 F0 |             shr cpl2,#1
04c8c     50 00 90 FD |            jmp #p264        
04c90                 |                 
04c90                 |         
04c90     BC 95 E3 FA | p262               rdword  char,framebuf2           
04c94     04 06 DC FC |     			   rep #3,#4
04c98     CA 83 9B F8 |     			     rolnib t2,char,#3
04c9c     CA 83 9B F8 |    		  	         rolnib t2,char,#3
04ca0     04 94 67 F0 |     			     shl char,#4
04ca4     C1 2B C3 FC |                    xcont   m_lut2,t2 
04ca8     02 78 07 F1 |                    add     framebuf2,#2          
04cac     F8 93 6F FB |                    djnz    cpl2,#p262  
04cb0     5C 00 90 FD |                    jmp     #p203 
04cb4                 | 
04cb4                 | 
04cb4     BC 95 C3 FA | p263               rdbyte char,framebuf2           
04cb8     02 0A DC FC |     			   rep #5,#2
04cbc     CA 83 8B F8 |     			     rolnib t2,char,#1
04cc0     CA 83 8B F8 |    		  	         rolnib t2,char,#1
04cc4     CA 83 8B F8 |     			     rolnib t2,char,#1
04cc8     CA 83 8B F8 |    		  	         rolnib t2,char,#1
04ccc     04 94 67 F0 |     			     shl char,#4
04cd0     C1 2B C3 FC |                    xcont   m_lut2,t2 
04cd4     01 78 07 F1 |                    add     framebuf2,#1          
04cd8     F6 93 6F FB |                    djnz    cpl2,#p263  
04cdc     30 00 90 FD |                    jmp     #p203 
04ce0                 | 
04ce0                 |       
04ce0     BC 95 C3 FA | p264               rdbyte char,framebuf2           
04ce4     CA 83 43 F8 |     		       getnib t2,char,#0
04ce8     11 82 07 FA |    		  	       mul t2,#17
04cec     00 82 FF F9 |    		  	       movbyts t2,#0
04cf0     C1 2B C3 FC |                    xcont   m_lut2,t2 
04cf4     CA 85 4B F8 |    		           getnib t3,char,#1
04cf8     11 84 07 FA |    		  	       mul t3,#17
04cfc     00 84 FF F9 |    		  	       movbyts t3,#0
04d00     C2 2B C3 FC |                    xcont   m_lut2,t3 
04d04                 |                    
04d04                 |                    
04d04     01 78 07 F1 |                    add     framebuf2,#1          
04d08     F5 93 6F FB |                    djnz    cpl2,#p264  
04d0c     00 00 90 FD |                    jmp     #p203 
04d10                 | 
04d10                 |       
04d10                 |  
04d10                 | 
04d10                 |  ''-----------------------------------------------------------------------------------------
04d10     89 81 33 F9 | p203            getword  t1,m_border,#0
04d14     00 80 0F F2 |                 cmp      t1, #0 wz
04d18     82 13 C3 5C |                 if_nz    xcont   m_border,border            'display a right border if exists
04d1c                 |                 
04d1c     00 FB 9F FD |                 jmp #p302
04d20                 |                 
04d20                 | '' -------------------------------------- END of graph  line ---------------------------------              
04d20                 | 
04d20                 | '' consts and vars
04d20                 | 
04d20     52 4D 35 D5 | sync_000        long    %1101010100_1101010100_1101010100_10    '
04d24     AE 42 35 D5 | sync_001        long    %1101010100_1101010100_0010101011_10    '        hsync
04d28     52 45 15 55 | sync_222        long    %0101010100_0101010100_0101010100_10    'vsync
04d2c     AE 4A 15 55 | sync_223        long    %0101010100_0101010100_1010101011_10    'vsync + hsync
04d30                 | 
04d30     00 2C 1A 00 | border          long    %00000000_00011010_00101100_00000000
04d34                 | 
04d34                 | '------ these longs will be set by setmode function
04d34     01 00 00 00 | outerloop long 1
04d38     FF 00 00 00 | andvalue long $FF
04d3c     00 00 00 00 | m_bs            long    0        'blanks before sync
04d40     00 00 00 00 | m_sn            long    0        'sync
04d44     00 00 00 00 | m_bv            long    0        'blanks before visible
04d48     00 00 00 00 | m_vi            long    0        'visible pixels #
04d4c     00 00 00 00 | m_border        long    0        'left/right borders
04d50     00 00 00 00 | m_lut1          long    0        'characters
04d54     00 00 00 00 | i_vborder       long    0        'up/down borders
04d58     00 00 00 00 | i_upporch       long    0        'up porch lines
04d5c     00 00 00 00 | i_vsync         long    0        'vsync lines
04d60     00 00 00 00 | i_downporch     long    0        'down porch lines
04d64     00 00 00 00 | i_modenum       long    0        'mode #
04d68     00 00 00 00 | i_cpl           long    0        'chars/longs per line
04d6c     00 00 00 00 | i_lines         long    0        'scanlines #
04d70     00 00 00 00 | i_clock         long    0
04d74     00 00 00 00 | i_hubset        long    0
04d78     00 00 00 00 | i_totalvis      long    0 
04d7c     00 00 00 00 | m_lut2          long    0
04d80                 | 
04d80     04 00 00 00 | ashr            long    4
04d84                 | colordepth
04d84     00 00 00 00 | linestart       long    0
04d88     00 00 00 00 | linenum         long    0
04d8c     00 01 00 00 | lutaddr         long    256
04d90                 | 
04d90     0E 00 00 00 | cursorsh        long    14
04d94     00 00 00 00 | frames          long    0
04d98     00 00 00 00 | cursorx         long    0
04d9c     00 00 00 00 | cursory         long    0
04da0     00 00 00 00 | cursorpos       long    0
04da4     00 00 00 00 | cursorpos2      long    0
04da8     00 00 00 00 | fontstart       long    0
04dac     00 00 00 FF | aredtest long $FF000000
04db0     00 00 00 00 | border2 long 0
04db4     FF F9 FF 07 | skipft1 long     %111111111111111100111111111
04db8     E1 79 9E 07 | skipft2 long     %111100111100111100111100001
04dbc     01 00 00 00 | skipft4 long     %000000000000000000000000001
04dc0     FE F9 FF 07 | skipftblank long %111111111111111100111111110
04dc4     00 00 81 70 | lutiv	        long $70810000
04dc8     00 00 88 00 | lutt1           long $00880000 
04dcc     00 00 8D 00 | lutg1           long $008d0000
04dd0     00 00 8E 10 | lutg2           long $108e0000
04dd4     00 00 8F 20 | lutg4           long $208f0000 
04dd8     00 00 80 30 | lutg8           long $30800000
04ddc                 | framebuf        res     1
04ddc                 | fontbuf         res     1
04ddc                 | borderptr       res     1
04ddc                 | vblankptr       res     1
04ddc                 | cursorptr       res     1
04ddc                 | modeptr         res     1
04ddc                 | paletteptr      res     1
04ddc                 | commandptr      res     1
04ddc                 | dlptr			res     1
04ddc                 | fontnumptr      res     1
04ddc                 | hbase           res     1
04ddc                 | borderptr2      res     1
04ddc                 | dlptr2 res 1
04ddc                 | dl              res 1
04ddc                 | ii              res     1
04ddc                 | framebuf2       res     1
04ddc                 | hsync0          res     1
04ddc                 | hsync1          res     1
04ddc                 | fontline        res     1
04ddc                 | t1              res     1
04ddc                 | t2              res     1
04ddc                 | t3 res 1
04ddc                 | t4 res 1
04ddc                 | t5 res 1
04ddc                 | t6 res 1
04ddc                 | t7 res 1
04ddc                 | colors1 res 1
04ddc                 | skippattern res 1
04ddc                 | cpl2 res 1
04ddc                 | char            res     1
04ddc                 | char2   res 1
04ddc                 | backcolor       res     1
04ddc                 | charcolor       res     1
04ddc                 | repnum res 1
04ddc                 | zoom res 1
04ddc     00 00 00 00 | aend             long 0
04de0                 | objmem
04de0     00 00 00 00 | 	long	0[1]
04de4 07c             | 	org	COG_BSS_START
04de4 07c             | _var01
04de4 07c             | 	res	1
04de4 07d             | _var02
04de4 07d             | 	res	1
04de4 07e             | _var03
04de4 07e             | 	res	1
04de4 07f             | _var04
04de4 07f             | 	res	1
04de4 080             | _var05
04de4 080             | 	res	1
04de4 081             | _var06
04de4 081             | 	res	1
04de4 082             | _var07
04de4 082             | 	res	1
04de4 083             | _var08
04de4 083             | 	res	1
04de4 084             | _var09
04de4 084             | 	res	1
04de4 085             | _var10
04de4 085             | 	res	1
04de4 086             | _var100
04de4 086             | 	res	1
04de4 087             | _var101
04de4 087             | 	res	1
04de4 088             | _var102
04de4 088             | 	res	1
04de4 089             | _var103
04de4 089             | 	res	1
04de4 08a             | _var104
04de4 08a             | 	res	1
04de4 08b             | _var105
04de4 08b             | 	res	1
04de4 08c             | _var106
04de4 08c             | 	res	1
04de4 08d             | _var107
04de4 08d             | 	res	1
04de4 08e             | _var108
04de4 08e             | 	res	1
04de4 08f             | _var109
04de4 08f             | 	res	1
04de4 090             | _var11
04de4 090             | 	res	1
04de4 091             | _var110
04de4 091             | 	res	1
04de4 092             | _var111
04de4 092             | 	res	1
04de4 093             | _var112
04de4 093             | 	res	1
04de4 094             | _var113
04de4 094             | 	res	1
04de4 095             | _var114
04de4 095             | 	res	1
04de4 096             | _var115
04de4 096             | 	res	1
04de4 097             | _var116
04de4 097             | 	res	1
04de4 098             | _var117
04de4 098             | 	res	1
04de4 099             | _var118
04de4 099             | 	res	1
04de4 09a             | _var119
04de4 09a             | 	res	1
04de4 09b             | _var12
04de4 09b             | 	res	1
04de4 09c             | _var120
04de4 09c             | 	res	1
04de4 09d             | _var13
04de4 09d             | 	res	1
04de4 09e             | _var14
04de4 09e             | 	res	1
04de4 09f             | _var15
04de4 09f             | 	res	1
04de4 0a0             | _var16
04de4 0a0             | 	res	1
04de4 0a1             | _var17
04de4 0a1             | 	res	1
04de4 0a2             | _var18
04de4 0a2             | 	res	1
04de4 0a3             | _var19
04de4 0a3             | 	res	1
04de4 0a4             | _var20
04de4 0a4             | 	res	1
04de4 0a5             | _var21
04de4 0a5             | 	res	1
04de4 0a6             | _var22
04de4 0a6             | 	res	1
04de4 0a7             | _var23
04de4 0a7             | 	res	1
04de4 0a8             | _var24
04de4 0a8             | 	res	1
04de4 0a9             | _var25
04de4 0a9             | 	res	1
04de4 0aa             | _var26
04de4 0aa             | 	res	1
04de4 0ab             | _var27
04de4 0ab             | 	res	1
04de4 0ac             | _var28
04de4 0ac             | 	res	1
04de4 0ad             | _var29
04de4 0ad             | 	res	1
04de4 0ae             | _var30
04de4 0ae             | 	res	1
04de4 0af             | _var31
04de4 0af             | 	res	1
04de4 0b0             | _var32
04de4 0b0             | 	res	1
04de4 0b1             | _var33
04de4 0b1             | 	res	1
04de4 0b2             | _var34
04de4 0b2             | 	res	1
04de4 0b3             | _var35
04de4 0b3             | 	res	1
04de4 0b4             | _var36
04de4 0b4             | 	res	1
04de4 0b5             | _var37
04de4 0b5             | 	res	1
04de4 0b6             | _var38
04de4 0b6             | 	res	1
04de4 0b7             | _var39
04de4 0b7             | 	res	1
04de4 0b8             | _var40
04de4 0b8             | 	res	1
04de4 0b9             | _var41
04de4 0b9             | 	res	1
04de4 0ba             | _var42
04de4 0ba             | 	res	1
04de4 0bb             | _var43
04de4 0bb             | 	res	1
04de4 0bc             | _var44
04de4 0bc             | 	res	1
04de4 0bd             | _var45
04de4 0bd             | 	res	1
04de4 0be             | _var46
04de4 0be             | 	res	1
04de4 0bf             | _var47
04de4 0bf             | 	res	1
04de4 0c0             | _var48
04de4 0c0             | 	res	1
04de4 0c1             | _var49
04de4 0c1             | 	res	1
04de4 0c2             | _var50
04de4 0c2             | 	res	1
04de4 0c3             | _var51
04de4 0c3             | 	res	1
04de4 0c4             | _var52
04de4 0c4             | 	res	1
04de4 0c5             | _var53
04de4 0c5             | 	res	1
04de4 0c6             | _var54
04de4 0c6             | 	res	1
04de4 0c7             | _var55
04de4 0c7             | 	res	1
04de4 0c8             | _var56
04de4 0c8             | 	res	1
04de4 0c9             | _var57
04de4 0c9             | 	res	1
04de4 0ca             | _var58
04de4 0ca             | 	res	1
04de4 0cb             | _var59
04de4 0cb             | 	res	1
04de4 0cc             | _var60
04de4 0cc             | 	res	1
04de4 0cd             | _var61
04de4 0cd             | 	res	1
04de4 0ce             | _var62
04de4 0ce             | 	res	1
04de4 0cf             | _var63
04de4 0cf             | 	res	1
04de4 0d0             | _var64
04de4 0d0             | 	res	1
04de4 0d1             | _var65
04de4 0d1             | 	res	1
04de4 0d2             | _var66
04de4 0d2             | 	res	1
04de4 0d3             | _var67
04de4 0d3             | 	res	1
04de4 0d4             | _var68
04de4 0d4             | 	res	1
04de4 0d5             | _var69
04de4 0d5             | 	res	1
04de4 0d6             | _var70
04de4 0d6             | 	res	1
04de4 0d7             | _var71
04de4 0d7             | 	res	1
04de4 0d8             | _var72
04de4 0d8             | 	res	1
04de4 0d9             | _var73
04de4 0d9             | 	res	1
04de4 0da             | _var74
04de4 0da             | 	res	1
04de4 0db             | _var75
04de4 0db             | 	res	1
04de4 0dc             | _var76
04de4 0dc             | 	res	1
04de4 0dd             | _var77
04de4 0dd             | 	res	1
04de4 0de             | _var78
04de4 0de             | 	res	1
04de4 0df             | _var79
04de4 0df             | 	res	1
04de4 0e0             | _var80
04de4 0e0             | 	res	1
04de4 0e1             | _var81
04de4 0e1             | 	res	1
04de4 0e2             | _var82
04de4 0e2             | 	res	1
04de4 0e3             | _var83
04de4 0e3             | 	res	1
04de4 0e4             | _var84
04de4 0e4             | 	res	1
04de4 0e5             | _var85
04de4 0e5             | 	res	1
04de4 0e6             | _var86
04de4 0e6             | 	res	1
04de4 0e7             | _var87
04de4 0e7             | 	res	1
04de4 0e8             | _var88
04de4 0e8             | 	res	1
04de4 0e9             | _var89
04de4 0e9             | 	res	1
04de4 0ea             | _var90
04de4 0ea             | 	res	1
04de4 0eb             | _var91
04de4 0eb             | 	res	1
04de4 0ec             | _var92
04de4 0ec             | 	res	1
04de4 0ed             | _var93
04de4 0ed             | 	res	1
04de4 0ee             | _var94
04de4 0ee             | 	res	1
04de4 0ef             | _var95
04de4 0ef             | 	res	1
04de4 0f0             | _var96
04de4 0f0             | 	res	1
04de4 0f1             | _var97
04de4 0f1             | 	res	1
04de4 0f2             | _var98
04de4 0f2             | 	res	1
04de4 0f3             | _var99
04de4 0f3             | 	res	1
04de4 0f4             | arg01
04de4 0f4             | 	res	1
04de4 0f5             | arg02
04de4 0f5             | 	res	1
04de4 0f6             | arg03
04de4 0f6             | 	res	1
04de4 0f7             | arg04
04de4 0f7             | 	res	1
04de4 0f8             | arg05
04de4 0f8             | 	res	1
04de4 0f9             | local01
04de4 0f9             | 	res	1
04de4 0fa             | local02
04de4 0fa             | 	res	1
04de4 0fb             | local03
04de4 0fb             | 	res	1
04de4 0fc             | local04
04de4 0fc             | 	res	1
04de4 0fd             | local05
04de4 0fd             | 	res	1
04de4 0fe             | local06
04de4 0fe             | 	res	1
04de4 0ff             | local07
04de4 0ff             | 	res	1
04de4 100             | local08
04de4 100             | 	res	1
04de4 101             | local09
04de4 101             | 	res	1
04de4 102             | local10
04de4 102             | 	res	1
04de4 103             | local11
04de4 103             | 	res	1
04de4 104             | local12
04de4 104             | 	res	1
04de4 105             | local13
04de4 105             | 	res	1
04de4 106             | local14
04de4 106             | 	res	1
04de4 107             | local15
04de4 107             | 	res	1
04de4 108             | local16
04de4 108             | 	res	1
04de4 109             | local17
04de4 109             | 	res	1
04de4 10a             | local18
04de4 10a             | 	res	1
04de4 10b             | local19
04de4 10b             | 	res	1
04de4 10c             | local20
04de4 10c             | 	res	1
04de4 10d             | local21
04de4 10d             | 	res	1
04de4 10e             | local22
04de4 10e             | 	res	1
04de4 10f             | local23
04de4 10f             | 	res	1
04de4 110             | local24
04de4 110             | 	res	1
04de4 111             | local25
04de4 111             | 	res	1
04de4 112             | local26
04de4 112             | 	res	1
04de4 113             | local27
04de4 113             | 	res	1
04de4 114             | local28
04de4 114             | 	res	1
04de4 115             | local29
04de4 115             | 	res	1
04de4 116             | local30
04de4 116             | 	res	1
04de4 117             | local31
04de4 117             | 	res	1
04de4 118             | local32
04de4 118             | 	res	1
04de4 119             | local33
04de4 119             | 	res	1
04de4 11a             | local34
04de4 11a             | 	res	1
04de4 11b             | local35
04de4 11b             | 	res	1
04de4 11c             | local36
04de4 11c             | 	res	1
04de4 11d             | local37
04de4 11d             | 	res	1
04de4 11e             | local38
04de4 11e             | 	res	1
04de4 11f             | local39
04de4 11f             | 	res	1
04de4 120             | local40
04de4 120             | 	res	1
04de4 121             | local41
04de4 121             | 	res	1
04de4 122             | local42
04de4 122             | 	res	1
04de4 123             | local43
04de4 123             | 	res	1
04de4 124             | local44
04de4 124             | 	res	1
04de4 125             | local45
04de4 125             | 	res	1
04de4 126             | local46
04de4 126             | 	res	1
04de4 127             | local47
04de4 127             | 	res	1
04de4 128             | local48
04de4 128             | 	res	1
04de4 129             | local49
04de4 129             | 	res	1
04de4 12a             | local50
04de4 12a             | 	res	1
04de4 12b             | local51
04de4 12b             | 	res	1
04de4 12c             | local52
04de4 12c             | 	res	1
04de4 12d             | local53
04de4 12d             | 	res	1
04de4 12e             | local54
04de4 12e             | 	res	1
04de4 12f             | local55
04de4 12f             | 	res	1
04de4 130             | local56
04de4 130             | 	res	1
04de4 131             | local57
04de4 131             | 	res	1
04de4 132             | local58
04de4 132             | 	res	1
04de4 133             | local59
04de4 133             | 	res	1
04de4 134             | local60
04de4 134             | 	res	1
04de4 135             | local61
04de4 135             | 	res	1
04de4 136             | local62
04de4 136             | 	res	1
04de4 137             | local63
04de4 137             | 	res	1
04de4 138             | local64
04de4 138             | 	res	1
04de4 139             | local65
04de4 139             | 	res	1
04de4 13a             | local66
04de4 13a             | 	res	1
04de4 13b             | local67
04de4 13b             | 	res	1
04de4 13c             | local68
04de4 13c             | 	res	1
04de4 13d             | muldiva_
04de4 13d             | 	res	1
04de4 13e             | muldivb_
04de4 13e             | 	res	1
04de4 13f             | 	fit	480