00000                 | 
00000                 | #line 1 "D:/programowanie/20210307-ultibo-propeller/ultibo-propeller/hng012/hng025.p2asm"
00000                 | ' 
00000                 | ' 
00000                 | ' hdmi_base       = 48             'must be a multiple of 8
00000                 | con
00000                 | 	hdmi_base = 48
00000                 | ' _clkfreq        = 345_000_000    'start safe, hubset will do the rest. The clock will be changed to:
00000                 | 	_clkfreq = 345000000
00000                 | ' 
00000                 | ' ' 354_689_500   200x Atari 8-bit PAL,  50x Amiga PAL  - real settings: 49,869-> 354_693_878  - 1.0000123 - mode 0 and 192
00000                 | ' ' 357_954_500   200x Atari 8-bit NTSC, 50x Amiga NTSC - real settings: 49,877-> 357_959_184  - 1.0000131 - mode 256
00000                 | ' 
00000                 | ' ' 319_220_550   180x PAL  - real settings: 51,814-> 319_215_686 - 0.9999848 - mode 64
00000                 | ' ' 322_159_050   180x NTSC - real settings: 37,596-> 322_162_162 - 1.0000097 - mode 320 and 448
00000                 | ' 
00000                 | ' ' 283_751_600   160x PAL  - real settings: 64,908-> 283_750_000 - 0.9999944 - mode 128
00000                 | ' ' 286_363_600   160x NTSC - real settings: 22,315-> 286_363_636 - 1.0000001 - mode 384
00000                 | ' 
00000                 | ' ''--------- VGA DOS color definition constants
00000                 | ' 
00000                 | ' c_black         =    0
00000                 | 	c_black = 0
00000                 | ' c_blue          =  117
00000                 | 	c_blue = 117
00000                 | ' c_green         =  199
00000                 | 	c_green = 199
00000                 | ' c_cyan          =  149
00000                 | 	c_cyan = 149
00000                 | ' c_red           =   39
00000                 | 	c_red = 39
00000                 | ' c_magenta       =   71
00000                 | 	c_magenta = 71
00000                 | ' c_brown         =  246
00000                 | 	c_brown = 246
00000                 | ' c_lightgray     =   10
00000                 | 	c_lightgray = 10
00000                 | ' c_darkgray      =    5
00000                 | 	c_darkgray = 5
00000                 | ' c_lightblue     =  121
00000                 | 	c_lightblue = 121
00000                 | ' c_lightgreen    =  203
00000                 | 	c_lightgreen = 203
00000                 | ' c_lightcyan     =  155
00000                 | 	c_lightcyan = 155
00000                 | ' c_lightred      =   43
00000                 | 	c_lightred = 43
00000                 | ' c_lightmagenta  =   75
00000                 | 	c_lightmagenta = 75
00000                 | ' c_yellow        =  234
00000                 | 	c_yellow = 234
00000                 | ' c_white         =   15
00000                 | 	c_white = 15
00000                 | ' 
00000                 | ' timingsxxt      =  $70810000
00000                 | 	timingsxxt = 1887502336
00000                 | dat
00000 000 00 00 00 00 | 	nop
00004 001 01 EC 63 FD | 	cogid	pa
00008 002 02 00 00 FF 
0000c 003 04 EC E7 FC | 	coginit	pa,##$404
00010                 | 	orgh	$10
00010     00 00 00 00 | 	long	0	'reserved
00014     00 00 00 00 | 	long	0 ' clock frequency: will default to 345000000
00018     00 00 00 00 | 	long	0 ' clock mode: will default to $10c44fb
0001c     00 00 00 00 
      ...             
003f8     00 00 00 00 
003fc     00 00 00 00 | 	orgh	$400
00400     00 BE 05 06 |  _ret_	mov	result1, #0
00404 000             | 	org	0
00404 000             | entry
00404 000 00 F0 0F F2 | 	cmp	ptra, #0 wz
00408 001 14 02 90 5D |  if_ne	jmp	#spininit
0040c 002 D7 F0 03 F6 | 	mov	ptra, objptr
00410 003 EC F0 07 F1 | 	add	ptra, #236
00414 004 14 EC 0F FB | 	rdlong	pa, #20 wz
00418 005 E8 01 90 5D |  if_ne	jmp	#skip_clock_set_
0041c 006 00 00 64 FD | 	hubset	#0
00420 007 22 86 80 FF 
00424 008 00 F0 65 FD | 	hubset	##17581304
00428 009 86 01 80 FF 
0042c 00a 1F 80 66 FD | 	waitx	##200000
00430 00b 22 86 00 FF 
00434 00c FB EC 07 F6 | 	mov	pa, ##17581307
00438 00d 00 EC 63 FD | 	hubset	pa
0043c 00e 18 EC 67 FC | 	wrlong	pa, #24
00440 00f 24 48 8A FF 
00444 010 14 80 6C FC | 	wrlong	##345000000, #20
00448 011 B8 01 90 FD | 	jmp	#skip_clock_set_
0044c 012 00 00 00 00 
      ...             
005fc 07e 00 00 00 00 
00600 07f 00 00 00 00 | 	orgf	128
00604 080             | skip_clock_set_
00604 080 04 A8 61 FD | 	locknew	__lockreg
00608 081 D8 A8 61 FC | 	wrlong	__lockreg, ptr___lockreg_
0060c 082 88 07 A0 FD | 	call	#_dummy
00610 083             | cogexit
00610 083 38 01 80 FF 
00614 084 1F 00 66 FD | 	waitx	##160000
00618 085 01 20 62 FD | 	cogid	arg01
0061c 086 03 20 62 FD | 	cogstop	arg01
00620 087             | spininit
00620 087 00 AF 05 FB | 	rdlong	objptr, ptra
00624 088 04 F0 07 F1 | 	add	ptra, #4
00628 089 00 BF 05 FB | 	rdlong	result1, ptra
0062c 08a 04 F0 07 F1 | 	add	ptra, #4
00630 08b 00 21 06 FB | 	rdlong	arg01, ptra
00634 08c 04 F0 07 F1 | 	add	ptra, #4
00638 08d 00 23 06 FB | 	rdlong	arg02, ptra
0063c 08e 04 F0 07 F1 | 	add	ptra, #4
00640 08f 00 25 06 FB | 	rdlong	arg03, ptra
00644 090 04 F0 07 F1 | 	add	ptra, #4
00648 091 00 27 06 FB | 	rdlong	arg04, ptra
0064c 092 10 F0 87 F1 | 	sub	ptra, #16
00650 093 2D BE 61 FD | 	call	result1
00654 094 B8 FF 9F FD | 	jmp	#cogexit
00658 095             | FCACHE_LOAD_
00658 095 2B 42 61 FD |     pop	fcache_tmpb_
0065c 096 F6 43 01 F1 |     add	fcache_tmpb_, pa
00660 097 2A 42 61 FD |     push	fcache_tmpb_
00664 098 F6 43 81 F1 |     sub	fcache_tmpb_, pa
00668 099 02 EC 47 F0 |     shr	pa, #2
0066c 09a 00 EC 8F F9 |     altd	pa
00670 09b A0 00 00 F6 |     mov	 0-0, ret_instr_
00674 09c 01 EC 87 F1 |     sub	pa, #1
00678 09d 28 EC 63 FD |     setq	pa
0067c 09e A1 00 00 FB |     rdlong	$0, fcache_tmpb_
00680 09f 00 00 80 FD |     jmp	#\$0 ' jmp to cache
00684 0a0             | ret_instr_
00684 0a0 2D 00 64 FD |     ret
00688 0a1             | fcache_tmpb_
00688 0a1 00 00 00 00 |     long 0
0068c 0a2             | COUNT_
0068c 0a2 00 00 00 00 |     long 0
00690 0a3             | RETADDR_
00690 0a3 00 00 00 00 |     long 0
00694 0a4             | fp
00694 0a4 00 00 00 00 |     long 0
00698 0a5             | gosub_
00698 0a5 00 44 05 F6 |     mov  COUNT_, #0
0069c 0a6 10 ED 03 F6 |     mov  pa, arg01
006a0 0a7 2B 46 61 FD |     pop  RETADDR_
006a4 0a8 1C 00 90 FD |     jmp  #pushregs_done_
006a8 0a9             | pushregs_
006a8 0a9 2B EC 63 FD |     pop  pa
006ac 0aa 2B 46 61 FD |     pop  RETADDR_
006b0 0ab 04 44 95 FB |     tjz  COUNT_, #pushregs_done_
006b4 0ac 01 44 85 F1 |     sub  COUNT_, #1
006b8 0ad 28 44 61 FD |     setq COUNT_
006bc 0ae 00 2B 66 FC |     wrlong local01, ptra
006c0 0af 01 44 05 F1 |     add  COUNT_, #1
006c4 0b0             | pushregs_done_
006c4 0b0 02 44 65 F0 |     shl  COUNT_, #2
006c8 0b1 A2 F0 03 F1 |     add  ptra, COUNT_
006cc 0b2 02 44 45 F0 |     shr  COUNT_, #2
006d0 0b3 28 04 64 FD |     setq #2 ' push 3 registers starting at COUNT_
006d4 0b4 00 45 65 FC |     wrlong COUNT_, ptra
006d8 0b5 0C F0 07 F1 |     add    ptra, #12
006dc 0b6 F8 49 01 F6 |     mov    fp, ptra
006e0 0b7 2C EC 63 FD |     jmp  pa
006e4 0b8             |  popregs_
006e4 0b8 2B EC 63 FD |     pop    pa
006e8 0b9 0C F0 87 F1 |     sub    ptra, #12
006ec 0ba 28 04 64 FD |     setq   #2
006f0 0bb 00 45 05 FB |     rdlong COUNT_, ptra
006f4 0bc 06 44 95 FB |     tjz    COUNT_, #popregs__ret
006f8 0bd 02 44 65 F0 |     shl    COUNT_, #2
006fc 0be A2 F0 83 F1 |     sub    ptra, COUNT_
00700 0bf 02 44 45 F0 |     shr    COUNT_, #2
00704 0c0 01 44 85 F1 |     sub    COUNT_, #1
00708 0c1 28 44 61 FD |     setq   COUNT_
0070c 0c2 00 2B 06 FB |     rdlong local01, ptra
00710 0c3             | popregs__ret
00710 0c3 2A 46 61 FD |     push   RETADDR_
00714 0c4 2C EC 63 FD |     jmp    pa
00718 0c5             | 
00718 0c5             | unsdivide_
00718 0c5 28 00 64 FD |        setq    #0
0071c 0c6 43 85 12 FD |        qdiv    muldiva_, muldivb_
00720 0c7 18 86 62 FD |        getqx   muldivb_
00724 0c8 19 84 62 0D |  _ret_ getqy   muldiva_
00728 0c9             | 
00728 0c9             | divide_
00728 0c9 42 85 52 F6 |        abs     muldiva_,muldiva_     wc       'abs(x)
0072c 0ca 03 AC 85 F5 |        muxc    itmp2_,#%11                    'store sign of x
00730 0cb 43 87 5A F6 |        abs     muldivb_,muldivb_     wcz      'abs(y)
00734 0cc 02 AC 65 C5 |  if_c  xor     itmp2_,#%10                    'store sign of y
00738 0cd 2D 00 64 AD |  if_z  ret
0073c 0ce D8 FF BF FD |        call    #unsdivide_
00740 0cf 01 AC D5 F7 |        test    itmp2_,#1        wc       'restore sign, remainder
00744 0d0 42 85 82 F6 |        negc    muldiva_,muldiva_ 
00748 0d1 02 AC D5 F7 |        test    itmp2_,#%10      wc       'restore sign, division result
0074c 0d2 43 87 82 06 |  _ret_ negc    muldivb_,muldivb_
00750 0d3             | 
00750 0d3             | __heap_ptr
00750 0d3 70 5C 00 00 | 	long	@__heap_base
00754 0d4             | __lockreg
00754 0d4 00 00 00 00 | 	long	0
00758 0d5             | itmp1_
00758 0d5 00 00 00 00 | 	long	0
0075c 0d6             | itmp2_
0075c 0d6 00 00 00 00 | 	long	0
00760 0d7             | objptr
00760 0d7 78 6C 00 00 | 	long	@objmem
00764 0d8             | ptr___lockreg_
00764 0d8 54 07 00 00 | 	long	@__lockreg
00768 0d9             | ptr___system__dat__
00768 0d9 60 5C 00 00 | 	long	@__system__dat_
0076c 0da             | ptr__dat__
0076c 0da F8 37 00 00 | 	long	@_dat_
00770 0db             | ptr__putpixel1_
00770 0db C4 1A 00 00 | 	long	@_putpixel1
00774 0dc             | ptr__putpixel2_
00774 0dc AC 1B 00 00 | 	long	@_putpixel2
00778 0dd             | ptr__putpixel4_
00778 0dd 84 1C 00 00 | 	long	@_putpixel4
0077c 0de             | ptr__putpixel8_
0077c 0de 5C 1D 00 00 | 	long	@_putpixel8
00780 0df             | result1
00780 0df 00 00 00 00 | 	long	0
00784 0e0             | result2
00784 0e0 00 00 00 00 | 	long	0
00788 0e1             | COG_BSS_START
00788 0e1             | 	fit	480
00788                 | 	orgh
00788                 | hubentry
00788                 | 
00788                 | ' 
00788                 | ' 
00788                 | ' ''--------- timings
00788                 | ' ' 0  m_bs        - before sync,             16      80
00788                 | ' ' 1  m_sn        - sync                     80     160
00788                 | ' ' 2  m_bv        - before visible           20      84
00788                 | ' ' 3  m_vi        - visible                1024     816
00788                 | ' ' 4  m_border    - left and right borders  112       8
00788                 | ' ' 5  m_lut1      - pixels per char           8       8
00788                 | ' ' 6  i_vborder   - up and down border       48       8
00788                 | ' ' 7  i_upporch   - up non visible           16       8
00788                 | ' ' 8  i_vsync     - vsync                    16      12
00788                 | ' ' 9  i_downporch - down non visible         16       8
00788                 | ' '10  mode #
00788                 | ' '11  cpl         - character per line
00788                 | ' '12  scanlines #
00788                 | ' '13  clock
00788                 | ' '14  hubset value for clock settings
00788                 | ' 
00788                 | ' 
00788                 | ' '*************************************************************************
00788                 | ' '                                                                        *
00788                 | ' '  A dummy start function if someone runs this driver alone              *
00788                 | ' '                                                                        *
00788                 | ' '*************************************************************************
00788                 | ' 
00788                 | ' pub dummy()|i,x,y,ntsc,bbb,ccc,zzx,zzy,amode,x1,x2,y1,y2,r
00788                 | _dummy
00788     2D 44 05 F6 | 	mov	COUNT_, #45
0078c     A9 00 A0 FD | 	call	#pushregs_
00790                 | ' '' this is not a main program.
00790                 | ' 
00790                 | ' start(512+0+48,hdmi_base)
00790     01 00 00 FF 
00794     30 2A 06 F6 | 	mov	local01, ##560
00798     2C AE 05 F1 | 	add	objptr, #44
0079c     D7 2C 02 F6 | 	mov	local02, objptr
007a0                 | ' 
007a0                 | ' ' initialize pointers and variables
007a0                 | ' 
007a0                 | ' border_ptr:=@bordercolor
007a0     24 AE 85 F1 | 	sub	objptr, #36
007a4     D7 2C 62 FC | 	wrlong	local02, objptr
007a8     08 00 00 FF 
007ac     00 B4 05 F1 | 	add	ptr__dat__, ##4096
007b0                 | ' font_ptr:=@st_font
007b0     04 AE 85 F1 | 	sub	objptr, #4
007b4     D7 B4 61 FC | 	wrlong	ptr__dat__, objptr
007b8                 | ' hdmibase:=base
007b8     20 AE 05 F1 | 	add	objptr, #32
007bc     D7 60 68 FC | 	wrlong	#48, objptr
007c0     24 AE 85 F1 | 	sub	objptr, #36
007c4     DB 22 02 F6 | 	mov	arg02, ptr__putpixel1_
007c8                 | ' p1:=@putpixel1
007c8     D7 20 02 F6 | 	mov	arg01, objptr
007cc     08 00 00 FF 
007d0     00 B4 85 F1 | 	sub	ptr__dat__, ##4096
007d4     E8 24 B0 FD | 	call	#__system___make_methodptr
007d8     DF 2E 02 F6 | 	mov	local03, result1
007dc     DC AE 05 F1 | 	add	objptr, #220
007e0     D7 2E 62 FC | 	wrlong	local03, objptr
007e4     DC AE 85 F1 | 	sub	objptr, #220
007e8     DC 22 02 F6 | 	mov	arg02, ptr__putpixel2_
007ec                 | ' p2:=@putpixel2
007ec     D7 20 02 F6 | 	mov	arg01, objptr
007f0     CC 24 B0 FD | 	call	#__system___make_methodptr
007f4     DF 2E 02 F6 | 	mov	local03, result1
007f8     E0 AE 05 F1 | 	add	objptr, #224
007fc     D7 2E 62 FC | 	wrlong	local03, objptr
00800     E0 AE 85 F1 | 	sub	objptr, #224
00804     DD 22 02 F6 | 	mov	arg02, ptr__putpixel4_
00808                 | ' p4:=@putpixel4
00808     D7 20 02 F6 | 	mov	arg01, objptr
0080c     B0 24 B0 FD | 	call	#__system___make_methodptr
00810     DF 2E 02 F6 | 	mov	local03, result1
00814     E4 AE 05 F1 | 	add	objptr, #228
00818     D7 2E 62 FC | 	wrlong	local03, objptr
0081c     E4 AE 85 F1 | 	sub	objptr, #228
00820     DE 22 02 F6 | 	mov	arg02, ptr__putpixel8_
00824                 | ' p8:=@putpixel8
00824     D7 20 02 F6 | 	mov	arg01, objptr
00828     94 24 B0 FD | 	call	#__system___make_methodptr
0082c     DF 2E 02 F6 | 	mov	local03, result1
00830     E8 AE 05 F1 | 	add	objptr, #232
00834     D7 2E 62 FC | 	wrlong	local03, objptr
00838     E8 AE 85 F1 | 	sub	objptr, #232
0083c                 | ' 
0083c                 | ' 
0083c                 | ' ' the mode has to be set here to enable computing the buffer length
0083c                 | ' 
0083c                 | ' setmode(mode)
0083c     01 00 00 FF 
00840     30 20 06 F6 | 	mov	arg01, ##560
00844     6C 18 B0 FD | 	call	#_setmode
00848     40 AE 05 F1 | 	add	objptr, #64
0084c     D7 30 02 F6 | 	mov	local04, objptr
00850                 | ' 
00850                 | ' vblank_ptr:=@vblank
00850     34 AE 85 F1 | 	sub	objptr, #52
00854     D7 30 62 FC | 	wrlong	local04, objptr
00858     28 AE 05 F1 | 	add	objptr, #40
0085c     D7 32 02 F6 | 	mov	local05, objptr
00860                 | ' cursor_ptr:=@cursor_x
00860     24 AE 85 F1 | 	sub	objptr, #36
00864     D7 32 62 FC | 	wrlong	local05, objptr
00868     88 AE 05 F1 | 	add	objptr, #136
0086c     D7 34 02 F6 | 	mov	local06, objptr
00870                 | ' 
00870                 | ' fontnum_ptr:=@fontnum
00870     78 AE 85 F1 | 	sub	objptr, #120
00874     D7 34 62 FC | 	wrlong	local06, objptr
00878                 | ' 
00878                 | ' fontnum:=0  ' PC type font ' TODO: font# in buffer byte #1
00878     78 AE 05 F1 | 	add	objptr, #120
0087c     D7 00 68 FC | 	wrlong	#0, objptr
00880     1C AE 05 F1 | 	add	objptr, #28
00884     D7 20 02 F6 | 	mov	arg01, objptr
00888     B4 AE 85 F1 | 	sub	objptr, #180
0088c     0F 00 00 FF 
00890     58 B4 05 F1 | 	add	ptr__dat__, ##7768
00894     DA 22 02 F6 | 	mov	arg02, ptr__dat__
00898     0F 00 00 FF 
0089c     58 B4 85 F1 | 	sub	ptr__dat__, ##7768
008a0                 | ' bytemove(@colors,@vgacolors,16)
008a0     10 24 06 F6 | 	mov	arg03, #16
008a4     18 23 B0 FD | 	call	#__system____builtin_memmove
008a8                 | ' 
008a8                 | ' ' initialize a cursor
008a8                 | ' 
008a8                 | ' cursor_x:=0
008a8     34 AE 05 F1 | 	add	objptr, #52
008ac     D7 00 48 FC | 	wrbyte	#0, objptr
008b0                 | ' cursor_y:=0
008b0     01 AE 05 F1 | 	add	objptr, #1
008b4     D7 00 48 FC | 	wrbyte	#0, objptr
008b8                 | ' cursor_sh:=14
008b8     01 AE 05 F1 | 	add	objptr, #1
008bc     D7 1C 48 FC | 	wrbyte	#14, objptr
008c0     36 AE 85 F1 | 	sub	objptr, #54
008c4                 | ' 
008c4                 | ' 
008c4                 | ' ' start the cog
008c4                 | ' 
008c4                 | ' cog:=coginit(16,@hdmi, @buf_ptr)
008c4     0F 00 00 FF 
008c8     68 B4 05 F1 | 	add	ptr__dat__, ##7784
008cc     DA 22 02 F6 | 	mov	arg02, ptr__dat__
008d0     0F 00 00 FF 
008d4     68 B4 85 F1 | 	sub	ptr__dat__, ##7784
008d8     D7 24 02 F6 | 	mov	arg03, objptr
008dc     10 20 06 F6 | 	mov	arg01, #16
008e0     28 24 62 FD | 	setq	arg03
008e4     11 21 F2 FC | 	coginit	arg01, arg02 wc
008e8     01 20 66 C6 |  if_b	neg	arg01, #1
008ec     10 BF 01 F6 | 	mov	result1, arg01
008f0     DF 36 02 F6 | 	mov	local07, result1
008f4     28 AE 05 F1 | 	add	objptr, #40
008f8     D7 36 62 FC | 	wrlong	local07, objptr
008fc     28 AE 85 F1 | 	sub	objptr, #40
00900                 | ' waitms(20)
00900     14 20 06 F6 | 	mov	arg01, #20
00904     A0 24 B0 FD | 	call	#__system___waitms
00908                 | ' 
00908                 | ' ' clear the screen and set the colors to green on black
00908                 | ' 
00908                 | ' cls(c_green,c_black)
00908     C7 20 06 F6 | 	mov	arg01, #199
0090c     00 22 06 F6 | 	mov	arg02, #0
00910     40 15 B0 FD | 	call	#_cls
00914                 | ' setbordercolor(0,0,128)
00914     0F 24 C6 F9 | 	decod	arg03, #15
00918                 | ' 
00918                 | ' color:=r<<24+g<<16+b<<8
00918                 | ' bordercolor:=color
00918     2C AE 05 F1 | 	add	objptr, #44
0091c     40 00 80 FF 
00920     D7 00 68 FC | 	wrlong	##32768, objptr
00924                 | ' setwritecolors(c_green,c_black)
00924                 | ' 
00924                 | ' 
00924                 | ' write_color:=ff
00924     0C AE 05 F1 | 	add	objptr, #12
00928     D7 8E 69 FC | 	wrlong	#199, objptr
0092c                 | ' write_background:=bb
0092c     04 AE 05 F1 | 	add	objptr, #4
00930     D7 00 68 FC | 	wrlong	#0, objptr
00934                 | ' 
00934                 | ' return cog
00934     14 AE 85 F1 | 	sub	objptr, #20
00938     D7 BE 01 FB | 	rdlong	result1, objptr
0093c     28 AE 85 F1 | 	sub	objptr, #40
00940                 | ' cls(147,154)
00940     93 20 06 F6 | 	mov	arg01, #147
00944     9A 22 06 F6 | 	mov	arg02, #154
00948     08 15 B0 FD | 	call	#_cls
0094c                 | ' setfontfamily(0)
0094c                 | ' 
0094c                 | ' font_family:=afontnum
0094c     C8 AE 05 F1 | 	add	objptr, #200
00950     D7 00 68 FC | 	wrlong	#0, objptr
00954     C8 AE 85 F1 | 	sub	objptr, #200
00958                 | ' waitvbl(100)
00958     64 20 06 F6 | 	mov	arg01, #100
0095c     80 14 B0 FD | 	call	#_waitvbl
00960                 | ' outtextxycg(0,0,inttostr(long[0]),154,147)
00960     00 38 06 F6 | 	mov	local08, #0
00964     00 3A 06 F6 | 	mov	local09, #0
00968     00 20 06 FB | 	rdlong	arg01, #0
0096c     34 16 B0 FD | 	call	#_inttostr
00970     DF 24 02 F6 | 	mov	arg03, result1
00974     1C 21 02 F6 | 	mov	arg01, local08
00978     1D 23 02 F6 | 	mov	arg02, local09
0097c     9A 26 06 F6 | 	mov	arg04, #154
00980     93 28 06 F6 | 	mov	arg05, #147
00984     9C 10 B0 FD | 	call	#_outtextxycg
00988                 | ' waitvbl(300)
00988     2C 21 06 F6 | 	mov	arg01, #300
0098c     50 14 B0 FD | 	call	#_waitvbl
00990                 | ' maketestdl(512+48)
00990     01 00 00 FF 
00994     30 20 06 F6 | 	mov	arg01, ##560
00998                 | ' 
00998                 | ' 
00998                 | ' 
00998                 | ' 
00998                 | ' if (mode &256==0)
00998     00 21 CE F7 | 	test	arg01, #256 wz
0099c     1C 00 90 5D |  if_ne	jmp	#LR__0001
009a0     D7 3C 02 FB | 	rdlong	local10, objptr
009a4     04 00 00 FF 
009a8     64 3D 86 F1 | 	sub	local10, ##2404
009ac                 | '   dl_ptr:=buf_ptr-4*576-100
009ac     1C AE 05 F1 | 	add	objptr, #28
009b0     D7 3C 62 FC | 	wrlong	local10, objptr
009b4     1C AE 85 F1 | 	sub	objptr, #28
009b8                 | ' else
009b8     18 00 90 FD | 	jmp	#LR__0002
009bc                 | LR__0001
009bc     D7 3E 02 FB | 	rdlong	local11, objptr
009c0     04 00 00 FF 
009c4     24 3E 86 F1 | 	sub	local11, ##2084
009c8                 | '   dl_ptr:=buf_ptr-4*496-100
009c8     1C AE 05 F1 | 	add	objptr, #28
009cc     D7 3E 62 FC | 	wrlong	local11, objptr
009d0     1C AE 85 F1 | 	sub	objptr, #28
009d4                 | LR__0002
009d4                 | ' 
009d4                 | ' vzoom:=((mode>>2) & 3)
009d4                 | ' 
009d4                 | ' if (mode>=512)' and (mode & (%10_00_00_0000))==(%10_00_00_0000) ' graphics -> all modes TODO :mode 560+192=752 = 10_11_11_0000 impossib,e because out of memory
009d4     01 00 00 FF 
009d8     00 20 5E F2 | 	cmps	arg01, ##512 wcz
009dc     24 01 90 CD |  if_b	jmp	#LR__0008
009e0                 | ' 
009e0                 | '   if timings[6]>0 'borders
009e0     68 AE 05 F1 | 	add	objptr, #104
009e4     D7 40 02 FB | 	rdlong	local12, objptr
009e8     68 AE 85 F1 | 	sub	objptr, #104
009ec     00 40 5E F2 | 	cmps	local12, #0 wcz
009f0     10 01 90 ED |  if_be	jmp	#LR__0007
009f4                 | '     repeat i from 0 to timings[6]-1 '0 to -1
009f4     00 42 06 F6 | 	mov	local13, #0
009f8     68 AE 05 F1 | 	add	objptr, #104
009fc     D7 44 02 FB | 	rdlong	local14, objptr
00a00     68 AE 85 F1 | 	sub	objptr, #104
00a04     01 44 86 F1 | 	sub	local14, #1
00a08     00 44 5E F2 | 	cmps	local14, #0 wcz
00a0c     01 46 06 16 |  if_a	mov	local15, #1
00a10     01 46 66 E6 |  if_be	neg	local15, #1
00a14     23 49 02 F6 | 	mov	local16, local15
00a18     23 45 02 F1 | 	add	local14, local15
00a1c     08 F6 9F FE | 	loc	pa,	#(@LR__0004-@LR__0003)
00a20     95 00 A0 FD | 	call	#FCACHE_LOAD_
00a24                 | LR__0003
00a24     21 4B 02 F6 | 	mov	local17, local13
00a28     02 4A 66 F0 | 	shl	local17, #2
00a2c     1C AE 05 F1 | 	add	objptr, #28
00a30     D7 4C 02 FB | 	rdlong	local18, objptr
00a34     1C AE 85 F1 | 	sub	objptr, #28
00a38     25 4D 02 F1 | 	add	local18, local17
00a3c                 | '       long[dl_ptr+4*i]:=$0
00a3c     26 01 68 FC | 	wrlong	#0, local18
00a40     24 43 02 F1 | 	add	local13, local16
00a44     22 43 0A F2 | 	cmp	local13, local14 wz
00a48     D8 FF 9F 5D |  if_ne	jmp	#LR__0003
00a4c                 | LR__0004
00a4c                 | '     repeat i from timings[6] to timings[15]+20
00a4c     68 AE 05 F1 | 	add	objptr, #104
00a50     D7 42 02 FB | 	rdlong	local13, objptr
00a54     24 AE 05 F1 | 	add	objptr, #36
00a58     D7 4E 02 FB | 	rdlong	local19, objptr
00a5c     14 4E 06 F1 | 	add	local19, #20
00a60     24 AE 85 F1 | 	sub	objptr, #36
00a64     D7 50 02 FB | 	rdlong	local20, objptr
00a68     68 AE 85 F1 | 	sub	objptr, #104
00a6c     28 4F 5A F2 | 	cmps	local19, local20 wcz
00a70     01 52 06 16 |  if_a	mov	local21, #1
00a74     01 52 66 E6 |  if_be	neg	local21, #1
00a78     29 55 02 F6 | 	mov	local22, local21
00a7c     29 4F 02 F1 | 	add	local19, local21
00a80     A4 F5 9F FE | 	loc	pa,	#(@LR__0006-@LR__0005)
00a84     95 00 A0 FD | 	call	#FCACHE_LOAD_
00a88                 | LR__0005
00a88     21 57 02 F6 | 	mov	local23, local13
00a8c     02 56 66 F0 | 	shl	local23, #2
00a90     1C AE 05 F1 | 	add	objptr, #28
00a94     D7 58 02 FB | 	rdlong	local24, objptr
00a98     1C AE 85 F1 | 	sub	objptr, #28
00a9c     2B 59 02 F1 | 	add	local24, local23
00aa0                 | '       long[dl_ptr+4*i]:=$0
00aa0     2C 01 68 FC | 	wrlong	#0, local24
00aa4     2A 43 02 F1 | 	add	local13, local22
00aa8     27 43 0A F2 | 	cmp	local13, local19 wz
00aac     D8 FF 9F 5D |  if_ne	jmp	#LR__0005
00ab0                 | LR__0006
00ab0                 | '     i:=timings[6]
00ab0     68 AE 05 F1 | 	add	objptr, #104
00ab4     D7 5A 02 FB | 	rdlong	local25, objptr
00ab8     02 5A 66 F0 | 	shl	local25, #2
00abc     4C AE 85 F1 | 	sub	objptr, #76
00ac0     D7 5C 02 FB | 	rdlong	local26, objptr
00ac4     1C AE 85 F1 | 	sub	objptr, #28
00ac8     2D 5D 02 F1 | 	add	local26, local25
00acc                 | '       long[dl_ptr+4*i]:=%0001_1110_0000_0000_0011_0010_0000_0111  
00acc     19 00 8F FF 
00ad0     2E 0F 68 FC | 	wrlong	##503329287, local26
00ad4     D7 5E 02 FB | 	rdlong	local27, objptr
00ad8     0C 5E 66 F0 | 	shl	local27, #12
00adc     02 5E 06 F1 | 	add	local27, #2
00ae0     30 20 06 F5 | 	and	arg01, #48
00ae4     02 20 46 F0 | 	shr	arg01, #2
00ae8     10 5F 02 F1 | 	add	local27, arg01
00aec     1C AE 05 F1 | 	add	objptr, #28
00af0     D7 60 02 FB | 	rdlong	local28, objptr
00af4     1C AE 85 F1 | 	sub	objptr, #28
00af8     2D 61 02 F1 | 	add	local28, local25
00afc     04 60 06 F1 | 	add	local28, #4
00b00                 | '       long[dl_ptr+4*i+4]:=(buf_ptr<<12)+2+(mode &48)>>2
00b00     30 5F 62 FC | 	wrlong	local27, local28
00b04                 | LR__0007
00b04                 | LR__0008
00b04                 | ' waitvbl(1200)
00b04     02 00 00 FF 
00b08     B0 20 06 F6 | 	mov	arg01, ##1200
00b0c     D0 12 B0 FD | 	call	#_waitvbl
00b10                 | ' repeat i from 0 to 10000
00b10     13 00 00 FF 
00b14     11 63 06 F6 | 	mov	local29, ##10001
00b18                 | LR__0009
00b18                 | '   ccc:=getrnd()&255
00b18     1B 64 62 FD | 	getrnd	local30
00b1c     FF 64 06 F5 | 	and	local30, #255
00b20                 | '   x1:=getrnd()+//896
00b20     1B BE 61 FD | 	getrnd	result1
00b24     DF 84 02 F6 | 	mov	muldiva_, result1
00b28     01 00 00 FF 
00b2c     80 87 06 F6 | 	mov	muldivb_, ##896
00b30     C5 00 A0 FD | 	call	#unsdivide_
00b34     42 67 02 F6 | 	mov	local31, muldiva_
00b38                 | '   x2:=getrnd()+//896
00b38     1B BE 61 FD | 	getrnd	result1
00b3c     DF 84 02 F6 | 	mov	muldiva_, result1
00b40     01 00 00 FF 
00b44     80 87 06 F6 | 	mov	muldivb_, ##896
00b48     C5 00 A0 FD | 	call	#unsdivide_
00b4c     42 69 02 F6 | 	mov	local32, muldiva_
00b50                 | '   y1:=getrnd()+//496
00b50     1B BE 61 FD | 	getrnd	result1
00b54     DF 84 02 F6 | 	mov	muldiva_, result1
00b58     F0 87 06 F6 | 	mov	muldivb_, #496
00b5c     C5 00 A0 FD | 	call	#unsdivide_
00b60     42 6B 02 F6 | 	mov	local33, muldiva_
00b64                 | '   y2:=getrnd()+//496
00b64     1B BE 61 FD | 	getrnd	result1
00b68     DF 84 02 F6 | 	mov	muldiva_, result1
00b6c     F0 87 06 F6 | 	mov	muldivb_, #496
00b70     C5 00 A0 FD | 	call	#unsdivide_
00b74                 | ' 
00b74                 | ' 
00b74                 | '   line(x1,y1,x2,y2,ccc)
00b74     33 21 02 F6 | 	mov	arg01, local31
00b78     35 23 02 F6 | 	mov	arg02, local33
00b7c     34 25 02 F6 | 	mov	arg03, local32
00b80     32 29 02 F6 | 	mov	arg05, local30
00b84     42 27 02 F6 | 	mov	arg04, muldiva_
00b88     F4 0B B0 FD | 	call	#_line
00b8c     E2 63 6E FB | 	djnz	local29, #LR__0009
00b90                 | ' 
00b90                 | ' repeat i from 0 to 1000
00b90     01 00 00 FF 
00b94     E9 63 06 F6 | 	mov	local29, ##1001
00b98                 | LR__0010
00b98                 | ' 
00b98                 | '   x1:=getrnd()+//896
00b98     1B BE 61 FD | 	getrnd	result1
00b9c     DF 84 02 F6 | 	mov	muldiva_, result1
00ba0     01 00 00 FF 
00ba4     80 87 06 F6 | 	mov	muldivb_, ##896
00ba8     C5 00 A0 FD | 	call	#unsdivide_
00bac     42 67 02 F6 | 	mov	local31, muldiva_
00bb0                 | '   y1:=getrnd()+//496
00bb0     1B BE 61 FD | 	getrnd	result1
00bb4     DF 84 02 F6 | 	mov	muldiva_, result1
00bb8     F0 87 06 F6 | 	mov	muldivb_, #496
00bbc     C5 00 A0 FD | 	call	#unsdivide_
00bc0     42 6B 02 F6 | 	mov	local33, muldiva_
00bc4                 | '   r:=getrnd()+//100
00bc4     1B BE 61 FD | 	getrnd	result1
00bc8     DF 84 02 F6 | 	mov	muldiva_, result1
00bcc     64 86 06 F6 | 	mov	muldivb_, #100
00bd0     C5 00 A0 FD | 	call	#unsdivide_
00bd4                 | '   ccc:=getrnd()&255
00bd4     1B BE 61 FD | 	getrnd	result1
00bd8     DF 26 02 F6 | 	mov	arg04, result1
00bdc     FF 26 06 F5 | 	and	arg04, #255
00be0                 | '   fcircle(x1,y1,r,ccc)   
00be0     33 21 02 F6 | 	mov	arg01, local31
00be4     35 23 02 F6 | 	mov	arg02, local33
00be8     42 25 02 F6 | 	mov	arg03, muldiva_
00bec     5C 08 B0 FD | 	call	#_fcircle
00bf0     E9 63 6E FB | 	djnz	local29, #LR__0010
00bf4                 | ' 
00bf4                 | ' repeat i from 0 to 10000
00bf4     13 00 00 FF 
00bf8     11 63 06 F6 | 	mov	local29, ##10001
00bfc                 | LR__0011
00bfc                 | '   ccc:=getrnd()&255
00bfc     1B 64 62 FD | 	getrnd	local30
00c00     FF 64 06 F5 | 	and	local30, #255
00c04                 | '   x1:=getrnd()+//896
00c04     1B BE 61 FD | 	getrnd	result1
00c08     DF 84 02 F6 | 	mov	muldiva_, result1
00c0c     01 00 00 FF 
00c10     80 87 06 F6 | 	mov	muldivb_, ##896
00c14     C5 00 A0 FD | 	call	#unsdivide_
00c18     42 67 02 F6 | 	mov	local31, muldiva_
00c1c                 | '   x2:=getrnd()+//896
00c1c     1B BE 61 FD | 	getrnd	result1
00c20     DF 84 02 F6 | 	mov	muldiva_, result1
00c24     01 00 00 FF 
00c28     80 87 06 F6 | 	mov	muldivb_, ##896
00c2c     C5 00 A0 FD | 	call	#unsdivide_
00c30     42 69 02 F6 | 	mov	local32, muldiva_
00c34                 | '   y1:=getrnd()+//496
00c34     1B BE 61 FD | 	getrnd	result1
00c38     DF 84 02 F6 | 	mov	muldiva_, result1
00c3c     F0 87 06 F6 | 	mov	muldivb_, #496
00c40     C5 00 A0 FD | 	call	#unsdivide_
00c44     42 6B 02 F6 | 	mov	local33, muldiva_
00c48                 | '   y2:=getrnd()+//496
00c48     1B BE 61 FD | 	getrnd	result1
00c4c     DF 84 02 F6 | 	mov	muldiva_, result1
00c50     F0 87 06 F6 | 	mov	muldivb_, #496
00c54     C5 00 A0 FD | 	call	#unsdivide_
00c58                 | ' 
00c58                 | ' 
00c58                 | '   frame(x1,y1,x2,y2,ccc)
00c58     33 6D 02 F6 | 	mov	local34, local31
00c5c     35 6F 02 F6 | 	mov	local35, local33
00c60     34 71 02 F6 | 	mov	local36, local32
00c64     42 73 02 F6 | 	mov	local37, muldiva_
00c68     32 75 02 F6 | 	mov	local38, local30
00c6c                 | ' 
00c6c                 | ' line(x1,y1,x2,y1,c)
00c6c     36 21 02 F6 | 	mov	arg01, local34
00c70     37 23 02 F6 | 	mov	arg02, local35
00c74     38 25 02 F6 | 	mov	arg03, local36
00c78     37 27 02 F6 | 	mov	arg04, local35
00c7c     3A 29 02 F6 | 	mov	arg05, local38
00c80     FC 0A B0 FD | 	call	#_line
00c84                 | ' line(x1,y2,x2,y2,c)
00c84     36 21 02 F6 | 	mov	arg01, local34
00c88     39 23 02 F6 | 	mov	arg02, local37
00c8c     38 25 02 F6 | 	mov	arg03, local36
00c90     39 27 02 F6 | 	mov	arg04, local37
00c94     3A 29 02 F6 | 	mov	arg05, local38
00c98     E4 0A B0 FD | 	call	#_line
00c9c                 | ' line(x1,y1,x1,y2,c)
00c9c     36 21 02 F6 | 	mov	arg01, local34
00ca0     37 23 02 F6 | 	mov	arg02, local35
00ca4     36 25 02 F6 | 	mov	arg03, local34
00ca8     39 27 02 F6 | 	mov	arg04, local37
00cac     3A 29 02 F6 | 	mov	arg05, local38
00cb0     CC 0A B0 FD | 	call	#_line
00cb4                 | ' line(x2,y1,x2,y2,c)
00cb4     38 21 02 F6 | 	mov	arg01, local36
00cb8     37 23 02 F6 | 	mov	arg02, local35
00cbc     38 25 02 F6 | 	mov	arg03, local36
00cc0     39 27 02 F6 | 	mov	arg04, local37
00cc4     3A 29 02 F6 | 	mov	arg05, local38
00cc8     B4 0A B0 FD | 	call	#_line
00ccc     CB 63 6E FB | 	djnz	local29, #LR__0011
00cd0                 | '   
00cd0                 | ' repeat i from 0 to 10000
00cd0     13 00 00 FF 
00cd4     11 63 06 F6 | 	mov	local29, ##10001
00cd8                 | LR__0012
00cd8                 | ' 
00cd8                 | '   x1:=getrnd()+//896
00cd8     1B BE 61 FD | 	getrnd	result1
00cdc     DF 84 02 F6 | 	mov	muldiva_, result1
00ce0     01 00 00 FF 
00ce4     80 87 06 F6 | 	mov	muldivb_, ##896
00ce8     C5 00 A0 FD | 	call	#unsdivide_
00cec     42 67 02 F6 | 	mov	local31, muldiva_
00cf0                 | '   y1:=getrnd()+//496
00cf0     1B BE 61 FD | 	getrnd	result1
00cf4     DF 84 02 F6 | 	mov	muldiva_, result1
00cf8     F0 87 06 F6 | 	mov	muldivb_, #496
00cfc     C5 00 A0 FD | 	call	#unsdivide_
00d00     42 6B 02 F6 | 	mov	local33, muldiva_
00d04                 | '   r:=getrnd()+//100
00d04     1B BE 61 FD | 	getrnd	result1
00d08     DF 84 02 F6 | 	mov	muldiva_, result1
00d0c     64 86 06 F6 | 	mov	muldivb_, #100
00d10     C5 00 A0 FD | 	call	#unsdivide_
00d14                 | '   ccc:=getrnd()&255
00d14     1B BE 61 FD | 	getrnd	result1
00d18     DF 26 02 F6 | 	mov	arg04, result1
00d1c     FF 26 06 F5 | 	and	arg04, #255
00d20                 | '   circle(x1,y1,r,ccc) 
00d20     33 21 02 F6 | 	mov	arg01, local31
00d24     35 23 02 F6 | 	mov	arg02, local33
00d28     42 25 02 F6 | 	mov	arg03, muldiva_
00d2c     38 08 B0 FD | 	call	#_circle
00d30     E9 63 6E FB | 	djnz	local29, #LR__0012
00d34                 | '   
00d34                 | ' repeat i from 0 to 1000
00d34     01 00 00 FF 
00d38     E9 63 06 F6 | 	mov	local29, ##1001
00d3c                 | LR__0013
00d3c                 | '   ccc:=getrnd()&255
00d3c     1B 64 62 FD | 	getrnd	local30
00d40     FF 64 06 F5 | 	and	local30, #255
00d44                 | '   x1:=getrnd()+//896
00d44     1B BE 61 FD | 	getrnd	result1
00d48     DF 84 02 F6 | 	mov	muldiva_, result1
00d4c     01 00 00 FF 
00d50     80 87 06 F6 | 	mov	muldivb_, ##896
00d54     C5 00 A0 FD | 	call	#unsdivide_
00d58     42 67 02 F6 | 	mov	local31, muldiva_
00d5c                 | '   x2:=getrnd()+//100
00d5c     1B BE 61 FD | 	getrnd	result1
00d60     DF 84 02 F6 | 	mov	muldiva_, result1
00d64     64 86 06 F6 | 	mov	muldivb_, #100
00d68     C5 00 A0 FD | 	call	#unsdivide_
00d6c     42 69 02 F6 | 	mov	local32, muldiva_
00d70                 | '   y1:=getrnd()+//496
00d70     1B BE 61 FD | 	getrnd	result1
00d74     DF 84 02 F6 | 	mov	muldiva_, result1
00d78     F0 87 06 F6 | 	mov	muldivb_, #496
00d7c     C5 00 A0 FD | 	call	#unsdivide_
00d80     42 6B 02 F6 | 	mov	local33, muldiva_
00d84                 | '   y2:=getrnd()+//100
00d84     1B BE 61 FD | 	getrnd	result1
00d88     DF 84 02 F6 | 	mov	muldiva_, result1
00d8c     64 86 06 F6 | 	mov	muldivb_, #100
00d90     C5 00 A0 FD | 	call	#unsdivide_
00d94     33 77 02 F6 | 	mov	local39, local31
00d98     34 77 02 F1 | 	add	local39, local32
00d9c     35 79 02 F6 | 	mov	local40, local33
00da0     42 79 02 F1 | 	add	local40, muldiva_
00da4                 | ' 
00da4                 | ' 
00da4                 | '   box(x1,y1,x1+x2,y1+y2,ccc)  
00da4     33 7B 02 F6 | 	mov	local41, local31
00da8     35 7D 02 F6 | 	mov	local42, local33
00dac     32 7F 02 F6 | 	mov	local43, local30
00db0                 | ' 
00db0                 | ' repeat yy from y1 to y2
00db0     3E 79 5A F2 | 	cmps	local40, local42 wcz
00db4     01 80 06 16 |  if_a	mov	local44, #1
00db8     01 80 66 E6 |  if_be	neg	local44, #1
00dbc     40 79 02 F1 | 	add	local40, local44
00dc0                 | LR__0014
00dc0                 | '   line(x1,yy,x2,yy,c)
00dc0     3D 21 02 F6 | 	mov	arg01, local41
00dc4     3B 25 02 F6 | 	mov	arg03, local39
00dc8     3F 29 02 F6 | 	mov	arg05, local43
00dcc     3E 23 02 F6 | 	mov	arg02, local42
00dd0     3E 27 02 F6 | 	mov	arg04, local42
00dd4     A8 09 B0 FD | 	call	#_line
00dd8     40 7D 02 F1 | 	add	local42, local44
00ddc     3C 7D 0A F2 | 	cmp	local42, local40 wz
00de0     DC FF 9F 5D |  if_ne	jmp	#LR__0014
00de4     D5 63 6E FB | 	djnz	local29, #LR__0013
00de8                 | '       
00de8                 | '   
00de8                 | ' {
00de8                 | ' }
00de8                 | ' setfontfamily(4)
00de8                 | ' 
00de8                 | ' font_family:=afontnum
00de8     C8 AE 05 F1 | 	add	objptr, #200
00dec     D7 08 68 FC | 	wrlong	#4, objptr
00df0     C8 AE 85 F1 | 	sub	objptr, #200
00df4                 | ' repeat amode from 512 to 1023
00df4     09 82 C6 F9 | 	decod	local45, #9
00df8                 | LR__0015
00df8                 | '   setmode(amode)
00df8     41 21 02 F6 | 	mov	arg01, local45
00dfc     B4 12 B0 FD | 	call	#_setmode
00e00     41 65 02 F6 | 	mov	local30, local45
00e04     04 64 46 F0 | 	shr	local30, #4
00e08     03 64 0E F5 | 	and	local30, #3 wz
00e0c                 | '   ccc:=((amode>>4)&3)
00e0c                 | '   if (ccc==0)
00e0c     80 01 90 5D |  if_ne	jmp	#LR__0016
00e10                 | '     cls(0,1)
00e10     00 20 06 F6 | 	mov	arg01, #0
00e14     01 22 06 F6 | 	mov	arg02, #1
00e18     38 10 B0 FD | 	call	#_cls
00e1c                 | '     outtextxycg(0,0,string("mode"),0,1)
00e1c     1B 00 00 FF 
00e20     7E 25 06 F6 | 	mov	arg03, ##@LR__0214
00e24     00 20 06 F6 | 	mov	arg01, #0
00e28     00 22 06 F6 | 	mov	arg02, #0
00e2c     00 26 06 F6 | 	mov	arg04, #0
00e30     01 28 06 F6 | 	mov	arg05, #1
00e34     EC 0B B0 FD | 	call	#_outtextxycg
00e38                 | '     outtextxycg(0,16,string("cpl"),0,1)
00e38     1B 00 00 FF 
00e3c     83 25 06 F6 | 	mov	arg03, ##@LR__0215
00e40     00 20 06 F6 | 	mov	arg01, #0
00e44     10 22 06 F6 | 	mov	arg02, #16
00e48     00 26 06 F6 | 	mov	arg04, #0
00e4c     01 28 06 F6 | 	mov	arg05, #1
00e50     D0 0B B0 FD | 	call	#_outtextxycg
00e54                 | '     outtextxycg(0,32,string("bufptr"),0,1)
00e54     1B 00 00 FF 
00e58     87 25 06 F6 | 	mov	arg03, ##@LR__0216
00e5c     00 20 06 F6 | 	mov	arg01, #0
00e60     20 22 06 F6 | 	mov	arg02, #32
00e64     00 26 06 F6 | 	mov	arg04, #0
00e68     01 28 06 F6 | 	mov	arg05, #1
00e6c     B4 0B B0 FD | 	call	#_outtextxycg
00e70                 | '     outtextxycg(0,48,string("buflen"),0,1)
00e70     1B 00 00 FF 
00e74     8E 25 06 F6 | 	mov	arg03, ##@LR__0217
00e78     00 20 06 F6 | 	mov	arg01, #0
00e7c     30 22 06 F6 | 	mov	arg02, #48
00e80     00 26 06 F6 | 	mov	arg04, #0
00e84     01 28 06 F6 | 	mov	arg05, #1
00e88     98 0B B0 FD | 	call	#_outtextxycg
00e8c                 | '     outtextxycg(0,64,string("lines"),0,1)
00e8c     1B 00 00 FF 
00e90     95 25 06 F6 | 	mov	arg03, ##@LR__0218
00e94     00 20 06 F6 | 	mov	arg01, #0
00e98     40 22 06 F6 | 	mov	arg02, #64
00e9c     00 26 06 F6 | 	mov	arg04, #0
00ea0     01 28 06 F6 | 	mov	arg05, #1
00ea4     7C 0B B0 FD | 	call	#_outtextxycg
00ea8                 | '     outtextxycg(64,0,inttostr(amode),0,1)
00ea8     40 38 06 F6 | 	mov	local08, #64
00eac     00 3A 06 F6 | 	mov	local09, #0
00eb0     41 21 02 F6 | 	mov	arg01, local45
00eb4     EC 10 B0 FD | 	call	#_inttostr
00eb8     DF 24 02 F6 | 	mov	arg03, result1
00ebc     1C 21 02 F6 | 	mov	arg01, local08
00ec0     1D 23 02 F6 | 	mov	arg02, local09
00ec4     00 26 06 F6 | 	mov	arg04, #0
00ec8     01 28 06 F6 | 	mov	arg05, #1
00ecc     54 0B B0 FD | 	call	#_outtextxycg
00ed0                 | '     outtextxycg(64,16,inttostr(cpl),0,1)
00ed0     40 38 06 F6 | 	mov	local08, #64
00ed4     10 3A 06 F6 | 	mov	local09, #16
00ed8     90 AE 05 F1 | 	add	objptr, #144
00edc     D7 20 02 FB | 	rdlong	arg01, objptr
00ee0     90 AE 85 F1 | 	sub	objptr, #144
00ee4     BC 10 B0 FD | 	call	#_inttostr
00ee8     DF 24 02 F6 | 	mov	arg03, result1
00eec     1C 21 02 F6 | 	mov	arg01, local08
00ef0     1D 23 02 F6 | 	mov	arg02, local09
00ef4     00 26 06 F6 | 	mov	arg04, #0
00ef8     01 28 06 F6 | 	mov	arg05, #1
00efc     24 0B B0 FD | 	call	#_outtextxycg
00f00                 | '     outtextxycg(64,32,inttostr(buf_ptr),0,1)
00f00     40 38 06 F6 | 	mov	local08, #64
00f04     20 3A 06 F6 | 	mov	local09, #32
00f08     D7 20 02 FB | 	rdlong	arg01, objptr
00f0c     94 10 B0 FD | 	call	#_inttostr
00f10     DF 24 02 F6 | 	mov	arg03, result1
00f14     1C 21 02 F6 | 	mov	arg01, local08
00f18     1D 23 02 F6 | 	mov	arg02, local09
00f1c     00 26 06 F6 | 	mov	arg04, #0
00f20     01 28 06 F6 | 	mov	arg05, #1
00f24     FC 0A B0 FD | 	call	#_outtextxycg
00f28     30 AE 05 F1 | 	add	objptr, #48
00f2c     D7 20 02 FB | 	rdlong	arg01, objptr
00f30     30 AE 85 F1 | 	sub	objptr, #48
00f34     02 20 66 F0 | 	shl	arg01, #2
00f38                 | '     outtextxycg(64,48,inttostr(buflen*4),0,1)
00f38     40 38 06 F6 | 	mov	local08, #64
00f3c     30 3A 06 F6 | 	mov	local09, #48
00f40     60 10 B0 FD | 	call	#_inttostr
00f44     DF 24 02 F6 | 	mov	arg03, result1
00f48     1C 21 02 F6 | 	mov	arg01, local08
00f4c     1D 23 02 F6 | 	mov	arg02, local09
00f50     00 26 06 F6 | 	mov	arg04, #0
00f54     01 28 06 F6 | 	mov	arg05, #1
00f58     C8 0A B0 FD | 	call	#_outtextxycg
00f5c                 | '     outtextxycg(64,64,inttostr(lines),0,1)
00f5c     40 38 06 F6 | 	mov	local08, #64
00f60     40 3A 06 F6 | 	mov	local09, #64
00f64     94 AE 05 F1 | 	add	objptr, #148
00f68     D7 20 02 FB | 	rdlong	arg01, objptr
00f6c     94 AE 85 F1 | 	sub	objptr, #148
00f70     30 10 B0 FD | 	call	#_inttostr
00f74     DF 24 02 F6 | 	mov	arg03, result1
00f78     1C 21 02 F6 | 	mov	arg01, local08
00f7c     1D 23 02 F6 | 	mov	arg02, local09
00f80     00 26 06 F6 | 	mov	arg04, #0
00f84     01 28 06 F6 | 	mov	arg05, #1
00f88     98 0A B0 FD | 	call	#_outtextxycg
00f8c     94 04 90 FD | 	jmp	#LR__0022
00f90                 | LR__0016
00f90                 | '   elseif (ccc==1)
00f90     01 64 0E F2 | 	cmp	local30, #1 wz
00f94     80 01 90 5D |  if_ne	jmp	#LR__0017
00f98                 | '     cls(0,0)
00f98     00 20 06 F6 | 	mov	arg01, #0
00f9c     00 22 06 F6 | 	mov	arg02, #0
00fa0     B0 0E B0 FD | 	call	#_cls
00fa4                 | '     outtextxycg(0,0,string("mode"),3,0)
00fa4     1B 00 00 FF 
00fa8     9B 25 06 F6 | 	mov	arg03, ##@LR__0219
00fac     00 20 06 F6 | 	mov	arg01, #0
00fb0     00 22 06 F6 | 	mov	arg02, #0
00fb4     03 26 06 F6 | 	mov	arg04, #3
00fb8     00 28 06 F6 | 	mov	arg05, #0
00fbc     64 0A B0 FD | 	call	#_outtextxycg
00fc0                 | '     outtextxycg(0,16,string("cpl"),3,0)'
00fc0     1B 00 00 FF 
00fc4     A0 25 06 F6 | 	mov	arg03, ##@LR__0220
00fc8     00 20 06 F6 | 	mov	arg01, #0
00fcc     10 22 06 F6 | 	mov	arg02, #16
00fd0     03 26 06 F6 | 	mov	arg04, #3
00fd4     00 28 06 F6 | 	mov	arg05, #0
00fd8     48 0A B0 FD | 	call	#_outtextxycg
00fdc                 | '     outtextxycg(0,32,string("buf_ptr"),3,0)
00fdc     1B 00 00 FF 
00fe0     A4 25 06 F6 | 	mov	arg03, ##@LR__0221
00fe4     00 20 06 F6 | 	mov	arg01, #0
00fe8     20 22 06 F6 | 	mov	arg02, #32
00fec     03 26 06 F6 | 	mov	arg04, #3
00ff0     00 28 06 F6 | 	mov	arg05, #0
00ff4     2C 0A B0 FD | 	call	#_outtextxycg
00ff8                 | '     outtextxycg(0,48,string("buflen"),3,0)
00ff8     1B 00 00 FF 
00ffc     AC 25 06 F6 | 	mov	arg03, ##@LR__0222
01000     00 20 06 F6 | 	mov	arg01, #0
01004     30 22 06 F6 | 	mov	arg02, #48
01008     03 26 06 F6 | 	mov	arg04, #3
0100c     00 28 06 F6 | 	mov	arg05, #0
01010     10 0A B0 FD | 	call	#_outtextxycg
01014                 | '     outtextxycg(0,64,string("lines"),3,0)
01014     1B 00 00 FF 
01018     B3 25 06 F6 | 	mov	arg03, ##@LR__0223
0101c     00 20 06 F6 | 	mov	arg01, #0
01020     40 22 06 F6 | 	mov	arg02, #64
01024     03 26 06 F6 | 	mov	arg04, #3
01028     00 28 06 F6 | 	mov	arg05, #0
0102c     F4 09 B0 FD | 	call	#_outtextxycg
01030                 | '     outtextxycg(64,0,inttostr(amode),2,0)
01030     40 38 06 F6 | 	mov	local08, #64
01034     00 3A 06 F6 | 	mov	local09, #0
01038     41 21 02 F6 | 	mov	arg01, local45
0103c     64 0F B0 FD | 	call	#_inttostr
01040     DF 24 02 F6 | 	mov	arg03, result1
01044     1C 21 02 F6 | 	mov	arg01, local08
01048     1D 23 02 F6 | 	mov	arg02, local09
0104c     02 26 06 F6 | 	mov	arg04, #2
01050     00 28 06 F6 | 	mov	arg05, #0
01054     CC 09 B0 FD | 	call	#_outtextxycg
01058                 | '     outtextxycg(64,16,inttostr(cpl),2,0)
01058     40 38 06 F6 | 	mov	local08, #64
0105c     10 3A 06 F6 | 	mov	local09, #16
01060     90 AE 05 F1 | 	add	objptr, #144
01064     D7 20 02 FB | 	rdlong	arg01, objptr
01068     90 AE 85 F1 | 	sub	objptr, #144
0106c     34 0F B0 FD | 	call	#_inttostr
01070     DF 24 02 F6 | 	mov	arg03, result1
01074     1C 21 02 F6 | 	mov	arg01, local08
01078     1D 23 02 F6 | 	mov	arg02, local09
0107c     02 26 06 F6 | 	mov	arg04, #2
01080     00 28 06 F6 | 	mov	arg05, #0
01084     9C 09 B0 FD | 	call	#_outtextxycg
01088                 | '     outtextxycg(64,32,inttostr(buf_ptr),2,0)
01088     40 38 06 F6 | 	mov	local08, #64
0108c     20 3A 06 F6 | 	mov	local09, #32
01090     D7 20 02 FB | 	rdlong	arg01, objptr
01094     0C 0F B0 FD | 	call	#_inttostr
01098     DF 24 02 F6 | 	mov	arg03, result1
0109c     1C 21 02 F6 | 	mov	arg01, local08
010a0     1D 23 02 F6 | 	mov	arg02, local09
010a4     02 26 06 F6 | 	mov	arg04, #2
010a8     00 28 06 F6 | 	mov	arg05, #0
010ac     74 09 B0 FD | 	call	#_outtextxycg
010b0     30 AE 05 F1 | 	add	objptr, #48
010b4     D7 20 02 FB | 	rdlong	arg01, objptr
010b8     30 AE 85 F1 | 	sub	objptr, #48
010bc     02 20 66 F0 | 	shl	arg01, #2
010c0                 | '     outtextxycg(64,48,inttostr(buflen*4),2,0)
010c0     40 38 06 F6 | 	mov	local08, #64
010c4     30 3A 06 F6 | 	mov	local09, #48
010c8     D8 0E B0 FD | 	call	#_inttostr
010cc     DF 24 02 F6 | 	mov	arg03, result1
010d0     1C 21 02 F6 | 	mov	arg01, local08
010d4     1D 23 02 F6 | 	mov	arg02, local09
010d8     02 26 06 F6 | 	mov	arg04, #2
010dc     00 28 06 F6 | 	mov	arg05, #0
010e0     40 09 B0 FD | 	call	#_outtextxycg
010e4                 | '     outtextxycg(64,64,inttostr(lines),2,0)
010e4     40 38 06 F6 | 	mov	local08, #64
010e8     40 3A 06 F6 | 	mov	local09, #64
010ec     94 AE 05 F1 | 	add	objptr, #148
010f0     D7 20 02 FB | 	rdlong	arg01, objptr
010f4     94 AE 85 F1 | 	sub	objptr, #148
010f8     A8 0E B0 FD | 	call	#_inttostr
010fc     DF 24 02 F6 | 	mov	arg03, result1
01100     1C 21 02 F6 | 	mov	arg01, local08
01104     1D 23 02 F6 | 	mov	arg02, local09
01108     02 26 06 F6 | 	mov	arg04, #2
0110c     00 28 06 F6 | 	mov	arg05, #0
01110     10 09 B0 FD | 	call	#_outtextxycg
01114     0C 03 90 FD | 	jmp	#LR__0021
01118                 | LR__0017
01118                 | '   elseif (ccc==2)
01118     02 64 0E F2 | 	cmp	local30, #2 wz
0111c     80 01 90 5D |  if_ne	jmp	#LR__0018
01120                 | '     cls(0,0)
01120     00 20 06 F6 | 	mov	arg01, #0
01124     00 22 06 F6 | 	mov	arg02, #0
01128     28 0D B0 FD | 	call	#_cls
0112c                 | '     outtextxycg(0,0,string("mode"),9,0)
0112c     1B 00 00 FF 
01130     B9 25 06 F6 | 	mov	arg03, ##@LR__0224
01134     00 20 06 F6 | 	mov	arg01, #0
01138     00 22 06 F6 | 	mov	arg02, #0
0113c     09 26 06 F6 | 	mov	arg04, #9
01140     00 28 06 F6 | 	mov	arg05, #0
01144     DC 08 B0 FD | 	call	#_outtextxycg
01148                 | '     outtextxycg(0,16,string("cpl"),9,0)'
01148     1B 00 00 FF 
0114c     BE 25 06 F6 | 	mov	arg03, ##@LR__0225
01150     00 20 06 F6 | 	mov	arg01, #0
01154     10 22 06 F6 | 	mov	arg02, #16
01158     09 26 06 F6 | 	mov	arg04, #9
0115c     00 28 06 F6 | 	mov	arg05, #0
01160     C0 08 B0 FD | 	call	#_outtextxycg
01164                 | '     outtextxycg(0,32,string("buf_ptr"),9,0)
01164     1B 00 00 FF 
01168     C2 25 06 F6 | 	mov	arg03, ##@LR__0226
0116c     00 20 06 F6 | 	mov	arg01, #0
01170     20 22 06 F6 | 	mov	arg02, #32
01174     09 26 06 F6 | 	mov	arg04, #9
01178     00 28 06 F6 | 	mov	arg05, #0
0117c     A4 08 B0 FD | 	call	#_outtextxycg
01180                 | '     outtextxycg(0,48,string("buflen"),9,0)
01180     1B 00 00 FF 
01184     CA 25 06 F6 | 	mov	arg03, ##@LR__0227
01188     00 20 06 F6 | 	mov	arg01, #0
0118c     30 22 06 F6 | 	mov	arg02, #48
01190     09 26 06 F6 | 	mov	arg04, #9
01194     00 28 06 F6 | 	mov	arg05, #0
01198     88 08 B0 FD | 	call	#_outtextxycg
0119c                 | '     outtextxycg(0,64,string("lines"),9,0)
0119c     1B 00 00 FF 
011a0     D1 25 06 F6 | 	mov	arg03, ##@LR__0228
011a4     00 20 06 F6 | 	mov	arg01, #0
011a8     40 22 06 F6 | 	mov	arg02, #64
011ac     09 26 06 F6 | 	mov	arg04, #9
011b0     00 28 06 F6 | 	mov	arg05, #0
011b4     6C 08 B0 FD | 	call	#_outtextxycg
011b8                 | '     outtextxycg(64,0,inttostr(amode),4,0)
011b8     40 38 06 F6 | 	mov	local08, #64
011bc     00 3A 06 F6 | 	mov	local09, #0
011c0     41 21 02 F6 | 	mov	arg01, local45
011c4     DC 0D B0 FD | 	call	#_inttostr
011c8     DF 24 02 F6 | 	mov	arg03, result1
011cc     1C 21 02 F6 | 	mov	arg01, local08
011d0     1D 23 02 F6 | 	mov	arg02, local09
011d4     04 26 06 F6 | 	mov	arg04, #4
011d8     00 28 06 F6 | 	mov	arg05, #0
011dc     44 08 B0 FD | 	call	#_outtextxycg
011e0                 | '     outtextxycg(64,16,inttostr(cpl),4,0)
011e0     40 38 06 F6 | 	mov	local08, #64
011e4     10 3A 06 F6 | 	mov	local09, #16
011e8     90 AE 05 F1 | 	add	objptr, #144
011ec     D7 20 02 FB | 	rdlong	arg01, objptr
011f0     90 AE 85 F1 | 	sub	objptr, #144
011f4     AC 0D B0 FD | 	call	#_inttostr
011f8     DF 24 02 F6 | 	mov	arg03, result1
011fc     1C 21 02 F6 | 	mov	arg01, local08
01200     1D 23 02 F6 | 	mov	arg02, local09
01204     04 26 06 F6 | 	mov	arg04, #4
01208     00 28 06 F6 | 	mov	arg05, #0
0120c     14 08 B0 FD | 	call	#_outtextxycg
01210                 | '     outtextxycg(64,32,inttostr(buf_ptr),4,0)
01210     40 38 06 F6 | 	mov	local08, #64
01214     20 3A 06 F6 | 	mov	local09, #32
01218     D7 20 02 FB | 	rdlong	arg01, objptr
0121c     84 0D B0 FD | 	call	#_inttostr
01220     DF 24 02 F6 | 	mov	arg03, result1
01224     1C 21 02 F6 | 	mov	arg01, local08
01228     1D 23 02 F6 | 	mov	arg02, local09
0122c     04 26 06 F6 | 	mov	arg04, #4
01230     00 28 06 F6 | 	mov	arg05, #0
01234     EC 07 B0 FD | 	call	#_outtextxycg
01238     30 AE 05 F1 | 	add	objptr, #48
0123c     D7 20 02 FB | 	rdlong	arg01, objptr
01240     30 AE 85 F1 | 	sub	objptr, #48
01244     02 20 66 F0 | 	shl	arg01, #2
01248                 | '     outtextxycg(64,48,inttostr(buflen*4),4,0)
01248     40 38 06 F6 | 	mov	local08, #64
0124c     30 3A 06 F6 | 	mov	local09, #48
01250     50 0D B0 FD | 	call	#_inttostr
01254     DF 24 02 F6 | 	mov	arg03, result1
01258     1C 21 02 F6 | 	mov	arg01, local08
0125c     1D 23 02 F6 | 	mov	arg02, local09
01260     04 26 06 F6 | 	mov	arg04, #4
01264     00 28 06 F6 | 	mov	arg05, #0
01268     B8 07 B0 FD | 	call	#_outtextxycg
0126c                 | '     outtextxycg(64,64,inttostr(lines),4,0)
0126c     40 38 06 F6 | 	mov	local08, #64
01270     40 3A 06 F6 | 	mov	local09, #64
01274     94 AE 05 F1 | 	add	objptr, #148
01278     D7 20 02 FB | 	rdlong	arg01, objptr
0127c     94 AE 85 F1 | 	sub	objptr, #148
01280     20 0D B0 FD | 	call	#_inttostr
01284     DF 24 02 F6 | 	mov	arg03, result1
01288     1C 21 02 F6 | 	mov	arg01, local08
0128c     1D 23 02 F6 | 	mov	arg02, local09
01290     04 26 06 F6 | 	mov	arg04, #4
01294     00 28 06 F6 | 	mov	arg05, #0
01298     88 07 B0 FD | 	call	#_outtextxycg
0129c     84 01 90 FD | 	jmp	#LR__0020
012a0                 | LR__0018
012a0                 | '   elseif (ccc==3)
012a0     03 64 0E F2 | 	cmp	local30, #3 wz
012a4     7C 01 90 5D |  if_ne	jmp	#LR__0019
012a8                 | '     cls(0,0)
012a8     00 20 06 F6 | 	mov	arg01, #0
012ac     00 22 06 F6 | 	mov	arg02, #0
012b0     A0 0B B0 FD | 	call	#_cls
012b4                 | '     outtextxycg(0,0,string("mode"),120,0)
012b4     1B 00 00 FF 
012b8     D7 25 06 F6 | 	mov	arg03, ##@LR__0229
012bc     00 20 06 F6 | 	mov	arg01, #0
012c0     00 22 06 F6 | 	mov	arg02, #0
012c4     78 26 06 F6 | 	mov	arg04, #120
012c8     00 28 06 F6 | 	mov	arg05, #0
012cc     54 07 B0 FD | 	call	#_outtextxycg
012d0                 | '     outtextxycg(0,16,string("cpl"),120,0)'
012d0     1B 00 00 FF 
012d4     DC 25 06 F6 | 	mov	arg03, ##@LR__0230
012d8     00 20 06 F6 | 	mov	arg01, #0
012dc     10 22 06 F6 | 	mov	arg02, #16
012e0     78 26 06 F6 | 	mov	arg04, #120
012e4     00 28 06 F6 | 	mov	arg05, #0
012e8     38 07 B0 FD | 	call	#_outtextxycg
012ec                 | '     outtextxycg(0,32,string("buf_ptr"),120,0)
012ec     1B 00 00 FF 
012f0     E0 25 06 F6 | 	mov	arg03, ##@LR__0231
012f4     00 20 06 F6 | 	mov	arg01, #0
012f8     20 22 06 F6 | 	mov	arg02, #32
012fc     78 26 06 F6 | 	mov	arg04, #120
01300     00 28 06 F6 | 	mov	arg05, #0
01304     1C 07 B0 FD | 	call	#_outtextxycg
01308                 | '     outtextxycg(0,48,string("buflen"),120,0)
01308     1B 00 00 FF 
0130c     E8 25 06 F6 | 	mov	arg03, ##@LR__0232
01310     00 20 06 F6 | 	mov	arg01, #0
01314     30 22 06 F6 | 	mov	arg02, #48
01318     78 26 06 F6 | 	mov	arg04, #120
0131c     00 28 06 F6 | 	mov	arg05, #0
01320     00 07 B0 FD | 	call	#_outtextxycg
01324                 | '     outtextxycg(0,64,string("lines"),120,0)
01324     1B 00 00 FF 
01328     EF 25 06 F6 | 	mov	arg03, ##@LR__0233
0132c     00 20 06 F6 | 	mov	arg01, #0
01330     40 22 06 F6 | 	mov	arg02, #64
01334     78 26 06 F6 | 	mov	arg04, #120
01338     00 28 06 F6 | 	mov	arg05, #0
0133c     E4 06 B0 FD | 	call	#_outtextxycg
01340                 | '     outtextxycg(64,0,inttostr(amode),40,0)
01340     40 38 06 F6 | 	mov	local08, #64
01344     00 3A 06 F6 | 	mov	local09, #0
01348     41 21 02 F6 | 	mov	arg01, local45
0134c     54 0C B0 FD | 	call	#_inttostr
01350     DF 24 02 F6 | 	mov	arg03, result1
01354     1C 21 02 F6 | 	mov	arg01, local08
01358     1D 23 02 F6 | 	mov	arg02, local09
0135c     28 26 06 F6 | 	mov	arg04, #40
01360     00 28 06 F6 | 	mov	arg05, #0
01364     BC 06 B0 FD | 	call	#_outtextxycg
01368                 | '     outtextxycg(64,16,inttostr(cpl),40,0)
01368     40 38 06 F6 | 	mov	local08, #64
0136c     10 3A 06 F6 | 	mov	local09, #16
01370     90 AE 05 F1 | 	add	objptr, #144
01374     D7 20 02 FB | 	rdlong	arg01, objptr
01378     90 AE 85 F1 | 	sub	objptr, #144
0137c     24 0C B0 FD | 	call	#_inttostr
01380     DF 24 02 F6 | 	mov	arg03, result1
01384     1C 21 02 F6 | 	mov	arg01, local08
01388     1D 23 02 F6 | 	mov	arg02, local09
0138c     28 26 06 F6 | 	mov	arg04, #40
01390     00 28 06 F6 | 	mov	arg05, #0
01394     8C 06 B0 FD | 	call	#_outtextxycg
01398                 | '     outtextxycg(64,32,inttostr(buf_ptr),40,0)
01398     40 38 06 F6 | 	mov	local08, #64
0139c     20 3A 06 F6 | 	mov	local09, #32
013a0     D7 20 02 FB | 	rdlong	arg01, objptr
013a4     FC 0B B0 FD | 	call	#_inttostr
013a8     DF 24 02 F6 | 	mov	arg03, result1
013ac     1C 21 02 F6 | 	mov	arg01, local08
013b0     1D 23 02 F6 | 	mov	arg02, local09
013b4     28 26 06 F6 | 	mov	arg04, #40
013b8     00 28 06 F6 | 	mov	arg05, #0
013bc     64 06 B0 FD | 	call	#_outtextxycg
013c0     30 AE 05 F1 | 	add	objptr, #48
013c4     D7 20 02 FB | 	rdlong	arg01, objptr
013c8     30 AE 85 F1 | 	sub	objptr, #48
013cc     02 20 66 F0 | 	shl	arg01, #2
013d0                 | '     outtextxycg(64,48,inttostr(buflen*4),40,0)
013d0     40 38 06 F6 | 	mov	local08, #64
013d4     30 3A 06 F6 | 	mov	local09, #48
013d8     C8 0B B0 FD | 	call	#_inttostr
013dc     DF 24 02 F6 | 	mov	arg03, result1
013e0     1C 21 02 F6 | 	mov	arg01, local08
013e4     1D 23 02 F6 | 	mov	arg02, local09
013e8     28 26 06 F6 | 	mov	arg04, #40
013ec     00 28 06 F6 | 	mov	arg05, #0
013f0     30 06 B0 FD | 	call	#_outtextxycg
013f4                 | '     outtextxycg(64,64,inttostr(lines),40,0)
013f4     40 38 06 F6 | 	mov	local08, #64
013f8     40 3A 06 F6 | 	mov	local09, #64
013fc     94 AE 05 F1 | 	add	objptr, #148
01400     D7 20 02 FB | 	rdlong	arg01, objptr
01404     94 AE 85 F1 | 	sub	objptr, #148
01408     98 0B B0 FD | 	call	#_inttostr
0140c     DF 24 02 F6 | 	mov	arg03, result1
01410     1C 21 02 F6 | 	mov	arg01, local08
01414     1D 23 02 F6 | 	mov	arg02, local09
01418     28 26 06 F6 | 	mov	arg04, #40
0141c     00 28 06 F6 | 	mov	arg05, #0
01420     00 06 B0 FD | 	call	#_outtextxycg
01424                 | LR__0019
01424                 | LR__0020
01424                 | LR__0021
01424                 | LR__0022
01424                 | '   waitvbl(120)
01424     78 20 06 F6 | 	mov	arg01, #120
01428     B4 09 B0 FD | 	call	#_waitvbl
0142c     01 82 06 F1 | 	add	local45, #1
01430     02 00 00 FF 
01434     00 82 5E F2 | 	cmps	local45, ##1024 wcz
01438     BC F9 9F CD |  if_b	jmp	#LR__0015
0143c                 | ' 
0143c                 | ' repeat
0143c                 | LR__0023
0143c     FC FF 9F FD | 	jmp	#LR__0023
01440     A4 F0 03 F6 | 	mov	ptra, fp
01444     B8 00 A0 FD | 	call	#popregs_
01448                 | _dummy_ret
01448     2D 00 64 FD | 	ret
0144c                 | 
0144c                 | ' 
0144c                 | ' '------------------------------
0144c                 | ' 
0144c                 | ' pub fcircle(x0,y0,r,c) | d,x,y,da,db
0144c                 | _fcircle
0144c     0D 44 05 F6 | 	mov	COUNT_, #13
01450     A9 00 A0 FD | 	call	#pushregs_
01454     10 2B 02 F6 | 	mov	local01, arg01
01458     11 2D 02 F6 | 	mov	local02, arg02
0145c     12 2F 02 F6 | 	mov	local03, arg03
01460     13 31 02 F6 | 	mov	local04, arg04
01464     17 33 02 F6 | 	mov	local05, local03
01468     02 32 66 F0 | 	shl	local05, #2
0146c     05 34 06 F6 | 	mov	local06, #5
01470     19 35 82 F1 | 	sub	local06, local05
01474                 | ' 
01474                 | ' d:=5-4*r
01474                 | ' x:=0
01474     00 36 06 F6 | 	mov	local07, #0
01478                 | ' y:=r
01478     FF FF 7F FF 
0147c     FE 2F 06 FD | 	qmul	local03, ##-2
01480     18 38 62 FD | 	getqx	local08
01484     05 38 06 F1 | 	add	local08, #5
01488     02 38 66 F0 | 	shl	local08, #2
0148c                 | ' da:=(-2*r+5)*4
0148c                 | ' db:=3*4
0148c     0C 3A 06 F6 | 	mov	local09, #12
01490                 | ' repeat while (x<=y) 
01490                 | LR__0024
01490     17 37 5A F2 | 	cmps	local07, local03 wcz
01494     C4 00 90 1D |  if_a	jmp	#LR__0026
01498     15 3D 02 F6 | 	mov	local10, local01
0149c     1B 3D 82 F1 | 	sub	local10, local07
014a0     16 27 02 F6 | 	mov	arg04, local02
014a4     17 27 82 F1 | 	sub	arg04, local03
014a8     15 3F 02 F6 | 	mov	local11, local01
014ac     1B 3F 02 F1 | 	add	local11, local07
014b0                 | '   line(x0-x,y0-y,x0+x,y0-y,c)
014b0     1E 21 02 F6 | 	mov	arg01, local10
014b4     13 23 02 F6 | 	mov	arg02, arg04
014b8     1F 25 02 F6 | 	mov	arg03, local11
014bc     18 29 02 F6 | 	mov	arg05, local04
014c0     BC 02 B0 FD | 	call	#_line
014c4     16 27 02 F6 | 	mov	arg04, local02
014c8     17 27 02 F1 | 	add	arg04, local03
014cc                 | '   line(x0-x,y0+y,x0+x,y0+y,c)
014cc     1E 21 02 F6 | 	mov	arg01, local10
014d0     13 23 02 F6 | 	mov	arg02, arg04
014d4     1F 25 02 F6 | 	mov	arg03, local11
014d8     18 29 02 F6 | 	mov	arg05, local04
014dc     A0 02 B0 FD | 	call	#_line
014e0     15 41 02 F6 | 	mov	local12, local01
014e4     17 41 82 F1 | 	sub	local12, local03
014e8     16 27 02 F6 | 	mov	arg04, local02
014ec     1B 27 82 F1 | 	sub	arg04, local07
014f0     15 43 02 F6 | 	mov	local13, local01
014f4     17 43 02 F1 | 	add	local13, local03
014f8                 | '   line(x0-y,y0-x,x0+y,y0-x,c)
014f8     20 21 02 F6 | 	mov	arg01, local12
014fc     13 23 02 F6 | 	mov	arg02, arg04
01500     21 25 02 F6 | 	mov	arg03, local13
01504     18 29 02 F6 | 	mov	arg05, local04
01508     74 02 B0 FD | 	call	#_line
0150c     16 27 02 F6 | 	mov	arg04, local02
01510     1B 27 02 F1 | 	add	arg04, local07
01514                 | '   line(x0-y,y0+x,x0+y,y0+x,c)
01514     20 21 02 F6 | 	mov	arg01, local12
01518     13 23 02 F6 | 	mov	arg02, arg04
0151c     21 25 02 F6 | 	mov	arg03, local13
01520     18 29 02 F6 | 	mov	arg05, local04
01524     58 02 B0 FD | 	call	#_line
01528                 | '   if d>0 
01528     00 34 5E F2 | 	cmps	local06, #0 wcz
0152c     18 00 90 ED |  if_be	jmp	#LR__0025
01530                 | '     d+=da
01530     1C 35 02 F1 | 	add	local06, local08
01534                 | '     y-=1
01534     01 2E 86 F1 | 	sub	local03, #1
01538                 | '     x+=1
01538     01 36 06 F1 | 	add	local07, #1
0153c                 | '     da+=4*4
0153c     10 38 06 F1 | 	add	local08, #16
01540                 | '     db+=2*4
01540     08 3A 06 F1 | 	add	local09, #8
01544                 | '   else
01544     48 FF 9F FD | 	jmp	#LR__0024
01548                 | LR__0025
01548                 | '     d+=db
01548     1D 35 02 F1 | 	add	local06, local09
0154c                 | '     x+=1
0154c     01 36 06 F1 | 	add	local07, #1
01550                 | '     da+=2*4
01550     08 38 06 F1 | 	add	local08, #8
01554                 | '     db+=2*4
01554     08 3A 06 F1 | 	add	local09, #8
01558     34 FF 9F FD | 	jmp	#LR__0024
0155c                 | LR__0026
0155c     A4 F0 03 F6 | 	mov	ptra, fp
01560     B8 00 A0 FD | 	call	#popregs_
01564                 | _fcircle_ret
01564     2D 00 64 FD | 	ret
01568                 | 
01568                 | '  
01568                 | '  
01568                 | '  
01568                 | ' pub circle(x0,y0,r,c) | d,x,y,da,db
01568                 | _circle
01568     15 44 05 F6 | 	mov	COUNT_, #21
0156c     A9 00 A0 FD | 	call	#pushregs_
01570     10 2B 02 F6 | 	mov	local01, arg01
01574     11 2D 02 F6 | 	mov	local02, arg02
01578     12 2F 02 F6 | 	mov	local03, arg03
0157c     13 31 02 F6 | 	mov	local04, arg04
01580     17 33 02 F6 | 	mov	local05, local03
01584     02 32 66 F0 | 	shl	local05, #2
01588     05 34 06 F6 | 	mov	local06, #5
0158c     19 35 82 F1 | 	sub	local06, local05
01590                 | ' 
01590                 | '  
01590                 | ' d:=5-4*r
01590                 | ' x:=0
01590     00 36 06 F6 | 	mov	local07, #0
01594                 | ' y:=r
01594     FF FF 7F FF 
01598     FE 2F 06 FD | 	qmul	local03, ##-2
0159c     18 38 62 FD | 	getqx	local08
015a0     05 38 06 F1 | 	add	local08, #5
015a4     02 38 66 F0 | 	shl	local08, #2
015a8                 | ' da:=(-2*r+5)*4
015a8                 | ' db:=3*4
015a8     0C 3A 06 F6 | 	mov	local09, #12
015ac                 | ' repeat while (x<=y) 
015ac                 | LR__0027
015ac     17 37 5A F2 | 	cmps	local07, local03 wcz
015b0     C0 01 90 1D |  if_a	jmp	#LR__0029
015b4     15 3D 02 F6 | 	mov	local10, local01
015b8     1B 3D 82 F1 | 	sub	local10, local07
015bc     16 3F 02 F6 | 	mov	local11, local02
015c0     17 3F 82 F1 | 	sub	local11, local03
015c4                 | '   putpixel(x0-x,y0-y,c)
015c4     D8 AE 05 F1 | 	add	objptr, #216
015c8     D7 40 02 FB | 	rdlong	local12, objptr
015cc     D8 AE 85 F1 | 	sub	objptr, #216
015d0     20 43 02 FB | 	rdlong	local13, local12
015d4     04 40 06 F1 | 	add	local12, #4
015d8     20 45 02 FB | 	rdlong	local14, local12
015dc     1E 21 02 F6 | 	mov	arg01, local10
015e0     1F 23 02 F6 | 	mov	arg02, local11
015e4     18 25 02 F6 | 	mov	arg03, local04
015e8     D7 46 02 F6 | 	mov	local15, objptr
015ec     21 AF 01 F6 | 	mov	objptr, local13
015f0     2D 44 62 FD | 	call	local14
015f4     16 49 02 F6 | 	mov	local16, local02
015f8     17 49 02 F1 | 	add	local16, local03
015fc                 | '   putpixel(x0-x,y0+y,c)
015fc     D8 46 06 F1 | 	add	local15, #216
01600     23 41 02 FB | 	rdlong	local12, local15
01604     D8 46 86 F1 | 	sub	local15, #216
01608     20 AF 01 FB | 	rdlong	objptr, local12
0160c     04 40 06 F1 | 	add	local12, #4
01610     20 45 02 FB | 	rdlong	local14, local12
01614     1E 21 02 F6 | 	mov	arg01, local10
01618     24 23 02 F6 | 	mov	arg02, local16
0161c     18 25 02 F6 | 	mov	arg03, local04
01620     2D 44 62 FD | 	call	local14
01624     15 4B 02 F6 | 	mov	local17, local01
01628     1B 4B 02 F1 | 	add	local17, local07
0162c                 | '   putpixel(x0+x,y0-y,c)
0162c     D8 46 06 F1 | 	add	local15, #216
01630     23 41 02 FB | 	rdlong	local12, local15
01634     D8 46 86 F1 | 	sub	local15, #216
01638     20 AF 01 FB | 	rdlong	objptr, local12
0163c     04 40 06 F1 | 	add	local12, #4
01640     20 45 02 FB | 	rdlong	local14, local12
01644     25 21 02 F6 | 	mov	arg01, local17
01648     1F 23 02 F6 | 	mov	arg02, local11
0164c     18 25 02 F6 | 	mov	arg03, local04
01650     2D 44 62 FD | 	call	local14
01654                 | '   putpixel(x0+x,y0+y,c)
01654     D8 46 06 F1 | 	add	local15, #216
01658     23 41 02 FB | 	rdlong	local12, local15
0165c     D8 46 86 F1 | 	sub	local15, #216
01660     20 AF 01 FB | 	rdlong	objptr, local12
01664     04 40 06 F1 | 	add	local12, #4
01668     20 45 02 FB | 	rdlong	local14, local12
0166c     25 21 02 F6 | 	mov	arg01, local17
01670     24 23 02 F6 | 	mov	arg02, local16
01674     18 25 02 F6 | 	mov	arg03, local04
01678     2D 44 62 FD | 	call	local14
0167c     15 4D 02 F6 | 	mov	local18, local01
01680     17 4D 82 F1 | 	sub	local18, local03
01684     16 4F 02 F6 | 	mov	local19, local02
01688     1B 4F 82 F1 | 	sub	local19, local07
0168c                 | '   putpixel(x0-y,y0-x,c)
0168c     D8 46 06 F1 | 	add	local15, #216
01690     23 41 02 FB | 	rdlong	local12, local15
01694     D8 46 86 F1 | 	sub	local15, #216
01698     20 AF 01 FB | 	rdlong	objptr, local12
0169c     04 40 06 F1 | 	add	local12, #4
016a0     20 45 02 FB | 	rdlong	local14, local12
016a4     26 21 02 F6 | 	mov	arg01, local18
016a8     27 23 02 F6 | 	mov	arg02, local19
016ac     18 25 02 F6 | 	mov	arg03, local04
016b0     2D 44 62 FD | 	call	local14
016b4     16 51 02 F6 | 	mov	local20, local02
016b8     1B 51 02 F1 | 	add	local20, local07
016bc                 | '   putpixel(x0-y,y0+x,c)
016bc     D8 46 06 F1 | 	add	local15, #216
016c0     23 41 02 FB | 	rdlong	local12, local15
016c4     D8 46 86 F1 | 	sub	local15, #216
016c8     20 AF 01 FB | 	rdlong	objptr, local12
016cc     04 40 06 F1 | 	add	local12, #4
016d0     20 45 02 FB | 	rdlong	local14, local12
016d4     26 21 02 F6 | 	mov	arg01, local18
016d8     28 23 02 F6 | 	mov	arg02, local20
016dc     18 25 02 F6 | 	mov	arg03, local04
016e0     2D 44 62 FD | 	call	local14
016e4     15 53 02 F6 | 	mov	local21, local01
016e8     17 53 02 F1 | 	add	local21, local03
016ec                 | '   putpixel(x0+y,y0-x,c)
016ec     D8 46 06 F1 | 	add	local15, #216
016f0     23 41 02 FB | 	rdlong	local12, local15
016f4     D8 46 86 F1 | 	sub	local15, #216
016f8     20 AF 01 FB | 	rdlong	objptr, local12
016fc     04 40 06 F1 | 	add	local12, #4
01700     20 45 02 FB | 	rdlong	local14, local12
01704     29 21 02 F6 | 	mov	arg01, local21
01708     27 23 02 F6 | 	mov	arg02, local19
0170c     18 25 02 F6 | 	mov	arg03, local04
01710     2D 44 62 FD | 	call	local14
01714                 | '   putpixel(x0+y,y0+x,c)
01714     D8 46 06 F1 | 	add	local15, #216
01718     23 41 02 FB | 	rdlong	local12, local15
0171c     D8 46 86 F1 | 	sub	local15, #216
01720     20 AF 01 FB | 	rdlong	objptr, local12
01724     04 40 06 F1 | 	add	local12, #4
01728     20 45 02 FB | 	rdlong	local14, local12
0172c     29 21 02 F6 | 	mov	arg01, local21
01730     28 23 02 F6 | 	mov	arg02, local20
01734     18 25 02 F6 | 	mov	arg03, local04
01738     2D 44 62 FD | 	call	local14
0173c     23 AF 01 F6 | 	mov	objptr, local15
01740                 | '   if d>0 
01740     00 34 5E F2 | 	cmps	local06, #0 wcz
01744     18 00 90 ED |  if_be	jmp	#LR__0028
01748                 | '     d+=da
01748     1C 35 02 F1 | 	add	local06, local08
0174c                 | '     y-=1
0174c     01 2E 86 F1 | 	sub	local03, #1
01750                 | '     x+=1
01750     01 36 06 F1 | 	add	local07, #1
01754                 | '     da+=4*4
01754     10 38 06 F1 | 	add	local08, #16
01758                 | '     db+=2*4
01758     08 3A 06 F1 | 	add	local09, #8
0175c                 | '   else
0175c     4C FE 9F FD | 	jmp	#LR__0027
01760                 | LR__0028
01760                 | '     d+=db
01760     1D 35 02 F1 | 	add	local06, local09
01764                 | '     x+=1
01764     01 36 06 F1 | 	add	local07, #1
01768                 | '     da+=2*4
01768     08 38 06 F1 | 	add	local08, #8
0176c                 | '     db+=2*4
0176c     08 3A 06 F1 | 	add	local09, #8
01770     38 FE 9F FD | 	jmp	#LR__0027
01774                 | LR__0029
01774     A4 F0 03 F6 | 	mov	ptra, fp
01778     B8 00 A0 FD | 	call	#popregs_
0177c                 | _circle_ret
0177c     2D 00 64 FD | 	ret
01780                 | 
01780                 | ' 
01780                 | ' 
01780                 | ' pub line(x1,y1,x2,y2,c) | d,dx,dy,ai,bi,xi,yi,x,y
01780                 | _line
01780     12 44 05 F6 | 	mov	COUNT_, #18
01784     A9 00 A0 FD | 	call	#pushregs_
01788     10 2B 02 F6 | 	mov	local01, arg01
0178c     11 2D 02 F6 | 	mov	local02, arg02
01790     12 2F 02 F6 | 	mov	local03, arg03
01794     13 31 02 F6 | 	mov	local04, arg04
01798     14 33 02 F6 | 	mov	local05, arg05
0179c                 | ' 
0179c                 | ' 
0179c                 | ' x:=x1
0179c     15 35 02 F6 | 	mov	local06, local01
017a0                 | ' y:=y1
017a0     16 37 02 F6 | 	mov	local07, local02
017a4                 | ' 
017a4                 | ' if (x1<x2) 
017a4     17 2B 5A F2 | 	cmps	local01, local03 wcz
017a8     10 00 90 3D |  if_ae	jmp	#LR__0030
017ac                 | '   xi:=1
017ac     01 38 06 F6 | 	mov	local08, #1
017b0     17 3B 02 F6 | 	mov	local09, local03
017b4     15 3B 82 F1 | 	sub	local09, local01
017b8                 | '   dx:=x2-x1
017b8                 | ' else
017b8     0C 00 90 FD | 	jmp	#LR__0031
017bc                 | LR__0030
017bc                 | '   xi:=-1
017bc     01 38 66 F6 | 	neg	local08, #1
017c0     17 2B 82 F1 | 	sub	local01, local03
017c4                 | '   dx:=x1-x2
017c4     15 3B 02 F6 | 	mov	local09, local01
017c8                 | LR__0031
017c8                 | '   
017c8                 | ' if (y1<y2) 
017c8     18 2D 5A F2 | 	cmps	local02, local04 wcz
017cc     10 00 90 3D |  if_ae	jmp	#LR__0032
017d0                 | '   yi:=1
017d0     01 3C 06 F6 | 	mov	local10, #1
017d4     18 3F 02 F6 | 	mov	local11, local04
017d8     16 3F 82 F1 | 	sub	local11, local02
017dc                 | '   dy:=y2-y1
017dc                 | ' else
017dc     0C 00 90 FD | 	jmp	#LR__0033
017e0                 | LR__0032
017e0                 | '   yi:=-1
017e0     01 3C 66 F6 | 	neg	local10, #1
017e4     18 2D 82 F1 | 	sub	local02, local04
017e8                 | '   dy:=y1-y2
017e8     16 3F 02 F6 | 	mov	local11, local02
017ec                 | LR__0033
017ec                 | ' 
017ec                 | ' putpixel(x,y,c)
017ec     D8 AE 05 F1 | 	add	objptr, #216
017f0     D7 40 02 FB | 	rdlong	local12, objptr
017f4     D8 AE 85 F1 | 	sub	objptr, #216
017f8     20 43 02 FB | 	rdlong	local13, local12
017fc     04 40 06 F1 | 	add	local12, #4
01800     20 45 02 FB | 	rdlong	local14, local12
01804     1A 21 02 F6 | 	mov	arg01, local06
01808     1B 23 02 F6 | 	mov	arg02, local07
0180c     19 25 02 F6 | 	mov	arg03, local05
01810     D7 46 02 F6 | 	mov	local15, objptr
01814     21 AF 01 F6 | 	mov	objptr, local13
01818     2D 44 62 FD | 	call	local14
0181c     23 AF 01 F6 | 	mov	objptr, local15
01820                 | ' 
01820                 | ' if (dx>dy)
01820     1F 3B 5A F2 | 	cmps	local09, local11 wcz
01824     7C 00 90 ED |  if_be	jmp	#LR__0037
01828     1F 49 02 F6 | 	mov	local16, local11
0182c     1D 49 82 F1 | 	sub	local16, local09
01830     01 48 66 F0 | 	shl	local16, #1
01834                 | '   ai:=(dy-dx)*2
01834     01 3E 66 F0 | 	shl	local11, #1
01838     1F 4B 02 F6 | 	mov	local17, local11
0183c                 | '   bi:=dy*2
0183c     25 4D 02 F6 | 	mov	local18, local17
01840     1D 4D 82 F1 | 	sub	local18, local09
01844                 | '   d:= bi-dx
01844                 | '   repeat while (x<>x2) 
01844                 | LR__0034
01844     17 35 0A F2 | 	cmp	local06, local03 wz
01848     D4 00 90 AD |  if_e	jmp	#LR__0042
0184c                 | '     if (d>=0) 
0184c     00 4C 5E F2 | 	cmps	local18, #0 wcz
01850     10 00 90 CD |  if_b	jmp	#LR__0035
01854                 | '       x+=xi
01854     1C 35 02 F1 | 	add	local06, local08
01858                 | '       y+=yi
01858     1E 37 02 F1 | 	add	local07, local10
0185c                 | '       d+=ai
0185c     24 4D 02 F1 | 	add	local18, local16
01860                 | '     else
01860     08 00 90 FD | 	jmp	#LR__0036
01864                 | LR__0035
01864                 | '       d+=bi
01864     25 4D 02 F1 | 	add	local18, local17
01868                 | '       x+=xi
01868     1C 35 02 F1 | 	add	local06, local08
0186c                 | LR__0036
0186c                 | '     putpixel(x,y,c)
0186c     D8 AE 05 F1 | 	add	objptr, #216
01870     D7 40 02 FB | 	rdlong	local12, objptr
01874     D8 AE 85 F1 | 	sub	objptr, #216
01878     20 43 02 FB | 	rdlong	local13, local12
0187c     04 40 06 F1 | 	add	local12, #4
01880     20 45 02 FB | 	rdlong	local14, local12
01884     1A 21 02 F6 | 	mov	arg01, local06
01888     1B 23 02 F6 | 	mov	arg02, local07
0188c     19 25 02 F6 | 	mov	arg03, local05
01890     D7 46 02 F6 | 	mov	local15, objptr
01894     21 AF 01 F6 | 	mov	objptr, local13
01898     2D 44 62 FD | 	call	local14
0189c     23 AF 01 F6 | 	mov	objptr, local15
018a0     A0 FF 9F FD | 	jmp	#LR__0034
018a4                 | ' else
018a4                 | LR__0037
018a4     1D 49 02 F6 | 	mov	local16, local09
018a8     1F 49 82 F1 | 	sub	local16, local11
018ac     01 48 66 F0 | 	shl	local16, #1
018b0                 | '   ai:=(dx-dy)*2
018b0     01 3A 66 F0 | 	shl	local09, #1
018b4     1D 4B 02 F6 | 	mov	local17, local09
018b8                 | '   bi:=dx*2
018b8     25 4D 02 F6 | 	mov	local18, local17
018bc     1F 4D 82 F1 | 	sub	local18, local11
018c0                 | '   d:=bi-dy
018c0                 | '   repeat while (y<>y2)
018c0                 | LR__0038
018c0     18 37 0A F2 | 	cmp	local07, local04 wz
018c4     58 00 90 AD |  if_e	jmp	#LR__0041
018c8                 | '     if (d>=0)
018c8     00 4C 5E F2 | 	cmps	local18, #0 wcz
018cc     10 00 90 CD |  if_b	jmp	#LR__0039
018d0                 | '       x+=xi
018d0     1C 35 02 F1 | 	add	local06, local08
018d4                 | '       y+=yi
018d4     1E 37 02 F1 | 	add	local07, local10
018d8                 | '       d+=ai
018d8     24 4D 02 F1 | 	add	local18, local16
018dc                 | '     else
018dc     08 00 90 FD | 	jmp	#LR__0040
018e0                 | LR__0039
018e0                 | '       d+=bi
018e0     25 4D 02 F1 | 	add	local18, local17
018e4                 | '       y+=yi
018e4     1E 37 02 F1 | 	add	local07, local10
018e8                 | LR__0040
018e8                 | '     putpixel(x, y,c)
018e8     D8 AE 05 F1 | 	add	objptr, #216
018ec     D7 40 02 FB | 	rdlong	local12, objptr
018f0     D8 AE 85 F1 | 	sub	objptr, #216
018f4     20 43 02 FB | 	rdlong	local13, local12
018f8     04 40 06 F1 | 	add	local12, #4
018fc     20 45 02 FB | 	rdlong	local14, local12
01900     1A 21 02 F6 | 	mov	arg01, local06
01904     1B 23 02 F6 | 	mov	arg02, local07
01908     19 25 02 F6 | 	mov	arg03, local05
0190c     D7 46 02 F6 | 	mov	local15, objptr
01910     21 AF 01 F6 | 	mov	objptr, local13
01914     2D 44 62 FD | 	call	local14
01918     23 AF 01 F6 | 	mov	objptr, local15
0191c     A0 FF 9F FD | 	jmp	#LR__0038
01920                 | LR__0041
01920                 | LR__0042
01920     A4 F0 03 F6 | 	mov	ptra, fp
01924     B8 00 A0 FD | 	call	#popregs_
01928                 | _line_ret
01928     2D 00 64 FD | 	ret
0192c                 | 
0192c                 | ' 
0192c                 | ' pub putcharxycg(x,y,achar,f,b) |xx, yy,bb
0192c                 | _putcharxycg
0192c     0E 44 05 F6 | 	mov	COUNT_, #14
01930     A9 00 A0 FD | 	call	#pushregs_
01934     10 2B 02 F6 | 	mov	local01, arg01
01938     11 2D 02 F6 | 	mov	local02, arg02
0193c     12 2F 02 F6 | 	mov	local03, arg03
01940     13 31 02 F6 | 	mov	local04, arg04
01944     14 33 02 F6 | 	mov	local05, arg05
01948     04 2E 66 F0 | 	shl	local03, #4
0194c     00 34 06 F6 | 	mov	local06, #0
01950                 | LR__0043
01950     DA 36 02 F6 | 	mov	local07, ptr__dat__
01954     C8 AE 05 F1 | 	add	objptr, #200
01958     D7 38 02 FB | 	rdlong	local08, objptr
0195c     C8 AE 85 F1 | 	sub	objptr, #200
01960     0A 38 66 F0 | 	shl	local08, #10
01964     1C 37 02 F1 | 	add	local07, local08
01968     17 37 02 F1 | 	add	local07, local03
0196c     1A 37 02 F1 | 	add	local07, local06
01970                 | '   bb:=byte[@vga_font+font_family<<10+achar<<4+yy]
01970     1B 3B C2 FA | 	rdbyte	local09, local07
01974                 | '   repeat xx from 0 to 7
01974     00 3C 06 F6 | 	mov	local10, #0
01978                 | LR__0044
01978                 | '     if (bb&(1<<xx))<>0
01978     1E 3F C2 F9 | 	decod	local11, local10
0197c     1F 3B CA F7 | 	test	local09, local11 wz
01980     40 00 90 AD |  if_e	jmp	#LR__0045
01984     1E 21 02 F6 | 	mov	arg01, local10
01988     15 21 02 F1 | 	add	arg01, local01
0198c     1A 23 02 F6 | 	mov	arg02, local06
01990     16 23 02 F1 | 	add	arg02, local02
01994                 | '       putpixel(xx+x,yy+y,f)
01994     D8 AE 05 F1 | 	add	objptr, #216
01998     D7 40 02 FB | 	rdlong	local12, objptr
0199c     D8 AE 85 F1 | 	sub	objptr, #216
019a0     20 3F 02 FB | 	rdlong	local11, local12
019a4     04 40 06 F1 | 	add	local12, #4
019a8     20 43 02 FB | 	rdlong	local13, local12
019ac     18 25 02 F6 | 	mov	arg03, local04
019b0     D7 44 02 F6 | 	mov	local14, objptr
019b4     1F AF 01 F6 | 	mov	objptr, local11
019b8     2D 42 62 FD | 	call	local13
019bc     22 AF 01 F6 | 	mov	objptr, local14
019c0                 | '     else
019c0     3C 00 90 FD | 	jmp	#LR__0046
019c4                 | LR__0045
019c4     1E 21 02 F6 | 	mov	arg01, local10
019c8     15 21 02 F1 | 	add	arg01, local01
019cc     1A 23 02 F6 | 	mov	arg02, local06
019d0     16 23 02 F1 | 	add	arg02, local02
019d4                 | '       putpixel(xx+x,yy+y,b)
019d4     D8 AE 05 F1 | 	add	objptr, #216
019d8     D7 40 02 FB | 	rdlong	local12, objptr
019dc     D8 AE 85 F1 | 	sub	objptr, #216
019e0     20 3F 02 FB | 	rdlong	local11, local12
019e4     04 40 06 F1 | 	add	local12, #4
019e8     20 43 02 FB | 	rdlong	local13, local12
019ec     19 25 02 F6 | 	mov	arg03, local05
019f0     D7 44 02 F6 | 	mov	local14, objptr
019f4     1F AF 01 F6 | 	mov	objptr, local11
019f8     2D 42 62 FD | 	call	local13
019fc     22 AF 01 F6 | 	mov	objptr, local14
01a00                 | LR__0046
01a00     01 3C 06 F1 | 	add	local10, #1
01a04     08 3C 5E F2 | 	cmps	local10, #8 wcz
01a08     6C FF 9F CD |  if_b	jmp	#LR__0044
01a0c     01 34 06 F1 | 	add	local06, #1
01a10     10 34 5E F2 | 	cmps	local06, #16 wcz
01a14     38 FF 9F CD |  if_b	jmp	#LR__0043
01a18     A4 F0 03 F6 | 	mov	ptra, fp
01a1c     B8 00 A0 FD | 	call	#popregs_
01a20                 | _putcharxycg_ret
01a20     2D 00 64 FD | 	ret
01a24                 | 
01a24                 | ' 
01a24                 | ' pub outtextxycg(x,y,text,f,b) | iii,c
01a24                 | _outtextxycg
01a24     0C 44 05 F6 | 	mov	COUNT_, #12
01a28     A9 00 A0 FD | 	call	#pushregs_
01a2c     10 2B 02 F6 | 	mov	local01, arg01
01a30     11 2D 02 F6 | 	mov	local02, arg02
01a34     12 2F 02 F6 | 	mov	local03, arg03
01a38     13 31 02 F6 | 	mov	local04, arg04
01a3c     14 33 02 F6 | 	mov	local05, arg05
01a40                 | ' 
01a40                 | ' repeat iii from 0 to strsize(text)-1
01a40     00 34 06 F6 | 	mov	local06, #0
01a44     17 21 02 F6 | 	mov	arg01, local03
01a48     00 36 06 F6 | 	mov	local07, #0
01a4c     C0 E5 9F FE | 	loc	pa,	#(@LR__0048-@LR__0047)
01a50     95 00 A0 FD | 	call	#FCACHE_LOAD_
01a54                 | LR__0047
01a54     10 39 CA FA | 	rdbyte	local08, arg01 wz
01a58     01 36 06 51 |  if_ne	add	local07, #1
01a5c     01 20 06 51 |  if_ne	add	arg01, #1
01a60     F0 FF 9F 5D |  if_ne	jmp	#LR__0047
01a64                 | LR__0048
01a64     1B BF 01 F6 | 	mov	result1, local07
01a68     DF 3A 02 F6 | 	mov	local09, result1
01a6c     01 3A 86 F1 | 	sub	local09, #1
01a70     00 3A 5E F2 | 	cmps	local09, #0 wcz
01a74     01 3C 06 16 |  if_a	mov	local10, #1
01a78     01 3C 66 E6 |  if_be	neg	local10, #1
01a7c     1E 3B 02 F1 | 	add	local09, local10
01a80                 | LR__0049
01a80     1A 3F 02 F6 | 	mov	local11, local06
01a84     03 3E 66 F0 | 	shl	local11, #3
01a88     15 21 02 F6 | 	mov	arg01, local01
01a8c     1F 21 02 F1 | 	add	arg01, local11
01a90     17 41 02 F6 | 	mov	local12, local03
01a94     1A 41 02 F1 | 	add	local12, local06
01a98                 | '   putcharxycg(x+8*iii,y,byte[text+iii],f,b)
01a98     16 23 02 F6 | 	mov	arg02, local02
01a9c     20 25 C2 FA | 	rdbyte	arg03, local12
01aa0     18 27 02 F6 | 	mov	arg04, local04
01aa4     19 29 02 F6 | 	mov	arg05, local05
01aa8     80 FE BF FD | 	call	#_putcharxycg
01aac     1E 35 02 F1 | 	add	local06, local10
01ab0     1D 35 0A F2 | 	cmp	local06, local09 wz
01ab4     C8 FF 9F 5D |  if_ne	jmp	#LR__0049
01ab8     A4 F0 03 F6 | 	mov	ptra, fp
01abc     B8 00 A0 FD | 	call	#popregs_
01ac0                 | _outtextxycg_ret
01ac0     2D 00 64 FD | 	ret
01ac4                 | 
01ac4                 | ' 
01ac4                 | ' 
01ac4                 | ' ''---------- putpixel - put a pixel on the screen
01ac4                 | ' 
01ac4                 | ' pub putpixel1(x,y,c) |byte b
01ac4                 | _putpixel1
01ac4                 | ' 
01ac4                 | ' 
01ac4                 | ' if ((x>=0) & (x<32*cpl) & (y>=0) & (y<lines))
01ac4     00 C2 05 F6 | 	mov	_var01, #0
01ac8     00 20 5E F2 | 	cmps	arg01, #0 wcz
01acc     01 C2 65 36 |  if_ae	neg	_var01, #1
01ad0     00 C4 05 F6 | 	mov	_var02, #0
01ad4     90 AE 05 F1 | 	add	objptr, #144
01ad8     D7 C6 01 FB | 	rdlong	_var03, objptr
01adc     05 C6 65 F0 | 	shl	_var03, #5
01ae0     E3 20 5A F2 | 	cmps	arg01, _var03 wcz
01ae4     01 C4 65 C6 |  if_b	neg	_var02, #1
01ae8     E2 C2 01 F5 | 	and	_var01, _var02
01aec     00 C8 05 F6 | 	mov	_var04, #0
01af0     00 22 5E F2 | 	cmps	arg02, #0 wcz
01af4     01 C8 65 36 |  if_ae	neg	_var04, #1
01af8     E4 C2 01 F5 | 	and	_var01, _var04
01afc     00 CA 05 F6 | 	mov	_var05, #0
01b00     04 AE 05 F1 | 	add	objptr, #4
01b04     D7 CC 01 FB | 	rdlong	_var06, objptr
01b08     94 AE 85 F1 | 	sub	objptr, #148
01b0c     E6 22 5A F2 | 	cmps	arg02, _var06 wcz
01b10     01 CA 65 C6 |  if_b	neg	_var05, #1
01b14     E5 C2 C9 F7 | 	test	_var01, _var05 wz
01b18     8C 00 90 AD |  if_e	jmp	#LR__0052
01b1c     90 AE 05 F1 | 	add	objptr, #144
01b20     D7 CE 01 FB | 	rdlong	_var07, objptr
01b24     90 AE 85 F1 | 	sub	objptr, #144
01b28     02 CE 65 F0 | 	shl	_var07, #2
01b2c     11 CF 01 FD | 	qmul	_var07, arg02
01b30     18 D0 61 FD | 	getqx	_var08
01b34     D7 D2 01 FB | 	rdlong	_var09, objptr
01b38     E8 D2 01 F1 | 	add	_var09, _var08
01b3c     10 D5 01 F6 | 	mov	_var10, arg01
01b40     03 D4 45 F0 | 	shr	_var10, #3
01b44     EA D2 01 F1 | 	add	_var09, _var10
01b48                 | '     b:=byte[buf_ptr+4*cpl*y+(x>>3)]
01b48     E9 D6 C1 FA | 	rdbyte	_var11, _var09
01b4c                 | '     if (c==0)
01b4c     00 24 0E F2 | 	cmp	arg03, #0 wz
01b50     18 00 90 5D |  if_ne	jmp	#LR__0050
01b54     10 C3 51 F6 | 	abs	_var01, arg01 wc
01b58     07 C2 05 F5 | 	and	_var01, #7
01b5c     E1 C2 61 C6 |  if_b	neg	_var01, _var01
01b60     E1 D8 C1 F9 | 	decod	_var12, _var01
01b64                 | '       b:=b & !(1<<(x//8))
01b64     EC D6 21 F5 | 	andn	_var11, _var12
01b68                 | '     else
01b68     14 00 90 FD | 	jmp	#LR__0051
01b6c                 | LR__0050
01b6c     10 C3 51 F6 | 	abs	_var01, arg01 wc
01b70     07 C2 05 F5 | 	and	_var01, #7
01b74     E1 C2 61 C6 |  if_b	neg	_var01, _var01
01b78     E1 DA C1 F9 | 	decod	_var13, _var01
01b7c                 | '       b:=b |(1<<(x//8))
01b7c     ED D6 41 F5 | 	or	_var11, _var13
01b80                 | LR__0051
01b80     90 AE 05 F1 | 	add	objptr, #144
01b84     D7 DC 01 FB | 	rdlong	_var14, objptr
01b88     90 AE 85 F1 | 	sub	objptr, #144
01b8c     02 DC 65 F0 | 	shl	_var14, #2
01b90     11 DD 01 FD | 	qmul	_var14, arg02
01b94     18 DE 61 FD | 	getqx	_var15
01b98     D7 E0 01 FB | 	rdlong	_var16, objptr
01b9c     EF E0 01 F1 | 	add	_var16, _var15
01ba0     EA E0 01 F1 | 	add	_var16, _var10
01ba4                 | '     byte[buf_ptr+4*cpl*y+(x>>3)]:=b
01ba4     F0 D6 41 FC | 	wrbyte	_var11, _var16
01ba8                 | LR__0052
01ba8                 | _putpixel1_ret
01ba8     2D 00 64 FD | 	ret
01bac                 | 
01bac                 | ' 
01bac                 | ' 
01bac                 | ' pub putpixel2(x,y,c) |byte b
01bac                 | _putpixel2
01bac                 | ' 
01bac                 | ' 
01bac                 | ' if ((x>=0) & (x<16*cpl) & (y>=0) & (y<lines))
01bac     00 C2 05 F6 | 	mov	_var01, #0
01bb0     00 20 5E F2 | 	cmps	arg01, #0 wcz
01bb4     01 C2 65 36 |  if_ae	neg	_var01, #1
01bb8     00 C4 05 F6 | 	mov	_var02, #0
01bbc     90 AE 05 F1 | 	add	objptr, #144
01bc0     D7 C6 01 FB | 	rdlong	_var03, objptr
01bc4     04 C6 65 F0 | 	shl	_var03, #4
01bc8     E3 20 5A F2 | 	cmps	arg01, _var03 wcz
01bcc     01 C4 65 C6 |  if_b	neg	_var02, #1
01bd0     E2 C2 01 F5 | 	and	_var01, _var02
01bd4     00 C8 05 F6 | 	mov	_var04, #0
01bd8     00 22 5E F2 | 	cmps	arg02, #0 wcz
01bdc     01 C8 65 36 |  if_ae	neg	_var04, #1
01be0     E4 C2 01 F5 | 	and	_var01, _var04
01be4     00 CA 05 F6 | 	mov	_var05, #0
01be8     04 AE 05 F1 | 	add	objptr, #4
01bec     D7 CC 01 FB | 	rdlong	_var06, objptr
01bf0     94 AE 85 F1 | 	sub	objptr, #148
01bf4     E6 22 5A F2 | 	cmps	arg02, _var06 wcz
01bf8     01 CA 65 C6 |  if_b	neg	_var05, #1
01bfc     E5 C2 C9 F7 | 	test	_var01, _var05 wz
01c00     7C 00 90 AD |  if_e	jmp	#LR__0053
01c04     90 AE 05 F1 | 	add	objptr, #144
01c08     D7 CE 01 FB | 	rdlong	_var07, objptr
01c0c     90 AE 85 F1 | 	sub	objptr, #144
01c10     02 CE 65 F0 | 	shl	_var07, #2
01c14     11 CF 01 FD | 	qmul	_var07, arg02
01c18     18 D0 61 FD | 	getqx	_var08
01c1c     D7 D2 01 FB | 	rdlong	_var09, objptr
01c20     E8 D2 01 F1 | 	add	_var09, _var08
01c24     10 D5 01 F6 | 	mov	_var10, arg01
01c28     02 D4 45 F0 | 	shr	_var10, #2
01c2c     EA D2 01 F1 | 	add	_var09, _var10
01c30                 | '     b:=byte[buf_ptr+4*cpl*y+(x>>2)]
01c30     E9 D6 C1 FA | 	rdbyte	_var11, _var09
01c34     10 C3 51 F6 | 	abs	_var01, arg01 wc
01c38     03 C2 05 F5 | 	and	_var01, #3
01c3c     E1 C2 61 C6 |  if_b	neg	_var01, _var01
01c40     01 C2 65 F0 | 	shl	_var01, #1
01c44     03 D8 05 F6 | 	mov	_var12, #3
01c48     E1 D8 61 F0 | 	shl	_var12, _var01
01c4c                 | '     b:=b & !(%11<<((x//4)<<1))
01c4c     EC D6 21 F5 | 	andn	_var11, _var12
01c50     E1 24 62 F0 | 	shl	arg03, _var01
01c54                 | '     b:=b |(c<<((x//4)<<1))
01c54     12 D7 41 F5 | 	or	_var11, arg03
01c58     90 AE 05 F1 | 	add	objptr, #144
01c5c     D7 DA 01 FB | 	rdlong	_var13, objptr
01c60     90 AE 85 F1 | 	sub	objptr, #144
01c64     02 DA 65 F0 | 	shl	_var13, #2
01c68     11 DB 01 FD | 	qmul	_var13, arg02
01c6c     18 DC 61 FD | 	getqx	_var14
01c70     D7 DE 01 FB | 	rdlong	_var15, objptr
01c74     EE DE 01 F1 | 	add	_var15, _var14
01c78     EA DE 01 F1 | 	add	_var15, _var10
01c7c                 | '     byte[buf_ptr+4*cpl*y+(x>>2)]:=b
01c7c     EF D6 41 FC | 	wrbyte	_var11, _var15
01c80                 | LR__0053
01c80                 | _putpixel2_ret
01c80     2D 00 64 FD | 	ret
01c84                 | 
01c84                 | ' 
01c84                 | ' 
01c84                 | ' pub putpixel4(x,y,c) |byte b
01c84                 | _putpixel4
01c84                 | ' 
01c84                 | ' if ((x>=0) & (x<16*cpl) & (y>=0) & (y<lines))
01c84     00 C2 05 F6 | 	mov	_var01, #0
01c88     00 20 5E F2 | 	cmps	arg01, #0 wcz
01c8c     01 C2 65 36 |  if_ae	neg	_var01, #1
01c90     00 C4 05 F6 | 	mov	_var02, #0
01c94     90 AE 05 F1 | 	add	objptr, #144
01c98     D7 C6 01 FB | 	rdlong	_var03, objptr
01c9c     04 C6 65 F0 | 	shl	_var03, #4
01ca0     E3 20 5A F2 | 	cmps	arg01, _var03 wcz
01ca4     01 C4 65 C6 |  if_b	neg	_var02, #1
01ca8     E2 C2 01 F5 | 	and	_var01, _var02
01cac     00 C8 05 F6 | 	mov	_var04, #0
01cb0     00 22 5E F2 | 	cmps	arg02, #0 wcz
01cb4     01 C8 65 36 |  if_ae	neg	_var04, #1
01cb8     E4 C2 01 F5 | 	and	_var01, _var04
01cbc     00 CA 05 F6 | 	mov	_var05, #0
01cc0     04 AE 05 F1 | 	add	objptr, #4
01cc4     D7 CC 01 FB | 	rdlong	_var06, objptr
01cc8     94 AE 85 F1 | 	sub	objptr, #148
01ccc     E6 22 5A F2 | 	cmps	arg02, _var06 wcz
01cd0     01 CA 65 C6 |  if_b	neg	_var05, #1
01cd4     E5 C2 C9 F7 | 	test	_var01, _var05 wz
01cd8     7C 00 90 AD |  if_e	jmp	#LR__0054
01cdc     90 AE 05 F1 | 	add	objptr, #144
01ce0     D7 CE 01 FB | 	rdlong	_var07, objptr
01ce4     90 AE 85 F1 | 	sub	objptr, #144
01ce8     02 CE 65 F0 | 	shl	_var07, #2
01cec     11 CF 01 FD | 	qmul	_var07, arg02
01cf0     18 D0 61 FD | 	getqx	_var08
01cf4     D7 D2 01 FB | 	rdlong	_var09, objptr
01cf8     E8 D2 01 F1 | 	add	_var09, _var08
01cfc     10 D5 01 F6 | 	mov	_var10, arg01
01d00     01 D4 45 F0 | 	shr	_var10, #1
01d04     EA D2 01 F1 | 	add	_var09, _var10
01d08                 | '     b:=byte[buf_ptr+4*cpl*y+(x>>1)]
01d08     E9 D6 C1 FA | 	rdbyte	_var11, _var09
01d0c     10 C3 51 F6 | 	abs	_var01, arg01 wc
01d10     01 C2 05 F5 | 	and	_var01, #1
01d14     E1 C2 61 C6 |  if_b	neg	_var01, _var01
01d18     02 C2 65 F0 | 	shl	_var01, #2
01d1c     0F D8 05 F6 | 	mov	_var12, #15
01d20     E1 D8 61 F0 | 	shl	_var12, _var01
01d24                 | '     b:=b & !(%1111<<((x//2)<<2))
01d24     EC D6 21 F5 | 	andn	_var11, _var12
01d28     E1 24 62 F0 | 	shl	arg03, _var01
01d2c                 | '     b:=b |(c<<((x//2)<<2))
01d2c     12 D7 41 F5 | 	or	_var11, arg03
01d30     90 AE 05 F1 | 	add	objptr, #144
01d34     D7 DA 01 FB | 	rdlong	_var13, objptr
01d38     90 AE 85 F1 | 	sub	objptr, #144
01d3c     02 DA 65 F0 | 	shl	_var13, #2
01d40     11 DB 01 FD | 	qmul	_var13, arg02
01d44     18 DC 61 FD | 	getqx	_var14
01d48     D7 DE 01 FB | 	rdlong	_var15, objptr
01d4c     EE DE 01 F1 | 	add	_var15, _var14
01d50     EA DE 01 F1 | 	add	_var15, _var10
01d54                 | '     byte[buf_ptr+4*cpl*y+(x>>1)]:=b
01d54     EF D6 41 FC | 	wrbyte	_var11, _var15
01d58                 | LR__0054
01d58                 | _putpixel4_ret
01d58     2D 00 64 FD | 	ret
01d5c                 | 
01d5c                 | ' 
01d5c                 | ' 
01d5c                 | ' pub putpixel8(x,y,c)
01d5c                 | _putpixel8
01d5c                 | ' 
01d5c                 | ' if ((x>=0) & (x<4*cpl) & (y>=0) & (y<lines))
01d5c     00 C2 05 F6 | 	mov	_var01, #0
01d60     00 20 5E F2 | 	cmps	arg01, #0 wcz
01d64     01 C2 65 36 |  if_ae	neg	_var01, #1
01d68     00 C4 05 F6 | 	mov	_var02, #0
01d6c     90 AE 05 F1 | 	add	objptr, #144
01d70     D7 C6 01 FB | 	rdlong	_var03, objptr
01d74     02 C6 65 F0 | 	shl	_var03, #2
01d78     E3 20 5A F2 | 	cmps	arg01, _var03 wcz
01d7c     01 C4 65 C6 |  if_b	neg	_var02, #1
01d80     E2 C2 01 F5 | 	and	_var01, _var02
01d84     00 C8 05 F6 | 	mov	_var04, #0
01d88     00 22 5E F2 | 	cmps	arg02, #0 wcz
01d8c     01 C8 65 36 |  if_ae	neg	_var04, #1
01d90     E4 C2 01 F5 | 	and	_var01, _var04
01d94     00 CA 05 F6 | 	mov	_var05, #0
01d98     04 AE 05 F1 | 	add	objptr, #4
01d9c     D7 CC 01 FB | 	rdlong	_var06, objptr
01da0     94 AE 85 F1 | 	sub	objptr, #148
01da4     E6 22 5A F2 | 	cmps	arg02, _var06 wcz
01da8     01 CA 65 C6 |  if_b	neg	_var05, #1
01dac     E5 C2 C9 F7 | 	test	_var01, _var05 wz
01db0     28 00 90 AD |  if_e	jmp	#LR__0055
01db4     90 AE 05 F1 | 	add	objptr, #144
01db8     D7 CE 01 FB | 	rdlong	_var07, objptr
01dbc     90 AE 85 F1 | 	sub	objptr, #144
01dc0     02 CE 65 F0 | 	shl	_var07, #2
01dc4     11 CF 01 FD | 	qmul	_var07, arg02
01dc8     18 D0 61 FD | 	getqx	_var08
01dcc     D7 D2 01 FB | 	rdlong	_var09, objptr
01dd0     E8 D2 01 F1 | 	add	_var09, _var08
01dd4     10 D3 01 F1 | 	add	_var09, arg01
01dd8                 | '     byte[buf_ptr+4*cpl*y+x]:=c
01dd8     E9 24 42 FC | 	wrbyte	arg03, _var09
01ddc                 | LR__0055
01ddc                 | _putpixel8_ret
01ddc     2D 00 64 FD | 	ret
01de0                 | 
01de0                 | ' 
01de0                 | ' '*************************************************************************
01de0                 | ' '                                                                        *
01de0                 | ' '  VBlank functions                                                      *
01de0                 | ' '                                                                        *
01de0                 | ' '*************************************************************************
01de0                 | ' 
01de0                 | ' pub waitvbl(amount) | i
01de0                 | _waitvbl
01de0     04 44 05 F6 | 	mov	COUNT_, #4
01de4     A9 00 A0 FD | 	call	#pushregs_
01de8     10 2B 02 F6 | 	mov	local01, arg01
01dec                 | ' 
01dec                 | ' ''---------- Wait for start of vblank. Amount=delay in frames
01dec                 | ' 
01dec                 | ' repeat i from 1 to amount
01dec     01 2C 06 F6 | 	mov	local02, #1
01df0     01 2A 5E F2 | 	cmps	local01, #1 wcz
01df4     01 2E 06 16 |  if_a	mov	local03, #1
01df8     01 2E 66 E6 |  if_be	neg	local03, #1
01dfc     17 2B 02 F1 | 	add	local01, local03
01e00                 | LR__0056
01e00                 | '   repeat until vblank==0
01e00                 | LR__0057
01e00     40 AE 05 F1 | 	add	objptr, #64
01e04     D7 30 0A FB | 	rdlong	local04, objptr wz
01e08     40 AE 85 F1 | 	sub	objptr, #64
01e0c     0C 00 90 AD |  if_e	jmp	#LR__0058
01e10                 | '     waitus(100)
01e10     64 20 06 F6 | 	mov	arg01, #100
01e14     F0 0F B0 FD | 	call	#__system___waitus
01e18     E4 FF 9F FD | 	jmp	#LR__0057
01e1c                 | LR__0058
01e1c                 | '   repeat until vblank==1
01e1c                 | LR__0059
01e1c     40 AE 05 F1 | 	add	objptr, #64
01e20     D7 30 02 FB | 	rdlong	local04, objptr
01e24     40 AE 85 F1 | 	sub	objptr, #64
01e28     01 30 0E F2 | 	cmp	local04, #1 wz
01e2c     0C 00 90 AD |  if_e	jmp	#LR__0060
01e30                 | '     waitus(100)
01e30     64 20 06 F6 | 	mov	arg01, #100
01e34     D0 0F B0 FD | 	call	#__system___waitus
01e38     E0 FF 9F FD | 	jmp	#LR__0059
01e3c                 | LR__0060
01e3c     17 2D 02 F1 | 	add	local02, local03
01e40     15 2D 0A F2 | 	cmp	local02, local01 wz
01e44     B8 FF 9F 5D |  if_ne	jmp	#LR__0056
01e48     A4 F0 03 F6 | 	mov	ptra, fp
01e4c     B8 00 A0 FD | 	call	#popregs_
01e50                 | _waitvbl_ret
01e50     2D 00 64 FD | 	ret
01e54                 | 
01e54                 | ' 
01e54                 | ' 
01e54                 | ' '*************************************************************************
01e54                 | ' '                                                                        *
01e54                 | ' '  Text functions                                                        *
01e54                 | ' '                                                                        *
01e54                 | ' '*************************************************************************
01e54                 | ' 
01e54                 | ' ''---------- Clear the screen, set its foreground/background color
01e54                 | ' 
01e54                 | ' pub cls(fc,bc)   :c
01e54                 | _cls
01e54     07 44 05 F6 | 	mov	COUNT_, #7
01e58     A9 00 A0 FD | 	call	#pushregs_
01e5c     10 2B 02 F6 | 	mov	local01, arg01
01e60     11 2D 02 F6 | 	mov	local02, arg02
01e64                 | ' 
01e64                 | ' if (graphmode<512)
01e64     C4 AE 05 F1 | 	add	objptr, #196
01e68     D7 2E 02 FB | 	rdlong	local03, objptr
01e6c     C4 AE 85 F1 | 	sub	objptr, #196
01e70     01 00 00 FF 
01e74     00 2E 5E F2 | 	cmps	local03, ##512 wcz
01e78     48 00 90 3D |  if_ae	jmp	#LR__0065
01e7c     15 31 02 F6 | 	mov	local04, local01
01e80     18 30 66 F0 | 	shl	local04, #24
01e84     16 33 02 F6 | 	mov	local05, local02
01e88     10 32 66 F0 | 	shl	local05, #16
01e8c     19 31 02 F1 | 	add	local04, local05
01e90     20 30 06 F1 | 	add	local04, #32
01e94                 | '   c:=fc<<24+bc<<16+$20
01e94                 | '   longfill(buf_ptr,c,buflen)
01e94     D7 20 02 FB | 	rdlong	arg01, objptr
01e98     30 AE 05 F1 | 	add	objptr, #48
01e9c     D7 24 0A FB | 	rdlong	arg03, objptr wz
01ea0     30 AE 85 F1 | 	sub	objptr, #48
01ea4     18 23 02 F6 | 	mov	arg02, local04
01ea8     C4 00 90 AD |  if_e	jmp	#LR__0071
01eac     5C E1 9F FE | 	loc	pa,	#(@LR__0063-@LR__0061)
01eb0     95 00 A0 FD | 	call	#FCACHE_LOAD_
01eb4                 | LR__0061
01eb4     12 05 D8 FC | 	rep	@LR__0064, arg03
01eb8                 | LR__0062
01eb8     10 23 62 FC | 	wrlong	arg02, arg01
01ebc     04 20 06 F1 | 	add	arg01, #4
01ec0                 | LR__0063
01ec0                 | LR__0064
01ec0                 | ' else
01ec0     AC 00 90 FD | 	jmp	#LR__0071
01ec4                 | LR__0065
01ec4                 | '   if (graphmode & 48) ==48
01ec4     C4 AE 05 F1 | 	add	objptr, #196
01ec8     D7 2E 02 FB | 	rdlong	local03, objptr
01ecc     C4 AE 85 F1 | 	sub	objptr, #196
01ed0     30 2E 06 F5 | 	and	local03, #48
01ed4     30 2E 0E F2 | 	cmp	local03, #48 wz
01ed8                 | '     c:=bc
01ed8     16 31 02 A6 |  if_e	mov	local04, local02
01edc     74 00 90 AD |  if_e	jmp	#LR__0070
01ee0                 | '   elseif (graphmode & 48) ==32
01ee0     C4 AE 05 F1 | 	add	objptr, #196
01ee4     D7 2E 02 FB | 	rdlong	local03, objptr
01ee8     C4 AE 85 F1 | 	sub	objptr, #196
01eec     30 2E 06 F5 | 	and	local03, #48
01ef0     20 2E 0E F2 | 	cmp	local03, #32 wz
01ef4     10 00 90 5D |  if_ne	jmp	#LR__0066
01ef8     16 31 02 F6 | 	mov	local04, local02
01efc     04 30 66 F0 | 	shl	local04, #4
01f00     16 31 02 F1 | 	add	local04, local02
01f04                 | '     c:=bc<<4+bc
01f04     4C 00 90 FD | 	jmp	#LR__0069
01f08                 | LR__0066
01f08                 | '   elseif (graphmode & 48) ==16
01f08     C4 AE 05 F1 | 	add	objptr, #196
01f0c     D7 2E 02 FB | 	rdlong	local03, objptr
01f10     C4 AE 85 F1 | 	sub	objptr, #196
01f14     30 2E 06 F5 | 	and	local03, #48
01f18     10 2E 0E F2 | 	cmp	local03, #16 wz
01f1c     28 00 90 5D |  if_ne	jmp	#LR__0067
01f20     16 31 02 F6 | 	mov	local04, local02
01f24     06 30 66 F0 | 	shl	local04, #6
01f28     16 35 02 F6 | 	mov	local06, local02
01f2c     04 34 66 F0 | 	shl	local06, #4
01f30     1A 31 02 F1 | 	add	local04, local06
01f34     16 37 02 F6 | 	mov	local07, local02
01f38     02 36 66 F0 | 	shl	local07, #2
01f3c     1B 31 02 F1 | 	add	local04, local07
01f40     16 31 02 F1 | 	add	local04, local02
01f44                 | '     c:=bc<<6+bc<<4+bc<<2+bc
01f44                 | '   else
01f44     0C 00 90 FD | 	jmp	#LR__0068
01f48                 | LR__0067
01f48                 | '     if bc==1
01f48     01 2C 0E F2 | 	cmp	local02, #1 wz
01f4c                 | '       c:=255
01f4c     FF 30 06 A6 |  if_e	mov	local04, #255
01f50                 | '     else
01f50                 | '       c:=0
01f50     00 30 06 56 |  if_ne	mov	local04, #0
01f54                 | LR__0068
01f54                 | LR__0069
01f54                 | LR__0070
01f54     30 AE 05 F1 | 	add	objptr, #48
01f58     D7 24 02 FB | 	rdlong	arg03, objptr
01f5c     30 AE 85 F1 | 	sub	objptr, #48
01f60     02 24 66 F0 | 	shl	arg03, #2
01f64                 | '   bytefill(buf_ptr,c,buflen*4)
01f64     D7 20 02 FB | 	rdlong	arg01, objptr
01f68     18 23 02 F6 | 	mov	arg02, local04
01f6c     F0 0B B0 FD | 	call	#__system____builtin_memset
01f70                 | LR__0071
01f70                 | ' setwritecolors(fc,bc)
01f70                 | ' 
01f70                 | ' 
01f70                 | ' write_color:=ff
01f70     38 AE 05 F1 | 	add	objptr, #56
01f74     D7 2A 62 FC | 	wrlong	local01, objptr
01f78                 | ' write_background:=bb
01f78     04 AE 05 F1 | 	add	objptr, #4
01f7c     D7 2C 62 FC | 	wrlong	local02, objptr
01f80                 | ' cursor_x:=0
01f80     08 AE 85 F1 | 	sub	objptr, #8
01f84     D7 00 48 FC | 	wrbyte	#0, objptr
01f88                 | ' cursor_y:=0
01f88     01 AE 05 F1 | 	add	objptr, #1
01f8c     D7 00 48 FC | 	wrbyte	#0, objptr
01f90     35 AE 85 F1 | 	sub	objptr, #53
01f94     18 BF 01 F6 | 	mov	result1, local04
01f98     A4 F0 03 F6 | 	mov	ptra, fp
01f9c     B8 00 A0 FD | 	call	#popregs_
01fa0                 | _cls_ret
01fa0     2D 00 64 FD | 	ret
01fa4                 | 
01fa4                 | ' 
01fa4                 | ' 
01fa4                 | ' '*************************************************************************
01fa4                 | ' '                                                                        *
01fa4                 | ' '  Conversions                                                           *
01fa4                 | ' '                                                                        *
01fa4                 | ' '*************************************************************************
01fa4                 | ' 
01fa4                 | ' ''---------- Convert a integer to dec string, return a pointer
01fa4                 | ' 
01fa4                 | ' pub inttostr(i):result |q,pos,k,j
01fa4                 | _inttostr
01fa4     07 44 05 F6 | 	mov	COUNT_, #7
01fa8     A9 00 A0 FD | 	call	#pushregs_
01fac     10 2B 02 F6 | 	mov	local01, arg01
01fb0                 | ' 
01fb0                 | ' j:=i
01fb0     15 2D 0A F6 | 	mov	local02, local01 wz
01fb4                 | ' pos:=10
01fb4     0A 2E 06 F6 | 	mov	local03, #10
01fb8                 | ' k:=0
01fb8     00 30 06 F6 | 	mov	local04, #0
01fbc                 | ' 
01fbc                 | ' if (j==0)
01fbc     18 00 90 5D |  if_ne	jmp	#LR__0072
01fc0                 | '   n_string[0]:=48
01fc0     44 AE 05 F1 | 	add	objptr, #68
01fc4     D7 60 48 FC | 	wrbyte	#48, objptr
01fc8                 | '   n_string[1]:=0
01fc8     01 AE 05 F1 | 	add	objptr, #1
01fcc     D7 00 48 FC | 	wrbyte	#0, objptr
01fd0     45 AE 85 F1 | 	sub	objptr, #69
01fd4                 | ' 
01fd4                 | ' else
01fd4     C4 00 90 FD | 	jmp	#LR__0079
01fd8                 | LR__0072
01fd8                 | '   if (j<0)
01fd8     00 2C 5E F2 | 	cmps	local02, #0 wcz
01fdc                 | '     j:=0-j
01fdc     16 2D 62 C6 |  if_b	neg	local02, local02
01fe0                 | '     k:=45
01fe0     2D 30 06 C6 |  if_b	mov	local04, #45
01fe4                 | ' 
01fe4                 | '   n_string[11]:=0
01fe4     4F AE 05 F1 | 	add	objptr, #79
01fe8     D7 00 48 FC | 	wrbyte	#0, objptr
01fec     4F AE 85 F1 | 	sub	objptr, #79
01ff0     4C E0 9F FE | 	loc	pa,	#(@LR__0074-@LR__0073)
01ff4     95 00 A0 FD | 	call	#FCACHE_LOAD_
01ff8                 | '   repeat while (pos>-1)
01ff8                 | LR__0073
01ff8     FF FF 7F FF 
01ffc     FF 2F 5E F2 | 	cmps	local03, ##-1 wcz
02000     34 00 90 ED |  if_be	jmp	#LR__0075
02004     16 85 02 F6 | 	mov	muldiva_, local02
02008     0A 86 06 F6 | 	mov	muldivb_, #10
0200c     C9 00 A0 FD | 	call	#divide_
02010     42 33 02 F6 | 	mov	local05, muldiva_
02014                 | '     q:=j//10
02014                 | '     q:=48+q
02014     30 32 06 F1 | 	add	local05, #48
02018     17 35 02 F6 | 	mov	local06, local03
0201c     44 AE 05 F1 | 	add	objptr, #68
02020     D7 34 02 F1 | 	add	local06, objptr
02024                 | '     n_string[pos]:=q
02024     1A 33 42 FC | 	wrbyte	local05, local06
02028                 | '     j:=j/10
02028     43 2D 02 F6 | 	mov	local02, muldivb_
0202c                 | '     pos-=1
0202c     01 2E 86 F1 | 	sub	local03, #1
02030     44 AE 85 F1 | 	sub	objptr, #68
02034     C0 FF 9F FD | 	jmp	#LR__0073
02038                 | LR__0074
02038                 | LR__0075
02038                 | '   repeat while n_string[0]==48
02038                 | LR__0076
02038     44 AE 05 F1 | 	add	objptr, #68
0203c     D7 36 C2 FA | 	rdbyte	local07, objptr
02040     44 AE 85 F1 | 	sub	objptr, #68
02044     30 36 0E F2 | 	cmp	local07, #48 wz
02048     20 00 90 5D |  if_ne	jmp	#LR__0077
0204c     44 AE 05 F1 | 	add	objptr, #68
02050     D7 20 02 F6 | 	mov	arg01, objptr
02054     44 AE 85 F1 | 	sub	objptr, #68
02058     10 23 02 F6 | 	mov	arg02, arg01
0205c     01 22 06 F1 | 	add	arg02, #1
02060                 | '     bytemove(@n_string,@n_string+1,12)
02060     0C 24 06 F6 | 	mov	arg03, #12
02064     58 0B B0 FD | 	call	#__system____builtin_memmove
02068     CC FF 9F FD | 	jmp	#LR__0076
0206c                 | LR__0077
0206c                 | ' 
0206c                 | '   if k==45
0206c     2D 30 0E F2 | 	cmp	local04, #45 wz
02070     28 00 90 5D |  if_ne	jmp	#LR__0078
02074     44 AE 05 F1 | 	add	objptr, #68
02078     D7 22 02 F6 | 	mov	arg02, objptr
0207c     44 AE 85 F1 | 	sub	objptr, #68
02080     11 21 02 F6 | 	mov	arg01, arg02
02084     01 20 06 F1 | 	add	arg01, #1
02088                 | '      bytemove(@n_string+1,@n_string,12)
02088     0C 24 06 F6 | 	mov	arg03, #12
0208c     30 0B B0 FD | 	call	#__system____builtin_memmove
02090                 | '      n_string[0]:=k
02090     44 AE 05 F1 | 	add	objptr, #68
02094     D7 30 42 FC | 	wrbyte	local04, objptr
02098     44 AE 85 F1 | 	sub	objptr, #68
0209c                 | LR__0078
0209c                 | LR__0079
0209c     44 AE 05 F1 | 	add	objptr, #68
020a0     D7 BE 01 F6 | 	mov	result1, objptr
020a4     44 AE 85 F1 | 	sub	objptr, #68
020a8                 | ' 
020a8                 | ' q:=@n_string
020a8                 | ' return q
020a8     A4 F0 03 F6 | 	mov	ptra, fp
020ac     B8 00 A0 FD | 	call	#popregs_
020b0                 | _inttostr_ret
020b0     2D 00 64 FD | 	ret
020b4                 | 
020b4                 | ' 
020b4                 | ' 
020b4                 | ' 
020b4                 | ' '*************************************************************************
020b4                 | ' '                                                                        *
020b4                 | ' '  Mode setting and driver start                                                          *
020b4                 | ' '                                                                        *
020b4                 | ' '*************************************************************************
020b4                 | ' 
020b4                 | ' ''---------  Set the graphics mode
020b4                 | ' 
020b4                 | ' 
020b4                 | ' 
020b4                 | ' pub setmode(mode) | i', 'xzoom, yzoom, azoom
020b4                 | _setmode
020b4     20 44 05 F6 | 	mov	COUNT_, #32
020b8     A9 00 A0 FD | 	call	#pushregs_
020bc     10 2B 02 F6 | 	mov	local01, arg01
020c0                 | ' 
020c0                 | ' '' mode:tn_bb_cc_vv_hh
020c0                 | ' '' hh - h.zoom, vv-v.zoom, cc-c.depth,
020c0                 | ' '' bb - borders/total pixels, 00-wide/1140, 01 medium/1026, 10 narrow/912, 11 no border, 1024 px PAL, 880 px NTSC
020c0                 | ' 
020c0                 | ' if mode==(512+192+48)
020c0     01 00 00 FF 
020c4     F0 2A 0E F2 | 	cmp	local01, ##752 wz
020c8                 | '   return 'no RAM
020c8     04 06 90 AD |  if_e	jmp	#LR__0101
020cc                 | ' 
020cc                 | ' case_fast (mode>>6) & 7 ' timings are the same for graphic and text
020cc     15 2D 02 F6 | 	mov	local02, local01
020d0     06 2C 46 F0 | 	shr	local02, #6
020d4     07 2C 06 F5 | 	and	local02, #7
020d8     08 2C 26 F3 | 	fle	local02, #8
020dc     16 2F 02 F6 | 	mov	local03, local02
020e0     30 2E 62 FD | 	jmprel	local03
020e4                 | LR__0080
020e4     20 00 90 FD | 	jmp	#LR__0081
020e8     58 00 90 FD | 	jmp	#LR__0082
020ec     90 00 90 FD | 	jmp	#LR__0083
020f0     C8 00 90 FD | 	jmp	#LR__0084
020f4     00 01 90 FD | 	jmp	#LR__0085
020f8     38 01 90 FD | 	jmp	#LR__0086
020fc     70 01 90 FD | 	jmp	#LR__0087
02100     A8 01 90 FD | 	jmp	#LR__0088
02104     E4 01 90 FD | 	jmp	#LR__0089
02108                 | LR__0081
02108                 | ' 
02108                 | '     0:  longmove(@timings,@timings000,16)   'PAL 50 Hz signaling 1140x624, active 800x480, 100x30 text, wide border, 2 colors per pixel, 00_00_00_00_00=0, 354_693_878 Hz
02108     50 AE 05 F1 | 	add	objptr, #80
0210c     D7 20 02 F6 | 	mov	arg01, objptr
02110     50 AE 85 F1 | 	sub	objptr, #80
02114     0E 00 00 FF 
02118     58 B4 05 F1 | 	add	ptr__dat__, ##7256
0211c     DA 30 02 F6 | 	mov	local04, ptr__dat__
02120     18 33 02 F6 | 	mov	local05, local04
02124     10 34 06 F6 | 	mov	local06, #16
02128     19 23 02 F6 | 	mov	arg02, local05
0212c     10 24 06 F6 | 	mov	arg03, #16
02130     0E 00 00 FF 
02134     58 B4 85 F1 | 	sub	ptr__dat__, ##7256
02138     14 0B B0 FD | 	call	#__system__longmove
0213c     DF 36 02 F6 | 	mov	local07, result1
02140     A8 01 90 FD | 	jmp	#LR__0089
02144                 | LR__0082
02144                 | '     1:  longmove(@timings,@timings064,16)   'PAL 50 Hz signaling 1026x624, active 880x496, 110x31 text, medium border, 2 colors per pixel 00_01_00_00_00=64, 319_215_686 Hz
02144     50 AE 05 F1 | 	add	objptr, #80
02148     D7 20 02 F6 | 	mov	arg01, objptr
0214c     50 AE 85 F1 | 	sub	objptr, #80
02150     0E 00 00 FF 
02154     98 B4 05 F1 | 	add	ptr__dat__, ##7320
02158     DA 30 02 F6 | 	mov	local04, ptr__dat__
0215c     18 33 02 F6 | 	mov	local05, local04
02160     10 34 06 F6 | 	mov	local06, #16
02164     19 23 02 F6 | 	mov	arg02, local05
02168     10 24 06 F6 | 	mov	arg03, #16
0216c     0E 00 00 FF 
02170     98 B4 85 F1 | 	sub	ptr__dat__, ##7320
02174     D8 0A B0 FD | 	call	#__system__longmove
02178     DF 36 02 F6 | 	mov	local07, result1
0217c     6C 01 90 FD | 	jmp	#LR__0089
02180                 | LR__0083
02180                 | '     2:  longmove(@timings,@timings128,16)   'PAL 50 Hz signaling 912x624, active 800x480, 100x30 text, medium border, 2 colors per pixel 00_10_00_00_00=64, 283750000z
02180     50 AE 05 F1 | 	add	objptr, #80
02184     D7 20 02 F6 | 	mov	arg01, objptr
02188     50 AE 85 F1 | 	sub	objptr, #80
0218c     0E 00 00 FF 
02190     D8 B4 05 F1 | 	add	ptr__dat__, ##7384
02194     DA 30 02 F6 | 	mov	local04, ptr__dat__
02198     18 33 02 F6 | 	mov	local05, local04
0219c     10 34 06 F6 | 	mov	local06, #16
021a0     19 23 02 F6 | 	mov	arg02, local05
021a4     10 24 06 F6 | 	mov	arg03, #16
021a8     0E 00 00 FF 
021ac     D8 B4 85 F1 | 	sub	ptr__dat__, ##7384
021b0     9C 0A B0 FD | 	call	#__system__longmove
021b4     DF 36 02 F6 | 	mov	local07, result1
021b8     30 01 90 FD | 	jmp	#LR__0089
021bc                 | LR__0084
021bc                 | '     3:  longmove(@timings,@timings192,16)   'PAL 50 Hz signaling 1140x624, active 1024x576, 128x36 text, borderless, 2 colors per pixel 00_11_00_00_00=6192, 354_693_878 Hz
021bc     50 AE 05 F1 | 	add	objptr, #80
021c0     D7 20 02 F6 | 	mov	arg01, objptr
021c4     50 AE 85 F1 | 	sub	objptr, #80
021c8     0E 00 00 FF 
021cc     18 B5 05 F1 | 	add	ptr__dat__, ##7448
021d0     DA 30 02 F6 | 	mov	local04, ptr__dat__
021d4     18 33 02 F6 | 	mov	local05, local04
021d8     10 34 06 F6 | 	mov	local06, #16
021dc     19 23 02 F6 | 	mov	arg02, local05
021e0     10 24 06 F6 | 	mov	arg03, #16
021e4     0E 00 00 FF 
021e8     18 B5 85 F1 | 	sub	ptr__dat__, ##7448
021ec     60 0A B0 FD | 	call	#__system__longmove
021f0     DF 36 02 F6 | 	mov	local07, result1
021f4     F4 00 90 FD | 	jmp	#LR__0089
021f8                 | LR__0085
021f8                 | '     4:  longmove(@timings,@timings256,16)   'NTSC 50 Hz signaling 1140x524, active 800x480, 100x30 text, NO PLACE FOR wide border, 2 colors per pixel, 01_00_00_00_00=256, 357959184 Hz
021f8     50 AE 05 F1 | 	add	objptr, #80
021fc     D7 20 02 F6 | 	mov	arg01, objptr
02200     50 AE 85 F1 | 	sub	objptr, #80
02204     0E 00 00 FF 
02208     58 B5 05 F1 | 	add	ptr__dat__, ##7512
0220c     DA 30 02 F6 | 	mov	local04, ptr__dat__
02210     18 33 02 F6 | 	mov	local05, local04
02214     10 34 06 F6 | 	mov	local06, #16
02218     19 23 02 F6 | 	mov	arg02, local05
0221c     10 24 06 F6 | 	mov	arg03, #16
02220     0E 00 00 FF 
02224     58 B5 85 F1 | 	sub	ptr__dat__, ##7512
02228     24 0A B0 FD | 	call	#__system__longmove
0222c     DF 36 02 F6 | 	mov	local07, result1
02230     B8 00 90 FD | 	jmp	#LR__0089
02234                 | LR__0086
02234                 | '     5:  longmove(@timings,@timings320,16)   'NTSC 50 Hz signaling 1026x524, active 800x480, 100x30 text, NO PLACE FOR wide border, 2 colors per pixel, 01_01_00_00_00=320, 322162162 Hz
02234     50 AE 05 F1 | 	add	objptr, #80
02238     D7 20 02 F6 | 	mov	arg01, objptr
0223c     50 AE 85 F1 | 	sub	objptr, #80
02240     0E 00 00 FF 
02244     98 B5 05 F1 | 	add	ptr__dat__, ##7576
02248     DA 30 02 F6 | 	mov	local04, ptr__dat__
0224c     18 33 02 F6 | 	mov	local05, local04
02250     10 34 06 F6 | 	mov	local06, #16
02254     19 23 02 F6 | 	mov	arg02, local05
02258     10 24 06 F6 | 	mov	arg03, #16
0225c     0E 00 00 FF 
02260     98 B5 85 F1 | 	sub	ptr__dat__, ##7576
02264     E8 09 B0 FD | 	call	#__system__longmove
02268     DF 36 02 F6 | 	mov	local07, result1
0226c     7C 00 90 FD | 	jmp	#LR__0089
02270                 | LR__0087
02270                 | '     6:  longmove(@timings,@timings384,16)   'NTSC 50 Hz signaling 912x524, active 800x480, 100x30 text, NO PLACE FOR wide border, 2 colors per pixel, 01_10_00_00_00=384, 286363636 Hz
02270     50 AE 05 F1 | 	add	objptr, #80
02274     D7 20 02 F6 | 	mov	arg01, objptr
02278     50 AE 85 F1 | 	sub	objptr, #80
0227c     0E 00 00 FF 
02280     D8 B5 05 F1 | 	add	ptr__dat__, ##7640
02284     DA 30 02 F6 | 	mov	local04, ptr__dat__
02288     18 33 02 F6 | 	mov	local05, local04
0228c     10 34 06 F6 | 	mov	local06, #16
02290     19 23 02 F6 | 	mov	arg02, local05
02294     10 24 06 F6 | 	mov	arg03, #16
02298     0E 00 00 FF 
0229c     D8 B5 85 F1 | 	sub	ptr__dat__, ##7640
022a0     AC 09 B0 FD | 	call	#__system__longmove
022a4     DF 36 02 F6 | 	mov	local07, result1
022a8     40 00 90 FD | 	jmp	#LR__0089
022ac                 | LR__0088
022ac                 | '     7:  longmove(@timings,@timings448,16)   'NTSC 50 Hz signaling 1026x524, active 880x496, 110x31 text, borderless, 2 colors per pixel, 01_11_00_00_00=496, 322162162 Hz
022ac     50 AE 05 F1 | 	add	objptr, #80
022b0     D7 38 02 F6 | 	mov	local08, objptr
022b4     1C 3B 02 F6 | 	mov	local09, local08
022b8     0F 00 00 FF 
022bc     18 B4 05 F1 | 	add	ptr__dat__, ##7704
022c0     DA 30 02 F6 | 	mov	local04, ptr__dat__
022c4     18 33 02 F6 | 	mov	local05, local04
022c8     10 34 06 F6 | 	mov	local06, #16
022cc     1D 21 02 F6 | 	mov	arg01, local09
022d0     19 23 02 F6 | 	mov	arg02, local05
022d4     10 24 06 F6 | 	mov	arg03, #16
022d8     50 AE 85 F1 | 	sub	objptr, #80
022dc     0F 00 00 FF 
022e0     18 B4 85 F1 | 	sub	ptr__dat__, ##7704
022e4     68 09 B0 FD | 	call	#__system__longmove
022e8     DF 36 02 F6 | 	mov	local07, result1
022ec                 | LR__0089
022ec                 | ' 
022ec                 | ' ' 4-bit graphics: do nothing with timings :)
022ec                 | ' 
022ec                 | ' if (mode & (%10_00_11_0000))==(%10_00_11_0000) ' 8bit graphics, 4 pixels per long instead of 8, cpp x2
022ec     15 2D 02 F6 | 	mov	local02, local01
022f0     01 00 00 FF 
022f4     30 2C 06 F5 | 	and	local02, ##560
022f8     01 00 00 FF 
022fc     30 2C 0E F2 | 	cmp	local02, ##560 wz
02300     48 00 90 5D |  if_ne	jmp	#LR__0090
02304                 | '   timings[5]:=4
02304     64 AE 05 F1 | 	add	objptr, #100
02308     D7 08 68 FC | 	wrlong	#4, objptr
0230c     18 AE 05 F1 | 	add	objptr, #24
02310     D7 3C 02 FB | 	rdlong	local10, objptr
02314     01 3C 66 F0 | 	shl	local10, #1
02318                 | '   timings[11]:=timings[11]<<1
02318     D7 3C 62 FC | 	wrlong	local10, objptr
0231c                 | '   putpixel:=p8
0231c     6C AE 05 F1 | 	add	objptr, #108
02320     D7 2C 02 FB | 	rdlong	local02, objptr
02324     10 AE 85 F1 | 	sub	objptr, #16
02328     D7 2C 62 FC | 	wrlong	local02, objptr
0232c     0C 00 00 FF 
02330     58 B4 05 F1 | 	add	ptr__dat__, ##6232
02334     DA 3E 02 F6 | 	mov	local11, ptr__dat__
02338                 | '   palette_ptr:=@ataripalette
02338     C0 AE 85 F1 | 	sub	objptr, #192
0233c     D7 3E 62 FC | 	wrlong	local11, objptr
02340     18 AE 85 F1 | 	sub	objptr, #24
02344     0C 00 00 FF 
02348     58 B4 85 F1 | 	sub	ptr__dat__, ##6232
0234c                 | LR__0090
0234c                 | ' 
0234c                 | ' if (mode & (%10_00_11_0000))==(%10_00_01_0000) ' 2bit graphics, 16 pixels per long instead of 8, cpp /2
0234c     15 2D 02 F6 | 	mov	local02, local01
02350     01 00 00 FF 
02354     30 2C 06 F5 | 	and	local02, ##560
02358     01 00 00 FF 
0235c     10 2C 0E F2 | 	cmp	local02, ##528 wz
02360     48 00 90 5D |  if_ne	jmp	#LR__0091
02364                 | '   timings[5]:=16
02364     64 AE 05 F1 | 	add	objptr, #100
02368     D7 20 68 FC | 	wrlong	#16, objptr
0236c     18 AE 05 F1 | 	add	objptr, #24
02370     D7 40 02 FB | 	rdlong	local12, objptr
02374     01 40 46 F0 | 	shr	local12, #1
02378                 | '   timings[11]:=timings[11]>>1
02378     D7 40 62 FC | 	wrlong	local12, objptr
0237c                 | '   putpixel:=p2
0237c     64 AE 05 F1 | 	add	objptr, #100
02380     D7 2C 02 FB | 	rdlong	local02, objptr
02384     08 AE 85 F1 | 	sub	objptr, #8
02388     D7 2C 62 FC | 	wrlong	local02, objptr
0238c     0C 00 00 FF 
02390     08 B4 05 F1 | 	add	ptr__dat__, ##6152
02394     DA 42 02 F6 | 	mov	local13, ptr__dat__
02398                 | '   palette_ptr:=@fourcolors
02398     C0 AE 85 F1 | 	sub	objptr, #192
0239c     D7 42 62 FC | 	wrlong	local13, objptr
023a0     18 AE 85 F1 | 	sub	objptr, #24
023a4     0C 00 00 FF 
023a8     08 B4 85 F1 | 	sub	ptr__dat__, ##6152
023ac                 | LR__0091
023ac                 | ' 
023ac                 | ' if (mode & (%10_00_11_0000))==(%10_00_00_0000) ' 1bit graphics, 32 pixels per long instead of 8, cpp /4
023ac     15 2D 02 F6 | 	mov	local02, local01
023b0     01 00 00 FF 
023b4     30 2C 06 F5 | 	and	local02, ##560
023b8     01 00 00 FF 
023bc     00 2C 0E F2 | 	cmp	local02, ##512 wz
023c0     48 00 90 5D |  if_ne	jmp	#LR__0092
023c4                 | '   timings[5]:=32
023c4     64 AE 05 F1 | 	add	objptr, #100
023c8     D7 40 68 FC | 	wrlong	#32, objptr
023cc     18 AE 05 F1 | 	add	objptr, #24
023d0     D7 44 02 FB | 	rdlong	local14, objptr
023d4     02 44 46 F0 | 	shr	local14, #2
023d8                 | '   timings[11]:=timings[11]>>2
023d8     D7 44 62 FC | 	wrlong	local14, objptr
023dc                 | '   putpixel:=p1
023dc     60 AE 05 F1 | 	add	objptr, #96
023e0     D7 2C 02 FB | 	rdlong	local02, objptr
023e4     04 AE 85 F1 | 	sub	objptr, #4
023e8     D7 2C 62 FC | 	wrlong	local02, objptr
023ec     0C 00 00 FF 
023f0     00 B4 05 F1 | 	add	ptr__dat__, ##6144
023f4     DA 46 02 F6 | 	mov	local15, ptr__dat__
023f8                 | '   palette_ptr:=@twocolors
023f8     C0 AE 85 F1 | 	sub	objptr, #192
023fc     D7 46 62 FC | 	wrlong	local15, objptr
02400     18 AE 85 F1 | 	sub	objptr, #24
02404     0C 00 00 FF 
02408     00 B4 85 F1 | 	sub	ptr__dat__, ##6144
0240c                 | LR__0092
0240c                 | ' 
0240c                 | ' if (mode & (%10_00_11_0000))==(%10_00_10_0000) ' 4bit graphics,
0240c     15 2D 02 F6 | 	mov	local02, local01
02410     01 00 00 FF 
02414     30 2C 06 F5 | 	and	local02, ##560
02418     01 00 00 FF 
0241c     20 2C 0E F2 | 	cmp	local02, ##544 wz
02420     30 00 90 5D |  if_ne	jmp	#LR__0093
02424                 | '   putpixel:=p4
02424     E4 AE 05 F1 | 	add	objptr, #228
02428     D7 2C 02 FB | 	rdlong	local02, objptr
0242c     0C AE 85 F1 | 	sub	objptr, #12
02430     D7 2C 62 FC | 	wrlong	local02, objptr
02434     0C 00 00 FF 
02438     18 B4 05 F1 | 	add	ptr__dat__, ##6168
0243c     DA 48 02 F6 | 	mov	local16, ptr__dat__
02440                 | '   palette_ptr:=@vga16
02440     C0 AE 85 F1 | 	sub	objptr, #192
02444     D7 48 62 FC | 	wrlong	local16, objptr
02448     18 AE 85 F1 | 	sub	objptr, #24
0244c     0C 00 00 FF 
02450     18 B4 85 F1 | 	sub	ptr__dat__, ##6168
02454                 | LR__0093
02454                 | ' 
02454                 | ' repeat i from 0 to 4
02454     00 4A 06 F6 | 	mov	local17, #0
02458     E8 DB 9F FE | 	loc	pa,	#(@LR__0095-@LR__0094)
0245c     95 00 A0 FD | 	call	#FCACHE_LOAD_
02460                 | LR__0094
02460     25 4D 02 F6 | 	mov	local18, local17
02464     02 4C 66 F0 | 	shl	local18, #2
02468     50 AE 05 F1 | 	add	objptr, #80
0246c     D7 4C 02 F1 | 	add	local18, objptr
02470     2C AE 85 F1 | 	sub	objptr, #44
02474     D7 4E 02 FB | 	rdlong	local19, objptr
02478     24 AE 85 F1 | 	sub	objptr, #36
0247c     11 4E 66 F0 | 	shl	local19, #17
02480     26 51 02 FB | 	rdlong	local20, local18
02484     27 51 02 F1 | 	add	local20, local19
02488     28 53 02 F6 | 	mov	local21, local20
0248c     80 40 38 FF 
02490     00 52 06 F1 | 	add	local21, ##1887502336
02494                 | '   timings[i]:=timings[i]+hdmibase<<17+ timingsxxt
02494     26 53 62 FC | 	wrlong	local21, local18
02498     01 4A 06 F1 | 	add	local17, #1
0249c     05 4A 5E F2 | 	cmps	local17, #5 wcz
024a0     BC FF 9F CD |  if_b	jmp	#LR__0094
024a4                 | LR__0095
024a4     24 AE 05 F1 | 	add	objptr, #36
024a8     D7 54 02 FB | 	rdlong	local22, objptr
024ac     11 54 66 F0 | 	shl	local22, #17
024b0     40 AE 05 F1 | 	add	objptr, #64
024b4     D7 56 02 FB | 	rdlong	local23, objptr
024b8     2A 57 02 F1 | 	add	local23, local22
024bc                 | ' timings[5]:=timings[5]+hdmibase<<17
024bc     D7 56 62 FC | 	wrlong	local23, objptr
024c0                 | ' clkfreq:=timings[13]
024c0     20 AE 05 F1 | 	add	objptr, #32
024c4     D7 2C 02 FB | 	rdlong	local02, objptr
024c8     14 2C 66 FC | 	wrlong	local02, #20
024cc                 | ' hubset(timings[14])
024cc     04 AE 05 F1 | 	add	objptr, #4
024d0     D7 20 02 FB | 	rdlong	arg01, objptr
024d4     88 AE 85 F1 | 	sub	objptr, #136
024d8     00 20 62 FD | 	hubset	arg01
024dc                 | ' waitms(1)
024dc     01 20 06 F6 | 	mov	arg01, #1
024e0     C4 08 B0 FD | 	call	#__system___waitms
024e4     15 59 02 F6 | 	mov	local24, local01
024e8     03 58 06 F5 | 	and	local24, #3
024ec     2C 5B C2 F9 | 	decod	local25, local24
024f0                 | ' 
024f0                 | ' 
024f0                 | ' xzoom:=1<<(mode & 3)
024f0     CC AE 05 F1 | 	add	objptr, #204
024f4     D7 5A 62 FC | 	wrlong	local25, objptr
024f8                 | ' 
024f8                 | ' if (xzoom==8) && (((mode>>4)&3)<>3)
024f8     2D 39 02 F6 | 	mov	local08, local25
024fc     CC AE 85 F1 | 	sub	objptr, #204
02500     08 38 0E F2 | 	cmp	local08, #8 wz
02504     24 00 90 5D |  if_ne	jmp	#LR__0096
02508     15 3B 02 F6 | 	mov	local09, local01
0250c     04 3A 46 F0 | 	shr	local09, #4
02510     03 3A 06 F5 | 	and	local09, #3
02514     03 3A 0E F2 | 	cmp	local09, #3 wz
02518     10 00 90 AD |  if_e	jmp	#LR__0096
0251c                 | '   xzoom:=4
0251c     04 2C 06 F6 | 	mov	local02, #4
02520     CC AE 05 F1 | 	add	objptr, #204
02524     D7 08 68 FC | 	wrlong	#4, objptr
02528     CC AE 85 F1 | 	sub	objptr, #204
0252c                 | LR__0096
0252c     15 5D 02 F6 | 	mov	local26, local01
02530     02 5C 46 F0 | 	shr	local26, #2
02534     03 5C 06 F5 | 	and	local26, #3
02538     2E 5F C2 F9 | 	decod	local27, local26
0253c                 | ' 
0253c                 | ' yzoom:=1<<((mode>>2) & 3)
0253c     D0 AE 05 F1 | 	add	objptr, #208
02540     D7 5E 62 FC | 	wrlong	local27, objptr
02544     04 AE 85 F1 | 	sub	objptr, #4
02548     D7 38 02 FB | 	rdlong	local08, objptr
0254c     04 AE 05 F1 | 	add	objptr, #4
02550     D7 30 02 FB | 	rdlong	local04, objptr
02554     18 39 02 FD | 	qmul	local08, local04
02558     18 60 62 FD | 	getqx	local28
0255c                 | ' azoom:=xzoom*yzoom
0255c     04 AE 05 F1 | 	add	objptr, #4
02560     D7 60 62 FC | 	wrlong	local28, objptr
02564                 | ' 
02564                 | ' cpl:=timings[11]
02564     58 AE 85 F1 | 	sub	objptr, #88
02568     D7 2C 02 FB | 	rdlong	local02, objptr
0256c     14 AE 05 F1 | 	add	objptr, #20
02570     D7 2C 62 FC | 	wrlong	local02, objptr
02574     90 AE 85 F1 | 	sub	objptr, #144
02578                 | ' if (mode<512)
02578     01 00 00 FF 
0257c     00 2A 5E F2 | 	cmps	local01, ##512 wcz
02580     60 00 90 3D |  if_ae	jmp	#LR__0097
02584     80 AE 05 F1 | 	add	objptr, #128
02588     D7 84 02 FB | 	rdlong	muldiva_, objptr
0258c     04 84 46 F0 | 	shr	muldiva_, #4
02590     50 AE 05 F1 | 	add	objptr, #80
02594     D7 86 02 FB | 	rdlong	muldivb_, objptr
02598     D0 AE 85 F1 | 	sub	objptr, #208
0259c     C5 00 A0 FD | 	call	#unsdivide_
025a0                 | '   lines:=(timings[12]>>4)+/yzoom
025a0     94 AE 05 F1 | 	add	objptr, #148
025a4     D7 86 62 FC | 	wrlong	muldivb_, objptr
025a8                 | '   if ((timings[12]>>4)+//yzoom) <>0
025a8     14 AE 85 F1 | 	sub	objptr, #20
025ac     D7 84 02 FB | 	rdlong	muldiva_, objptr
025b0     04 84 46 F0 | 	shr	muldiva_, #4
025b4     50 AE 05 F1 | 	add	objptr, #80
025b8     D7 86 02 FB | 	rdlong	muldivb_, objptr
025bc     D0 AE 85 F1 | 	sub	objptr, #208
025c0     C5 00 A0 FD | 	call	#unsdivide_
025c4     00 84 0E F2 | 	cmp	muldiva_, #0 wz
025c8     AC 00 90 AD |  if_e	jmp	#LR__0100
025cc                 | '     lines +=1
025cc     94 AE 05 F1 | 	add	objptr, #148
025d0     D7 2C 02 FB | 	rdlong	local02, objptr
025d4     01 2C 06 F1 | 	add	local02, #1
025d8     D7 2C 62 FC | 	wrlong	local02, objptr
025dc     94 AE 85 F1 | 	sub	objptr, #148
025e0                 | ' 
025e0                 | ' else
025e0     94 00 90 FD | 	jmp	#LR__0100
025e4                 | LR__0097
025e4     80 AE 05 F1 | 	add	objptr, #128
025e8     D7 84 02 FB | 	rdlong	muldiva_, objptr
025ec     50 AE 05 F1 | 	add	objptr, #80
025f0     D7 86 02 FB | 	rdlong	muldivb_, objptr
025f4     D0 AE 85 F1 | 	sub	objptr, #208
025f8     C9 00 A0 FD | 	call	#divide_
025fc                 | '   lines:=timings[12]/yzoom
025fc     94 AE 05 F1 | 	add	objptr, #148
02600     D7 86 62 FC | 	wrlong	muldivb_, objptr
02604                 | '   if cpl//xzoom==0
02604     04 AE 85 F1 | 	sub	objptr, #4
02608     D7 84 02 FB | 	rdlong	muldiva_, objptr
0260c     3C AE 05 F1 | 	add	objptr, #60
02610     D7 86 02 FB | 	rdlong	muldivb_, objptr
02614     CC AE 85 F1 | 	sub	objptr, #204
02618     C9 00 A0 FD | 	call	#divide_
0261c     00 84 0E F2 | 	cmp	muldiva_, #0 wz
02620     28 00 90 5D |  if_ne	jmp	#LR__0098
02624                 | '     cpl:=cpl/xzoom
02624     90 AE 05 F1 | 	add	objptr, #144
02628     D7 84 02 FB | 	rdlong	muldiva_, objptr
0262c     3C AE 05 F1 | 	add	objptr, #60
02630     D7 86 02 FB | 	rdlong	muldivb_, objptr
02634     CC AE 85 F1 | 	sub	objptr, #204
02638     C9 00 A0 FD | 	call	#divide_
0263c     90 AE 05 F1 | 	add	objptr, #144
02640     D7 86 62 FC | 	wrlong	muldivb_, objptr
02644     90 AE 85 F1 | 	sub	objptr, #144
02648                 | '   else
02648     2C 00 90 FD | 	jmp	#LR__0099
0264c                 | LR__0098
0264c     90 AE 05 F1 | 	add	objptr, #144
02650     D7 84 02 FB | 	rdlong	muldiva_, objptr
02654     3C AE 05 F1 | 	add	objptr, #60
02658     D7 86 02 FB | 	rdlong	muldivb_, objptr
0265c     CC AE 85 F1 | 	sub	objptr, #204
02660     C9 00 A0 FD | 	call	#divide_
02664     43 63 02 F6 | 	mov	local29, muldivb_
02668     01 62 06 F1 | 	add	local29, #1
0266c                 | '     cpl:=cpl/xzoom+1
0266c     90 AE 05 F1 | 	add	objptr, #144
02670     D7 62 62 FC | 	wrlong	local29, objptr
02674     90 AE 85 F1 | 	sub	objptr, #144
02678                 | LR__0099
02678                 | LR__0100
02678     90 AE 05 F1 | 	add	objptr, #144
0267c     D7 38 02 FB | 	rdlong	local08, objptr
02680     04 AE 05 F1 | 	add	objptr, #4
02684     D7 30 02 FB | 	rdlong	local04, objptr
02688     18 39 02 FD | 	qmul	local08, local04
0268c     18 64 62 FD | 	getqx	local30
02690                 | ' 
02690                 | ' buflen:=(cpl*lines)
02690     64 AE 85 F1 | 	sub	objptr, #100
02694     D7 64 62 FC | 	wrlong	local30, objptr
02698     30 AE 85 F1 | 	sub	objptr, #48
0269c     02 64 66 F0 | 	shl	local30, #2
026a0     13 66 C6 F9 | 	decod	local31, #19
026a4     32 67 82 F1 | 	sub	local31, local30
026a8                 | ' 
026a8                 | ' buf_ptr:=$80000-4*buflen
026a8     D7 66 62 FC | 	wrlong	local31, objptr
026ac     50 AE 05 F1 | 	add	objptr, #80
026b0     D7 68 02 F6 | 	mov	local32, objptr
026b4                 | ' mode_ptr:=@timings
026b4     3C AE 85 F1 | 	sub	objptr, #60
026b8     D7 68 62 FC | 	wrlong	local32, objptr
026bc                 | ' graphmode:=mode
026bc     B0 AE 05 F1 | 	add	objptr, #176
026c0     D7 2A 62 FC | 	wrlong	local01, objptr
026c4     C4 AE 85 F1 | 	sub	objptr, #196
026c8                 | ' makedl(mode)
026c8     15 21 02 F6 | 	mov	arg01, local01
026cc     0C 00 B0 FD | 	call	#_makedl
026d0                 | LR__0101
026d0     A4 F0 03 F6 | 	mov	ptra, fp
026d4     B8 00 A0 FD | 	call	#popregs_
026d8                 | _setmode_ret
026d8     2D 00 64 FD | 	ret
026dc                 | 
026dc                 | ' 
026dc                 | ' 
026dc                 | ' 
026dc                 | ' 
026dc                 | ' '---------- Make a display list
026dc                 | ' 
026dc                 | ' pub makedl (mode) |i, fontline2,charline,bufstart,zoom1,vzoom,lpc,hzoom
026dc                 | _makedl
026dc                 | ' 
026dc                 | ' ''--%aaaa_aaaa_aaaa_aaaa_aazz_nnnn_llll_ll_01 - txt
026dc                 | '   '' aaaa_aaaa_aaaa_aaaa_aazz_rrrr_rrrr_cc_10 - graph
026dc                 | '   '' aaaa_aaaa_aaaa-aaaa_aarr_rrrr_rrrr_rr_11 - extended, next long to read
026dc                 | ' 
026dc                 | ' '   0 - display a up/down border line
026dc                 | ' 
026dc                 | ' '  ' aaaa_aaaa_aaaa_aaaa_aazz_nnnn_llll_ll_01 - text line
026dc                 | ' '    aaaa_aaaa_aaaa_aaaa_aa00 - buffer start, has to be aligned, 1 long for char, ff_bb_rr_cc, foreground, background,reserved, charcode
026dc                 | ' '    zz - zoom, 00-x1, 01-x2, 10-x4, 11-blank line
026dc                 | ' '    nnnn - font line to display, 0..15
026dc                 | ' '    llllll - character line, determines the cursor Y position
026dc                 | ' 
026dc                 | ' 
026dc                 | ' if (mode &256==0)
026dc     00 21 CE F7 | 	test	arg01, #256 wz
026e0     1C 00 90 5D |  if_ne	jmp	#LR__0102
026e4     D7 C2 01 FB | 	rdlong	_var01, objptr
026e8     04 00 00 FF 
026ec     00 C3 85 F1 | 	sub	_var01, ##2304
026f0                 | '   dl_ptr:=buf_ptr-4*576
026f0     1C AE 05 F1 | 	add	objptr, #28
026f4     D7 C2 61 FC | 	wrlong	_var01, objptr
026f8     1C AE 85 F1 | 	sub	objptr, #28
026fc                 | ' else
026fc     18 00 90 FD | 	jmp	#LR__0103
02700                 | LR__0102
02700     D7 C4 01 FB | 	rdlong	_var02, objptr
02704     03 00 00 FF 
02708     C0 C5 85 F1 | 	sub	_var02, ##1984
0270c                 | '   dl_ptr:=buf_ptr-4*496
0270c     1C AE 05 F1 | 	add	objptr, #28
02710     D7 C4 61 FC | 	wrlong	_var02, objptr
02714     1C AE 85 F1 | 	sub	objptr, #28
02718                 | LR__0103
02718     10 C7 01 F6 | 	mov	_var03, arg01
0271c     02 C6 45 F0 | 	shr	_var03, #2
02720     03 C6 05 F5 | 	and	_var03, #3
02724                 | ' 
02724                 | ' vzoom:=((mode>>2) & 3)
02724                 | ' 
02724                 | ' 
02724                 | ' if mode<512 '' text modes
02724     01 00 00 FF 
02728     00 20 5E F2 | 	cmps	arg01, ##512 wcz
0272c     E4 01 90 3D |  if_ae	jmp	#LR__0111
02730                 | ' 
02730                 | '   if timings[6]>0 'borders
02730     68 AE 05 F1 | 	add	objptr, #104
02734     D7 C8 01 FB | 	rdlong	_var04, objptr
02738     68 AE 85 F1 | 	sub	objptr, #104
0273c     00 C8 5D F2 | 	cmps	_var04, #0 wcz
02740     D4 00 90 ED |  if_be	jmp	#LR__0108
02744                 | '     repeat i from 0 to timings[6]-1 '0 to -1
02744     00 CA 05 F6 | 	mov	_var05, #0
02748     68 AE 05 F1 | 	add	objptr, #104
0274c     D7 CC 01 FB | 	rdlong	_var06, objptr
02750     68 AE 85 F1 | 	sub	objptr, #104
02754     01 CC 85 F1 | 	sub	_var06, #1
02758     00 CC 5D F2 | 	cmps	_var06, #0 wcz
0275c     01 CE 05 16 |  if_a	mov	_var07, #1
02760     01 CE 65 E6 |  if_be	neg	_var07, #1
02764     E7 D0 01 F6 | 	mov	_var08, _var07
02768     E7 CC 01 F1 | 	add	_var06, _var07
0276c     B8 D8 9F FE | 	loc	pa,	#(@LR__0105-@LR__0104)
02770     95 00 A0 FD | 	call	#FCACHE_LOAD_
02774                 | LR__0104
02774     E5 D2 01 F6 | 	mov	_var09, _var05
02778     02 D2 65 F0 | 	shl	_var09, #2
0277c     1C AE 05 F1 | 	add	objptr, #28
02780     D7 D4 01 FB | 	rdlong	_var10, objptr
02784     1C AE 85 F1 | 	sub	objptr, #28
02788     E9 D4 01 F1 | 	add	_var10, _var09
0278c                 | '       long[dl_ptr+4*i]:=$0
0278c     EA 00 68 FC | 	wrlong	#0, _var10
02790     E8 CA 01 F1 | 	add	_var05, _var08
02794     E6 CA 09 F2 | 	cmp	_var05, _var06 wz
02798     D8 FF 9F 5D |  if_ne	jmp	#LR__0104
0279c                 | LR__0105
0279c                 | '     repeat i from timings[6]+timings[12] to timings[15]-1
0279c     68 AE 05 F1 | 	add	objptr, #104
027a0     D7 CA 01 FB | 	rdlong	_var05, objptr
027a4     18 AE 05 F1 | 	add	objptr, #24
027a8     D7 CE 01 FB | 	rdlong	_var07, objptr
027ac     E7 CA 01 F1 | 	add	_var05, _var07
027b0     0C AE 05 F1 | 	add	objptr, #12
027b4     D7 D6 01 FB | 	rdlong	_var11, objptr
027b8     01 D6 85 F1 | 	sub	_var11, #1
027bc     24 AE 85 F1 | 	sub	objptr, #36
027c0     D7 D8 01 FB | 	rdlong	_var12, objptr
027c4     18 AE 05 F1 | 	add	objptr, #24
027c8     D7 DA 01 FB | 	rdlong	_var13, objptr
027cc     80 AE 85 F1 | 	sub	objptr, #128
027d0     ED D8 01 F1 | 	add	_var12, _var13
027d4     EC D6 59 F2 | 	cmps	_var11, _var12 wcz
027d8     01 DC 05 16 |  if_a	mov	_var14, #1
027dc     01 DC 65 E6 |  if_be	neg	_var14, #1
027e0     EE DE 01 F6 | 	mov	_var15, _var14
027e4     EE D6 01 F1 | 	add	_var11, _var14
027e8     3C D8 9F FE | 	loc	pa,	#(@LR__0107-@LR__0106)
027ec     95 00 A0 FD | 	call	#FCACHE_LOAD_
027f0                 | LR__0106
027f0     E5 E0 01 F6 | 	mov	_var16, _var05
027f4     02 E0 65 F0 | 	shl	_var16, #2
027f8     1C AE 05 F1 | 	add	objptr, #28
027fc     D7 E2 01 FB | 	rdlong	_var17, objptr
02800     1C AE 85 F1 | 	sub	objptr, #28
02804     F0 E2 01 F1 | 	add	_var17, _var16
02808                 | '       long[dl_ptr+4*i]:=$0
02808     F1 00 68 FC | 	wrlong	#0, _var17
0280c     EF CA 01 F1 | 	add	_var05, _var15
02810     EB CA 09 F2 | 	cmp	_var05, _var11 wz
02814     D8 FF 9F 5D |  if_ne	jmp	#LR__0106
02818                 | LR__0107
02818                 | LR__0108
02818     10 E4 05 F6 | 	mov	_var18, #16
0281c     E3 E4 61 F0 | 	shl	_var18, _var03
02820                 | '   lpc:=16<<vzoom
02820                 | '   repeat i from timings[6] to timings[6]+timings[12]-1
02820     68 AE 05 F1 | 	add	objptr, #104
02824     D7 CA 01 FB | 	rdlong	_var05, objptr
02828     E5 E6 01 F6 | 	mov	_var19, _var05
0282c     18 AE 05 F1 | 	add	objptr, #24
02830     D7 E8 01 FB | 	rdlong	_var20, objptr
02834     F4 E6 01 F1 | 	add	_var19, _var20
02838     01 E6 85 F1 | 	sub	_var19, #1
0283c     18 AE 85 F1 | 	sub	objptr, #24
02840     D7 DC 01 FB | 	rdlong	_var14, objptr
02844     68 AE 85 F1 | 	sub	objptr, #104
02848     EE E6 59 F2 | 	cmps	_var19, _var14 wcz
0284c     01 EA 05 16 |  if_a	mov	_var21, #1
02850     01 EA 65 E6 |  if_be	neg	_var21, #1
02854     F5 EC 01 F6 | 	mov	_var22, _var21
02858     F5 E6 01 F1 | 	add	_var19, _var21
0285c     50 D8 9F FE | 	loc	pa,	#(@LR__0110-@LR__0109)
02860     95 00 A0 FD | 	call	#FCACHE_LOAD_
02864                 | LR__0109
02864     E5 84 02 F6 | 	mov	muldiva_, _var05
02868     68 AE 05 F1 | 	add	objptr, #104
0286c     D7 EE 01 FB | 	rdlong	_var23, objptr
02870     68 AE 85 F1 | 	sub	objptr, #104
02874     F7 84 82 F1 | 	sub	muldiva_, _var23
02878     F2 86 02 F6 | 	mov	muldivb_, _var18
0287c     C5 00 A0 FD | 	call	#unsdivide_
02880     E3 84 42 F0 | 	shr	muldiva_, _var03
02884                 | '     fontline2:=((i-timings[6])+//lpc)>>vzoom
02884     42 F1 01 F6 | 	mov	_var24, muldiva_
02888     E5 84 02 F6 | 	mov	muldiva_, _var05
0288c     68 AE 05 F1 | 	add	objptr, #104
02890     D7 EE 01 FB | 	rdlong	_var23, objptr
02894     68 AE 85 F1 | 	sub	objptr, #104
02898     F7 84 82 F1 | 	sub	muldiva_, _var23
0289c     F2 86 02 F6 | 	mov	muldivb_, _var18
028a0     C5 00 A0 FD | 	call	#unsdivide_
028a4     43 F3 01 F6 | 	mov	_var25, muldivb_
028a8                 | '     charline:=(i-timings[6])+/lpc
028a8     90 AE 05 F1 | 	add	objptr, #144
028ac     D7 EE 01 FB | 	rdlong	_var23, objptr
028b0     90 AE 85 F1 | 	sub	objptr, #144
028b4     F9 EE 01 FD | 	qmul	_var23, _var25
028b8     18 F4 61 FD | 	getqx	_var26
028bc     02 F4 65 F0 | 	shl	_var26, #2
028c0     D7 F6 01 FB | 	rdlong	_var27, objptr
028c4     FA F6 01 F1 | 	add	_var27, _var26
028c8     10 F9 01 F6 | 	mov	_var28, arg01
028cc     03 F8 05 F5 | 	and	_var28, #3
028d0     FC F6 01 F1 | 	add	_var27, _var28
028d4                 | '     bufstart:=buf_ptr+4*((cpl)*charline)+(mode&3)
028d4     0C F6 65 F0 | 	shl	_var27, #12
028d8     08 F0 65 F0 | 	shl	_var24, #8
028dc     F8 F6 01 F1 | 	add	_var27, _var24
028e0     02 F2 65 F0 | 	shl	_var25, #2
028e4     F9 F6 01 F1 | 	add	_var27, _var25
028e8     01 F6 05 F1 | 	add	_var27, #1
028ec     E5 FA 01 F6 | 	mov	_var29, _var05
028f0     02 FA 65 F0 | 	shl	_var29, #2
028f4     1C AE 05 F1 | 	add	objptr, #28
028f8     D7 FC 01 FB | 	rdlong	_var30, objptr
028fc     1C AE 85 F1 | 	sub	objptr, #28
02900     FD FC 01 F1 | 	add	_var30, _var29
02904                 | '     long[dl_ptr+4*i]:=(bufstart<<12)+(fontline2<<8)+(charline<<2)+1
02904     FE F6 61 FC | 	wrlong	_var27, _var30
02908     F6 CA 01 F1 | 	add	_var05, _var22
0290c     F3 CA 09 F2 | 	cmp	_var05, _var19 wz
02910     50 FF 9F 5D |  if_ne	jmp	#LR__0109
02914                 | LR__0110
02914                 | LR__0111
02914                 | ' 
02914                 | ' 
02914                 | ' 
02914                 | ' if (mode>=512)' and (mode & (%10_00_00_0000))==(%10_00_00_0000) ' graphics -> all modes TODO :mode 560+192=752 = 10_11_11_0000 impossib,e because out of memory
02914     01 00 00 FF 
02918     00 20 5E F2 | 	cmps	arg01, ##512 wcz
0291c     AC 01 90 CD |  if_b	jmp	#LR__0119
02920                 | ' 
02920                 | '   if timings[6]>0 'borders
02920     68 AE 05 F1 | 	add	objptr, #104
02924     D7 C8 01 FB | 	rdlong	_var04, objptr
02928     68 AE 85 F1 | 	sub	objptr, #104
0292c     00 C8 5D F2 | 	cmps	_var04, #0 wcz
02930     D4 00 90 ED |  if_be	jmp	#LR__0116
02934                 | '     repeat i from 0 to timings[6]-1 '0 to -1
02934     00 CA 05 F6 | 	mov	_var05, #0
02938     68 AE 05 F1 | 	add	objptr, #104
0293c     D7 FE 01 FB | 	rdlong	_var31, objptr
02940     68 AE 85 F1 | 	sub	objptr, #104
02944     01 FE 85 F1 | 	sub	_var31, #1
02948     00 FE 5D F2 | 	cmps	_var31, #0 wcz
0294c     01 CE 05 16 |  if_a	mov	_var07, #1
02950     01 CE 65 E6 |  if_be	neg	_var07, #1
02954     E7 00 02 F6 | 	mov	_var32, _var07
02958     E7 FE 01 F1 | 	add	_var31, _var07
0295c     C8 D6 9F FE | 	loc	pa,	#(@LR__0113-@LR__0112)
02960     95 00 A0 FD | 	call	#FCACHE_LOAD_
02964                 | LR__0112
02964     E5 02 02 F6 | 	mov	_var33, _var05
02968     02 02 66 F0 | 	shl	_var33, #2
0296c     1C AE 05 F1 | 	add	objptr, #28
02970     D7 04 02 FB | 	rdlong	_var34, objptr
02974     1C AE 85 F1 | 	sub	objptr, #28
02978     01 05 02 F1 | 	add	_var34, _var33
0297c                 | '       long[dl_ptr+4*i]:=$0
0297c     02 01 68 FC | 	wrlong	#0, _var34
02980     00 CB 01 F1 | 	add	_var05, _var32
02984     FF CA 09 F2 | 	cmp	_var05, _var31 wz
02988     D8 FF 9F 5D |  if_ne	jmp	#LR__0112
0298c                 | LR__0113
0298c                 | '     repeat i from timings[6]+timings[12] to timings[15]-1
0298c     68 AE 05 F1 | 	add	objptr, #104
02990     D7 CA 01 FB | 	rdlong	_var05, objptr
02994     18 AE 05 F1 | 	add	objptr, #24
02998     D7 CE 01 FB | 	rdlong	_var07, objptr
0299c     E7 CA 01 F1 | 	add	_var05, _var07
029a0     0C AE 05 F1 | 	add	objptr, #12
029a4     D7 06 02 FB | 	rdlong	_var35, objptr
029a8     01 06 86 F1 | 	sub	_var35, #1
029ac     24 AE 85 F1 | 	sub	objptr, #36
029b0     D7 D8 01 FB | 	rdlong	_var12, objptr
029b4     18 AE 05 F1 | 	add	objptr, #24
029b8     D7 DA 01 FB | 	rdlong	_var13, objptr
029bc     80 AE 85 F1 | 	sub	objptr, #128
029c0     ED D8 01 F1 | 	add	_var12, _var13
029c4     EC 06 5A F2 | 	cmps	_var35, _var12 wcz
029c8     01 DC 05 16 |  if_a	mov	_var14, #1
029cc     01 DC 65 E6 |  if_be	neg	_var14, #1
029d0     EE 08 02 F6 | 	mov	_var36, _var14
029d4     EE 06 02 F1 | 	add	_var35, _var14
029d8     4C D6 9F FE | 	loc	pa,	#(@LR__0115-@LR__0114)
029dc     95 00 A0 FD | 	call	#FCACHE_LOAD_
029e0                 | LR__0114
029e0     E5 0A 02 F6 | 	mov	_var37, _var05
029e4     02 0A 66 F0 | 	shl	_var37, #2
029e8     1C AE 05 F1 | 	add	objptr, #28
029ec     D7 0C 02 FB | 	rdlong	_var38, objptr
029f0     1C AE 85 F1 | 	sub	objptr, #28
029f4     05 0D 02 F1 | 	add	_var38, _var37
029f8                 | '       long[dl_ptr+4*i]:=$0
029f8     06 01 68 FC | 	wrlong	#0, _var38
029fc     04 CB 01 F1 | 	add	_var05, _var36
02a00     03 CB 09 F2 | 	cmp	_var05, _var35 wz
02a04     D8 FF 9F 5D |  if_ne	jmp	#LR__0114
02a08                 | LR__0115
02a08                 | LR__0116
02a08                 | '   repeat i from timings[6] to timings[6]+timings[12]-1
02a08     68 AE 05 F1 | 	add	objptr, #104
02a0c     D7 CA 01 FB | 	rdlong	_var05, objptr
02a10     E5 0E 02 F6 | 	mov	_var39, _var05
02a14     18 AE 05 F1 | 	add	objptr, #24
02a18     D7 E8 01 FB | 	rdlong	_var20, objptr
02a1c     F4 0E 02 F1 | 	add	_var39, _var20
02a20     01 0E 86 F1 | 	sub	_var39, #1
02a24     18 AE 85 F1 | 	sub	objptr, #24
02a28     D7 DC 01 FB | 	rdlong	_var14, objptr
02a2c     68 AE 85 F1 | 	sub	objptr, #104
02a30     EE 0E 5A F2 | 	cmps	_var39, _var14 wcz
02a34     01 EA 05 16 |  if_a	mov	_var21, #1
02a38     01 EA 65 E6 |  if_be	neg	_var21, #1
02a3c     F5 10 02 F6 | 	mov	_var40, _var21
02a40     F5 0E 02 F1 | 	add	_var39, _var21
02a44     38 D6 9F FE | 	loc	pa,	#(@LR__0118-@LR__0117)
02a48     95 00 A0 FD | 	call	#FCACHE_LOAD_
02a4c                 | LR__0117
02a4c     E5 12 02 F6 | 	mov	_var41, _var05
02a50     68 AE 05 F1 | 	add	objptr, #104
02a54     D7 EE 01 FB | 	rdlong	_var23, objptr
02a58     F7 12 82 F1 | 	sub	_var41, _var23
02a5c     E3 12 42 F0 | 	shr	_var41, _var03
02a60     28 AE 05 F1 | 	add	objptr, #40
02a64     D7 EE 01 FB | 	rdlong	_var23, objptr
02a68     90 AE 85 F1 | 	sub	objptr, #144
02a6c     09 EF 01 FD | 	qmul	_var23, _var41
02a70     18 14 62 FD | 	getqx	_var42
02a74     02 14 66 F0 | 	shl	_var42, #2
02a78     D7 16 02 FB | 	rdlong	_var43, objptr
02a7c     0A 17 02 F1 | 	add	_var43, _var42
02a80     10 19 02 F6 | 	mov	_var44, arg01
02a84     03 18 06 F5 | 	and	_var44, #3
02a88     0C 17 02 F1 | 	add	_var43, _var44
02a8c                 | '     bufstart:=buf_ptr+4*(cpl*((i-timings[6])>>vzoom))+(mode&3)
02a8c     0C 16 66 F0 | 	shl	_var43, #12
02a90     02 16 06 F1 | 	add	_var43, #2
02a94     10 1B 02 F6 | 	mov	_var45, arg01
02a98     30 1A 06 F5 | 	and	_var45, #48
02a9c     02 1A 46 F0 | 	shr	_var45, #2
02aa0     0D 17 02 F1 | 	add	_var43, _var45
02aa4     E5 1C 02 F6 | 	mov	_var46, _var05
02aa8     02 1C 66 F0 | 	shl	_var46, #2
02aac     1C AE 05 F1 | 	add	objptr, #28
02ab0     D7 1E 02 FB | 	rdlong	_var47, objptr
02ab4     1C AE 85 F1 | 	sub	objptr, #28
02ab8     0E 1F 02 F1 | 	add	_var47, _var46
02abc                 | '     long[dl_ptr+4*i]:=(bufstart<<12)+2+(mode &48)>>2
02abc     0F 17 62 FC | 	wrlong	_var43, _var47
02ac0     08 CB 01 F1 | 	add	_var05, _var40
02ac4     07 CB 09 F2 | 	cmp	_var05, _var39 wz
02ac8     80 FF 9F 5D |  if_ne	jmp	#LR__0117
02acc                 | LR__0118
02acc                 | LR__0119
02acc                 | _makedl_ret
02acc     2D 00 64 FD | 	ret
02ad0                 | hubexit
02ad0     83 00 80 FD | 	jmp	#cogexit
02ad4                 | 
02ad4                 | __system___setbaud
02ad4     14 84 06 FB | 	rdlong	muldiva_, #20
02ad8     10 87 02 F6 | 	mov	muldivb_, arg01
02adc     C9 00 A0 FD | 	call	#divide_
02ae0     40 7C 64 FD | 	dirl	#62
02ae4     40 7E 64 FD | 	dirl	#63
02ae8     D9 86 62 FC | 	wrlong	muldivb_, ptr___system__dat__
02aec     10 86 66 F0 | 	shl	muldivb_, #16
02af0     07 22 06 F6 | 	mov	arg02, #7
02af4     43 23 02 F1 | 	add	arg02, muldivb_
02af8     3E F8 0C FC | 	wrpin	#124, #62
02afc     3E 22 16 FC | 	wxpin	arg02, #62
02b00     3F 7C 0C FC | 	wrpin	#62, #63
02b04     14 22 06 F1 | 	add	arg02, #20
02b08     3F 22 16 FC | 	wxpin	arg02, #63
02b0c     41 7C 64 FD | 	dirh	#62
02b10     41 7E 64 FD | 	dirh	#63
02b14                 | __system___setbaud_ret
02b14     2D 00 64 FD | 	ret
02b18                 | 
02b18                 | __system___txraw
02b18     02 44 05 F6 | 	mov	COUNT_, #2
02b1c     A9 00 A0 FD | 	call	#pushregs_
02b20     10 2B 02 F6 | 	mov	local01, arg01
02b24     D9 2C 0A FB | 	rdlong	local02, ptr___system__dat__ wz
02b28     0C 00 90 5D |  if_ne	jmp	#LR__0120
02b2c     C2 01 00 FF 
02b30     00 20 06 F6 | 	mov	arg01, ##230400
02b34     9C FF BF FD | 	call	#__system___setbaud
02b38                 | LR__0120
02b38     3E 2A 26 FC | 	wypin	local01, #62
02b3c     1F 02 64 FD | 	waitx	#1
02b40     C4 D4 9F FE | 	loc	pa,	#(@LR__0122-@LR__0121)
02b44     95 00 A0 FD | 	call	#FCACHE_LOAD_
02b48                 | LR__0121
02b48     40 7C 74 FD | 	testp	#62 wc
02b4c     F8 FF 9F 3D |  if_nc	jmp	#LR__0121
02b50                 | LR__0122
02b50     01 BE 05 F6 | 	mov	result1, #1
02b54     A4 F0 03 F6 | 	mov	ptra, fp
02b58     B8 00 A0 FD | 	call	#popregs_
02b5c                 | __system___txraw_ret
02b5c     2D 00 64 FD | 	ret
02b60                 | 
02b60                 | __system____builtin_memset
02b60     10 C3 01 F6 | 	mov	_var01, arg01
02b64     11 C5 01 F6 | 	mov	_var02, arg02
02b68     08 C4 65 F0 | 	shl	_var02, #8
02b6c     11 C5 41 F5 | 	or	_var02, arg02
02b70     E2 C6 01 F6 | 	mov	_var03, _var02
02b74     10 C6 65 F0 | 	shl	_var03, #16
02b78     E2 C6 41 F5 | 	or	_var03, _var02
02b7c     98 D4 9F FE | 	loc	pa,	#(@LR__0124-@LR__0123)
02b80     95 00 A0 FD | 	call	#FCACHE_LOAD_
02b84                 | LR__0123
02b84     03 24 5E F2 | 	cmps	arg03, #3 wcz
02b88     10 00 90 ED |  if_be	jmp	#LR__0125
02b8c     10 C7 61 FC | 	wrlong	_var03, arg01
02b90     04 20 06 F1 | 	add	arg01, #4
02b94     04 24 86 F1 | 	sub	arg03, #4
02b98     E8 FF 9F FD | 	jmp	#LR__0123
02b9c                 | LR__0124
02b9c                 | LR__0125
02b9c     00 24 0E F2 | 	cmp	arg03, #0 wz
02ba0     14 00 90 AD |  if_e	jmp	#LR__0130
02ba4     64 D4 9F FE | 	loc	pa,	#(@LR__0128-@LR__0126)
02ba8     95 00 A0 FD | 	call	#FCACHE_LOAD_
02bac                 | LR__0126
02bac     12 05 D8 FC | 	rep	@LR__0129, arg03
02bb0                 | LR__0127
02bb0     10 23 42 FC | 	wrbyte	arg02, arg01
02bb4     01 20 06 F1 | 	add	arg01, #1
02bb8                 | LR__0128
02bb8                 | LR__0129
02bb8                 | LR__0130
02bb8     E1 BE 01 F6 | 	mov	result1, _var01
02bbc                 | __system____builtin_memset_ret
02bbc     2D 00 64 FD | 	ret
02bc0                 | 
02bc0                 | __system____builtin_memmove
02bc0     10 C3 01 F6 | 	mov	_var01, arg01
02bc4     11 21 5A F2 | 	cmps	arg01, arg02 wcz
02bc8     50 00 90 3D |  if_ae	jmp	#LR__0138
02bcc     50 D4 9F FE | 	loc	pa,	#(@LR__0132-@LR__0131)
02bd0     95 00 A0 FD | 	call	#FCACHE_LOAD_
02bd4                 | LR__0131
02bd4     03 24 5E F2 | 	cmps	arg03, #3 wcz
02bd8     18 00 90 ED |  if_be	jmp	#LR__0133
02bdc     11 C5 01 FB | 	rdlong	_var02, arg02
02be0     10 C5 61 FC | 	wrlong	_var02, arg01
02be4     04 20 06 F1 | 	add	arg01, #4
02be8     04 22 06 F1 | 	add	arg02, #4
02bec     04 24 86 F1 | 	sub	arg03, #4
02bf0     E0 FF 9F FD | 	jmp	#LR__0131
02bf4                 | LR__0132
02bf4                 | LR__0133
02bf4     12 C7 09 F6 | 	mov	_var03, arg03 wz
02bf8     4C 00 90 AD |  if_e	jmp	#LR__0144
02bfc     14 D4 9F FE | 	loc	pa,	#(@LR__0136-@LR__0134)
02c00     95 00 A0 FD | 	call	#FCACHE_LOAD_
02c04                 | LR__0134
02c04     E3 08 D8 FC | 	rep	@LR__0137, _var03
02c08                 | LR__0135
02c08     11 C5 C1 FA | 	rdbyte	_var02, arg02
02c0c     10 C5 41 FC | 	wrbyte	_var02, arg01
02c10     01 20 06 F1 | 	add	arg01, #1
02c14     01 22 06 F1 | 	add	arg02, #1
02c18                 | LR__0136
02c18                 | LR__0137
02c18     2C 00 90 FD | 	jmp	#LR__0144
02c1c                 | LR__0138
02c1c     12 21 02 F1 | 	add	arg01, arg03
02c20     12 23 02 F1 | 	add	arg02, arg03
02c24     12 C9 09 F6 | 	mov	_var04, arg03 wz
02c28     1C 00 90 AD |  if_e	jmp	#LR__0143
02c2c     E4 D3 9F FE | 	loc	pa,	#(@LR__0141-@LR__0139)
02c30     95 00 A0 FD | 	call	#FCACHE_LOAD_
02c34                 | LR__0139
02c34     E4 08 D8 FC | 	rep	@LR__0142, _var04
02c38                 | LR__0140
02c38     01 20 86 F1 | 	sub	arg01, #1
02c3c     01 22 86 F1 | 	sub	arg02, #1
02c40     11 C5 C1 FA | 	rdbyte	_var02, arg02
02c44     10 C5 41 FC | 	wrbyte	_var02, arg01
02c48                 | LR__0141
02c48                 | LR__0142
02c48                 | LR__0143
02c48                 | LR__0144
02c48     E1 BE 01 F6 | 	mov	result1, _var01
02c4c                 | __system____builtin_memmove_ret
02c4c     2D 00 64 FD | 	ret
02c50                 | 
02c50                 | __system__longmove
02c50     10 C3 01 F6 | 	mov	_var01, arg01
02c54     11 21 5A F2 | 	cmps	arg01, arg02 wcz
02c58     28 00 90 3D |  if_ae	jmp	#LR__0149
02c5c     12 C5 09 F6 | 	mov	_var02, arg03 wz
02c60     54 00 90 AD |  if_e	jmp	#LR__0155
02c64     AC D3 9F FE | 	loc	pa,	#(@LR__0147-@LR__0145)
02c68     95 00 A0 FD | 	call	#FCACHE_LOAD_
02c6c                 | LR__0145
02c6c     E2 08 D8 FC | 	rep	@LR__0148, _var02
02c70                 | LR__0146
02c70     11 C7 01 FB | 	rdlong	_var03, arg02
02c74     10 C7 61 FC | 	wrlong	_var03, arg01
02c78     04 20 06 F1 | 	add	arg01, #4
02c7c     04 22 06 F1 | 	add	arg02, #4
02c80                 | LR__0147
02c80                 | LR__0148
02c80     34 00 90 FD | 	jmp	#LR__0155
02c84                 | LR__0149
02c84     12 C9 01 F6 | 	mov	_var04, arg03
02c88     02 C8 65 F0 | 	shl	_var04, #2
02c8c     E4 20 02 F1 | 	add	arg01, _var04
02c90     E4 22 02 F1 | 	add	arg02, _var04
02c94     12 CB 09 F6 | 	mov	_var05, arg03 wz
02c98     1C 00 90 AD |  if_e	jmp	#LR__0154
02c9c     74 D3 9F FE | 	loc	pa,	#(@LR__0152-@LR__0150)
02ca0     95 00 A0 FD | 	call	#FCACHE_LOAD_
02ca4                 | LR__0150
02ca4     E5 08 D8 FC | 	rep	@LR__0153, _var05
02ca8                 | LR__0151
02ca8     04 20 86 F1 | 	sub	arg01, #4
02cac     04 22 86 F1 | 	sub	arg02, #4
02cb0     11 C7 01 FB | 	rdlong	_var03, arg02
02cb4     10 C7 61 FC | 	wrlong	_var03, arg01
02cb8                 | LR__0152
02cb8                 | LR__0153
02cb8                 | LR__0154
02cb8                 | LR__0155
02cb8     E1 BE 01 F6 | 	mov	result1, _var01
02cbc                 | __system__longmove_ret
02cbc     2D 00 64 FD | 	ret
02cc0                 | 
02cc0                 | __system___make_methodptr
02cc0     04 44 05 F6 | 	mov	COUNT_, #4
02cc4     A9 00 A0 FD | 	call	#pushregs_
02cc8     10 2B 02 F6 | 	mov	local01, arg01
02ccc     11 2D 02 F6 | 	mov	local02, arg02
02cd0     08 20 06 F6 | 	mov	arg01, #8
02cd4     74 04 B0 FD | 	call	#__system___gc_alloc_managed
02cd8     DF 2E 0A F6 | 	mov	local03, result1 wz
02cdc     10 00 90 AD |  if_e	jmp	#LR__0156
02ce0     17 2B 62 FC | 	wrlong	local01, local03
02ce4     17 31 02 F6 | 	mov	local04, local03
02ce8     04 30 06 F1 | 	add	local04, #4
02cec     18 2D 62 FC | 	wrlong	local02, local04
02cf0                 | LR__0156
02cf0     17 BF 01 F6 | 	mov	result1, local03
02cf4     A4 F0 03 F6 | 	mov	ptra, fp
02cf8     B8 00 A0 FD | 	call	#popregs_
02cfc                 | __system___make_methodptr_ret
02cfc     2D 00 64 FD | 	ret
02d00                 | 
02d00                 | __system___tx
02d00     02 44 05 F6 | 	mov	COUNT_, #2
02d04     A9 00 A0 FD | 	call	#pushregs_
02d08     10 2B 02 F6 | 	mov	local01, arg01
02d0c     0A 2A 0E F2 | 	cmp	local01, #10 wz
02d10     20 00 90 5D |  if_ne	jmp	#LR__0157
02d14     08 B2 05 F1 | 	add	ptr___system__dat__, #8
02d18     D9 2C 02 FB | 	rdlong	local02, ptr___system__dat__
02d1c     08 B2 85 F1 | 	sub	ptr___system__dat__, #8
02d20     02 2C CE F7 | 	test	local02, #2 wz
02d24     0C 00 90 AD |  if_e	jmp	#LR__0157
02d28     0D 2C 06 F6 | 	mov	local02, #13
02d2c     0D 20 06 F6 | 	mov	arg01, #13
02d30     E4 FD BF FD | 	call	#__system___txraw
02d34                 | LR__0157
02d34     15 21 02 F6 | 	mov	arg01, local01
02d38     DC FD BF FD | 	call	#__system___txraw
02d3c     A4 F0 03 F6 | 	mov	ptra, fp
02d40     B8 00 A0 FD | 	call	#popregs_
02d44                 | __system___tx_ret
02d44     2D 00 64 FD | 	ret
02d48                 | 
02d48                 | __system___lockmem
02d48     02 44 05 F6 | 	mov	COUNT_, #2
02d4c     A9 00 A0 FD | 	call	#pushregs_
02d50     10 2B 02 F6 | 	mov	local01, arg01
02d54     E8 D2 9F FE | 	loc	pa,	#(@LR__0160-@LR__0158)
02d58     95 00 A0 FD | 	call	#FCACHE_LOAD_
02d5c                 | LR__0158
02d5c                 | LR__0159
02d5c     FF FF 7F FF 
02d60     FD 21 06 FB | 	rdlong	arg01, ##-3
02d64     06 20 72 FD | 	locktry	arg01 wc
02d68     FF FF 7F FF 
02d6c     FF BF A5 F5 | 	muxnc	result1, ##-1
02d70     00 BE 0D F2 | 	cmp	result1, #0 wz
02d74     E4 FF 9F 5D |  if_ne	jmp	#LR__0159
02d78     15 2D CA FA | 	rdbyte	local02, local01 wz
02d7c     15 03 48 AC |  if_e	wrbyte	#1, local01
02d80     FF FF 7F FF 
02d84     FD 21 06 FB | 	rdlong	arg01, ##-3
02d88     07 20 72 FD | 	lockrel	arg01 wc
02d8c     FF FF 7F FF 
02d90     FF BF 85 F5 | 	muxc	result1, ##-1
02d94     00 2C 0E F2 | 	cmp	local02, #0 wz
02d98     C0 FF 9F 5D |  if_ne	jmp	#LR__0158
02d9c                 | LR__0160
02d9c     A4 F0 03 F6 | 	mov	ptra, fp
02da0     B8 00 A0 FD | 	call	#popregs_
02da4                 | __system___lockmem_ret
02da4     2D 00 64 FD | 	ret
02da8                 | 
02da8                 | __system___waitms
02da8     02 44 05 F6 | 	mov	COUNT_, #2
02dac     A9 00 A0 FD | 	call	#pushregs_
02db0     10 2B 02 F6 | 	mov	local01, arg01
02db4     14 2C 06 FB | 	rdlong	local02, #20
02db8     5C D2 9F FE | 	loc	pa,	#(@LR__0162-@LR__0161)
02dbc     95 00 A0 FD | 	call	#FCACHE_LOAD_
02dc0                 | LR__0161
02dc0     01 00 00 FF 
02dc4     E8 2B 5E F2 | 	cmps	local01, ##1000 wcz
02dc8     1F 2C 62 1D |  if_a	waitx	local02
02dcc     01 00 00 1F 
02dd0     E8 2B 86 11 |  if_a	sub	local01, ##1000
02dd4     E8 FF 9F 1D |  if_a	jmp	#LR__0161
02dd8                 | LR__0162
02dd8     00 2A 5E F2 | 	cmps	local01, #0 wcz
02ddc     1C 00 90 ED |  if_be	jmp	#LR__0163
02de0     16 85 02 F6 | 	mov	muldiva_, local02
02de4     01 00 00 FF 
02de8     E8 87 06 F6 | 	mov	muldivb_, ##1000
02dec     C9 00 A0 FD | 	call	#divide_
02df0     43 2B 02 FD | 	qmul	local01, muldivb_
02df4     18 20 62 FD | 	getqx	arg01
02df8     1F 20 62 FD | 	waitx	arg01
02dfc                 | LR__0163
02dfc     A4 F0 03 F6 | 	mov	ptra, fp
02e00     B8 00 A0 FD | 	call	#popregs_
02e04                 | __system___waitms_ret
02e04     2D 00 64 FD | 	ret
02e08                 | 
02e08                 | __system___waitus
02e08     02 44 05 F6 | 	mov	COUNT_, #2
02e0c     A9 00 A0 FD | 	call	#pushregs_
02e10     10 2B 02 F6 | 	mov	local01, arg01
02e14     14 2C 06 FB | 	rdlong	local02, #20
02e18     FC D1 9F FE | 	loc	pa,	#(@LR__0165-@LR__0164)
02e1c     95 00 A0 FD | 	call	#FCACHE_LOAD_
02e20                 | LR__0164
02e20     A1 07 00 FF 
02e24     40 2A 5E F2 | 	cmps	local01, ##1000000 wcz
02e28     1F 2C 62 1D |  if_a	waitx	local02
02e2c     A1 07 00 1F 
02e30     40 2A 86 11 |  if_a	sub	local01, ##1000000
02e34     E8 FF 9F 1D |  if_a	jmp	#LR__0164
02e38                 | LR__0165
02e38     00 2A 5E F2 | 	cmps	local01, #0 wcz
02e3c     1C 00 90 ED |  if_be	jmp	#LR__0166
02e40     16 85 02 F6 | 	mov	muldiva_, local02
02e44     A1 07 00 FF 
02e48     40 86 06 F6 | 	mov	muldivb_, ##1000000
02e4c     C9 00 A0 FD | 	call	#divide_
02e50     43 2B 02 FD | 	qmul	local01, muldivb_
02e54     18 20 62 FD | 	getqx	arg01
02e58     1F 20 62 FD | 	waitx	arg01
02e5c                 | LR__0166
02e5c     A4 F0 03 F6 | 	mov	ptra, fp
02e60     B8 00 A0 FD | 	call	#popregs_
02e64                 | __system___waitus_ret
02e64     2D 00 64 FD | 	ret
02e68                 | 
02e68                 | __system___gc_ptrs
02e68     D3 C2 01 F6 | 	mov	_var01, __heap_ptr
02e6c     E1 C4 01 F6 | 	mov	_var02, _var01
02e70     07 00 00 FF 
02e74     F8 C5 05 F1 | 	add	_var02, ##4088
02e78     E1 C6 09 FB | 	rdlong	_var03, _var01 wz
02e7c     74 00 90 5D |  if_ne	jmp	#LR__0167
02e80     E2 C8 01 F6 | 	mov	_var04, _var02
02e84     E1 C8 81 F1 | 	sub	_var04, _var01
02e88     E1 02 58 FC | 	wrword	#1, _var01
02e8c     E1 CA 01 F6 | 	mov	_var05, _var01
02e90     02 CA 05 F1 | 	add	_var05, #2
02e94     36 00 80 FF 
02e98     E5 20 59 FC | 	wrword	##27792, _var05
02e9c     E1 CC 01 F6 | 	mov	_var06, _var01
02ea0     04 CC 05 F1 | 	add	_var06, #4
02ea4     E6 00 58 FC | 	wrword	#0, _var06
02ea8     E1 CE 01 F6 | 	mov	_var07, _var01
02eac     06 CE 05 F1 | 	add	_var07, #6
02eb0     E7 02 58 FC | 	wrword	#1, _var07
02eb4     10 C2 05 F1 | 	add	_var01, #16
02eb8     E4 C6 51 F6 | 	abs	_var03, _var04 wc
02ebc     04 C6 45 F0 | 	shr	_var03, #4
02ec0     E3 C6 61 C6 |  if_b	neg	_var03, _var03
02ec4     E1 C6 51 FC | 	wrword	_var03, _var01
02ec8     E1 D0 01 F6 | 	mov	_var08, _var01
02ecc     02 D0 05 F1 | 	add	_var08, #2
02ed0     36 00 80 FF 
02ed4     E8 1E 59 FC | 	wrword	##27791, _var08
02ed8     E1 D2 01 F6 | 	mov	_var09, _var01
02edc     04 D2 05 F1 | 	add	_var09, #4
02ee0     E9 00 58 FC | 	wrword	#0, _var09
02ee4     E1 D4 01 F6 | 	mov	_var10, _var01
02ee8     06 D4 05 F1 | 	add	_var10, #6
02eec     EA 00 58 FC | 	wrword	#0, _var10
02ef0     10 C2 85 F1 | 	sub	_var01, #16
02ef4                 | LR__0167
02ef4     E2 C0 01 F6 | 	mov	result2, _var02
02ef8     E1 BE 01 F6 | 	mov	result1, _var01
02efc                 | __system___gc_ptrs_ret
02efc     2D 00 64 FD | 	ret
02f00                 | 
02f00                 | __system___gc_nextBlockPtr
02f00     02 44 05 F6 | 	mov	COUNT_, #2
02f04     A9 00 A0 FD | 	call	#pushregs_
02f08     10 2B 02 F6 | 	mov	local01, arg01
02f0c     15 2D EA FA | 	rdword	local02, local01 wz
02f10     10 00 90 5D |  if_ne	jmp	#LR__0168
02f14     1B 00 00 FF 
02f18     2C 21 06 F6 | 	mov	arg01, ##@LR__0211
02f1c     F8 01 B0 FD | 	call	#__system___gc_errmsg
02f20     0C 00 90 FD | 	jmp	#LR__0169
02f24                 | LR__0168
02f24     04 2C 66 F0 | 	shl	local02, #4
02f28     15 BF 01 F6 | 	mov	result1, local01
02f2c     16 BF 01 F1 | 	add	result1, local02
02f30                 | LR__0169
02f30     A4 F0 03 F6 | 	mov	ptra, fp
02f34     B8 00 A0 FD | 	call	#popregs_
02f38                 | __system___gc_nextBlockPtr_ret
02f38     2D 00 64 FD | 	ret
02f3c                 | 
02f3c                 | __system___gc_tryalloc
02f3c     1B 44 05 F6 | 	mov	COUNT_, #27
02f40     A9 00 A0 FD | 	call	#pushregs_
02f44     10 2B 02 F6 | 	mov	local01, arg01
02f48     11 2D 02 F6 | 	mov	local02, arg02
02f4c     18 FF BF FD | 	call	#__system___gc_ptrs
02f50     DF 2E 02 F6 | 	mov	local03, result1
02f54     E0 30 02 F6 | 	mov	local04, result2
02f58     17 33 02 F6 | 	mov	local05, local03
02f5c     00 34 06 F6 | 	mov	local06, #0
02f60     F4 D0 9F FE | 	loc	pa,	#(@LR__0171-@LR__0170)
02f64     95 00 A0 FD | 	call	#FCACHE_LOAD_
02f68                 | LR__0170
02f68     19 37 02 F6 | 	mov	local07, local05
02f6c     06 32 06 F1 | 	add	local05, #6
02f70     19 39 02 F6 | 	mov	local08, local05
02f74     17 3B 02 F6 | 	mov	local09, local03
02f78     1C 3D E2 FA | 	rdword	local10, local08
02f7c     1D 21 02 F6 | 	mov	arg01, local09
02f80     1E 23 0A F6 | 	mov	arg02, local10 wz
02f84     00 BE 05 A6 |  if_e	mov	result1, #0
02f88     04 22 66 50 |  if_ne	shl	arg02, #4
02f8c     11 21 02 51 |  if_ne	add	arg01, arg02
02f90     10 BF 01 56 |  if_ne	mov	result1, arg01
02f94     DF 3E 02 F6 | 	mov	local11, result1
02f98     1F 33 0A F6 | 	mov	local05, local11 wz
02f9c     19 3B 02 56 |  if_ne	mov	local09, local05
02fa0     1D 41 02 56 |  if_ne	mov	local12, local09
02fa4     20 35 E2 5A |  if_ne	rdword	local06, local12
02fa8     00 32 0E F2 | 	cmp	local05, #0 wz
02fac     10 00 90 AD |  if_e	jmp	#LR__0172
02fb0     18 33 5A F2 | 	cmps	local05, local04 wcz
02fb4     08 00 90 3D |  if_ae	jmp	#LR__0172
02fb8     1A 2B 5A F2 | 	cmps	local01, local06 wcz
02fbc     A8 FF 9F 1D |  if_a	jmp	#LR__0170
02fc0                 | LR__0171
02fc0                 | LR__0172
02fc0     00 32 0E F2 | 	cmp	local05, #0 wz
02fc4     19 BF 01 A6 |  if_e	mov	result1, local05
02fc8     40 01 90 AD |  if_e	jmp	#LR__0175
02fcc     19 43 02 F6 | 	mov	local13, local05
02fd0     06 42 06 F1 | 	add	local13, #6
02fd4     21 45 E2 FA | 	rdword	local14, local13
02fd8     1A 2B 5A F2 | 	cmps	local01, local06 wcz
02fdc     CC 00 90 3D |  if_ae	jmp	#LR__0174
02fe0     19 47 02 F6 | 	mov	local15, local05
02fe4     23 2B 52 FC | 	wrword	local01, local15
02fe8     15 49 02 F6 | 	mov	local16, local01
02fec     04 48 66 F0 | 	shl	local16, #4
02ff0     19 4B 02 F6 | 	mov	local17, local05
02ff4     24 4B 02 F1 | 	add	local17, local16
02ff8     1A 4D 02 F6 | 	mov	local18, local06
02ffc     15 4D 82 F1 | 	sub	local18, local01
03000     25 4F 02 F6 | 	mov	local19, local17
03004     27 4D 52 FC | 	wrword	local18, local19
03008     25 51 02 F6 | 	mov	local20, local17
0300c     02 50 06 F1 | 	add	local20, #2
03010     36 00 80 FF 
03014     28 1F 59 FC | 	wrword	##27791, local20
03018     25 53 02 F6 | 	mov	local21, local17
0301c     04 52 06 F1 | 	add	local21, #4
03020     19 23 0A F6 | 	mov	arg02, local05 wz
03024     00 BE 05 A6 |  if_e	mov	result1, #0
03028     17 23 82 51 |  if_ne	sub	arg02, local03
0302c     04 22 46 50 |  if_ne	shr	arg02, #4
03030     11 BF 01 56 |  if_ne	mov	result1, arg02
03034     29 BF 51 FC | 	wrword	result1, local21
03038     25 55 02 F6 | 	mov	local22, local17
0303c     21 3B E2 FA | 	rdword	local09, local13
03040     06 54 06 F1 | 	add	local22, #6
03044     2A 3B 52 FC | 	wrword	local09, local22
03048     25 57 02 F6 | 	mov	local23, local17
0304c     2B 23 0A F6 | 	mov	arg02, local23 wz
03050     00 BE 05 A6 |  if_e	mov	result1, #0
03054     17 23 82 51 |  if_ne	sub	arg02, local03
03058     04 22 46 50 |  if_ne	shr	arg02, #4
0305c     11 BF 01 56 |  if_ne	mov	result1, arg02
03060     DF 44 02 F6 | 	mov	local14, result1
03064     25 21 02 F6 | 	mov	arg01, local17
03068     94 FE BF FD | 	call	#__system___gc_nextBlockPtr
0306c     DF 58 0A F6 | 	mov	local24, result1 wz
03070     38 00 90 AD |  if_e	jmp	#LR__0173
03074     18 59 5A F2 | 	cmps	local24, local04 wcz
03078     30 00 90 3D |  if_ae	jmp	#LR__0173
0307c     2C 5B 02 F6 | 	mov	local25, local24
03080     04 5A 06 F1 | 	add	local25, #4
03084     17 3B 02 F6 | 	mov	local09, local03
03088     2B 3D 02 F6 | 	mov	local10, local23
0308c     1D 21 02 F6 | 	mov	arg01, local09
03090     1E 23 0A F6 | 	mov	arg02, local10 wz
03094     00 BE 05 A6 |  if_e	mov	result1, #0
03098     10 23 82 51 |  if_ne	sub	arg02, arg01
0309c     04 22 46 50 |  if_ne	shr	arg02, #4
030a0     11 BF 01 56 |  if_ne	mov	result1, arg02
030a4     DF 3E 02 F6 | 	mov	local11, result1
030a8     2D 3F 52 FC | 	wrword	local11, local25
030ac                 | LR__0173
030ac                 | LR__0174
030ac     06 36 06 F1 | 	add	local07, #6
030b0     1B 45 52 FC | 	wrword	local14, local07
030b4     36 00 00 FF 
030b8     80 3A 06 F6 | 	mov	local09, ##27776
030bc     16 3B 42 F5 | 	or	local09, local02
030c0     19 5D 02 F6 | 	mov	local26, local05
030c4     02 5C 06 F1 | 	add	local26, #2
030c8     01 BE 61 FD | 	cogid	result1
030cc     DF 3A 42 F5 | 	or	local09, result1
030d0     2E 3B 52 FC | 	wrword	local09, local26
030d4     17 5F 02 F6 | 	mov	local27, local03
030d8     08 5E 06 F1 | 	add	local27, #8
030dc     2F 3B E2 FA | 	rdword	local09, local27
030e0     21 3B 52 FC | 	wrword	local09, local13
030e4     19 23 0A F6 | 	mov	arg02, local05 wz
030e8     00 BE 05 A6 |  if_e	mov	result1, #0
030ec     17 23 82 51 |  if_ne	sub	arg02, local03
030f0     04 22 46 50 |  if_ne	shr	arg02, #4
030f4     11 BF 01 56 |  if_ne	mov	result1, arg02
030f8     2F BF 51 FC | 	wrword	result1, local27
030fc     08 32 06 F1 | 	add	local05, #8
03100     19 BF 01 F6 | 	mov	result1, local05
03104     00 C0 31 FF 
03108     00 BE 45 F5 | 	or	result1, ##1669332992
0310c                 | LR__0175
0310c     A4 F0 03 F6 | 	mov	ptra, fp
03110     B8 00 A0 FD | 	call	#popregs_
03114                 | __system___gc_tryalloc_ret
03114     2D 00 64 FD | 	ret
03118                 | 
03118                 | __system___gc_errmsg
03118     02 44 05 F6 | 	mov	COUNT_, #2
0311c     A9 00 A0 FD | 	call	#pushregs_
03120     10 2B 02 F6 | 	mov	local01, arg01
03124                 | LR__0176
03124     15 2D CA FA | 	rdbyte	local02, local01 wz
03128     01 2A 06 F1 | 	add	local01, #1
0312c     0C 00 90 AD |  if_e	jmp	#LR__0177
03130     16 21 02 F6 | 	mov	arg01, local02
03134     C8 FB BF FD | 	call	#__system___tx
03138     E8 FF 9F FD | 	jmp	#LR__0176
0313c                 | LR__0177
0313c     00 BE 05 F6 | 	mov	result1, #0
03140     A4 F0 03 F6 | 	mov	ptra, fp
03144     B8 00 A0 FD | 	call	#popregs_
03148                 | __system___gc_errmsg_ret
03148     2D 00 64 FD | 	ret
0314c                 | 
0314c                 | __system___gc_alloc_managed
0314c     02 44 05 F6 | 	mov	COUNT_, #2
03150     A9 00 A0 FD | 	call	#pushregs_
03154     10 2B 02 F6 | 	mov	local01, arg01
03158     00 22 06 F6 | 	mov	arg02, #0
0315c     30 00 B0 FD | 	call	#__system___gc_doalloc
03160     DF 2C 0A F6 | 	mov	local02, result1 wz
03164     18 00 90 5D |  if_ne	jmp	#LR__0178
03168     00 2A 5E F2 | 	cmps	local01, #0 wcz
0316c     10 00 90 ED |  if_be	jmp	#LR__0178
03170     1B 00 00 FF 
03174     48 21 06 F6 | 	mov	arg01, ##@LR__0212
03178     9C FF BF FD | 	call	#__system___gc_errmsg
0317c     04 00 90 FD | 	jmp	#LR__0179
03180                 | LR__0178
03180     16 BF 01 F6 | 	mov	result1, local02
03184                 | LR__0179
03184     A4 F0 03 F6 | 	mov	ptra, fp
03188     B8 00 A0 FD | 	call	#popregs_
0318c                 | __system___gc_alloc_managed_ret
0318c     2D 00 64 FD | 	ret
03190                 | 
03190                 | __system___gc_doalloc
03190     07 44 05 F6 | 	mov	COUNT_, #7
03194     A9 00 A0 FD | 	call	#pushregs_
03198     10 2B 0A F6 | 	mov	local01, arg01 wz
0319c     11 2D 02 F6 | 	mov	local02, arg02
031a0     00 BE 05 A6 |  if_e	mov	result1, #0
031a4     8C 00 90 AD |  if_e	jmp	#LR__0187
031a8     17 2A 06 F1 | 	add	local01, #23
031ac     0F 2A 26 F5 | 	andn	local01, #15
031b0     04 2A 46 F0 | 	shr	local01, #4
031b4     0C B2 05 F1 | 	add	ptr___system__dat__, #12
031b8     D9 2E 02 F6 | 	mov	local03, ptr___system__dat__
031bc     17 21 02 F6 | 	mov	arg01, local03
031c0     0C B2 85 F1 | 	sub	ptr___system__dat__, #12
031c4     80 FB BF FD | 	call	#__system___lockmem
031c8     15 21 02 F6 | 	mov	arg01, local01
031cc     16 23 02 F6 | 	mov	arg02, local02
031d0     68 FD BF FD | 	call	#__system___gc_tryalloc
031d4     DF 30 0A F6 | 	mov	local04, result1 wz
031d8     14 00 90 5D |  if_ne	jmp	#LR__0180
031dc     38 03 B0 FD | 	call	#__system___gc_docollect
031e0     15 21 02 F6 | 	mov	arg01, local01
031e4     16 23 02 F6 | 	mov	arg02, local02
031e8     50 FD BF FD | 	call	#__system___gc_tryalloc
031ec     DF 30 02 F6 | 	mov	local04, result1
031f0                 | LR__0180
031f0     17 01 48 FC | 	wrbyte	#0, local03
031f4     00 30 0E F2 | 	cmp	local04, #0 wz
031f8     34 00 90 AD |  if_e	jmp	#LR__0186
031fc     04 2A 66 F0 | 	shl	local01, #4
03200     08 2A 86 F1 | 	sub	local01, #8
03204     15 33 52 F6 | 	abs	local05, local01 wc
03208     02 32 46 F0 | 	shr	local05, #2
0320c     19 33 62 C6 |  if_b	neg	local05, local05
03210     19 35 0A F6 | 	mov	local06, local05 wz
03214     18 37 02 F6 | 	mov	local07, local04
03218     14 00 90 AD |  if_e	jmp	#LR__0185
0321c     EC CD 9F FE | 	loc	pa,	#(@LR__0183-@LR__0181)
03220     95 00 A0 FD | 	call	#FCACHE_LOAD_
03224                 | LR__0181
03224     1A 05 D8 FC | 	rep	@LR__0184, local06
03228                 | LR__0182
03228     1B 01 68 FC | 	wrlong	#0, local07
0322c     04 36 06 F1 | 	add	local07, #4
03230                 | LR__0183
03230                 | LR__0184
03230                 | LR__0185
03230                 | LR__0186
03230     18 BF 01 F6 | 	mov	result1, local04
03234                 | LR__0187
03234     A4 F0 03 F6 | 	mov	ptra, fp
03238     B8 00 A0 FD | 	call	#popregs_
0323c                 | __system___gc_doalloc_ret
0323c     2D 00 64 FD | 	ret
03240                 | 
03240                 | __system___gc_isvalidptr
03240     12 C3 01 F6 | 	mov	_var01, arg03
03244     E1 C4 01 F6 | 	mov	_var02, _var01
03248     00 F8 7F FF 
0324c     00 C4 05 F5 | 	and	_var02, ##-1048576
03250     00 C0 31 FF 
03254     00 C4 0D F2 | 	cmp	_var02, ##1669332992 wz
03258     00 BE 05 56 |  if_ne	mov	result1, #0
0325c     60 00 90 5D |  if_ne	jmp	#__system___gc_isvalidptr_ret
03260     08 C2 85 F1 | 	sub	_var01, #8
03264     E1 C6 01 F6 | 	mov	_var03, _var01
03268     00 F8 7F FF 
0326c     00 C6 25 F5 | 	andn	_var03, ##-1048576
03270     10 C7 59 F2 | 	cmps	_var03, arg01 wcz
03274     08 00 90 CD |  if_b	jmp	#LR__0188
03278     11 C7 59 F2 | 	cmps	_var03, arg02 wcz
0327c     08 00 90 CD |  if_b	jmp	#LR__0189
03280                 | LR__0188
03280     00 BE 05 F6 | 	mov	result1, #0
03284     38 00 90 FD | 	jmp	#__system___gc_isvalidptr_ret
03288                 | LR__0189
03288     E3 C4 01 F6 | 	mov	_var02, _var03
0328c     10 C5 61 F5 | 	xor	_var02, arg01
03290     0F C4 0D F5 | 	and	_var02, #15 wz
03294     00 BE 05 56 |  if_ne	mov	result1, #0
03298     24 00 90 5D |  if_ne	jmp	#__system___gc_isvalidptr_ret
0329c     E3 C8 01 F6 | 	mov	_var04, _var03
032a0     02 C8 05 F1 | 	add	_var04, #2
032a4     E4 C4 E1 FA | 	rdword	_var02, _var04
032a8     7F 00 00 FF 
032ac     C0 C5 05 F5 | 	and	_var02, ##65472
032b0     36 00 00 FF 
032b4     80 C4 0D F2 | 	cmp	_var02, ##27776 wz
032b8     00 BE 05 56 |  if_ne	mov	result1, #0
032bc     E3 BE 01 A6 |  if_e	mov	result1, _var03
032c0                 | __system___gc_isvalidptr_ret
032c0     2D 00 64 FD | 	ret
032c4                 | 
032c4                 | __system___gc_dofree
032c4     1A 44 05 F6 | 	mov	COUNT_, #26
032c8     A9 00 A0 FD | 	call	#pushregs_
032cc     10 2B 02 F6 | 	mov	local01, arg01
032d0     94 FB BF FD | 	call	#__system___gc_ptrs
032d4     E0 2C 02 F6 | 	mov	local02, result2
032d8     DF 2E 02 F6 | 	mov	local03, result1
032dc     15 31 02 F6 | 	mov	local04, local01
032e0     02 30 06 F1 | 	add	local04, #2
032e4     36 00 80 FF 
032e8     18 1F 59 FC | 	wrword	##27791, local04
032ec     15 33 02 F6 | 	mov	local05, local01
032f0     15 21 02 F6 | 	mov	arg01, local01
032f4     08 FC BF FD | 	call	#__system___gc_nextBlockPtr
032f8     DF 34 02 F6 | 	mov	local06, result1
032fc     50 CD 9F FE | 	loc	pa,	#(@LR__0191-@LR__0190)
03300     95 00 A0 FD | 	call	#FCACHE_LOAD_
03304                 | LR__0190
03304     04 32 06 F1 | 	add	local05, #4
03308     19 37 02 F6 | 	mov	local07, local05
0330c     1B 23 EA FA | 	rdword	arg02, local07 wz
03310     17 21 02 F6 | 	mov	arg01, local03
03314     00 BE 05 A6 |  if_e	mov	result1, #0
03318     04 22 66 50 |  if_ne	shl	arg02, #4
0331c     11 21 02 51 |  if_ne	add	arg01, arg02
03320     10 BF 01 56 |  if_ne	mov	result1, arg01
03324     DF 32 0A F6 | 	mov	local05, result1 wz
03328     28 00 90 AD |  if_e	jmp	#LR__0192
0332c     19 21 02 F6 | 	mov	arg01, local05
03330     00 38 06 F6 | 	mov	local08, #0
03334     02 20 06 F1 | 	add	arg01, #2
03338     10 3B E2 FA | 	rdword	local09, arg01
0333c     36 00 00 FF 
03340     8F 3A 0E F2 | 	cmp	local09, ##27791 wz
03344     01 38 66 A6 |  if_e	neg	local08, #1
03348     1C BF 01 F6 | 	mov	result1, local08
0334c     DF 3C 0A F6 | 	mov	local10, result1 wz
03350     B0 FF 9F AD |  if_e	jmp	#LR__0190
03354                 | LR__0191
03354                 | LR__0192
03354     00 32 0E F2 | 	cmp	local05, #0 wz
03358     17 33 02 A6 |  if_e	mov	local05, local03
0335c     19 3F 02 F6 | 	mov	local11, local05
03360     06 3E 06 F1 | 	add	local11, #6
03364     15 41 02 F6 | 	mov	local12, local01
03368     1F 43 E2 FA | 	rdword	local13, local11
0336c     06 40 06 F1 | 	add	local12, #6
03370     20 43 52 FC | 	wrword	local13, local12
03374     15 23 0A F6 | 	mov	arg02, local01 wz
03378     00 BE 05 A6 |  if_e	mov	result1, #0
0337c     17 23 82 51 |  if_ne	sub	arg02, local03
03380     04 22 46 50 |  if_ne	shr	arg02, #4
03384     11 BF 01 56 |  if_ne	mov	result1, arg02
03388     DF 44 02 F6 | 	mov	local14, result1
0338c     1F 45 52 FC | 	wrword	local14, local11
03390     17 33 0A F2 | 	cmp	local05, local03 wz
03394     74 00 90 AD |  if_e	jmp	#LR__0195
03398     19 21 02 F6 | 	mov	arg01, local05
0339c     60 FB BF FD | 	call	#__system___gc_nextBlockPtr
033a0     15 BF 09 F2 | 	cmp	result1, local01 wz
033a4     64 00 90 5D |  if_ne	jmp	#LR__0194
033a8     19 47 02 F6 | 	mov	local15, local05
033ac     23 49 E2 FA | 	rdword	local16, local15
033b0     15 4B 02 F6 | 	mov	local17, local01
033b4     25 3D E2 FA | 	rdword	local10, local17
033b8     1E 49 02 F1 | 	add	local16, local10
033bc     23 49 52 FC | 	wrword	local16, local15
033c0     18 01 58 FC | 	wrword	#0, local04
033c4     15 21 02 F6 | 	mov	arg01, local01
033c8     34 FB BF FD | 	call	#__system___gc_nextBlockPtr
033cc     DF 34 02 F6 | 	mov	local06, result1
033d0     16 35 5A F2 | 	cmps	local06, local02 wcz
033d4     24 00 90 3D |  if_ae	jmp	#LR__0193
033d8     1A 4D 02 F6 | 	mov	local18, local06
033dc     04 4C 06 F1 | 	add	local18, #4
033e0     19 23 0A F6 | 	mov	arg02, local05 wz
033e4     00 BE 05 A6 |  if_e	mov	result1, #0
033e8     17 23 82 51 |  if_ne	sub	arg02, local03
033ec     04 22 46 50 |  if_ne	shr	arg02, #4
033f0     11 BF 01 56 |  if_ne	mov	result1, arg02
033f4     DF 44 02 F6 | 	mov	local14, result1
033f8     26 45 52 FC | 	wrword	local14, local18
033fc                 | LR__0193
033fc     20 43 E2 FA | 	rdword	local13, local12
03400     1F 43 52 FC | 	wrword	local13, local11
03404     20 01 58 FC | 	wrword	#0, local12
03408     19 2B 02 F6 | 	mov	local01, local05
0340c                 | LR__0194
0340c                 | LR__0195
0340c     15 21 02 F6 | 	mov	arg01, local01
03410     EC FA BF FD | 	call	#__system___gc_nextBlockPtr
03414     DF 4E 0A F6 | 	mov	local19, result1 wz
03418     C4 00 90 AD |  if_e	jmp	#LR__0197
0341c     16 4F 5A F2 | 	cmps	local19, local02 wcz
03420     BC 00 90 3D |  if_ae	jmp	#LR__0197
03424     27 21 02 F6 | 	mov	arg01, local19
03428     00 38 06 F6 | 	mov	local08, #0
0342c     02 20 06 F1 | 	add	arg01, #2
03430     10 3B E2 FA | 	rdword	local09, arg01
03434     36 00 00 FF 
03438     8F 3A 0E F2 | 	cmp	local09, ##27791 wz
0343c     01 38 66 A6 |  if_e	neg	local08, #1
03440     1C BF 09 F6 | 	mov	result1, local08 wz
03444     98 00 90 AD |  if_e	jmp	#LR__0197
03448     15 33 02 F6 | 	mov	local05, local01
0344c     27 2B 02 F6 | 	mov	local01, local19
03450     19 51 02 F6 | 	mov	local20, local05
03454     28 53 E2 FA | 	rdword	local21, local20
03458     15 55 02 F6 | 	mov	local22, local01
0345c     2A 3D E2 FA | 	rdword	local10, local22
03460     1E 53 02 F1 | 	add	local21, local10
03464     28 53 52 FC | 	wrword	local21, local20
03468     15 57 02 F6 | 	mov	local23, local01
0346c     06 56 06 F1 | 	add	local23, #6
03470     19 59 02 F6 | 	mov	local24, local05
03474     2B 43 E2 FA | 	rdword	local13, local23
03478     06 58 06 F1 | 	add	local24, #6
0347c     2C 43 52 FC | 	wrword	local13, local24
03480     15 5B 02 F6 | 	mov	local25, local01
03484     02 5A 06 F1 | 	add	local25, #2
03488     2D 55 59 FC | 	wrword	#170, local25
0348c     2B 01 58 FC | 	wrword	#0, local23
03490     15 43 02 F6 | 	mov	local13, local01
03494     21 21 02 F6 | 	mov	arg01, local13
03498     64 FA BF FD | 	call	#__system___gc_nextBlockPtr
0349c     DF 3C 02 F6 | 	mov	local10, result1
034a0     1E 35 0A F6 | 	mov	local06, local10 wz
034a4     38 00 90 AD |  if_e	jmp	#LR__0196
034a8     16 35 5A F2 | 	cmps	local06, local02 wcz
034ac     30 00 90 3D |  if_ae	jmp	#LR__0196
034b0     1A 5D 02 F6 | 	mov	local26, local06
034b4     04 5C 06 F1 | 	add	local26, #4
034b8     17 43 02 F6 | 	mov	local13, local03
034bc     19 3D 02 F6 | 	mov	local10, local05
034c0     21 21 02 F6 | 	mov	arg01, local13
034c4     1E 23 0A F6 | 	mov	arg02, local10 wz
034c8     00 BE 05 A6 |  if_e	mov	result1, #0
034cc     10 23 82 51 |  if_ne	sub	arg02, arg01
034d0     04 22 46 50 |  if_ne	shr	arg02, #4
034d4     11 BF 01 56 |  if_ne	mov	result1, arg02
034d8     DF 44 02 F6 | 	mov	local14, result1
034dc     2E 45 52 FC | 	wrword	local14, local26
034e0                 | LR__0196
034e0                 | LR__0197
034e0     1A BF 01 F6 | 	mov	result1, local06
034e4     A4 F0 03 F6 | 	mov	ptra, fp
034e8     B8 00 A0 FD | 	call	#popregs_
034ec                 | __system___gc_dofree_ret
034ec     2D 00 64 FD | 	ret
034f0                 | 
034f0                 | __system____topofstack
034f0     00 44 05 F6 | 	mov	COUNT_, #0
034f4     A9 00 A0 FD | 	call	#pushregs_
034f8     0C F0 07 F1 | 	add	ptra, #12
034fc     04 48 05 F1 | 	add	fp, #4
03500     A4 20 62 FC | 	wrlong	arg01, fp
03504     A4 BE 01 F6 | 	mov	result1, fp
03508     04 48 85 F1 | 	sub	fp, #4
0350c     A4 F0 03 F6 | 	mov	ptra, fp
03510     B8 00 A0 FD | 	call	#popregs_
03514                 | __system____topofstack_ret
03514     2D 00 64 FD | 	ret
03518                 | 
03518                 | __system___gc_docollect
03518     0C 44 05 F6 | 	mov	COUNT_, #12
0351c     A9 00 A0 FD | 	call	#pushregs_
03520     44 F9 BF FD | 	call	#__system___gc_ptrs
03524     E0 2A 02 F6 | 	mov	local01, result2
03528     DF 2C 02 F6 | 	mov	local02, result1
0352c     16 21 02 F6 | 	mov	arg01, local02
03530     CC F9 BF FD | 	call	#__system___gc_nextBlockPtr
03534     DF 2E 0A F6 | 	mov	local03, result1 wz
03538     01 BE 61 FD | 	cogid	result1
0353c     DF 30 02 F6 | 	mov	local04, result1
03540     2C 00 90 AD |  if_e	jmp	#LR__0199
03544                 | LR__0198
03544     15 2F 5A F2 | 	cmps	local03, local01 wcz
03548     24 00 90 3D |  if_ae	jmp	#LR__0199
0354c     17 33 02 F6 | 	mov	local05, local03
03550     02 32 06 F1 | 	add	local05, #2
03554     19 35 E2 FA | 	rdword	local06, local05
03558     20 34 26 F5 | 	andn	local06, #32
0355c     19 35 52 FC | 	wrword	local06, local05
03560     17 21 02 F6 | 	mov	arg01, local03
03564     98 F9 BF FD | 	call	#__system___gc_nextBlockPtr
03568     DF 2E 0A F6 | 	mov	local03, result1 wz
0356c     D4 FF 9F 5D |  if_ne	jmp	#LR__0198
03570                 | LR__0199
03570     00 36 06 F6 | 	mov	local07, #0
03574     00 20 06 F6 | 	mov	arg01, #0
03578     74 FF BF FD | 	call	#__system____topofstack
0357c     DF 38 02 F6 | 	mov	local08, result1
03580     1B 21 02 F6 | 	mov	arg01, local07
03584     1C 23 02 F6 | 	mov	arg02, local08
03588     A0 00 B0 FD | 	call	#__system___gc_markhub
0358c     2C 01 B0 FD | 	call	#__system___gc_markcog
03590     16 21 02 F6 | 	mov	arg01, local02
03594     68 F9 BF FD | 	call	#__system___gc_nextBlockPtr
03598     DF 3A 0A F6 | 	mov	local09, result1 wz
0359c     10 00 90 5D |  if_ne	jmp	#LR__0200
035a0     1B 00 00 FF 
035a4     65 21 06 F6 | 	mov	arg01, ##@LR__0213
035a8     6C FB BF FD | 	call	#__system___gc_errmsg
035ac     70 00 90 FD | 	jmp	#LR__0206
035b0                 | LR__0200
035b0                 | LR__0201
035b0     1D 2F 02 F6 | 	mov	local03, local09
035b4     17 21 02 F6 | 	mov	arg01, local03
035b8     44 F9 BF FD | 	call	#__system___gc_nextBlockPtr
035bc     DF 3A 02 F6 | 	mov	local09, result1
035c0     17 3D 02 F6 | 	mov	local10, local03
035c4     02 3C 06 F1 | 	add	local10, #2
035c8     1E 3F E2 FA | 	rdword	local11, local10
035cc     20 3E CE F7 | 	test	local11, #32 wz
035d0     3C 00 90 5D |  if_ne	jmp	#LR__0204
035d4     1F 41 02 F6 | 	mov	local12, local11
035d8     10 40 0E F5 | 	and	local12, #16 wz
035dc     30 00 90 5D |  if_ne	jmp	#LR__0204
035e0     1F 37 02 F6 | 	mov	local07, local11
035e4     0F 36 06 F5 | 	and	local07, #15
035e8     1B 3F 02 F6 | 	mov	local11, local07
035ec     18 3F 0A F2 | 	cmp	local11, local04 wz
035f0     08 00 90 AD |  if_e	jmp	#LR__0202
035f4     0E 3E 0E F2 | 	cmp	local11, #14 wz
035f8     14 00 90 5D |  if_ne	jmp	#LR__0203
035fc                 | LR__0202
035fc     17 37 02 F6 | 	mov	local07, local03
03600     1B 21 02 F6 | 	mov	arg01, local07
03604     BC FC BF FD | 	call	#__system___gc_dofree
03608     DF 40 02 F6 | 	mov	local12, result1
0360c     20 3B 02 F6 | 	mov	local09, local12
03610                 | LR__0203
03610                 | LR__0204
03610     00 3A 0E F2 | 	cmp	local09, #0 wz
03614     08 00 90 AD |  if_e	jmp	#LR__0205
03618     15 3B 5A F2 | 	cmps	local09, local01 wcz
0361c     90 FF 9F CD |  if_b	jmp	#LR__0201
03620                 | LR__0205
03620                 | LR__0206
03620     A4 F0 03 F6 | 	mov	ptra, fp
03624     B8 00 A0 FD | 	call	#popregs_
03628                 | __system___gc_docollect_ret
03628     2D 00 64 FD | 	ret
0362c                 | 
0362c                 | __system___gc_markhub
0362c     0A 44 05 F6 | 	mov	COUNT_, #10
03630     A9 00 A0 FD | 	call	#pushregs_
03634     10 2B 02 F6 | 	mov	local01, arg01
03638     11 2D 02 F6 | 	mov	local02, arg02
0363c     28 F8 BF FD | 	call	#__system___gc_ptrs
03640     DF 2E 02 F6 | 	mov	local03, result1
03644     E0 30 02 F6 | 	mov	local04, result2
03648                 | LR__0207
03648     16 2B 5A F2 | 	cmps	local01, local02 wcz
0364c     60 00 90 3D |  if_ae	jmp	#LR__0208
03650     15 25 02 FB | 	rdlong	arg03, local01
03654     04 2A 06 F1 | 	add	local01, #4
03658     17 21 02 F6 | 	mov	arg01, local03
0365c     18 23 02 F6 | 	mov	arg02, local04
03660     DC FB BF FD | 	call	#__system___gc_isvalidptr
03664     DF 32 0A F6 | 	mov	local05, result1 wz
03668     DC FF 9F AD |  if_e	jmp	#LR__0207
0366c     19 21 02 F6 | 	mov	arg01, local05
03670     00 34 06 F6 | 	mov	local06, #0
03674     02 20 06 F1 | 	add	arg01, #2
03678     10 37 E2 FA | 	rdword	local07, arg01
0367c     36 00 00 FF 
03680     8F 36 0E F2 | 	cmp	local07, ##27791 wz
03684     01 34 66 A6 |  if_e	neg	local06, #1
03688     1A BF 01 F6 | 	mov	result1, local06
0368c     DF 38 0A F6 | 	mov	local08, result1 wz
03690     B4 FF 9F 5D |  if_ne	jmp	#LR__0207
03694     19 3B 02 F6 | 	mov	local09, local05
03698     02 3A 06 F1 | 	add	local09, #2
0369c     1D 3D E2 FA | 	rdword	local10, local09
036a0     0F 3C 26 F5 | 	andn	local10, #15
036a4     2E 3C 46 F5 | 	or	local10, #46
036a8     1D 3D 52 FC | 	wrword	local10, local09
036ac     98 FF 9F FD | 	jmp	#LR__0207
036b0                 | LR__0208
036b0     A4 F0 03 F6 | 	mov	ptra, fp
036b4     B8 00 A0 FD | 	call	#popregs_
036b8                 | __system___gc_markhub_ret
036b8     2D 00 64 FD | 	ret
036bc                 | 
036bc                 | __system___gc_markcog
036bc     07 44 05 F6 | 	mov	COUNT_, #7
036c0     A9 00 A0 FD | 	call	#pushregs_
036c4     A0 F7 BF FD | 	call	#__system___gc_ptrs
036c8     DF 2A 02 F6 | 	mov	local01, result1
036cc     E0 2C 02 F6 | 	mov	local02, result2
036d0     00 2E 06 F6 | 	mov	local03, #0
036d4                 | LR__0209
036d4     F0 31 06 F6 | 	mov	local04, #496
036d8     17 31 82 F1 | 	sub	local04, local03
036dc     F0 33 06 F6 | 	mov	local05, #496
036e0     18 33 02 F1 | 	add	local05, local04
036e4                 | 	'.live	local05
036e4     00 32 96 F9 | 	alts	local05, #0
036e8     19 35 02 F6 | 	mov	local06, local05
036ec     16 23 02 F6 | 	mov	arg02, local02
036f0     15 21 02 F6 | 	mov	arg01, local01
036f4     1A 25 02 F6 | 	mov	arg03, local06
036f8     44 FB BF FD | 	call	#__system___gc_isvalidptr
036fc     DF 34 0A F6 | 	mov	local06, result1 wz
03700     10 00 90 AD |  if_e	jmp	#LR__0210
03704     02 34 06 F1 | 	add	local06, #2
03708     1A 37 E2 FA | 	rdword	local07, local06
0370c     20 36 46 F5 | 	or	local07, #32
03710     1A 37 52 FC | 	wrword	local07, local06
03714                 | LR__0210
03714     01 2E 06 F1 | 	add	local03, #1
03718     F0 2F 5E F2 | 	cmps	local03, #496 wcz
0371c     B4 FF 9F CD |  if_b	jmp	#LR__0209
03720     A4 F0 03 F6 | 	mov	ptra, fp
03724     B8 00 A0 FD | 	call	#popregs_
03728                 | __system___gc_markcog_ret
03728     2D 00 64 FD | 	ret
0372c                 | 
0372c                 | LR__0211
0372c     20 21 21 21 
03730     20 63 6F 72 
03734     72 75 70 74 
03738     65 64 20 68 
0373c     65 61 70 3F 
03740     3F 3F 20 21 
03744     21 21 20    | 	byte	" !!! corrupted heap??? !!! "
03747     00          | 	byte	0
03748                 | LR__0212
03748     20 21 21 21 
0374c     20 6F 75 74 
03750     20 6F 66 20 
03754     68 65 61 70 
03758     20 6D 65 6D 
0375c     6F 72 79 20 
03760     21 21 21 20 | 	byte	" !!! out of heap memory !!! "
03764     00          | 	byte	0
03765                 | LR__0213
03765     20 21 21 21 
03769     20 63 6F 72 
0376d     72 75 70 74 
03771     65 64 20 68 
03775     65 61 70 20 
03779     21 21 21 20 | 	byte	" !!! corrupted heap !!! "
0377d     00          | 	byte	0
0377e                 | LR__0214
0377e     6D 6F 64 65 | 	byte	"mode"
03782     00          | 	byte	0
03783                 | LR__0215
03783     63 70 6C    | 	byte	"cpl"
03786     00          | 	byte	0
03787                 | LR__0216
03787     62 75 66 70 
0378b     74 72       | 	byte	"bufptr"
0378d     00          | 	byte	0
0378e                 | LR__0217
0378e     62 75 66 6C 
03792     65 6E       | 	byte	"buflen"
03794     00          | 	byte	0
03795                 | LR__0218
03795     6C 69 6E 65 
03799     73          | 	byte	"lines"
0379a     00          | 	byte	0
0379b                 | LR__0219
0379b     6D 6F 64 65 | 	byte	"mode"
0379f     00          | 	byte	0
037a0                 | LR__0220
037a0     63 70 6C    | 	byte	"cpl"
037a3     00          | 	byte	0
037a4                 | LR__0221
037a4     62 75 66 5F 
037a8     70 74 72    | 	byte	"buf_ptr"
037ab     00          | 	byte	0
037ac                 | LR__0222
037ac     62 75 66 6C 
037b0     65 6E       | 	byte	"buflen"
037b2     00          | 	byte	0
037b3                 | LR__0223
037b3     6C 69 6E 65 
037b7     73          | 	byte	"lines"
037b8     00          | 	byte	0
037b9                 | LR__0224
037b9     6D 6F 64 65 | 	byte	"mode"
037bd     00          | 	byte	0
037be                 | LR__0225
037be     63 70 6C    | 	byte	"cpl"
037c1     00          | 	byte	0
037c2                 | LR__0226
037c2     62 75 66 5F 
037c6     70 74 72    | 	byte	"buf_ptr"
037c9     00          | 	byte	0
037ca                 | LR__0227
037ca     62 75 66 6C 
037ce     65 6E       | 	byte	"buflen"
037d0     00          | 	byte	0
037d1                 | LR__0228
037d1     6C 69 6E 65 
037d5     73          | 	byte	"lines"
037d6     00          | 	byte	0
037d7                 | LR__0229
037d7     6D 6F 64 65 | 	byte	"mode"
037db     00          | 	byte	0
037dc                 | LR__0230
037dc     63 70 6C    | 	byte	"cpl"
037df     00          | 	byte	0
037e0                 | LR__0231
037e0     62 75 66 5F 
037e4     70 74 72    | 	byte	"buf_ptr"
037e7     00          | 	byte	0
037e8                 | LR__0232
037e8     62 75 66 6C 
037ec     65 6E       | 	byte	"buflen"
037ee     00          | 	byte	0
037ef                 | LR__0233
037ef     6C 69 6E 65 
037f3     73          | 	byte	"lines"
037f4     00          | 	byte	0
037f5     00 00 00    | 	alignl
037f8                 | _dat_
037f8     00 00 00 00 
037fc     00 00 00 00 
03800     00 00 00 00 
03804     00 00 00 00 
03808     00 00 00    | vga_font       file "vgafont.def"
0380b     7E 81 A5 81 
0380f     81 BD 99 81 
03813     81 7E 00 00 
03817     00 00 00 00 | 	byte	$7e, $81, $a5, $81, $81, $bd, $99, $81, $81, $7e, $00, $00, $00, $00, $00, $00
0381b     7E FF DB FF 
0381f     FF C3 E7 FF 
03823     FF 7E 00 00 
03827     00 00 00 00 | 	byte	$7e, $ff, $db, $ff, $ff, $c3, $e7, $ff, $ff, $7e, $00, $00, $00, $00, $00, $00
0382b     00 36 7F 7F 
0382f     7F 7F 3E 1C 
03833     08 00 00 00 
03837     00 00 00 00 | 	byte	$00, $36, $7f, $7f, $7f, $7f, $3e, $1c, $08, $00, $00, $00, $00, $00, $00, $00
0383b     00 08 1C 3E 
0383f     7F 3E 1C 08 
03843     00 00 00 00 
03847     00 00 00 00 | 	byte	$00, $08, $1c, $3e, $7f, $3e, $1c, $08, $00, $00, $00, $00, $00, $00, $00, $00
0384b     18 3C 3C E7 
0384f     E7 E7 18 18 
03853     3C 00 00 00 
03857     00 00 00 00 | 	byte	$18, $3c, $3c, $e7, $e7, $e7, $18, $18, $3c, $00, $00, $00, $00, $00, $00, $00
0385b     18 3C 7E FF 
0385f     FF 7E 18 18 
03863     3C 00 00 00 
03867     00 00 00 00 | 	byte	$18, $3c, $7e, $ff, $ff, $7e, $18, $18, $3c, $00, $00, $00, $00, $00, $00, $00
0386b     00 00 00 18 
0386f     3C 3C 18 00 
03873     00 00 00 00 
03877     00 FF FF FF | 	byte	$00, $00, $00, $18, $3c, $3c, $18, $00, $00, $00, $00, $00, $00, $ff, $ff, $ff
0387b     FF FF FF E7 
0387f     C3 C3 E7 FF 
03883     FF FF FF FF 
03887     FF 00 00 00 | 	byte	$ff, $ff, $ff, $e7, $c3, $c3, $e7, $ff, $ff, $ff, $ff, $ff, $ff, $00, $00, $00
0388b     00 00 3C 66 
0388f     42 42 66 3C 
03893     00 00 00 00 
03897     00 FF FF FF | 	byte	$00, $00, $3c, $66, $42, $42, $66, $3c, $00, $00, $00, $00, $00, $ff, $ff, $ff
0389b     FF FF C3 99 
0389f     BD BD 99 C3 
038a3     FF FF FF FF 
038a7     FF 00 00 00 | 	byte	$ff, $ff, $c3, $99, $bd, $bd, $99, $c3, $ff, $ff, $ff, $ff, $ff, $00, $00, $00
038ab     78 70 58 4C 
038af     1E 33 33 33 
038b3     33 1E 00 00 
038b7     00 00 00 00 | 	byte	$78, $70, $58, $4c, $1e, $33, $33, $33, $33, $1e, $00, $00, $00, $00, $00, $00
038bb     3C 66 66 66 
038bf     66 3C 18 7E 
038c3     18 18 00 00 
038c7     00 00 00 00 | 	byte	$3c, $66, $66, $66, $66, $3c, $18, $7e, $18, $18, $00, $00, $00, $00, $00, $00
038cb     FC CC FC 0C 
038cf     0C 0C 0C 0E 
038d3     0F 07 00 00 
038d7     00 00 00 00 | 	byte	$fc, $cc, $fc, $0c, $0c, $0c, $0c, $0e, $0f, $07, $00, $00, $00, $00, $00, $00
038db     FE C6 FE C6 
038df     C6 C6 C6 E6 
038e3     E7 67 03 00 
038e7     00 00 00 00 | 	byte	$fe, $c6, $fe, $c6, $c6, $c6, $c6, $e6, $e7, $67, $03, $00, $00, $00, $00, $00
038eb     18 18 DB 3C 
038ef     E7 3C DB 18 
038f3     18 00 00 00 
038f7     00 00 00 01 | 	byte	$18, $18, $db, $3c, $e7, $3c, $db, $18, $18, $00, $00, $00, $00, $00, $00, $01
038fb     03 07 0F 1F 
038ff     7F 1F 0F 07 
03903     03 01 00 00 
03907     00 00 00 40 | 	byte	$03, $07, $0f, $1f, $7f, $1f, $0f, $07, $03, $01, $00, $00, $00, $00, $00, $40
0390b     60 70 78 7C 
0390f     7F 7C 78 70 
03913     60 40 00 00 
03917     00 00 00 00 | 	byte	$60, $70, $78, $7c, $7f, $7c, $78, $70, $60, $40, $00, $00, $00, $00, $00, $00
0391b     18 3C 7E 18 
0391f     18 18 7E 3C 
03923     18 00 00 00 
03927     00 00 00 00 | 	byte	$18, $3c, $7e, $18, $18, $18, $7e, $3c, $18, $00, $00, $00, $00, $00, $00, $00
0392b     66 66 66 66 
0392f     66 66 66    | 	byte	$66[7]
03932     00 66 66 00 
03936     00 00 00 00 
0393a     00 FE DB DB 
0393e     DB DE D8 D8 | 	byte	$00, $66, $66, $00, $00, $00, $00, $00, $00, $fe, $db, $db, $db, $de, $d8, $d8
03942     D8 D8 D8 00 
03946     00 00 00 3E 
0394a     63 06 1C 36 
0394e     63 63 36 1C | 	byte	$d8, $d8, $d8, $00, $00, $00, $00, $3e, $63, $06, $1c, $36, $63, $63, $36, $1c
03952     30 63 3E 00 
03956     00 00 00 00 
0395a     00 00 00 00 
0395e     00 00 00 7F | 	byte	$30, $63, $3e, $00, $00, $00, $00, $00, $00, $00, $00, $00, $00, $00, $00, $7f
03962     7F 7F 7F 00 
03966     00 00 00 00 
0396a     00 18 3C 7E 
0396e     18 18 18 7E | 	byte	$7f, $7f, $7f, $00, $00, $00, $00, $00, $00, $18, $3c, $7e, $18, $18, $18, $7e
03972     3C 18 7E 00 
03976     00 00 00 00 
0397a     00 18 3C 7E 
0397e     18 18 18 18 | 	byte	$3c, $18, $7e, $00, $00, $00, $00, $00, $00, $18, $3c, $7e, $18, $18, $18, $18
03982     18 18 18 00 
03986     00 00 00 00 
0398a     00 18 18 18 
0398e     18 18 18 18 | 	byte	$18, $18, $18, $00, $00, $00, $00, $00, $00, $18, $18, $18, $18, $18, $18, $18
03992     7E 3C 18 00 
03996     00 00 00 00 
0399a     00 00 00 18 
0399e     30 7F 30 18 | 	byte	$7e, $3c, $18, $00, $00, $00, $00, $00, $00, $00, $00, $18, $30, $7f, $30, $18
039a2     00 00 00 00 
039a6     00 00 00 00 
039aa     00 00 00    | 	byte	$00[11]
039ad     0C 06 7F 06 
039b1     0C 00 00 00 
039b5     00 00 00 00 
039b9     00 00 00 00 | 	byte	$0c, $06, $7f, $06, $0c, $00, $00, $00, $00, $00, $00, $00, $00, $00, $00, $00
039bd     00 03 03 03 
039c1     7F 00 00 00 
039c5     00 00 00 00 
039c9     00 00 00 00 | 	byte	$00, $03, $03, $03, $7f, $00, $00, $00, $00, $00, $00, $00, $00, $00, $00, $00
039cd     14 36 7F 36 
039d1     14 00 00 00 
039d5     00 00 00 00 
039d9     00 00 00 08 | 	byte	$14, $36, $7f, $36, $14, $00, $00, $00, $00, $00, $00, $00, $00, $00, $00, $08
039dd     1C 1C 3E 3E 
039e1     7F 7F 00 00 
039e5     00 00 00 00 
039e9     00 00 00 7F | 	byte	$1c, $1c, $3e, $3e, $7f, $7f, $00, $00, $00, $00, $00, $00, $00, $00, $00, $7f
039ed     7F 3E 3E 1C 
039f1     1C 08 00 00 
039f5     00 00 00 00 
039f9     00 00 00 00 | 	byte	$7f, $3e, $3e, $1c, $1c, $08, $00, $00, $00, $00, $00, $00, $00, $00, $00, $00
039fd     00 00 00 00 
03a01     00 00 00 00 
03a05     00 00 00 00 
03a09     00 00       | 	byte	$00[14]
03a0b     18 3C 3C 3C 
03a0f     18 18 18 00 
03a13     18 18 00 00 
03a17     00 00 66 66 | 	byte	$18, $3c, $3c, $3c, $18, $18, $18, $00, $18, $18, $00, $00, $00, $00, $66, $66
03a1b     66 24 00 00 
03a1f     00 00 00 00 
03a23     00 00 00 00 
03a27     00 00 00 00 | 	byte	$66, $24, $00, $00, $00, $00, $00, $00, $00, $00, $00, $00, $00, $00, $00, $00
03a2b     00 36 36 7F 
03a2f     36 36 36 7F 
03a33     36 36 00 00 
03a37     00 00 18 18 | 	byte	$00, $36, $36, $7f, $36, $36, $36, $7f, $36, $36, $00, $00, $00, $00, $18, $18
03a3b     3E 63 43 03 
03a3f     3E 60 60 61 
03a43     63 3E 18 18 
03a47     00 00 00 00 | 	byte	$3e, $63, $43, $03, $3e, $60, $60, $61, $63, $3e, $18, $18, $00, $00, $00, $00
03a4b     00 00 43 63 
03a4f     30 18 0C 06 
03a53     63 61 00 00 
03a57     00 00 00 00 | 	byte	$00, $00, $43, $63, $30, $18, $0c, $06, $63, $61, $00, $00, $00, $00, $00, $00
03a5b     1C 36 36 1C 
03a5f     6E 3B 33 33 
03a63     33 6E 00 00 
03a67     00 00 00 00 | 	byte	$1c, $36, $36, $1c, $6e, $3b, $33, $33, $33, $6e, $00, $00, $00, $00, $00, $00
03a6b     0C 0C 0C 06 
03a6f     00 00 00 00 
03a73     00 00 00 00 
03a77     00 00 00 00 | 	byte	$0c, $0c, $0c, $06, $00, $00, $00, $00, $00, $00, $00, $00, $00, $00, $00, $00
03a7b     30 18 0C 0C 
03a7f     0C 0C 0C 0C 
03a83     18 30 00 00 
03a87     00 00 00 00 | 	byte	$30, $18, $0c, $0c, $0c, $0c, $0c, $0c, $18, $30, $00, $00, $00, $00, $00, $00
03a8b     0C 18 30 30 
03a8f     30 30 30 30 
03a93     18 0C 00 00 
03a97     00 00 00 00 | 	byte	$0c, $18, $30, $30, $30, $30, $30, $30, $18, $0c, $00, $00, $00, $00, $00, $00
03a9b     00 00 00 66 
03a9f     3C FF 3C 66 
03aa3     00 00 00 00 
03aa7     00 00 00 00 | 	byte	$00, $00, $00, $66, $3c, $ff, $3c, $66, $00, $00, $00, $00, $00, $00, $00, $00
03aab     00 00 00 18 
03aaf     18 7E 18 18 
03ab3     00 00 00 00 
03ab7     00 00 00 00 | 	byte	$00, $00, $00, $18, $18, $7e, $18, $18, $00, $00, $00, $00, $00, $00, $00, $00
03abb     00 00 00 00 
03abf     00 00 00 00 | 	byte	$00[8]
03ac3     18 18 18 0C 
03ac7     00 00 00 00 
03acb     00 00 00 00 
03acf     00 7F 00 00 | 	byte	$18, $18, $18, $0c, $00, $00, $00, $00, $00, $00, $00, $00, $00, $7f, $00, $00
03ad3     00 00 00 00 
03ad7     00 00 00 00 
03adb     00 00 00 00 
03adf     00 00 00 00 | 	byte	$00[16]
03ae3     18 18 00 00 
03ae7     00 00 00 00 
03aeb     00 00 40 60 
03aef     30 18 0C 06 | 	byte	$18, $18, $00, $00, $00, $00, $00, $00, $00, $00, $40, $60, $30, $18, $0c, $06
03af3     03 01 00 00 
03af7     00 00 00 00 
03afb     1C 36 63 63 
03aff     6B 6B 63 63 | 	byte	$03, $01, $00, $00, $00, $00, $00, $00, $1c, $36, $63, $63, $6b, $6b, $63, $63
03b03     36 1C 00 00 
03b07     00 00 00 00 
03b0b     18 1C 1E 18 
03b0f     18 18 18 18 | 	byte	$36, $1c, $00, $00, $00, $00, $00, $00, $18, $1c, $1e, $18, $18, $18, $18, $18
03b13     18 7E 00 00 
03b17     00 00 00 00 
03b1b     3E 63 60 30 
03b1f     18 0C 06 03 | 	byte	$18, $7e, $00, $00, $00, $00, $00, $00, $3e, $63, $60, $30, $18, $0c, $06, $03
03b23     63 7F 00 00 
03b27     00 00 00 00 
03b2b     3E 63 60 60 
03b2f     3C 60 60 60 | 	byte	$63, $7f, $00, $00, $00, $00, $00, $00, $3e, $63, $60, $60, $3c, $60, $60, $60
03b33     63 3E 00 00 
03b37     00 00 00 00 
03b3b     30 38 3C 36 
03b3f     33 7F 30 30 | 	byte	$63, $3e, $00, $00, $00, $00, $00, $00, $30, $38, $3c, $36, $33, $7f, $30, $30
03b43     30 78 00 00 
03b47     00 00 00 00 
03b4b     7F 03 03 03 
03b4f     3F 60 60 60 | 	byte	$30, $78, $00, $00, $00, $00, $00, $00, $7f, $03, $03, $03, $3f, $60, $60, $60
03b53     63 3E 00 00 
03b57     00 00 00 00 
03b5b     1C 06 03 03 
03b5f     3F 63 63 63 | 	byte	$63, $3e, $00, $00, $00, $00, $00, $00, $1c, $06, $03, $03, $3f, $63, $63, $63
03b63     63 3E 00 00 
03b67     00 00 00 00 
03b6b     7F 63 60 60 
03b6f     30 18 0C 0C | 	byte	$63, $3e, $00, $00, $00, $00, $00, $00, $7f, $63, $60, $60, $30, $18, $0c, $0c
03b73     0C 0C 00 00 
03b77     00 00 00 00 
03b7b     3E 63 63 63 
03b7f     3E 63 63 63 | 	byte	$0c, $0c, $00, $00, $00, $00, $00, $00, $3e, $63, $63, $63, $3e, $63, $63, $63
03b83     63 3E 00 00 
03b87     00 00 00 00 
03b8b     3E 63 63 63 
03b8f     7E 60 60 60 | 	byte	$63, $3e, $00, $00, $00, $00, $00, $00, $3e, $63, $63, $63, $7e, $60, $60, $60
03b93     30 1E 00 00 
03b97     00 00 00 00 
03b9b     00 00 00 18 
03b9f     18 00 00 00 | 	byte	$30, $1e, $00, $00, $00, $00, $00, $00, $00, $00, $00, $18, $18, $00, $00, $00
03ba3     18 18 00 00 
03ba7     00 00 00 00 
03bab     00 00 00 18 
03baf     18 00 00 00 | 	byte	$18, $18, $00, $00, $00, $00, $00, $00, $00, $00, $00, $18, $18, $00, $00, $00
03bb3     18 18 0C 00 
03bb7     00 00 00 00 
03bbb     00 60 30 18 
03bbf     0C 06 0C 18 | 	byte	$18, $18, $0c, $00, $00, $00, $00, $00, $00, $60, $30, $18, $0c, $06, $0c, $18
03bc3     30 60 00 00 
03bc7     00 00 00 00 
03bcb     00 00 00 7E 
03bcf     00 00 7E 00 | 	byte	$30, $60, $00, $00, $00, $00, $00, $00, $00, $00, $00, $7e, $00, $00, $7e, $00
03bd3     00 00 00 00 
03bd7     00 00 00 00 
03bdb     00          | 	byte	$00[9]
03bdc     06 0C 18 30 
03be0     60 30 18 0C 
03be4     06 00 00 00 
03be8     00 00 00 3E | 	byte	$06, $0c, $18, $30, $60, $30, $18, $0c, $06, $00, $00, $00, $00, $00, $00, $3e
03bec     63 63 30 18 
03bf0     18 18 00 18 
03bf4     18 00 00 00 
03bf8     00 00 00 00 | 	byte	$63, $63, $30, $18, $18, $18, $00, $18, $18, $00, $00, $00, $00, $00, $00, $00
03bfc     3E 63 63 7B 
03c00     7B 7B 3B 03 
03c04     3E 00 00 00 
03c08     00 00 00 08 | 	byte	$3e, $63, $63, $7b, $7b, $7b, $3b, $03, $3e, $00, $00, $00, $00, $00, $00, $08
03c0c     1C 36 63 63 
03c10     7F 63 63 63 
03c14     63 00 00 00 
03c18     00 00 00 3F | 	byte	$1c, $36, $63, $63, $7f, $63, $63, $63, $63, $00, $00, $00, $00, $00, $00, $3f
03c1c     66 66 66 3E 
03c20     66 66 66 66 
03c24     3F 00 00 00 
03c28     00 00 00 3C | 	byte	$66, $66, $66, $3e, $66, $66, $66, $66, $3f, $00, $00, $00, $00, $00, $00, $3c
03c2c     66 43 03 03 
03c30     03 03 43 66 
03c34     3C 00 00 00 
03c38     00 00 00 1F | 	byte	$66, $43, $03, $03, $03, $03, $43, $66, $3c, $00, $00, $00, $00, $00, $00, $1f
03c3c     36 66 66 66 
03c40     66 66 66 36 
03c44     1F 00 00 00 
03c48     00 00 00 7F | 	byte	$36, $66, $66, $66, $66, $66, $66, $36, $1f, $00, $00, $00, $00, $00, $00, $7f
03c4c     66 46 16 1E 
03c50     16 06 46 66 
03c54     7F 00 00 00 
03c58     00 00 00 7F | 	byte	$66, $46, $16, $1e, $16, $06, $46, $66, $7f, $00, $00, $00, $00, $00, $00, $7f
03c5c     66 46 16 1E 
03c60     16 06 06 06 
03c64     0F 00 00 00 
03c68     00 00 00 3C | 	byte	$66, $46, $16, $1e, $16, $06, $06, $06, $0f, $00, $00, $00, $00, $00, $00, $3c
03c6c     66 43 03 03 
03c70     7B 63 63 66 
03c74     5C 00 00 00 
03c78     00 00 00 63 | 	byte	$66, $43, $03, $03, $7b, $63, $63, $66, $5c, $00, $00, $00, $00, $00, $00, $63
03c7c     63 63 63 7F 
03c80     63 63 63 63 
03c84     63 00 00 00 
03c88     00 00 00 3C | 	byte	$63, $63, $63, $7f, $63, $63, $63, $63, $63, $00, $00, $00, $00, $00, $00, $3c
03c8c     18 18 18 18 
03c90     18 18 18 18 | 	byte	$18[8]
03c94     3C 00 00 00 
03c98     00 00 00 78 
03c9c     30 30 30 30 
03ca0     30 33 33 33 | 	byte	$3c, $00, $00, $00, $00, $00, $00, $78, $30, $30, $30, $30, $30, $33, $33, $33
03ca4     1E 00 00 00 
03ca8     00 00 00 67 
03cac     66 66 36 1E 
03cb0     1E 36 66 66 | 	byte	$1e, $00, $00, $00, $00, $00, $00, $67, $66, $66, $36, $1e, $1e, $36, $66, $66
03cb4     67 00 00 00 
03cb8     00 00 00 0F 
03cbc     06 06 06 06 
03cc0     06 06 46 66 | 	byte	$67, $00, $00, $00, $00, $00, $00, $0f, $06, $06, $06, $06, $06, $06, $46, $66
03cc4     7F 00 00 00 
03cc8     00 00 00 63 
03ccc     77 7F 7F 6B 
03cd0     63 63 63 63 | 	byte	$7f, $00, $00, $00, $00, $00, $00, $63, $77, $7f, $7f, $6b, $63, $63, $63, $63
03cd4     63 00 00 00 
03cd8     00 00 00 63 
03cdc     67 6F 7F 7B 
03ce0     73 63 63 63 | 	byte	$63, $00, $00, $00, $00, $00, $00, $63, $67, $6f, $7f, $7b, $73, $63, $63, $63
03ce4     63 00 00 00 
03ce8     00 00 00 3E 
03cec     63 63 63 63 
03cf0     63 63 63 63 | 	byte	$63, $00, $00, $00, $00, $00, $00, $3e, $63, $63, $63, $63, $63, $63, $63, $63
03cf4     3E 00 00 00 
03cf8     00 00 00 3F 
03cfc     66 66 66 3E 
03d00     06 06 06 06 | 	byte	$3e, $00, $00, $00, $00, $00, $00, $3f, $66, $66, $66, $3e, $06, $06, $06, $06
03d04     0F 00 00 00 
03d08     00 00 00 3E 
03d0c     63 63 63 63 
03d10     63 63 6B 7B | 	byte	$0f, $00, $00, $00, $00, $00, $00, $3e, $63, $63, $63, $63, $63, $63, $6b, $7b
03d14     3E 30 70 00 
03d18     00 00 00 3F 
03d1c     66 66 66 3E 
03d20     36 66 66 66 | 	byte	$3e, $30, $70, $00, $00, $00, $00, $3f, $66, $66, $66, $3e, $36, $66, $66, $66
03d24     67 00 00 00 
03d28     00 00 00 3E 
03d2c     63 63 06 1C 
03d30     30 60 63 63 | 	byte	$67, $00, $00, $00, $00, $00, $00, $3e, $63, $63, $06, $1c, $30, $60, $63, $63
03d34     3E 00 00 00 
03d38     00 00 00 7E 
03d3c     7E 5A 18 18 
03d40     18 18 18 18 | 	byte	$3e, $00, $00, $00, $00, $00, $00, $7e, $7e, $5a, $18, $18, $18, $18, $18, $18
03d44     3C 00 00 00 
03d48     00 00 00 63 
03d4c     63 63 63 63 
03d50     63 63 63 63 | 	byte	$3c, $00, $00, $00, $00, $00, $00, $63, $63, $63, $63, $63, $63, $63, $63, $63
03d54     3E 00 00 00 
03d58     00 00 00 63 
03d5c     63 63 63 63 
03d60     63 63 36 1C | 	byte	$3e, $00, $00, $00, $00, $00, $00, $63, $63, $63, $63, $63, $63, $63, $36, $1c
03d64     08 00 00 00 
03d68     00 00 00 63 
03d6c     63 63 63 6B 
03d70     6B 6B 7F 77 | 	byte	$08, $00, $00, $00, $00, $00, $00, $63, $63, $63, $63, $6b, $6b, $6b, $7f, $77
03d74     36 00 00 00 
03d78     00 00 00 63 
03d7c     63 36 3E 1C 
03d80     1C 3E 36 63 | 	byte	$36, $00, $00, $00, $00, $00, $00, $63, $63, $36, $3e, $1c, $1c, $3e, $36, $63
03d84     63 00 00 00 
03d88     00 00 00 66 
03d8c     66 66 66 3C 
03d90     18 18 18 18 | 	byte	$63, $00, $00, $00, $00, $00, $00, $66, $66, $66, $66, $3c, $18, $18, $18, $18
03d94     3C 00 00 00 
03d98     00 00 00 7F 
03d9c     63 61 30 18 
03da0     0C 06 43 63 | 	byte	$3c, $00, $00, $00, $00, $00, $00, $7f, $63, $61, $30, $18, $0c, $06, $43, $63
03da4     7F 00 00 00 
03da8     00 00 00 3C 
03dac     0C 0C 0C 0C 
03db0     0C 0C 0C 0C | 	byte	$7f, $00, $00, $00, $00, $00, $00, $3c, $0c, $0c, $0c, $0c, $0c, $0c, $0c, $0c
03db4     3C 00 00 00 
03db8     00 00 00 00 
03dbc     01 03 07 0E 
03dc0     1C 38 70 60 | 	byte	$3c, $00, $00, $00, $00, $00, $00, $00, $01, $03, $07, $0e, $1c, $38, $70, $60
03dc4     40 00 00 00 
03dc8     00 00 00 3C 
03dcc     30 30 30 30 
03dd0     30 30 30 30 | 	byte	$40, $00, $00, $00, $00, $00, $00, $3c, $30, $30, $30, $30, $30, $30, $30, $30
03dd4     3C 00 00 00 
03dd8     1C 36 00 00 
03ddc     00 00 00 00 
03de0     00 00 00 00 | 	byte	$3c, $00, $00, $00, $1c, $36, $00, $00, $00, $00, $00, $00, $00, $00, $00, $00
03de4     00 00 00 00 
03de8     00 00 00 00 
03dec     00 00 00 00 
03df0     00 00 00 00 
03df4     00          | 	byte	$00[17]
03df5     FF 00 00 0C 
03df9     18 00 00 00 
03dfd     00 00 00 00 
03e01     00 00 00 00 | 	byte	$ff, $00, $00, $0c, $18, $00, $00, $00, $00, $00, $00, $00, $00, $00, $00, $00
03e05     00 00 00 00 
03e09     00 00 00 00 
03e0d     00          | 	byte	$00[9]
03e0e     1E 30 3E 33 
03e12     33 33 6E 00 
03e16     00 00 00 00 
03e1a     00 07 06 06 | 	byte	$1e, $30, $3e, $33, $33, $33, $6e, $00, $00, $00, $00, $00, $00, $07, $06, $06
03e1e     1E 36 66 66 
03e22     66 66 3E 00 
03e26     00 00 00 00 
03e2a     00 00 00 00 | 	byte	$1e, $36, $66, $66, $66, $66, $3e, $00, $00, $00, $00, $00, $00, $00, $00, $00
03e2e     3E 63 03 03 
03e32     03 63 3E 00 
03e36     00 00 00 00 
03e3a     00 38 30 30 | 	byte	$3e, $63, $03, $03, $03, $63, $3e, $00, $00, $00, $00, $00, $00, $38, $30, $30
03e3e     3C 36 33 33 
03e42     33 33 6E 00 
03e46     00 00 00 00 
03e4a     00 00 00 00 | 	byte	$3c, $36, $33, $33, $33, $33, $6e, $00, $00, $00, $00, $00, $00, $00, $00, $00
03e4e     3E 63 7F 03 
03e52     03 63 3E 00 
03e56     00 00 00 00 
03e5a     00 38 6C 4C | 	byte	$3e, $63, $7f, $03, $03, $63, $3e, $00, $00, $00, $00, $00, $00, $38, $6c, $4c
03e5e     0C 1E 0C 0C 
03e62     0C 0C 1E 00 
03e66     00 00 00 00 
03e6a     00 00 00 00 | 	byte	$0c, $1e, $0c, $0c, $0c, $0c, $1e, $00, $00, $00, $00, $00, $00, $00, $00, $00
03e6e     6E 33 33 33 
03e72     33 33 3E 30 
03e76     33 1E 00 00 
03e7a     00 07 06 06 | 	byte	$6e, $33, $33, $33, $33, $33, $3e, $30, $33, $1e, $00, $00, $00, $07, $06, $06
03e7e     36 6E 66 66 
03e82     66 66 67 00 
03e86     00 00 00 00 
03e8a     00 18 18 00 | 	byte	$36, $6e, $66, $66, $66, $66, $67, $00, $00, $00, $00, $00, $00, $18, $18, $00
03e8e     1C 18 18 18 
03e92     18 18 3C 00 
03e96     00 00 00 00 
03e9a     00 60 60 00 | 	byte	$1c, $18, $18, $18, $18, $18, $3c, $00, $00, $00, $00, $00, $00, $60, $60, $00
03e9e     70 60 60 60 
03ea2     60 60 60 66 
03ea6     66 3C 00 00 
03eaa     00 07 06 06 | 	byte	$70, $60, $60, $60, $60, $60, $60, $66, $66, $3c, $00, $00, $00, $07, $06, $06
03eae     66 36 1E 1E 
03eb2     36 66 67 00 
03eb6     00 00 00 00 
03eba     00 1C 18 18 | 	byte	$66, $36, $1e, $1e, $36, $66, $67, $00, $00, $00, $00, $00, $00, $1c, $18, $18
03ebe     18 18 18 18 
03ec2     18 18       | 	byte	$18[6]
03ec4     3C 00 00 00 
03ec8     00 00 00 00 
03ecc     00 00 37 7F 
03ed0     6B 6B 6B 6B | 	byte	$3c, $00, $00, $00, $00, $00, $00, $00, $00, $00, $37, $7f, $6b, $6b, $6b, $6b
03ed4     63 00 00 00 
03ed8     00 00 00 00 
03edc     00 00 3B 66 
03ee0     66 66 66 66 | 	byte	$63, $00, $00, $00, $00, $00, $00, $00, $00, $00, $3b, $66, $66, $66, $66, $66
03ee4     66 00 00 00 
03ee8     00 00 00 00 
03eec     00 00 3E 63 
03ef0     63 63 63 63 | 	byte	$66, $00, $00, $00, $00, $00, $00, $00, $00, $00, $3e, $63, $63, $63, $63, $63
03ef4     3E 00 00 00 
03ef8     00 00 00 00 
03efc     00 00 3B 66 
03f00     66 66 66 66 | 	byte	$3e, $00, $00, $00, $00, $00, $00, $00, $00, $00, $3b, $66, $66, $66, $66, $66
03f04     3E 06 06 0F 
03f08     00 00 00 00 
03f0c     00 00 6E 33 
03f10     33 33 33 33 | 	byte	$3e, $06, $06, $0f, $00, $00, $00, $00, $00, $00, $6e, $33, $33, $33, $33, $33
03f14     3E 30 30 78 
03f18     00 00 00 00 
03f1c     00 00 3B 6E 
03f20     66 06 06 06 | 	byte	$3e, $30, $30, $78, $00, $00, $00, $00, $00, $00, $3b, $6e, $66, $06, $06, $06
03f24     0F 00 00 00 
03f28     00 00 00 00 
03f2c     00 00 3E 63 
03f30     06 1C 30 63 | 	byte	$0f, $00, $00, $00, $00, $00, $00, $00, $00, $00, $3e, $63, $06, $1c, $30, $63
03f34     3E 00 00 00 
03f38     00 00 00 08 
03f3c     0C 0C 3F 0C 
03f40     0C 0C 0C 6C | 	byte	$3e, $00, $00, $00, $00, $00, $00, $08, $0c, $0c, $3f, $0c, $0c, $0c, $0c, $6c
03f44     38 00 00 00 
03f48     00 00 00 00 
03f4c     00 00 33 33 
03f50     33 33 33 33 | 	byte	$38, $00, $00, $00, $00, $00, $00, $00, $00, $00, $33, $33, $33, $33, $33, $33
03f54     6E 00 00 00 
03f58     00 00 00 00 
03f5c     00 00 63 63 
03f60     63 63 63 36 | 	byte	$6e, $00, $00, $00, $00, $00, $00, $00, $00, $00, $63, $63, $63, $63, $63, $36
03f64     1C 00 00 00 
03f68     00 00 00 00 
03f6c     00 00 63 63 
03f70     6B 6B 6B 7F | 	byte	$1c, $00, $00, $00, $00, $00, $00, $00, $00, $00, $63, $63, $6b, $6b, $6b, $7f
03f74     36 00 00 00 
03f78     00 00 00 00 
03f7c     00 00 63 36 
03f80     1C 1C 1C 36 | 	byte	$36, $00, $00, $00, $00, $00, $00, $00, $00, $00, $63, $36, $1c, $1c, $1c, $36
03f84     63 00 00 00 
03f88     00 00 00 00 
03f8c     00 00 63 63 
03f90     63 63 63 63 | 	byte	$63, $00, $00, $00, $00, $00, $00, $00, $00, $00, $63, $63, $63, $63, $63, $63
03f94     7E 60 30 1F 
03f98     00 00 00 00 
03f9c     00 00 7F 33 
03fa0     18 0C 06 63 | 	byte	$7e, $60, $30, $1f, $00, $00, $00, $00, $00, $00, $7f, $33, $18, $0c, $06, $63
03fa4     7F 00 00 00 
03fa8     00 00 00 70 
03fac     18 18 18 0E 
03fb0     18 18 18 18 | 	byte	$7f, $00, $00, $00, $00, $00, $00, $70, $18, $18, $18, $0e, $18, $18, $18, $18
03fb4     70 00 00 00 
03fb8     00 00 00 18 
03fbc     18 18 18 18 
03fc0     18 18 18 18 | 	byte	$70, $00, $00, $00, $00, $00, $00, $18, $18, $18, $18, $18, $18, $18, $18, $18
03fc4     18 00 00 00 
03fc8     00 00 00 0E 
03fcc     18 18 18 70 
03fd0     18 18 18 18 | 	byte	$18, $00, $00, $00, $00, $00, $00, $0e, $18, $18, $18, $70, $18, $18, $18, $18
03fd4     0E 00 00 00 
03fd8     6E 3B 00 00 
03fdc     00 00 00 00 
03fe0     00 00 00 00 | 	byte	$0e, $00, $00, $00, $6e, $3b, $00, $00, $00, $00, $00, $00, $00, $00, $00, $00
03fe4     00 00 00 00 
03fe8     00 00 00 00 
03fec     00 00       | 	byte	$00[10]
03fee     08 1C 36 63 
03ff2     63 63 7F 00 
03ff6     00 00 00 00 
03ffa     00 3C 66 43 | 	byte	$08, $1c, $36, $63, $63, $63, $7f, $00, $00, $00, $00, $00, $00, $3c, $66, $43
03ffe     03 03 03 03 
04002     43 66 3C 18 
04006     30 1E 00 00 
0400a     00 00 33 00 | 	byte	$03, $03, $03, $03, $43, $66, $3c, $18, $30, $1e, $00, $00, $00, $00, $33, $00
0400e     33 33 33 33 
04012     33 33       | 	byte	$33[6]
04014     6E 00 00 00 
04018     00 00 60 30 
0401c     18 00 3E 63 
04020     7F 03 03 63 | 	byte	$6e, $00, $00, $00, $00, $00, $60, $30, $18, $00, $3e, $63, $7f, $03, $03, $63
04024     3E 00 00 00 
04028     00 00 08 1C 
0402c     36 00 1E 30 
04030     3E 33 33 33 | 	byte	$3e, $00, $00, $00, $00, $00, $08, $1c, $36, $00, $1e, $30, $3e, $33, $33, $33
04034     6E 00 00 00 
04038     00 00 00 00 
0403c     33 00 1E 30 
04040     3E 33 33 33 | 	byte	$6e, $00, $00, $00, $00, $00, $00, $00, $33, $00, $1e, $30, $3e, $33, $33, $33
04044     6E 00 00 00 
04048     00 00 1C 36 
0404c     1C 00 33 33 
04050     33 33 33 33 | 	byte	$6e, $00, $00, $00, $00, $00, $1c, $36, $1c, $00, $33, $33, $33, $33, $33, $33
04054     6E 00 00 00 
04058     00 00 60 30 
0405c     18 00 3E 63 
04060     03 03 03 63 | 	byte	$6e, $00, $00, $00, $00, $00, $60, $30, $18, $00, $3e, $63, $03, $03, $03, $63
04064     3E 00 00 00 
04068     00 00 00 00 
0406c     00 00 3E 63 
04070     03 03 03 63 | 	byte	$3e, $00, $00, $00, $00, $00, $00, $00, $00, $00, $3e, $63, $03, $03, $03, $63
04074     3E 18 30 1E 
04078     00 00 00 1C 
0407c     58 78 38 18 
04080     1C 1E 1A 18 | 	byte	$3e, $18, $30, $1e, $00, $00, $00, $1c, $58, $78, $38, $18, $1c, $1e, $1a, $18
04084     3C 00 00 00 
04088     00 00 00 00 
0408c     63 00 3E 63 
04090     7F 03 03 63 | 	byte	$3c, $00, $00, $00, $00, $00, $00, $00, $63, $00, $3e, $63, $7f, $03, $03, $63
04094     3E 00 00 00 
04098     66 33 00 3E 
0409c     63 63 63 63 
040a0     63 63 63 63 | 	byte	$3e, $00, $00, $00, $66, $33, $00, $3e, $63, $63, $63, $63, $63, $63, $63, $63
040a4     3E 00 00 00 
040a8     00 00 CC 66 
040ac     33 00 3E 63 
040b0     63 63 63 63 | 	byte	$3e, $00, $00, $00, $00, $00, $cc, $66, $33, $00, $3e, $63, $63, $63, $63, $63
040b4     3E 00 00 00 
040b8     00 00 18 3C 
040bc     66 00 1C 18 
040c0     18 18 18 18 | 	byte	$3e, $00, $00, $00, $00, $00, $18, $3c, $66, $00, $1c, $18, $18, $18, $18, $18
040c4     3C 00 00 00 
040c8     30 18 00 7F 
040cc     63 61 30 18 
040d0     0C 06 43 63 | 	byte	$3c, $00, $00, $00, $30, $18, $00, $7f, $63, $61, $30, $18, $0c, $06, $43, $63
040d4     7F 00 00 00 
040d8     00 63 00 08 
040dc     1C 36 63 63 
040e0     7F 63 63 63 | 	byte	$7f, $00, $00, $00, $00, $63, $00, $08, $1c, $36, $63, $63, $7f, $63, $63, $63
040e4     63 00 00 00 
040e8     30 18 00 3C 
040ec     66 43 03 03 
040f0     03 03 43 66 | 	byte	$63, $00, $00, $00, $30, $18, $00, $3c, $66, $43, $03, $03, $03, $03, $43, $66
040f4     3C 00 00 00 
040f8     30 18 00 7F 
040fc     66 46 16 1E 
04100     16 06 46 66 | 	byte	$3c, $00, $00, $00, $30, $18, $00, $7f, $66, $46, $16, $1e, $16, $06, $46, $66
04104     7F 00 00 00 
04108     0C 06 00 0F 
0410c     06 06 06 06 
04110     06 06 46 66 | 	byte	$7f, $00, $00, $00, $0c, $06, $00, $0f, $06, $06, $06, $06, $06, $06, $46, $66
04114     7F 00 00 00 
04118     30 18 00 1C 
0411c     18 18 18 18 
04120     18 18 18 18 | 	byte	$7f, $00, $00, $00, $30, $18, $00, $1c, $18, $18, $18, $18, $18, $18, $18, $18
04124     3C 00 00 00 
04128     00 00 08 1C 
0412c     36 00 3E 63 
04130     63 63 63 63 | 	byte	$3c, $00, $00, $00, $00, $00, $08, $1c, $36, $00, $3e, $63, $63, $63, $63, $63
04134     3E 00 00 00 
04138     00 00 00 00 
0413c     63 00 3E 63 
04140     63 63 63 63 | 	byte	$3e, $00, $00, $00, $00, $00, $00, $00, $63, $00, $3e, $63, $63, $63, $63, $63
04144     3E 00 00 00 
04148     00 00 00 6F 
0414c     46 26 06 06 
04150     06 06 46 66 | 	byte	$3e, $00, $00, $00, $00, $00, $00, $6f, $46, $26, $06, $06, $06, $06, $46, $66
04154     7F 00 00 00 
04158     00 00 00 6E 
0415c     4C 2C 0C 0C 
04160     0C 0C 0C 0C | 	byte	$7f, $00, $00, $00, $00, $00, $00, $6e, $4c, $2c, $0c, $0c, $0c, $0c, $0c, $0c
04164     1E 00 00 00 
04168     30 18 00 3E 
0416c     63 63 06 1C 
04170     30 60 63 63 | 	byte	$1e, $00, $00, $00, $30, $18, $00, $3e, $63, $63, $06, $1c, $30, $60, $63, $63
04174     3E 00 00 00 
04178     00 00 60 30 
0417c     18 00 3E 63 
04180     06 1C 30 63 | 	byte	$3e, $00, $00, $00, $00, $00, $60, $30, $18, $00, $3e, $63, $06, $1c, $30, $63
04184     3E 00 00 00 
04188     00 63 00 3E 
0418c     63 63 63 63 
04190     63 63 63 63 | 	byte	$3e, $00, $00, $00, $00, $63, $00, $3e, $63, $63, $63, $63, $63, $63, $63, $63
04194     3E 00 00 00 
04198     00 63 00 63 
0419c     63 63 63 63 
041a0     63 63 63 63 | 	byte	$3e, $00, $00, $00, $00, $63, $00, $63, $63, $63, $63, $63, $63, $63, $63, $63
041a4     3E 00 00 00 
041a8     6C 38 00 7E 
041ac     7E 5A 18 18 
041b0     18 18 18 18 | 	byte	$3e, $00, $00, $00, $6c, $38, $00, $7e, $7e, $5a, $18, $18, $18, $18, $18, $18
041b4     3C 00 00 00 
041b8     00 00 60 48 
041bc     2C 0C 3F 0C 
041c0     0C 0C 0C 6C | 	byte	$3c, $00, $00, $00, $00, $00, $60, $48, $2c, $0c, $3f, $0c, $0c, $0c, $0c, $6c
041c4     38 00 00 00 
041c8     00 00 00 0F 
041cc     26 36 1E 0E 
041d0     07 07 46 66 | 	byte	$38, $00, $00, $00, $00, $00, $00, $0f, $26, $36, $1e, $0e, $07, $07, $46, $66
041d4     7F 00 00 00 
041d8     00 00 00 00 
041dc     00 63 36 1C 
041e0     1C 36 63 00 | 	byte	$7f, $00, $00, $00, $00, $00, $00, $00, $00, $63, $36, $1c, $1c, $36, $63, $00
041e4     00 00 00 00 
041e8     00 00       | 	byte	$00[6]
041ea     36 1C 08 00 
041ee     3E 63 03 03 
041f2     03 63 3E 00 
041f6     00 00 00 00 | 	byte	$36, $1c, $08, $00, $3e, $63, $03, $03, $03, $63, $3e, $00, $00, $00, $00, $00
041fa     30 18 0C 00 
041fe     1E 30 3E 33 
04202     33 33 6E 00 
04206     00 00 00 00 | 	byte	$30, $18, $0c, $00, $1e, $30, $3e, $33, $33, $33, $6e, $00, $00, $00, $00, $00
0420a     60 30 18 00 
0420e     1C 18 18 18 
04212     18 18 3C 00 
04216     00 00 00 00 | 	byte	$60, $30, $18, $00, $1c, $18, $18, $18, $18, $18, $3c, $00, $00, $00, $00, $00
0421a     60 30 18 00 
0421e     3E 63 63 63 
04222     63 63 3E 00 
04226     00 00 00 00 | 	byte	$60, $30, $18, $00, $3e, $63, $63, $63, $63, $63, $3e, $00, $00, $00, $00, $00
0422a     30 18 0C 00 
0422e     33 33 33 33 
04232     33 33 6E 00 
04236     00 00 00 00 | 	byte	$30, $18, $0c, $00, $33, $33, $33, $33, $33, $33, $6e, $00, $00, $00, $00, $00
0423a     00 08 1C 36 
0423e     63 63 7F 63 
04242     63 63 63 18 
04246     0C 78 00 00 | 	byte	$00, $08, $1c, $36, $63, $63, $7f, $63, $63, $63, $63, $18, $0c, $78, $00, $00
0424a     00 00 00 00 
0424e     1E 30 3E 33 
04252     33 33 6E 18 
04256     0C 78 36 1C | 	byte	$00, $00, $00, $00, $1e, $30, $3e, $33, $33, $33, $6e, $18, $0c, $78, $36, $1c
0425a     00 7F 63 61 
0425e     30 18 0C 06 
04262     43 63 7F 00 
04266     00 00 00 00 | 	byte	$00, $7f, $63, $61, $30, $18, $0c, $06, $43, $63, $7f, $00, $00, $00, $00, $00
0426a     36 1C 08 00 
0426e     7F 33 18 0C 
04272     06 63 7F 00 
04276     00 00 00 00 | 	byte	$36, $1c, $08, $00, $7f, $33, $18, $0c, $06, $63, $7f, $00, $00, $00, $00, $00
0427a     00 7F 66 46 
0427e     16 1E 16 06 
04282     46 66 7F 18 
04286     0C 78 00 00 | 	byte	$00, $7f, $66, $46, $16, $1e, $16, $06, $46, $66, $7f, $18, $0c, $78, $00, $00
0428a     00 00 00 00 
0428e     3E 63 7F 03 
04292     03 63 3E 18 
04296     0C 78 00 00 | 	byte	$00, $00, $00, $00, $3e, $63, $7f, $03, $03, $63, $3e, $18, $0c, $78, $00, $00
0429a     00 3C 66 03 
0429e     1F 03 0F 03 
042a2     03 66 3C 00 
042a6     00 00 00 00 | 	byte	$00, $3c, $66, $03, $1f, $03, $0f, $03, $03, $66, $3c, $00, $00, $00, $00, $00
042aa     60 30 18 00 
042ae     7F 33 18 0C 
042b2     06 63 7F 00 
042b6     00 00 6C 38 | 	byte	$60, $30, $18, $00, $7f, $33, $18, $0c, $06, $63, $7f, $00, $00, $00, $6c, $38
042ba     00 3C 66 43 
042be     03 03 03 03 
042c2     43 66 3C 00 
042c6     00 00 00 00 | 	byte	$00, $3c, $66, $43, $03, $03, $03, $03, $43, $66, $3c, $00, $00, $00, $00, $00
042ca     00 00 00 00 
042ce     3E 63 06 1C 
042d2     30 63 3E 18 
042d6     30 1E 00 00 | 	byte	$00, $00, $00, $00, $3e, $63, $06, $1c, $30, $63, $3e, $18, $30, $1e, $00, $00
042da     00 00 00 00 
042de     00 00       | 	byte	$00[6]
042e0     6C 36 1B 36 
042e4     6C 00 00 00 
042e8     00 00 00 00 
042ec     00 00 00 00 | 	byte	$6c, $36, $1b, $36, $6c, $00, $00, $00, $00, $00, $00, $00, $00, $00, $00, $00
042f0     1B 36 6C 36 
042f4     1B 00 00 00 
042f8     88 22 88 22 
042fc     88 22 88 22 | 	byte	$1b, $36, $6c, $36, $1b, $00, $00, $00, $88, $22, $88, $22, $88, $22, $88, $22
04300     88 22 88 22 
04304     88 22 88 22 
04308     AA 55 AA 55 
0430c     AA 55 AA 55 | 	byte	$88, $22, $88, $22, $88, $22, $88, $22, $aa, $55, $aa, $55, $aa, $55, $aa, $55
04310     AA 55 AA 55 
04314     AA 55 AA 55 
04318     BB EE BB EE 
0431c     BB EE BB EE | 	byte	$aa, $55, $aa, $55, $aa, $55, $aa, $55, $bb, $ee, $bb, $ee, $bb, $ee, $bb, $ee
04320     BB EE BB EE 
04324     BB EE BB EE 
04328     18 18 18 18 
0432c     18 18 18 18 | 	byte	$bb, $ee, $bb, $ee, $bb, $ee, $bb, $ee, $18, $18, $18, $18, $18, $18, $18, $18
04330     18 18 18 18 
04334     18 18 18 18 
04338     18 18 18 18 
0433c     18 18 18    | 	byte	$18[15]
0433f     1F 18 18 18 
04343     18 18 18 18 
04347     18 30 18 00 
0434b     08 1C 36 63 | 	byte	$1f, $18, $18, $18, $18, $18, $18, $18, $18, $30, $18, $00, $08, $1c, $36, $63
0434f     63 7F 63 63 
04353     63 63 00 00 
04357     00 1C 36 00 
0435b     08 1C 36 63 | 	byte	$63, $7f, $63, $63, $63, $63, $00, $00, $00, $1c, $36, $00, $08, $1c, $36, $63
0435f     63 7F 63 63 
04363     63 63 00 00 
04367     00 36 1C 00 
0436b     7F 66 46 16 | 	byte	$63, $7f, $63, $63, $63, $63, $00, $00, $00, $36, $1c, $00, $7f, $66, $46, $16
0436f     1E 16 06 46 
04373     66 7F 00 00 
04377     00 00 00 00 
0437b     3E 63 63 06 | 	byte	$1e, $16, $06, $46, $66, $7f, $00, $00, $00, $00, $00, $00, $3e, $63, $63, $06
0437f     1C 30 60 63 
04383     63 3E 18 30 
04387     1E 6C 6C 6C 
0438b     6C 6C 6F 60 | 	byte	$1c, $30, $60, $63, $63, $3e, $18, $30, $1e, $6c, $6c, $6c, $6c, $6c, $6f, $60
0438f     6F 6C 6C 6C 
04393     6C 6C 6C 6C 
04397     6C 6C 6C 6C 
0439b     6C 6C 6C 6C | 	byte	$6f, $6c, $6c, $6c, $6c, $6c, $6c, $6c, $6c, $6c, $6c, $6c, $6c, $6c, $6c, $6c
0439f     6C 6C 6C 6C 
043a3     6C 6C 6C 6C 
043a7     6C          | 	byte	$6c[9]
043a8     00 00 00 00 
043ac     00          | 	byte	$00[5]
043ad     7F 60 6F 6C 
043b1     6C 6C 6C 6C 
043b5     6C 6C 6C 6C 
043b9     6C 6C 6C 6C | 	byte	$7f, $60, $6f, $6c, $6c, $6c, $6c, $6c, $6c, $6c, $6c, $6c, $6c, $6c, $6c, $6c
043bd     6F 60 7F 00 
043c1     00 00 00 00 
043c5     00 00 00 18 
043c9     18 00 7F 63 | 	byte	$6f, $60, $7f, $00, $00, $00, $00, $00, $00, $00, $00, $18, $18, $00, $7f, $63
043cd     61 30 18 0C 
043d1     06 43 63 7F 
043d5     00 00 00 00 
043d9     00 00 18 18 | 	byte	$61, $30, $18, $0c, $06, $43, $63, $7f, $00, $00, $00, $00, $00, $00, $18, $18
043dd     00 7F 33 18 
043e1     0C 06 63 7F 
043e5     00 00 00 00 
043e9     00 00 00 00 | 	byte	$00, $7f, $33, $18, $0c, $06, $63, $7f, $00, $00, $00, $00, $00, $00, $00, $00
043ed     00 00 1F 18 
043f1     18 18 18 18 
043f5     18 18 18 18 
043f9     18 18 18 18 | 	byte	$00, $00, $1f, $18, $18, $18, $18, $18, $18, $18, $18, $18, $18, $18, $18, $18
043fd     18 18 F8 00 
04401     00 00 00 00 
04405     00 00 00 18 
04409     18 18 18 18 | 	byte	$18, $18, $f8, $00, $00, $00, $00, $00, $00, $00, $00, $18, $18, $18, $18, $18
0440d     18 18 FF 00 
04411     00 00 00 00 
04415     00 00 00 00 
04419     00 00 00 00 | 	byte	$18, $18, $ff, $00, $00, $00, $00, $00, $00, $00, $00, $00, $00, $00, $00, $00
0441d     00 00 FF 18 
04421     18 18 18 18 
04425     18 18 18 18 
04429     18 18 18 18 | 	byte	$00, $00, $ff, $18, $18, $18, $18, $18, $18, $18, $18, $18, $18, $18, $18, $18
0442d     18 18 F8 18 
04431     18 18 18 18 
04435     18 18 18 00 
04439     00 00 00 00 | 	byte	$18, $18, $f8, $18, $18, $18, $18, $18, $18, $18, $18, $00, $00, $00, $00, $00
0443d     00 00 FF 00 
04441     00 00 00 00 
04445     00 00 00 18 
04449     18 18 18 18 | 	byte	$00, $00, $ff, $00, $00, $00, $00, $00, $00, $00, $00, $18, $18, $18, $18, $18
0444d     18 18 FF 18 
04451     18 18 18 18 
04455     18 18 18 63 
04459     3E 00 08 1C | 	byte	$18, $18, $ff, $18, $18, $18, $18, $18, $18, $18, $18, $63, $3e, $00, $08, $1c
0445d     36 63 63 7F 
04461     63 63 63 63 
04465     00 00 00 00 
04469     00 00 63 3E | 	byte	$36, $63, $63, $7f, $63, $63, $63, $63, $00, $00, $00, $00, $00, $00, $63, $3e
0446d     00 1E 30 3E 
04471     33 33 33 6E 
04475     00 00 00 6C 
04479     6C 6C 6C 6C | 	byte	$00, $1e, $30, $3e, $33, $33, $33, $6e, $00, $00, $00, $6c, $6c, $6c, $6c, $6c
0447d     EC 0C FC 00 
04481     00 00 00 00 
04485     00 00 00 00 
04489     00 00 00 00 | 	byte	$ec, $0c, $fc, $00, $00, $00, $00, $00, $00, $00, $00, $00, $00, $00, $00, $00
0448d     FC 0C EC 6C 
04491     6C 6C 6C 6C 
04495     6C 6C 6C 6C 
04499     6C 6C 6C 6C | 	byte	$fc, $0c, $ec, $6c, $6c, $6c, $6c, $6c, $6c, $6c, $6c, $6c, $6c, $6c, $6c, $6c
0449d     EF 00 FF 00 
044a1     00 00 00 00 
044a5     00 00 00 00 
044a9     00 00 00 00 | 	byte	$ef, $00, $ff, $00, $00, $00, $00, $00, $00, $00, $00, $00, $00, $00, $00, $00
044ad     FF 00 EF 6C 
044b1     6C 6C 6C 6C 
044b5     6C 6C 6C 6C 
044b9     6C 6C 6C 6C | 	byte	$ff, $00, $ef, $6c, $6c, $6c, $6c, $6c, $6c, $6c, $6c, $6c, $6c, $6c, $6c, $6c
044bd     EC 0C EC 6C 
044c1     6C 6C 6C 6C 
044c5     6C 6C 6C 00 
044c9     00 00 00 00 | 	byte	$ec, $0c, $ec, $6c, $6c, $6c, $6c, $6c, $6c, $6c, $6c, $00, $00, $00, $00, $00
044cd     FF 00 FF 00 
044d1     00 00 00 00 
044d5     00 00 00 6C 
044d9     6C 6C 6C 6C | 	byte	$ff, $00, $ff, $00, $00, $00, $00, $00, $00, $00, $00, $6c, $6c, $6c, $6c, $6c
044dd     EF 00 EF 6C 
044e1     6C 6C 6C 6C 
044e5     6C 6C 6C 00 
044e9     00 00 00 00 | 	byte	$ef, $00, $ef, $6c, $6c, $6c, $6c, $6c, $6c, $6c, $6c, $00, $00, $00, $00, $00
044ed     63 3E 63 63 
044f1     63 63 3E 63 
044f5     00 00 00 00 
044f9     00 00 30 7E | 	byte	$63, $3e, $63, $63, $63, $63, $3e, $63, $00, $00, $00, $00, $00, $00, $30, $7e
044fd     30 3C 36 33 
04501     33 33 33 6E 
04505     00 00 00 00 
04509     00 00 1F 36 | 	byte	$30, $3c, $36, $33, $33, $33, $33, $6e, $00, $00, $00, $00, $00, $00, $1f, $36
0450d     66 66 6F 66 
04511     66 66 36 1F 
04515     00 00 00 36 
04519     1C 00 1F 36 | 	byte	$66, $66, $6f, $66, $66, $66, $36, $1f, $00, $00, $00, $36, $1c, $00, $1f, $36
0451d     66 66 66 66 
04521     66 66       | 	byte	$66[6]
04523     36 1F 00 00 
04527     00 00 63 00 
0452b     7F 66 46 16 
0452f     1E 16 06 46 | 	byte	$36, $1f, $00, $00, $00, $00, $63, $00, $7f, $66, $46, $16, $1e, $16, $06, $46
04533     66 7F 00 00 
04537     00 6C 38 00 
0453b     38 30 30 3C 
0453f     36 33 33 33 | 	byte	$66, $7f, $00, $00, $00, $6c, $38, $00, $38, $30, $30, $3c, $36, $33, $33, $33
04543     33 6E 00 00 
04547     00 36 1C 00 
0454b     63 67 6F 7F 
0454f     7B 73 63 63 | 	byte	$33, $6e, $00, $00, $00, $36, $1c, $00, $63, $67, $6f, $7f, $7b, $73, $63, $63
04553     63 63 00 00 
04557     00 30 18 00 
0455b     3C 18 18 18 
0455f     18 18 18 18 | 	byte	$63, $63, $00, $00, $00, $30, $18, $00, $3c, $18, $18, $18, $18, $18, $18, $18
04563     18 3C 00 00 
04567     00 3C 66 00 
0456b     3C 18 18 18 
0456f     18 18 18 18 | 	byte	$18, $3c, $00, $00, $00, $3c, $66, $00, $3c, $18, $18, $18, $18, $18, $18, $18
04573     18 3C 00 00 
04577     00 00 00 36 
0457b     1C 08 00 3E 
0457f     63 7F 03 03 | 	byte	$18, $3c, $00, $00, $00, $00, $00, $36, $1c, $08, $00, $3e, $63, $7f, $03, $03
04583     63 3E 00 00 
04587     00 18 18 18 
0458b     18 18 18 18 
0458f     1F 00 00 00 | 	byte	$63, $3e, $00, $00, $00, $18, $18, $18, $18, $18, $18, $18, $1f, $00, $00, $00
04593     00 00 00 00 
04597     00 00 00 00 
0459b     00 00 00 00 | 	byte	$00[12]
0459f     F8 18 18 18 
045a3     18 18 18 18 
045a7     18 FF FF FF 
045ab     FF FF FF FF | 	byte	$f8, $18, $18, $18, $18, $18, $18, $18, $18, $ff, $ff, $ff, $ff, $ff, $ff, $ff
045af     FF FF FF FF 
045b3     FF FF FF FF 
045b7     FF          | 	byte	$ff[9]
045b8     00 00 00 00 
045bc     00 00 00    | 	byte	$00[7]
045bf     FF FF FF FF 
045c3     FF FF FF FF 
045c7     FF          | 	byte	$ff[9]
045c8     00 00 00 7E 
045cc     7E 5A 18 18 
045d0     18 18 18 18 
045d4     3C 18 30 1E | 	byte	$00, $00, $00, $7e, $7e, $5a, $18, $18, $18, $18, $18, $18, $3c, $18, $30, $1e
045d8     1C 36 1C 63 
045dc     63 63 63 63 
045e0     63 63 63 63 
045e4     3E 00 00 00 | 	byte	$1c, $36, $1c, $63, $63, $63, $63, $63, $63, $63, $63, $63, $3e, $00, $00, $00
045e8     FF FF FF FF 
045ec     FF FF FF    | 	byte	$ff[7]
045ef     00 00 00 00 
045f3     00 00 00 00 
045f7     00          | 	byte	$00[9]
045f8     30 18 00 3E 
045fc     63 63 63 63 
04600     63 63 63 63 
04604     3E 00 00 00 | 	byte	$30, $18, $00, $3e, $63, $63, $63, $63, $63, $63, $63, $63, $3e, $00, $00, $00
04608     00 00 00 1E 
0460c     33 33 33 1B 
04610     33 63 63 63 
04614     33 00 00 00 | 	byte	$00, $00, $00, $1e, $33, $33, $33, $1b, $33, $63, $63, $63, $33, $00, $00, $00
04618     1C 36 00 3E 
0461c     63 63 63 63 
04620     63 63 63 63 
04624     3E 00 00 00 | 	byte	$1c, $36, $00, $3e, $63, $63, $63, $63, $63, $63, $63, $63, $3e, $00, $00, $00
04628     30 18 00 63 
0462c     67 6F 7F 7B 
04630     73 63 63 63 
04634     63 00 00 00 | 	byte	$30, $18, $00, $63, $67, $6f, $7f, $7b, $73, $63, $63, $63, $63, $00, $00, $00
04638     00 00 60 30 
0463c     18 00 3B 66 
04640     66 66 66 66 
04644     66 00 00 00 | 	byte	$00, $00, $60, $30, $18, $00, $3b, $66, $66, $66, $66, $66, $66, $00, $00, $00
04648     00 00 36 1C 
0464c     08 00 3B 66 
04650     66 66 66 66 
04654     66 00 00 00 | 	byte	$00, $00, $36, $1c, $08, $00, $3b, $66, $66, $66, $66, $66, $66, $00, $00, $00
04658     36 1C 00 3E 
0465c     63 63 06 1C 
04660     30 60 63 63 
04664     3E 00 00 00 | 	byte	$36, $1c, $00, $3e, $63, $63, $06, $1c, $30, $60, $63, $63, $3e, $00, $00, $00
04668     00 00 36 1C 
0466c     08 00 3E 63 
04670     06 1C 30 63 
04674     3E 00 00 00 | 	byte	$00, $00, $36, $1c, $08, $00, $3e, $63, $06, $1c, $30, $63, $3e, $00, $00, $00
04678     30 18 00 3F 
0467c     66 66 66 3E 
04680     36 66 66 66 
04684     6F 00 00 00 | 	byte	$30, $18, $00, $3f, $66, $66, $66, $3e, $36, $66, $66, $66, $6f, $00, $00, $00
04688     30 18 00 63 
0468c     63 63 63 63 
04690     63 63 63 63 
04694     3E 00 00 00 | 	byte	$30, $18, $00, $63, $63, $63, $63, $63, $63, $63, $63, $63, $3e, $00, $00, $00
04698     00 00 60 30 
0469c     18 00 3B 6E 
046a0     66 06 06 06 
046a4     0F 00 00 00 | 	byte	$00, $00, $60, $30, $18, $00, $3b, $6e, $66, $06, $06, $06, $0f, $00, $00, $00
046a8     66 33 00 63 
046ac     63 63 63 63 
046b0     63 63 63 63 
046b4     3E 00 00 00 | 	byte	$66, $33, $00, $63, $63, $63, $63, $63, $63, $63, $63, $63, $3e, $00, $00, $00
046b8     00 00 60 30 
046bc     18 00 63 63 
046c0     63 63 63 63 
046c4     7E 60 30 1F | 	byte	$00, $00, $60, $30, $18, $00, $63, $63, $63, $63, $63, $63, $7e, $60, $30, $1f
046c8     30 18 00 66 
046cc     66 66 66 3C 
046d0     18 18 18 18 
046d4     3C 00 00 00 | 	byte	$30, $18, $00, $66, $66, $66, $66, $3c, $18, $18, $18, $18, $3c, $00, $00, $00
046d8     00 00 00 08 
046dc     0C 0C 3F 0C 
046e0     0C 0C 0C 6C 
046e4     38 18 30 1E | 	byte	$00, $00, $00, $08, $0c, $0c, $3f, $0c, $0c, $0c, $0c, $6c, $38, $18, $30, $1e
046e8     30 18 00 00 
046ec     00 00 00 00 
046f0     00 00 00 00 
046f4     00 00 00 00 | 	byte	$30, $18, $00, $00, $00, $00, $00, $00, $00, $00, $00, $00, $00, $00, $00, $00
046f8     00 00 00 00 
046fc     00 00 00 00 | 	byte	$00[8]
04700     7F 00 00 00 
04704     00 00 00 00 
04708     66 33 00 00 
0470c     00 00 00 00 | 	byte	$7f, $00, $00, $00, $00, $00, $00, $00, $66, $33, $00, $00, $00, $00, $00, $00
04710     00 00 00 00 
04714     00 00 00 00 
04718     00 00 00 00 
0471c     00 00 00 00 
04720     00 00 00 00 
04724     00          | 	byte	$00[21]
04725     0C 06 3C 36 
04729     1C 00 00 00 
0472d     00 00 00 00 
04731     00 00 00 00 | 	byte	$0c, $06, $3c, $36, $1c, $00, $00, $00, $00, $00, $00, $00, $00, $00, $00, $00
04735     00 00 00 63 
04739     3E 00 00 00 
0473d     00 00 00 00 
04741     00 00 00 00 | 	byte	$00, $00, $00, $63, $3e, $00, $00, $00, $00, $00, $00, $00, $00, $00, $00, $00
04745     00 00 00 00 
04749     3E 63 06 1C 
0474d     36 63 63 36 
04751     1C 30 63 3E | 	byte	$00, $00, $00, $00, $3e, $63, $06, $1c, $36, $63, $63, $36, $1c, $30, $63, $3e
04755     00 00 00 00 
04759     00 00 00 00 | 	byte	$00[8]
0475d     18 00 7E 00 
04761     18 00 00 00 
04765     00 00 00 00 
04769     00 00 00 00 | 	byte	$18, $00, $7e, $00, $18, $00, $00, $00, $00, $00, $00, $00, $00, $00, $00, $00
0476d     00 00 00 00 
04771     00 00 00 00 | 	byte	$00[8]
04775     18 30 1E 00 
04779     00 00 1C 36 
0477d     36 1C 00 00 
04781     00 00 00 00 | 	byte	$18, $30, $1e, $00, $00, $00, $1c, $36, $36, $1c, $00, $00, $00, $00, $00, $00
04785     00 00 00 00 
04789     63 00 00 00 
0478d     00 00 00 00 
04791     00 00 00 00 | 	byte	$00, $00, $00, $00, $63, $00, $00, $00, $00, $00, $00, $00, $00, $00, $00, $00
04795     00 00 00 18 
04799     18 00 00 00 
0479d     00 00 00 00 
047a1     00 00 00 00 | 	byte	$00, $00, $00, $18, $18, $00, $00, $00, $00, $00, $00, $00, $00, $00, $00, $00
047a5     00 00 00 00 
047a9     00          | 	byte	$00[5]
047aa     CC 66 33 00 
047ae     33 33 33 33 
047b2     33 33 6E 00 
047b6     00 00 36 1C | 	byte	$cc, $66, $33, $00, $33, $33, $33, $33, $33, $33, $6e, $00, $00, $00, $36, $1c
047ba     00 3F 66 66 
047be     66 3E 36 66 
047c2     66 66 6F 00 
047c6     00 00 00 00 | 	byte	$00, $3f, $66, $66, $66, $3e, $36, $66, $66, $66, $6f, $00, $00, $00, $00, $00
047ca     36 1C 08 00 
047ce     3B 6E 66 06 
047d2     06 06 0F 00 
047d6     00 00 00 00 | 	byte	$36, $1c, $08, $00, $3b, $6e, $66, $06, $06, $06, $0f, $00, $00, $00, $00, $00
047da     00 00 00 7E 
047de     7E 7E 7E 7E 
047e2     7E 7E 00 00 
047e6     00 00 00 00 | 	byte	$00, $00, $00, $7e, $7e, $7e, $7e, $7e, $7e, $7e, $00, $00, $00, $00, $00, $00
047ea     00 00 00 00 
047ee     00 00 00 00 
047f2     00 00 00 00 
047f6     00 00       | 	byte	$00, $00, $00, $00, $00, $00, $00, $00, $00, $00, $00, $00, $00, $00
047f8     00 00 00 00 
      ...             
04828     00 00 00 00 
0482c     00 00 00    | st_font        file "st4font.def"
0482f     FF FF 00 00 
04833     00 00 00 00 
04837     00 18 18 18 
0483b     18 18 18 18 | 	byte	$ff, $ff, $00, $00, $00, $00, $00, $00, $00, $18, $18, $18, $18, $18, $18, $18
0483f     18 18 18 18 
04843     18 18 18 18 
04847     18          | 	byte	$18[9]
04848     00 00 00 00 
0484c     00 00 00    | 	byte	$00[7]
0484f     FF FF 18 18 
04853     18 18 18 18 
04857     18 18 18 18 
0485b     18 18 18 18 | 	byte	$ff, $ff, $18, $18, $18, $18, $18, $18, $18, $18, $18, $18, $18, $18, $18, $18
0485f     FF FF 00 00 
04863     00 00 00 00 
04867     00 18 18 18 
0486b     18 18 18 18 | 	byte	$ff, $ff, $00, $00, $00, $00, $00, $00, $00, $18, $18, $18, $18, $18, $18, $18
0486f     1F 1F 18 18 
04873     18 18 18 18 
04877     18 18 18 18 
0487b     18 18 18 18 | 	byte	$1f, $1f, $18, $18, $18, $18, $18, $18, $18, $18, $18, $18, $18, $18, $18, $18
0487f     F8 F8 18 18 
04883     18 18 18 18 
04887     18 00 00 00 
0488b     00 00 00 00 | 	byte	$f8, $f8, $18, $18, $18, $18, $18, $18, $18, $00, $00, $00, $00, $00, $00, $00
0488f     1F 1F 18 18 
04893     18 18 18 18 
04897     18 00 00 00 
0489b     00 00 00 00 | 	byte	$1f, $1f, $18, $18, $18, $18, $18, $18, $18, $00, $00, $00, $00, $00, $00, $00
0489f     F8 F8 18 18 
048a3     18 18 18 18 
048a7     18 18 18 18 
048ab     18 18 18 18 | 	byte	$f8, $f8, $18, $18, $18, $18, $18, $18, $18, $18, $18, $18, $18, $18, $18, $18
048af     1F 1F 00 00 
048b3     00 00 00 00 
048b7     00 18 18 18 
048bb     18 18 18 18 | 	byte	$1f, $1f, $00, $00, $00, $00, $00, $00, $00, $18, $18, $18, $18, $18, $18, $18
048bf     F8 F8 00 00 
048c3     00 00 00 00 
048c7     00 18 18 18 
048cb     18 18 18 18 | 	byte	$f8, $f8, $00, $00, $00, $00, $00, $00, $00, $18, $18, $18, $18, $18, $18, $18
048cf     FF FF 18 18 
048d3     18 18 18 18 
048d7     18 00 00 18 
048db     3C 7E 66 66 | 	byte	$ff, $ff, $18, $18, $18, $18, $18, $18, $18, $00, $00, $18, $3c, $7e, $66, $66
048df     66 7E 7E 66 
048e3     66 66 66 30 
048e7     18 00 00 7E 
048eb     7E 06 06 3E | 	byte	$66, $7e, $7e, $66, $66, $66, $66, $30, $18, $00, $00, $7e, $7e, $06, $06, $3e
048ef     3E 06 06 06 
048f3     06 7E 7E 18 
048f7     0C 30 18 3C 
048fb     7E 66 66 06 | 	byte	$3e, $06, $06, $06, $06, $7e, $7e, $18, $0c, $30, $18, $3c, $7e, $66, $66, $06
048ff     06 06 06 66 
04903     66 7E 3C 00 
04907     00 30 18 66 
0490b     66 66 6E 6E | 	byte	$06, $06, $06, $66, $66, $7e, $3c, $00, $00, $30, $18, $66, $66, $66, $6e, $6e
0490f     7E 7E 76 76 
04913     66 66 66 00 
04917     00 30 18 7C 
0491b     7E 06 06 0E | 	byte	$7e, $7e, $76, $76, $66, $66, $66, $00, $00, $30, $18, $7c, $7e, $06, $06, $0e
0491f     1C 38 70 60 
04923     60 7E 3E 00 
04927     00 30 18 7E 
0492b     7E 30 30 18 | 	byte	$1c, $38, $70, $60, $60, $7e, $3e, $00, $00, $30, $18, $7e, $7e, $30, $30, $18
0492f     18 0C 0C 06 
04933     06 7E 7E 00 
04937     00 18 18 00 
0493b     7E 7E 30 30 | 	byte	$18, $0c, $0c, $06, $06, $7e, $7e, $00, $00, $18, $18, $00, $7e, $7e, $30, $30
0493f     18 18 0C 0C 
04943     06 7E 7E 00 
04947     00 30 18 3C 
0494b     7E 66 66 66 | 	byte	$18, $18, $0c, $0c, $06, $7e, $7e, $00, $00, $30, $18, $3c, $7e, $66, $66, $66
0494f     66 66 66 66 
04953     66          | 	byte	$66[5]
04954     7E 3C 00 00 
04958     00 00 06 06 
0495c     06 06 16 1E 
04960     0E 06 06 06 | 	byte	$7e, $3c, $00, $00, $00, $00, $06, $06, $06, $06, $16, $1e, $0e, $06, $06, $06
04964     7E 7E 00 00 
04968     00 00 00 00 
0496c     00 3C 7C 60 
04970     7C 7E 66 66 | 	byte	$7e, $7e, $00, $00, $00, $00, $00, $00, $00, $3c, $7c, $60, $7c, $7e, $66, $66
04974     7E 7C 30 18 
04978     00 00 00 00 
0497c     00 3C 7E 66 
04980     66 7E 06 06 | 	byte	$7e, $7c, $30, $18, $00, $00, $00, $00, $00, $3c, $7e, $66, $66, $7e, $06, $06
04984     7E 7C 18 0C 
04988     00 00 30 18 
0498c     00 3C 3E 06 
04990     06 06 06 06 | 	byte	$7e, $7c, $18, $0c, $00, $00, $30, $18, $00, $3c, $3e, $06, $06, $06, $06, $06
04994     7E 7C 00 00 
04998     00 00 30 18 
0499c     00 3E 7E 66 
049a0     66 66 66 66 | 	byte	$7e, $7c, $00, $00, $00, $00, $30, $18, $00, $3e, $7e, $66, $66, $66, $66, $66
049a4     66 66 00 00 
049a8     00 00 30 18 
049ac     00 7C 7E 06 
049b0     0E 3C 70 60 | 	byte	$66, $66, $00, $00, $00, $00, $30, $18, $00, $7c, $7e, $06, $0e, $3c, $70, $60
049b4     7E 3E 00 00 
049b8     00 00 30 18 
049bc     00 7E 7E 30 
049c0     18 18 0C 0C | 	byte	$7e, $3e, $00, $00, $00, $00, $30, $18, $00, $7e, $7e, $30, $18, $18, $0c, $0c
049c4     7E 7E 00 00 
049c8     00 00 18 18 
049cc     00 7E 7E 30 
049d0     18 18 0C 0C | 	byte	$7e, $7e, $00, $00, $00, $00, $18, $18, $00, $7e, $7e, $30, $18, $18, $0c, $0c
049d4     7E 7E 00 00 
049d8     00 00 30 18 
049dc     00 3C 7E 66 
049e0     66 66 66 66 | 	byte	$7e, $7e, $00, $00, $00, $00, $30, $18, $00, $3c, $7e, $66, $66, $66, $66, $66
049e4     7E 3C 00 00 
049e8     00 00 1C 1C 
049ec     18 18 38 3C 
049f0     1C 18 18 18 | 	byte	$7e, $3c, $00, $00, $00, $00, $1c, $1c, $18, $18, $38, $3c, $1c, $18, $18, $18
049f4     3C 3C 00 00 
049f8     00 00 00 00 
049fc     00 00 00 00 
04a00     00 00 00 00 | 	byte	$3c, $3c, $00, $00, $00, $00, $00, $00, $00, $00, $00, $00, $00, $00, $00, $00
04a04     00 00 00 00 
04a08     00 00       | 	byte	$00[6]
04a0a     18 18 18 18 
04a0e     18 18 18 18 | 	byte	$18[8]
04a12     00 00 18 18 
04a16     00 00 00 00 
04a1a     66 66 66 66 
04a1e     00 00 00 00 | 	byte	$00, $00, $18, $18, $00, $00, $00, $00, $66, $66, $66, $66, $00, $00, $00, $00
04a22     00 00 00 00 
04a26     00 00 00 00 
04a2a     00          | 	byte	$00[9]
04a2b     66 66 FF FF 
04a2f     66 66 FF FF 
04a33     66 66 00 00 
04a37     00 00 18 18 | 	byte	$66, $66, $ff, $ff, $66, $66, $ff, $ff, $66, $66, $00, $00, $00, $00, $18, $18
04a3b     7C 7E 06 06 
04a3f     3E 7C 60 60 
04a43     7E 3E 18 18 
04a47     00 00 00 66 | 	byte	$7c, $7e, $06, $06, $3e, $7c, $60, $60, $7e, $3e, $18, $18, $00, $00, $00, $66
04a4b     66 30 30 18 
04a4f     18 0C 0C 66 
04a53     66 00 00 00 
04a57     00 00 3C 7E | 	byte	$66, $30, $30, $18, $18, $0c, $0c, $66, $66, $00, $00, $00, $00, $00, $3c, $7e
04a5b     66 66 3C 1C 
04a5f     1C FC FE 66 
04a63     66 FE FC 00 
04a67     00 00 00 18 | 	byte	$66, $66, $3c, $1c, $1c, $fc, $fe, $66, $66, $fe, $fc, $00, $00, $00, $00, $18
04a6b     18 18 18 18 
04a6f     00 00 00 00 
04a73     00 00 00 00 
04a77     00 00 00 30 | 	byte	$18, $18, $18, $18, $00, $00, $00, $00, $00, $00, $00, $00, $00, $00, $00, $30
04a7b     18 1C 0C 0C 
04a7f     0C 0C 0C 0C 
04a83     1C 18 30 00 
04a87     00 00 00 0C | 	byte	$18, $1c, $0c, $0c, $0c, $0c, $0c, $0c, $1c, $18, $30, $00, $00, $00, $00, $0c
04a8b     18 38 30 30 
04a8f     30 30 30 30 
04a93     38 18 0C 00 
04a97     00 00 00 00 | 	byte	$18, $38, $30, $30, $30, $30, $30, $30, $38, $18, $0c, $00, $00, $00, $00, $00
04a9b     66 66 3C 3C 
04a9f     FF FF 3C 3C 
04aa3     66 66 00 00 
04aa7     00 00 00 00 | 	byte	$66, $66, $3c, $3c, $ff, $ff, $3c, $3c, $66, $66, $00, $00, $00, $00, $00, $00
04aab     00 18 18 18 
04aaf     7E 7E 18 18 
04ab3     18 00 00 00 
04ab7     00 00 00 00 | 	byte	$00, $18, $18, $18, $7e, $7e, $18, $18, $18, $00, $00, $00, $00, $00, $00, $00
04abb     00 00 00 00 
04abf     00 00       | 	byte	$00[6]
04ac1     18 18 18 18 
04ac5     18          | 	byte	$18[5]
04ac6     0C 04 00 00 
04aca     00 00 00 00 
04ace     7E 7E 00 00 
04ad2     00 00 00 00 | 	byte	$0c, $04, $00, $00, $00, $00, $00, $00, $7e, $7e, $00, $00, $00, $00, $00, $00
04ad6     00 00 00 00 
04ada     00 00 00 00 
04ade     00 00 00 00 
04ae2     00          | 	byte	$00[13]
04ae3     18 18 18 00 
04ae7     00 00 00 60 
04aeb     60 60 30 30 
04aef     18 18 0C 0C | 	byte	$18, $18, $18, $00, $00, $00, $00, $60, $60, $60, $30, $30, $18, $18, $0c, $0c
04af3     06 06 06 00 
04af7     00 00 00 3C 
04afb     7E 66 66 66 
04aff     76 6E 66 66 | 	byte	$06, $06, $06, $00, $00, $00, $00, $3c, $7e, $66, $66, $66, $76, $6e, $66, $66
04b03     66 7E 3C 00 
04b07     00 00 00 18 
04b0b     18 1C 1C 18 
04b0f     18 18 18 18 | 	byte	$66, $7e, $3c, $00, $00, $00, $00, $18, $18, $1c, $1c, $18, $18, $18, $18, $18
04b13     18 7E 7E 00 
04b17     00 00 00 3C 
04b1b     7E 66 66 30 
04b1f     30 18 18 0C | 	byte	$18, $7e, $7e, $00, $00, $00, $00, $3c, $7e, $66, $66, $30, $30, $18, $18, $0c
04b23     0C 7E 7E 00 
04b27     00 00 00 7E 
04b2b     7E 30 30 18 
04b2f     18 30 30 66 | 	byte	$0c, $7e, $7e, $00, $00, $00, $00, $7e, $7e, $30, $30, $18, $18, $30, $30, $66
04b33     66 7E 3C 00 
04b37     00 00 00 30 
04b3b     30 38 38 3C 
04b3f     3C 36 36 7E | 	byte	$66, $7e, $3c, $00, $00, $00, $00, $30, $30, $38, $38, $3c, $3c, $36, $36, $7e
04b43     7E 30 30 00 
04b47     00 00 00 7E 
04b4b     7E 06 06 3E 
04b4f     7E 60 60 60 | 	byte	$7e, $30, $30, $00, $00, $00, $00, $7e, $7e, $06, $06, $3e, $7e, $60, $60, $60
04b53     66 7E 3C 00 
04b57     00 00 00 38 
04b5b     3C 0E 06 06 
04b5f     3E 7E 66 66 | 	byte	$66, $7e, $3c, $00, $00, $00, $00, $38, $3c, $0e, $06, $06, $3e, $7e, $66, $66
04b63     66 7E 3C 00 
04b67     00 00 00 7E 
04b6b     7E 60 60 30 
04b6f     30 18 18 0C | 	byte	$66, $7e, $3c, $00, $00, $00, $00, $7e, $7e, $60, $60, $30, $30, $18, $18, $0c
04b73     0C 0C 0C 00 
04b77     00 00 00 3C 
04b7b     7E 66 66 3C 
04b7f     3C 66 66 66 | 	byte	$0c, $0c, $0c, $00, $00, $00, $00, $3c, $7e, $66, $66, $3c, $3c, $66, $66, $66
04b83     66 7E 3C 00 
04b87     00 00 00 3C 
04b8b     7E 66 66 7E 
04b8f     7C 60 60 60 | 	byte	$66, $7e, $3c, $00, $00, $00, $00, $3c, $7e, $66, $66, $7e, $7c, $60, $60, $60
04b93     70 3C 1C 00 
04b97     00 00 00 00 
04b9b     00 00 18 18 
04b9f     18 00 00 00 | 	byte	$70, $3c, $1c, $00, $00, $00, $00, $00, $00, $00, $18, $18, $18, $00, $00, $00
04ba3     18 18 18 00 
04ba7     00 00 00 00 
04bab     00 00 18 18 
04baf     18 00 00 18 | 	byte	$18, $18, $18, $00, $00, $00, $00, $00, $00, $00, $18, $18, $18, $00, $00, $18
04bb3     18 18 18 0C 
04bb7     04 00 00 00 
04bbb     70 38 1C 0E 
04bbf     07 0E 1C 38 | 	byte	$18, $18, $18, $0c, $04, $00, $00, $00, $70, $38, $1c, $0e, $07, $0e, $1c, $38
04bc3     70 00 00 00 
04bc7     00 00 00 00 
04bcb     00 00 7E 7E 
04bcf     00 00 7E 7E | 	byte	$70, $00, $00, $00, $00, $00, $00, $00, $00, $00, $7e, $7e, $00, $00, $7e, $7e
04bd3     00 00 00 00 
04bd7     00 00 00 00 | 	byte	$00[8]
04bdb     0E 1C 38 70 
04bdf     E0 70 38 1C 
04be3     0E 00 00 00 
04be7     00 00 00 3C | 	byte	$0e, $1c, $38, $70, $e0, $70, $38, $1c, $0e, $00, $00, $00, $00, $00, $00, $3c
04beb     7E 66 66 30 
04bef     30 18 18 18 
04bf3     00 18 18 00 
04bf7     00 00 00 3C | 	byte	$7e, $66, $66, $30, $30, $18, $18, $18, $00, $18, $18, $00, $00, $00, $00, $3c
04bfb     7E 66 66 66 
04bff     66 36 06 66 
04c03     66 7E 3C 00 
04c07     00 00 00 18 | 	byte	$7e, $66, $66, $66, $66, $36, $06, $66, $66, $7e, $3c, $00, $00, $00, $00, $18
04c0b     3C 7E 66 66 
04c0f     66 7E 7E 66 
04c13     66 66 66 00 
04c17     00 00 00 3E | 	byte	$3c, $7e, $66, $66, $66, $7e, $7e, $66, $66, $66, $66, $00, $00, $00, $00, $3e
04c1b     7E 66 66 7E 
04c1f     3E 66 66 66 
04c23     66 7E 3E 00 
04c27     00 00 00 3C | 	byte	$7e, $66, $66, $7e, $3e, $66, $66, $66, $66, $7e, $3e, $00, $00, $00, $00, $3c
04c2b     7E 66 66 06 
04c2f     06 06 06 66 
04c33     66 7E 3C 00 
04c37     00 00 00 3E | 	byte	$7e, $66, $66, $06, $06, $06, $06, $66, $66, $7e, $3c, $00, $00, $00, $00, $3e
04c3b     7E 66 66 66 
04c3f     66 66 66 66 
04c43     66 7E 3E 00 
04c47     00 00 00 7E | 	byte	$7e, $66, $66, $66, $66, $66, $66, $66, $66, $7e, $3e, $00, $00, $00, $00, $7e
04c4b     7E 06 06 3E 
04c4f     3E 06 06 06 
04c53     06 7E 7E 00 
04c57     00 00 00 7E | 	byte	$7e, $06, $06, $3e, $3e, $06, $06, $06, $06, $7e, $7e, $00, $00, $00, $00, $7e
04c5b     7E 06 06 3E 
04c5f     3E 06 06 06 
04c63     06 06 06 00 
04c67     00 00 00 7C | 	byte	$7e, $06, $06, $3e, $3e, $06, $06, $06, $06, $06, $06, $00, $00, $00, $00, $7c
04c6b     7E 06 06 76 
04c6f     76 66 66 66 
04c73     66 7E 3C 00 
04c77     00 00 00 66 | 	byte	$7e, $06, $06, $76, $76, $66, $66, $66, $66, $7e, $3c, $00, $00, $00, $00, $66
04c7b     66 66 66 7E 
04c7f     7E 66 66 66 
04c83     66 66 66 00 
04c87     00 00 00 7E | 	byte	$66, $66, $66, $7e, $7e, $66, $66, $66, $66, $66, $66, $00, $00, $00, $00, $7e
04c8b     7E 18 18 18 
04c8f     18 18 18 18 
04c93     18 7E 7E 00 
04c97     00 00 00 60 | 	byte	$7e, $18, $18, $18, $18, $18, $18, $18, $18, $7e, $7e, $00, $00, $00, $00, $60
04c9b     60 60 60 60 
04c9f     60 60 60    | 	byte	$60[7]
04ca2     66 66 7E 3C 
04ca6     00 00 00 00 
04caa     66 66 36 36 
04cae     1E 1E 36 36 | 	byte	$66, $66, $7e, $3c, $00, $00, $00, $00, $66, $66, $36, $36, $1e, $1e, $36, $36
04cb2     66 66 C6 C6 
04cb6     00 00 00 00 
04cba     06 06 06 06 
04cbe     06 06 06 06 | 	byte	$66, $66, $c6, $c6, $00, $00, $00, $00, $06, $06, $06, $06, $06, $06, $06, $06
04cc2     06 06 7E 7E 
04cc6     00 00 00 00 
04cca     C6 C6 EE EE 
04cce     FE D6 D6 C6 | 	byte	$06, $06, $7e, $7e, $00, $00, $00, $00, $c6, $c6, $ee, $ee, $fe, $d6, $d6, $c6
04cd2     C6 C6 C6 C6 
04cd6     00 00 00 00 
04cda     66 66 66 6E 
04cde     6E 7E 7E 76 | 	byte	$c6, $c6, $c6, $c6, $00, $00, $00, $00, $66, $66, $66, $6e, $6e, $7e, $7e, $76
04ce2     76 66 66 66 
04ce6     00 00 00 00 
04cea     3C 7E 66 66 
04cee     66 66 66 66 | 	byte	$76, $66, $66, $66, $00, $00, $00, $00, $3c, $7e, $66, $66, $66, $66, $66, $66
04cf2     66 66 7E 3C 
04cf6     00 00 00 00 
04cfa     3E 7E 66 66 
04cfe     66 66 7E 3E | 	byte	$66, $66, $7e, $3c, $00, $00, $00, $00, $3e, $7e, $66, $66, $66, $66, $7e, $3e
04d02     06 06 06 06 
04d06     00 00 00 00 
04d0a     3C 7E 66 66 
04d0e     66 66 66 66 | 	byte	$06, $06, $06, $06, $00, $00, $00, $00, $3c, $7e, $66, $66, $66, $66, $66, $66
04d12     66 56 3E 6C 
04d16     00 00 00 00 
04d1a     3E 7E 66 66 
04d1e     66 7E 3E 36 | 	byte	$66, $56, $3e, $6c, $00, $00, $00, $00, $3e, $7e, $66, $66, $66, $7e, $3e, $36
04d22     66 66 C6 C6 
04d26     00 00 00 00 
04d2a     7C 7E 06 06 
04d2e     0E 1C 38 70 | 	byte	$66, $66, $c6, $c6, $00, $00, $00, $00, $7c, $7e, $06, $06, $0e, $1c, $38, $70
04d32     60 60 7E 3E 
04d36     00 00 00 00 
04d3a     7E 7E 18 18 
04d3e     18 18 18 18 | 	byte	$60, $60, $7e, $3e, $00, $00, $00, $00, $7e, $7e, $18, $18, $18, $18, $18, $18
04d42     18 18 18 18 
04d46     00 00 00 00 
04d4a     66 66 66 66 
04d4e     66 66 66 66 | 	byte	$18, $18, $18, $18, $00, $00, $00, $00, $66, $66, $66, $66, $66, $66, $66, $66
04d52     66 66 7E 3C 
04d56     00 00 00 00 
04d5a     66 66 66 66 
04d5e     66 66 66 66 | 	byte	$66, $66, $7e, $3c, $00, $00, $00, $00, $66, $66, $66, $66, $66, $66, $66, $66
04d62     3C 3C 18 18 
04d66     00 00 00 00 
04d6a     C6 C6 C6 C6 
04d6e     C6 D6 D6 FE | 	byte	$3c, $3c, $18, $18, $00, $00, $00, $00, $c6, $c6, $c6, $c6, $c6, $d6, $d6, $fe
04d72     FE EE C6 82 
04d76     00 00 00 00 
04d7a     66 66 66 3C 
04d7e     3C 18 18 3C | 	byte	$fe, $ee, $c6, $82, $00, $00, $00, $00, $66, $66, $66, $3c, $3c, $18, $18, $3c
04d82     3C 66 66 66 
04d86     00 00 00 00 
04d8a     66 66 66 66 
04d8e     66 3C 3C 18 | 	byte	$3c, $66, $66, $66, $00, $00, $00, $00, $66, $66, $66, $66, $66, $3c, $3c, $18
04d92     18 18 18 18 
04d96     00 00 00 00 
04d9a     7E 7E 30 30 
04d9e     18 18 0C 0C | 	byte	$18, $18, $18, $18, $00, $00, $00, $00, $7e, $7e, $30, $30, $18, $18, $0c, $0c
04da2     06 06 7E 7E 
04da6     00 00 00 00 
04daa     3C 3C 0C 0C 
04dae     0C 0C 0C 0C | 	byte	$06, $06, $7e, $7e, $00, $00, $00, $00, $3c, $3c, $0c, $0c, $0c, $0c, $0c, $0c
04db2     0C 0C 3C 3C 
04db6     00 00 00 00 
04dba     06 06 0C 0C 
04dbe     18 18 30 30 | 	byte	$0c, $0c, $3c, $3c, $00, $00, $00, $00, $06, $06, $0c, $0c, $18, $18, $30, $30
04dc2     60 60 C0 C0 
04dc6     00 00 00 00 
04dca     3C 3C 30 30 
04dce     30 30 30 30 | 	byte	$60, $60, $c0, $c0, $00, $00, $00, $00, $3c, $3c, $30, $30, $30, $30, $30, $30
04dd2     30 30 3C 3C 
04dd6     00 00 00 00 
04dda     18 18 3C 3C 
04dde     66 66 00 00 | 	byte	$30, $30, $3c, $3c, $00, $00, $00, $00, $18, $18, $3c, $3c, $66, $66, $00, $00
04de2     00 00 00 00 
04de6     00 00 00 00 
04dea     00 00 00 00 
04dee     00 00 00 00 
04df2     00 00       | 	byte	$00[18]
04df4     FE FE 00 00 
04df8     00 00 0C 0C 
04dfc     18 18 00 00 
04e00     00 00 00 00 | 	byte	$fe, $fe, $00, $00, $00, $00, $0c, $0c, $18, $18, $00, $00, $00, $00, $00, $00
04e04     00 00 00 00 
04e08     00 00 00 00 
04e0c     00          | 	byte	$00[9]
04e0d     3C 7C 60 7C 
04e11     7E 66 66 7E 
04e15     7C 00 00 00 
04e19     00 06 06 06 | 	byte	$3c, $7c, $60, $7c, $7e, $66, $66, $7e, $7c, $00, $00, $00, $00, $06, $06, $06
04e1d     3E 7E 66 66 
04e21     66 66 66 7E 
04e25     3E 00 00 00 
04e29     00 00 00 00 | 	byte	$3e, $7e, $66, $66, $66, $66, $66, $7e, $3e, $00, $00, $00, $00, $00, $00, $00
04e2d     3C 3E 06 06 
04e31     06 06 06 7E 
04e35     7C 00 00 00 
04e39     00 60 60 60 | 	byte	$3c, $3e, $06, $06, $06, $06, $06, $7e, $7c, $00, $00, $00, $00, $60, $60, $60
04e3d     7C 7E 66 66 
04e41     66 66 66 7E 
04e45     7C 00 00 00 
04e49     00 00 00 00 | 	byte	$7c, $7e, $66, $66, $66, $66, $66, $7e, $7c, $00, $00, $00, $00, $00, $00, $00
04e4d     3C 7E 66 66 
04e51     7E 06 06 7E 
04e55     7C 00 00 00 
04e59     00 70 78 18 | 	byte	$3c, $7e, $66, $66, $7e, $06, $06, $7e, $7c, $00, $00, $00, $00, $70, $78, $18
04e5d     18 7E 7E 18 
04e61     18 18 18 18 
04e65     18 00 00 00 
04e69     00 00 00 00 | 	byte	$18, $7e, $7e, $18, $18, $18, $18, $18, $18, $00, $00, $00, $00, $00, $00, $00
04e6d     7C 7E 66 66 
04e71     66 66 7E 7C 
04e75     60 7E 3E 00 
04e79     00 06 06 06 | 	byte	$7c, $7e, $66, $66, $66, $66, $7e, $7c, $60, $7e, $3e, $00, $00, $06, $06, $06
04e7d     3E 7E 66 66 
04e81     66 66 66 66 
04e85     66 00 00 00 
04e89     00 18 18 00 | 	byte	$3e, $7e, $66, $66, $66, $66, $66, $66, $66, $00, $00, $00, $00, $18, $18, $00
04e8d     1C 1C 18 18 
04e91     18 18 18 3C 
04e95     3C 00 00 00 
04e99     00 30 30 00 | 	byte	$1c, $1c, $18, $18, $18, $18, $18, $3c, $3c, $00, $00, $00, $00, $30, $30, $00
04e9d     30 30 30 30 
04ea1     30 30 30 30 
04ea5     30          | 	byte	$30[9]
04ea6     3E 1E 00 00 
04eaa     06 06 06 36 
04eae     36 1E 1E 1E 
04eb2     36 36 66 66 | 	byte	$3e, $1e, $00, $00, $06, $06, $06, $36, $36, $1e, $1e, $1e, $36, $36, $66, $66
04eb6     00 00 00 00 
04eba     1C 1C 18 18 
04ebe     18 18 18 18 
04ec2     18 18 3C 3C | 	byte	$00, $00, $00, $00, $1c, $1c, $18, $18, $18, $18, $18, $18, $18, $18, $3c, $3c
04ec6     00 00 00 00 
04eca     00 00 00    | 	byte	$00[7]
04ecd     6C FE FE D6 
04ed1     D6 C6 C6 C6 
04ed5     C6 00 00 00 
04ed9     00 00 00 00 | 	byte	$6c, $fe, $fe, $d6, $d6, $c6, $c6, $c6, $c6, $00, $00, $00, $00, $00, $00, $00
04edd     3E 7E 66 66 
04ee1     66 66 66 66 
04ee5     66 00 00 00 
04ee9     00 00 00 00 | 	byte	$3e, $7e, $66, $66, $66, $66, $66, $66, $66, $00, $00, $00, $00, $00, $00, $00
04eed     3C 7E 66 66 
04ef1     66 66 66 7E 
04ef5     3C 00 00 00 
04ef9     00 00 00 00 | 	byte	$3c, $7e, $66, $66, $66, $66, $66, $7e, $3c, $00, $00, $00, $00, $00, $00, $00
04efd     3E 7E 66 66 
04f01     66 66 66 7E 
04f05     3E 06 06 00 
04f09     00 00 00 00 | 	byte	$3e, $7e, $66, $66, $66, $66, $66, $7e, $3e, $06, $06, $00, $00, $00, $00, $00
04f0d     7C 7E 66 66 
04f11     66 66 66 7E 
04f15     7C 60 60 00 
04f19     00 00 00 00 | 	byte	$7c, $7e, $66, $66, $66, $66, $66, $7e, $7c, $60, $60, $00, $00, $00, $00, $00
04f1d     3E 7E 66 06 
04f21     06 06 06 06 
04f25     06 00 00 00 
04f29     00 00 00 00 | 	byte	$3e, $7e, $66, $06, $06, $06, $06, $06, $06, $00, $00, $00, $00, $00, $00, $00
04f2d     7C 7E 06 0E 
04f31     3C 70 60 7E 
04f35     3E 00 00 00 
04f39     00 00 18 18 | 	byte	$7c, $7e, $06, $0e, $3c, $70, $60, $7e, $3e, $00, $00, $00, $00, $00, $18, $18
04f3d     7E 7E 18 18 
04f41     18 18 18 78 
04f45     70 00 00 00 
04f49     00 00 00 00 | 	byte	$7e, $7e, $18, $18, $18, $18, $18, $78, $70, $00, $00, $00, $00, $00, $00, $00
04f4d     66 66 66 66 
04f51     66 66 66    | 	byte	$66[7]
04f54     7E 7C 00 00 
04f58     00 00 00 00 
04f5c     00 66 66 66 
04f60     66 66 3C 3C | 	byte	$7e, $7c, $00, $00, $00, $00, $00, $00, $00, $66, $66, $66, $66, $66, $3c, $3c
04f64     18 18 00 00 
04f68     00 00 00 00 
04f6c     00 C6 C6 D6 
04f70     D6 FE FE EE | 	byte	$18, $18, $00, $00, $00, $00, $00, $00, $00, $c6, $c6, $d6, $d6, $fe, $fe, $ee
04f74     C6 82 00 00 
04f78     00 00 00 00 
04f7c     00 66 66 3C 
04f80     3C 18 3C 3C | 	byte	$c6, $82, $00, $00, $00, $00, $00, $00, $00, $66, $66, $3c, $3c, $18, $3c, $3c
04f84     66 66 00 00 
04f88     00 00 00 00 
04f8c     00 66 66 66 
04f90     66 66 66 7E | 	byte	$66, $66, $00, $00, $00, $00, $00, $00, $00, $66, $66, $66, $66, $66, $66, $7e
04f94     7C 60 7E 3E 
04f98     00 00 00 00 
04f9c     00 7E 7E 30 
04fa0     18 18 0C 0C | 	byte	$7c, $60, $7e, $3e, $00, $00, $00, $00, $00, $7e, $7e, $30, $18, $18, $0c, $0c
04fa4     7E 7E 00 00 
04fa8     00 00 30 18 
04fac     18 18 18 0C 
04fb0     0C 18 18 18 | 	byte	$7e, $7e, $00, $00, $00, $00, $30, $18, $18, $18, $18, $0c, $0c, $18, $18, $18
04fb4     18 30 00 00 
04fb8     00 00 18 18 
04fbc     18 18 18 18 
04fc0     18 18 18 18 | 	byte	$18, $30, $00, $00, $00, $00, $18, $18, $18, $18, $18, $18, $18, $18, $18, $18
04fc4     18 18 00 00 
04fc8     00 00 0C 18 
04fcc     18 18 18 30 
04fd0     30 18 18 18 | 	byte	$18, $18, $00, $00, $00, $00, $0c, $18, $18, $18, $18, $30, $30, $18, $18, $18
04fd4     18 0C 00 00 
04fd8     00 00 6C 7E 
04fdc     36 00 00 00 
04fe0     00 00 00 00 | 	byte	$18, $0c, $00, $00, $00, $00, $6c, $7e, $36, $00, $00, $00, $00, $00, $00, $00
04fe4     00 00 00 00 
04fe8     00 00 00 00 
04fec     00          | 	byte	$00[9]
04fed     18 18 18 18 
04ff1     18 18 00 00 
04ff5     00 00 00    | 	byte	$18, $18, $18, $18, $18, $18, $00, $00, $00, $00, $00
04ff8     00 00 00 00 
04ffc     00 FF FF FF | twocolors      long  $00000000,$FFFFFF00
05000     00 00 00 00 
05004     00 80 80 80 
05008     00 00 00 FF 
0500c     00 FF FF FF | fourcolors     long  $00000000,$80808000,$FF000000,$FFFFFF00 'black,red,gray,white
05010     00 00 00 00 
05014     00          | vga16          long  $00000000,$00008000,$00800000,$00808000,$80000000,$80008000,$80400000,$AAAAAA00,$55555500,$0000FF00,$00FF0000,$00FFFF00,$FF000000,$FF00FF00,$FFFF0000,$FFFFFF00
05015     80 00 00 00 
05019     00 80 00 00 
0501d     80 80 00 00 
05021     00 00 80 00 | 	byte	$80, $00, $00, $00, $00, $80, $00, $00, $80, $80, $00, $00, $00, $00, $80, $00
05025     80 00 80 00 
05029     00 40 80 00 
0502d     AA AA AA 00 
05031     55 55 55 00 | 	byte	$80, $00, $80, $00, $00, $40, $80, $00, $aa, $aa, $aa, $00, $55, $55, $55, $00
05035     FF 00 00 00 
05039     00 FF 00 00 
0503d     FF FF 00 00 
05041     00 00 FF 00 | 	byte	$ff, $00, $00, $00, $00, $ff, $00, $00, $ff, $ff, $00, $00, $00, $00, $ff, $00
05045     FF 00 FF 00 
05049     00 FF FF 00 
0504d     FF FF FF    | 	byte	$ff, $00, $ff, $00, $00, $ff, $ff, $00, $ff, $ff, $ff
05050     00 00 00 00 
05054     00          | ataripalette   file "ataripalettep2.def"
05055     11 11 11 00 
05059     22 22 22 00 
0505d     33 33 33 00 
05061     44 44 44 00 | 	byte	$11, $11, $11, $00, $22, $22, $22, $00, $33, $33, $33, $00, $44, $44, $44, $00
05065     55 55 55 00 
05069     66 66 66 00 
0506d     77 77 77 00 
05071     88 88 88 00 | 	byte	$55, $55, $55, $00, $66, $66, $66, $00, $77, $77, $77, $00, $88, $88, $88, $00
05075     99 99 99 00 
05079     AA AA AA 00 
0507d     BB BB BB 00 
05081     CC CC CC 00 | 	byte	$99, $99, $99, $00, $aa, $aa, $aa, $00, $bb, $bb, $bb, $00, $cc, $cc, $cc, $00
05085     DD DD DD 00 
05089     EE EE EE 00 
0508d     FF FF FF 00 
05091     00 0A 20 00 | 	byte	$dd, $dd, $dd, $00, $ee, $ee, $ee, $00, $ff, $ff, $ff, $00, $00, $0a, $20, $00
05095     00 14 40 00 
05099     00 1E 60 00 
0509d     00 28 80 00 
050a1     00 32 9F 00 | 	byte	$00, $14, $40, $00, $00, $1e, $60, $00, $00, $28, $80, $00, $00, $32, $9f, $00
050a5     00 3C BF 00 
050a9     00 46 DF 00 
050ad     00 50 FF 00 
050b1     1C 63 FF 00 | 	byte	$00, $3c, $bf, $00, $00, $46, $df, $00, $00, $50, $ff, $00, $1c, $63, $ff, $00
050b5     39 77 FF 00 
050b9     55 8A FF 00 
050bd     71 9E FF 00 
050c1     8E B1 FF 00 | 	byte	$39, $77, $ff, $00, $55, $8a, $ff, $00, $71, $9e, $ff, $00, $8e, $b1, $ff, $00
050c5     AA C5 FF 00 
050c9     C6 D8 FF 00 
050cd     E3 EC FF 00 
050d1     00 00 20 00 | 	byte	$aa, $c5, $ff, $00, $c6, $d8, $ff, $00, $e3, $ec, $ff, $00, $00, $00, $20, $00
050d5     00 00 40 00 
050d9     00 00 60 00 
050dd     00 00 80 00 
050e1     00 00 9F 00 | 	byte	$00, $00, $40, $00, $00, $00, $60, $00, $00, $00, $80, $00, $00, $00, $9f, $00
050e5     00 00 BF 00 
050e9     00 00 DF 00 
050ed     00 00 FF 00 
050f1     1C 1C FF 00 | 	byte	$00, $00, $bf, $00, $00, $00, $df, $00, $00, $00, $ff, $00, $1c, $1c, $ff, $00
050f5     39 39 FF 00 
050f9     55 55 FF 00 
050fd     71 71 FF 00 
05101     8E 8E FF 00 | 	byte	$39, $39, $ff, $00, $55, $55, $ff, $00, $71, $71, $ff, $00, $8e, $8e, $ff, $00
05105     AA AA FF 00 
05109     C6 C6 FF 00 
0510d     E3 E3 FF 00 
05111     10 00 20 00 | 	byte	$aa, $aa, $ff, $00, $c6, $c6, $ff, $00, $e3, $e3, $ff, $00, $10, $00, $20, $00
05115     20 00 40 00 
05119     30 00 60 00 
0511d     40 00 80 00 
05121     50 00 9F 00 | 	byte	$20, $00, $40, $00, $30, $00, $60, $00, $40, $00, $80, $00, $50, $00, $9f, $00
05125     60 00 BF 00 
05129     70 00 DF 00 
0512d     80 00 FF 00 
05131     8E 1C FF 00 | 	byte	$60, $00, $bf, $00, $70, $00, $df, $00, $80, $00, $ff, $00, $8e, $1c, $ff, $00
05135     9C 39 FF 00 
05139     AA 55 FF 00 
0513d     B8 71 FF 00 
05141     C7 8E FF 00 | 	byte	$9c, $39, $ff, $00, $aa, $55, $ff, $00, $b8, $71, $ff, $00, $c7, $8e, $ff, $00
05145     D5 AA FF 00 
05149     E3 C6 FF 00 
0514d     F1 E3 FF 00 
05151     20 00 20 00 | 	byte	$d5, $aa, $ff, $00, $e3, $c6, $ff, $00, $f1, $e3, $ff, $00, $20, $00, $20, $00
05155     40 00 40 00 
05159     60 00 60 00 
0515d     80 00 80 00 
05161     9F 00 9F 00 | 	byte	$40, $00, $40, $00, $60, $00, $60, $00, $80, $00, $80, $00, $9f, $00, $9f, $00
05165     BF 00 BF 00 
05169     DF 00 DF 00 
0516d     FF 00 FF 00 
05171     FF 1C FF 00 | 	byte	$bf, $00, $bf, $00, $df, $00, $df, $00, $ff, $00, $ff, $00, $ff, $1c, $ff, $00
05175     FF 39 FF 00 
05179     FF 55 FF 00 
0517d     FF 71 FF 00 
05181     FF 8E FF 00 | 	byte	$ff, $39, $ff, $00, $ff, $55, $ff, $00, $ff, $71, $ff, $00, $ff, $8e, $ff, $00
05185     FF AA FF 00 
05189     FF C6 FF 00 
0518d     FF E3 FF 00 
05191     20 00 10 00 | 	byte	$ff, $aa, $ff, $00, $ff, $c6, $ff, $00, $ff, $e3, $ff, $00, $20, $00, $10, $00
05195     40 00 20 00 
05199     60 00 30 00 
0519d     80 00 40 00 
051a1     9F 00 50 00 | 	byte	$40, $00, $20, $00, $60, $00, $30, $00, $80, $00, $40, $00, $9f, $00, $50, $00
051a5     BF 00 60 00 
051a9     DF 00 70 00 
051ad     FF 00 80 00 
051b1     FF 1C 8E 00 | 	byte	$bf, $00, $60, $00, $df, $00, $70, $00, $ff, $00, $80, $00, $ff, $1c, $8e, $00
051b5     FF 39 9C 00 
051b9     FF 55 AA 00 
051bd     FF 71 B8 00 
051c1     FF 8E C7 00 | 	byte	$ff, $39, $9c, $00, $ff, $55, $aa, $00, $ff, $71, $b8, $00, $ff, $8e, $c7, $00
051c5     FF AA D5 00 
051c9     FF C6 E3 00 
051cd     FF E3 F1 00 
051d1     20 00 00 00 | 	byte	$ff, $aa, $d5, $00, $ff, $c6, $e3, $00, $ff, $e3, $f1, $00, $20, $00, $00, $00
051d5     40 00 00 00 
051d9     60 00 00 00 
051dd     80 00 00 00 
051e1     9F 00 00 00 | 	byte	$40, $00, $00, $00, $60, $00, $00, $00, $80, $00, $00, $00, $9f, $00, $00, $00
051e5     BF 00 00 00 
051e9     DF 00 00 00 
051ed     FF 00 00 00 
051f1     FF 1C 1C 00 | 	byte	$bf, $00, $00, $00, $df, $00, $00, $00, $ff, $00, $00, $00, $ff, $1c, $1c, $00
051f5     FF 39 39 00 
051f9     FF 55 55 00 
051fd     FF 71 71 00 
05201     FF 8E 8E 00 | 	byte	$ff, $39, $39, $00, $ff, $55, $55, $00, $ff, $71, $71, $00, $ff, $8e, $8e, $00
05205     FF AA AA 00 
05209     FF C6 C6 00 
0520d     FF E3 E3 00 
05211     20 08 00 00 | 	byte	$ff, $aa, $aa, $00, $ff, $c6, $c6, $00, $ff, $e3, $e3, $00, $20, $08, $00, $00
05215     40 10 00 00 
05219     60 18 00 00 
0521d     80 20 00 00 
05221     9F 28 00 00 | 	byte	$40, $10, $00, $00, $60, $18, $00, $00, $80, $20, $00, $00, $9f, $28, $00, $00
05225     BF 30 00 00 
05229     DF 38 00 00 
0522d     FF 40 00 00 
05231     FF 55 1C 00 | 	byte	$bf, $30, $00, $00, $df, $38, $00, $00, $ff, $40, $00, $00, $ff, $55, $1c, $00
05235     FF 6A 39 00 
05239     FF 80 55 00 
0523d     FF 95 71 00 
05241     FF AA 8E 00 | 	byte	$ff, $6a, $39, $00, $ff, $80, $55, $00, $ff, $95, $71, $00, $ff, $aa, $8e, $00
05245     FF BF AA 00 
05249     FF D5 C6 00 
0524d     FF EA E3 00 
05251     20 10 00 00 | 	byte	$ff, $bf, $aa, $00, $ff, $d5, $c6, $00, $ff, $ea, $e3, $00, $20, $10, $00, $00
05255     40 20 00 00 
05259     60 30 00 00 
0525d     80 40 00 00 
05261     9F 50 00 00 | 	byte	$40, $20, $00, $00, $60, $30, $00, $00, $80, $40, $00, $00, $9f, $50, $00, $00
05265     BF 60 00 00 
05269     DF 70 00 00 
0526d     FF 80 00 00 
05271     FF 8E 1C 00 | 	byte	$bf, $60, $00, $00, $df, $70, $00, $00, $ff, $80, $00, $00, $ff, $8e, $1c, $00
05275     FF 9C 39 00 
05279     FF AA 55 00 
0527d     FF B8 71 00 
05281     FF C7 8E 00 | 	byte	$ff, $9c, $39, $00, $ff, $aa, $55, $00, $ff, $b8, $71, $00, $ff, $c7, $8e, $00
05285     FF D5 AA 00 
05289     FF E3 C6 00 
0528d     FF F1 E3 00 
05291     20 18 00 00 | 	byte	$ff, $d5, $aa, $00, $ff, $e3, $c6, $00, $ff, $f1, $e3, $00, $20, $18, $00, $00
05295     40 30 00 00 
05299     60 48 00 00 
0529d     80 60 00 00 
052a1     9F 78 00 00 | 	byte	$40, $30, $00, $00, $60, $48, $00, $00, $80, $60, $00, $00, $9f, $78, $00, $00
052a5     BF 90 00 00 
052a9     DF A8 00 00 
052ad     FF C0 00 00 
052b1     FF C7 1C 00 | 	byte	$bf, $90, $00, $00, $df, $a8, $00, $00, $ff, $c0, $00, $00, $ff, $c7, $1c, $00
052b5     FF CE 39 00 
052b9     FF D5 55 00 
052bd     FF DC 71 00 
052c1     FF E3 8E 00 | 	byte	$ff, $ce, $39, $00, $ff, $d5, $55, $00, $ff, $dc, $71, $00, $ff, $e3, $8e, $00
052c5     FF EA AA 00 
052c9     FF F1 C6 00 
052cd     FF F8 E3 00 
052d1     18 20 00 00 | 	byte	$ff, $ea, $aa, $00, $ff, $f1, $c6, $00, $ff, $f8, $e3, $00, $18, $20, $00, $00
052d5     30 40 00 00 
052d9     48 60 00 00 
052dd     60 80 00 00 
052e1     78 9F 00 00 | 	byte	$30, $40, $00, $00, $48, $60, $00, $00, $60, $80, $00, $00, $78, $9f, $00, $00
052e5     90 BF 00 00 
052e9     A8 DF 00 00 
052ed     C0 FF 00 00 
052f1     C7 FF 1C 00 | 	byte	$90, $bf, $00, $00, $a8, $df, $00, $00, $c0, $ff, $00, $00, $c7, $ff, $1c, $00
052f5     CE FF 39 00 
052f9     D5 FF 55 00 
052fd     DC FF 71 00 
05301     E3 FF 8E 00 | 	byte	$ce, $ff, $39, $00, $d5, $ff, $55, $00, $dc, $ff, $71, $00, $e3, $ff, $8e, $00
05305     EA FF AA 00 
05309     F1 FF C6 00 
0530d     F8 FF E3 00 
05311     00 20 00 00 | 	byte	$ea, $ff, $aa, $00, $f1, $ff, $c6, $00, $f8, $ff, $e3, $00, $00, $20, $00, $00
05315     00 40 00 00 
05319     00 60 00 00 
0531d     00 80 00 00 
05321     00 9F 00 00 | 	byte	$00, $40, $00, $00, $00, $60, $00, $00, $00, $80, $00, $00, $00, $9f, $00, $00
05325     00 BF 00 00 
05329     00 DF 00 00 
0532d     00 FF 00 00 
05331     1C FF 1C 00 | 	byte	$00, $bf, $00, $00, $00, $df, $00, $00, $00, $ff, $00, $00, $1c, $ff, $1c, $00
05335     39 FF 39 00 
05339     55 FF 55 00 
0533d     71 FF 71 00 
05341     8E FF 8E 00 | 	byte	$39, $ff, $39, $00, $55, $ff, $55, $00, $71, $ff, $71, $00, $8e, $ff, $8e, $00
05345     AA FF AA 00 
05349     C6 FF C6 00 
0534d     E3 FF E3 00 
05351     00 20 0A 00 | 	byte	$aa, $ff, $aa, $00, $c6, $ff, $c6, $00, $e3, $ff, $e3, $00, $00, $20, $0a, $00
05355     00 40 14 00 
05359     00 60 1E 00 
0535d     00 80 28 00 
05361     00 9F 32 00 | 	byte	$00, $40, $14, $00, $00, $60, $1e, $00, $00, $80, $28, $00, $00, $9f, $32, $00
05365     00 BF 3C 00 
05369     00 DF 46 00 
0536d     00 FF 50 00 
05371     1C FF 63 00 | 	byte	$00, $bf, $3c, $00, $00, $df, $46, $00, $00, $ff, $50, $00, $1c, $ff, $63, $00
05375     39 FF 77 00 
05379     55 FF 8A 00 
0537d     71 FF 9E 00 
05381     8E FF B1 00 | 	byte	$39, $ff, $77, $00, $55, $ff, $8a, $00, $71, $ff, $9e, $00, $8e, $ff, $b1, $00
05385     AA FF C5 00 
05389     C6 FF D8 00 
0538d     E3 FF EC 00 
05391     00 20 14 00 | 	byte	$aa, $ff, $c5, $00, $c6, $ff, $d8, $00, $e3, $ff, $ec, $00, $00, $20, $14, $00
05395     00 40 28 00 
05399     00 60 3C 00 
0539d     00 80 50 00 
053a1     00 9F 64 00 | 	byte	$00, $40, $28, $00, $00, $60, $3c, $00, $00, $80, $50, $00, $00, $9f, $64, $00
053a5     00 BF 78 00 
053a9     00 DF 8C 00 
053ad     00 FF A0 00 
053b1     1C FF AB 00 | 	byte	$00, $bf, $78, $00, $00, $df, $8c, $00, $00, $ff, $a0, $00, $1c, $ff, $ab, $00
053b5     39 FF B5 00 
053b9     55 FF C0 00 
053bd     71 FF CA 00 
053c1     8E FF D5 00 | 	byte	$39, $ff, $b5, $00, $55, $ff, $c0, $00, $71, $ff, $ca, $00, $8e, $ff, $d5, $00
053c5     AA FF DF 00 
053c9     C6 FF EA 00 
053cd     E3 FF F4 00 
053d1     00 20 20 00 | 	byte	$aa, $ff, $df, $00, $c6, $ff, $ea, $00, $e3, $ff, $f4, $00, $00, $20, $20, $00
053d5     00 40 40 00 
053d9     00 60 60 00 
053dd     00 80 80 00 
053e1     00 9F 9F 00 | 	byte	$00, $40, $40, $00, $00, $60, $60, $00, $00, $80, $80, $00, $00, $9f, $9f, $00
053e5     00 BF BF 00 
053e9     00 DF DF 00 
053ed     00 FF FF 00 
053f1     1C FF FF 00 | 	byte	$00, $bf, $bf, $00, $00, $df, $df, $00, $00, $ff, $ff, $00, $1c, $ff, $ff, $00
053f5     39 FF FF 00 
053f9     55 FF FF 00 
053fd     71 FF FF 00 
05401     8E FF FF 00 | 	byte	$39, $ff, $ff, $00, $55, $ff, $ff, $00, $71, $ff, $ff, $00, $8e, $ff, $ff, $00
05405     AA FF FF 00 
05409     C6 FF FF 00 
0540d     E3 FF FF 00 
05411     00 14 20 00 | 	byte	$aa, $ff, $ff, $00, $c6, $ff, $ff, $00, $e3, $ff, $ff, $00, $00, $14, $20, $00
05415     00 28 40 00 
05419     00 3C 60 00 
0541d     00 50 80 00 
05421     00 64 9F 00 | 	byte	$00, $28, $40, $00, $00, $3c, $60, $00, $00, $50, $80, $00, $00, $64, $9f, $00
05425     00 78 BF 00 
05429     00 8C DF 00 
0542d     00 A0 FF 00 
05431     1C AB FF 00 | 	byte	$00, $78, $bf, $00, $00, $8c, $df, $00, $00, $a0, $ff, $00, $1c, $ab, $ff, $00
05435     39 B5 FF 00 
05439     55 C0 FF 00 
0543d     71 CA FF 00 
05441     8E D5 FF 00 | 	byte	$39, $b5, $ff, $00, $55, $c0, $ff, $00, $71, $ca, $ff, $00, $8e, $d5, $ff, $00
05445     AA DF FF 00 
05449     C6 EA FF 00 
0544d     E3 F4 FF    | 	byte	$aa, $df, $ff, $00, $c6, $ea, $ff, $00, $e3, $f4, $ff
05450                 | '**********************************************************************************
05450                 | '
05450                 | '        Timings and colors definitions
05450                 | '
05450                 | '**********************************************************************************
05450                 | 
05450                 |    'streamer sets for text mode, to add to timings[0..5]
05450                 | 
05450                 | 
05450                 | '                     bf.hs, hs,  bf.vis  visible, lr bord, pixel, ud bord,  up p., vsync, down p., mode, cpl, scanlines,  clock,                  hubset                  total vis lines
05450     10 00 00 00 
05454     50 00 00 00 
05458     14 00 00 00 
0545c     00 04 00 00 | timings000      long   16,   80,    20,    1024,    112,     8,     48,      16,      16,    16,      0,  100,   480,     354693878,   %1_110000__11_0110_1100__1111_1011,   576
05460     70 00 00 00 
05464     08 00 00 00 
05468     30 00 00 00 
0546c     10 00 00 00 | 	byte	$70, $00, $00, $00, $08, $00, $00, $00, $30, $00, $00, $00, $10, $00, $00, $00
05470     10 00 00 00 
05474     10 00 00 00 
05478     00 00 00 00 
0547c     64 00 00 00 | 	byte	$10, $00, $00, $00, $10, $00, $00, $00, $00, $00, $00, $00, $64, $00, $00, $00
05480     E0 01 00 00 
05484     F6 32 24 15 
05488     FB 6C C3 01 
0548c     40 02 00 00 | 	byte	$e0, $01, $00, $00, $f6, $32, $24, $15, $fb, $6c, $c3, $01, $40, $02, $00, $00
05490     12 00 00 00 
05494     30 00 00 00 
05498     10 00 00 00 
0549c     B0 03 00 00 | timings064      long   18,   48,    16,     944,     24,     8,     24,      24,      32,    24,     64,  112,   496,     319215686,   %1_110010__11_0010_1101__1111_1011,   544
054a0     18 00 00 00 
054a4     08 00 00 00 
054a8     18 00 00 00 
054ac     18 00 00 00 | 	byte	$18, $00, $00, $00, $08, $00, $00, $00, $18, $00, $00, $00, $18, $00, $00, $00
054b0     20 00 00 00 
054b4     18 00 00 00 
054b8     40 00 00 00 
054bc     70 00 00 00 | 	byte	$20, $00, $00, $00, $18, $00, $00, $00, $40, $00, $00, $00, $70, $00, $00, $00
054c0     F0 01 00 00 
054c4     46 D8 06 13 
054c8     FB 2D CB 01 
054cc     20 02 00 00 | 	byte	$f0, $01, $00, $00, $46, $d8, $06, $13, $fb, $2d, $cb, $01, $20, $02, $00, $00
054d0     10 00 00 00 
054d4     40 00 00 00 
054d8     10 00 00 00 
054dc     30 03 00 00 | timings128      long   16,   64,    16,     816,      8,     8,     8,       32,      64,    32,    128,  100,   480,     283750000,   %1_111111__11_1000_1011__1111_1011,   496
054e0     08 00 00 00 
054e4     08 00 00 00 
054e8     08 00 00 00 
054ec     20 00 00 00 | 	byte	$08, $00, $00, $00, $08, $00, $00, $00, $08, $00, $00, $00, $20, $00, $00, $00
054f0     40 00 00 00 
054f4     20 00 00 00 
054f8     80 00 00 00 
054fc     64 00 00 00 | 	byte	$40, $00, $00, $00, $20, $00, $00, $00, $80, $00, $00, $00, $64, $00, $00, $00
05500     E0 01 00 00 
05504     70 AE E9 10 
05508     FB 8B FF 01 
0550c     F0 01 00 00 | 	byte	$e0, $01, $00, $00, $70, $ae, $e9, $10, $fb, $8b, $ff, $01, $f0, $01, $00, $00
05510     10 00 00 00 
05514     50 00 00 00 
05518     14 00 00 00 
0551c     00 04 00 00 | timings192      long   16,   80,    20,    1024,      0,     8,     0,       16,      16,    16,    192,  128,   576,     354693878,   %1_110000__11_0110_1100__1111_1011,   576
05520     00 00 00 00 
05524     08 00 00 00 
05528     00 00 00 00 
0552c     10 00 00 00 | 	byte	$00, $00, $00, $00, $08, $00, $00, $00, $00, $00, $00, $00, $10, $00, $00, $00
05530     10 00 00 00 
05534     10 00 00 00 
05538     C0 00 00 00 
0553c     80 00 00 00 | 	byte	$10, $00, $00, $00, $10, $00, $00, $00, $c0, $00, $00, $00, $80, $00, $00, $00
05540     40 02 00 00 
05544     F6 32 24 15 
05548     FB 6C C3 01 
0554c     40 02 00 00 | 	byte	$40, $02, $00, $00, $f6, $32, $24, $15, $fb, $6c, $c3, $01, $40, $02, $00, $00
05550     50 00 00 00 
05554     A0 00 00 00 
05558     54 00 00 00 
0555c     30 03 00 00 | timings256      long   80,  160,    84,     816,      8,     8,     8,        8,      12,     8,    256,  100,   480,     357959184,   %1_110000__11_0110_0100__1111_1011,   496
05560     08 00 00 00 
05564     08 00 00 00 
05568     08 00 00 00 
0556c     08 00 00 00 | 	byte	$08, $00, $00, $00, $08, $00, $00, $00, $08, $00, $00, $00, $08, $00, $00, $00
05570     0C 00 00 00 
05574     08 00 00 00 
05578     00 01 00 00 
0557c     64 00 00 00 | 	byte	$0c, $00, $00, $00, $08, $00, $00, $00, $00, $01, $00, $00, $64, $00, $00, $00
05580     E0 01 00 00 
05584     10 06 56 15 
05588     FB 64 C3 01 
0558c     F0 01 00 00 | 	byte	$e0, $01, $00, $00, $10, $06, $56, $15, $fb, $64, $c3, $01, $f0, $01, $00, $00
05590     50 00 00 00 
05594     32 00 00 00 
05598     50 00 00 00 
0559c     30 03 00 00 | timings320      long   80,   50,    80,     816,      8,     8,     8,        8,      12,     8,    320,  100,   480,     322162162,   %1_100100__10_0101_0011__1111_1011,   496
055a0     08 00 00 00 
055a4     08 00 00 00 
055a8     08 00 00 00 
055ac     08 00 00 00 | 	byte	$08, $00, $00, $00, $08, $00, $00, $00, $08, $00, $00, $00, $08, $00, $00, $00
055b0     0C 00 00 00 
055b4     08 00 00 00 
055b8     40 01 00 00 
055bc     64 00 00 00 | 	byte	$0c, $00, $00, $00, $08, $00, $00, $00, $40, $01, $00, $00, $64, $00, $00, $00
055c0     E0 01 00 00 
055c4     F2 CD 33 13 
055c8     FB 53 92 01 
055cc     F0 01 00 00 | 	byte	$e0, $01, $00, $00, $f2, $cd, $33, $13, $fb, $53, $92, $01, $f0, $01, $00, $00
055d0     18 00 00 00 
055d4     30 00 00 00 
055d8     18 00 00 00 
055dc     30 03 00 00 | timings384      long   24,   48,    24,     816,      8,     8,     8,        8,      12,     8,    384,  100,   480,     286363636,   %1_010101__01_0011_1010__1111_1011,   496
055e0     08 00 00 00 
055e4     08 00 00 00 
055e8     08 00 00 00 
055ec     08 00 00 00 | 	byte	$08, $00, $00, $00, $08, $00, $00, $00, $08, $00, $00, $00, $08, $00, $00, $00
055f0     0C 00 00 00 
055f4     08 00 00 00 
055f8     80 01 00 00 
055fc     64 00 00 00 | 	byte	$0c, $00, $00, $00, $08, $00, $00, $00, $80, $01, $00, $00, $64, $00, $00, $00
05600     E0 01 00 00 
05604     F4 8F 11 11 
05608     FB 3A 55 01 
0560c     F0 01 00 00 | 	byte	$e0, $01, $00, $00, $f4, $8f, $11, $11, $fb, $3a, $55, $01, $f0, $01, $00, $00
05610     20 00 00 00 
05614     40 00 00 00 
05618     22 00 00 00 
0561c     80 03 00 00 | timings448      long   32,   64,    34,     896,      0,     8,     0,        8,      12,     8,    448,  112,   496,     322162162,   %1_100100__10_0101_0011__1111_1011,   496
05620     00 00 00 00 
05624     08 00 00 00 
05628     00 00 00 00 
0562c     08 00 00 00 | 	byte	$00, $00, $00, $00, $08, $00, $00, $00, $00, $00, $00, $00, $08, $00, $00, $00
05630     0C 00 00 00 
05634     08 00 00 00 
05638     C0 01 00 00 
0563c     70 00 00 00 | 	byte	$0c, $00, $00, $00, $08, $00, $00, $00, $c0, $01, $00, $00, $70, $00, $00, $00
05640     F0 01 00 00 
05644     F2 CD 33 13 
05648     FB 53 92 01 
0564c     F0 01 00 00 | 	byte	$f0, $01, $00, $00, $f2, $cd, $33, $13, $fb, $53, $92, $01, $f0, $01, $00, $00
05650                 | 'timings999      long    0,    0,     0,       0,      0,     0,     0,        0,       0,     0,      0,    0,     0,             0,                                    0,     0
05650     00 75 C7 97 
05654     27 47 F6 0A 
05658     05 79 CB 9B 
0565c     2B 4B EA 0F | vgacolors       byte   0, 117, 199, 151, 39, 71, 246, 10, 5, 121, 203, 155, 43, 75, 234, 15
05660                 | 
05660     28 12 64 FD | hdmi            setq    #9
05664     00 E3 06 FB |                 rdlong  framebuf,  ptra                  'read pointers
05668                 | 
05668     00 28 6F FC |                 wrlong  #aend,#0                         'write driver length to hub#0: DEBUG/demo
0566c     3C 00 66 FD |                 setcmod #$100                            'enable HDMI mode
05670     C0 FD 06 F6 |                 mov     ii,#448                          '7 << 6          
05674     7A FD 02 F1 |                 add     ii,hbase
05678     58 FC 62 FD |                 drvl    ii                                 '#7<<6 + hdmi_base      ' enable HDMI pins
0567c     7B 0B 80 FF 
05680     7E 01 0B FC |                 wrpin   ##%10110_1111_0111_10_00000_0, ii  '#7<<6 + hdmi_base      ' a '123 ohm BITDAC for pins
05684                 | 
05684     66 66 86 FF 
05688     1D 9A 65 FD |                 setxfrq ##$0CCCCCCC+1                   'set streamer freq to 1/10th clk
0568c                 | 
0568c                 | 
0568c                 | ''--------  frame rendering main loop  ---------------------------------------------------
0568c                 | 
0568c                 | p101
0568c     28 14 64 FD |                 setq    #10
05690     00 E3 06 FB |                 rdlong  framebuf,  ptra
05694     28 1E 64 FD |                 setq    #15
05698     76 9F 02 FB |                 rdlong  m_bs,modeptr                     ' read timings
0569c     73 9D 02 FB |                 rdlong  border,borderptr
056a0                 | 
056a0     01 C8 06 F1 |                 add     frames,#1
056a4     78 F9 02 F6 |                 mov     dlptr2,dlptr
056a8                 | 
056a8     75 CB 02 FB |                 rdlong  cursorx, cursorptr               ' read cursor position
056ac     65 CD EA F8 |                 getbyte cursory, cursorx,#1              ' y position at byte #1
056b0     65 C7 F2 F8 |                 getbyte cursorsh,cursorx,#2              ' shape at byte #2
056b4     FF CA 06 F5 |                 and     cursorx,#255                     ' clear the cursor x varioble from y and shape
056b8                 |  '' up porch
056b8                 | 
056b8     4A 01 03 F6 |                 mov     hsync0,sync_000                  '
056bc     4B 03 03 F6 |                 mov     hsync1,sync_001
056c0     37 AC 46 FB |                 callpa  i_upporch ,#blank
056c4     74 01 68 FC |                 wrlong  #0,vblankptr
056c8                 |                 
056c8     1F EE 16 F4 |                 testb   paletteptr,#31 wc
056cc     29 FE 65 3D |          if_nc  setq2   #255
056d0     77 01 00 3B |          if_nc  rdlong  $000, paletteptr                'read palette
056d4                 | 
056d4                 | '' cursor blinking
056d4                 | 
056d4     04 C8 0E F4 |                 testb   frames,#4 wz                     ' cursor blinks at framerate/16, todo: define
056d8     81 CA 06 A6 |          if_z   mov     cursorx,#129                     ' to switch the cursor off, move it out of the screen
056dc                 | 
056dc                 | '' main screen
056dc                 | 
056dc     00 C2 06 F6 |                 mov linenum,#0
056e0     00 1C 07 F6 |                 mov rcnt,#0
056e4     00 20 07 F6 |                 mov rcnt2a,#0
056e8                 | 
056e8                 | 
056e8     00 1C 0F F2 | p301            cmp rcnt,#0 wz
056ec     18 00 90 AD |         if_z    jmp #p306
056f0     01 1C 87 F1 |                 sub rcnt,#1
056f4     92 FB 02 F6 |                 mov dl,rdl
056f8     8F 21 0B F7 |                incmod rcnt2a,rcnt2 wz
056fc     91 FB 02 A1 |    if_z        add dl,roffset  
05700     7D 25 03 F6 |                 mov rdl,dl
05704     04 00 90 FD |                 jmp #p307          
05708                 |           
05708                 |                 
05708     7C FB 02 FB | p306            rdlong  dl,dlptr2
0570c     7D FF 1A F6 | p307            mov     framebuf2,dl wcz                  'read a line start in the framebuffer from DL entry
05710     6A FE 7A FD |                 rczr    framebuf2 wcz                     'but only if not %11 at lowest bits which means special DL entry
05714     34 00 90 7D |    if_nz_or_nc  jmp     #p303                        
05718                 | 
05718                 | '' Special entry:
05718                 | '' - repeat                 %nnnn_nnnn_nnnn_qqqq_mmmm_mmmm_mmmm_0111    repeat the next dl line n times, after q lines add offset m
05718                 | '' - reload palette         %mmmm_mmmm_nnnn_nnnn_qqqq_qqqq_qqqq_1011    reload n palette entries from m color from palette_ptr+q
05718                 | '' - set border color       %rrrr_rrrr_gggg_gggg_bbbb_bbbb_0001_0011    set border to rgb
05718                 | '' - set border color       %0000_0000_0000_0000_pppp_pppp_0001_1011    set border color to palette entry #p
05718                 | '' todo: set horizontal scroll (if needed)
05718                 | 
05718     02 FE 66 F0 |                 shl framebuf2,#2
0571c     7F 27 43 F8 |                 getnib dlc,framebuf2,#0
05720     04 26 0F F2 |                 cmp dlc,#%100 wz
05724                 |   
05724                 |                 
05724     04 F8 06 F1 |                 add dlptr2,#4
05728     BC FF 9F 5D |                              if_nz  jmp #p301  '' now ignore unknown instruction 
0572c     7C 25 03 FB |                  rdlong rdl,dlptr2
05730     7F 1D 3B F9 |                  getword rcnt,framebuf2,#1 
05734     04 1C 47 F0 |                  shr rcnt,#4
05738                 |              
05738     7F 1F 63 F8 |                  getnib rcnt2,framebuf2,#4
0573c     7F 23 33 F9 |                  getword roffset,framebuf2,#0
05740                 |                 
05740     04 22 47 F0 |                  shr roffset,#4
05744     0C 22 67 F0 |                  shl roffset,#12
05748                 |   
05748     9C FF 9F FD |                  jmp #p301
0574c                 |                  
0574c                 |                  
0574c                 | p303           ' mov     framebuf2,dl                    ' read a line start in the framebuffer from DL entry
0574c     0C FE 46 F0 |                 shr     framebuf2,#12
05750     02 FE 66 F0 |                 shl     framebuf2,#2
05754                 | 
05754     7D 07 E3 F8 |                 getbyte t1,dl,#0
05758     00 06 0F F2 |                 cmp     t1,#0 wz
0575c     34 00 90 AD |     if_z        jmp     #borderline
05760                 | 
05760     00 FA 16 F4 |                  testb   dl,#0  wc     ' bit 0 set = text OR extended:TODO
05764     50 00 90 CD |           if_c   jmp     #textline
05768     50 02 90 3D |           if_nc  jmp     #graphline
0576c                 | '
0576c     01 C2 06 F1 | p302            add     linenum,#1
05770     04 F8 06 F1 |                 add     dlptr2,#4
05774     5E C3 0A F2 |                 cmp     linenum,i_totalvis  wz
05778     6C FF 9F 5D |          if_nz  jmp     #p301
0577c                 | 
0577c     74 03 68 FC | p112            wrlong  #1,vblankptr
05780     07 B0 46 FB |                 callpa  i_downporch ,#blank             'bottom blanks
05784                 | 
05784     4C 01 03 F6 |                 mov     hsync0,sync_222                 'vsync on
05788     4D 03 03 F6 |                 mov     hsync1,sync_223
0578c     04 AE 46 FB |                 callpa  i_vsync,#blank                  'vertical sync blanks
05790     F8 FE 9F FD |                 jmp     #p101
05794                 | 
05794                 | '' ---------------  END of frame rendering loop -------------------------------------------
05794                 | 
05794                 | 
05794     14 00 B0 FD | borderline      call    #hsync                      ' make a border
05798     4E A5 C2 FC |                 xcont   m_vi,border
0579c     CC FF 9F FD |                 jmp     #p302
057a0                 | 
057a0                 | 
057a0     08 00 B0 FD | blank           call    #hsync                          'blank lines
057a4     80 A5 C2 FC |                 xcont   m_vi,hsync0
057a8     FD ED 6F 0B |         _ret_   djnz    pa,#blank
057ac                 | 
057ac     80 9F C2 FC | hsync           xcont   m_bs,hsync0                     'horizontal sync
057b0     81 A1 B2 FC |                 xzero   m_sn,hsync1
057b4     80 A3 C2 0C |         _ret_   xcont   m_bv,hsync0
057b8                 | 
057b8                 | 
057b8                 | 
057b8                 | ''--%aaaa_aaaa_aaaa_aaaa_aazz_nnnn_llll_ll_01 - txt
057b8                 |   '' aaaa_aaaa_aaaa_aaaa_aazz_rrrr_rrrr_cc_10 - graph
057b8                 |   '' aaaa_aaaa_aaaa-aaaa_aarr_rrrr_rrrr_rr_11 - extended, next long to read
057b8                 | 
057b8                 | '' Display a text line DL[31..12]=addr, nibble #1=textline, zoom: todo
057b8                 | 
057b8     65 D1 02 F6 | textline        mov     cursorpos2,cursorx              ' we need another var for cursor as this code will repeat 16x for every char line
057bc                 | 
057bc     7D 05 53 F8 |                 getnib  fontline,dl,#2                 ' fontline is 0 to 15, a line in font def
057c0     7D 1B 5B F8 |                 getnib  zoom, dl,#3
057c4     03 1A 07 F5 |                 and             zoom, #3
057c8                 | 
057c8                 | 
057c8                 | 
057c8     7D C1 02 F6 |                 mov     linestart,dl                    ' linestart will be used for checking cursor y and compute line start addr in the buffer
057cc     02 C0 46 F0 |                 shr     linestart,#2                    ' scanline to char line
057d0     3F C0 06 F5 |                 and     linestart,#63
057d4     66 C1 0A F2 |                 cmp     linestart,cursory wz            ' if the cursor is not here
057d8     81 D0 06 56 |           if_nz mov     cursorpos2,#129                 ' move it out of the screen
057dc                 | 
057dc     CC FF BF FD |                 call    #hsync                          ' now call hsync to gain some time between xconts
057e0                 | 
057e0                 |                        ' if fontline =0, get a border color
057e0                 | 
057e0     53 07 33 F9 | p102            getword t1,m_border,#0
057e4     00 06 0F F2 |                 cmp     t1, #0 wz
057e8     4E A7 C2 5C |           if_nz xcont   m_border,border                 ' display a left border if exists
057ec                 | 
057ec     63 05 1B F2 |                 cmp     fontline,cursorsh wcz           ' if the cursor have to be not displayed due to its shape
057f0     81 CE 06 C6 |           if_c  mov     cursorpos,#129                  ' move it out of the screen
057f4     68 CF 02 36 |          if_nc  mov     cursorpos,cursorpos2
057f8     01 CE 06 F1 |                 add     cursorpos,#1                    ' we will substract #1 below so compensate this here
057fc     72 09 03 F6 |                 mov     t2,fontbuf                      ' font definition pointer
05800     82 09 03 F1 |                 add     t2,fontline                     ' add a current font line
05804     54 BF 02 F6 |                 mov m_lut2, m_lut1
05808     6C BF 02 F1 |                 add m_lut2, lutt1
0580c     5A 13 03 F6 |                 mov cpl2,i_cpl
05810                 | 
05810     02 1A 0F F2 |                cmp zoom,#2 wz
05814     E4 00 90 AD |           if_z jmp #p420
05818     01 1A 0F F2 |                cmp zoom,#1 wz
0581c     64 00 90 AD |           if_z jmp #p410
05820     00 1A 0F F2 |                 cmp zoom,#0 wz
05824     04 00 90 AD |           if_z jmp #p400
05828     50 01 90 FD |                jmp #p430
0582c                 | 
0582c                 |                    '
0582c                 |  ''---------------------------------------------------------------------------------------------------------
0582c     7F 15 03 FB |  p400                   rdlong  char,framebuf2          ' read a long char                          '1
05830     8A 17 F3 F8 |                         getbyte backcolor,char,#2       ' byte #2 - background color                '2
05834     8A 19 FB F8 |                         getbyte charcolor,char,#3       ' byte #3 - foreground color                '3
05838     8A 15 E3 F8 |                         getbyte char,char, #0           ' word #0 - char code                       '4
0583c     04 FE 06 F1 |                         add     framebuf2,#4            ' point to the next long                    '5
05840     04 14 67 F0 |                         shl     char,#4                 ' 1 char=16 bytes in font def               '6
05844     84 15 03 F1 |                         add     char,t2                 ' add this to font/line pointer             '7
05848     8A 07 C3 FA |                         rdbyte  t1,char                 ' and get 8 pixels prom there               '8
0584c     01 CE 8E F1 |                         sub     cursorpos,#1 wz         ' if there is a cursor                      '9
05850     FF 06 67 A5 |                   if_z  xor     t1, #$FF                ' reverse the colors                        '10
05854                 | 
05854     83 BF C2 FC |                         xcont m_lut2,t1
05858                 | 
05858     8B 0F A3 FA |                         rdlut   t5,backcolor            ' read a background color from palette      '13
0585c     62 0F 33 FC |                         wrlut   t5,lutaddr              ' and write it to LUT #0 or #32             '14
05860     01 C4 06 F1 |                         add     lutaddr,#1                                                          '15
05864     8C 0F A3 FA |                         rdlut   t5,charcolor            ' the same for the foreground               '16
05868     62 0F 33 FC |                         wrlut   t5,lutaddr                                                          '17
0586c     01 C4 86 F1 |                         sub     lutaddr,#1
05870                 | 
05870     10 BE E6 F4 |                         bitnot  m_lut2,#16                                                          '19
05874     10 A8 E6 F4 |                         bitnot  m_lut1,#16                                                          '19
05878     20 C4 66 F5 |                         xor     lutaddr,#32             ' use LUT #0-1 and 32-33                    '20
0587c                 | 
0587c     EB 13 6F FB |                         djnz   cpl2,#p400
05880     28 01 90 FD |  p401                   jmp    #p103
05884                 | 
05884                 | ''------------------------------------------------------------------------------------------------------------
05884                 | 
05884     01 12 47 F0 |  p410                   shr cpl2,#1
05888                 | 
05888                 | ''---------------------------------------------------------------------------------------------------------
05888     7F 15 03 FB |  p412                   rdlong  char,framebuf2          ' read a long char                          '1
0588c     8A 17 F3 F8 |                         getbyte backcolor,char,#2       ' byte #2 - background color                '2
05890     8A 19 FB F8 |                         getbyte charcolor,char,#3       ' byte #3 - foreground color                '3
05894     8A 15 E3 F8 |                         getbyte char,char, #0           ' word #0 - char code                       '4
05898     04 FE 06 F1 |                         add     framebuf2,#4            ' point to the next long                    '5
0589c     04 14 67 F0 |                         shl     char,#4                 ' 1 char=16 bytes in font def               '6
058a0     84 15 03 F1 |                         add     char,t2                 ' add this to font/line pointer             '7
058a4     8A 07 C3 FA |                         rdbyte  t1,char                 ' and get 8 pixels prom there               '8
058a8     01 CE 8E F1 |                         sub     cursorpos,#1 wz         ' if there is a cursor                      '9
058ac     FF 06 67 A5 |                   if_z  xor     t1, #$FF                ' reverse the colors                        '10
058b0                 | 
058b0                 | 
058b0     83 0B 4B F8 |                         getnib t3,t1,#1                   ' 4 pixels to t3                                              '1  - +
058b4     83 07 43 F8 |                         getnib t1,t1,#0                   ' 4 pixels to t1                                                      '2  - +
058b8     63 06 63 FD |                         mergew t1                         ' make 01010101 from 1111                                     '3  - +
058bc     03 06 07 FA |                         mul t1,#3
058c0     83 BF C2 FC |                         xcont m_lut2,t1
058c4     8B 0F A3 FA |                         rdlut   t5,backcolor            ' read a background color from palette      '13
058c8     62 0F 33 FC |                         wrlut   t5,lutaddr              ' and write it to LUT #0 or #32             '14
058cc     01 C4 06 F1 |                         add     lutaddr,#1                                                          '15
058d0     8C 0F A3 FA |                         rdlut   t5,charcolor            ' the same for the foreground               '16
058d4     62 0F 33 FC |                         wrlut   t5,lutaddr                                                          '17
058d8     01 C4 86 F1 |                         sub     lutaddr,#1
058dc     63 0A 63 FD |                         mergew t3
058e0     03 0A 07 FA |                         mul t3,#3
058e4     85 BF C2 FC |                         xcont m_lut2,t3
058e8                 | 
058e8     10 BE E6 F4 |                         bitnot  m_lut2,#16                                                          '19
058ec     10 A8 E6 F4 |                         bitnot  m_lut1,#16                                                          '19
058f0                 | 
058f0     20 C4 66 F5 |                         xor     lutaddr,#32             ' use LUT #0-1 and 32-33                    '20
058f4                 | 
058f4     E4 13 6F FB |                         djnz   cpl2,#p412
058f8     B0 00 90 FD |  p411                   jmp    #p103
058fc                 | 
058fc                 | ''------------------------------------------------------------------------------------------------------------
058fc                 | 
058fc     02 12 47 F0 |  p420                   shr cpl2,#2
05900                 | 
05900                 | ''---------------------------------------------------------------------------------------
05900     7F 15 03 FB |  p422                   rdlong  char,framebuf2          ' read a long char                          '1
05904     8A 17 F3 F8 |                         getbyte backcolor,char,#2       ' byte #2 - background color                '2
05908     8A 19 FB F8 |                         getbyte charcolor,char,#3       ' byte #3 - foreground color                '3
0590c     8A 15 E3 F8 |                         getbyte char,char, #0           ' word #0 - char code                       '4
05910     04 FE 06 F1 |                         add     framebuf2,#4            ' point to the next long                    '5
05914     04 14 67 F0 |                         shl     char,#4                 ' 1 char=16 bytes in font def               '6
05918     84 15 03 F1 |                         add     char,t2                 ' add this to font/line pointer             '7
0591c     8A 07 C3 FA |                         rdbyte  t1,char                 ' and get 8 pixels prom there               '8
05920     01 CE 8E F1 |                         sub     cursorpos,#1 wz         ' if there is a cursor                      '9
05924     FF 06 67 A5 |                   if_z  xor     t1, #$FF                ' reverse the colors                        '10
05928                 | 
05928     61 06 63 FD |                         mergeb t1
0592c     83 0B 3B F9 |                         getword t3,t1,#1
05930     0F 06 07 FA |                         mul t1,#15
05934     83 BF C2 FC |                         xcont m_lut2,t1
05938                 | 
05938     8B 0F A3 FA |                         rdlut   t5,backcolor            ' read a background color from palette      '13
0593c     62 0F 33 FC |                         wrlut   t5,lutaddr              ' and write it to LUT #0 or #32             '14
05940     01 C4 06 F1 |                         add     lutaddr,#1                                                          '15
05944     8C 0F A3 FA |                         rdlut   t5,charcolor            ' the same for the foreground               '16
05948     62 0F 33 FC |                         wrlut   t5,lutaddr                                                          '17
0594c     01 C4 86 F1 |                         sub     lutaddr,#1
05950                 | 
05950     83 0D EB F8 |                         getbyte t4,t1,#1        '
05954     86 BF C2 FC |                         xcont m_lut2,t4                                                                                                           '
05958                 | 
05958     0F 0A 07 FA |                         mul t3,#15
0595c     85 BF C2 FC |                         xcont m_lut2,t3
05960                 | 
05960     85 0F EB F8 |                         getbyte t5,t3,#1
05964     87 BF C2 FC |                         xcont m_lut2, t5
05968     10 BE E6 F4 |                         bitnot  m_lut2,#16                                                          '19
0596c     10 A8 E6 F4 |                         bitnot  m_lut1,#16                                                          '19
05970                 | 
05970     20 C4 66 F5 |                         xor     lutaddr,#32             ' use LUT #0-1 and 32-33                    '20
05974                 | 
05974     E2 13 6F FB |                         djnz   cpl2,#p422
05978     30 00 90 FD |  p421                   jmp    #p103
0597c                 | 
0597c                 | '--------------------------------------------------------------------------------------------------------------
0597c                 | 
0597c     7F 15 03 FB |  p430                   rdlong  char,framebuf2          ' read a long char                          '1
05980     8A 17 F3 F8 |                         getbyte backcolor,char,#2       ' byte #2 - background color                '2
05984     8A 19 FB F8 |                         getbyte charcolor,char,#3       ' byte #3 - foreground color                '3
05988                 | 
05988     00 BE C6 FC |                         xcont m_lut2,#0
0598c                 | 
0598c     8B 0F A3 FA |                         rdlut   t5,backcolor            ' read a background color from palette      '13
05990     62 0F 33 FC |                         wrlut   t5,lutaddr              ' and write it to LUT #0 or #32             '14
05994     01 C4 06 F1 |                         add     lutaddr,#1                                                          '15
05998     8C 0F A3 FA |                         rdlut   t5,charcolor            ' the same for the foreground               '16
0599c     62 0F 33 FC |                         wrlut   t5,lutaddr                                                          '17
059a0     01 C4 86 F1 |                         sub     lutaddr,#1
059a4                 | 
059a4     F5 13 6F FB |                         djnz   cpl2,#p430
059a8     00 00 90 FD |  p431                   jmp    #p103
059ac                 | 
059ac                 | ''------------------------------------------------------------------------------------------------------------
059ac                 | 
059ac                 | 
059ac                 | 
059ac     53 07 33 F9 | p103            getword  t1,m_border,#0
059b0     00 06 0F F2 |                 cmp      t1, #0 wz
059b4     4E A7 C2 5C |                 if_nz    xcont   m_border,border            'display a right border if exists
059b8                 | 
059b8     B0 FD 9F FD |                 jmp #p302
059bc                 | 
059bc                 | '' -------------------------------------- END of text line ---------------------------------
059bc                 | 
059bc                 |   '' aaaa_aaaa_aaaa_aaaa_aazz_rrrr_rrrr_cc_10 - graph - display a graphics line
059bc                 | 
059bc     EC FD BF FD | graphline       call    #hsync                          ' now call hsync to gain some time between xconts
059c0                 | 
059c0                 | 
059c0     53 07 33 F9 | p202            getword t1,m_border,#0
059c4     00 06 0F F2 |                 cmp     t1, #0 wz
059c8     4E A7 C2 5C |           if_nz xcont   m_border,border                 ' display a left border if exists
059cc                 | 
059cc                 | '----------------------------------------- display pixels
059cc                 | 
059cc     54 BF 02 F6 |                 mov     m_lut2,m_lut1                   ' m_lut1 loaded from hub timing block, pixel per long
059d0     5A 13 03 F6 |                 mov     cpl2,i_cpl                      ' i_cpl in graphic modes is longs per line
059d4                 | 
059d4     7D 1B 5B F8 |                 getnib  zoom, dl,#3
059d8     03 1A 07 F5 |                 and             zoom, #3                        ' get a horizontal zoom for the line
059dc                 | 
059dc     7D C1 02 F6 |                 mov     colordepth,dl                   ' get a color depth, reuse linestart var f         '
059e0     0C C0 06 F5 |                 and     colordepth,#12
059e4                 | 
059e4     00 C0 0E F2 |                 cmp     colordepth,#%0000 wz            ' 1 bpp modes
059e8     6D BF 02 A1 |           if_z  add     m_lut2,lutg1
059ec     68 00 90 AD |           if_z  jmp     #p240
059f0                 | 
059f0     04 C0 0E F2 |                 cmp     colordepth,#%0100 wz            ' 2 bpp modes
059f4     6E BF 02 A1 |           if_z  add     m_lut2,lutg2
059f8     9C 00 90 AD |           if_z  jmp     #p250
059fc                 | 
059fc     08 C0 0E F2 |                 cmp     colordepth,#%1000 wz            ' 4 bpp modes
05a00     6F BF 02 A1 |           if_z  add     m_lut2,lutg4
05a04     00 01 90 AD |           if_z  jmp     #p260
05a08                 | 
05a08     70 BF 02 F1 |                 add m_lut2,lutg8                        ' 8 bpp modes
05a0c                 | 
05a0c                 | '' --- 8 bit color modes
05a0c                 | 
05a0c     00 1A 0F F2 |                 cmp zoom, #%00 wz   '256 colors, zoom x1
05a10     54 01 90 AD |                 if_z jmp #p251      'there is an universal loop for 1x zoom at p251, saves one long of skip pattern
05a14                 | 
05a14     01 1A 0F F2 |                 cmp zoom, #%01 wz   '256 colors, zoom x2
05a18     2A 10 07 A6 |            if_z mov skippattern,#%101010
05a1c                 |  '
05a1c     02 1A 0F F2 |                 cmp zoom, #%10 wz   '256 colors, zoom x4
05a20     19 10 07 A6 |            if_z mov skippattern,#%011001
05a24                 |  '
05a24     03 1A 0F F2 |                 cmp zoom, #%11 wz   '256 colors, zoom x8
05a28     11 10 07 A6 |           if_z  mov skippattern,#%010001
05a2c     01 12 47 A0 |           if_z  shr cpl2,#1         ' if 8x zoom, 2 xconts used in one loop, so divide loop count by 2
05a30                 |               '
05a30                 | 
05a30     7F 15 03 FB | p231               rdlong  char,framebuf2
05a34     32 10 63 FD |                    skipf skippattern
05a38     50 14 FF F9 |                    movbyts char,#%01010000         '0 1 1
05a3c     00 14 FF F9 |                    movbyts char,#%00000000         '1 0 0
05a40     8A BF C2 FC |                    xcont   m_lut2,char             '0 0 0
05a44     8A BF C2 FC |                    xcont   m_lut2,char             '1 1 0
05a48                 |               '    add     framebuf2,#4            '1 1 1
05a48     02 FE 06 F1 |                    add     framebuf2,#2                    '0 1 1
05a4c     01 FE 06 F1 |                    add     framebuf2,#1                '1 0 0
05a50     F7 13 6F FB |                    djnz    cpl2,#p231
05a54                 | 
05a54     20 01 90 FD |                jmp    #p203
05a58                 | 
05a58                 | '' --- 1 bit color modes
05a58                 | 
05a58     00 1A 0F F2 | p240          cmp zoom, #%00 wz     '2 colors, zoom x1
05a5c     08 01 90 AD |        if_z   jmp #p251              'there is an universal loop for 1x zoom at p251, saves one long of skip pattern
05a60                 | 
05a60     01 1A 0F F2 |               cmp zoom, #%01 wz     '2 colors, zoom x2
05a64     13 10 07 A6 |        if_z   mov skippattern,#%10011
05a68     08 10 07 56 |        if_nz  mov skippattern,#%01000
05a6c                 | 
05a6c                 | 
05a6c     7F 15 E3 FA | p241               rdword  char,framebuf2
05a70     44 14 FF F9 |                    movbyts char,#%01000100
05a74     63 14 63 FD |                    mergew  char
05a78     32 10 63 FD |                    skipf skippattern
05a7c     44 14 FF F9 |                    movbyts char,#%01000100         ' 1 0
05a80     63 14 63 FD |                    mergew  char                    ' 1 0
05a84     8A BF C2 FC |                    xcont   m_lut2,char             ' 0 0
05a88     02 FE 06 F1 |                    add     framebuf2,#2                    ' 0 1
05a8c     01 FE 06 F1 |                    add     framebuf2,#1                ' 1 0
05a90     F6 13 6F FB |                    djnz   cpl2,#p241
05a94                 | 
05a94                 | 
05a94     E0 00 90 FD |                jmp    #p203
05a98                 | 
05a98                 | '' --- 2 bit color modes
05a98                 | 
05a98     00 1A 0F F2 | p250          cmp zoom, #%00 wz     '4 colors, zoom x1
05a9c     C8 00 90 AD |        if_z   jmp #p251
05aa0                 | 
05aa0     01 1A 0F F2 |               cmp zoom, #%01 wz     '4 colors, zoom x2
05aa4     30 00 90 AD |        if_z   jmp #p252
05aa8                 | 
05aa8                 | 
05aa8     7F 15 C3 FA | p254               rdbyte char,framebuf2
05aac     04 0E 07 F6 |                    mov  t5,#4
05ab0     02 14 67 F0 | p255               shl  char,#2
05ab4     8A 07 53 F8 |                    getnib  t1,char,#2
05ab8     03 06 07 F5 |                    and     t1,#3
05abc     55 06 07 FA |                    mul     t1,#$55
05ac0     83 09 03 F9 |                    rolbyte  t2,t1,#0
05ac4     FA 0F 6F FB |                    djnz    t5,#p255
05ac8     84 BF C2 FC |                    xcont   m_lut2,t2
05acc     01 FE 06 F1 |                    add     framebuf2,#1
05ad0     F5 13 6F FB |                    djnz    cpl2,#p254
05ad4     A0 00 90 FD |                    jmp     #p203
05ad8                 | 
05ad8     7F 15 E3 FA | p252               rdword char,framebuf2
05adc     08 0E 07 F6 |                    mov  t5,#8
05ae0     02 14 67 F0 | p253               shl  char,#2
05ae4     8A 07 63 F8 |                    getnib  t1,char,#4
05ae8     03 06 07 F5 |                    and     t1,#3
05aec     05 06 07 FA |                    mul     t1,#5
05af0     83 09 83 F8 |                    rolnib  t2,t1,#0
05af4     FA 0F 6F FB |                    djnz    t5,#p253
05af8     84 BF C2 FC |                    xcont   m_lut2,t2
05afc     02 FE 06 F1 |                    add     framebuf2,#2
05b00     F5 13 6F FB |                    djnz    cpl2,#p252
05b04     70 00 90 FD |                    jmp     #p203
05b08                 | 
05b08                 | '' ------ 4 bit color modes
05b08                 | 
05b08     00 1A 0F F2 | p260          cmp zoom, #%00 wz     '4 colors, zoom x1, the same loop as 2bpp
05b0c     58 00 90 AD |        if_z   jmp #p251
05b10                 | 
05b10     01 1A 0F F2 |               cmp zoom, #%01 wz     '4 colors, zoom x2
05b14     2C 00 90 AD |        if_z   jmp #p262
05b18                 | 
05b18                 | 
05b18     7F 15 C3 FA | p263               rdbyte char,framebuf2
05b1c     02 0A DC FC |                            rep #5,#2
05b20     8A 09 8B F8 |                              rolnib t2,char,#1
05b24     8A 09 8B F8 |                                  rolnib t2,char,#1
05b28     8A 09 8B F8 |                              rolnib t2,char,#1
05b2c     8A 09 8B F8 |                                  rolnib t2,char,#1
05b30     04 14 67 F0 |                              shl char,#4
05b34     84 BF C2 FC |                    xcont   m_lut2,t2
05b38     01 FE 06 F1 |                    add     framebuf2,#1
05b3c     F6 13 6F FB |                    djnz    cpl2,#p263
05b40     34 00 90 FD |                    jmp     #p203
05b44                 | 
05b44     7F 15 E3 FA | p262               rdword  char,framebuf2
05b48     04 06 DC FC |                            rep #3,#4
05b4c     8A 09 9B F8 |                              rolnib t2,char,#3
05b50     8A 09 9B F8 |                                  rolnib t2,char,#3
05b54     04 14 67 F0 |                              shl char,#4
05b58     84 BF C2 FC |                    xcont   m_lut2,t2
05b5c     02 FE 06 F1 |                    add     framebuf2,#2
05b60     F8 13 6F FB |                    djnz    cpl2,#p262
05b64     10 00 90 FD |                    jmp     #p203
05b68                 | 
05b68                 | ''---------- all color modes without zoom
05b68                 | 
05b68     7F 15 03 FB | p251               rdlong  char,framebuf2
05b6c     8A BF C2 FC |                    xcont   m_lut2,char
05b70     04 FE 06 F1 |                    add     framebuf2,#4
05b74     FC 13 6F FB |                    djnz    cpl2,#p251     ' no jmp #p203, not needed here
05b78                 | 
05b78                 |  ''-----------------------------------------------------------------------------------------
05b78     53 07 33 F9 | p203            getword  t1,m_border,#0
05b7c     00 06 0F F2 |                 cmp      t1, #0 wz
05b80     4E A7 C2 5C |                 if_nz    xcont   m_border,border            'display a right border if exists
05b84                 | 
05b84     E4 FB 9F FD |                 jmp #p302
05b88                 | 
05b88                 | '' -------------------------------------- END of graph  line ---------------------------------
05b88                 | 
05b88                 | '' consts and vars
05b88                 | 
05b88     52 4D 35 D5 | sync_000        long    %1101010100_1101010100_1101010100_10    '
05b8c     AE 42 35 D5 | sync_001        long    %1101010100_1101010100_0010101011_10    '        hsync
05b90     52 45 15 55 | sync_222        long    %0101010100_0101010100_0101010100_10    'vsync
05b94     AE 4A 15 55 | sync_223        long    %0101010100_0101010100_1010101011_10    'vsync + hsync
05b98                 | 
05b98     00 2C 1A 00 | border          long    %00000000_00011010_00101100_00000000
05b9c                 | 
05b9c                 | '------ these longs will be set by setmode function
05b9c                 | 
05b9c     00 00 00 00 | m_bs            long    0        'blanks before sync
05ba0     00 00 00 00 | m_sn            long    0        'sync
05ba4     00 00 00 00 | m_bv            long    0        'blanks before visible
05ba8     00 00 00 00 | m_vi            long    0        'visible pixels #
05bac     00 00 00 00 | m_border        long    0        'left/right borders
05bb0     00 00 00 00 | m_lut1          long    0        'characters
05bb4     00 00 00 00 | i_vborder       long    0        'up/down borders
05bb8     00 00 00 00 | i_upporch       long    0        'up porch lines
05bbc     00 00 00 00 | i_vsync         long    0        'vsync lines
05bc0     00 00 00 00 | i_downporch     long    0        'down porch lines
05bc4     00 00 00 00 | i_modenum       long    0        'mode #
05bc8     00 00 00 00 | i_cpl           long    0        'chars/longs per line
05bcc     00 00 00 00 | i_lines         long    0        'scanlines #
05bd0     00 00 00 00 | i_clock         long    0
05bd4     00 00 00 00 | i_hubset        long    0
05bd8     00 00 00 00 | i_totalvis      long    0
05bdc                 | 
05bdc                 | '-------------------------------------
05bdc                 | 
05bdc     00 00 00 00 | m_lut2          long    0
05be0                 | 
05be0                 | colordepth
05be0     00 00 00 00 | linestart       long    0
05be4     00 00 00 00 | linenum         long    0
05be8     00 01 00 00 | lutaddr         long    256
05bec                 | 
05bec     0E 00 00 00 | cursorsh        long    14
05bf0     00 00 00 00 | frames          long    0
05bf4     00 00 00 00 | cursorx         long    0
05bf8     00 00 00 00 | cursory         long    0
05bfc     00 00 00 00 | cursorpos       long    0
05c00     00 00 00 00 | cursorpos2      long    0
05c04     00 00 00 00 | fontstart       long    0
05c08     00 00 00 00 | border2         long 0
05c0c     00 00 81 70 | lutiv           long $70810000
05c10     00 00 88 00 | lutt1           long $00880000
05c14     00 00 80 00 | lutg1           long $00800000
05c18     00 00 80 10 | lutg2           long $10800000
05c1c     00 00 80 20 | lutg4           long $20800000
05c20     00 00 80 30 | lutg8           long $30800000
05c24     00 00 00 00 | framebuf        long 0
05c28     00 00 00 00 | fontbuf         long 0
05c2c     00 00 00 00 | borderptr       long 0
05c30     00 00 00 00 | vblankptr       long 0
05c34     00 00 00 00 | cursorptr       long 0
05c38     00 00 00 00 | modeptr         long 0
05c3c     00 00 00 00 | paletteptr      long 0
05c40     00 00 00 00 | dlptr           long 0
05c44                 | fontnumptr      res     1
05c44                 | hbase           res     1
05c44                 | borderptr2      res     1
05c44                 | dlptr2 res 1
05c44                 | dl              res 1
05c44                 | ii              res     1
05c44                 | framebuf2       res     1
05c44                 | hsync0          res     1
05c44                 | hsync1          res     1
05c44                 | fontline        res     1
05c44                 | t1              res     1
05c44                 | t2              res     1
05c44                 | t3 res 1
05c44                 | t4 res 1
05c44                 | t5 res 1
05c44                 | skippattern res 1
05c44                 | cpl2 res 1
05c44                 | char            res     1
05c44                 | backcolor       res     1
05c44                 | charcolor       res     1
05c44                 | zoom res 1
05c44     00 00 00 00 | rcnt long 0 'dl repeat count
05c48     00 00 00 00 | rcnt2 long 0
05c4c     00 00 00 00 | rcnt2a long 0
05c50     00 00 00 00 | roffset long 0
05c54     00 00 00 00 | rdl long 0  'dl repeat line
05c58     00 00 00 00 | dlc long 0 'dl command
05c5c     00 00 00 00 | aend             long 0
05c60                 | 	alignl
05c60                 | __system__dat_
05c60     00 00 00 00 
05c64     00 00 00 00 
05c68     03 00 00 00 
05c6c     00 00 00 00 | 	byte	$00, $00, $00, $00, $00, $00, $00, $00, $03, $00, $00, $00, $00, $00, $00, $00
05c70                 | __heap_base
05c70     00 00 00 00 
      ...             
06c70     00 00 00 00 
06c74     00 00 00 00 | 	long	0[1026]
06c78                 | objmem
06c78     00 00 00 00 | 	long	0[1]
06c7c 0e1             | 	org	COG_BSS_START
06c7c 0e1             | _var01
06c7c 0e1             | 	res	1
06c7c 0e2             | _var02
06c7c 0e2             | 	res	1
06c7c 0e3             | _var03
06c7c 0e3             | 	res	1
06c7c 0e4             | _var04
06c7c 0e4             | 	res	1
06c7c 0e5             | _var05
06c7c 0e5             | 	res	1
06c7c 0e6             | _var06
06c7c 0e6             | 	res	1
06c7c 0e7             | _var07
06c7c 0e7             | 	res	1
06c7c 0e8             | _var08
06c7c 0e8             | 	res	1
06c7c 0e9             | _var09
06c7c 0e9             | 	res	1
06c7c 0ea             | _var10
06c7c 0ea             | 	res	1
06c7c 0eb             | _var11
06c7c 0eb             | 	res	1
06c7c 0ec             | _var12
06c7c 0ec             | 	res	1
06c7c 0ed             | _var13
06c7c 0ed             | 	res	1
06c7c 0ee             | _var14
06c7c 0ee             | 	res	1
06c7c 0ef             | _var15
06c7c 0ef             | 	res	1
06c7c 0f0             | _var16
06c7c 0f0             | 	res	1
06c7c 0f1             | _var17
06c7c 0f1             | 	res	1
06c7c 0f2             | _var18
06c7c 0f2             | 	res	1
06c7c 0f3             | _var19
06c7c 0f3             | 	res	1
06c7c 0f4             | _var20
06c7c 0f4             | 	res	1
06c7c 0f5             | _var21
06c7c 0f5             | 	res	1
06c7c 0f6             | _var22
06c7c 0f6             | 	res	1
06c7c 0f7             | _var23
06c7c 0f7             | 	res	1
06c7c 0f8             | _var24
06c7c 0f8             | 	res	1
06c7c 0f9             | _var25
06c7c 0f9             | 	res	1
06c7c 0fa             | _var26
06c7c 0fa             | 	res	1
06c7c 0fb             | _var27
06c7c 0fb             | 	res	1
06c7c 0fc             | _var28
06c7c 0fc             | 	res	1
06c7c 0fd             | _var29
06c7c 0fd             | 	res	1
06c7c 0fe             | _var30
06c7c 0fe             | 	res	1
06c7c 0ff             | _var31
06c7c 0ff             | 	res	1
06c7c 100             | _var32
06c7c 100             | 	res	1
06c7c 101             | _var33
06c7c 101             | 	res	1
06c7c 102             | _var34
06c7c 102             | 	res	1
06c7c 103             | _var35
06c7c 103             | 	res	1
06c7c 104             | _var36
06c7c 104             | 	res	1
06c7c 105             | _var37
06c7c 105             | 	res	1
06c7c 106             | _var38
06c7c 106             | 	res	1
06c7c 107             | _var39
06c7c 107             | 	res	1
06c7c 108             | _var40
06c7c 108             | 	res	1
06c7c 109             | _var41
06c7c 109             | 	res	1
06c7c 10a             | _var42
06c7c 10a             | 	res	1
06c7c 10b             | _var43
06c7c 10b             | 	res	1
06c7c 10c             | _var44
06c7c 10c             | 	res	1
06c7c 10d             | _var45
06c7c 10d             | 	res	1
06c7c 10e             | _var46
06c7c 10e             | 	res	1
06c7c 10f             | _var47
06c7c 10f             | 	res	1
06c7c 110             | arg01
06c7c 110             | 	res	1
06c7c 111             | arg02
06c7c 111             | 	res	1
06c7c 112             | arg03
06c7c 112             | 	res	1
06c7c 113             | arg04
06c7c 113             | 	res	1
06c7c 114             | arg05
06c7c 114             | 	res	1
06c7c 115             | local01
06c7c 115             | 	res	1
06c7c 116             | local02
06c7c 116             | 	res	1
06c7c 117             | local03
06c7c 117             | 	res	1
06c7c 118             | local04
06c7c 118             | 	res	1
06c7c 119             | local05
06c7c 119             | 	res	1
06c7c 11a             | local06
06c7c 11a             | 	res	1
06c7c 11b             | local07
06c7c 11b             | 	res	1
06c7c 11c             | local08
06c7c 11c             | 	res	1
06c7c 11d             | local09
06c7c 11d             | 	res	1
06c7c 11e             | local10
06c7c 11e             | 	res	1
06c7c 11f             | local11
06c7c 11f             | 	res	1
06c7c 120             | local12
06c7c 120             | 	res	1
06c7c 121             | local13
06c7c 121             | 	res	1
06c7c 122             | local14
06c7c 122             | 	res	1
06c7c 123             | local15
06c7c 123             | 	res	1
06c7c 124             | local16
06c7c 124             | 	res	1
06c7c 125             | local17
06c7c 125             | 	res	1
06c7c 126             | local18
06c7c 126             | 	res	1
06c7c 127             | local19
06c7c 127             | 	res	1
06c7c 128             | local20
06c7c 128             | 	res	1
06c7c 129             | local21
06c7c 129             | 	res	1
06c7c 12a             | local22
06c7c 12a             | 	res	1
06c7c 12b             | local23
06c7c 12b             | 	res	1
06c7c 12c             | local24
06c7c 12c             | 	res	1
06c7c 12d             | local25
06c7c 12d             | 	res	1
06c7c 12e             | local26
06c7c 12e             | 	res	1
06c7c 12f             | local27
06c7c 12f             | 	res	1
06c7c 130             | local28
06c7c 130             | 	res	1
06c7c 131             | local29
06c7c 131             | 	res	1
06c7c 132             | local30
06c7c 132             | 	res	1
06c7c 133             | local31
06c7c 133             | 	res	1
06c7c 134             | local32
06c7c 134             | 	res	1
06c7c 135             | local33
06c7c 135             | 	res	1
06c7c 136             | local34
06c7c 136             | 	res	1
06c7c 137             | local35
06c7c 137             | 	res	1
06c7c 138             | local36
06c7c 138             | 	res	1
06c7c 139             | local37
06c7c 139             | 	res	1
06c7c 13a             | local38
06c7c 13a             | 	res	1
06c7c 13b             | local39
06c7c 13b             | 	res	1
06c7c 13c             | local40
06c7c 13c             | 	res	1
06c7c 13d             | local41
06c7c 13d             | 	res	1
06c7c 13e             | local42
06c7c 13e             | 	res	1
06c7c 13f             | local43
06c7c 13f             | 	res	1
06c7c 140             | local44
06c7c 140             | 	res	1
06c7c 141             | local45
06c7c 141             | 	res	1
06c7c 142             | muldiva_
06c7c 142             | 	res	1
06c7c 143             | muldivb_
06c7c 143             | 	res	1
06c7c 144             | 	fit	480
06c7c 144             | 
