
00000                 | 
00000                 | #line 1 "D:/Programowanie/ultibo-propeller/hng012/hng013.p2asm"
00000                 | ' 
00000                 | ' 
00000                 | ' hdmi_base       = 48             'must be a multiple of 8
00000                 | con
00000                 | 	hdmi_base = 48
00000                 | ' _clkfreq        = 345_000_000    'start safe, hubset will do the rest. The clock will be changed to:
00000                 | 	_clkfreq = 345000000
00000                 | ' 
00000                 | ' ' 354_689_500   200x Atari 8-bit PAL,  50x Amiga PAL  - real settings: 49,869-> 354_693_878  - 1.0000123 - mode 0 and 192
00000                 | ' ' 357_954_500   200x Atari 8-bit NTSC, 50x Amiga NTSC - real settings: 49,877-> 357_959_184  - 1.0000131 - mode 256
00000                 | ' 
00000                 | ' ' 319_220_550   180x PAL  - real settings: 51,814-> 319_215_686 - 0.9999848 - mode 64
00000                 | ' ' 322_159_050   180x NTSC - real settings: 37,596-> 322_162_162 - 1.0000097 - mode 320 and 448
00000                 | ' 
00000                 | ' ' 283_751_600   160x PAL  - real settings: 64,908-> 283_750_000 - 0.9999944 - mode 128
00000                 | ' ' 286_363_600   160x NTSC - real settings: 22,315-> 286_363_636 - 1.0000001 - mode 384
00000                 | ' 
00000                 | ' ''--------- VGA DOS color definition constants
00000                 | ' 
00000                 | ' c_black         =    0
00000                 | 	c_black = 0
00000                 | ' c_blue          =  117
00000                 | 	c_blue = 117
00000                 | ' c_green         =  199
00000                 | 	c_green = 199
00000                 | ' c_cyan          =  149
00000                 | 	c_cyan = 149
00000                 | ' c_red           =   39
00000                 | 	c_red = 39
00000                 | ' c_magenta       =   71
00000                 | 	c_magenta = 71
00000                 | ' c_brown         =  246
00000                 | 	c_brown = 246
00000                 | ' c_lightgray     =   10
00000                 | 	c_lightgray = 10
00000                 | ' c_darkgray      =    5
00000                 | 	c_darkgray = 5
00000                 | ' c_lightblue     =  121
00000                 | 	c_lightblue = 121
00000                 | ' c_lightgreen    =  203
00000                 | 	c_lightgreen = 203
00000                 | ' c_lightcyan     =  155
00000                 | 	c_lightcyan = 155
00000                 | ' c_lightred      =   43
00000                 | 	c_lightred = 43
00000                 | ' c_lightmagenta  =   75
00000                 | 	c_lightmagenta = 75
00000                 | ' c_yellow        =  234
00000                 | 	c_yellow = 234
00000                 | ' c_white         =   15
00000                 | 	c_white = 15
00000                 | dat
00000 000 00 00 00 00 | 	nop
00004 001 01 EC 63 FD | 	cogid	pa
00008 002 02 00 00 FF 
0000c 003 04 EC E7 FC | 	coginit	pa,##$404
00010                 | 	orgh	$10
00010     00 00 00 00 | 	long	0	'reserved
00014     00 00 00 00 | 	long	0 ' clock frequency: will default to 345000000
00018     00 00 00 00 | 	long	0 ' clock mode: will default to $10c44fb
0001c     00 00 00 00 
      ...             
003f8     00 00 00 00 
003fc     00 00 00 00 | 	orgh	$400
00400     00 F8 04 06 |  _ret_	mov	result1, #0
00404 000             | 	org	0
00404 000             | entry
00404 000 00 F0 0F F2 | 	cmp	ptra, #0 wz
00408 001 94 00 90 5D |  if_ne	jmp	#spininit
0040c 002 7B F0 03 F6 | 	mov	ptra, ptr_stackspace_
00410 003 14 EC 0F FB | 	rdlong	pa, #20 wz
00414 004 6C 00 90 5D |  if_ne	jmp	#skip_clock_set_
00418 005 00 00 64 FD | 	hubset	#0
0041c 006 22 86 80 FF 
00420 007 00 F0 65 FD | 	hubset	##17581304
00424 008 86 01 80 FF 
00428 009 1F 80 66 FD | 	waitx	##200000
0042c 00a 22 86 00 FF 
00430 00b FB EC 07 F6 | 	mov	pa, ##17581307
00434 00c 00 EC 63 FD | 	hubset	pa
00438 00d 18 EC 67 FC | 	wrlong	pa, #24
0043c 00e 24 48 8A FF 
00440 00f 14 80 6C FC | 	wrlong	##345000000, #20
00444 010 3C 00 90 FD | 	jmp	#skip_clock_set_
00448 011 00 00 00 00 
      ...             
0047c 01e 00 00 00 00 
00480 01f 00 00 00 00 | 	orgf	32
00484 020             | skip_clock_set_
00484 020 04 EA 60 FD | 	locknew	__lockreg
00488 021 79 EA 60 FC | 	wrlong	__lockreg, ptr___lockreg_
0048c 022 F8 05 A0 FD | 	call	#_dummy
00490 023             | cogexit
00490 023 38 01 80 FF 
00494 024 1F 00 66 FD | 	waitx	##160000
00498 025 01 16 61 FD | 	cogid	arg01
0049c 026 03 16 61 FD | 	cogstop	arg01
004a0 027             | spininit
004a0 027 00 F1 04 FB | 	rdlong	objptr, ptra
004a4 028 04 F0 07 F1 | 	add	ptra, #4
004a8 029 00 F9 04 FB | 	rdlong	result1, ptra
004ac 02a 04 F0 07 F1 | 	add	ptra, #4
004b0 02b 00 17 05 FB | 	rdlong	arg01, ptra
004b4 02c 04 F0 07 F1 | 	add	ptra, #4
004b8 02d 00 19 05 FB | 	rdlong	arg02, ptra
004bc 02e 04 F0 07 F1 | 	add	ptra, #4
004c0 02f 00 1B 05 FB | 	rdlong	arg03, ptra
004c4 030 04 F0 07 F1 | 	add	ptra, #4
004c8 031 00 1D 05 FB | 	rdlong	arg04, ptra
004cc 032 10 F0 87 F1 | 	sub	ptra, #16
004d0 033 2D F8 60 FD | 	call	result1
004d4 034 B8 FF 9F FD | 	jmp	#cogexit
004d8 035             | FCACHE_LOAD_
004d8 035 2B 86 60 FD |     pop	fcache_tmpb_
004dc 036 F6 87 00 F1 |     add	fcache_tmpb_, pa
004e0 037 2A 86 60 FD |     push	fcache_tmpb_
004e4 038 F6 87 80 F1 |     sub	fcache_tmpb_, pa
004e8 039 02 EC 47 F0 |     shr	pa, #2
004ec 03a F6 85 00 F6 |     mov	fcache_tmpa_, pa
004f0 03b 00 85 04 F1 |     add	fcache_tmpa_, #$100
004f4 03c 42 82 30 FC |     wrlut ret_instr_, fcache_tmpa_
004f8 03d 01 EC 87 F1 |     sub	pa, #1
004fc 03e 29 EC 63 FD |     setq2	pa
00500 03f 43 00 02 FB |     rdlong	$100-0, fcache_tmpb_
00504 040 00 03 80 FD |     jmp	#\$300 ' jmp to cache
00508 041             | ret_instr_
00508 041 2D 00 64 FD |     ret
0050c 042             | fcache_tmpa_
0050c 042 00 00 00 00 |     long 0
00510 043             | fcache_tmpb_
00510 043 00 00 00 00 |     long 0
00514 044             | COUNT_
00514 044 00 00 00 00 |     long 0
00518 045             | RETADDR_
00518 045 00 00 00 00 |     long 0
0051c 046             | fp
0051c 046 00 00 00 00 |     long 0
00520 047             | gosub_
00520 047 00 88 04 F6 |     mov  COUNT_, #0
00524 048 8B EC 03 F6 |     mov  pa, arg01
00528 049 2B 8A 60 FD |     pop  RETADDR_
0052c 04a 1C 00 90 FD |     jmp  #pushregs_done_
00530 04b             | pushregs_
00530 04b 2B EC 63 FD |     pop  pa
00534 04c 2B 8A 60 FD |     pop  RETADDR_
00538 04d 04 88 94 FB |     tjz  COUNT_, #pushregs_done_
0053c 04e 01 88 84 F1 |     sub  COUNT_, #1
00540 04f 28 88 60 FD |     setq COUNT_
00544 050 00 3B 65 FC |     wrlong local01, ptra
00548 051 01 88 04 F1 |     add  COUNT_, #1
0054c 052             | pushregs_done_
0054c 052 02 88 64 F0 |     shl  COUNT_, #2
00550 053 44 F0 03 F1 |     add  ptra, COUNT_
00554 054 02 88 44 F0 |     shr  COUNT_, #2
00558 055 28 04 64 FD |     setq #2 ' push 3 registers starting at COUNT_
0055c 056 00 89 64 FC |     wrlong COUNT_, ptra
00560 057 0C F0 07 F1 |     add    ptra, #12
00564 058 F8 8D 00 F6 |     mov    fp, ptra
00568 059 2C EC 63 FD |     jmp  pa
0056c 05a             |  popregs_
0056c 05a 2B EC 63 FD |     pop    pa
00570 05b 0C F0 87 F1 |     sub    ptra, #12
00574 05c 28 04 64 FD |     setq   #2
00578 05d 00 89 04 FB |     rdlong COUNT_, ptra
0057c 05e 06 88 94 FB |     tjz    COUNT_, #popregs__ret
00580 05f 02 88 64 F0 |     shl    COUNT_, #2
00584 060 44 F0 83 F1 |     sub    ptra, COUNT_
00588 061 02 88 44 F0 |     shr    COUNT_, #2
0058c 062 01 88 84 F1 |     sub    COUNT_, #1
00590 063 28 88 60 FD |     setq   COUNT_
00594 064 00 3B 05 FB |     rdlong local01, ptra
00598 065             | popregs__ret
00598 065 2A 8A 60 FD |     push   RETADDR_
0059c 066 2C EC 63 FD |     jmp    pa
005a0 067             | 
005a0 067             | unsdivide_
005a0 067 28 00 64 FD |        setq    #0
005a4 068 AD 58 11 FD |        qdiv    muldiva_, muldivb_
005a8 069 18 5A 61 FD |        getqx   muldivb_
005ac 06a 19 58 61 0D |  _ret_ getqy   muldiva_
005b0 06b             | 
005b0 06b             | divide_
005b0 06b AC 58 51 F6 |        abs     muldiva_,muldiva_     wc       'abs(x)
005b4 06c 03 EE 84 F5 |        muxc    itmp2_,#%11                    'store sign of x
005b8 06d AD 5A 59 F6 |        abs     muldivb_,muldivb_     wcz      'abs(y)
005bc 06e 02 EE 64 C5 |  if_c  xor     itmp2_,#%10                    'store sign of y
005c0 06f 2D 00 64 AD |  if_z  ret
005c4 070 D8 FF BF FD |        call    #unsdivide_
005c8 071 01 EE D4 F7 |        test    itmp2_,#1        wc       'restore sign, remainder
005cc 072 AC 58 81 F6 |        negc    muldiva_,muldiva_ 
005d0 073 02 EE D4 F7 |        test    itmp2_,#%10      wc       'restore sign, division result
005d4 074 AD 5A 81 06 |  _ret_ negc    muldivb_,muldivb_
005d8 075             | 
005d8 075             | __lockreg
005d8 075 00 00 00 00 | 	long	0
005dc 076             | itmp1_
005dc 076 00 00 00 00 | 	long	0
005e0 077             | itmp2_
005e0 077 00 00 00 00 | 	long	0
005e4 078             | objptr
005e4 078 C0 37 00 00 | 	long	@objmem
005e8 079             | ptr___lockreg_
005e8 079 D8 05 00 00 | 	long	@__lockreg
005ec 07a             | ptr__dat__
005ec 07a C8 15 00 00 | 	long	@_dat_
005f0 07b             | ptr_stackspace_
005f0 07b 94 38 00 00 | 	long	@stackspace
005f4 07c             | result1
005f4 07c 00 00 00 00 | 	long	0
005f8 07d             | COG_BSS_START
005f8 07d             | 	fit	480
005f8                 | 	orgh
005f8                 | hubentry
005f8                 | 
005f8                 | ' 
005f8                 | ' ''--------- timings
005f8                 | ' ' 0  m_bs        - before sync,             16      80
005f8                 | ' ' 1  m_sn        - sync                     80     160
005f8                 | ' ' 2  m_bv        - before visible           20      84
005f8                 | ' ' 3  m_vi        - visible                1024     816
005f8                 | ' ' 4  m_border    - left and right borders  112       8
005f8                 | ' ' 5  m_lut1      - pixels per char           8       8
005f8                 | ' ' 6  i_vborder   - up and down border       48       8
005f8                 | ' ' 7  i_upporch   - up non visible           16       8
005f8                 | ' ' 8  i_vsync     - vsync                    16      12
005f8                 | ' ' 9  i_downporch - down non visible         16       8
005f8                 | ' '10  mode #
005f8                 | ' '11  cpl         - character per line
005f8                 | ' '12  scanlines #
005f8                 | ' '13  clock
005f8                 | ' '14  hubset value for clock settings
005f8                 | ' 
005f8                 | ' 
005f8                 | ' '*************************************************************************
005f8                 | ' '                                                                        *
005f8                 | ' '  A dummy start function if someone runs this driver alone              *
005f8                 | ' '                                                                        *
005f8                 | ' '*************************************************************************
005f8                 | ' 
005f8                 | ' pub dummy()|i
005f8                 | _dummy
005f8     01 88 04 F6 | 	mov	COUNT_, #1
005fc     4B 00 A0 FD | 	call	#pushregs_
00600                 | ' '' this is not a main program.
00600                 | ' 
00600                 | ' start(74,48)
00600     4A 16 05 F6 | 	mov	arg01, #74
00604     30 18 05 F6 | 	mov	arg02, #48
00608     CC 0C B0 FD | 	call	#_start
0060c                 | ' cls(154,147)
0060c     9A 16 05 F6 | 	mov	arg01, #154
00610     93 18 05 F6 | 	mov	arg02, #147
00614     AC 01 B0 FD | 	call	#_cls
00618                 | ' cursoroff()
00618                 | ' 
00618                 | ' ''---------- Switch the cursor off
00618                 | ' 
00618                 | ' cursor_sh-=16
00618     3A F0 04 F1 | 	add	objptr, #58
0061c     78 3A C1 FA | 	rdbyte	local01, objptr
00620     10 3A 85 F1 | 	sub	local01, #16
00624     78 3A 41 FC | 	wrbyte	local01, objptr
00628                 | ' setcursorpos(2,0)
00628                 | ' 
00628                 | ' ''---------- Set the (x,y) position of cursor
00628                 | ' 
00628                 | ' cursor_x:=x
00628     02 F0 84 F1 | 	sub	objptr, #2
0062c     78 04 48 FC | 	wrbyte	#2, objptr
00630                 | ' cursor_y:=y
00630     01 F0 04 F1 | 	add	objptr, #1
00634     78 00 48 FC | 	wrbyte	#0, objptr
00638     39 F0 84 F1 | 	sub	objptr, #57
0063c                 | ' outtextxy(1,1,string("READY"))
0063c     0A 00 00 FF 
00640     C0 1B 05 F6 | 	mov	arg03, ##@LR__0081
00644     01 16 05 F6 | 	mov	arg01, #1
00648     01 18 05 F6 | 	mov	arg02, #1
0064c     74 02 B0 FD | 	call	#_outtextxy
00650                 | ' 
00650                 | ' putcharxy(1,3,1)
00650     01 16 05 F6 | 	mov	arg01, #1
00654     03 18 05 F6 | 	mov	arg02, #3
00658     01 1A 05 F6 | 	mov	arg03, #1
0065c     04 02 B0 FD | 	call	#_putcharxy
00660                 | ' defchar(0,1,255,255,255,255,255,255,255,255,255,255,255,255,255,255,255,255)
00660     00 16 05 F6 | 	mov	arg01, #0
00664     01 18 05 F6 | 	mov	arg02, #1
00668     FF 1A 05 F6 | 	mov	arg03, #255
0066c     FF 1C 05 F6 | 	mov	arg04, #255
00670     FF 1E 05 F6 | 	mov	arg05, #255
00674     FF 20 05 F6 | 	mov	arg06, #255
00678     FF 22 05 F6 | 	mov	arg07, #255
0067c     FF 24 05 F6 | 	mov	arg08, #255
00680     FF 26 05 F6 | 	mov	arg09, #255
00684     FF 28 05 F6 | 	mov	arg10, #255
00688     FF 2A 05 F6 | 	mov	arg11, #255
0068c     FF 2C 05 F6 | 	mov	arg12, #255
00690     FF 2E 05 F6 | 	mov	arg13, #255
00694     FF 30 05 F6 | 	mov	arg14, #255
00698     FF 32 05 F6 | 	mov	arg15, #255
0069c     FF 34 05 F6 | 	mov	arg16, #255
006a0     FF 36 05 F6 | 	mov	arg17, #255
006a4     FF 38 05 F6 | 	mov	arg18, #255
006a8     18 00 B0 FD | 	call	#_defchar
006ac                 | ' 'writeln(string("Hello, World!"))
006ac                 | ' 'writeln(string("You started the driver instead of your main program!"))
006ac                 | ' 'writeln(string("This is an alpha 0.13 version of displaylisted driver"))
006ac                 | ' 'writeln(inttohex(buf_ptr,8))
006ac                 | ' 'writeln(string("This line is reversed"))
006ac                 | ' 'writeln(string("The text above is double height, while this line is single height"))
006ac                 | ' 'writeln(string("Did you ever see a BLUE monitor?"))
006ac                 | ' 'repeat i from 0 to 300
006ac                 | ' '  write(inttohex(long[dl_ptr+4*i],8))
006ac                 | ' '  write(string("  "))
006ac                 | ' cogstop(cogid())
006ac     01 F8 60 FD | 	cogid	result1
006b0     03 F8 60 FD | 	cogstop	result1
006b4     00 F8 04 F6 | 	mov	result1, #0
006b8     46 F0 03 F6 | 	mov	ptra, fp
006bc     5A 00 A0 FD | 	call	#popregs_
006c0                 | _dummy_ret
006c0     2D 00 64 FD | 	ret
006c4                 | 
006c4                 | ' 
006c4                 | ' ''--------- Redefine a character
006c4                 | ' 
006c4                 | ' pub defchar(fn,ch,b0,b1,b2,b3,b4,b5,b6,b7,b8,b9,b10,b11,b12,b13,b14,b15) :s
006c4                 | _defchar
006c4                 | ' 
006c4                 | ' s:=@st_font+fn+ch*16
006c4     08 00 00 FF 
006c8     00 F4 04 F1 | 	add	ptr__dat__, ##4096
006cc     7A F8 00 F6 | 	mov	result1, ptr__dat__
006d0     08 00 00 FF 
006d4     00 F4 84 F1 | 	sub	ptr__dat__, ##4096
006d8     8B F8 00 F1 | 	add	result1, arg01
006dc     04 18 65 F0 | 	shl	arg02, #4
006e0     8C F8 00 F1 | 	add	result1, arg02
006e4                 | ' byte[s+00]:=b0
006e4     7C 1A 41 FC | 	wrbyte	arg03, result1
006e8                 | ' byte[s+01]:=b1
006e8     7C FA 00 F6 | 	mov	_var01, result1
006ec     01 FA 04 F1 | 	add	_var01, #1
006f0     7D 1C 41 FC | 	wrbyte	arg04, _var01
006f4                 | ' byte[s+02]:=b2
006f4     7C FA 00 F6 | 	mov	_var01, result1
006f8     02 FA 04 F1 | 	add	_var01, #2
006fc     7D 1E 41 FC | 	wrbyte	arg05, _var01
00700                 | ' byte[s+03]:=b3
00700     7C FA 00 F6 | 	mov	_var01, result1
00704     03 FA 04 F1 | 	add	_var01, #3
00708     7D 20 41 FC | 	wrbyte	arg06, _var01
0070c                 | ' byte[s+04]:=b4
0070c     7C FA 00 F6 | 	mov	_var01, result1
00710     04 FA 04 F1 | 	add	_var01, #4
00714     7D 22 41 FC | 	wrbyte	arg07, _var01
00718                 | ' byte[s+05]:=b5
00718     7C FA 00 F6 | 	mov	_var01, result1
0071c     05 FA 04 F1 | 	add	_var01, #5
00720     7D 24 41 FC | 	wrbyte	arg08, _var01
00724                 | ' byte[s+06]:=b6
00724     7C FA 00 F6 | 	mov	_var01, result1
00728     06 FA 04 F1 | 	add	_var01, #6
0072c     7D 26 41 FC | 	wrbyte	arg09, _var01
00730                 | ' byte[s+07]:=b7
00730     7C FA 00 F6 | 	mov	_var01, result1
00734     07 FA 04 F1 | 	add	_var01, #7
00738     7D 28 41 FC | 	wrbyte	arg10, _var01
0073c                 | ' byte[s+08]:=b8
0073c     7C FA 00 F6 | 	mov	_var01, result1
00740     08 FA 04 F1 | 	add	_var01, #8
00744     7D 2A 41 FC | 	wrbyte	arg11, _var01
00748                 | ' byte[s+09]:=b9
00748     7C FA 00 F6 | 	mov	_var01, result1
0074c     09 FA 04 F1 | 	add	_var01, #9
00750     7D 2C 41 FC | 	wrbyte	arg12, _var01
00754                 | ' byte[s+10]:=b10
00754     7C FA 00 F6 | 	mov	_var01, result1
00758     0A FA 04 F1 | 	add	_var01, #10
0075c     7D 2E 41 FC | 	wrbyte	arg13, _var01
00760                 | ' byte[s+11]:=b11
00760     7C FA 00 F6 | 	mov	_var01, result1
00764     0B FA 04 F1 | 	add	_var01, #11
00768     7D 30 41 FC | 	wrbyte	arg14, _var01
0076c                 | ' byte[s+12]:=b12
0076c     7C FA 00 F6 | 	mov	_var01, result1
00770     0C FA 04 F1 | 	add	_var01, #12
00774     7D 32 41 FC | 	wrbyte	arg15, _var01
00778                 | ' byte[s+13]:=b13
00778     7C FA 00 F6 | 	mov	_var01, result1
0077c     0D FA 04 F1 | 	add	_var01, #13
00780     7D 34 41 FC | 	wrbyte	arg16, _var01
00784                 | ' byte[s+14]:=b14
00784     7C FA 00 F6 | 	mov	_var01, result1
00788     0E FA 04 F1 | 	add	_var01, #14
0078c     7D 36 41 FC | 	wrbyte	arg17, _var01
00790                 | ' byte[s+15]:=b15
00790     7C FA 00 F6 | 	mov	_var01, result1
00794     0F FA 04 F1 | 	add	_var01, #15
00798     7D 38 41 FC | 	wrbyte	arg18, _var01
0079c                 | _defchar_ret
0079c     2D 00 64 FD | 	ret
007a0                 | 
007a0                 | ' 
007a0                 | ' ''---------- Set the border color, o is upper border, lines+1 is lower border
007a0                 | ' 
007a0                 | ' pub setbordercolor(r,g,b) | color
007a0                 | _setbordercolor
007a0                 | ' 
007a0                 | ' color:=r<<24+g<<16+b<<8
007a0     18 16 65 F0 | 	shl	arg01, #24
007a4     10 18 65 F0 | 	shl	arg02, #16
007a8     8C 16 01 F1 | 	add	arg01, arg02
007ac     08 1A 65 F0 | 	shl	arg03, #8
007b0     8D 16 01 F1 | 	add	arg01, arg03
007b4                 | ' bordercolor:=color
007b4     30 F0 04 F1 | 	add	objptr, #48
007b8     78 16 61 FC | 	wrlong	arg01, objptr
007bc     30 F0 84 F1 | 	sub	objptr, #48
007c0                 | _setbordercolor_ret
007c0     2D 00 64 FD | 	ret
007c4                 | 
007c4                 | ' 
007c4                 | ' 
007c4                 | ' '*************************************************************************
007c4                 | ' '                                                                        *
007c4                 | ' '  Text functions                                                        *
007c4                 | ' '                                                                        *
007c4                 | ' '*************************************************************************
007c4                 | ' 
007c4                 | ' ''---------- Clear the screen, set its foreground/background color
007c4                 | ' 
007c4                 | ' pub cls(fc,bc)   :c
007c4                 | _cls
007c4     04 88 04 F6 | 	mov	COUNT_, #4
007c8     4B 00 A0 FD | 	call	#pushregs_
007cc     8B 3A 01 F6 | 	mov	local01, arg01
007d0                 | ' 
007d0                 | ' if (graphmode<512)
007d0     D0 F0 04 F1 | 	add	objptr, #208
007d4     78 3C 01 FB | 	rdlong	local02, objptr
007d8     D0 F0 84 F1 | 	sub	objptr, #208
007dc     01 00 00 FF 
007e0     00 3C 5D F2 | 	cmps	local02, ##512 wcz
007e4     1C 00 90 3D |  if_ae	jmp	#LR__0001
007e8                 | '   c:=fc<<24+bc<<16+$20
007e8     9D 3E 01 F6 | 	mov	local03, local01
007ec     18 3E 65 F0 | 	shl	local03, #24
007f0     8C 40 01 F6 | 	mov	local04, arg02
007f4     10 40 65 F0 | 	shl	local04, #16
007f8     A0 3E 01 F1 | 	add	local03, local04
007fc     20 3E 05 F1 | 	add	local03, #32
00800                 | ' else
00800     04 00 90 FD | 	jmp	#LR__0002
00804                 | LR__0001
00804                 | '   c:=bc
00804     8C 3E 01 F6 | 	mov	local03, arg02
00808                 | LR__0002
00808                 | ' longfill(buf_ptr,c,buflen)
00808     78 16 01 FB | 	rdlong	arg01, objptr
0080c     34 F0 04 F1 | 	add	objptr, #52
00810     78 1A 09 FB | 	rdlong	arg03, objptr wz
00814     34 F0 84 F1 | 	sub	objptr, #52
00818     14 00 90 AD |  if_e	jmp	#LR__0007
0081c     EC F7 9F FE | 	loc	pa,	#(@LR__0005-@LR__0003)
00820     35 00 A0 FD | 	call	#FCACHE_LOAD_
00824                 | LR__0003
00824     8D 04 D8 FC | 	rep	@LR__0006, arg03
00828                 | LR__0004
00828     8B 3E 61 FC | 	wrlong	local03, arg01
0082c     04 16 05 F1 | 	add	arg01, #4
00830                 | LR__0005
00830                 | LR__0006
00830                 | LR__0007
00830                 | ' setwritecolors(fc,bc)
00830                 | ' 
00830                 | ' 
00830                 | ' write_color:=ff
00830     3C F0 04 F1 | 	add	objptr, #60
00834     78 3A 61 FC | 	wrlong	local01, objptr
00838                 | ' write_background:=bb
00838     04 F0 04 F1 | 	add	objptr, #4
0083c     78 18 61 FC | 	wrlong	arg02, objptr
00840                 | ' cursor_x:=0
00840     08 F0 84 F1 | 	sub	objptr, #8
00844     78 00 48 FC | 	wrbyte	#0, objptr
00848                 | ' cursor_y:=0
00848     01 F0 04 F1 | 	add	objptr, #1
0084c     78 00 48 FC | 	wrbyte	#0, objptr
00850     39 F0 84 F1 | 	sub	objptr, #57
00854     9F F8 00 F6 | 	mov	result1, local03
00858     46 F0 03 F6 | 	mov	ptra, fp
0085c     5A 00 A0 FD | 	call	#popregs_
00860                 | _cls_ret
00860     2D 00 64 FD | 	ret
00864                 | 
00864                 | ' 
00864                 | ' ''---------- Output a char at x,y, don't change colors and cursor position
00864                 | ' 
00864                 | ' pub putcharxy(x,y,achar) | c
00864                 | _putcharxy
00864                 | ' 
00864                 | ' long[buf_ptr+4*(cpl*y+x)]:=(long[buf_ptr+4*(cpl*y+x)] & $FFFFFF00)  |(achar & $000000FF)
00864     78 FA 00 FB | 	rdlong	_var01, objptr
00868     94 F0 04 F1 | 	add	objptr, #148
0086c     78 FC 00 FB | 	rdlong	_var02, objptr
00870     94 F0 84 F1 | 	sub	objptr, #148
00874     8C FC 00 FD | 	qmul	_var02, arg02
00878     18 FE 60 FD | 	getqx	_var03
0087c     8B FE 00 F1 | 	add	_var03, arg01
00880     02 FE 64 F0 | 	shl	_var03, #2
00884     7F FA 00 F1 | 	add	_var01, _var03
00888     7D 00 01 FB | 	rdlong	_var04, _var01
0088c     FF 00 25 F5 | 	andn	_var04, #255
00890     FF 1A 05 F5 | 	and	arg03, #255
00894     8D 00 41 F5 | 	or	_var04, arg03
00898     78 02 01 FB | 	rdlong	_var05, objptr
0089c     94 F0 04 F1 | 	add	objptr, #148
008a0     78 04 01 FB | 	rdlong	_var06, objptr
008a4     94 F0 84 F1 | 	sub	objptr, #148
008a8     8C 04 01 FD | 	qmul	_var06, arg02
008ac     18 06 61 FD | 	getqx	_var07
008b0     8B 06 01 F1 | 	add	_var07, arg01
008b4     02 06 65 F0 | 	shl	_var07, #2
008b8     83 02 01 F1 | 	add	_var05, _var07
008bc     81 00 61 FC | 	wrlong	_var04, _var05
008c0                 | _putcharxy_ret
008c0     2D 00 64 FD | 	ret
008c4                 | 
008c4                 | ' 
008c4                 | ' ''--------- Output a string at position x,y without changing colors
008c4                 | ' 
008c4                 | ' pub outtextxy(x,y,text) | iii
008c4                 | _outtextxy
008c4     0F 88 04 F6 | 	mov	COUNT_, #15
008c8     4B 00 A0 FD | 	call	#pushregs_
008cc     8B 3A 01 F6 | 	mov	local01, arg01
008d0                 | ' 
008d0                 | ' repeat iii from 0 to strsize(text)-1
008d0     00 3C 05 F6 | 	mov	local02, #0
008d4     8D 16 01 F6 | 	mov	arg01, arg03
008d8     00 3E 05 F6 | 	mov	local03, #0
008dc     30 F7 9F FE | 	loc	pa,	#(@LR__0009-@LR__0008)
008e0     35 00 A0 FD | 	call	#FCACHE_LOAD_
008e4                 | LR__0008
008e4     8B 40 C9 FA | 	rdbyte	local04, arg01 wz
008e8     01 3E 05 51 |  if_ne	add	local03, #1
008ec     01 16 05 51 |  if_ne	add	arg01, #1
008f0     F0 FF 9F 5D |  if_ne	jmp	#LR__0008
008f4                 | LR__0009
008f4     9F F8 00 F6 | 	mov	result1, local03
008f8     7C 42 01 F6 | 	mov	local05, result1
008fc     01 42 85 F1 | 	sub	local05, #1
00900     00 42 5D F2 | 	cmps	local05, #0 wcz
00904     01 44 05 16 |  if_a	mov	local06, #1
00908     01 44 65 E6 |  if_be	neg	local06, #1
0090c     A2 42 01 F1 | 	add	local05, local06
00910     64 F7 9F FE | 	loc	pa,	#(@LR__0011-@LR__0010)
00914     35 00 A0 FD | 	call	#FCACHE_LOAD_
00918                 | LR__0010
00918                 | '   long[buf_ptr+4*(cpl*y+x+iii)]:=(long[buf_ptr+4*(cpl*y+x+iii)] & $FFFFFF00)  | byte[text+iii]
00918     78 46 01 FB | 	rdlong	local07, objptr
0091c     94 F0 04 F1 | 	add	objptr, #148
00920     78 48 01 FB | 	rdlong	local08, objptr
00924     94 F0 84 F1 | 	sub	objptr, #148
00928     8C 48 01 FD | 	qmul	local08, arg02
0092c     18 4A 61 FD | 	getqx	local09
00930     9D 4A 01 F1 | 	add	local09, local01
00934     9E 4A 01 F1 | 	add	local09, local02
00938     02 4A 65 F0 | 	shl	local09, #2
0093c     A5 46 01 F1 | 	add	local07, local09
00940     A3 4C 01 FB | 	rdlong	local10, local07
00944     FF 4C 25 F5 | 	andn	local10, #255
00948     8D 4E 01 F6 | 	mov	local11, arg03
0094c     9E 4E 01 F1 | 	add	local11, local02
00950     A7 50 C1 FA | 	rdbyte	local12, local11
00954     A8 4C 41 F5 | 	or	local10, local12
00958     78 52 01 FB | 	rdlong	local13, objptr
0095c     94 F0 04 F1 | 	add	objptr, #148
00960     78 54 01 FB | 	rdlong	local14, objptr
00964     94 F0 84 F1 | 	sub	objptr, #148
00968     8C 54 01 FD | 	qmul	local14, arg02
0096c     18 56 61 FD | 	getqx	local15
00970     9D 56 01 F1 | 	add	local15, local01
00974     9E 56 01 F1 | 	add	local15, local02
00978     02 56 65 F0 | 	shl	local15, #2
0097c     AB 52 01 F1 | 	add	local13, local15
00980     A9 4C 61 FC | 	wrlong	local10, local13
00984     A2 3C 01 F1 | 	add	local02, local06
00988     A1 3C 09 F2 | 	cmp	local02, local05 wz
0098c     88 FF 9F 5D |  if_ne	jmp	#LR__0010
00990                 | LR__0011
00990     46 F0 03 F6 | 	mov	ptra, fp
00994     5A 00 A0 FD | 	call	#popregs_
00998                 | _outtextxy_ret
00998     2D 00 64 FD | 	ret
0099c                 | 
0099c                 | ' 
0099c                 | ' 
0099c                 | ' 
0099c                 | ' '*************************************************************************
0099c                 | ' '                                                                        *
0099c                 | ' '  Mode setting and driver start                                                          *
0099c                 | ' '                                                                        *
0099c                 | ' '*************************************************************************
0099c                 | ' 
0099c                 | ' ''---------  Set the graphics mode
0099c                 | ' 
0099c                 | ' pub setmode(mode) | i
0099c                 | _setmode
0099c     0B 88 04 F6 | 	mov	COUNT_, #11
009a0     4B 00 A0 FD | 	call	#pushregs_
009a4     8B 3A 01 F6 | 	mov	local01, arg01
009a8                 | ' 
009a8                 | ' '' mode:tn_bb_cc_vv_hh
009a8                 | ' '' hh - h.zoom, vv-v.zoom, cc-c.depth,
009a8                 | ' '' bb - borders/total pixels, 00-wide/1140, 01 medium/1026, 10 narrow/912, 11 no border, 1024 px PAL, 880 px NTSC
009a8                 | ' 
009a8                 | ' if (mode<512)  '' text modes
009a8     01 00 00 FF 
009ac     00 3A 5D F2 | 	cmps	local01, ##512 wcz
009b0     74 02 90 3D |  if_ae	jmp	#LR__0024
009b4                 | '   
009b4                 | '   longmove(@streamer,@timingsxxt,6)
009b4     A8 F0 04 F1 | 	add	objptr, #168
009b8     78 3C 01 F6 | 	mov	local02, objptr
009bc     0E 00 00 FF 
009c0     40 F4 04 F1 | 	add	ptr__dat__, ##7232
009c4     7A 3E 01 F6 | 	mov	local03, ptr__dat__
009c8     9F 40 01 F6 | 	mov	local04, local03
009cc     06 42 05 F6 | 	mov	local05, #6
009d0     9E 16 01 F6 | 	mov	arg01, local02
009d4     A0 18 01 F6 | 	mov	arg02, local04
009d8     06 1A 05 F6 | 	mov	arg03, #6
009dc     A8 F0 84 F1 | 	sub	objptr, #168
009e0     0E 00 00 FF 
009e4     40 F4 84 F1 | 	sub	ptr__dat__, ##7232
009e8     FC 0A B0 FD | 	call	#__system__longmove
009ec     7C 44 01 F6 | 	mov	local06, result1
009f0                 | '   case_fast  mode>>6                               
009f0     9D 46 01 F6 | 	mov	local07, local01
009f4     06 46 45 F0 | 	shr	local07, #6
009f8     08 46 25 F3 | 	fle	local07, #8
009fc     A3 48 01 F6 | 	mov	local08, local07
00a00     30 48 61 FD | 	jmprel	local08
00a04                 | LR__0012
00a04     20 00 90 FD | 	jmp	#LR__0013
00a08     48 00 90 FD | 	jmp	#LR__0014
00a0c     70 00 90 FD | 	jmp	#LR__0015
00a10     98 00 90 FD | 	jmp	#LR__0016
00a14     C0 00 90 FD | 	jmp	#LR__0017
00a18     E8 00 90 FD | 	jmp	#LR__0018
00a1c     10 01 90 FD | 	jmp	#LR__0019
00a20     38 01 90 FD | 	jmp	#LR__0020
00a24     70 01 90 FD | 	jmp	#LR__0021
00a28                 | LR__0013
00a28                 | '     0:  longmove(@timings,@timings000,16)   'PAL 50 Hz signaling 1140x624, active 800x480, 100x30 text, wide border, 2 colors per pixel, 00_00_00_00_00=0, 354_693_878 Hz
00a28     54 F0 04 F1 | 	add	objptr, #84
00a2c     78 16 01 F6 | 	mov	arg01, objptr
00a30     54 F0 84 F1 | 	sub	objptr, #84
00a34     0E 00 00 FF 
00a38     70 F4 04 F1 | 	add	ptr__dat__, ##7280
00a3c     7A 18 01 F6 | 	mov	arg02, ptr__dat__
00a40     0E 00 00 FF 
00a44     70 F4 84 F1 | 	sub	ptr__dat__, ##7280
00a48     10 1A 05 F6 | 	mov	arg03, #16
00a4c     98 0A B0 FD | 	call	#__system__longmove
00a50     44 01 90 FD | 	jmp	#LR__0021
00a54                 | LR__0014
00a54                 | '     1:  longmove(@timings,@timings064,16)   'PAL 50 Hz signaling 1026x624, active 880x496, 110x31 text, medium border, 2 colors per pixel 00_01_00_00_00=64, 319_215_686 Hz
00a54     54 F0 04 F1 | 	add	objptr, #84
00a58     78 16 01 F6 | 	mov	arg01, objptr
00a5c     54 F0 84 F1 | 	sub	objptr, #84
00a60     0E 00 00 FF 
00a64     B0 F4 04 F1 | 	add	ptr__dat__, ##7344
00a68     7A 18 01 F6 | 	mov	arg02, ptr__dat__
00a6c     0E 00 00 FF 
00a70     B0 F4 84 F1 | 	sub	ptr__dat__, ##7344
00a74     10 1A 05 F6 | 	mov	arg03, #16
00a78     6C 0A B0 FD | 	call	#__system__longmove
00a7c     18 01 90 FD | 	jmp	#LR__0021
00a80                 | LR__0015
00a80                 | '     2:  longmove(@timings,@timings128,16)   'PAL 50 Hz signaling 912x624, active 800x480, 100x30 text, medium border, 2 colors per pixel 00_10_00_00_00=64, 283750000z
00a80     54 F0 04 F1 | 	add	objptr, #84
00a84     78 16 01 F6 | 	mov	arg01, objptr
00a88     54 F0 84 F1 | 	sub	objptr, #84
00a8c     0E 00 00 FF 
00a90     F0 F4 04 F1 | 	add	ptr__dat__, ##7408
00a94     7A 18 01 F6 | 	mov	arg02, ptr__dat__
00a98     0E 00 00 FF 
00a9c     F0 F4 84 F1 | 	sub	ptr__dat__, ##7408
00aa0     10 1A 05 F6 | 	mov	arg03, #16
00aa4     40 0A B0 FD | 	call	#__system__longmove
00aa8     EC 00 90 FD | 	jmp	#LR__0021
00aac                 | LR__0016
00aac                 | '     3:  longmove(@timings,@timings192,16)   'PAL 50 Hz signaling 1140x624, active 1024x576, 128x36 text, borderless, 2 colors per pixel 00_11_00_00_00=6192, 354_693_878 Hz
00aac     54 F0 04 F1 | 	add	objptr, #84
00ab0     78 16 01 F6 | 	mov	arg01, objptr
00ab4     54 F0 84 F1 | 	sub	objptr, #84
00ab8     0E 00 00 FF 
00abc     30 F5 04 F1 | 	add	ptr__dat__, ##7472
00ac0     7A 18 01 F6 | 	mov	arg02, ptr__dat__
00ac4     0E 00 00 FF 
00ac8     30 F5 84 F1 | 	sub	ptr__dat__, ##7472
00acc     10 1A 05 F6 | 	mov	arg03, #16
00ad0     14 0A B0 FD | 	call	#__system__longmove
00ad4     C0 00 90 FD | 	jmp	#LR__0021
00ad8                 | LR__0017
00ad8                 | '     4:  longmove(@timings,@timings256,16)   'NTSC 50 Hz signaling 1140x524, active 800x480, 100x30 text, NO PLACE FOR wide border, 2 colors per pixel, 01_00_00_00_00=256, 357959184 Hz
00ad8     54 F0 04 F1 | 	add	objptr, #84
00adc     78 16 01 F6 | 	mov	arg01, objptr
00ae0     54 F0 84 F1 | 	sub	objptr, #84
00ae4     0E 00 00 FF 
00ae8     70 F5 04 F1 | 	add	ptr__dat__, ##7536
00aec     7A 18 01 F6 | 	mov	arg02, ptr__dat__
00af0     0E 00 00 FF 
00af4     70 F5 84 F1 | 	sub	ptr__dat__, ##7536
00af8     10 1A 05 F6 | 	mov	arg03, #16
00afc     E8 09 B0 FD | 	call	#__system__longmove
00b00     94 00 90 FD | 	jmp	#LR__0021
00b04                 | LR__0018
00b04                 | '     5:  longmove(@timings,@timings320,16)   'NTSC 50 Hz signaling 1026x524, active 800x480, 100x30 text, NO PLACE FOR wide border, 2 colors per pixel, 01_01_00_00_00=320, 322162162 Hz
00b04     54 F0 04 F1 | 	add	objptr, #84
00b08     78 16 01 F6 | 	mov	arg01, objptr
00b0c     54 F0 84 F1 | 	sub	objptr, #84
00b10     0E 00 00 FF 
00b14     B0 F5 04 F1 | 	add	ptr__dat__, ##7600
00b18     7A 18 01 F6 | 	mov	arg02, ptr__dat__
00b1c     0E 00 00 FF 
00b20     B0 F5 84 F1 | 	sub	ptr__dat__, ##7600
00b24     10 1A 05 F6 | 	mov	arg03, #16
00b28     BC 09 B0 FD | 	call	#__system__longmove
00b2c     68 00 90 FD | 	jmp	#LR__0021
00b30                 | LR__0019
00b30                 | '     6:  longmove(@timings,@timings384,16)   'NTSC 50 Hz signaling 912x524, active 800x480, 100x30 text, NO PLACE FOR wide border, 2 colors per pixel, 01_10_00_00_00=384, 286363636 Hz
00b30     54 F0 04 F1 | 	add	objptr, #84
00b34     78 16 01 F6 | 	mov	arg01, objptr
00b38     54 F0 84 F1 | 	sub	objptr, #84
00b3c     0E 00 00 FF 
00b40     F0 F5 04 F1 | 	add	ptr__dat__, ##7664
00b44     7A 18 01 F6 | 	mov	arg02, ptr__dat__
00b48     0E 00 00 FF 
00b4c     F0 F5 84 F1 | 	sub	ptr__dat__, ##7664
00b50     10 1A 05 F6 | 	mov	arg03, #16
00b54     90 09 B0 FD | 	call	#__system__longmove
00b58     3C 00 90 FD | 	jmp	#LR__0021
00b5c                 | LR__0020
00b5c                 | '     7:  longmove(@timings,@timings448,16)   'NTSC 50 Hz signaling 1026x524, active 880x496, 110x31 text, borderless, 2 colors per pixel, 01_11_00_00_00=496, 322162162 Hz
00b5c     54 F0 04 F1 | 	add	objptr, #84
00b60     78 3C 01 F6 | 	mov	local02, objptr
00b64     9E 3E 01 F6 | 	mov	local03, local02
00b68     0F 00 00 FF 
00b6c     30 F4 04 F1 | 	add	ptr__dat__, ##7728
00b70     7A 40 01 F6 | 	mov	local04, ptr__dat__
00b74     A0 42 01 F6 | 	mov	local05, local04
00b78     10 44 05 F6 | 	mov	local06, #16
00b7c     9F 16 01 F6 | 	mov	arg01, local03
00b80     A1 18 01 F6 | 	mov	arg02, local05
00b84     10 1A 05 F6 | 	mov	arg03, #16
00b88     54 F0 84 F1 | 	sub	objptr, #84
00b8c     0F 00 00 FF 
00b90     30 F4 84 F1 | 	sub	ptr__dat__, ##7728
00b94     50 09 B0 FD | 	call	#__system__longmove
00b98                 | LR__0021
00b98                 | ' 
00b98                 | '   repeat i from 0 to 5
00b98     00 4A 05 F6 | 	mov	local09, #0
00b9c     C0 F4 9F FE | 	loc	pa,	#(@LR__0023-@LR__0022)
00ba0     35 00 A0 FD | 	call	#FCACHE_LOAD_
00ba4                 | LR__0022
00ba4                 | '     timings[i]:=timings[i]+streamer[i]+hdmibase<<17
00ba4     A5 3C 01 F6 | 	mov	local02, local09
00ba8     02 3C 65 F0 | 	shl	local02, #2
00bac     54 F0 04 F1 | 	add	objptr, #84
00bb0     78 3C 01 F1 | 	add	local02, objptr
00bb4     A5 40 01 F6 | 	mov	local04, local09
00bb8     02 40 65 F0 | 	shl	local04, #2
00bbc     54 F0 04 F1 | 	add	objptr, #84
00bc0     9E 46 01 FB | 	rdlong	local07, local02
00bc4     78 40 01 F1 | 	add	local04, objptr
00bc8     A0 44 01 FB | 	rdlong	local06, local04
00bcc     A2 46 01 F1 | 	add	local07, local06
00bd0     80 F0 84 F1 | 	sub	objptr, #128
00bd4     78 4C 01 FB | 	rdlong	local10, objptr
00bd8     11 4C 65 F0 | 	shl	local10, #17
00bdc     A6 46 01 F1 | 	add	local07, local10
00be0     A5 4E 01 F6 | 	mov	local11, local09
00be4     02 4E 65 F0 | 	shl	local11, #2
00be8     2C F0 04 F1 | 	add	objptr, #44
00bec     78 4E 01 F1 | 	add	local11, objptr
00bf0     A7 46 61 FC | 	wrlong	local07, local11
00bf4     01 4A 05 F1 | 	add	local09, #1
00bf8     06 4A 5D F2 | 	cmps	local09, #6 wcz
00bfc     54 F0 84 F1 | 	sub	objptr, #84
00c00     A0 FF 9F CD |  if_b	jmp	#LR__0022
00c04                 | LR__0023
00c04                 | '   clkfreq:=timings[13]
00c04     88 F0 04 F1 | 	add	objptr, #136
00c08     78 46 01 FB | 	rdlong	local07, objptr
00c0c     14 46 65 FC | 	wrlong	local07, #20
00c10                 | '   hubset(timings[14])
00c10     04 F0 04 F1 | 	add	objptr, #4
00c14     78 16 01 FB | 	rdlong	arg01, objptr
00c18     8C F0 84 F1 | 	sub	objptr, #140
00c1c     00 16 61 FD | 	hubset	arg01
00c20                 | '   waitms(1)
00c20     01 16 05 F6 | 	mov	arg01, #1
00c24     38 09 B0 FD | 	call	#__system___waitms
00c28                 | LR__0024
00c28                 | ' 
00c28                 | ' if (mode==544)    '' 10 00 10 00 00 Pal 50Hz, wide borders,4bpp
00c28     01 00 00 FF 
00c2c     20 3A 0D F2 | 	cmp	local01, ##544 wz
00c30     F0 00 90 5D |  if_ne	jmp	#LR__0028
00c34                 | '   longmove(@streamer,@timingsxg4,6)
00c34     A8 F0 04 F1 | 	add	objptr, #168
00c38     78 16 01 F6 | 	mov	arg01, objptr
00c3c     A8 F0 84 F1 | 	sub	objptr, #168
00c40     0E 00 00 FF 
00c44     58 F4 04 F1 | 	add	ptr__dat__, ##7256
00c48     7A 18 01 F6 | 	mov	arg02, ptr__dat__
00c4c     0E 00 00 FF 
00c50     58 F4 84 F1 | 	sub	ptr__dat__, ##7256
00c54     06 1A 05 F6 | 	mov	arg03, #6
00c58     8C 08 B0 FD | 	call	#__system__longmove
00c5c                 | '   longmove(@timings,@timings544,16)
00c5c     54 F0 04 F1 | 	add	objptr, #84
00c60     78 16 01 F6 | 	mov	arg01, objptr
00c64     54 F0 84 F1 | 	sub	objptr, #84
00c68     0F 00 00 FF 
00c6c     70 F4 04 F1 | 	add	ptr__dat__, ##7792
00c70     7A 18 01 F6 | 	mov	arg02, ptr__dat__
00c74     0F 00 00 FF 
00c78     70 F4 84 F1 | 	sub	ptr__dat__, ##7792
00c7c     10 1A 05 F6 | 	mov	arg03, #16
00c80     64 08 B0 FD | 	call	#__system__longmove
00c84                 | '   repeat i from 0 to 5
00c84     00 4A 05 F6 | 	mov	local09, #0
00c88     E4 F3 9F FE | 	loc	pa,	#(@LR__0027-@LR__0025)
00c8c     35 00 A0 FD | 	call	#FCACHE_LOAD_
00c90                 | LR__0025
00c90                 | '     timings[i]:=timings[i]+streamer[i]+hdmibase<<17
00c90     A5 3C 01 F6 | 	mov	local02, local09
00c94     02 3C 65 F0 | 	shl	local02, #2
00c98     54 F0 04 F1 | 	add	objptr, #84
00c9c     78 3C 01 F1 | 	add	local02, objptr
00ca0     A5 40 01 F6 | 	mov	local04, local09
00ca4     02 40 65 F0 | 	shl	local04, #2
00ca8     54 F0 04 F1 | 	add	objptr, #84
00cac     9E 46 01 FB | 	rdlong	local07, local02
00cb0     78 40 01 F1 | 	add	local04, objptr
00cb4     A0 44 01 FB | 	rdlong	local06, local04
00cb8     A2 46 01 F1 | 	add	local07, local06
00cbc     80 F0 84 F1 | 	sub	objptr, #128
00cc0     78 4C 01 FB | 	rdlong	local10, objptr
00cc4     11 4C 65 F0 | 	shl	local10, #17
00cc8     A6 46 01 F1 | 	add	local07, local10
00ccc     A5 4E 01 F6 | 	mov	local11, local09
00cd0     02 4E 65 F0 | 	shl	local11, #2
00cd4     2C F0 04 F1 | 	add	objptr, #44
00cd8     78 4E 01 F1 | 	add	local11, objptr
00cdc     A7 46 61 FC | 	wrlong	local07, local11
00ce0     01 4A 05 F1 | 	add	local09, #1
00ce4     06 4A 5D F2 | 	cmps	local09, #6 wcz
00ce8     54 F0 84 F1 | 	sub	objptr, #84
00cec     A0 FF 9F CD |  if_b	jmp	#LR__0025
00cf0                 | '   repeat i from 0 to 15
00cf0     00 4A 05 F6 | 	mov	local09, #0
00cf4                 | LR__0026
00cf4     01 4A 05 F1 | 	add	local09, #1
00cf8     10 4A 5D F2 | 	cmps	local09, #16 wcz
00cfc     F4 FF 9F CD |  if_b	jmp	#LR__0026
00d00                 | LR__0027
00d00                 | '   clkfreq:=timings[13]
00d00     88 F0 04 F1 | 	add	objptr, #136
00d04     78 46 01 FB | 	rdlong	local07, objptr
00d08     14 46 65 FC | 	wrlong	local07, #20
00d0c                 | '   hubset(timings[14])
00d0c     04 F0 04 F1 | 	add	objptr, #4
00d10     78 16 01 FB | 	rdlong	arg01, objptr
00d14     8C F0 84 F1 | 	sub	objptr, #140
00d18     00 16 61 FD | 	hubset	arg01
00d1c                 | '   waitms(1)
00d1c     01 16 05 F6 | 	mov	arg01, #1
00d20     3C 08 B0 FD | 	call	#__system___waitms
00d24                 | LR__0028
00d24                 | ' cpl:=timings[11]
00d24     80 F0 04 F1 | 	add	objptr, #128
00d28     78 46 01 FB | 	rdlong	local07, objptr
00d2c     14 F0 04 F1 | 	add	objptr, #20
00d30     78 46 61 FC | 	wrlong	local07, objptr
00d34                 | ' lines:=timings[12]>>4
00d34     10 F0 84 F1 | 	sub	objptr, #16
00d38     78 46 01 FB | 	rdlong	local07, objptr
00d3c     04 46 45 F0 | 	shr	local07, #4
00d40     14 F0 04 F1 | 	add	objptr, #20
00d44     78 46 61 FC | 	wrlong	local07, objptr
00d48                 | ' buflen:=cpl*lines
00d48     04 F0 84 F1 | 	sub	objptr, #4
00d4c     78 3C 01 FB | 	rdlong	local02, objptr
00d50     04 F0 04 F1 | 	add	objptr, #4
00d54     78 40 01 FB | 	rdlong	local04, objptr
00d58     A0 3C 01 FD | 	qmul	local02, local04
00d5c     18 46 61 FD | 	getqx	local07
00d60     64 F0 84 F1 | 	sub	objptr, #100
00d64     78 46 61 FC | 	wrlong	local07, objptr
00d68     34 F0 84 F1 | 	sub	objptr, #52
00d6c                 | ' if mode>=512
00d6c     01 00 00 FF 
00d70     00 3A 5D F2 | 	cmps	local01, ##512 wcz
00d74     14 00 90 CD |  if_b	jmp	#LR__0029
00d78                 | '   buflen:=buflen*8
00d78     34 F0 04 F1 | 	add	objptr, #52
00d7c     78 46 01 FB | 	rdlong	local07, objptr
00d80     03 46 65 F0 | 	shl	local07, #3
00d84     78 46 61 FC | 	wrlong	local07, objptr
00d88     34 F0 84 F1 | 	sub	objptr, #52
00d8c                 | LR__0029
00d8c                 | ' buf_ptr:=$7C000-4*buflen
00d8c     34 F0 04 F1 | 	add	objptr, #52
00d90     78 3C 01 FB | 	rdlong	local02, objptr
00d94     34 F0 84 F1 | 	sub	objptr, #52
00d98     02 3C 65 F0 | 	shl	local02, #2
00d9c     E0 03 00 FF 
00da0     00 46 05 F6 | 	mov	local07, ##507904
00da4     9E 46 81 F1 | 	sub	local07, local02
00da8     78 46 61 FC | 	wrlong	local07, objptr
00dac                 | ' mode_ptr:=@timings
00dac     54 F0 04 F1 | 	add	objptr, #84
00db0     78 46 01 F6 | 	mov	local07, objptr
00db4     40 F0 84 F1 | 	sub	objptr, #64
00db8     78 46 61 FC | 	wrlong	local07, objptr
00dbc                 | ' graphmode:=mode
00dbc     BC F0 04 F1 | 	add	objptr, #188
00dc0     78 3A 61 FC | 	wrlong	local01, objptr
00dc4     D0 F0 84 F1 | 	sub	objptr, #208
00dc8     46 F0 03 F6 | 	mov	ptra, fp
00dcc     5A 00 A0 FD | 	call	#popregs_
00dd0                 | _setmode_ret
00dd0     2D 00 64 FD | 	ret
00dd4                 | 
00dd4                 | ' 
00dd4                 | ' '---------- Make a display list
00dd4                 | ' 
00dd4                 | ' pub makedl (mode) |i, fontline,charline,bufstart,zoom1,vzoom,lpc
00dd4                 | _makedl
00dd4     8B FA 00 F6 | 	mov	_var01, arg01
00dd8                 | ' 
00dd8                 | ' '' display list
00dd8                 | ' '' %rrrr_rrrr_gggg_gggg_bbbb_bbbb_0000_0000 - display a border using rr gg bb
00dd8                 | ' '' %aaaa_aaaa_aaaa_aaaa_aaaa_0bbr_cczz_rrrr - display graphic line, cc colors, 00-2,-1-4,10-16,11-256, zz-zoom 1-2-4-8
00dd8                 | ' '' rrrrr - reserved
00dd8                 | ' '   0 - display a up/down border line
00dd8                 | '     
00dd8                 | ' '  ' aaaa_aaaa_aaaa_aaaa_aazz_nnnn_llll_ll_01 - text line
00dd8                 | ' '    aaaa_aaaa_aaaa_aaaa_aa00 - buffer start, has to be aligned, 1 long for char, ff_bb_rr_cc, foreground, background,reserved, charcode
00dd8                 | ' '    zz - zoom, 00-x1, 01-x2, 10-x4, 11-blank line
00dd8                 | ' '    nnnn - font line to display, 0..15
00dd8                 | ' '    llllll - character line, determines the cursor Y position
00dd8                 | ' 
00dd8                 | ' 
00dd8                 | ' 
00dd8                 | ' 
00dd8                 | ' if (mode &256==0) 
00dd8     00 FB CC F7 | 	test	_var01, #256 wz
00ddc     1C 00 90 5D |  if_ne	jmp	#LR__0030
00de0                 | '   dl_ptr:=buf_ptr-4*576 
00de0     78 FC 00 FB | 	rdlong	_var02, objptr
00de4     04 00 00 FF 
00de8     00 FD 84 F1 | 	sub	_var02, ##2304
00dec     20 F0 04 F1 | 	add	objptr, #32
00df0     78 FC 60 FC | 	wrlong	_var02, objptr
00df4     20 F0 84 F1 | 	sub	objptr, #32
00df8                 | ' else 
00df8     14 00 90 FD | 	jmp	#LR__0031
00dfc                 | LR__0030
00dfc                 | '   dl_ptr:=buf_ptr-496
00dfc     78 FC 00 FB | 	rdlong	_var02, objptr
00e00     F0 FD 84 F1 | 	sub	_var02, #496
00e04     20 F0 04 F1 | 	add	objptr, #32
00e08     78 FC 60 FC | 	wrlong	_var02, objptr
00e0c     20 F0 84 F1 | 	sub	objptr, #32
00e10                 | LR__0031
00e10                 | ' 
00e10                 | ' if mode<512 '' text modes
00e10     01 00 00 FF 
00e14     00 FA 5C F2 | 	cmps	_var01, ##512 wcz
00e18                 | ' 
00e18                 | ' zoom1:=1
00e18     01 FE 04 F6 | 	mov	_var03, #1
00e1c                 | ' if (mode&3)==1
00e1c     7D FC 00 F6 | 	mov	_var02, _var01
00e20     03 FC 04 F5 | 	and	_var02, #3
00e24     01 FC 0C F2 | 	cmp	_var02, #1 wz
00e28                 | '   zoom1:=2
00e28     02 FE 04 A6 |  if_e	mov	_var03, #2
00e2c                 | ' if (mode&3)==2
00e2c     7D FC 00 F6 | 	mov	_var02, _var01
00e30     03 FC 04 F5 | 	and	_var02, #3
00e34     02 FC 0C F2 | 	cmp	_var02, #2 wz
00e38                 | '   zoom1:=4
00e38     04 FE 04 A6 |  if_e	mov	_var03, #4
00e3c                 | ' 
00e3c                 | ' cpl:=cpl/zoom1  
00e3c     94 F0 04 F1 | 	add	objptr, #148
00e40     78 58 01 FB | 	rdlong	muldiva_, objptr
00e44     94 F0 84 F1 | 	sub	objptr, #148
00e48     7F 5A 01 F6 | 	mov	muldivb_, _var03
00e4c     6B 00 A0 FD | 	call	#divide_
00e50     AD FC 00 F6 | 	mov	_var02, muldivb_
00e54     94 F0 04 F1 | 	add	objptr, #148
00e58     78 FC 60 FC | 	wrlong	_var02, objptr
00e5c     94 F0 84 F1 | 	sub	objptr, #148
00e60                 | ' 
00e60                 | ' if mode<64
00e60     40 FA 5C F2 | 	cmps	_var01, #64 wcz
00e64     28 01 90 3D |  if_ae	jmp	#LR__0037
00e68                 | '   repeat i from 0 to 47
00e68     00 00 05 F6 | 	mov	_var04, #0
00e6c     EC F1 9F FE | 	loc	pa,	#(@LR__0034-@LR__0032)
00e70     35 00 A0 FD | 	call	#FCACHE_LOAD_
00e74                 | LR__0032
00e74                 | '     long[dl_ptr+4*i]:=0
00e74     20 F0 04 F1 | 	add	objptr, #32
00e78     78 FC 00 FB | 	rdlong	_var02, objptr
00e7c     20 F0 84 F1 | 	sub	objptr, #32
00e80     80 02 01 F6 | 	mov	_var05, _var04
00e84     02 02 65 F0 | 	shl	_var05, #2
00e88     81 FC 00 F1 | 	add	_var02, _var05
00e8c     7E 00 68 FC | 	wrlong	#0, _var02
00e90     01 00 05 F1 | 	add	_var04, #1
00e94     30 00 5D F2 | 	cmps	_var04, #48 wcz
00e98     D8 FF 9F CD |  if_b	jmp	#LR__0032
00e9c                 | '   repeat i from 528 to 575
00e9c     01 00 00 FF 
00ea0     10 00 05 F6 | 	mov	_var04, ##528
00ea4                 | LR__0033
00ea4                 | '     long[dl_ptr+4*i]:=$0  
00ea4     20 F0 04 F1 | 	add	objptr, #32
00ea8     78 FC 00 FB | 	rdlong	_var02, objptr
00eac     20 F0 84 F1 | 	sub	objptr, #32
00eb0     80 02 01 F6 | 	mov	_var05, _var04
00eb4     02 02 65 F0 | 	shl	_var05, #2
00eb8     81 FC 00 F1 | 	add	_var02, _var05
00ebc     7E 00 68 FC | 	wrlong	#0, _var02
00ec0     01 00 05 F1 | 	add	_var04, #1
00ec4     01 00 00 FF 
00ec8     40 00 5D F2 | 	cmps	_var04, ##576 wcz
00ecc     D4 FF 9F CD |  if_b	jmp	#LR__0033
00ed0                 | LR__0034
00ed0                 | '   vzoom:=((mode>>2) & 3)  
00ed0     7D 04 01 F6 | 	mov	_var06, _var01
00ed4     02 04 45 F0 | 	shr	_var06, #2
00ed8     03 04 05 F5 | 	and	_var06, #3
00edc                 | '   lpc:=16<<vzoom 
00edc     10 06 05 F6 | 	mov	_var07, #16
00ee0     82 06 61 F0 | 	shl	_var07, _var06
00ee4                 | '   repeat i from 48 to 527
00ee4     30 00 05 F6 | 	mov	_var04, #48
00ee8     B4 F1 9F FE | 	loc	pa,	#(@LR__0036-@LR__0035)
00eec     35 00 A0 FD | 	call	#FCACHE_LOAD_
00ef0                 | LR__0035
00ef0                 | '     fontline:=((i-48)+//lpc)>>vzoom
00ef0     80 58 01 F6 | 	mov	muldiva_, _var04
00ef4     30 58 85 F1 | 	sub	muldiva_, #48
00ef8     83 5A 01 F6 | 	mov	muldivb_, _var07
00efc     67 00 A0 FD | 	call	#unsdivide_
00f00     82 58 41 F0 | 	shr	muldiva_, _var06
00f04     AC 08 01 F6 | 	mov	_var08, muldiva_
00f08                 | '     charline:=(i-48)+/lpc
00f08     80 58 01 F6 | 	mov	muldiva_, _var04
00f0c     30 58 85 F1 | 	sub	muldiva_, #48
00f10     83 5A 01 F6 | 	mov	muldivb_, _var07
00f14     67 00 A0 FD | 	call	#unsdivide_
00f18     AD 0A 01 F6 | 	mov	_var09, muldivb_
00f1c                 | '     bufstart:=buf_ptr+4*((cpl)*charline)+(mode&3)
00f1c     78 FC 00 FB | 	rdlong	_var02, objptr
00f20     94 F0 04 F1 | 	add	objptr, #148
00f24     78 02 01 FB | 	rdlong	_var05, objptr
00f28     85 02 01 FD | 	qmul	_var05, _var09
00f2c     18 0C 61 FD | 	getqx	_var10
00f30     02 0C 65 F0 | 	shl	_var10, #2
00f34     86 FC 00 F1 | 	add	_var02, _var10
00f38     7D 0E 01 F6 | 	mov	_var11, _var01
00f3c     03 0E 05 F5 | 	and	_var11, #3
00f40     87 FC 00 F1 | 	add	_var02, _var11
00f44                 | '     long[dl_ptr+4*i]:=(bufstart<<12)+(fontline<<8)+(charline<<2)+1
00f44     0C FC 64 F0 | 	shl	_var02, #12
00f48     84 10 01 F6 | 	mov	_var12, _var08
00f4c     08 10 65 F0 | 	shl	_var12, #8
00f50     88 FC 00 F1 | 	add	_var02, _var12
00f54     85 02 01 F6 | 	mov	_var05, _var09
00f58     02 02 65 F0 | 	shl	_var05, #2
00f5c     81 FC 00 F1 | 	add	_var02, _var05
00f60     01 FC 04 F1 | 	add	_var02, #1
00f64     74 F0 84 F1 | 	sub	objptr, #116
00f68     78 12 01 FB | 	rdlong	_var13, objptr
00f6c     20 F0 84 F1 | 	sub	objptr, #32
00f70     80 0E 01 F6 | 	mov	_var11, _var04
00f74     02 0E 65 F0 | 	shl	_var11, #2
00f78     87 12 01 F1 | 	add	_var13, _var11
00f7c     89 FC 60 FC | 	wrlong	_var02, _var13
00f80     01 00 05 F1 | 	add	_var04, #1
00f84     01 00 00 FF 
00f88     10 00 5D F2 | 	cmps	_var04, ##528 wcz
00f8c     60 FF 9F CD |  if_b	jmp	#LR__0035
00f90                 | LR__0036
00f90                 | LR__0037
00f90                 | ' 
00f90                 | ' 
00f90                 | ' if (mode>=64) and (mode<128)
00f90     40 FA 5C F2 | 	cmps	_var01, #64 wcz
00f94     44 01 90 CD |  if_b	jmp	#LR__0043
00f98     80 FA 5C F2 | 	cmps	_var01, #128 wcz
00f9c     3C 01 90 3D |  if_ae	jmp	#LR__0043
00fa0                 | ' 
00fa0                 | '   repeat i from 0 to 23
00fa0     00 00 05 F6 | 	mov	_var04, #0
00fa4     B4 F0 9F FE | 	loc	pa,	#(@LR__0040-@LR__0038)
00fa8     35 00 A0 FD | 	call	#FCACHE_LOAD_
00fac                 | LR__0038
00fac                 | '     long[dl_ptr+4*i]:=0
00fac     20 F0 04 F1 | 	add	objptr, #32
00fb0     78 FC 00 FB | 	rdlong	_var02, objptr
00fb4     20 F0 84 F1 | 	sub	objptr, #32
00fb8     80 02 01 F6 | 	mov	_var05, _var04
00fbc     02 02 65 F0 | 	shl	_var05, #2
00fc0     81 FC 00 F1 | 	add	_var02, _var05
00fc4     7E 00 68 FC | 	wrlong	#0, _var02
00fc8     01 00 05 F1 | 	add	_var04, #1
00fcc     18 00 5D F2 | 	cmps	_var04, #24 wcz
00fd0     D8 FF 9F CD |  if_b	jmp	#LR__0038
00fd4                 | '   repeat i from 520 to 543
00fd4     01 00 00 FF 
00fd8     08 00 05 F6 | 	mov	_var04, ##520
00fdc                 | LR__0039
00fdc                 | '     long[dl_ptr+4*i]:=$0  
00fdc     20 F0 04 F1 | 	add	objptr, #32
00fe0     78 FC 00 FB | 	rdlong	_var02, objptr
00fe4     20 F0 84 F1 | 	sub	objptr, #32
00fe8     80 02 01 F6 | 	mov	_var05, _var04
00fec     02 02 65 F0 | 	shl	_var05, #2
00ff0     81 FC 00 F1 | 	add	_var02, _var05
00ff4     7E 00 68 FC | 	wrlong	#0, _var02
00ff8     01 00 05 F1 | 	add	_var04, #1
00ffc     01 00 00 FF 
01000     20 00 5D F2 | 	cmps	_var04, ##544 wcz
01004     D4 FF 9F CD |  if_b	jmp	#LR__0039
01008                 | LR__0040
01008                 | '   vzoom:=((mode>>2) & 3)  
01008     7D 04 01 F6 | 	mov	_var06, _var01
0100c     02 04 45 F0 | 	shr	_var06, #2
01010     03 04 05 F5 | 	and	_var06, #3
01014                 | '   lpc:=16<<vzoom 
01014     10 06 05 F6 | 	mov	_var07, #16
01018     82 06 61 F0 | 	shl	_var07, _var06
0101c                 | '   repeat i from 24 to 519
0101c     18 00 05 F6 | 	mov	_var04, #24
01020     90 F0 9F FE | 	loc	pa,	#(@LR__0042-@LR__0041)
01024     35 00 A0 FD | 	call	#FCACHE_LOAD_
01028                 | LR__0041
01028                 | '     fontline:=((i-24)+//lpc)>>vzoom
01028     80 58 01 F6 | 	mov	muldiva_, _var04
0102c     18 58 85 F1 | 	sub	muldiva_, #24
01030     83 5A 01 F6 | 	mov	muldivb_, _var07
01034     67 00 A0 FD | 	call	#unsdivide_
01038     82 58 41 F0 | 	shr	muldiva_, _var06
0103c     AC 08 01 F6 | 	mov	_var08, muldiva_
01040                 | '     charline:=(i-24)+/lpc
01040     80 58 01 F6 | 	mov	muldiva_, _var04
01044     18 58 85 F1 | 	sub	muldiva_, #24
01048     83 5A 01 F6 | 	mov	muldivb_, _var07
0104c     67 00 A0 FD | 	call	#unsdivide_
01050     AD 0A 01 F6 | 	mov	_var09, muldivb_
01054                 | '     bufstart:=buf_ptr+4*((cpl)*charline)+(mode&3)
01054     78 14 01 FB | 	rdlong	_var14, objptr
01058     94 F0 04 F1 | 	add	objptr, #148
0105c     78 02 01 FB | 	rdlong	_var05, objptr
01060     85 02 01 FD | 	qmul	_var05, _var09
01064     18 0C 61 FD | 	getqx	_var10
01068     02 0C 65 F0 | 	shl	_var10, #2
0106c     86 14 01 F1 | 	add	_var14, _var10
01070     7D 0E 01 F6 | 	mov	_var11, _var01
01074     03 0E 05 F5 | 	and	_var11, #3
01078     87 14 01 F1 | 	add	_var14, _var11
0107c                 | '     long[dl_ptr+4*i]:=(bufstart<<12)+(fontline<<8)+(charline<<2)+1
0107c     8A FC 00 F6 | 	mov	_var02, _var14
01080     0C FC 64 F0 | 	shl	_var02, #12
01084     84 10 01 F6 | 	mov	_var12, _var08
01088     08 10 65 F0 | 	shl	_var12, #8
0108c     88 FC 00 F1 | 	add	_var02, _var12
01090     85 02 01 F6 | 	mov	_var05, _var09
01094     02 02 65 F0 | 	shl	_var05, #2
01098     81 FC 00 F1 | 	add	_var02, _var05
0109c     01 FC 04 F1 | 	add	_var02, #1
010a0     74 F0 84 F1 | 	sub	objptr, #116
010a4     78 0C 01 FB | 	rdlong	_var10, objptr
010a8     20 F0 84 F1 | 	sub	objptr, #32
010ac     86 12 01 F6 | 	mov	_var13, _var10
010b0     80 0E 01 F6 | 	mov	_var11, _var04
010b4     02 0E 65 F0 | 	shl	_var11, #2
010b8     87 12 01 F1 | 	add	_var13, _var11
010bc     89 FC 60 FC | 	wrlong	_var02, _var13
010c0     80 FC 00 F6 | 	mov	_var02, _var04
010c4     80 10 01 F6 | 	mov	_var12, _var04
010c8     01 10 05 F1 | 	add	_var12, #1
010cc     88 00 01 F6 | 	mov	_var04, _var12
010d0     01 00 00 FF 
010d4     08 00 5D F2 | 	cmps	_var04, ##520 wcz
010d8     4C FF 9F CD |  if_b	jmp	#LR__0041
010dc                 | LR__0042
010dc                 | LR__0043
010dc                 | ' 
010dc                 | ' if (mode>=128) and (mode<192)
010dc     80 FA 5C F2 | 	cmps	_var01, #128 wcz
010e0     38 01 90 CD |  if_b	jmp	#LR__0049
010e4     C0 FA 5C F2 | 	cmps	_var01, #192 wcz
010e8     30 01 90 3D |  if_ae	jmp	#LR__0049
010ec                 | ' 
010ec                 | '   repeat i from 0 to 7
010ec     00 00 05 F6 | 	mov	_var04, #0
010f0     60 EF 9F FE | 	loc	pa,	#(@LR__0046-@LR__0044)
010f4     35 00 A0 FD | 	call	#FCACHE_LOAD_
010f8                 | LR__0044
010f8                 | '     long[dl_ptr+4*i]:=0
010f8     20 F0 04 F1 | 	add	objptr, #32
010fc     78 FC 00 FB | 	rdlong	_var02, objptr
01100     20 F0 84 F1 | 	sub	objptr, #32
01104     80 02 01 F6 | 	mov	_var05, _var04
01108     02 02 65 F0 | 	shl	_var05, #2
0110c     81 FC 00 F1 | 	add	_var02, _var05
01110     7E 00 68 FC | 	wrlong	#0, _var02
01114     01 00 05 F1 | 	add	_var04, #1
01118     08 00 5D F2 | 	cmps	_var04, #8 wcz
0111c     D8 FF 9F CD |  if_b	jmp	#LR__0044
01120                 | '   repeat i from 488 to 495
01120     E8 01 05 F6 | 	mov	_var04, #488
01124                 | LR__0045
01124                 | '     long[dl_ptr+4*i]:=$0  
01124     20 F0 04 F1 | 	add	objptr, #32
01128     78 FC 00 FB | 	rdlong	_var02, objptr
0112c     20 F0 84 F1 | 	sub	objptr, #32
01130     80 02 01 F6 | 	mov	_var05, _var04
01134     02 02 65 F0 | 	shl	_var05, #2
01138     81 FC 00 F1 | 	add	_var02, _var05
0113c     7E 00 68 FC | 	wrlong	#0, _var02
01140     01 00 05 F1 | 	add	_var04, #1
01144     F0 01 5D F2 | 	cmps	_var04, #496 wcz
01148     D8 FF 9F CD |  if_b	jmp	#LR__0045
0114c                 | LR__0046
0114c                 | '   vzoom:=((mode>>2) & 3)  
0114c     7D 04 01 F6 | 	mov	_var06, _var01
01150     02 04 45 F0 | 	shr	_var06, #2
01154     03 04 05 F5 | 	and	_var06, #3
01158                 | '   lpc:=16<<vzoom 
01158     10 06 05 F6 | 	mov	_var07, #16
0115c     82 06 61 F0 | 	shl	_var07, _var06
01160                 | '   repeat i from 8 to 487
01160     08 00 05 F6 | 	mov	_var04, #8
01164     48 EF 9F FE | 	loc	pa,	#(@LR__0048-@LR__0047)
01168     35 00 A0 FD | 	call	#FCACHE_LOAD_
0116c                 | LR__0047
0116c                 | '     fontline:=((i-8)+//lpc)>>vzoom
0116c     80 58 01 F6 | 	mov	muldiva_, _var04
01170     08 58 85 F1 | 	sub	muldiva_, #8
01174     83 5A 01 F6 | 	mov	muldivb_, _var07
01178     67 00 A0 FD | 	call	#unsdivide_
0117c     82 58 41 F0 | 	shr	muldiva_, _var06
01180     AC 08 01 F6 | 	mov	_var08, muldiva_
01184                 | '     charline:=(i-8)+/lpc
01184     80 58 01 F6 | 	mov	muldiva_, _var04
01188     08 58 85 F1 | 	sub	muldiva_, #8
0118c     83 5A 01 F6 | 	mov	muldivb_, _var07
01190     67 00 A0 FD | 	call	#unsdivide_
01194     AD 0A 01 F6 | 	mov	_var09, muldivb_
01198                 | '     bufstart:=buf_ptr+4*((cpl)*charline)+(mode&3)
01198     78 14 01 FB | 	rdlong	_var14, objptr
0119c     94 F0 04 F1 | 	add	objptr, #148
011a0     78 02 01 FB | 	rdlong	_var05, objptr
011a4     85 02 01 FD | 	qmul	_var05, _var09
011a8     18 0C 61 FD | 	getqx	_var10
011ac     02 0C 65 F0 | 	shl	_var10, #2
011b0     86 14 01 F1 | 	add	_var14, _var10
011b4     7D 0E 01 F6 | 	mov	_var11, _var01
011b8     03 0E 05 F5 | 	and	_var11, #3
011bc     87 14 01 F1 | 	add	_var14, _var11
011c0                 | '     long[dl_ptr+4*i]:=(bufstart<<12)+(fontline<<8)+(charline<<2)+1
011c0     8A FC 00 F6 | 	mov	_var02, _var14
011c4     0C FC 64 F0 | 	shl	_var02, #12
011c8     84 10 01 F6 | 	mov	_var12, _var08
011cc     08 10 65 F0 | 	shl	_var12, #8
011d0     88 FC 00 F1 | 	add	_var02, _var12
011d4     85 02 01 F6 | 	mov	_var05, _var09
011d8     02 02 65 F0 | 	shl	_var05, #2
011dc     81 FC 00 F1 | 	add	_var02, _var05
011e0     01 FC 04 F1 | 	add	_var02, #1
011e4     74 F0 84 F1 | 	sub	objptr, #116
011e8     78 0C 01 FB | 	rdlong	_var10, objptr
011ec     20 F0 84 F1 | 	sub	objptr, #32
011f0     86 12 01 F6 | 	mov	_var13, _var10
011f4     80 0E 01 F6 | 	mov	_var11, _var04
011f8     02 0E 65 F0 | 	shl	_var11, #2
011fc     87 12 01 F1 | 	add	_var13, _var11
01200     89 FC 60 FC | 	wrlong	_var02, _var13
01204     80 FC 00 F6 | 	mov	_var02, _var04
01208     80 10 01 F6 | 	mov	_var12, _var04
0120c     01 10 05 F1 | 	add	_var12, #1
01210     88 00 01 F6 | 	mov	_var04, _var12
01214     E8 01 5D F2 | 	cmps	_var04, #488 wcz
01218     50 FF 9F CD |  if_b	jmp	#LR__0047
0121c                 | LR__0048
0121c                 | LR__0049
0121c                 | ' 
0121c                 | ' if (mode>=192) and (mode<256)
0121c     C0 FA 5C F2 | 	cmps	_var01, #192 wcz
01220     B0 00 90 CD |  if_b	jmp	#LR__0052
01224     00 FB 5C F2 | 	cmps	_var01, #256 wcz
01228     A8 00 90 3D |  if_ae	jmp	#LR__0052
0122c                 | ' 
0122c                 | '   vzoom:=((mode>>2) & 3)  
0122c     7D 04 01 F6 | 	mov	_var06, _var01
01230     02 04 45 F0 | 	shr	_var06, #2
01234     03 04 05 F5 | 	and	_var06, #3
01238                 | '   lpc:=16<<vzoom 
01238     10 06 05 F6 | 	mov	_var07, #16
0123c     82 06 61 F0 | 	shl	_var07, _var06
01240                 | '   repeat i from 0 to 575
01240     00 00 05 F6 | 	mov	_var04, #0
01244     40 EE 9F FE | 	loc	pa,	#(@LR__0051-@LR__0050)
01248     35 00 A0 FD | 	call	#FCACHE_LOAD_
0124c                 | LR__0050
0124c                 | '     fontline:=((i)+//lpc)>>vzoom
0124c     80 58 01 F6 | 	mov	muldiva_, _var04
01250     83 5A 01 F6 | 	mov	muldivb_, _var07
01254     67 00 A0 FD | 	call	#unsdivide_
01258     82 58 41 F0 | 	shr	muldiva_, _var06
0125c     AC 10 01 F6 | 	mov	_var12, muldiva_
01260                 | '     charline:=(i)+/lpc
01260     AD 0A 01 F6 | 	mov	_var09, muldivb_
01264                 | '     bufstart:=buf_ptr+4*((cpl)*charline)+(mode&3)
01264     78 FC 00 FB | 	rdlong	_var02, objptr
01268     94 F0 04 F1 | 	add	objptr, #148
0126c     78 02 01 FB | 	rdlong	_var05, objptr
01270     85 02 01 FD | 	qmul	_var05, _var09
01274     18 0C 61 FD | 	getqx	_var10
01278     02 0C 65 F0 | 	shl	_var10, #2
0127c     86 FC 00 F1 | 	add	_var02, _var10
01280     7D 0E 01 F6 | 	mov	_var11, _var01
01284     03 0E 05 F5 | 	and	_var11, #3
01288     87 FC 00 F1 | 	add	_var02, _var11
0128c                 | '     long[dl_ptr+4*i]:=(bufstart<<12)+(fontline<<8)+(charline<<2)+1
0128c     0C FC 64 F0 | 	shl	_var02, #12
01290     08 10 65 F0 | 	shl	_var12, #8
01294     88 FC 00 F1 | 	add	_var02, _var12
01298     85 02 01 F6 | 	mov	_var05, _var09
0129c     02 02 65 F0 | 	shl	_var05, #2
012a0     81 FC 00 F1 | 	add	_var02, _var05
012a4     01 FC 04 F1 | 	add	_var02, #1
012a8     74 F0 84 F1 | 	sub	objptr, #116
012ac     78 12 01 FB | 	rdlong	_var13, objptr
012b0     20 F0 84 F1 | 	sub	objptr, #32
012b4     80 0E 01 F6 | 	mov	_var11, _var04
012b8     02 0E 65 F0 | 	shl	_var11, #2
012bc     87 12 01 F1 | 	add	_var13, _var11
012c0     89 FC 60 FC | 	wrlong	_var02, _var13
012c4     01 00 05 F1 | 	add	_var04, #1
012c8     01 00 00 FF 
012cc     40 00 5D F2 | 	cmps	_var04, ##576 wcz
012d0     78 FF 9F CD |  if_b	jmp	#LR__0050
012d4                 | LR__0051
012d4                 | LR__0052
012d4                 | _makedl_ret
012d4     2D 00 64 FD | 	ret
012d8                 | 
012d8                 | ' 
012d8                 | ' 
012d8                 | ' 
012d8                 | ' 
012d8                 | ' '--------- Start the driver with graphics mode 'mode' at pins 'base'
012d8                 | ' 
012d8                 | ' pub start(mode,base):result
012d8                 | _start
012d8     03 88 04 F6 | 	mov	COUNT_, #3
012dc     4B 00 A0 FD | 	call	#pushregs_
012e0     8B 3A 01 F6 | 	mov	local01, arg01
012e4                 | ' 
012e4                 | ' ' initialize pointers and variables
012e4                 | ' 
012e4                 | ' border_ptr:=@bordercolor
012e4     30 F0 04 F1 | 	add	objptr, #48
012e8     78 3C 01 F6 | 	mov	local02, objptr
012ec     28 F0 84 F1 | 	sub	objptr, #40
012f0     78 3C 61 FC | 	wrlong	local02, objptr
012f4                 | ' font_ptr:=@st_font
012f4     08 00 00 FF 
012f8     00 F4 04 F1 | 	add	ptr__dat__, ##4096
012fc     04 F0 84 F1 | 	sub	objptr, #4
01300     78 F4 60 FC | 	wrlong	ptr__dat__, objptr
01304                 | ' hdmibase:=base
01304     24 F0 04 F1 | 	add	objptr, #36
01308     78 18 61 FC | 	wrlong	arg02, objptr
0130c     28 F0 84 F1 | 	sub	objptr, #40
01310                 | ' 
01310                 | ' ' the mode has to be set here to enable computing the buffer length
01310                 | ' 
01310                 | ' setmode(mode)
01310     9D 16 01 F6 | 	mov	arg01, local01
01314     08 00 00 FF 
01318     00 F4 84 F1 | 	sub	ptr__dat__, ##4096
0131c     7C F6 BF FD | 	call	#_setmode
01320                 | ' makedl(mode)
01320     9D 16 01 F6 | 	mov	arg01, local01
01324     AC FA BF FD | 	call	#_makedl
01328                 | ' 
01328                 | ' 
01328                 | ' vblank_ptr:=@vblank
01328     44 F0 04 F1 | 	add	objptr, #68
0132c     78 3C 01 F6 | 	mov	local02, objptr
01330     38 F0 84 F1 | 	sub	objptr, #56
01334     78 3C 61 FC | 	wrlong	local02, objptr
01338                 | ' cursor_ptr:=@cursor_x
01338     2C F0 04 F1 | 	add	objptr, #44
0133c     78 3C 01 F6 | 	mov	local02, objptr
01340     28 F0 84 F1 | 	sub	objptr, #40
01344     78 3C 61 FC | 	wrlong	local02, objptr
01348                 | ' 
01348                 | ' palette_ptr:=@ataripalette
01348     0C 00 00 FF 
0134c     00 F4 04 F1 | 	add	ptr__dat__, ##6144
01350     08 F0 04 F1 | 	add	objptr, #8
01354     78 F4 60 FC | 	wrlong	ptr__dat__, objptr
01358                 | ' command_ptr:=@cmd1
01358     84 F0 04 F1 | 	add	objptr, #132
0135c     78 3C 01 F6 | 	mov	local02, objptr
01360     80 F0 84 F1 | 	sub	objptr, #128
01364     78 3C 61 FC | 	wrlong	local02, objptr
01368                 | ' fontnum_ptr:=@fontnum
01368     88 F0 04 F1 | 	add	objptr, #136
0136c     78 3C 01 F6 | 	mov	local02, objptr
01370     80 F0 84 F1 | 	sub	objptr, #128
01374     78 3C 61 FC | 	wrlong	local02, objptr
01378                 | ' 
01378                 | ' fontnum:=0  ' PC type font ' TODO: font# in buffer byte #1
01378     80 F0 04 F1 | 	add	objptr, #128
0137c     78 00 68 FC | 	wrlong	#0, objptr
01380                 | ' bytemove(@colors,@vgacolors,16)
01380     1C F0 04 F1 | 	add	objptr, #28
01384     78 16 01 F6 | 	mov	arg01, objptr
01388     C0 F0 84 F1 | 	sub	objptr, #192
0138c     03 00 00 FF 
01390     B0 F4 04 F1 | 	add	ptr__dat__, ##1712
01394     7A 18 01 F6 | 	mov	arg02, ptr__dat__
01398     0F 00 00 FF 
0139c     B0 F4 84 F1 | 	sub	ptr__dat__, ##7856
013a0     10 1A 05 F6 | 	mov	arg03, #16
013a4     B0 00 B0 FD | 	call	#__system__bytemove
013a8                 | ' 
013a8                 | ' ' initialize a cursor
013a8                 | ' 
013a8                 | ' cursor_x:=0
013a8     38 F0 04 F1 | 	add	objptr, #56
013ac     78 00 48 FC | 	wrbyte	#0, objptr
013b0                 | ' cursor_y:=0
013b0     01 F0 04 F1 | 	add	objptr, #1
013b4     78 00 48 FC | 	wrbyte	#0, objptr
013b8                 | ' cursor_sh:=14
013b8     01 F0 04 F1 | 	add	objptr, #1
013bc     78 1C 48 FC | 	wrbyte	#14, objptr
013c0                 | ' 
013c0                 | ' cmd1:=257 ' set command idle
013c0     62 F0 04 F1 | 	add	objptr, #98
013c4     78 02 6A FC | 	wrlong	#257, objptr
013c8     9C F0 84 F1 | 	sub	objptr, #156
013cc                 | ' 
013cc                 | ' ' start the cog
013cc                 | ' 
013cc                 | ' cog:=coginit(16,@hdmi, @buf_ptr)
013cc     0F 00 00 FF 
013d0     C0 F4 04 F1 | 	add	ptr__dat__, ##7872
013d4     7A 18 01 F6 | 	mov	arg02, ptr__dat__
013d8     0F 00 00 FF 
013dc     C0 F4 84 F1 | 	sub	ptr__dat__, ##7872
013e0     78 1A 01 F6 | 	mov	arg03, objptr
013e4     10 16 05 F6 | 	mov	arg01, #16
013e8     28 1A 61 FD | 	setq	arg03
013ec     8C 16 F1 FC | 	coginit	arg01, arg02 wc
013f0     01 16 65 C6 |  if_b	neg	arg01, #1
013f4     8B F8 00 F6 | 	mov	result1, arg01
013f8     7C 3E 01 F6 | 	mov	local03, result1
013fc     2C F0 04 F1 | 	add	objptr, #44
01400     78 3E 61 FC | 	wrlong	local03, objptr
01404     2C F0 84 F1 | 	sub	objptr, #44
01408                 | ' waitms(20)
01408     14 16 05 F6 | 	mov	arg01, #20
0140c     50 01 B0 FD | 	call	#__system___waitms
01410                 | ' 
01410                 | ' ' clear the screen and set the colors to green on black
01410                 | ' 
01410                 | ' cls(c_green,c_black)
01410     C7 16 05 F6 | 	mov	arg01, #199
01414     00 18 05 F6 | 	mov	arg02, #0
01418     A8 F3 BF FD | 	call	#_cls
0141c                 | ' setbordercolor(0,0,128)
0141c     00 16 05 F6 | 	mov	arg01, #0
01420     00 18 05 F6 | 	mov	arg02, #0
01424     80 1A 05 F6 | 	mov	arg03, #128
01428     74 F3 BF FD | 	call	#_setbordercolor
0142c                 | ' setwritecolors(c_green,c_black)
0142c                 | ' 
0142c                 | ' 
0142c                 | ' write_color:=ff
0142c     3C F0 04 F1 | 	add	objptr, #60
01430     78 8E 69 FC | 	wrlong	#199, objptr
01434                 | ' write_background:=bb
01434     04 F0 04 F1 | 	add	objptr, #4
01438     78 00 68 FC | 	wrlong	#0, objptr
0143c                 | ' 
0143c                 | ' return cog
0143c     14 F0 84 F1 | 	sub	objptr, #20
01440     78 F8 00 FB | 	rdlong	result1, objptr
01444     2C F0 84 F1 | 	sub	objptr, #44
01448     46 F0 03 F6 | 	mov	ptra, fp
0144c     5A 00 A0 FD | 	call	#popregs_
01450                 | _start_ret
01450     2D 00 64 FD | 	ret
01454                 | hubexit
01454     23 00 80 FD | 	jmp	#cogexit
01458                 | 
01458                 | __system__bytemove
01458     8B FA 00 F6 | 	mov	_var01, arg01
0145c     8C 16 59 F2 | 	cmps	arg01, arg02 wcz
01460     50 00 90 3D |  if_ae	jmp	#LR__0060
01464     B8 EB 9F FE | 	loc	pa,	#(@LR__0054-@LR__0053)
01468     35 00 A0 FD | 	call	#FCACHE_LOAD_
0146c                 | LR__0053
0146c     03 1A 5D F2 | 	cmps	arg03, #3 wcz
01470     18 00 90 ED |  if_be	jmp	#LR__0055
01474     8C FC 00 FB | 	rdlong	_var02, arg02
01478     8B FC 60 FC | 	wrlong	_var02, arg01
0147c     04 16 05 F1 | 	add	arg01, #4
01480     04 18 05 F1 | 	add	arg02, #4
01484     04 1A 85 F1 | 	sub	arg03, #4
01488     E0 FF 9F FD | 	jmp	#LR__0053
0148c                 | LR__0054
0148c                 | LR__0055
0148c     8D FE 08 F6 | 	mov	_var03, arg03 wz
01490     4C 00 90 AD |  if_e	jmp	#LR__0066
01494     7C EB 9F FE | 	loc	pa,	#(@LR__0058-@LR__0056)
01498     35 00 A0 FD | 	call	#FCACHE_LOAD_
0149c                 | LR__0056
0149c     7F 08 D8 FC | 	rep	@LR__0059, _var03
014a0                 | LR__0057
014a0     8C FC C0 FA | 	rdbyte	_var02, arg02
014a4     8B FC 40 FC | 	wrbyte	_var02, arg01
014a8     01 16 05 F1 | 	add	arg01, #1
014ac     01 18 05 F1 | 	add	arg02, #1
014b0                 | LR__0058
014b0                 | LR__0059
014b0     2C 00 90 FD | 	jmp	#LR__0066
014b4                 | LR__0060
014b4     8D 16 01 F1 | 	add	arg01, arg03
014b8     8D 18 01 F1 | 	add	arg02, arg03
014bc     8D 00 09 F6 | 	mov	_var04, arg03 wz
014c0     1C 00 90 AD |  if_e	jmp	#LR__0065
014c4     4C EB 9F FE | 	loc	pa,	#(@LR__0063-@LR__0061)
014c8     35 00 A0 FD | 	call	#FCACHE_LOAD_
014cc                 | LR__0061
014cc     80 08 D8 FC | 	rep	@LR__0064, _var04
014d0                 | LR__0062
014d0     01 16 85 F1 | 	sub	arg01, #1
014d4     01 18 85 F1 | 	sub	arg02, #1
014d8     8C FC C0 FA | 	rdbyte	_var02, arg02
014dc     8B FC 40 FC | 	wrbyte	_var02, arg01
014e0                 | LR__0063
014e0                 | LR__0064
014e0                 | LR__0065
014e0                 | LR__0066
014e0     7D F8 00 F6 | 	mov	result1, _var01
014e4                 | __system__bytemove_ret
014e4     2D 00 64 FD | 	ret
014e8                 | 
014e8                 | __system__longmove
014e8     8B FA 00 F6 | 	mov	_var01, arg01
014ec     8C 16 59 F2 | 	cmps	arg01, arg02 wcz
014f0     28 00 90 3D |  if_ae	jmp	#LR__0071
014f4     8D FC 08 F6 | 	mov	_var02, arg03 wz
014f8     5C 00 90 AD |  if_e	jmp	#LR__0077
014fc     14 EB 9F FE | 	loc	pa,	#(@LR__0069-@LR__0067)
01500     35 00 A0 FD | 	call	#FCACHE_LOAD_
01504                 | LR__0067
01504     7E 08 D8 FC | 	rep	@LR__0070, _var02
01508                 | LR__0068
01508     8C FE 00 FB | 	rdlong	_var03, arg02
0150c     8B FE 60 FC | 	wrlong	_var03, arg01
01510     04 16 05 F1 | 	add	arg01, #4
01514     04 18 05 F1 | 	add	arg02, #4
01518                 | LR__0069
01518                 | LR__0070
01518     3C 00 90 FD | 	jmp	#LR__0077
0151c                 | LR__0071
0151c     8D 00 01 F6 | 	mov	_var04, arg03
01520     02 00 65 F0 | 	shl	_var04, #2
01524     80 16 01 F1 | 	add	arg01, _var04
01528     8D 00 01 F6 | 	mov	_var04, arg03
0152c     02 00 65 F0 | 	shl	_var04, #2
01530     80 18 01 F1 | 	add	arg02, _var04
01534     8D 02 09 F6 | 	mov	_var05, arg03 wz
01538     1C 00 90 AD |  if_e	jmp	#LR__0076
0153c     D4 EA 9F FE | 	loc	pa,	#(@LR__0074-@LR__0072)
01540     35 00 A0 FD | 	call	#FCACHE_LOAD_
01544                 | LR__0072
01544     81 08 D8 FC | 	rep	@LR__0075, _var05
01548                 | LR__0073
01548     04 16 85 F1 | 	sub	arg01, #4
0154c     04 18 85 F1 | 	sub	arg02, #4
01550     8C FE 00 FB | 	rdlong	_var03, arg02
01554     8B FE 60 FC | 	wrlong	_var03, arg01
01558                 | LR__0074
01558                 | LR__0075
01558                 | LR__0076
01558                 | LR__0077
01558     7D F8 00 F6 | 	mov	result1, _var01
0155c                 | __system__longmove_ret
0155c     2D 00 64 FD | 	ret
01560                 | 
01560                 | __system___waitms
01560     02 88 04 F6 | 	mov	COUNT_, #2
01564     4B 00 A0 FD | 	call	#pushregs_
01568     8B 3A 01 F6 | 	mov	local01, arg01
0156c     14 3C 05 FB | 	rdlong	local02, #20
01570     A4 EA 9F FE | 	loc	pa,	#(@LR__0079-@LR__0078)
01574     35 00 A0 FD | 	call	#FCACHE_LOAD_
01578                 | LR__0078
01578     01 00 00 FF 
0157c     E8 3B 5D F2 | 	cmps	local01, ##1000 wcz
01580     1F 3C 61 1D |  if_a	waitx	local02
01584     01 00 00 1F 
01588     E8 3B 85 11 |  if_a	sub	local01, ##1000
0158c     E8 FF 9F 1D |  if_a	jmp	#LR__0078
01590                 | LR__0079
01590     00 3A 5D F2 | 	cmps	local01, #0 wcz
01594     1C 00 90 ED |  if_be	jmp	#LR__0080
01598     9E 58 01 F6 | 	mov	muldiva_, local02
0159c     01 00 00 FF 
015a0     E8 5B 05 F6 | 	mov	muldivb_, ##1000
015a4     6B 00 A0 FD | 	call	#divide_
015a8     AD 3A 01 FD | 	qmul	local01, muldivb_
015ac     18 16 61 FD | 	getqx	arg01
015b0     1F 16 61 FD | 	waitx	arg01
015b4                 | LR__0080
015b4     46 F0 03 F6 | 	mov	ptra, fp
015b8     5A 00 A0 FD | 	call	#popregs_
015bc                 | __system___waitms_ret
015bc     2D 00 64 FD | 	ret
015c0                 | 
015c0                 | LR__0081
015c0     52 45 41 44 
015c4     59          | 	byte	"READY"
015c5     00          | 	byte	0
015c6     00 00       | 	alignl
015c8                 | _dat_
015c8     00 00 00 00 
015cc     00 00 00 00 
015d0     00 00 00 00 
015d4     00 00 00 00 
015d8     00 00 00    | vga_font       file "vgafont.def"
015db     7E 81 A5 81 
015df     81 BD 99 81 
015e3     81 7E 00 00 
015e7     00 00 00 00 | 	byte	$7e, $81, $a5, $81, $81, $bd, $99, $81, $81, $7e, $00, $00, $00, $00, $00, $00
015eb     7E FF DB FF 
015ef     FF C3 E7 FF 
015f3     FF 7E 00 00 
015f7     00 00 00 00 | 	byte	$7e, $ff, $db, $ff, $ff, $c3, $e7, $ff, $ff, $7e, $00, $00, $00, $00, $00, $00
015fb     00 36 7F 7F 
015ff     7F 7F 3E 1C 
01603     08 00 00 00 
01607     00 00 00 00 | 	byte	$00, $36, $7f, $7f, $7f, $7f, $3e, $1c, $08, $00, $00, $00, $00, $00, $00, $00
0160b     00 08 1C 3E 
0160f     7F 3E 1C 08 
01613     00 00 00 00 
01617     00 00 00 00 | 	byte	$00, $08, $1c, $3e, $7f, $3e, $1c, $08, $00, $00, $00, $00, $00, $00, $00, $00
0161b     18 3C 3C E7 
0161f     E7 E7 18 18 
01623     3C 00 00 00 
01627     00 00 00 00 | 	byte	$18, $3c, $3c, $e7, $e7, $e7, $18, $18, $3c, $00, $00, $00, $00, $00, $00, $00
0162b     18 3C 7E FF 
0162f     FF 7E 18 18 
01633     3C 00 00 00 
01637     00 00 00 00 | 	byte	$18, $3c, $7e, $ff, $ff, $7e, $18, $18, $3c, $00, $00, $00, $00, $00, $00, $00
0163b     00 00 00 18 
0163f     3C 3C 18 00 
01643     00 00 00 00 
01647     00 FF FF FF | 	byte	$00, $00, $00, $18, $3c, $3c, $18, $00, $00, $00, $00, $00, $00, $ff, $ff, $ff
0164b     FF FF FF E7 
0164f     C3 C3 E7 FF 
01653     FF FF FF FF 
01657     FF 00 00 00 | 	byte	$ff, $ff, $ff, $e7, $c3, $c3, $e7, $ff, $ff, $ff, $ff, $ff, $ff, $00, $00, $00
0165b     00 00 3C 66 
0165f     42 42 66 3C 
01663     00 00 00 00 
01667     00 FF FF FF | 	byte	$00, $00, $3c, $66, $42, $42, $66, $3c, $00, $00, $00, $00, $00, $ff, $ff, $ff
0166b     FF FF C3 99 
0166f     BD BD 99 C3 
01673     FF FF FF FF 
01677     FF 00 00 00 | 	byte	$ff, $ff, $c3, $99, $bd, $bd, $99, $c3, $ff, $ff, $ff, $ff, $ff, $00, $00, $00
0167b     78 70 58 4C 
0167f     1E 33 33 33 
01683     33 1E 00 00 
01687     00 00 00 00 | 	byte	$78, $70, $58, $4c, $1e, $33, $33, $33, $33, $1e, $00, $00, $00, $00, $00, $00
0168b     3C 66 66 66 
0168f     66 3C 18 7E 
01693     18 18 00 00 
01697     00 00 00 00 | 	byte	$3c, $66, $66, $66, $66, $3c, $18, $7e, $18, $18, $00, $00, $00, $00, $00, $00
0169b     FC CC FC 0C 
0169f     0C 0C 0C 0E 
016a3     0F 07 00 00 
016a7     00 00 00 00 | 	byte	$fc, $cc, $fc, $0c, $0c, $0c, $0c, $0e, $0f, $07, $00, $00, $00, $00, $00, $00
016ab     FE C6 FE C6 
016af     C6 C6 C6 E6 
016b3     E7 67 03 00 
016b7     00 00 00 00 | 	byte	$fe, $c6, $fe, $c6, $c6, $c6, $c6, $e6, $e7, $67, $03, $00, $00, $00, $00, $00
016bb     18 18 DB 3C 
016bf     E7 3C DB 18 
016c3     18 00 00 00 
016c7     00 00 00 01 | 	byte	$18, $18, $db, $3c, $e7, $3c, $db, $18, $18, $00, $00, $00, $00, $00, $00, $01
016cb     03 07 0F 1F 
016cf     7F 1F 0F 07 
016d3     03 01 00 00 
016d7     00 00 00 40 | 	byte	$03, $07, $0f, $1f, $7f, $1f, $0f, $07, $03, $01, $00, $00, $00, $00, $00, $40
016db     60 70 78 7C 
016df     7F 7C 78 70 
016e3     60 40 00 00 
016e7     00 00 00 00 | 	byte	$60, $70, $78, $7c, $7f, $7c, $78, $70, $60, $40, $00, $00, $00, $00, $00, $00
016eb     18 3C 7E 18 
016ef     18 18 7E 3C 
016f3     18 00 00 00 
016f7     00 00 00 00 | 	byte	$18, $3c, $7e, $18, $18, $18, $7e, $3c, $18, $00, $00, $00, $00, $00, $00, $00
016fb     66 66 66 66 
016ff     66 66 66    | 	byte	$66[7]
01702     00 66 66 00 
01706     00 00 00 00 
0170a     00 FE DB DB 
0170e     DB DE D8 D8 | 	byte	$00, $66, $66, $00, $00, $00, $00, $00, $00, $fe, $db, $db, $db, $de, $d8, $d8
01712     D8 D8 D8 00 
01716     00 00 00 3E 
0171a     63 06 1C 36 
0171e     63 63 36 1C | 	byte	$d8, $d8, $d8, $00, $00, $00, $00, $3e, $63, $06, $1c, $36, $63, $63, $36, $1c
01722     30 63 3E 00 
01726     00 00 00 00 
0172a     00 00 00 00 
0172e     00 00 00 7F | 	byte	$30, $63, $3e, $00, $00, $00, $00, $00, $00, $00, $00, $00, $00, $00, $00, $7f
01732     7F 7F 7F 00 
01736     00 00 00 00 
0173a     00 18 3C 7E 
0173e     18 18 18 7E | 	byte	$7f, $7f, $7f, $00, $00, $00, $00, $00, $00, $18, $3c, $7e, $18, $18, $18, $7e
01742     3C 18 7E 00 
01746     00 00 00 00 
0174a     00 18 3C 7E 
0174e     18 18 18 18 | 	byte	$3c, $18, $7e, $00, $00, $00, $00, $00, $00, $18, $3c, $7e, $18, $18, $18, $18
01752     18 18 18 00 
01756     00 00 00 00 
0175a     00 18 18 18 
0175e     18 18 18 18 | 	byte	$18, $18, $18, $00, $00, $00, $00, $00, $00, $18, $18, $18, $18, $18, $18, $18
01762     7E 3C 18 00 
01766     00 00 00 00 
0176a     00 00 00 18 
0176e     30 7F 30 18 | 	byte	$7e, $3c, $18, $00, $00, $00, $00, $00, $00, $00, $00, $18, $30, $7f, $30, $18
01772     00 00 00 00 
01776     00 00 00 00 
0177a     00 00 00    | 	byte	$00[11]
0177d     0C 06 7F 06 
01781     0C 00 00 00 
01785     00 00 00 00 
01789     00 00 00 00 | 	byte	$0c, $06, $7f, $06, $0c, $00, $00, $00, $00, $00, $00, $00, $00, $00, $00, $00
0178d     00 03 03 03 
01791     7F 00 00 00 
01795     00 00 00 00 
01799     00 00 00 00 | 	byte	$00, $03, $03, $03, $7f, $00, $00, $00, $00, $00, $00, $00, $00, $00, $00, $00
0179d     14 36 7F 36 
017a1     14 00 00 00 
017a5     00 00 00 00 
017a9     00 00 00 08 | 	byte	$14, $36, $7f, $36, $14, $00, $00, $00, $00, $00, $00, $00, $00, $00, $00, $08
017ad     1C 1C 3E 3E 
017b1     7F 7F 00 00 
017b5     00 00 00 00 
017b9     00 00 00 7F | 	byte	$1c, $1c, $3e, $3e, $7f, $7f, $00, $00, $00, $00, $00, $00, $00, $00, $00, $7f
017bd     7F 3E 3E 1C 
017c1     1C 08 00 00 
017c5     00 00 00 00 
017c9     00 00 00 00 | 	byte	$7f, $3e, $3e, $1c, $1c, $08, $00, $00, $00, $00, $00, $00, $00, $00, $00, $00
017cd     00 00 00 00 
017d1     00 00 00 00 
017d5     00 00 00 00 
017d9     00 00       | 	byte	$00[14]
017db     18 3C 3C 3C 
017df     18 18 18 00 
017e3     18 18 00 00 
017e7     00 00 66 66 | 	byte	$18, $3c, $3c, $3c, $18, $18, $18, $00, $18, $18, $00, $00, $00, $00, $66, $66
017eb     66 24 00 00 
017ef     00 00 00 00 
017f3     00 00 00 00 
017f7     00 00 00 00 | 	byte	$66, $24, $00, $00, $00, $00, $00, $00, $00, $00, $00, $00, $00, $00, $00, $00
017fb     00 36 36 7F 
017ff     36 36 36 7F 
01803     36 36 00 00 
01807     00 00 18 18 | 	byte	$00, $36, $36, $7f, $36, $36, $36, $7f, $36, $36, $00, $00, $00, $00, $18, $18
0180b     3E 63 43 03 
0180f     3E 60 60 61 
01813     63 3E 18 18 
01817     00 00 00 00 | 	byte	$3e, $63, $43, $03, $3e, $60, $60, $61, $63, $3e, $18, $18, $00, $00, $00, $00
0181b     00 00 43 63 
0181f     30 18 0C 06 
01823     63 61 00 00 
01827     00 00 00 00 | 	byte	$00, $00, $43, $63, $30, $18, $0c, $06, $63, $61, $00, $00, $00, $00, $00, $00
0182b     1C 36 36 1C 
0182f     6E 3B 33 33 
01833     33 6E 00 00 
01837     00 00 00 00 | 	byte	$1c, $36, $36, $1c, $6e, $3b, $33, $33, $33, $6e, $00, $00, $00, $00, $00, $00
0183b     0C 0C 0C 06 
0183f     00 00 00 00 
01843     00 00 00 00 
01847     00 00 00 00 | 	byte	$0c, $0c, $0c, $06, $00, $00, $00, $00, $00, $00, $00, $00, $00, $00, $00, $00
0184b     30 18 0C 0C 
0184f     0C 0C 0C 0C 
01853     18 30 00 00 
01857     00 00 00 00 | 	byte	$30, $18, $0c, $0c, $0c, $0c, $0c, $0c, $18, $30, $00, $00, $00, $00, $00, $00
0185b     0C 18 30 30 
0185f     30 30 30 30 
01863     18 0C 00 00 
01867     00 00 00 00 | 	byte	$0c, $18, $30, $30, $30, $30, $30, $30, $18, $0c, $00, $00, $00, $00, $00, $00
0186b     00 00 00 66 
0186f     3C FF 3C 66 
01873     00 00 00 00 
01877     00 00 00 00 | 	byte	$00, $00, $00, $66, $3c, $ff, $3c, $66, $00, $00, $00, $00, $00, $00, $00, $00
0187b     00 00 00 18 
0187f     18 7E 18 18 
01883     00 00 00 00 
01887     00 00 00 00 | 	byte	$00, $00, $00, $18, $18, $7e, $18, $18, $00, $00, $00, $00, $00, $00, $00, $00
0188b     00 00 00 00 
0188f     00 00 00 00 | 	byte	$00[8]
01893     18 18 18 0C 
01897     00 00 00 00 
0189b     00 00 00 00 
0189f     00 7F 00 00 | 	byte	$18, $18, $18, $0c, $00, $00, $00, $00, $00, $00, $00, $00, $00, $7f, $00, $00
018a3     00 00 00 00 
018a7     00 00 00 00 
018ab     00 00 00 00 
018af     00 00 00 00 | 	byte	$00[16]
018b3     18 18 00 00 
018b7     00 00 00 00 
018bb     00 00 40 60 
018bf     30 18 0C 06 | 	byte	$18, $18, $00, $00, $00, $00, $00, $00, $00, $00, $40, $60, $30, $18, $0c, $06
018c3     03 01 00 00 
018c7     00 00 00 00 
018cb     1C 36 63 63 
018cf     6B 6B 63 63 | 	byte	$03, $01, $00, $00, $00, $00, $00, $00, $1c, $36, $63, $63, $6b, $6b, $63, $63
018d3     36 1C 00 00 
018d7     00 00 00 00 
018db     18 1C 1E 18 
018df     18 18 18 18 | 	byte	$36, $1c, $00, $00, $00, $00, $00, $00, $18, $1c, $1e, $18, $18, $18, $18, $18
018e3     18 7E 00 00 
018e7     00 00 00 00 
018eb     3E 63 60 30 
018ef     18 0C 06 03 | 	byte	$18, $7e, $00, $00, $00, $00, $00, $00, $3e, $63, $60, $30, $18, $0c, $06, $03
018f3     63 7F 00 00 
018f7     00 00 00 00 
018fb     3E 63 60 60 
018ff     3C 60 60 60 | 	byte	$63, $7f, $00, $00, $00, $00, $00, $00, $3e, $63, $60, $60, $3c, $60, $60, $60
01903     63 3E 00 00 
01907     00 00 00 00 
0190b     30 38 3C 36 
0190f     33 7F 30 30 | 	byte	$63, $3e, $00, $00, $00, $00, $00, $00, $30, $38, $3c, $36, $33, $7f, $30, $30
01913     30 78 00 00 
01917     00 00 00 00 
0191b     7F 03 03 03 
0191f     3F 60 60 60 | 	byte	$30, $78, $00, $00, $00, $00, $00, $00, $7f, $03, $03, $03, $3f, $60, $60, $60
01923     63 3E 00 00 
01927     00 00 00 00 
0192b     1C 06 03 03 
0192f     3F 63 63 63 | 	byte	$63, $3e, $00, $00, $00, $00, $00, $00, $1c, $06, $03, $03, $3f, $63, $63, $63
01933     63 3E 00 00 
01937     00 00 00 00 
0193b     7F 63 60 60 
0193f     30 18 0C 0C | 	byte	$63, $3e, $00, $00, $00, $00, $00, $00, $7f, $63, $60, $60, $30, $18, $0c, $0c
01943     0C 0C 00 00 
01947     00 00 00 00 
0194b     3E 63 63 63 
0194f     3E 63 63 63 | 	byte	$0c, $0c, $00, $00, $00, $00, $00, $00, $3e, $63, $63, $63, $3e, $63, $63, $63
01953     63 3E 00 00 
01957     00 00 00 00 
0195b     3E 63 63 63 
0195f     7E 60 60 60 | 	byte	$63, $3e, $00, $00, $00, $00, $00, $00, $3e, $63, $63, $63, $7e, $60, $60, $60
01963     30 1E 00 00 
01967     00 00 00 00 
0196b     00 00 00 18 
0196f     18 00 00 00 | 	byte	$30, $1e, $00, $00, $00, $00, $00, $00, $00, $00, $00, $18, $18, $00, $00, $00
01973     18 18 00 00 
01977     00 00 00 00 
0197b     00 00 00 18 
0197f     18 00 00 00 | 	byte	$18, $18, $00, $00, $00, $00, $00, $00, $00, $00, $00, $18, $18, $00, $00, $00
01983     18 18 0C 00 
01987     00 00 00 00 
0198b     00 60 30 18 
0198f     0C 06 0C 18 | 	byte	$18, $18, $0c, $00, $00, $00, $00, $00, $00, $60, $30, $18, $0c, $06, $0c, $18
01993     30 60 00 00 
01997     00 00 00 00 
0199b     00 00 00 7E 
0199f     00 00 7E 00 | 	byte	$30, $60, $00, $00, $00, $00, $00, $00, $00, $00, $00, $7e, $00, $00, $7e, $00
019a3     00 00 00 00 
019a7     00 00 00 00 
019ab     00          | 	byte	$00[9]
019ac     06 0C 18 30 
019b0     60 30 18 0C 
019b4     06 00 00 00 
019b8     00 00 00 3E | 	byte	$06, $0c, $18, $30, $60, $30, $18, $0c, $06, $00, $00, $00, $00, $00, $00, $3e
019bc     63 63 30 18 
019c0     18 18 00 18 
019c4     18 00 00 00 
019c8     00 00 00 00 | 	byte	$63, $63, $30, $18, $18, $18, $00, $18, $18, $00, $00, $00, $00, $00, $00, $00
019cc     3E 63 63 7B 
019d0     7B 7B 3B 03 
019d4     3E 00 00 00 
019d8     00 00 00 08 | 	byte	$3e, $63, $63, $7b, $7b, $7b, $3b, $03, $3e, $00, $00, $00, $00, $00, $00, $08
019dc     1C 36 63 63 
019e0     7F 63 63 63 
019e4     63 00 00 00 
019e8     00 00 00 3F | 	byte	$1c, $36, $63, $63, $7f, $63, $63, $63, $63, $00, $00, $00, $00, $00, $00, $3f
019ec     66 66 66 3E 
019f0     66 66 66 66 
019f4     3F 00 00 00 
019f8     00 00 00 3C | 	byte	$66, $66, $66, $3e, $66, $66, $66, $66, $3f, $00, $00, $00, $00, $00, $00, $3c
019fc     66 43 03 03 
01a00     03 03 43 66 
01a04     3C 00 00 00 
01a08     00 00 00 1F | 	byte	$66, $43, $03, $03, $03, $03, $43, $66, $3c, $00, $00, $00, $00, $00, $00, $1f
01a0c     36 66 66 66 
01a10     66 66 66 36 
01a14     1F 00 00 00 
01a18     00 00 00 7F | 	byte	$36, $66, $66, $66, $66, $66, $66, $36, $1f, $00, $00, $00, $00, $00, $00, $7f
01a1c     66 46 16 1E 
01a20     16 06 46 66 
01a24     7F 00 00 00 
01a28     00 00 00 7F | 	byte	$66, $46, $16, $1e, $16, $06, $46, $66, $7f, $00, $00, $00, $00, $00, $00, $7f
01a2c     66 46 16 1E 
01a30     16 06 06 06 
01a34     0F 00 00 00 
01a38     00 00 00 3C | 	byte	$66, $46, $16, $1e, $16, $06, $06, $06, $0f, $00, $00, $00, $00, $00, $00, $3c
01a3c     66 43 03 03 
01a40     7B 63 63 66 
01a44     5C 00 00 00 
01a48     00 00 00 63 | 	byte	$66, $43, $03, $03, $7b, $63, $63, $66, $5c, $00, $00, $00, $00, $00, $00, $63
01a4c     63 63 63 7F 
01a50     63 63 63 63 
01a54     63 00 00 00 
01a58     00 00 00 3C | 	byte	$63, $63, $63, $7f, $63, $63, $63, $63, $63, $00, $00, $00, $00, $00, $00, $3c
01a5c     18 18 18 18 
01a60     18 18 18 18 | 	byte	$18[8]
01a64     3C 00 00 00 
01a68     00 00 00 78 
01a6c     30 30 30 30 
01a70     30 33 33 33 | 	byte	$3c, $00, $00, $00, $00, $00, $00, $78, $30, $30, $30, $30, $30, $33, $33, $33
01a74     1E 00 00 00 
01a78     00 00 00 67 
01a7c     66 66 36 1E 
01a80     1E 36 66 66 | 	byte	$1e, $00, $00, $00, $00, $00, $00, $67, $66, $66, $36, $1e, $1e, $36, $66, $66
01a84     67 00 00 00 
01a88     00 00 00 0F 
01a8c     06 06 06 06 
01a90     06 06 46 66 | 	byte	$67, $00, $00, $00, $00, $00, $00, $0f, $06, $06, $06, $06, $06, $06, $46, $66
01a94     7F 00 00 00 
01a98     00 00 00 63 
01a9c     77 7F 7F 6B 
01aa0     63 63 63 63 | 	byte	$7f, $00, $00, $00, $00, $00, $00, $63, $77, $7f, $7f, $6b, $63, $63, $63, $63
01aa4     63 00 00 00 
01aa8     00 00 00 63 
01aac     67 6F 7F 7B 
01ab0     73 63 63 63 | 	byte	$63, $00, $00, $00, $00, $00, $00, $63, $67, $6f, $7f, $7b, $73, $63, $63, $63
01ab4     63 00 00 00 
01ab8     00 00 00 3E 
01abc     63 63 63 63 
01ac0     63 63 63 63 | 	byte	$63, $00, $00, $00, $00, $00, $00, $3e, $63, $63, $63, $63, $63, $63, $63, $63
01ac4     3E 00 00 00 
01ac8     00 00 00 3F 
01acc     66 66 66 3E 
01ad0     06 06 06 06 | 	byte	$3e, $00, $00, $00, $00, $00, $00, $3f, $66, $66, $66, $3e, $06, $06, $06, $06
01ad4     0F 00 00 00 
01ad8     00 00 00 3E 
01adc     63 63 63 63 
01ae0     63 63 6B 7B | 	byte	$0f, $00, $00, $00, $00, $00, $00, $3e, $63, $63, $63, $63, $63, $63, $6b, $7b
01ae4     3E 30 70 00 
01ae8     00 00 00 3F 
01aec     66 66 66 3E 
01af0     36 66 66 66 | 	byte	$3e, $30, $70, $00, $00, $00, $00, $3f, $66, $66, $66, $3e, $36, $66, $66, $66
01af4     67 00 00 00 
01af8     00 00 00 3E 
01afc     63 63 06 1C 
01b00     30 60 63 63 | 	byte	$67, $00, $00, $00, $00, $00, $00, $3e, $63, $63, $06, $1c, $30, $60, $63, $63
01b04     3E 00 00 00 
01b08     00 00 00 7E 
01b0c     7E 5A 18 18 
01b10     18 18 18 18 | 	byte	$3e, $00, $00, $00, $00, $00, $00, $7e, $7e, $5a, $18, $18, $18, $18, $18, $18
01b14     3C 00 00 00 
01b18     00 00 00 63 
01b1c     63 63 63 63 
01b20     63 63 63 63 | 	byte	$3c, $00, $00, $00, $00, $00, $00, $63, $63, $63, $63, $63, $63, $63, $63, $63
01b24     3E 00 00 00 
01b28     00 00 00 63 
01b2c     63 63 63 63 
01b30     63 63 36 1C | 	byte	$3e, $00, $00, $00, $00, $00, $00, $63, $63, $63, $63, $63, $63, $63, $36, $1c
01b34     08 00 00 00 
01b38     00 00 00 63 
01b3c     63 63 63 6B 
01b40     6B 6B 7F 77 | 	byte	$08, $00, $00, $00, $00, $00, $00, $63, $63, $63, $63, $6b, $6b, $6b, $7f, $77
01b44     36 00 00 00 
01b48     00 00 00 63 
01b4c     63 36 3E 1C 
01b50     1C 3E 36 63 | 	byte	$36, $00, $00, $00, $00, $00, $00, $63, $63, $36, $3e, $1c, $1c, $3e, $36, $63
01b54     63 00 00 00 
01b58     00 00 00 66 
01b5c     66 66 66 3C 
01b60     18 18 18 18 | 	byte	$63, $00, $00, $00, $00, $00, $00, $66, $66, $66, $66, $3c, $18, $18, $18, $18
01b64     3C 00 00 00 
01b68     00 00 00 7F 
01b6c     63 61 30 18 
01b70     0C 06 43 63 | 	byte	$3c, $00, $00, $00, $00, $00, $00, $7f, $63, $61, $30, $18, $0c, $06, $43, $63
01b74     7F 00 00 00 
01b78     00 00 00 3C 
01b7c     0C 0C 0C 0C 
01b80     0C 0C 0C 0C | 	byte	$7f, $00, $00, $00, $00, $00, $00, $3c, $0c, $0c, $0c, $0c, $0c, $0c, $0c, $0c
01b84     3C 00 00 00 
01b88     00 00 00 00 
01b8c     01 03 07 0E 
01b90     1C 38 70 60 | 	byte	$3c, $00, $00, $00, $00, $00, $00, $00, $01, $03, $07, $0e, $1c, $38, $70, $60
01b94     40 00 00 00 
01b98     00 00 00 3C 
01b9c     30 30 30 30 
01ba0     30 30 30 30 | 	byte	$40, $00, $00, $00, $00, $00, $00, $3c, $30, $30, $30, $30, $30, $30, $30, $30
01ba4     3C 00 00 00 
01ba8     1C 36 00 00 
01bac     00 00 00 00 
01bb0     00 00 00 00 | 	byte	$3c, $00, $00, $00, $1c, $36, $00, $00, $00, $00, $00, $00, $00, $00, $00, $00
01bb4     00 00 00 00 
01bb8     00 00 00 00 
01bbc     00 00 00 00 
01bc0     00 00 00 00 
01bc4     00          | 	byte	$00[17]
01bc5     FF 00 00 0C 
01bc9     18 00 00 00 
01bcd     00 00 00 00 
01bd1     00 00 00 00 | 	byte	$ff, $00, $00, $0c, $18, $00, $00, $00, $00, $00, $00, $00, $00, $00, $00, $00
01bd5     00 00 00 00 
01bd9     00 00 00 00 
01bdd     00          | 	byte	$00[9]
01bde     1E 30 3E 33 
01be2     33 33 6E 00 
01be6     00 00 00 00 
01bea     00 07 06 06 | 	byte	$1e, $30, $3e, $33, $33, $33, $6e, $00, $00, $00, $00, $00, $00, $07, $06, $06
01bee     1E 36 66 66 
01bf2     66 66 3E 00 
01bf6     00 00 00 00 
01bfa     00 00 00 00 | 	byte	$1e, $36, $66, $66, $66, $66, $3e, $00, $00, $00, $00, $00, $00, $00, $00, $00
01bfe     3E 63 03 03 
01c02     03 63 3E 00 
01c06     00 00 00 00 
01c0a     00 38 30 30 | 	byte	$3e, $63, $03, $03, $03, $63, $3e, $00, $00, $00, $00, $00, $00, $38, $30, $30
01c0e     3C 36 33 33 
01c12     33 33 6E 00 
01c16     00 00 00 00 
01c1a     00 00 00 00 | 	byte	$3c, $36, $33, $33, $33, $33, $6e, $00, $00, $00, $00, $00, $00, $00, $00, $00
01c1e     3E 63 7F 03 
01c22     03 63 3E 00 
01c26     00 00 00 00 
01c2a     00 38 6C 4C | 	byte	$3e, $63, $7f, $03, $03, $63, $3e, $00, $00, $00, $00, $00, $00, $38, $6c, $4c
01c2e     0C 1E 0C 0C 
01c32     0C 0C 1E 00 
01c36     00 00 00 00 
01c3a     00 00 00 00 | 	byte	$0c, $1e, $0c, $0c, $0c, $0c, $1e, $00, $00, $00, $00, $00, $00, $00, $00, $00
01c3e     6E 33 33 33 
01c42     33 33 3E 30 
01c46     33 1E 00 00 
01c4a     00 07 06 06 | 	byte	$6e, $33, $33, $33, $33, $33, $3e, $30, $33, $1e, $00, $00, $00, $07, $06, $06
01c4e     36 6E 66 66 
01c52     66 66 67 00 
01c56     00 00 00 00 
01c5a     00 18 18 00 | 	byte	$36, $6e, $66, $66, $66, $66, $67, $00, $00, $00, $00, $00, $00, $18, $18, $00
01c5e     1C 18 18 18 
01c62     18 18 3C 00 
01c66     00 00 00 00 
01c6a     00 60 60 00 | 	byte	$1c, $18, $18, $18, $18, $18, $3c, $00, $00, $00, $00, $00, $00, $60, $60, $00
01c6e     70 60 60 60 
01c72     60 60 60 66 
01c76     66 3C 00 00 
01c7a     00 07 06 06 | 	byte	$70, $60, $60, $60, $60, $60, $60, $66, $66, $3c, $00, $00, $00, $07, $06, $06
01c7e     66 36 1E 1E 
01c82     36 66 67 00 
01c86     00 00 00 00 
01c8a     00 1C 18 18 | 	byte	$66, $36, $1e, $1e, $36, $66, $67, $00, $00, $00, $00, $00, $00, $1c, $18, $18
01c8e     18 18 18 18 
01c92     18 18       | 	byte	$18[6]
01c94     3C 00 00 00 
01c98     00 00 00 00 
01c9c     00 00 37 7F 
01ca0     6B 6B 6B 6B | 	byte	$3c, $00, $00, $00, $00, $00, $00, $00, $00, $00, $37, $7f, $6b, $6b, $6b, $6b
01ca4     63 00 00 00 
01ca8     00 00 00 00 
01cac     00 00 3B 66 
01cb0     66 66 66 66 | 	byte	$63, $00, $00, $00, $00, $00, $00, $00, $00, $00, $3b, $66, $66, $66, $66, $66
01cb4     66 00 00 00 
01cb8     00 00 00 00 
01cbc     00 00 3E 63 
01cc0     63 63 63 63 | 	byte	$66, $00, $00, $00, $00, $00, $00, $00, $00, $00, $3e, $63, $63, $63, $63, $63
01cc4     3E 00 00 00 
01cc8     00 00 00 00 
01ccc     00 00 3B 66 
01cd0     66 66 66 66 | 	byte	$3e, $00, $00, $00, $00, $00, $00, $00, $00, $00, $3b, $66, $66, $66, $66, $66
01cd4     3E 06 06 0F 
01cd8     00 00 00 00 
01cdc     00 00 6E 33 
01ce0     33 33 33 33 | 	byte	$3e, $06, $06, $0f, $00, $00, $00, $00, $00, $00, $6e, $33, $33, $33, $33, $33
01ce4     3E 30 30 78 
01ce8     00 00 00 00 
01cec     00 00 3B 6E 
01cf0     66 06 06 06 | 	byte	$3e, $30, $30, $78, $00, $00, $00, $00, $00, $00, $3b, $6e, $66, $06, $06, $06
01cf4     0F 00 00 00 
01cf8     00 00 00 00 
01cfc     00 00 3E 63 
01d00     06 1C 30 63 | 	byte	$0f, $00, $00, $00, $00, $00, $00, $00, $00, $00, $3e, $63, $06, $1c, $30, $63
01d04     3E 00 00 00 
01d08     00 00 00 08 
01d0c     0C 0C 3F 0C 
01d10     0C 0C 0C 6C | 	byte	$3e, $00, $00, $00, $00, $00, $00, $08, $0c, $0c, $3f, $0c, $0c, $0c, $0c, $6c
01d14     38 00 00 00 
01d18     00 00 00 00 
01d1c     00 00 33 33 
01d20     33 33 33 33 | 	byte	$38, $00, $00, $00, $00, $00, $00, $00, $00, $00, $33, $33, $33, $33, $33, $33
01d24     6E 00 00 00 
01d28     00 00 00 00 
01d2c     00 00 63 63 
01d30     63 63 63 36 | 	byte	$6e, $00, $00, $00, $00, $00, $00, $00, $00, $00, $63, $63, $63, $63, $63, $36
01d34     1C 00 00 00 
01d38     00 00 00 00 
01d3c     00 00 63 63 
01d40     6B 6B 6B 7F | 	byte	$1c, $00, $00, $00, $00, $00, $00, $00, $00, $00, $63, $63, $6b, $6b, $6b, $7f
01d44     36 00 00 00 
01d48     00 00 00 00 
01d4c     00 00 63 36 
01d50     1C 1C 1C 36 | 	byte	$36, $00, $00, $00, $00, $00, $00, $00, $00, $00, $63, $36, $1c, $1c, $1c, $36
01d54     63 00 00 00 
01d58     00 00 00 00 
01d5c     00 00 63 63 
01d60     63 63 63 63 | 	byte	$63, $00, $00, $00, $00, $00, $00, $00, $00, $00, $63, $63, $63, $63, $63, $63
01d64     7E 60 30 1F 
01d68     00 00 00 00 
01d6c     00 00 7F 33 
01d70     18 0C 06 63 | 	byte	$7e, $60, $30, $1f, $00, $00, $00, $00, $00, $00, $7f, $33, $18, $0c, $06, $63
01d74     7F 00 00 00 
01d78     00 00 00 70 
01d7c     18 18 18 0E 
01d80     18 18 18 18 | 	byte	$7f, $00, $00, $00, $00, $00, $00, $70, $18, $18, $18, $0e, $18, $18, $18, $18
01d84     70 00 00 00 
01d88     00 00 00 18 
01d8c     18 18 18 18 
01d90     18 18 18 18 | 	byte	$70, $00, $00, $00, $00, $00, $00, $18, $18, $18, $18, $18, $18, $18, $18, $18
01d94     18 00 00 00 
01d98     00 00 00 0E 
01d9c     18 18 18 70 
01da0     18 18 18 18 | 	byte	$18, $00, $00, $00, $00, $00, $00, $0e, $18, $18, $18, $70, $18, $18, $18, $18
01da4     0E 00 00 00 
01da8     6E 3B 00 00 
01dac     00 00 00 00 
01db0     00 00 00 00 | 	byte	$0e, $00, $00, $00, $6e, $3b, $00, $00, $00, $00, $00, $00, $00, $00, $00, $00
01db4     00 00 00 00 
01db8     00 00 00 00 
01dbc     00 00       | 	byte	$00[10]
01dbe     08 1C 36 63 
01dc2     63 63 7F 00 
01dc6     00 00 00 00 
01dca     00 3C 66 43 | 	byte	$08, $1c, $36, $63, $63, $63, $7f, $00, $00, $00, $00, $00, $00, $3c, $66, $43
01dce     03 03 03 03 
01dd2     43 66 3C 18 
01dd6     30 1E 00 00 
01dda     00 00 33 00 | 	byte	$03, $03, $03, $03, $43, $66, $3c, $18, $30, $1e, $00, $00, $00, $00, $33, $00
01dde     33 33 33 33 
01de2     33 33       | 	byte	$33[6]
01de4     6E 00 00 00 
01de8     00 00 60 30 
01dec     18 00 3E 63 
01df0     7F 03 03 63 | 	byte	$6e, $00, $00, $00, $00, $00, $60, $30, $18, $00, $3e, $63, $7f, $03, $03, $63
01df4     3E 00 00 00 
01df8     00 00 08 1C 
01dfc     36 00 1E 30 
01e00     3E 33 33 33 | 	byte	$3e, $00, $00, $00, $00, $00, $08, $1c, $36, $00, $1e, $30, $3e, $33, $33, $33
01e04     6E 00 00 00 
01e08     00 00 00 00 
01e0c     33 00 1E 30 
01e10     3E 33 33 33 | 	byte	$6e, $00, $00, $00, $00, $00, $00, $00, $33, $00, $1e, $30, $3e, $33, $33, $33
01e14     6E 00 00 00 
01e18     00 00 1C 36 
01e1c     1C 00 33 33 
01e20     33 33 33 33 | 	byte	$6e, $00, $00, $00, $00, $00, $1c, $36, $1c, $00, $33, $33, $33, $33, $33, $33
01e24     6E 00 00 00 
01e28     00 00 60 30 
01e2c     18 00 3E 63 
01e30     03 03 03 63 | 	byte	$6e, $00, $00, $00, $00, $00, $60, $30, $18, $00, $3e, $63, $03, $03, $03, $63
01e34     3E 00 00 00 
01e38     00 00 00 00 
01e3c     00 00 3E 63 
01e40     03 03 03 63 | 	byte	$3e, $00, $00, $00, $00, $00, $00, $00, $00, $00, $3e, $63, $03, $03, $03, $63
01e44     3E 18 30 1E 
01e48     00 00 00 1C 
01e4c     58 78 38 18 
01e50     1C 1E 1A 18 | 	byte	$3e, $18, $30, $1e, $00, $00, $00, $1c, $58, $78, $38, $18, $1c, $1e, $1a, $18
01e54     3C 00 00 00 
01e58     00 00 00 00 
01e5c     63 00 3E 63 
01e60     7F 03 03 63 | 	byte	$3c, $00, $00, $00, $00, $00, $00, $00, $63, $00, $3e, $63, $7f, $03, $03, $63
01e64     3E 00 00 00 
01e68     66 33 00 3E 
01e6c     63 63 63 63 
01e70     63 63 63 63 | 	byte	$3e, $00, $00, $00, $66, $33, $00, $3e, $63, $63, $63, $63, $63, $63, $63, $63
01e74     3E 00 00 00 
01e78     00 00 CC 66 
01e7c     33 00 3E 63 
01e80     63 63 63 63 | 	byte	$3e, $00, $00, $00, $00, $00, $cc, $66, $33, $00, $3e, $63, $63, $63, $63, $63
01e84     3E 00 00 00 
01e88     00 00 18 3C 
01e8c     66 00 1C 18 
01e90     18 18 18 18 | 	byte	$3e, $00, $00, $00, $00, $00, $18, $3c, $66, $00, $1c, $18, $18, $18, $18, $18
01e94     3C 00 00 00 
01e98     30 18 00 7F 
01e9c     63 61 30 18 
01ea0     0C 06 43 63 | 	byte	$3c, $00, $00, $00, $30, $18, $00, $7f, $63, $61, $30, $18, $0c, $06, $43, $63
01ea4     7F 00 00 00 
01ea8     00 63 00 08 
01eac     1C 36 63 63 
01eb0     7F 63 63 63 | 	byte	$7f, $00, $00, $00, $00, $63, $00, $08, $1c, $36, $63, $63, $7f, $63, $63, $63
01eb4     63 00 00 00 
01eb8     30 18 00 3C 
01ebc     66 43 03 03 
01ec0     03 03 43 66 | 	byte	$63, $00, $00, $00, $30, $18, $00, $3c, $66, $43, $03, $03, $03, $03, $43, $66
01ec4     3C 00 00 00 
01ec8     30 18 00 7F 
01ecc     66 46 16 1E 
01ed0     16 06 46 66 | 	byte	$3c, $00, $00, $00, $30, $18, $00, $7f, $66, $46, $16, $1e, $16, $06, $46, $66
01ed4     7F 00 00 00 
01ed8     0C 06 00 0F 
01edc     06 06 06 06 
01ee0     06 06 46 66 | 	byte	$7f, $00, $00, $00, $0c, $06, $00, $0f, $06, $06, $06, $06, $06, $06, $46, $66
01ee4     7F 00 00 00 
01ee8     30 18 00 1C 
01eec     18 18 18 18 
01ef0     18 18 18 18 | 	byte	$7f, $00, $00, $00, $30, $18, $00, $1c, $18, $18, $18, $18, $18, $18, $18, $18
01ef4     3C 00 00 00 
01ef8     00 00 08 1C 
01efc     36 00 3E 63 
01f00     63 63 63 63 | 	byte	$3c, $00, $00, $00, $00, $00, $08, $1c, $36, $00, $3e, $63, $63, $63, $63, $63
01f04     3E 00 00 00 
01f08     00 00 00 00 
01f0c     63 00 3E 63 
01f10     63 63 63 63 | 	byte	$3e, $00, $00, $00, $00, $00, $00, $00, $63, $00, $3e, $63, $63, $63, $63, $63
01f14     3E 00 00 00 
01f18     00 00 00 6F 
01f1c     46 26 06 06 
01f20     06 06 46 66 | 	byte	$3e, $00, $00, $00, $00, $00, $00, $6f, $46, $26, $06, $06, $06, $06, $46, $66
01f24     7F 00 00 00 
01f28     00 00 00 6E 
01f2c     4C 2C 0C 0C 
01f30     0C 0C 0C 0C | 	byte	$7f, $00, $00, $00, $00, $00, $00, $6e, $4c, $2c, $0c, $0c, $0c, $0c, $0c, $0c
01f34     1E 00 00 00 
01f38     30 18 00 3E 
01f3c     63 63 06 1C 
01f40     30 60 63 63 | 	byte	$1e, $00, $00, $00, $30, $18, $00, $3e, $63, $63, $06, $1c, $30, $60, $63, $63
01f44     3E 00 00 00 
01f48     00 00 60 30 
01f4c     18 00 3E 63 
01f50     06 1C 30 63 | 	byte	$3e, $00, $00, $00, $00, $00, $60, $30, $18, $00, $3e, $63, $06, $1c, $30, $63
01f54     3E 00 00 00 
01f58     00 63 00 3E 
01f5c     63 63 63 63 
01f60     63 63 63 63 | 	byte	$3e, $00, $00, $00, $00, $63, $00, $3e, $63, $63, $63, $63, $63, $63, $63, $63
01f64     3E 00 00 00 
01f68     00 63 00 63 
01f6c     63 63 63 63 
01f70     63 63 63 63 | 	byte	$3e, $00, $00, $00, $00, $63, $00, $63, $63, $63, $63, $63, $63, $63, $63, $63
01f74     3E 00 00 00 
01f78     6C 38 00 7E 
01f7c     7E 5A 18 18 
01f80     18 18 18 18 | 	byte	$3e, $00, $00, $00, $6c, $38, $00, $7e, $7e, $5a, $18, $18, $18, $18, $18, $18
01f84     3C 00 00 00 
01f88     00 00 60 48 
01f8c     2C 0C 3F 0C 
01f90     0C 0C 0C 6C | 	byte	$3c, $00, $00, $00, $00, $00, $60, $48, $2c, $0c, $3f, $0c, $0c, $0c, $0c, $6c
01f94     38 00 00 00 
01f98     00 00 00 0F 
01f9c     26 36 1E 0E 
01fa0     07 07 46 66 | 	byte	$38, $00, $00, $00, $00, $00, $00, $0f, $26, $36, $1e, $0e, $07, $07, $46, $66
01fa4     7F 00 00 00 
01fa8     00 00 00 00 
01fac     00 63 36 1C 
01fb0     1C 36 63 00 | 	byte	$7f, $00, $00, $00, $00, $00, $00, $00, $00, $63, $36, $1c, $1c, $36, $63, $00
01fb4     00 00 00 00 
01fb8     00 00       | 	byte	$00[6]
01fba     36 1C 08 00 
01fbe     3E 63 03 03 
01fc2     03 63 3E 00 
01fc6     00 00 00 00 | 	byte	$36, $1c, $08, $00, $3e, $63, $03, $03, $03, $63, $3e, $00, $00, $00, $00, $00
01fca     30 18 0C 00 
01fce     1E 30 3E 33 
01fd2     33 33 6E 00 
01fd6     00 00 00 00 | 	byte	$30, $18, $0c, $00, $1e, $30, $3e, $33, $33, $33, $6e, $00, $00, $00, $00, $00
01fda     60 30 18 00 
01fde     1C 18 18 18 
01fe2     18 18 3C 00 
01fe6     00 00 00 00 | 	byte	$60, $30, $18, $00, $1c, $18, $18, $18, $18, $18, $3c, $00, $00, $00, $00, $00
01fea     60 30 18 00 
01fee     3E 63 63 63 
01ff2     63 63 3E 00 
01ff6     00 00 00 00 | 	byte	$60, $30, $18, $00, $3e, $63, $63, $63, $63, $63, $3e, $00, $00, $00, $00, $00
01ffa     30 18 0C 00 
01ffe     33 33 33 33 
02002     33 33 6E 00 
02006     00 00 00 00 | 	byte	$30, $18, $0c, $00, $33, $33, $33, $33, $33, $33, $6e, $00, $00, $00, $00, $00
0200a     00 08 1C 36 
0200e     63 63 7F 63 
02012     63 63 63 18 
02016     0C 78 00 00 | 	byte	$00, $08, $1c, $36, $63, $63, $7f, $63, $63, $63, $63, $18, $0c, $78, $00, $00
0201a     00 00 00 00 
0201e     1E 30 3E 33 
02022     33 33 6E 18 
02026     0C 78 36 1C | 	byte	$00, $00, $00, $00, $1e, $30, $3e, $33, $33, $33, $6e, $18, $0c, $78, $36, $1c
0202a     00 7F 63 61 
0202e     30 18 0C 06 
02032     43 63 7F 00 
02036     00 00 00 00 | 	byte	$00, $7f, $63, $61, $30, $18, $0c, $06, $43, $63, $7f, $00, $00, $00, $00, $00
0203a     36 1C 08 00 
0203e     7F 33 18 0C 
02042     06 63 7F 00 
02046     00 00 00 00 | 	byte	$36, $1c, $08, $00, $7f, $33, $18, $0c, $06, $63, $7f, $00, $00, $00, $00, $00
0204a     00 7F 66 46 
0204e     16 1E 16 06 
02052     46 66 7F 18 
02056     0C 78 00 00 | 	byte	$00, $7f, $66, $46, $16, $1e, $16, $06, $46, $66, $7f, $18, $0c, $78, $00, $00
0205a     00 00 00 00 
0205e     3E 63 7F 03 
02062     03 63 3E 18 
02066     0C 78 00 00 | 	byte	$00, $00, $00, $00, $3e, $63, $7f, $03, $03, $63, $3e, $18, $0c, $78, $00, $00
0206a     00 3C 66 03 
0206e     1F 03 0F 03 
02072     03 66 3C 00 
02076     00 00 00 00 | 	byte	$00, $3c, $66, $03, $1f, $03, $0f, $03, $03, $66, $3c, $00, $00, $00, $00, $00
0207a     60 30 18 00 
0207e     7F 33 18 0C 
02082     06 63 7F 00 
02086     00 00 6C 38 | 	byte	$60, $30, $18, $00, $7f, $33, $18, $0c, $06, $63, $7f, $00, $00, $00, $6c, $38
0208a     00 3C 66 43 
0208e     03 03 03 03 
02092     43 66 3C 00 
02096     00 00 00 00 | 	byte	$00, $3c, $66, $43, $03, $03, $03, $03, $43, $66, $3c, $00, $00, $00, $00, $00
0209a     00 00 00 00 
0209e     3E 63 06 1C 
020a2     30 63 3E 18 
020a6     30 1E 00 00 | 	byte	$00, $00, $00, $00, $3e, $63, $06, $1c, $30, $63, $3e, $18, $30, $1e, $00, $00
020aa     00 00 00 00 
020ae     00 00       | 	byte	$00[6]
020b0     6C 36 1B 36 
020b4     6C 00 00 00 
020b8     00 00 00 00 
020bc     00 00 00 00 | 	byte	$6c, $36, $1b, $36, $6c, $00, $00, $00, $00, $00, $00, $00, $00, $00, $00, $00
020c0     1B 36 6C 36 
020c4     1B 00 00 00 
020c8     88 22 88 22 
020cc     88 22 88 22 | 	byte	$1b, $36, $6c, $36, $1b, $00, $00, $00, $88, $22, $88, $22, $88, $22, $88, $22
020d0     88 22 88 22 
020d4     88 22 88 22 
020d8     AA 55 AA 55 
020dc     AA 55 AA 55 | 	byte	$88, $22, $88, $22, $88, $22, $88, $22, $aa, $55, $aa, $55, $aa, $55, $aa, $55
020e0     AA 55 AA 55 
020e4     AA 55 AA 55 
020e8     BB EE BB EE 
020ec     BB EE BB EE | 	byte	$aa, $55, $aa, $55, $aa, $55, $aa, $55, $bb, $ee, $bb, $ee, $bb, $ee, $bb, $ee
020f0     BB EE BB EE 
020f4     BB EE BB EE 
020f8     18 18 18 18 
020fc     18 18 18 18 | 	byte	$bb, $ee, $bb, $ee, $bb, $ee, $bb, $ee, $18, $18, $18, $18, $18, $18, $18, $18
02100     18 18 18 18 
02104     18 18 18 18 
02108     18 18 18 18 
0210c     18 18 18    | 	byte	$18[15]
0210f     1F 18 18 18 
02113     18 18 18 18 
02117     18 30 18 00 
0211b     08 1C 36 63 | 	byte	$1f, $18, $18, $18, $18, $18, $18, $18, $18, $30, $18, $00, $08, $1c, $36, $63
0211f     63 7F 63 63 
02123     63 63 00 00 
02127     00 1C 36 00 
0212b     08 1C 36 63 | 	byte	$63, $7f, $63, $63, $63, $63, $00, $00, $00, $1c, $36, $00, $08, $1c, $36, $63
0212f     63 7F 63 63 
02133     63 63 00 00 
02137     00 36 1C 00 
0213b     7F 66 46 16 | 	byte	$63, $7f, $63, $63, $63, $63, $00, $00, $00, $36, $1c, $00, $7f, $66, $46, $16
0213f     1E 16 06 46 
02143     66 7F 00 00 
02147     00 00 00 00 
0214b     3E 63 63 06 | 	byte	$1e, $16, $06, $46, $66, $7f, $00, $00, $00, $00, $00, $00, $3e, $63, $63, $06
0214f     1C 30 60 63 
02153     63 3E 18 30 
02157     1E 6C 6C 6C 
0215b     6C 6C 6F 60 | 	byte	$1c, $30, $60, $63, $63, $3e, $18, $30, $1e, $6c, $6c, $6c, $6c, $6c, $6f, $60
0215f     6F 6C 6C 6C 
02163     6C 6C 6C 6C 
02167     6C 6C 6C 6C 
0216b     6C 6C 6C 6C | 	byte	$6f, $6c, $6c, $6c, $6c, $6c, $6c, $6c, $6c, $6c, $6c, $6c, $6c, $6c, $6c, $6c
0216f     6C 6C 6C 6C 
02173     6C 6C 6C 6C 
02177     6C          | 	byte	$6c[9]
02178     00 00 00 00 
0217c     00          | 	byte	$00[5]
0217d     7F 60 6F 6C 
02181     6C 6C 6C 6C 
02185     6C 6C 6C 6C 
02189     6C 6C 6C 6C | 	byte	$7f, $60, $6f, $6c, $6c, $6c, $6c, $6c, $6c, $6c, $6c, $6c, $6c, $6c, $6c, $6c
0218d     6F 60 7F 00 
02191     00 00 00 00 
02195     00 00 00 18 
02199     18 00 7F 63 | 	byte	$6f, $60, $7f, $00, $00, $00, $00, $00, $00, $00, $00, $18, $18, $00, $7f, $63
0219d     61 30 18 0C 
021a1     06 43 63 7F 
021a5     00 00 00 00 
021a9     00 00 18 18 | 	byte	$61, $30, $18, $0c, $06, $43, $63, $7f, $00, $00, $00, $00, $00, $00, $18, $18
021ad     00 7F 33 18 
021b1     0C 06 63 7F 
021b5     00 00 00 00 
021b9     00 00 00 00 | 	byte	$00, $7f, $33, $18, $0c, $06, $63, $7f, $00, $00, $00, $00, $00, $00, $00, $00
021bd     00 00 1F 18 
021c1     18 18 18 18 
021c5     18 18 18 18 
021c9     18 18 18 18 | 	byte	$00, $00, $1f, $18, $18, $18, $18, $18, $18, $18, $18, $18, $18, $18, $18, $18
021cd     18 18 F8 00 
021d1     00 00 00 00 
021d5     00 00 00 18 
021d9     18 18 18 18 | 	byte	$18, $18, $f8, $00, $00, $00, $00, $00, $00, $00, $00, $18, $18, $18, $18, $18
021dd     18 18 FF 00 
021e1     00 00 00 00 
021e5     00 00 00 00 
021e9     00 00 00 00 | 	byte	$18, $18, $ff, $00, $00, $00, $00, $00, $00, $00, $00, $00, $00, $00, $00, $00
021ed     00 00 FF 18 
021f1     18 18 18 18 
021f5     18 18 18 18 
021f9     18 18 18 18 | 	byte	$00, $00, $ff, $18, $18, $18, $18, $18, $18, $18, $18, $18, $18, $18, $18, $18
021fd     18 18 F8 18 
02201     18 18 18 18 
02205     18 18 18 00 
02209     00 00 00 00 | 	byte	$18, $18, $f8, $18, $18, $18, $18, $18, $18, $18, $18, $00, $00, $00, $00, $00
0220d     00 00 FF 00 
02211     00 00 00 00 
02215     00 00 00 18 
02219     18 18 18 18 | 	byte	$00, $00, $ff, $00, $00, $00, $00, $00, $00, $00, $00, $18, $18, $18, $18, $18
0221d     18 18 FF 18 
02221     18 18 18 18 
02225     18 18 18 63 
02229     3E 00 08 1C | 	byte	$18, $18, $ff, $18, $18, $18, $18, $18, $18, $18, $18, $63, $3e, $00, $08, $1c
0222d     36 63 63 7F 
02231     63 63 63 63 
02235     00 00 00 00 
02239     00 00 63 3E | 	byte	$36, $63, $63, $7f, $63, $63, $63, $63, $00, $00, $00, $00, $00, $00, $63, $3e
0223d     00 1E 30 3E 
02241     33 33 33 6E 
02245     00 00 00 6C 
02249     6C 6C 6C 6C | 	byte	$00, $1e, $30, $3e, $33, $33, $33, $6e, $00, $00, $00, $6c, $6c, $6c, $6c, $6c
0224d     EC 0C FC 00 
02251     00 00 00 00 
02255     00 00 00 00 
02259     00 00 00 00 | 	byte	$ec, $0c, $fc, $00, $00, $00, $00, $00, $00, $00, $00, $00, $00, $00, $00, $00
0225d     FC 0C EC 6C 
02261     6C 6C 6C 6C 
02265     6C 6C 6C 6C 
02269     6C 6C 6C 6C | 	byte	$fc, $0c, $ec, $6c, $6c, $6c, $6c, $6c, $6c, $6c, $6c, $6c, $6c, $6c, $6c, $6c
0226d     EF 00 FF 00 
02271     00 00 00 00 
02275     00 00 00 00 
02279     00 00 00 00 | 	byte	$ef, $00, $ff, $00, $00, $00, $00, $00, $00, $00, $00, $00, $00, $00, $00, $00
0227d     FF 00 EF 6C 
02281     6C 6C 6C 6C 
02285     6C 6C 6C 6C 
02289     6C 6C 6C 6C | 	byte	$ff, $00, $ef, $6c, $6c, $6c, $6c, $6c, $6c, $6c, $6c, $6c, $6c, $6c, $6c, $6c
0228d     EC 0C EC 6C 
02291     6C 6C 6C 6C 
02295     6C 6C 6C 00 
02299     00 00 00 00 | 	byte	$ec, $0c, $ec, $6c, $6c, $6c, $6c, $6c, $6c, $6c, $6c, $00, $00, $00, $00, $00
0229d     FF 00 FF 00 
022a1     00 00 00 00 
022a5     00 00 00 6C 
022a9     6C 6C 6C 6C | 	byte	$ff, $00, $ff, $00, $00, $00, $00, $00, $00, $00, $00, $6c, $6c, $6c, $6c, $6c
022ad     EF 00 EF 6C 
022b1     6C 6C 6C 6C 
022b5     6C 6C 6C 00 
022b9     00 00 00 00 | 	byte	$ef, $00, $ef, $6c, $6c, $6c, $6c, $6c, $6c, $6c, $6c, $00, $00, $00, $00, $00
022bd     63 3E 63 63 
022c1     63 63 3E 63 
022c5     00 00 00 00 
022c9     00 00 30 7E | 	byte	$63, $3e, $63, $63, $63, $63, $3e, $63, $00, $00, $00, $00, $00, $00, $30, $7e
022cd     30 3C 36 33 
022d1     33 33 33 6E 
022d5     00 00 00 00 
022d9     00 00 1F 36 | 	byte	$30, $3c, $36, $33, $33, $33, $33, $6e, $00, $00, $00, $00, $00, $00, $1f, $36
022dd     66 66 6F 66 
022e1     66 66 36 1F 
022e5     00 00 00 36 
022e9     1C 00 1F 36 | 	byte	$66, $66, $6f, $66, $66, $66, $36, $1f, $00, $00, $00, $36, $1c, $00, $1f, $36
022ed     66 66 66 66 
022f1     66 66       | 	byte	$66[6]
022f3     36 1F 00 00 
022f7     00 00 63 00 
022fb     7F 66 46 16 
022ff     1E 16 06 46 | 	byte	$36, $1f, $00, $00, $00, $00, $63, $00, $7f, $66, $46, $16, $1e, $16, $06, $46
02303     66 7F 00 00 
02307     00 6C 38 00 
0230b     38 30 30 3C 
0230f     36 33 33 33 | 	byte	$66, $7f, $00, $00, $00, $6c, $38, $00, $38, $30, $30, $3c, $36, $33, $33, $33
02313     33 6E 00 00 
02317     00 36 1C 00 
0231b     63 67 6F 7F 
0231f     7B 73 63 63 | 	byte	$33, $6e, $00, $00, $00, $36, $1c, $00, $63, $67, $6f, $7f, $7b, $73, $63, $63
02323     63 63 00 00 
02327     00 30 18 00 
0232b     3C 18 18 18 
0232f     18 18 18 18 | 	byte	$63, $63, $00, $00, $00, $30, $18, $00, $3c, $18, $18, $18, $18, $18, $18, $18
02333     18 3C 00 00 
02337     00 3C 66 00 
0233b     3C 18 18 18 
0233f     18 18 18 18 | 	byte	$18, $3c, $00, $00, $00, $3c, $66, $00, $3c, $18, $18, $18, $18, $18, $18, $18
02343     18 3C 00 00 
02347     00 00 00 36 
0234b     1C 08 00 3E 
0234f     63 7F 03 03 | 	byte	$18, $3c, $00, $00, $00, $00, $00, $36, $1c, $08, $00, $3e, $63, $7f, $03, $03
02353     63 3E 00 00 
02357     00 18 18 18 
0235b     18 18 18 18 
0235f     1F 00 00 00 | 	byte	$63, $3e, $00, $00, $00, $18, $18, $18, $18, $18, $18, $18, $1f, $00, $00, $00
02363     00 00 00 00 
02367     00 00 00 00 
0236b     00 00 00 00 | 	byte	$00[12]
0236f     F8 18 18 18 
02373     18 18 18 18 
02377     18 FF FF FF 
0237b     FF FF FF FF | 	byte	$f8, $18, $18, $18, $18, $18, $18, $18, $18, $ff, $ff, $ff, $ff, $ff, $ff, $ff
0237f     FF FF FF FF 
02383     FF FF FF FF 
02387     FF          | 	byte	$ff[9]
02388     00 00 00 00 
0238c     00 00 00    | 	byte	$00[7]
0238f     FF FF FF FF 
02393     FF FF FF FF 
02397     FF          | 	byte	$ff[9]
02398     00 00 00 7E 
0239c     7E 5A 18 18 
023a0     18 18 18 18 
023a4     3C 18 30 1E | 	byte	$00, $00, $00, $7e, $7e, $5a, $18, $18, $18, $18, $18, $18, $3c, $18, $30, $1e
023a8     1C 36 1C 63 
023ac     63 63 63 63 
023b0     63 63 63 63 
023b4     3E 00 00 00 | 	byte	$1c, $36, $1c, $63, $63, $63, $63, $63, $63, $63, $63, $63, $3e, $00, $00, $00
023b8     FF FF FF FF 
023bc     FF FF FF    | 	byte	$ff[7]
023bf     00 00 00 00 
023c3     00 00 00 00 
023c7     00          | 	byte	$00[9]
023c8     30 18 00 3E 
023cc     63 63 63 63 
023d0     63 63 63 63 
023d4     3E 00 00 00 | 	byte	$30, $18, $00, $3e, $63, $63, $63, $63, $63, $63, $63, $63, $3e, $00, $00, $00
023d8     00 00 00 1E 
023dc     33 33 33 1B 
023e0     33 63 63 63 
023e4     33 00 00 00 | 	byte	$00, $00, $00, $1e, $33, $33, $33, $1b, $33, $63, $63, $63, $33, $00, $00, $00
023e8     1C 36 00 3E 
023ec     63 63 63 63 
023f0     63 63 63 63 
023f4     3E 00 00 00 | 	byte	$1c, $36, $00, $3e, $63, $63, $63, $63, $63, $63, $63, $63, $3e, $00, $00, $00
023f8     30 18 00 63 
023fc     67 6F 7F 7B 
02400     73 63 63 63 
02404     63 00 00 00 | 	byte	$30, $18, $00, $63, $67, $6f, $7f, $7b, $73, $63, $63, $63, $63, $00, $00, $00
02408     00 00 60 30 
0240c     18 00 3B 66 
02410     66 66 66 66 
02414     66 00 00 00 | 	byte	$00, $00, $60, $30, $18, $00, $3b, $66, $66, $66, $66, $66, $66, $00, $00, $00
02418     00 00 36 1C 
0241c     08 00 3B 66 
02420     66 66 66 66 
02424     66 00 00 00 | 	byte	$00, $00, $36, $1c, $08, $00, $3b, $66, $66, $66, $66, $66, $66, $00, $00, $00
02428     36 1C 00 3E 
0242c     63 63 06 1C 
02430     30 60 63 63 
02434     3E 00 00 00 | 	byte	$36, $1c, $00, $3e, $63, $63, $06, $1c, $30, $60, $63, $63, $3e, $00, $00, $00
02438     00 00 36 1C 
0243c     08 00 3E 63 
02440     06 1C 30 63 
02444     3E 00 00 00 | 	byte	$00, $00, $36, $1c, $08, $00, $3e, $63, $06, $1c, $30, $63, $3e, $00, $00, $00
02448     30 18 00 3F 
0244c     66 66 66 3E 
02450     36 66 66 66 
02454     6F 00 00 00 | 	byte	$30, $18, $00, $3f, $66, $66, $66, $3e, $36, $66, $66, $66, $6f, $00, $00, $00
02458     30 18 00 63 
0245c     63 63 63 63 
02460     63 63 63 63 
02464     3E 00 00 00 | 	byte	$30, $18, $00, $63, $63, $63, $63, $63, $63, $63, $63, $63, $3e, $00, $00, $00
02468     00 00 60 30 
0246c     18 00 3B 6E 
02470     66 06 06 06 
02474     0F 00 00 00 | 	byte	$00, $00, $60, $30, $18, $00, $3b, $6e, $66, $06, $06, $06, $0f, $00, $00, $00
02478     66 33 00 63 
0247c     63 63 63 63 
02480     63 63 63 63 
02484     3E 00 00 00 | 	byte	$66, $33, $00, $63, $63, $63, $63, $63, $63, $63, $63, $63, $3e, $00, $00, $00
02488     00 00 60 30 
0248c     18 00 63 63 
02490     63 63 63 63 
02494     7E 60 30 1F | 	byte	$00, $00, $60, $30, $18, $00, $63, $63, $63, $63, $63, $63, $7e, $60, $30, $1f
02498     30 18 00 66 
0249c     66 66 66 3C 
024a0     18 18 18 18 
024a4     3C 00 00 00 | 	byte	$30, $18, $00, $66, $66, $66, $66, $3c, $18, $18, $18, $18, $3c, $00, $00, $00
024a8     00 00 00 08 
024ac     0C 0C 3F 0C 
024b0     0C 0C 0C 6C 
024b4     38 18 30 1E | 	byte	$00, $00, $00, $08, $0c, $0c, $3f, $0c, $0c, $0c, $0c, $6c, $38, $18, $30, $1e
024b8     30 18 00 00 
024bc     00 00 00 00 
024c0     00 00 00 00 
024c4     00 00 00 00 | 	byte	$30, $18, $00, $00, $00, $00, $00, $00, $00, $00, $00, $00, $00, $00, $00, $00
024c8     00 00 00 00 
024cc     00 00 00 00 | 	byte	$00[8]
024d0     7F 00 00 00 
024d4     00 00 00 00 
024d8     66 33 00 00 
024dc     00 00 00 00 | 	byte	$7f, $00, $00, $00, $00, $00, $00, $00, $66, $33, $00, $00, $00, $00, $00, $00
024e0     00 00 00 00 
024e4     00 00 00 00 
024e8     00 00 00 00 
024ec     00 00 00 00 
024f0     00 00 00 00 
024f4     00          | 	byte	$00[21]
024f5     0C 06 3C 36 
024f9     1C 00 00 00 
024fd     00 00 00 00 
02501     00 00 00 00 | 	byte	$0c, $06, $3c, $36, $1c, $00, $00, $00, $00, $00, $00, $00, $00, $00, $00, $00
02505     00 00 00 63 
02509     3E 00 00 00 
0250d     00 00 00 00 
02511     00 00 00 00 | 	byte	$00, $00, $00, $63, $3e, $00, $00, $00, $00, $00, $00, $00, $00, $00, $00, $00
02515     00 00 00 00 
02519     3E 63 06 1C 
0251d     36 63 63 36 
02521     1C 30 63 3E | 	byte	$00, $00, $00, $00, $3e, $63, $06, $1c, $36, $63, $63, $36, $1c, $30, $63, $3e
02525     00 00 00 00 
02529     00 00 00 00 | 	byte	$00[8]
0252d     18 00 7E 00 
02531     18 00 00 00 
02535     00 00 00 00 
02539     00 00 00 00 | 	byte	$18, $00, $7e, $00, $18, $00, $00, $00, $00, $00, $00, $00, $00, $00, $00, $00
0253d     00 00 00 00 
02541     00 00 00 00 | 	byte	$00[8]
02545     18 30 1E 00 
02549     00 00 1C 36 
0254d     36 1C 00 00 
02551     00 00 00 00 | 	byte	$18, $30, $1e, $00, $00, $00, $1c, $36, $36, $1c, $00, $00, $00, $00, $00, $00
02555     00 00 00 00 
02559     63 00 00 00 
0255d     00 00 00 00 
02561     00 00 00 00 | 	byte	$00, $00, $00, $00, $63, $00, $00, $00, $00, $00, $00, $00, $00, $00, $00, $00
02565     00 00 00 18 
02569     18 00 00 00 
0256d     00 00 00 00 
02571     00 00 00 00 | 	byte	$00, $00, $00, $18, $18, $00, $00, $00, $00, $00, $00, $00, $00, $00, $00, $00
02575     00 00 00 00 
02579     00          | 	byte	$00[5]
0257a     CC 66 33 00 
0257e     33 33 33 33 
02582     33 33 6E 00 
02586     00 00 36 1C | 	byte	$cc, $66, $33, $00, $33, $33, $33, $33, $33, $33, $6e, $00, $00, $00, $36, $1c
0258a     00 3F 66 66 
0258e     66 3E 36 66 
02592     66 66 6F 00 
02596     00 00 00 00 | 	byte	$00, $3f, $66, $66, $66, $3e, $36, $66, $66, $66, $6f, $00, $00, $00, $00, $00
0259a     36 1C 08 00 
0259e     3B 6E 66 06 
025a2     06 06 0F 00 
025a6     00 00 00 00 | 	byte	$36, $1c, $08, $00, $3b, $6e, $66, $06, $06, $06, $0f, $00, $00, $00, $00, $00
025aa     00 00 00 7E 
025ae     7E 7E 7E 7E 
025b2     7E 7E 00 00 
025b6     00 00 00 00 | 	byte	$00, $00, $00, $7e, $7e, $7e, $7e, $7e, $7e, $7e, $00, $00, $00, $00, $00, $00
025ba     00 00 00 00 
025be     00 00 00 00 
025c2     00 00 00 00 
025c6     00 00       | 	byte	$00, $00, $00, $00, $00, $00, $00, $00, $00, $00, $00, $00, $00, $00
025c8     00 00 00 00 
      ...             
025f8     00 00 00 00 
025fc     00 00 00    | st_font        file "st4font.def"
025ff     FF FF 00 00 
02603     00 00 00 00 
02607     00 18 18 18 
0260b     18 18 18 18 | 	byte	$ff, $ff, $00, $00, $00, $00, $00, $00, $00, $18, $18, $18, $18, $18, $18, $18
0260f     18 18 18 18 
02613     18 18 18 18 
02617     18          | 	byte	$18[9]
02618     00 00 00 00 
0261c     00 00 00    | 	byte	$00[7]
0261f     FF FF 18 18 
02623     18 18 18 18 
02627     18 18 18 18 
0262b     18 18 18 18 | 	byte	$ff, $ff, $18, $18, $18, $18, $18, $18, $18, $18, $18, $18, $18, $18, $18, $18
0262f     FF FF 00 00 
02633     00 00 00 00 
02637     00 18 18 18 
0263b     18 18 18 18 | 	byte	$ff, $ff, $00, $00, $00, $00, $00, $00, $00, $18, $18, $18, $18, $18, $18, $18
0263f     1F 1F 18 18 
02643     18 18 18 18 
02647     18 18 18 18 
0264b     18 18 18 18 | 	byte	$1f, $1f, $18, $18, $18, $18, $18, $18, $18, $18, $18, $18, $18, $18, $18, $18
0264f     F8 F8 18 18 
02653     18 18 18 18 
02657     18 00 00 00 
0265b     00 00 00 00 | 	byte	$f8, $f8, $18, $18, $18, $18, $18, $18, $18, $00, $00, $00, $00, $00, $00, $00
0265f     1F 1F 18 18 
02663     18 18 18 18 
02667     18 00 00 00 
0266b     00 00 00 00 | 	byte	$1f, $1f, $18, $18, $18, $18, $18, $18, $18, $00, $00, $00, $00, $00, $00, $00
0266f     F8 F8 18 18 
02673     18 18 18 18 
02677     18 18 18 18 
0267b     18 18 18 18 | 	byte	$f8, $f8, $18, $18, $18, $18, $18, $18, $18, $18, $18, $18, $18, $18, $18, $18
0267f     1F 1F 00 00 
02683     00 00 00 00 
02687     00 18 18 18 
0268b     18 18 18 18 | 	byte	$1f, $1f, $00, $00, $00, $00, $00, $00, $00, $18, $18, $18, $18, $18, $18, $18
0268f     F8 F8 00 00 
02693     00 00 00 00 
02697     00 18 18 18 
0269b     18 18 18 18 | 	byte	$f8, $f8, $00, $00, $00, $00, $00, $00, $00, $18, $18, $18, $18, $18, $18, $18
0269f     FF FF 18 18 
026a3     18 18 18 18 
026a7     18 00 00 18 
026ab     3C 7E 66 66 | 	byte	$ff, $ff, $18, $18, $18, $18, $18, $18, $18, $00, $00, $18, $3c, $7e, $66, $66
026af     66 7E 7E 66 
026b3     66 66 66 30 
026b7     18 00 00 7E 
026bb     7E 06 06 3E | 	byte	$66, $7e, $7e, $66, $66, $66, $66, $30, $18, $00, $00, $7e, $7e, $06, $06, $3e
026bf     3E 06 06 06 
026c3     06 7E 7E 18 
026c7     0C 30 18 3C 
026cb     7E 66 66 06 | 	byte	$3e, $06, $06, $06, $06, $7e, $7e, $18, $0c, $30, $18, $3c, $7e, $66, $66, $06
026cf     06 06 06 66 
026d3     66 7E 3C 00 
026d7     00 30 18 66 
026db     66 66 6E 6E | 	byte	$06, $06, $06, $66, $66, $7e, $3c, $00, $00, $30, $18, $66, $66, $66, $6e, $6e
026df     7E 7E 76 76 
026e3     66 66 66 00 
026e7     00 30 18 7C 
026eb     7E 06 06 0E | 	byte	$7e, $7e, $76, $76, $66, $66, $66, $00, $00, $30, $18, $7c, $7e, $06, $06, $0e
026ef     1C 38 70 60 
026f3     60 7E 3E 00 
026f7     00 30 18 7E 
026fb     7E 30 30 18 | 	byte	$1c, $38, $70, $60, $60, $7e, $3e, $00, $00, $30, $18, $7e, $7e, $30, $30, $18
026ff     18 0C 0C 06 
02703     06 7E 7E 00 
02707     00 18 18 00 
0270b     7E 7E 30 30 | 	byte	$18, $0c, $0c, $06, $06, $7e, $7e, $00, $00, $18, $18, $00, $7e, $7e, $30, $30
0270f     18 18 0C 0C 
02713     06 7E 7E 00 
02717     00 30 18 3C 
0271b     7E 66 66 66 | 	byte	$18, $18, $0c, $0c, $06, $7e, $7e, $00, $00, $30, $18, $3c, $7e, $66, $66, $66
0271f     66 66 66 66 
02723     66          | 	byte	$66[5]
02724     7E 3C 00 00 
02728     00 00 06 06 
0272c     06 06 16 1E 
02730     0E 06 06 06 | 	byte	$7e, $3c, $00, $00, $00, $00, $06, $06, $06, $06, $16, $1e, $0e, $06, $06, $06
02734     7E 7E 00 00 
02738     00 00 00 00 
0273c     00 3C 7C 60 
02740     7C 7E 66 66 | 	byte	$7e, $7e, $00, $00, $00, $00, $00, $00, $00, $3c, $7c, $60, $7c, $7e, $66, $66
02744     7E 7C 30 18 
02748     00 00 00 00 
0274c     00 3C 7E 66 
02750     66 7E 06 06 | 	byte	$7e, $7c, $30, $18, $00, $00, $00, $00, $00, $3c, $7e, $66, $66, $7e, $06, $06
02754     7E 7C 18 0C 
02758     00 00 30 18 
0275c     00 3C 3E 06 
02760     06 06 06 06 | 	byte	$7e, $7c, $18, $0c, $00, $00, $30, $18, $00, $3c, $3e, $06, $06, $06, $06, $06
02764     7E 7C 00 00 
02768     00 00 30 18 
0276c     00 3E 7E 66 
02770     66 66 66 66 | 	byte	$7e, $7c, $00, $00, $00, $00, $30, $18, $00, $3e, $7e, $66, $66, $66, $66, $66
02774     66 66 00 00 
02778     00 00 30 18 
0277c     00 7C 7E 06 
02780     0E 3C 70 60 | 	byte	$66, $66, $00, $00, $00, $00, $30, $18, $00, $7c, $7e, $06, $0e, $3c, $70, $60
02784     7E 3E 00 00 
02788     00 00 30 18 
0278c     00 7E 7E 30 
02790     18 18 0C 0C | 	byte	$7e, $3e, $00, $00, $00, $00, $30, $18, $00, $7e, $7e, $30, $18, $18, $0c, $0c
02794     7E 7E 00 00 
02798     00 00 18 18 
0279c     00 7E 7E 30 
027a0     18 18 0C 0C | 	byte	$7e, $7e, $00, $00, $00, $00, $18, $18, $00, $7e, $7e, $30, $18, $18, $0c, $0c
027a4     7E 7E 00 00 
027a8     00 00 30 18 
027ac     00 3C 7E 66 
027b0     66 66 66 66 | 	byte	$7e, $7e, $00, $00, $00, $00, $30, $18, $00, $3c, $7e, $66, $66, $66, $66, $66
027b4     7E 3C 00 00 
027b8     00 00 1C 1C 
027bc     18 18 38 3C 
027c0     1C 18 18 18 | 	byte	$7e, $3c, $00, $00, $00, $00, $1c, $1c, $18, $18, $38, $3c, $1c, $18, $18, $18
027c4     3C 3C 00 00 
027c8     00 00 00 00 
027cc     00 00 00 00 
027d0     00 00 00 00 | 	byte	$3c, $3c, $00, $00, $00, $00, $00, $00, $00, $00, $00, $00, $00, $00, $00, $00
027d4     00 00 00 00 
027d8     00 00       | 	byte	$00[6]
027da     18 18 18 18 
027de     18 18 18 18 | 	byte	$18[8]
027e2     00 00 18 18 
027e6     00 00 00 00 
027ea     66 66 66 66 
027ee     00 00 00 00 | 	byte	$00, $00, $18, $18, $00, $00, $00, $00, $66, $66, $66, $66, $00, $00, $00, $00
027f2     00 00 00 00 
027f6     00 00 00 00 
027fa     00          | 	byte	$00[9]
027fb     66 66 FF FF 
027ff     66 66 FF FF 
02803     66 66 00 00 
02807     00 00 18 18 | 	byte	$66, $66, $ff, $ff, $66, $66, $ff, $ff, $66, $66, $00, $00, $00, $00, $18, $18
0280b     7C 7E 06 06 
0280f     3E 7C 60 60 
02813     7E 3E 18 18 
02817     00 00 00 66 | 	byte	$7c, $7e, $06, $06, $3e, $7c, $60, $60, $7e, $3e, $18, $18, $00, $00, $00, $66
0281b     66 30 30 18 
0281f     18 0C 0C 66 
02823     66 00 00 00 
02827     00 00 3C 7E | 	byte	$66, $30, $30, $18, $18, $0c, $0c, $66, $66, $00, $00, $00, $00, $00, $3c, $7e
0282b     66 66 3C 1C 
0282f     1C FC FE 66 
02833     66 FE FC 00 
02837     00 00 00 18 | 	byte	$66, $66, $3c, $1c, $1c, $fc, $fe, $66, $66, $fe, $fc, $00, $00, $00, $00, $18
0283b     18 18 18 18 
0283f     00 00 00 00 
02843     00 00 00 00 
02847     00 00 00 30 | 	byte	$18, $18, $18, $18, $00, $00, $00, $00, $00, $00, $00, $00, $00, $00, $00, $30
0284b     18 1C 0C 0C 
0284f     0C 0C 0C 0C 
02853     1C 18 30 00 
02857     00 00 00 0C | 	byte	$18, $1c, $0c, $0c, $0c, $0c, $0c, $0c, $1c, $18, $30, $00, $00, $00, $00, $0c
0285b     18 38 30 30 
0285f     30 30 30 30 
02863     38 18 0C 00 
02867     00 00 00 00 | 	byte	$18, $38, $30, $30, $30, $30, $30, $30, $38, $18, $0c, $00, $00, $00, $00, $00
0286b     66 66 3C 3C 
0286f     FF FF 3C 3C 
02873     66 66 00 00 
02877     00 00 00 00 | 	byte	$66, $66, $3c, $3c, $ff, $ff, $3c, $3c, $66, $66, $00, $00, $00, $00, $00, $00
0287b     00 18 18 18 
0287f     7E 7E 18 18 
02883     18 00 00 00 
02887     00 00 00 00 | 	byte	$00, $18, $18, $18, $7e, $7e, $18, $18, $18, $00, $00, $00, $00, $00, $00, $00
0288b     00 00 00 00 
0288f     00 00       | 	byte	$00[6]
02891     18 18 18 18 
02895     18          | 	byte	$18[5]
02896     0C 04 00 00 
0289a     00 00 00 00 
0289e     7E 7E 00 00 
028a2     00 00 00 00 | 	byte	$0c, $04, $00, $00, $00, $00, $00, $00, $7e, $7e, $00, $00, $00, $00, $00, $00
028a6     00 00 00 00 
028aa     00 00 00 00 
028ae     00 00 00 00 
028b2     00          | 	byte	$00[13]
028b3     18 18 18 00 
028b7     00 00 00 60 
028bb     60 60 30 30 
028bf     18 18 0C 0C | 	byte	$18, $18, $18, $00, $00, $00, $00, $60, $60, $60, $30, $30, $18, $18, $0c, $0c
028c3     06 06 06 00 
028c7     00 00 00 3C 
028cb     7E 66 66 66 
028cf     76 6E 66 66 | 	byte	$06, $06, $06, $00, $00, $00, $00, $3c, $7e, $66, $66, $66, $76, $6e, $66, $66
028d3     66 7E 3C 00 
028d7     00 00 00 18 
028db     18 1C 1C 18 
028df     18 18 18 18 | 	byte	$66, $7e, $3c, $00, $00, $00, $00, $18, $18, $1c, $1c, $18, $18, $18, $18, $18
028e3     18 7E 7E 00 
028e7     00 00 00 3C 
028eb     7E 66 66 30 
028ef     30 18 18 0C | 	byte	$18, $7e, $7e, $00, $00, $00, $00, $3c, $7e, $66, $66, $30, $30, $18, $18, $0c
028f3     0C 7E 7E 00 
028f7     00 00 00 7E 
028fb     7E 30 30 18 
028ff     18 30 30 66 | 	byte	$0c, $7e, $7e, $00, $00, $00, $00, $7e, $7e, $30, $30, $18, $18, $30, $30, $66
02903     66 7E 3C 00 
02907     00 00 00 30 
0290b     30 38 38 3C 
0290f     3C 36 36 7E | 	byte	$66, $7e, $3c, $00, $00, $00, $00, $30, $30, $38, $38, $3c, $3c, $36, $36, $7e
02913     7E 30 30 00 
02917     00 00 00 7E 
0291b     7E 06 06 3E 
0291f     7E 60 60 60 | 	byte	$7e, $30, $30, $00, $00, $00, $00, $7e, $7e, $06, $06, $3e, $7e, $60, $60, $60
02923     66 7E 3C 00 
02927     00 00 00 38 
0292b     3C 0E 06 06 
0292f     3E 7E 66 66 | 	byte	$66, $7e, $3c, $00, $00, $00, $00, $38, $3c, $0e, $06, $06, $3e, $7e, $66, $66
02933     66 7E 3C 00 
02937     00 00 00 7E 
0293b     7E 60 60 30 
0293f     30 18 18 0C | 	byte	$66, $7e, $3c, $00, $00, $00, $00, $7e, $7e, $60, $60, $30, $30, $18, $18, $0c
02943     0C 0C 0C 00 
02947     00 00 00 3C 
0294b     7E 66 66 3C 
0294f     3C 66 66 66 | 	byte	$0c, $0c, $0c, $00, $00, $00, $00, $3c, $7e, $66, $66, $3c, $3c, $66, $66, $66
02953     66 7E 3C 00 
02957     00 00 00 3C 
0295b     7E 66 66 7E 
0295f     7C 60 60 60 | 	byte	$66, $7e, $3c, $00, $00, $00, $00, $3c, $7e, $66, $66, $7e, $7c, $60, $60, $60
02963     70 3C 1C 00 
02967     00 00 00 00 
0296b     00 00 18 18 
0296f     18 00 00 00 | 	byte	$70, $3c, $1c, $00, $00, $00, $00, $00, $00, $00, $18, $18, $18, $00, $00, $00
02973     18 18 18 00 
02977     00 00 00 00 
0297b     00 00 18 18 
0297f     18 00 00 18 | 	byte	$18, $18, $18, $00, $00, $00, $00, $00, $00, $00, $18, $18, $18, $00, $00, $18
02983     18 18 18 0C 
02987     04 00 00 00 
0298b     70 38 1C 0E 
0298f     07 0E 1C 38 | 	byte	$18, $18, $18, $0c, $04, $00, $00, $00, $70, $38, $1c, $0e, $07, $0e, $1c, $38
02993     70 00 00 00 
02997     00 00 00 00 
0299b     00 00 7E 7E 
0299f     00 00 7E 7E | 	byte	$70, $00, $00, $00, $00, $00, $00, $00, $00, $00, $7e, $7e, $00, $00, $7e, $7e
029a3     00 00 00 00 
029a7     00 00 00 00 | 	byte	$00[8]
029ab     0E 1C 38 70 
029af     E0 70 38 1C 
029b3     0E 00 00 00 
029b7     00 00 00 3C | 	byte	$0e, $1c, $38, $70, $e0, $70, $38, $1c, $0e, $00, $00, $00, $00, $00, $00, $3c
029bb     7E 66 66 30 
029bf     30 18 18 18 
029c3     00 18 18 00 
029c7     00 00 00 3C | 	byte	$7e, $66, $66, $30, $30, $18, $18, $18, $00, $18, $18, $00, $00, $00, $00, $3c
029cb     7E 66 66 66 
029cf     66 36 06 66 
029d3     66 7E 3C 00 
029d7     00 00 00 18 | 	byte	$7e, $66, $66, $66, $66, $36, $06, $66, $66, $7e, $3c, $00, $00, $00, $00, $18
029db     3C 7E 66 66 
029df     66 7E 7E 66 
029e3     66 66 66 00 
029e7     00 00 00 3E | 	byte	$3c, $7e, $66, $66, $66, $7e, $7e, $66, $66, $66, $66, $00, $00, $00, $00, $3e
029eb     7E 66 66 7E 
029ef     3E 66 66 66 
029f3     66 7E 3E 00 
029f7     00 00 00 3C | 	byte	$7e, $66, $66, $7e, $3e, $66, $66, $66, $66, $7e, $3e, $00, $00, $00, $00, $3c
029fb     7E 66 66 06 
029ff     06 06 06 66 
02a03     66 7E 3C 00 
02a07     00 00 00 3E | 	byte	$7e, $66, $66, $06, $06, $06, $06, $66, $66, $7e, $3c, $00, $00, $00, $00, $3e
02a0b     7E 66 66 66 
02a0f     66 66 66 66 
02a13     66 7E 3E 00 
02a17     00 00 00 7E | 	byte	$7e, $66, $66, $66, $66, $66, $66, $66, $66, $7e, $3e, $00, $00, $00, $00, $7e
02a1b     7E 06 06 3E 
02a1f     3E 06 06 06 
02a23     06 7E 7E 00 
02a27     00 00 00 7E | 	byte	$7e, $06, $06, $3e, $3e, $06, $06, $06, $06, $7e, $7e, $00, $00, $00, $00, $7e
02a2b     7E 06 06 3E 
02a2f     3E 06 06 06 
02a33     06 06 06 00 
02a37     00 00 00 7C | 	byte	$7e, $06, $06, $3e, $3e, $06, $06, $06, $06, $06, $06, $00, $00, $00, $00, $7c
02a3b     7E 06 06 76 
02a3f     76 66 66 66 
02a43     66 7E 3C 00 
02a47     00 00 00 66 | 	byte	$7e, $06, $06, $76, $76, $66, $66, $66, $66, $7e, $3c, $00, $00, $00, $00, $66
02a4b     66 66 66 7E 
02a4f     7E 66 66 66 
02a53     66 66 66 00 
02a57     00 00 00 7E | 	byte	$66, $66, $66, $7e, $7e, $66, $66, $66, $66, $66, $66, $00, $00, $00, $00, $7e
02a5b     7E 18 18 18 
02a5f     18 18 18 18 
02a63     18 7E 7E 00 
02a67     00 00 00 60 | 	byte	$7e, $18, $18, $18, $18, $18, $18, $18, $18, $7e, $7e, $00, $00, $00, $00, $60
02a6b     60 60 60 60 
02a6f     60 60 60    | 	byte	$60[7]
02a72     66 66 7E 3C 
02a76     00 00 00 00 
02a7a     66 66 36 36 
02a7e     1E 1E 36 36 | 	byte	$66, $66, $7e, $3c, $00, $00, $00, $00, $66, $66, $36, $36, $1e, $1e, $36, $36
02a82     66 66 C6 C6 
02a86     00 00 00 00 
02a8a     06 06 06 06 
02a8e     06 06 06 06 | 	byte	$66, $66, $c6, $c6, $00, $00, $00, $00, $06, $06, $06, $06, $06, $06, $06, $06
02a92     06 06 7E 7E 
02a96     00 00 00 00 
02a9a     C6 C6 EE EE 
02a9e     FE D6 D6 C6 | 	byte	$06, $06, $7e, $7e, $00, $00, $00, $00, $c6, $c6, $ee, $ee, $fe, $d6, $d6, $c6
02aa2     C6 C6 C6 C6 
02aa6     00 00 00 00 
02aaa     66 66 66 6E 
02aae     6E 7E 7E 76 | 	byte	$c6, $c6, $c6, $c6, $00, $00, $00, $00, $66, $66, $66, $6e, $6e, $7e, $7e, $76
02ab2     76 66 66 66 
02ab6     00 00 00 00 
02aba     3C 7E 66 66 
02abe     66 66 66 66 | 	byte	$76, $66, $66, $66, $00, $00, $00, $00, $3c, $7e, $66, $66, $66, $66, $66, $66
02ac2     66 66 7E 3C 
02ac6     00 00 00 00 
02aca     3E 7E 66 66 
02ace     66 66 7E 3E | 	byte	$66, $66, $7e, $3c, $00, $00, $00, $00, $3e, $7e, $66, $66, $66, $66, $7e, $3e
02ad2     06 06 06 06 
02ad6     00 00 00 00 
02ada     3C 7E 66 66 
02ade     66 66 66 66 | 	byte	$06, $06, $06, $06, $00, $00, $00, $00, $3c, $7e, $66, $66, $66, $66, $66, $66
02ae2     66 56 3E 6C 
02ae6     00 00 00 00 
02aea     3E 7E 66 66 
02aee     66 7E 3E 36 | 	byte	$66, $56, $3e, $6c, $00, $00, $00, $00, $3e, $7e, $66, $66, $66, $7e, $3e, $36
02af2     66 66 C6 C6 
02af6     00 00 00 00 
02afa     7C 7E 06 06 
02afe     0E 1C 38 70 | 	byte	$66, $66, $c6, $c6, $00, $00, $00, $00, $7c, $7e, $06, $06, $0e, $1c, $38, $70
02b02     60 60 7E 3E 
02b06     00 00 00 00 
02b0a     7E 7E 18 18 
02b0e     18 18 18 18 | 	byte	$60, $60, $7e, $3e, $00, $00, $00, $00, $7e, $7e, $18, $18, $18, $18, $18, $18
02b12     18 18 18 18 
02b16     00 00 00 00 
02b1a     66 66 66 66 
02b1e     66 66 66 66 | 	byte	$18, $18, $18, $18, $00, $00, $00, $00, $66, $66, $66, $66, $66, $66, $66, $66
02b22     66 66 7E 3C 
02b26     00 00 00 00 
02b2a     66 66 66 66 
02b2e     66 66 66 66 | 	byte	$66, $66, $7e, $3c, $00, $00, $00, $00, $66, $66, $66, $66, $66, $66, $66, $66
02b32     3C 3C 18 18 
02b36     00 00 00 00 
02b3a     C6 C6 C6 C6 
02b3e     C6 D6 D6 FE | 	byte	$3c, $3c, $18, $18, $00, $00, $00, $00, $c6, $c6, $c6, $c6, $c6, $d6, $d6, $fe
02b42     FE EE C6 82 
02b46     00 00 00 00 
02b4a     66 66 66 3C 
02b4e     3C 18 18 3C | 	byte	$fe, $ee, $c6, $82, $00, $00, $00, $00, $66, $66, $66, $3c, $3c, $18, $18, $3c
02b52     3C 66 66 66 
02b56     00 00 00 00 
02b5a     66 66 66 66 
02b5e     66 3C 3C 18 | 	byte	$3c, $66, $66, $66, $00, $00, $00, $00, $66, $66, $66, $66, $66, $3c, $3c, $18
02b62     18 18 18 18 
02b66     00 00 00 00 
02b6a     7E 7E 30 30 
02b6e     18 18 0C 0C | 	byte	$18, $18, $18, $18, $00, $00, $00, $00, $7e, $7e, $30, $30, $18, $18, $0c, $0c
02b72     06 06 7E 7E 
02b76     00 00 00 00 
02b7a     3C 3C 0C 0C 
02b7e     0C 0C 0C 0C | 	byte	$06, $06, $7e, $7e, $00, $00, $00, $00, $3c, $3c, $0c, $0c, $0c, $0c, $0c, $0c
02b82     0C 0C 3C 3C 
02b86     00 00 00 00 
02b8a     06 06 0C 0C 
02b8e     18 18 30 30 | 	byte	$0c, $0c, $3c, $3c, $00, $00, $00, $00, $06, $06, $0c, $0c, $18, $18, $30, $30
02b92     60 60 C0 C0 
02b96     00 00 00 00 
02b9a     3C 3C 30 30 
02b9e     30 30 30 30 | 	byte	$60, $60, $c0, $c0, $00, $00, $00, $00, $3c, $3c, $30, $30, $30, $30, $30, $30
02ba2     30 30 3C 3C 
02ba6     00 00 00 00 
02baa     18 18 3C 3C 
02bae     66 66 00 00 | 	byte	$30, $30, $3c, $3c, $00, $00, $00, $00, $18, $18, $3c, $3c, $66, $66, $00, $00
02bb2     00 00 00 00 
02bb6     00 00 00 00 
02bba     00 00 00 00 
02bbe     00 00 00 00 
02bc2     00 00       | 	byte	$00[18]
02bc4     FE FE 00 00 
02bc8     00 00 0C 0C 
02bcc     18 18 00 00 
02bd0     00 00 00 00 | 	byte	$fe, $fe, $00, $00, $00, $00, $0c, $0c, $18, $18, $00, $00, $00, $00, $00, $00
02bd4     00 00 00 00 
02bd8     00 00 00 00 
02bdc     00          | 	byte	$00[9]
02bdd     3C 7C 60 7C 
02be1     7E 66 66 7E 
02be5     7C 00 00 00 
02be9     00 06 06 06 | 	byte	$3c, $7c, $60, $7c, $7e, $66, $66, $7e, $7c, $00, $00, $00, $00, $06, $06, $06
02bed     3E 7E 66 66 
02bf1     66 66 66 7E 
02bf5     3E 00 00 00 
02bf9     00 00 00 00 | 	byte	$3e, $7e, $66, $66, $66, $66, $66, $7e, $3e, $00, $00, $00, $00, $00, $00, $00
02bfd     3C 3E 06 06 
02c01     06 06 06 7E 
02c05     7C 00 00 00 
02c09     00 60 60 60 | 	byte	$3c, $3e, $06, $06, $06, $06, $06, $7e, $7c, $00, $00, $00, $00, $60, $60, $60
02c0d     7C 7E 66 66 
02c11     66 66 66 7E 
02c15     7C 00 00 00 
02c19     00 00 00 00 | 	byte	$7c, $7e, $66, $66, $66, $66, $66, $7e, $7c, $00, $00, $00, $00, $00, $00, $00
02c1d     3C 7E 66 66 
02c21     7E 06 06 7E 
02c25     7C 00 00 00 
02c29     00 70 78 18 | 	byte	$3c, $7e, $66, $66, $7e, $06, $06, $7e, $7c, $00, $00, $00, $00, $70, $78, $18
02c2d     18 7E 7E 18 
02c31     18 18 18 18 
02c35     18 00 00 00 
02c39     00 00 00 00 | 	byte	$18, $7e, $7e, $18, $18, $18, $18, $18, $18, $00, $00, $00, $00, $00, $00, $00
02c3d     7C 7E 66 66 
02c41     66 66 7E 7C 
02c45     60 7E 3E 00 
02c49     00 06 06 06 | 	byte	$7c, $7e, $66, $66, $66, $66, $7e, $7c, $60, $7e, $3e, $00, $00, $06, $06, $06
02c4d     3E 7E 66 66 
02c51     66 66 66 66 
02c55     66 00 00 00 
02c59     00 18 18 00 | 	byte	$3e, $7e, $66, $66, $66, $66, $66, $66, $66, $00, $00, $00, $00, $18, $18, $00
02c5d     1C 1C 18 18 
02c61     18 18 18 3C 
02c65     3C 00 00 00 
02c69     00 30 30 00 | 	byte	$1c, $1c, $18, $18, $18, $18, $18, $3c, $3c, $00, $00, $00, $00, $30, $30, $00
02c6d     30 30 30 30 
02c71     30 30 30 30 
02c75     30          | 	byte	$30[9]
02c76     3E 1E 00 00 
02c7a     06 06 06 36 
02c7e     36 1E 1E 1E 
02c82     36 36 66 66 | 	byte	$3e, $1e, $00, $00, $06, $06, $06, $36, $36, $1e, $1e, $1e, $36, $36, $66, $66
02c86     00 00 00 00 
02c8a     1C 1C 18 18 
02c8e     18 18 18 18 
02c92     18 18 3C 3C | 	byte	$00, $00, $00, $00, $1c, $1c, $18, $18, $18, $18, $18, $18, $18, $18, $3c, $3c
02c96     00 00 00 00 
02c9a     00 00 00    | 	byte	$00[7]
02c9d     6C FE FE D6 
02ca1     D6 C6 C6 C6 
02ca5     C6 00 00 00 
02ca9     00 00 00 00 | 	byte	$6c, $fe, $fe, $d6, $d6, $c6, $c6, $c6, $c6, $00, $00, $00, $00, $00, $00, $00
02cad     3E 7E 66 66 
02cb1     66 66 66 66 
02cb5     66 00 00 00 
02cb9     00 00 00 00 | 	byte	$3e, $7e, $66, $66, $66, $66, $66, $66, $66, $00, $00, $00, $00, $00, $00, $00
02cbd     3C 7E 66 66 
02cc1     66 66 66 7E 
02cc5     3C 00 00 00 
02cc9     00 00 00 00 | 	byte	$3c, $7e, $66, $66, $66, $66, $66, $7e, $3c, $00, $00, $00, $00, $00, $00, $00
02ccd     3E 7E 66 66 
02cd1     66 66 66 7E 
02cd5     3E 06 06 00 
02cd9     00 00 00 00 | 	byte	$3e, $7e, $66, $66, $66, $66, $66, $7e, $3e, $06, $06, $00, $00, $00, $00, $00
02cdd     7C 7E 66 66 
02ce1     66 66 66 7E 
02ce5     7C 60 60 00 
02ce9     00 00 00 00 | 	byte	$7c, $7e, $66, $66, $66, $66, $66, $7e, $7c, $60, $60, $00, $00, $00, $00, $00
02ced     3E 7E 66 06 
02cf1     06 06 06 06 
02cf5     06 00 00 00 
02cf9     00 00 00 00 | 	byte	$3e, $7e, $66, $06, $06, $06, $06, $06, $06, $00, $00, $00, $00, $00, $00, $00
02cfd     7C 7E 06 0E 
02d01     3C 70 60 7E 
02d05     3E 00 00 00 
02d09     00 00 18 18 | 	byte	$7c, $7e, $06, $0e, $3c, $70, $60, $7e, $3e, $00, $00, $00, $00, $00, $18, $18
02d0d     7E 7E 18 18 
02d11     18 18 18 78 
02d15     70 00 00 00 
02d19     00 00 00 00 | 	byte	$7e, $7e, $18, $18, $18, $18, $18, $78, $70, $00, $00, $00, $00, $00, $00, $00
02d1d     66 66 66 66 
02d21     66 66 66    | 	byte	$66[7]
02d24     7E 7C 00 00 
02d28     00 00 00 00 
02d2c     00 66 66 66 
02d30     66 66 3C 3C | 	byte	$7e, $7c, $00, $00, $00, $00, $00, $00, $00, $66, $66, $66, $66, $66, $3c, $3c
02d34     18 18 00 00 
02d38     00 00 00 00 
02d3c     00 C6 C6 D6 
02d40     D6 FE FE EE | 	byte	$18, $18, $00, $00, $00, $00, $00, $00, $00, $c6, $c6, $d6, $d6, $fe, $fe, $ee
02d44     C6 82 00 00 
02d48     00 00 00 00 
02d4c     00 66 66 3C 
02d50     3C 18 3C 3C | 	byte	$c6, $82, $00, $00, $00, $00, $00, $00, $00, $66, $66, $3c, $3c, $18, $3c, $3c
02d54     66 66 00 00 
02d58     00 00 00 00 
02d5c     00 66 66 66 
02d60     66 66 66 7E | 	byte	$66, $66, $00, $00, $00, $00, $00, $00, $00, $66, $66, $66, $66, $66, $66, $7e
02d64     7C 60 7E 3E 
02d68     00 00 00 00 
02d6c     00 7E 7E 30 
02d70     18 18 0C 0C | 	byte	$7c, $60, $7e, $3e, $00, $00, $00, $00, $00, $7e, $7e, $30, $18, $18, $0c, $0c
02d74     7E 7E 00 00 
02d78     00 00 30 18 
02d7c     18 18 18 0C 
02d80     0C 18 18 18 | 	byte	$7e, $7e, $00, $00, $00, $00, $30, $18, $18, $18, $18, $0c, $0c, $18, $18, $18
02d84     18 30 00 00 
02d88     00 00 18 18 
02d8c     18 18 18 18 
02d90     18 18 18 18 | 	byte	$18, $30, $00, $00, $00, $00, $18, $18, $18, $18, $18, $18, $18, $18, $18, $18
02d94     18 18 00 00 
02d98     00 00 0C 18 
02d9c     18 18 18 30 
02da0     30 18 18 18 | 	byte	$18, $18, $00, $00, $00, $00, $0c, $18, $18, $18, $18, $30, $30, $18, $18, $18
02da4     18 0C 00 00 
02da8     00 00 6C 7E 
02dac     36 00 00 00 
02db0     00 00 00 00 | 	byte	$18, $0c, $00, $00, $00, $00, $6c, $7e, $36, $00, $00, $00, $00, $00, $00, $00
02db4     00 00 00 00 
02db8     00 00 00 00 
02dbc     00          | 	byte	$00[9]
02dbd     18 18 18 18 
02dc1     18 18 00 00 
02dc5     00 00 00    | 	byte	$18, $18, $18, $18, $18, $18, $00, $00, $00, $00, $00
02dc8     00 00 00 00 
02dcc     00          | ataripalette   file "ataripalettep2.def"
02dcd     11 11 11 00 
02dd1     22 22 22 00 
02dd5     33 33 33 00 
02dd9     44 44 44 00 | 	byte	$11, $11, $11, $00, $22, $22, $22, $00, $33, $33, $33, $00, $44, $44, $44, $00
02ddd     55 55 55 00 
02de1     66 66 66 00 
02de5     77 77 77 00 
02de9     88 88 88 00 | 	byte	$55, $55, $55, $00, $66, $66, $66, $00, $77, $77, $77, $00, $88, $88, $88, $00
02ded     99 99 99 00 
02df1     AA AA AA 00 
02df5     BB BB BB 00 
02df9     CC CC CC 00 | 	byte	$99, $99, $99, $00, $aa, $aa, $aa, $00, $bb, $bb, $bb, $00, $cc, $cc, $cc, $00
02dfd     DD DD DD 00 
02e01     EE EE EE 00 
02e05     FF FF FF 00 
02e09     00 0A 20 00 | 	byte	$dd, $dd, $dd, $00, $ee, $ee, $ee, $00, $ff, $ff, $ff, $00, $00, $0a, $20, $00
02e0d     00 14 40 00 
02e11     00 1E 60 00 
02e15     00 28 80 00 
02e19     00 32 9F 00 | 	byte	$00, $14, $40, $00, $00, $1e, $60, $00, $00, $28, $80, $00, $00, $32, $9f, $00
02e1d     00 3C BF 00 
02e21     00 46 DF 00 
02e25     00 50 FF 00 
02e29     1C 63 FF 00 | 	byte	$00, $3c, $bf, $00, $00, $46, $df, $00, $00, $50, $ff, $00, $1c, $63, $ff, $00
02e2d     39 77 FF 00 
02e31     55 8A FF 00 
02e35     71 9E FF 00 
02e39     8E B1 FF 00 | 	byte	$39, $77, $ff, $00, $55, $8a, $ff, $00, $71, $9e, $ff, $00, $8e, $b1, $ff, $00
02e3d     AA C5 FF 00 
02e41     C6 D8 FF 00 
02e45     E3 EC FF 00 
02e49     00 00 20 00 | 	byte	$aa, $c5, $ff, $00, $c6, $d8, $ff, $00, $e3, $ec, $ff, $00, $00, $00, $20, $00
02e4d     00 00 40 00 
02e51     00 00 60 00 
02e55     00 00 80 00 
02e59     00 00 9F 00 | 	byte	$00, $00, $40, $00, $00, $00, $60, $00, $00, $00, $80, $00, $00, $00, $9f, $00
02e5d     00 00 BF 00 
02e61     00 00 DF 00 
02e65     00 00 FF 00 
02e69     1C 1C FF 00 | 	byte	$00, $00, $bf, $00, $00, $00, $df, $00, $00, $00, $ff, $00, $1c, $1c, $ff, $00
02e6d     39 39 FF 00 
02e71     55 55 FF 00 
02e75     71 71 FF 00 
02e79     8E 8E FF 00 | 	byte	$39, $39, $ff, $00, $55, $55, $ff, $00, $71, $71, $ff, $00, $8e, $8e, $ff, $00
02e7d     AA AA FF 00 
02e81     C6 C6 FF 00 
02e85     E3 E3 FF 00 
02e89     10 00 20 00 | 	byte	$aa, $aa, $ff, $00, $c6, $c6, $ff, $00, $e3, $e3, $ff, $00, $10, $00, $20, $00
02e8d     20 00 40 00 
02e91     30 00 60 00 
02e95     40 00 80 00 
02e99     50 00 9F 00 | 	byte	$20, $00, $40, $00, $30, $00, $60, $00, $40, $00, $80, $00, $50, $00, $9f, $00
02e9d     60 00 BF 00 
02ea1     70 00 DF 00 
02ea5     80 00 FF 00 
02ea9     8E 1C FF 00 | 	byte	$60, $00, $bf, $00, $70, $00, $df, $00, $80, $00, $ff, $00, $8e, $1c, $ff, $00
02ead     9C 39 FF 00 
02eb1     AA 55 FF 00 
02eb5     B8 71 FF 00 
02eb9     C7 8E FF 00 | 	byte	$9c, $39, $ff, $00, $aa, $55, $ff, $00, $b8, $71, $ff, $00, $c7, $8e, $ff, $00
02ebd     D5 AA FF 00 
02ec1     E3 C6 FF 00 
02ec5     F1 E3 FF 00 
02ec9     20 00 20 00 | 	byte	$d5, $aa, $ff, $00, $e3, $c6, $ff, $00, $f1, $e3, $ff, $00, $20, $00, $20, $00
02ecd     40 00 40 00 
02ed1     60 00 60 00 
02ed5     80 00 80 00 
02ed9     9F 00 9F 00 | 	byte	$40, $00, $40, $00, $60, $00, $60, $00, $80, $00, $80, $00, $9f, $00, $9f, $00
02edd     BF 00 BF 00 
02ee1     DF 00 DF 00 
02ee5     FF 00 FF 00 
02ee9     FF 1C FF 00 | 	byte	$bf, $00, $bf, $00, $df, $00, $df, $00, $ff, $00, $ff, $00, $ff, $1c, $ff, $00
02eed     FF 39 FF 00 
02ef1     FF 55 FF 00 
02ef5     FF 71 FF 00 
02ef9     FF 8E FF 00 | 	byte	$ff, $39, $ff, $00, $ff, $55, $ff, $00, $ff, $71, $ff, $00, $ff, $8e, $ff, $00
02efd     FF AA FF 00 
02f01     FF C6 FF 00 
02f05     FF E3 FF 00 
02f09     20 00 10 00 | 	byte	$ff, $aa, $ff, $00, $ff, $c6, $ff, $00, $ff, $e3, $ff, $00, $20, $00, $10, $00
02f0d     40 00 20 00 
02f11     60 00 30 00 
02f15     80 00 40 00 
02f19     9F 00 50 00 | 	byte	$40, $00, $20, $00, $60, $00, $30, $00, $80, $00, $40, $00, $9f, $00, $50, $00
02f1d     BF 00 60 00 
02f21     DF 00 70 00 
02f25     FF 00 80 00 
02f29     FF 1C 8E 00 | 	byte	$bf, $00, $60, $00, $df, $00, $70, $00, $ff, $00, $80, $00, $ff, $1c, $8e, $00
02f2d     FF 39 9C 00 
02f31     FF 55 AA 00 
02f35     FF 71 B8 00 
02f39     FF 8E C7 00 | 	byte	$ff, $39, $9c, $00, $ff, $55, $aa, $00, $ff, $71, $b8, $00, $ff, $8e, $c7, $00
02f3d     FF AA D5 00 
02f41     FF C6 E3 00 
02f45     FF E3 F1 00 
02f49     20 00 00 00 | 	byte	$ff, $aa, $d5, $00, $ff, $c6, $e3, $00, $ff, $e3, $f1, $00, $20, $00, $00, $00
02f4d     40 00 00 00 
02f51     60 00 00 00 
02f55     80 00 00 00 
02f59     9F 00 00 00 | 	byte	$40, $00, $00, $00, $60, $00, $00, $00, $80, $00, $00, $00, $9f, $00, $00, $00
02f5d     BF 00 00 00 
02f61     DF 00 00 00 
02f65     FF 00 00 00 
02f69     FF 1C 1C 00 | 	byte	$bf, $00, $00, $00, $df, $00, $00, $00, $ff, $00, $00, $00, $ff, $1c, $1c, $00
02f6d     FF 39 39 00 
02f71     FF 55 55 00 
02f75     FF 71 71 00 
02f79     FF 8E 8E 00 | 	byte	$ff, $39, $39, $00, $ff, $55, $55, $00, $ff, $71, $71, $00, $ff, $8e, $8e, $00
02f7d     FF AA AA 00 
02f81     FF C6 C6 00 
02f85     FF E3 E3 00 
02f89     20 08 00 00 | 	byte	$ff, $aa, $aa, $00, $ff, $c6, $c6, $00, $ff, $e3, $e3, $00, $20, $08, $00, $00
02f8d     40 10 00 00 
02f91     60 18 00 00 
02f95     80 20 00 00 
02f99     9F 28 00 00 | 	byte	$40, $10, $00, $00, $60, $18, $00, $00, $80, $20, $00, $00, $9f, $28, $00, $00
02f9d     BF 30 00 00 
02fa1     DF 38 00 00 
02fa5     FF 40 00 00 
02fa9     FF 55 1C 00 | 	byte	$bf, $30, $00, $00, $df, $38, $00, $00, $ff, $40, $00, $00, $ff, $55, $1c, $00
02fad     FF 6A 39 00 
02fb1     FF 80 55 00 
02fb5     FF 95 71 00 
02fb9     FF AA 8E 00 | 	byte	$ff, $6a, $39, $00, $ff, $80, $55, $00, $ff, $95, $71, $00, $ff, $aa, $8e, $00
02fbd     FF BF AA 00 
02fc1     FF D5 C6 00 
02fc5     FF EA E3 00 
02fc9     20 10 00 00 | 	byte	$ff, $bf, $aa, $00, $ff, $d5, $c6, $00, $ff, $ea, $e3, $00, $20, $10, $00, $00
02fcd     40 20 00 00 
02fd1     60 30 00 00 
02fd5     80 40 00 00 
02fd9     9F 50 00 00 | 	byte	$40, $20, $00, $00, $60, $30, $00, $00, $80, $40, $00, $00, $9f, $50, $00, $00
02fdd     BF 60 00 00 
02fe1     DF 70 00 00 
02fe5     FF 80 00 00 
02fe9     FF 8E 1C 00 | 	byte	$bf, $60, $00, $00, $df, $70, $00, $00, $ff, $80, $00, $00, $ff, $8e, $1c, $00
02fed     FF 9C 39 00 
02ff1     FF AA 55 00 
02ff5     FF B8 71 00 
02ff9     FF C7 8E 00 | 	byte	$ff, $9c, $39, $00, $ff, $aa, $55, $00, $ff, $b8, $71, $00, $ff, $c7, $8e, $00
02ffd     FF D5 AA 00 
03001     FF E3 C6 00 
03005     FF F1 E3 00 
03009     20 18 00 00 | 	byte	$ff, $d5, $aa, $00, $ff, $e3, $c6, $00, $ff, $f1, $e3, $00, $20, $18, $00, $00
0300d     40 30 00 00 
03011     60 48 00 00 
03015     80 60 00 00 
03019     9F 78 00 00 | 	byte	$40, $30, $00, $00, $60, $48, $00, $00, $80, $60, $00, $00, $9f, $78, $00, $00
0301d     BF 90 00 00 
03021     DF A8 00 00 
03025     FF C0 00 00 
03029     FF C7 1C 00 | 	byte	$bf, $90, $00, $00, $df, $a8, $00, $00, $ff, $c0, $00, $00, $ff, $c7, $1c, $00
0302d     FF CE 39 00 
03031     FF D5 55 00 
03035     FF DC 71 00 
03039     FF E3 8E 00 | 	byte	$ff, $ce, $39, $00, $ff, $d5, $55, $00, $ff, $dc, $71, $00, $ff, $e3, $8e, $00
0303d     FF EA AA 00 
03041     FF F1 C6 00 
03045     FF F8 E3 00 
03049     18 20 00 00 | 	byte	$ff, $ea, $aa, $00, $ff, $f1, $c6, $00, $ff, $f8, $e3, $00, $18, $20, $00, $00
0304d     30 40 00 00 
03051     48 60 00 00 
03055     60 80 00 00 
03059     78 9F 00 00 | 	byte	$30, $40, $00, $00, $48, $60, $00, $00, $60, $80, $00, $00, $78, $9f, $00, $00
0305d     90 BF 00 00 
03061     A8 DF 00 00 
03065     C0 FF 00 00 
03069     C7 FF 1C 00 | 	byte	$90, $bf, $00, $00, $a8, $df, $00, $00, $c0, $ff, $00, $00, $c7, $ff, $1c, $00
0306d     CE FF 39 00 
03071     D5 FF 55 00 
03075     DC FF 71 00 
03079     E3 FF 8E 00 | 	byte	$ce, $ff, $39, $00, $d5, $ff, $55, $00, $dc, $ff, $71, $00, $e3, $ff, $8e, $00
0307d     EA FF AA 00 
03081     F1 FF C6 00 
03085     F8 FF E3 00 
03089     00 20 00 00 | 	byte	$ea, $ff, $aa, $00, $f1, $ff, $c6, $00, $f8, $ff, $e3, $00, $00, $20, $00, $00
0308d     00 40 00 00 
03091     00 60 00 00 
03095     00 80 00 00 
03099     00 9F 00 00 | 	byte	$00, $40, $00, $00, $00, $60, $00, $00, $00, $80, $00, $00, $00, $9f, $00, $00
0309d     00 BF 00 00 
030a1     00 DF 00 00 
030a5     00 FF 00 00 
030a9     1C FF 1C 00 | 	byte	$00, $bf, $00, $00, $00, $df, $00, $00, $00, $ff, $00, $00, $1c, $ff, $1c, $00
030ad     39 FF 39 00 
030b1     55 FF 55 00 
030b5     71 FF 71 00 
030b9     8E FF 8E 00 | 	byte	$39, $ff, $39, $00, $55, $ff, $55, $00, $71, $ff, $71, $00, $8e, $ff, $8e, $00
030bd     AA FF AA 00 
030c1     C6 FF C6 00 
030c5     E3 FF E3 00 
030c9     00 20 0A 00 | 	byte	$aa, $ff, $aa, $00, $c6, $ff, $c6, $00, $e3, $ff, $e3, $00, $00, $20, $0a, $00
030cd     00 40 14 00 
030d1     00 60 1E 00 
030d5     00 80 28 00 
030d9     00 9F 32 00 | 	byte	$00, $40, $14, $00, $00, $60, $1e, $00, $00, $80, $28, $00, $00, $9f, $32, $00
030dd     00 BF 3C 00 
030e1     00 DF 46 00 
030e5     00 FF 50 00 
030e9     1C FF 63 00 | 	byte	$00, $bf, $3c, $00, $00, $df, $46, $00, $00, $ff, $50, $00, $1c, $ff, $63, $00
030ed     39 FF 77 00 
030f1     55 FF 8A 00 
030f5     71 FF 9E 00 
030f9     8E FF B1 00 | 	byte	$39, $ff, $77, $00, $55, $ff, $8a, $00, $71, $ff, $9e, $00, $8e, $ff, $b1, $00
030fd     AA FF C5 00 
03101     C6 FF D8 00 
03105     E3 FF EC 00 
03109     00 20 14 00 | 	byte	$aa, $ff, $c5, $00, $c6, $ff, $d8, $00, $e3, $ff, $ec, $00, $00, $20, $14, $00
0310d     00 40 28 00 
03111     00 60 3C 00 
03115     00 80 50 00 
03119     00 9F 64 00 | 	byte	$00, $40, $28, $00, $00, $60, $3c, $00, $00, $80, $50, $00, $00, $9f, $64, $00
0311d     00 BF 78 00 
03121     00 DF 8C 00 
03125     00 FF A0 00 
03129     1C FF AB 00 | 	byte	$00, $bf, $78, $00, $00, $df, $8c, $00, $00, $ff, $a0, $00, $1c, $ff, $ab, $00
0312d     39 FF B5 00 
03131     55 FF C0 00 
03135     71 FF CA 00 
03139     8E FF D5 00 | 	byte	$39, $ff, $b5, $00, $55, $ff, $c0, $00, $71, $ff, $ca, $00, $8e, $ff, $d5, $00
0313d     AA FF DF 00 
03141     C6 FF EA 00 
03145     E3 FF F4 00 
03149     00 20 20 00 | 	byte	$aa, $ff, $df, $00, $c6, $ff, $ea, $00, $e3, $ff, $f4, $00, $00, $20, $20, $00
0314d     00 40 40 00 
03151     00 60 60 00 
03155     00 80 80 00 
03159     00 9F 9F 00 | 	byte	$00, $40, $40, $00, $00, $60, $60, $00, $00, $80, $80, $00, $00, $9f, $9f, $00
0315d     00 BF BF 00 
03161     00 DF DF 00 
03165     00 FF FF 00 
03169     1C FF FF 00 | 	byte	$00, $bf, $bf, $00, $00, $df, $df, $00, $00, $ff, $ff, $00, $1c, $ff, $ff, $00
0316d     39 FF FF 00 
03171     55 FF FF 00 
03175     71 FF FF 00 
03179     8E FF FF 00 | 	byte	$39, $ff, $ff, $00, $55, $ff, $ff, $00, $71, $ff, $ff, $00, $8e, $ff, $ff, $00
0317d     AA FF FF 00 
03181     C6 FF FF 00 
03185     E3 FF FF 00 
03189     00 14 20 00 | 	byte	$aa, $ff, $ff, $00, $c6, $ff, $ff, $00, $e3, $ff, $ff, $00, $00, $14, $20, $00
0318d     00 28 40 00 
03191     00 3C 60 00 
03195     00 50 80 00 
03199     00 64 9F 00 | 	byte	$00, $28, $40, $00, $00, $3c, $60, $00, $00, $50, $80, $00, $00, $64, $9f, $00
0319d     00 78 BF 00 
031a1     00 8C DF 00 
031a5     00 A0 FF 00 
031a9     1C AB FF 00 | 	byte	$00, $78, $bf, $00, $00, $8c, $df, $00, $00, $a0, $ff, $00, $1c, $ab, $ff, $00
031ad     39 B5 FF 00 
031b1     55 C0 FF 00 
031b5     71 CA FF 00 
031b9     8E D5 FF 00 | 	byte	$39, $b5, $ff, $00, $55, $c0, $ff, $00, $71, $ca, $ff, $00, $8e, $d5, $ff, $00
031bd     AA DF FF 00 
031c1     C6 EA FF 00 
031c5     E3 F4 FF    | 	byte	$aa, $df, $ff, $00, $c6, $ea, $ff, $00, $e3, $f4, $ff
031c8     00 00 00 00 
031cc     00          | vga16		   long  $00000000,$00008000,$00800000,$00808000,$80000000,$80008000,$80400000,$AAAAAA00,$55555500,$0000FF00,$00FF0000,$00FFFF00,$FF000000,$FF00FF00,$FFFF0000,$FFFFFF00
031cd     80 00 00 00 
031d1     00 80 00 00 
031d5     80 80 00 00 
031d9     00 00 80 00 | 	byte	$80, $00, $00, $00, $00, $80, $00, $00, $80, $80, $00, $00, $00, $00, $80, $00
031dd     80 00 80 00 
031e1     00 40 80 00 
031e5     AA AA AA 00 
031e9     55 55 55 00 | 	byte	$80, $00, $80, $00, $00, $40, $80, $00, $aa, $aa, $aa, $00, $55, $55, $55, $00
031ed     FF 00 00 00 
031f1     00 FF 00 00 
031f5     FF FF 00 00 
031f9     00 00 FF 00 | 	byte	$ff, $00, $00, $00, $00, $ff, $00, $00, $ff, $ff, $00, $00, $00, $00, $ff, $00
031fd     FF 00 FF 00 
03201     00 FF FF 00 
03205     FF FF FF    | 	byte	$ff, $00, $ff, $00, $00, $ff, $ff, $00, $ff, $ff, $ff
03208                 | 
03208                 | '**********************************************************************************
03208                 | '
03208                 | '        Timings and colors definitions
03208                 | '
03208                 | '**********************************************************************************
03208                 | 
03208     00 00 81 70 
0320c     00 00 81 70 
03210     00 00 81 70 
03214     00 00 81 70 | timingsxxt      long $70810000, $70810000, $70810000, $70810000, $70810000, $20880000 'streamer sets for text mode, to add to timings[0..5]
03218     00 00 81 70 
0321c     00 00 88 20 | 	byte	$00, $00, $81, $70, $00, $00, $88, $20
03220     00 00 81 70 
03224     00 00 81 70 
03228     00 00 81 70 
0322c     00 00 81 70 | timingsxg4      long $70810000, $70810000, $70810000, $70810000, $70810000, $208f0000 'streamer sets for 4bpp mode, to add to timings[0..5]
03230     00 00 81 70 
03234     00 00 8F 20 | 	byte	$00, $00, $81, $70, $00, $00, $8f, $20
03238                 | 
03238                 | '                     bf.hs, hs,  bf.vis  visible, lr bord, pixel, ud bord,  up p., vsync, down p., mode, cpl, scanlines,  clock,                  hubset                  total vis lines
03238     10 00 00 00 
0323c     50 00 00 00 
03240     14 00 00 00 
03244     00 04 00 00 | timings000      long   16,   80,    20,    1024,    112,     8,     48,      16,      16,    16,      0,  100,   480,     354693878,   %1_110000__11_0110_1100__1111_1011,   576
03248     70 00 00 00 
0324c     08 00 00 00 
03250     30 00 00 00 
03254     10 00 00 00 | 	byte	$70, $00, $00, $00, $08, $00, $00, $00, $30, $00, $00, $00, $10, $00, $00, $00
03258     10 00 00 00 
0325c     10 00 00 00 
03260     00 00 00 00 
03264     64 00 00 00 | 	byte	$10, $00, $00, $00, $10, $00, $00, $00, $00, $00, $00, $00, $64, $00, $00, $00
03268     E0 01 00 00 
0326c     F6 32 24 15 
03270     FB 6C C3 01 
03274     40 02 00 00 | 	byte	$e0, $01, $00, $00, $f6, $32, $24, $15, $fb, $6c, $c3, $01, $40, $02, $00, $00
03278     12 00 00 00 
0327c     30 00 00 00 
03280     10 00 00 00 
03284     B0 03 00 00 | timings064      long   18,   48,    16,     944,     24,     8,     24,      24,      32,    24,     64,  112,   496,     319215686,   %1_110010__11_0010_1101__1111_1011,   544
03288     18 00 00 00 
0328c     08 00 00 00 
03290     18 00 00 00 
03294     18 00 00 00 | 	byte	$18, $00, $00, $00, $08, $00, $00, $00, $18, $00, $00, $00, $18, $00, $00, $00
03298     20 00 00 00 
0329c     18 00 00 00 
032a0     40 00 00 00 
032a4     70 00 00 00 | 	byte	$20, $00, $00, $00, $18, $00, $00, $00, $40, $00, $00, $00, $70, $00, $00, $00
032a8     F0 01 00 00 
032ac     46 D8 06 13 
032b0     FB 2D CB 01 
032b4     20 02 00 00 | 	byte	$f0, $01, $00, $00, $46, $d8, $06, $13, $fb, $2d, $cb, $01, $20, $02, $00, $00
032b8     10 00 00 00 
032bc     40 00 00 00 
032c0     10 00 00 00 
032c4     30 03 00 00 | timings128      long   16,   64,    16,     816,      8,     8,     8,       32,      64,    32,    128,  100,   480,     283750000,   %1_111111__11_1000_1011__1111_1011,   496
032c8     08 00 00 00 
032cc     08 00 00 00 
032d0     08 00 00 00 
032d4     20 00 00 00 | 	byte	$08, $00, $00, $00, $08, $00, $00, $00, $08, $00, $00, $00, $20, $00, $00, $00
032d8     40 00 00 00 
032dc     20 00 00 00 
032e0     80 00 00 00 
032e4     64 00 00 00 | 	byte	$40, $00, $00, $00, $20, $00, $00, $00, $80, $00, $00, $00, $64, $00, $00, $00
032e8     E0 01 00 00 
032ec     70 AE E9 10 
032f0     FB 8B FF 01 
032f4     F0 01 00 00 | 	byte	$e0, $01, $00, $00, $70, $ae, $e9, $10, $fb, $8b, $ff, $01, $f0, $01, $00, $00
032f8     10 00 00 00 
032fc     50 00 00 00 
03300     14 00 00 00 
03304     00 04 00 00 | timings192      long   16,   80,    20,    1024,      0,     8,     0,       16,      16,    16,    192,  128,   576,     354693878,   %1_110000__11_0110_1100__1111_1011,   576
03308     00 00 00 00 
0330c     08 00 00 00 
03310     00 00 00 00 
03314     10 00 00 00 | 	byte	$00, $00, $00, $00, $08, $00, $00, $00, $00, $00, $00, $00, $10, $00, $00, $00
03318     10 00 00 00 
0331c     10 00 00 00 
03320     C0 00 00 00 
03324     80 00 00 00 | 	byte	$10, $00, $00, $00, $10, $00, $00, $00, $c0, $00, $00, $00, $80, $00, $00, $00
03328     40 02 00 00 
0332c     F6 32 24 15 
03330     FB 6C C3 01 
03334     40 02 00 00 | 	byte	$40, $02, $00, $00, $f6, $32, $24, $15, $fb, $6c, $c3, $01, $40, $02, $00, $00
03338     50 00 00 00 
0333c     A0 00 00 00 
03340     54 00 00 00 
03344     30 03 00 00 | timings256      long   80,  160,    84,     816,      8,     8,     8,        8,      12,     8,    256,  100,   480,     357959184,   %1_110000__11_0110_0100__1111_1011,   496
03348     08 00 00 00 
0334c     08 00 00 00 
03350     08 00 00 00 
03354     08 00 00 00 | 	byte	$08, $00, $00, $00, $08, $00, $00, $00, $08, $00, $00, $00, $08, $00, $00, $00
03358     0C 00 00 00 
0335c     08 00 00 00 
03360     00 01 00 00 
03364     64 00 00 00 | 	byte	$0c, $00, $00, $00, $08, $00, $00, $00, $00, $01, $00, $00, $64, $00, $00, $00
03368     E0 01 00 00 
0336c     10 06 56 15 
03370     FB 64 C3 01 
03374     F0 01 00 00 | 	byte	$e0, $01, $00, $00, $10, $06, $56, $15, $fb, $64, $c3, $01, $f0, $01, $00, $00
03378     50 00 00 00 
0337c     32 00 00 00 
03380     50 00 00 00 
03384     30 03 00 00 | timings320      long   80,   50,    80,     816,      8,     8,     8,        8,      12,     8,    320,  100,   480,     322162162,   %1_100100__10_0101_0011__1111_1011,   496
03388     08 00 00 00 
0338c     08 00 00 00 
03390     08 00 00 00 
03394     08 00 00 00 | 	byte	$08, $00, $00, $00, $08, $00, $00, $00, $08, $00, $00, $00, $08, $00, $00, $00
03398     0C 00 00 00 
0339c     08 00 00 00 
033a0     40 01 00 00 
033a4     64 00 00 00 | 	byte	$0c, $00, $00, $00, $08, $00, $00, $00, $40, $01, $00, $00, $64, $00, $00, $00
033a8     E0 01 00 00 
033ac     F2 CD 33 13 
033b0     FB 53 92 01 
033b4     F0 01 00 00 | 	byte	$e0, $01, $00, $00, $f2, $cd, $33, $13, $fb, $53, $92, $01, $f0, $01, $00, $00
033b8     18 00 00 00 
033bc     30 00 00 00 
033c0     18 00 00 00 
033c4     30 03 00 00 | timings384      long   24,   48,    24,     816,      8,     8,     8,        8,      12,     8,    384,  100,   480,     286363636,   %1_010101__01_0011_1010__1111_1011,   496
033c8     08 00 00 00 
033cc     08 00 00 00 
033d0     08 00 00 00 
033d4     08 00 00 00 | 	byte	$08, $00, $00, $00, $08, $00, $00, $00, $08, $00, $00, $00, $08, $00, $00, $00
033d8     0C 00 00 00 
033dc     08 00 00 00 
033e0     80 01 00 00 
033e4     64 00 00 00 | 	byte	$0c, $00, $00, $00, $08, $00, $00, $00, $80, $01, $00, $00, $64, $00, $00, $00
033e8     E0 01 00 00 
033ec     F4 8F 11 11 
033f0     FB 3A 55 01 
033f4     F0 01 00 00 | 	byte	$e0, $01, $00, $00, $f4, $8f, $11, $11, $fb, $3a, $55, $01, $f0, $01, $00, $00
033f8     28 00 00 00 
033fc     40 00 00 00 
03400     2A 00 00 00 
03404     70 03 00 00 | timings448      long   40,   64,    42,     880,      0,     8,     0,        8,      12,     8,    448,  110,   480,     322162162,   %1_100100__10_0101_0011__1111_1011,   496
03408     00 00 00 00 
0340c     08 00 00 00 
03410     00 00 00 00 
03414     08 00 00 00 | 	byte	$00, $00, $00, $00, $08, $00, $00, $00, $00, $00, $00, $00, $08, $00, $00, $00
03418     0C 00 00 00 
0341c     08 00 00 00 
03420     C0 01 00 00 
03424     6E 00 00 00 | 	byte	$0c, $00, $00, $00, $08, $00, $00, $00, $c0, $01, $00, $00, $6e, $00, $00, $00
03428     E0 01 00 00 
0342c     F2 CD 33 13 
03430     FB 53 92 01 
03434     F0 01 00 00 | 	byte	$e0, $01, $00, $00, $f2, $cd, $33, $13, $fb, $53, $92, $01, $f0, $01, $00, $00
03438                 | 
03438     10 00 00 00 
0343c     50 00 00 00 
03440     14 00 00 00 
03444     00 04 00 00 | timings544      long   16,   80,    20,    1024,    112,     8,     48,      16,      16,    16,    544,  100,   480,     354693878,   %1_110000__11_0110_1100__1111_1011,   576
03448     70 00 00 00 
0344c     08 00 00 00 
03450     30 00 00 00 
03454     10 00 00 00 | 	byte	$70, $00, $00, $00, $08, $00, $00, $00, $30, $00, $00, $00, $10, $00, $00, $00
03458     10 00 00 00 
0345c     10 00 00 00 
03460     20 02 00 00 
03464     64 00 00 00 | 	byte	$10, $00, $00, $00, $10, $00, $00, $00, $20, $02, $00, $00, $64, $00, $00, $00
03468     E0 01 00 00 
0346c     F6 32 24 15 
03470     FB 6C C3 01 
03474     40 02 00 00 | 	byte	$e0, $01, $00, $00, $f6, $32, $24, $15, $fb, $6c, $c3, $01, $40, $02, $00, $00
03478                 | 
03478                 | 
03478     00 75 C7 97 
0347c     27 47 F6 0A 
03480     05 79 CB 9B 
03484     2B 4B EA 0F | vgacolors       byte   0, 117, 199, 151, 39, 71, 246, 10, 5, 121, 203, 155, 43, 75, 234, 15
03488                 | 
03488     28 14 64 FD | hdmi            setq    #10
0348c     00 9B 05 FB |                 rdlong  framebuf,  ptra                 'read pointers
03490                 | 
03490     29 FE 65 FD |                 setq2   #255
03494     D3 00 00 FB |                 rdlong  $000, paletteptr                'read palette
03498     02 00 00 FF 
0349c     00 A6 05 F1 |                 add     paletteptr,##1024                ' Atari type 256 colors  
034a0     29 1E 64 FD |                 setq2   #15
034a4     D3 C0 03 FB |                 rdlong  480,paletteptr                  ' 16 color palette at 480
034a8                 |                 
034a8                 | 
034a8     00 D6 6D FC |                 wrlong  #aend,#0                         'write driver length to hub#0: DEBUG/demo
034ac     3C 00 66 FD |                 setcmod #$100                           'enable HDMI mode
034b0     07 B6 05 F6 |                 mov     ii,#7
034b4     06 B6 65 F0 |                 shl     ii,#6
034b8     D7 B6 01 F1 |                 add     ii,hbase
034bc     58 B6 61 FD |                 drvl    ii                                 '#7<<6 + hdmi_base      ' enable HDMI pins
034c0     7B 0B 80 FF 
034c4     DB 00 0B FC |                 wrpin   ##%10110_1111_0111_10_00000_0, ii  '#7<<6 + hdmi_base      ' a '123 ohm BITDAC for pins
034c8                 | 
034c8     66 66 86 FF 
034cc     1D 9A 65 FD |                 setxfrq ##$0CCCCCCC+1                   'set streamer freq to 1/10th clk
034d0                 | 
034d0                 | 
034d0                 | ''--------  frame rendering main loop  ---------------------------------------------------
034d0                 | 
034d0     28 1E 64 FD | p101            setq    #15
034d4     D2 58 01 FB |                 rdlong  m_bs,modeptr                     ' read timings
034d8                 |                 
034d8     CF 56 01 FB |                 rdlong border,borderptr
034dc                 |      
034dc     01 82 05 F1 |                 add     frames,#1
034e0     D5 B2 01 F6 |                 mov     dlptr2,dlptr
034e4                 | 
034e4     D1 84 01 FB |                 rdlong  cursorx, cursorptr               ' read cursor position
034e8     C2 86 E9 F8 |                 getbyte cursory, cursorx,#1              ' y position at byte #1
034ec     C2 80 F1 F8 |                 getbyte cursorsh,cursorx,#2              ' shape at byte #2
034f0     FF 84 05 F5 |                 and     cursorx,#255                     ' clear the cursor x varioble from y and shape
034f4                 |  '' mailbox
034f4     D4 C0 01 FB |                 rdlong  t1,commandptr                    ' A mailbox interface, read the command
034f8     04 A8 05 F1 |                 add     commandptr,#4
034fc     D4 C2 01 FB |                 rdlong  t2,commandptr                    ' read the argument
03500     04 A8 85 F1 |                 sub     commandptr,#4                    ' restore the pionter
03504     00 C1 1D F2 |                 cmp     t1,#256  wcz                     '
03508     E0 C2 31 CC |          if_lt  wrlut   t2,t1                            ' command 0..255-> set the color in LUT
0350c     01 C1 05 F6 |                 mov     t1, #257                         ' 257=idle
03510     D4 C0 61 FC |                 wrlong  t1,commandptr                    ' write 257 to hub variable so the program can test if command was done
03514                 |  '' up porch
03514                 | 
03514     A7 BA 01 F6 |                 mov     hsync0,sync_000                  '
03518     A8 BC 01 F6 |                 mov     hsync1,sync_001
0351c     7B 66 45 FB |                 callpa  i_upporch ,#blank
03520     D0 00 68 FC |                 wrlong  #0,vblankptr
03524                 | 
03524                 | '' cursor blinking
03524                 | 
03524     04 82 0D F4 |                 testb   frames,#4 wz                     ' cursor blinks at framerate/16, todo: define
03528     81 84 05 A6 |          if_z   mov     cursorx,#129                     ' to switch the cursor off, move it out of the screen
0352c                 | 
0352c                 | '' main screen
0352c                 | 
0352c     00 7C 05 F6 |                 mov linenum,#0
03530                 | 
03530     D9 B4 01 FB | p301            rdlong  dl,dlptr2
03534                 | 
03534                 |     
03534                 | 
03534     DA C0 E1 F8 |                 getbyte t1,dl,#0 
03538     00 C0 0D F2 |                 cmp     t1,#0 wz
0353c     C0 01 90 AD |     if_z        jmp     #borderline
03540                 |     
03540     00 B4 15 F4 |                  testb   dl,#0  wc     ' bit 0 set = text OR extended:TODO     
03544     28 00 90 CD |           if_c   jmp     #textline
03548                 | '         if_nc  jmp     #graphline
03548                 | '        
03548     01 7C 05 F1 | p302            add     linenum,#1
0354c     04 B2 05 F1 |                 add     dlptr2,#4
03550     BB 7C 09 F2 |                 cmp     linenum,i_totalvis  wz
03554     D8 FF 9F 5D |          if_nz  jmp     #p301                                  
03558                 |                
03558     D0 02 68 FC | p112            wrlong  #1,vblankptr 
0355c     6B 6A 45 FB |                 callpa  i_downporch ,#blank             'bottom blanks
03560                 | 
03560     A9 BA 01 F6 |                 mov     hsync0,sync_222                 'vsync on
03564     AA BC 01 F6 |                 mov     hsync1,sync_223
03568     68 68 45 FB |                 callpa  i_vsync,#blank                  'vertical sync blanks
0356c     60 FF 9F FD |                 jmp     #p101                    
03570                 |   
03570                 | '' ---------------  END of frame rendering loop -------------------------------------------  
03570                 | 
03570                 | 
03570                 | ''--%aaaa_aaaa_aaaa_aaaa_aazz_nnnn_llll_ll_01 - txt
03570                 |   '' aaaa_aaaa_aaaa_aaaa_aazz_rrrr_rrrr_cc_10 - graph
03570                 |   '' aaaa_aaaa_aaaa-aaaa_aarr_rrrr_rrrr_rr_11 - extended, next long to read 
03570                 |   
03570                 | '' Display a text line DL[31..12]=addr, nibble #1=textline, zoom: todo
03570                 | 
03570     C2 8A 01 F6 | textline        mov     cursorpos2,cursorx              ' we need another var for cursor as this code will repeat 16x for every char line
03574                 | 
03574     DA BE 51 F8 |                 getnib  fontline,dl,#2                 ' fontline is 0 to 15, a line in font def
03578     DA D4 59 F8 |                 getnib  zoom, dl,#3
0357c     03 D4 05 F5 |                 and		zoom, #3  
03580     00 78 05 F6 |                 mov ashr,#0
03584     C9 C8 01 F6 |                 mov skippattern,skipft1               
03588     01 D4 0D F2 |                 cmp zoom,#1 wz
0358c     01 78 05 A6 |           if_z	mov ashr,#1
03590     CA C8 01 A6 |           if_z  mov skippattern,skipft2      
03594     02 D4 0D F2 |                 cmp zoom,#2 wz
03598     02 78 05 A6 |           if_z	mov ashr,#2
0359c     CB C8 01 A6 |           if_z  mov skippattern,skipft4                    
035a0     03 D4 0D F2 |                 cmp zoom,#3 wz
035a4     00 78 05 A6 |           if_z	mov ashr,#0
035a8     CC C8 01 A6 |           if_z  mov skippattern,skipftblank                    
035ac                 | 
035ac     DA B8 01 F6 |                 mov     framebuf2,dl                    ' read a line start in the framebuffer from DL entry
035b0     0E B8 45 F0 |                 shr     framebuf2,#14
035b4     02 B8 65 F0 |                 shl     framebuf2,#2 
035b8     DA 7A 01 F6 |                 mov     linestart,dl                    ' linestart will be used for checking cursor y and compute line start addr in the buffer
035bc     02 7A 45 F0 |                 shr     linestart,#2                    ' scanline to char line
035c0     3F 7A 05 F5 |                 and     linestart,#63
035c4     C3 7A 09 F2 |                 cmp     linestart,cursory wz            ' if the cursor is not here
035c8     81 8A 05 56 |           if_nz mov     cursorpos2,#129                 ' move it out of the screen
035cc                 | 
035cc     48 01 B0 FD |                 call    #hsync                          ' now call hsync to gain some time between xconts
035d0                 | 
035d0                 |                        ' if fontline =0, get a border color
035d0                 |                 
035d0     B0 C0 31 F9 | p102            getword t1,m_border,#0                  
035d4     00 C0 0D F2 |                 cmp     t1, #0 wz
035d8     AB 60 C1 5C |           if_nz xcont   m_border,border                 ' display a left border if exists
035dc                 |         
035dc     C0 BE 19 F2 |                 cmp     fontline,cursorsh wcz           ' if the cursor have to be not displayed due to its shape
035e0     81 88 05 C6 |           if_c  mov     cursorpos,#129                  ' move it out of the screen
035e4     C5 88 01 36 |          if_nc  mov     cursorpos,cursorpos2
035e8     01 88 05 F1 |                 add     cursorpos,#1                    ' we will substract #1 below so compensate this here
035ec     CE C2 01 F6 |                 mov     t2,fontbuf                      ' font definition pointer
035f0     DF C2 01 F1 |                 add     t2,fontline                     ' add a current font line
035f4     B7 CA 01 F6 |                 mov cpl2,i_cpl
035f8                 |                
035f8     BC CA 41 F0 |                 shr cpl2,ashr
035fc                 | 
035fc                 | ''              rep     @p103, cpl2                     ' display cpl chars
035fc                 | ''---------------------------------------------------------------------------------------
035fc     DC CC 01 FB |  p121                   rdlong  char,framebuf2          ' read a long char                          '1
03600     E6 CE F1 F8 |                         getbyte backcolor,char,#2       ' byte #2 - background color                '2
03604     E6 D0 F9 F8 |                         getbyte charcolor,char,#3       ' byte #3 - foreground color                '3
03608     E6 CC E1 F8 |                         getbyte char,char, #0           ' word #0 - char code                       '4
0360c     04 B8 05 F1 |                         add     framebuf2,#4            ' point to the next long                    '5
03610     04 CC 65 F0 |                         shl     char,#4                 ' 1 char=16 bytes in font def               '6
03614     E1 CC 01 F1 |                         add     char,t2                 ' add this to font/line pointer             '7
03618     E6 C0 C1 FA |                         rdbyte  t1,char                 ' and get 8 pixels prom there               '8
0361c     01 88 8D F1 |                         sub     cursorpos,#1 wz         ' if there is a cursor                      '9
03620     FF C0 65 A5 |                 if_z    xor     t1, #$FF                ' reverse the colors                        '10
03624                 |                                                                                                             ' 
03624                 |                        '' ----- skipf sequence start
03624                 |                            ' 
03624     32 C8 61 FD |                         skipf  skippattern
03628                 |                        
03628     00 C0 05 F6 |                         mov    t1 ,#0   
0362c                 |                                                                   '0
0362c     E0 C4 49 F8 |                         getnib t3,t1,#1                   ' 4 pixels to t3  						'1  - +
03630     E0 C0 41 F8 |                         getnib t1,t1,#0                   ' 4 pixels to t1							'2  - +
03634     63 C0 61 FD |                         mergew t1                         ' make 01010101 from 1111					'3  - +
03638     03 C0 05 FA |                         mul t1,#3                         ' now make 11111111 out of this			'4	- +
0363c     E0 C6 49 F8 |                         getnib t4,t1,#1																'5  - -
03640     E0 C0 41 F8 |                         getnib t1,t1,#0																'6  - -
03644     63 C0 61 FD |                         mergew t1 																	'7  - -
03648     03 C0 05 FA |                         mul t1, #3																	'8  - -
0364c     61 C0 61 FD |                         mergeb  t1                        ' convert to 16-color mode                '9  + + 
03650     E0 62 C1 FC |                         xcont   m_lut1,t1                 ' and display this  						'10 + +
03654     63 C6 61 FD |                         mergew t4																	'11 - -
03658     03 C6 05 FA |                         mul t4,#3																	'12	- -	
0365c     61 C6 61 FD |                         mergeb t4																	'13 - -
03660     E3 62 C1 FC |                         xcont m_lut1, t4															'14 - -
03664     63 C4 61 FD |                         mergew t3                         ' repeat with another 4 pixels			'15 - +
03668     03 C4 05 FA |                         mul t3,#3																	'16 - +
0366c     E2 C6 49 F8 |                         getnib t4,t3,#1																'17 - -
03670     E2 C4 41 F8 |                         getnib t3,t3,#0																'18 - -
03674     63 C4 61 FD |                         mergew t3																	'19 - -
03678     03 C4 05 FA |                         mul t3,#3																	'20 - -
0367c     61 C4 61 FD |                         mergeb t3   																'21 - +
03680     E2 62 C1 FC |                         xcont   m_lut1,t3         													'22 - +
03684     63 C6 61 FD |                         mergew t4																	'23 - - 
03688     03 C6 05 FA |                         mul t4,#3																	'24 - -
0368c     61 C6 61 FD |                         mergeb t4  																	'25	- -
03690     E3 62 C1 FC |                         xcont m_lut1, t4															'26 - -
03694                 |                         
03694                 |                         ''-----------------   skipf sequence end
03694                 | 
03694     E7 C0 A1 FA |                         rdlut   t1,backcolor            ' read a background color from palette      '13
03698     BF C0 31 FC |                         wrlut   t1,lutaddr              ' and write it to LUT #0 or #32             '14
0369c     01 7E 05 F1 |                         add     lutaddr,#1                                                          '15
036a0                 | 
036a0     E8 C0 A1 FA |                         rdlut   t1,charcolor            ' the same for the foreground               '16
036a4     BF C0 31 FC |                         wrlut   t1,lutaddr                                                          '17
036a8     01 7E 85 F1 |                         sub     lutaddr,#1                                                          '18
036ac                 | 
036ac     10 62 E5 F4 |                         bitnot  m_lut1,#16                                                          '19
036b0     20 7E 65 F5 |                         xor     lutaddr,#32             ' use LUT #0-1 and 32-33                    '20
036b4                 | 
036b4     D1 CB 6D FB |                         djnz   cpl2,#p121  '' cannot have rep and skipf
036b8                 | '' rep end  -------------------------------------------------------------------------------
036b8                 | 
036b8                 | 
036b8     B0 C0 31 F9 | p103            getword  t1,m_border,#0
036bc     00 C0 0D F2 |                 cmp      t1, #0 wz
036c0     AB 60 C1 5C |                 if_nz    xcont   m_border,border            'display a right border if exists
036c4                 |                 
036c4     80 FE 9F FD |                 jmp #p302
036c8                 |                 
036c8                 | '' -------------------------------------- END of text line ---------------------------------              
036c8                 |                 
036c8                 | '' %aaaa_aaaa_aaaa_aaaa_aa00_zzcc_rrrr_rrrr - display a graphics line
036c8                 | 
036c8     B0 C0 31 F9 | graphline       getword t1,m_border,#0                  
036cc     00 C0 0D F2 |                 cmp     t1, #0 wz
036d0     AB 60 C1 5C |                 if_nz xcont   m_border,border                 ' display a left border if exists 
036d4                 | 
036d4                 | 
036d4                 | 
036d4     DA B8 01 F6 |                 mov     framebuf2,dl                    ' read a line start in the framebuffer from DL entry
036d8     0E B8 65 F0 |                 shl     framebuf2,#14
036dc     02 B8 45 F0 |                 shr     framebuf2,#2       
036e0                 |                 ''      todo:zzcc 
036e0                 |                                             
036e0     B7 06 D8 FC |                         rep     @p201,i_cpl                     ' display cpl pixels
036e4                 | '         
036e4                 | ''---------------------------------------------------------------------------------------
036e4     DC C0 01 FB |                         rdlong  t1,framebuf2          ' read a long char                          '1
036e8     04 B8 05 F1 |                         add     framebuf2,#4          ' point to the next long                    '5
036ec     E0 62 C1 FC |                         xcont   m_lut1,t1             ' and display this                          '12
036f0                 | 
036f0                 | 
036f0                 | '' rep end ----------------------------------------------------------------------------
036f0                 |                         
036f0     B0 C0 31 F9 | p201            getword  t1,m_border,#0
036f4     00 C0 0D F2 |                 cmp      t1, #0 wz
036f8     C8 60 C1 5C |                 if_nz    xcont   m_border,border2            'display a right border if exists
036fc                 |                 
036fc     48 FE 9F FD |                 jmp #p302
03700                 |                 
03700                 | 
03700                 | '--------------------------------------------------------------------------
03700     14 00 B0 FD | borderline      call    #hsync                      ' make a border
03704                 | 			'	mov     border,dl                   'set border color according to dl entry
03704     AB 5E C1 FC |                 xcont   m_vi,border 
03708     3C FE 9F FD |                 jmp     #p302 
0370c                 | 
0370c                 | 
0370c     08 00 B0 FD | blank           call    #hsync                          'blank lines
03710     DD 5E C1 FC |                 xcont   m_vi,hsync0
03714     FD ED 6F 0B |         _ret_   djnz    pa,#blank
03718                 | 
03718     DD 58 C1 FC | hsync           xcont   m_bs,hsync0                     'horizontal sync
0371c     DE 5A B1 FC |                 xzero   m_sn,hsync1
03720     DD 5C C1 0C |         _ret_   xcont   m_bv,hsync0
03724                 | 
03724                 | '' consts and vars
03724                 | 
03724     52 4D 35 D5 | sync_000        long    %1101010100_1101010100_1101010100_10    '
03728     AE 42 35 D5 | sync_001        long    %1101010100_1101010100_0010101011_10    '        hsync
0372c     52 45 15 55 | sync_222        long    %0101010100_0101010100_0101010100_10    'vsync
03730     AE 4A 15 55 | sync_223        long    %0101010100_0101010100_1010101011_10    'vsync + hsync
03734                 | 
03734     00 2C 1A 00 | border          long    %00000000_00011010_00101100_00000000
03738                 | 
03738                 | '------ these longs will be set by setmode function
03738                 | 
03738     00 00 00 00 | m_bs            long    0        'blanks before sync
0373c     00 00 00 00 | m_sn            long    0        'sync
03740     00 00 00 00 | m_bv            long    0        'blanks before visible
03744     00 00 00 00 | m_vi            long    0        'visible pixels #
03748     00 00 00 00 | m_border        long    0        'left/right borders
0374c     00 00 00 00 | m_lut1          long    0        'characters
03750     00 00 00 00 | i_vborder       long    0        'up/down borders
03754     00 00 00 00 | i_upporch       long    0        'up porch lines
03758     00 00 00 00 | i_vsync         long    0        'vsync lines
0375c     00 00 00 00 | i_downporch     long    0        'down porch lines
03760     00 00 00 00 | i_modenum       long    0        'mode #
03764     00 00 00 00 | i_cpl           long    0        'chars per line
03768     00 00 00 00 | i_lines         long    0        'scanlines #
0376c     00 00 00 00 | i_clock         long    0
03770     00 00 00 00 | i_hubset        long    0
03774     00 00 00 00 | i_totalvis      long    0 
03778                 | 
03778                 | 
03778     04 00 00 00 | ashr            long    4
0377c     00 00 00 00 | linestart       long    0
03780     00 00 00 00 | linenum         long    0
03784     00 01 00 00 | lutaddr         long    256
03788                 | 
03788     0E 00 00 00 | cursorsh        long    14
0378c     00 00 00 00 | frames          long    0
03790     00 00 00 00 | cursorx         long    0
03794     00 00 00 00 | cursory         long    0
03798     00 00 00 00 | cursorpos       long    0
0379c     00 00 00 00 | cursorpos2      long    0
037a0     00 00 00 00 | fontstart       long    0
037a4     00 00 00 FF | aredtest long $FF000000
037a8     00 00 00 00 | border2 long 0
037ac     FF F9 FF 07 | skipft1 long     %111111111111111100111111111
037b0     E1 79 9E 07 | skipft2 long     %111100111100111100111100001
037b4     01 00 00 00 | skipft4 long     %000000000000000000000000001
037b8     FE F9 FF 07 | skipftblank long %111111111111111100111111110
037bc                 | 
037bc                 | framebuf        res     1
037bc                 | fontbuf         res     1
037bc                 | borderptr       res     1
037bc                 | vblankptr       res     1
037bc                 | cursorptr       res     1
037bc                 | modeptr         res     1
037bc                 | paletteptr      res     1
037bc                 | commandptr      res     1
037bc                 | dlptr			res     1
037bc                 | fontnumptr      res     1
037bc                 | hbase           res     1
037bc                 | borderptr2      res     1
037bc                 | dlptr2 res 1
037bc                 | dl              res 1
037bc                 | ii              res     1
037bc                 | framebuf2       res     1
037bc                 | hsync0          res     1
037bc                 | hsync1          res     1
037bc                 | fontline        res     1
037bc                 | t1              res     1
037bc                 | t2              res     1
037bc                 | t3 res 1
037bc                 | t4 res 1
037bc                 | skippattern res 1
037bc                 | cpl2 res 1
037bc                 | char            res     1
037bc                 | backcolor       res     1
037bc                 | charcolor       res     1
037bc                 | repnum res 1
037bc                 | zoom res 1
037bc     00 00 00 00 | aend             long 0
037c0                 | objmem
037c0     00 00 00 00 
      ...             
0388c     00 00 00 00 
03890     00 00 00 00 | 	long	0[53]
03894                 | stackspace
03894     00 00 00 00 | 	long	0[1]
03898 07d             | 	org	COG_BSS_START
03898 07d             | _var01
03898 07d             | 	res	1
03898 07e             | _var02
03898 07e             | 	res	1
03898 07f             | _var03
03898 07f             | 	res	1
03898 080             | _var04
03898 080             | 	res	1
03898 081             | _var05
03898 081             | 	res	1
03898 082             | _var06
03898 082             | 	res	1
03898 083             | _var07
03898 083             | 	res	1
03898 084             | _var08
03898 084             | 	res	1
03898 085             | _var09
03898 085             | 	res	1
03898 086             | _var10
03898 086             | 	res	1
03898 087             | _var11
03898 087             | 	res	1
03898 088             | _var12
03898 088             | 	res	1
03898 089             | _var13
03898 089             | 	res	1
03898 08a             | _var14
03898 08a             | 	res	1
03898 08b             | arg01
03898 08b             | 	res	1
03898 08c             | arg02
03898 08c             | 	res	1
03898 08d             | arg03
03898 08d             | 	res	1
03898 08e             | arg04
03898 08e             | 	res	1
03898 08f             | arg05
03898 08f             | 	res	1
03898 090             | arg06
03898 090             | 	res	1
03898 091             | arg07
03898 091             | 	res	1
03898 092             | arg08
03898 092             | 	res	1
03898 093             | arg09
03898 093             | 	res	1
03898 094             | arg10
03898 094             | 	res	1
03898 095             | arg11
03898 095             | 	res	1
03898 096             | arg12
03898 096             | 	res	1
03898 097             | arg13
03898 097             | 	res	1
03898 098             | arg14
03898 098             | 	res	1
03898 099             | arg15
03898 099             | 	res	1
03898 09a             | arg16
03898 09a             | 	res	1
03898 09b             | arg17
03898 09b             | 	res	1
03898 09c             | arg18
03898 09c             | 	res	1
03898 09d             | local01
03898 09d             | 	res	1
03898 09e             | local02
03898 09e             | 	res	1
03898 09f             | local03
03898 09f             | 	res	1
03898 0a0             | local04
03898 0a0             | 	res	1
03898 0a1             | local05
03898 0a1             | 	res	1
03898 0a2             | local06
03898 0a2             | 	res	1
03898 0a3             | local07
03898 0a3             | 	res	1
03898 0a4             | local08
03898 0a4             | 	res	1
03898 0a5             | local09
03898 0a5             | 	res	1
03898 0a6             | local10
03898 0a6             | 	res	1
03898 0a7             | local11
03898 0a7             | 	res	1
03898 0a8             | local12
03898 0a8             | 	res	1
03898 0a9             | local13
03898 0a9             | 	res	1
03898 0aa             | local14
03898 0aa             | 	res	1
03898 0ab             | local15
03898 0ab             | 	res	1
03898 0ac             | muldiva_
03898 0ac             | 	res	1
03898 0ad             | muldivb_
03898 0ad             | 	res	1
03898 0ae             | 	fit	480