
00000                 | 
00000                 | #line 1 "D:/programowanie/20210307-ultibo-propeller/ultibo-propeller/hng012/hngdemo.p2asm"
00000                 | ' 
00000                 | ' _clkfreq        = 200000000      'start safe, hubset will do the rest
00000                 | con
00000                 | 	_clkfreq = 200000000
00000                 | ' hdmi_base       = 48             'must be a multiple of 8
00000                 | 	hdmi_base = 48
00000                 | dat
00000 000 00 00 00 00 | 	nop
00004 001 01 EC 63 FD | 	cogid	pa
00008 002 02 00 00 FF 
0000c 003 00 EC E7 FC | 	coginit	pa,##$400
00010                 | 	orgh	$10
00010     00 00 00 00 | 	long	0	'reserved
00014     00 00 00 00 | 	long	0 ' clock frequency: will default to 200000000
00018     00 00 00 00 | 	long	0 ' clock mode: will default to $10009fb
0001c     00 00 00 00 
      ...             
003f8     00 00 00 00 
003fc     00 00 00 00 | 	orgh	$400
00400 000             | 	org	0
00400 000             | entry
00400 000 00 F0 0F F2 | 	cmp	ptra, #0 wz
00404 001 94 00 90 5D |  if_ne	jmp	#spininit
00408 002 7C F0 03 F6 | 	mov	ptra, ptr_stackspace_
0040c 003 14 EC 0F FB | 	rdlong	pa, #20 wz
00410 004 6C 00 90 5D |  if_ne	jmp	#skip_clock_set_
00414 005 00 00 64 FD | 	hubset	#0
00418 006 04 80 80 FF 
0041c 007 00 F0 67 FD | 	hubset	##16779768
00420 008 86 01 80 FF 
00424 009 1F 80 66 FD | 	waitx	##200000
00428 00a 04 80 00 FF 
0042c 00b FB ED 07 F6 | 	mov	pa, ##16779771
00430 00c 00 EC 63 FD | 	hubset	pa
00434 00d 18 EC 67 FC | 	wrlong	pa, #24
00438 00e E1 F5 85 FF 
0043c 00f 14 00 6C FC | 	wrlong	##200000000, #20
00440 010 3C 00 90 FD | 	jmp	#skip_clock_set_
00444 011 00 00 00 00 
      ...             
00478 01e 00 00 00 00 
0047c 01f 00 00 00 00 | 	orgf	32
00480 020             | skip_clock_set_
00480 020 04 EA 60 FD | 	locknew	__lockreg
00484 021 79 EA 60 FC | 	wrlong	__lockreg, ptr___lockreg_
00488 022 F8 05 A0 FD | 	call	#_demo
0048c 023             | cogexit
0048c 023 38 01 80 FF 
00490 024 1F 00 66 FD | 	waitx	##160000
00494 025 01 0C 61 FD | 	cogid	arg01
00498 026 03 0C 61 FD | 	cogstop	arg01
0049c 027             | spininit
0049c 027 00 F1 04 FB | 	rdlong	objptr, ptra
004a0 028 04 F0 07 F1 | 	add	ptra, #4
004a4 029 00 FB 04 FB | 	rdlong	result1, ptra
004a8 02a 04 F0 07 F1 | 	add	ptra, #4
004ac 02b 00 0D 05 FB | 	rdlong	arg01, ptra
004b0 02c 04 F0 07 F1 | 	add	ptra, #4
004b4 02d 00 0F 05 FB | 	rdlong	arg02, ptra
004b8 02e 04 F0 07 F1 | 	add	ptra, #4
004bc 02f 00 11 05 FB | 	rdlong	arg03, ptra
004c0 030 04 F0 07 F1 | 	add	ptra, #4
004c4 031 00 13 05 FB | 	rdlong	arg04, ptra
004c8 032 10 F0 87 F1 | 	sub	ptra, #16
004cc 033 2D FA 60 FD | 	call	result1
004d0 034 B8 FF 9F FD | 	jmp	#cogexit
004d4 035             | FCACHE_LOAD_
004d4 035 2B 86 60 FD |     pop	fcache_tmpb_
004d8 036 F6 87 00 F1 |     add	fcache_tmpb_, pa
004dc 037 2A 86 60 FD |     push	fcache_tmpb_
004e0 038 F6 87 80 F1 |     sub	fcache_tmpb_, pa
004e4 039 02 EC 47 F0 |     shr	pa, #2
004e8 03a F6 85 00 F6 |     mov	fcache_tmpa_, pa
004ec 03b 00 85 04 F1 |     add	fcache_tmpa_, #$100
004f0 03c 42 82 30 FC |     wrlut ret_instr_, fcache_tmpa_
004f4 03d 01 EC 87 F1 |     sub	pa, #1
004f8 03e 29 EC 63 FD |     setq2	pa
004fc 03f 43 00 02 FB |     rdlong	$100-0, fcache_tmpb_
00500 040 00 03 80 FD |     jmp	#\$300 ' jmp to cache
00504 041             | ret_instr_
00504 041 2D 00 64 FD |     ret
00508 042             | fcache_tmpa_
00508 042 00 00 00 00 |     long 0
0050c 043             | fcache_tmpb_
0050c 043 00 00 00 00 |     long 0
00510 044             | COUNT_
00510 044 00 00 00 00 |     long 0
00514 045             | RETADDR_
00514 045 00 00 00 00 |     long 0
00518 046             | fp
00518 046 00 00 00 00 |     long 0
0051c 047             | gosub_
0051c 047 00 88 04 F6 |     mov  COUNT_, #0
00520 048 86 EC 03 F6 |     mov  pa, arg01
00524 049 2B 8A 60 FD |     pop  RETADDR_
00528 04a 1C 00 90 FD |     jmp  #pushregs_done_
0052c 04b             | pushregs_
0052c 04b 2B EC 63 FD |     pop  pa
00530 04c 2B 8A 60 FD |     pop  RETADDR_
00534 04d 04 88 94 FB |     tjz  COUNT_, #pushregs_done_
00538 04e 01 88 84 F1 |     sub  COUNT_, #1
0053c 04f 28 88 60 FD |     setq COUNT_
00540 050 00 31 65 FC |     wrlong local01, ptra
00544 051 01 88 04 F1 |     add  COUNT_, #1
00548 052             | pushregs_done_
00548 052 02 88 64 F0 |     shl  COUNT_, #2
0054c 053 44 F0 03 F1 |     add  ptra, COUNT_
00550 054 02 88 44 F0 |     shr  COUNT_, #2
00554 055 28 04 64 FD |     setq #2 ' push 3 registers starting at COUNT_
00558 056 00 89 64 FC |     wrlong COUNT_, ptra
0055c 057 0C F0 07 F1 |     add    ptra, #12
00560 058 F8 8D 00 F6 |     mov    fp, ptra
00564 059 2C EC 63 FD |     jmp  pa
00568 05a             |  popregs_
00568 05a 2B EC 63 FD |     pop    pa
0056c 05b 0C F0 87 F1 |     sub    ptra, #12
00570 05c 28 04 64 FD |     setq   #2
00574 05d 00 89 04 FB |     rdlong COUNT_, ptra
00578 05e 06 88 94 FB |     tjz    COUNT_, #popregs__ret
0057c 05f 02 88 64 F0 |     shl    COUNT_, #2
00580 060 44 F0 83 F1 |     sub    ptra, COUNT_
00584 061 02 88 44 F0 |     shr    COUNT_, #2
00588 062 01 88 84 F1 |     sub    COUNT_, #1
0058c 063 28 88 60 FD |     setq   COUNT_
00590 064 00 31 05 FB |     rdlong local01, ptra
00594 065             | popregs__ret
00594 065 2A 8A 60 FD |     push   RETADDR_
00598 066 2C EC 63 FD |     jmp    pa
0059c 067             | 
0059c 067             | unsdivide_
0059c 067 28 00 64 FD |        setq    #0
005a0 068 B0 5E 11 FD |        qdiv    muldiva_, muldivb_
005a4 069 18 60 61 FD |        getqx   muldivb_
005a8 06a 19 5E 61 0D |  _ret_ getqy   muldiva_
005ac 06b             | 
005ac 06b             | divide_
005ac 06b AF 5E 51 F6 |        abs     muldiva_,muldiva_     wc       'abs(x)
005b0 06c 03 EE 84 F5 |        muxc    itmp2_,#%11                    'store sign of x
005b4 06d B0 60 59 F6 |        abs     muldivb_,muldivb_     wcz      'abs(y)
005b8 06e 02 EE 64 C5 |  if_c  xor     itmp2_,#%10                    'store sign of y
005bc 06f 2D 00 64 AD |  if_z  ret
005c0 070 D8 FF BF FD |        call    #unsdivide_
005c4 071 01 EE D4 F7 |        test    itmp2_,#1        wc       'restore sign, remainder
005c8 072 AF 5E 81 F6 |        negc    muldiva_,muldiva_ 
005cc 073 02 EE D4 F7 |        test    itmp2_,#%10      wc       'restore sign, division result
005d0 074 B0 60 81 06 |  _ret_ negc    muldivb_,muldivb_
005d4 075             | 
005d4 075             | __lockreg
005d4 075 00 00 00 00 | 	long	0
005d8 076             | itmp1_
005d8 076 00 00 00 00 | 	long	0
005dc 077             | itmp2_
005dc 077 00 00 00 00 | 	long	0
005e0 078             | objptr
005e0 078 78 5F 00 00 | 	long	@objmem
005e4 079             | ptr___lockreg_
005e4 079 D4 05 00 00 | 	long	@__lockreg
005e8 07a             | ptr__dat__
005e8 07a EC 3E 00 00 | 	long	@_dat_
005ec 07b             | ptr__hng012_dat__
005ec 07b F0 3E 00 00 | 	long	@_hng012_dat_
005f0 07c             | ptr_stackspace_
005f0 07c 60 61 00 00 | 	long	@stackspace
005f4 07d             | result1
005f4 07d 00 00 00 00 | 	long	0
005f8 07e             | COG_BSS_START
005f8 07e             | 	fit	480
005f8                 | 	orgh
005f8                 | hubentry
005f8                 | 
005f8                 | ' 
005f8                 | ' pub demo() | random,  j, k, s1,s2,s3,s4,s5,s6,s7,s8
005f8                 | _demo
005f8     0F 88 04 F6 | 	mov	COUNT_, #15
005fc     4B 00 A0 FD | 	call	#pushregs_
00600                 | ' 
00600                 | ' s1:=string("A HDMI Nostalgic text driver demo")
00600     19 00 00 FF 
00604     C0 31 05 F6 | 	mov	local01, ##@LR__0155
00608                 | ' s2:=string("It uses 8x16 font")
00608                 | ' s3:=string("Every character has its own foreground and background color")
00608     19 00 00 FF 
0060c     F4 33 05 F6 | 	mov	local02, ##@LR__0157
00610                 | ' s4:=string("Every line has its own border color")
00610     1A 00 00 FF 
00614     30 34 05 F6 | 	mov	local03, ##@LR__0158
00618                 | ' s5:=string("The hub RAM is used for the color buffer")
00618     1A 00 00 FF 
0061c     54 36 05 F6 | 	mov	local04, ##@LR__0159
00620                 | ' s6:=string("You can set colors for all the screen using one function call")
00620     1A 00 00 FF 
00624     7D 38 05 F6 | 	mov	local05, ##@LR__0160
00628                 | ' s7:=string("You can set border color for all the screen using one function call, too")
00628     1A 00 00 FF 
0062c     BB 3A 05 F6 | 	mov	local06, ##@LR__0161
00630                 | ' s8:=string("1234567890")
00630                 | ' 
00630                 | ' 
00630                 | ' 
00630                 | ' v.start(448,hdmi_base)
00630     C0 0D 05 F6 | 	mov	arg01, #448
00634     30 0E 05 F6 | 	mov	arg02, #48
00638     88 F0 04 F1 | 	add	objptr, #136
0063c     58 2A B0 FD | 	call	#_hng012_start
00640     88 F0 84 F1 | 	sub	objptr, #136
00644                 | ' 
00644                 | ' j:=0
00644                 | ' 
00644                 | ' repeat
00644                 | LR__0001
00644                 | ' 
00644                 | '   v.cls(v.c_green,v.c_black)
00644     C7 0C 05 F6 | 	mov	arg01, #199
00648     00 0E 05 F6 | 	mov	arg02, #0
0064c     88 F0 04 F1 | 	add	objptr, #136
00650     C0 1C B0 FD | 	call	#_hng012_cls
00654                 | '   v.waitvbl(60)
00654     3C 0C 05 F6 | 	mov	arg01, #60
00658     54 1A B0 FD | 	call	#_hng012_waitvbl
0065c                 | ' 
0065c                 | '   v.writeln(string("P2 Retromachine DOS v. 0.00"))
0065c     1A 00 00 FF 
00660     0F 0D 05 F6 | 	mov	arg01, ##@LR__0163
00664     10 23 B0 FD | 	call	#_hng012_writeln
00668                 | '   v.waitvbl(120)
00668     78 0C 05 F6 | 	mov	arg01, #120
0066c     40 1A B0 FD | 	call	#_hng012_waitvbl
00670                 | '   v.crlf()
00670     FC 24 B0 FD | 	call	#_hng012_crlf
00674                 | '   v.writeln(string("This is a demonstration of HDMI 'nostalgic' text driver"))
00674     1A 00 00 FF 
00678     2B 0D 05 F6 | 	mov	arg01, ##@LR__0164
0067c     F8 22 B0 FD | 	call	#_hng012_writeln
00680                 | '   v.waitvbl(120)
00680     78 0C 05 F6 | 	mov	arg01, #120
00684     28 1A B0 FD | 	call	#_hng012_waitvbl
00688                 | '   v.crlf()
00688     E4 24 B0 FD | 	call	#_hng012_crlf
0068c                 | '   v.writeln(string("The driver is based on PAL/NTSC non-interlaced timings..."))
0068c     1A 00 00 FF 
00690     63 0D 05 F6 | 	mov	arg01, ##@LR__0165
00694     E0 22 B0 FD | 	call	#_hng012_writeln
00698                 | '   v.waitvbl(60)
00698     3C 0C 05 F6 | 	mov	arg01, #60
0069c     10 1A B0 FD | 	call	#_hng012_waitvbl
006a0                 | '   v.writeln(string("...generating 524 lines at 60 Hz or 624 lines at 50 Hz"))
006a0     1A 00 00 FF 
006a4     9D 0D 05 F6 | 	mov	arg01, ##@LR__0166
006a8     CC 22 B0 FD | 	call	#_hng012_writeln
006ac                 | '   v.writeln(string("The P2 clock is based on PAL/NTSC color carrier frequency multiplied by a constant"))
006ac     1A 00 00 FF 
006b0     D4 0D 05 F6 | 	mov	arg01, ##@LR__0167
006b4     C0 22 B0 FD | 	call	#_hng012_writeln
006b8                 | '   v.waitvbl(120)
006b8     78 0C 05 F6 | 	mov	arg01, #120
006bc     F0 19 B0 FD | 	call	#_hng012_waitvbl
006c0                 | '   v.crlf()
006c0     AC 24 B0 FD | 	call	#_hng012_crlf
006c4                 | '   v.write(string("The driver fits in "))
006c4     1B 00 00 FF 
006c8     27 0C 05 F6 | 	mov	arg01, ##@LR__0168
006cc     BC 20 B0 FD | 	call	#_hng012_write
006d0                 | '   v.write(v.inttostr(long[0]))
006d0     00 0C 05 FB | 	rdlong	arg01, #0
006d4     00 25 B0 FD | 	call	#_hng012_inttostr
006d8     7D 0C 01 F6 | 	mov	arg01, result1
006dc     AC 20 B0 FD | 	call	#_hng012_write
006e0                 | '   v.writeln (string(" longs."))
006e0     1B 00 00 FF 
006e4     3B 0C 05 F6 | 	mov	arg01, ##@LR__0169
006e8     8C 22 B0 FD | 	call	#_hng012_writeln
006ec                 | '   v.waitvbl(120)
006ec     78 0C 05 F6 | 	mov	arg01, #120
006f0     BC 19 B0 FD | 	call	#_hng012_waitvbl
006f4                 | '   v.writeln(string("We have 8 modes available:"))
006f4     1B 00 00 FF 
006f8     43 0C 05 F6 | 	mov	arg01, ##@LR__0170
006fc     78 22 B0 FD | 	call	#_hng012_writeln
00700                 | '   v.waitvbl(60)
00700     3C 0C 05 F6 | 	mov	arg01, #60
00704     A8 19 B0 FD | 	call	#_hng012_waitvbl
00708                 | '   v.writeln(string("- mode 0:   PAL  50 Hz signaling 1140x624, active  800x480, 100x30 text, wide border,   354_693_878 Hz"))
00708     1B 00 00 FF 
0070c     5E 0C 05 F6 | 	mov	arg01, ##@LR__0171
00710     64 22 B0 FD | 	call	#_hng012_writeln
00714                 | '   v.writeln(string("- mode 64:  PAL  50 Hz signaling 1026x624, active  880x496, 110x31 text, medium border, 319_215_686 Hz"))
00714     1B 00 00 FF 
00718     C5 0C 05 F6 | 	mov	arg01, ##@LR__0172
0071c     58 22 B0 FD | 	call	#_hng012_writeln
00720                 | '   v.writeln(string("- mode 128: PAL  50 Hz signaling  912x624, active  800x480, 100x30 text, narrow border, 283_750_000 Hz"))
00720     1B 00 00 FF 
00724     2C 0D 05 F6 | 	mov	arg01, ##@LR__0173
00728     4C 22 B0 FD | 	call	#_hng012_writeln
0072c                 | '   v.writeln(string("- mode 192: PAL  50 Hz signaling 1140x624, active 1024x576, 128x36 text, borderless,    354_693_878 Hz"))
0072c     1B 00 00 FF 
00730     93 0D 05 F6 | 	mov	arg01, ##@LR__0174
00734     40 22 B0 FD | 	call	#_hng012_writeln
00738                 | '   v.writeln(string("- mode 256: NTSC 60 Hz signaling 1140x624, active  800x480, 100x30 text, narrow border, 357_959_184 Hz"))
00738     1B 00 00 FF 
0073c     FA 0D 05 F6 | 	mov	arg01, ##@LR__0175
00740     34 22 B0 FD | 	call	#_hng012_writeln
00744                 | '   v.writeln(string("- mode 320: NTSC 60 Hz signaling 1026x624, active  800x480, 100x30 text, narrow border, 322_162_162 Hz"))
00744     1C 00 00 FF 
00748     61 0C 05 F6 | 	mov	arg01, ##@LR__0176
0074c     28 22 B0 FD | 	call	#_hng012_writeln
00750                 | '   v.writeln(string("- mode 384: NTSC 60 Hz signaling  912x624, active  800x480, 100x30 text, narrow border, 286_363_636 Hz"))
00750     1C 00 00 FF 
00754     C8 0C 05 F6 | 	mov	arg01, ##@LR__0177
00758     1C 22 B0 FD | 	call	#_hng012_writeln
0075c                 | '   v.writeln(string("- mode 448: NTSC 60 Hz signaling 1026x624, active  880x496, 110x31 text, borderless,    322_162_162 Hz"))
0075c     1C 00 00 FF 
00760     2F 0D 05 F6 | 	mov	arg01, ##@LR__0178
00764     10 22 B0 FD | 	call	#_hng012_writeln
00768                 | '   v.waitvbl(60)
00768     3C 0C 05 F6 | 	mov	arg01, #60
0076c     40 19 B0 FD | 	call	#_hng012_waitvbl
00770                 | '   v.crlf()
00770     FC 23 B0 FD | 	call	#_hng012_crlf
00774                 | '   v.writeln(string("We are in the mode 448 now"))
00774     1C 00 00 FF 
00778     96 0D 05 F6 | 	mov	arg01, ##@LR__0179
0077c     F8 21 B0 FD | 	call	#_hng012_writeln
00780                 | '   v.writeln(string("It is the safest mode to start, the P2 is clocked at 322 MHz and the refresh rate is 60 Hz"))
00780     1C 00 00 FF 
00784     B1 0D 05 F6 | 	mov	arg01, ##@LR__0180
00788     EC 21 B0 FD | 	call	#_hng012_writeln
0078c                 | '   v.waitvbl(60)
0078c     3C 0C 05 F6 | 	mov	arg01, #60
00790     1C 19 B0 FD | 	call	#_hng012_waitvbl
00794                 | '   v.writeln(string(" "))
00794     1D 00 00 FF 
00798     0C 0C 05 F6 | 	mov	arg01, ##@LR__0181
0079c     D8 21 B0 FD | 	call	#_hng012_writeln
007a0                 | '   v.writeln(string("This is MS-DOS like 8x16 font style..."))
007a0     1D 00 00 FF 
007a4     0E 0C 05 F6 | 	mov	arg01, ##@LR__0182
007a8     CC 21 B0 FD | 	call	#_hng012_writeln
007ac                 | '   v.writeln(string(" "))
007ac     1D 00 00 FF 
007b0     35 0C 05 F6 | 	mov	arg01, ##@LR__0183
007b4     C0 21 B0 FD | 	call	#_hng012_writeln
007b8                 | '   v.write(string("C:\>"))
007b8     1D 00 00 FF 
007bc     37 0C 05 F6 | 	mov	arg01, ##@LR__0184
007c0     C8 1F B0 FD | 	call	#_hng012_write
007c4                 | '   v.waitvbl(600)
007c4     01 00 00 FF 
007c8     58 0C 05 F6 | 	mov	arg01, ##600
007cc     E0 18 B0 FD | 	call	#_hng012_waitvbl
007d0                 | '   v.writeln(string("showfont "))
007d0     1D 00 00 FF 
007d4     3C 0C 05 F6 | 	mov	arg01, ##@LR__0185
007d8     9C 21 B0 FD | 	call	#_hng012_writeln
007dc                 | '   v.waitvbl(60)
007dc     3C 0C 05 F6 | 	mov	arg01, #60
007e0     CC 18 B0 FD | 	call	#_hng012_waitvbl
007e4                 | '   v.writeln(string(" "))
007e4     1D 00 00 FF 
007e8     46 0C 05 F6 | 	mov	arg01, ##@LR__0186
007ec     88 21 B0 FD | 	call	#_hng012_writeln
007f0                 | ' 
007f0                 | ' 
007f0                 | '   v.crlf()
007f0     7C 23 B0 FD | 	call	#_hng012_crlf
007f4     88 F0 84 F1 | 	sub	objptr, #136
007f8                 | '   repeat j from 0 to 15
007f8     00 3C 05 F6 | 	mov	local07, #0
007fc                 | LR__0002
007fc                 | '     v.write(string("        "))
007fc     1D 00 00 FF 
00800     48 0C 05 F6 | 	mov	arg01, ##@LR__0187
00804     88 F0 04 F1 | 	add	objptr, #136
00808     80 1F B0 FD | 	call	#_hng012_write
0080c                 | '     repeat i from 0 to 15
0080c     04 F0 84 F1 | 	sub	objptr, #4
00810     78 00 68 FC | 	wrlong	#0, objptr
00814     84 F0 84 F1 | 	sub	objptr, #132
00818                 | LR__0003
00818                 | '       teststring[0]:=16*j+i
00818     9E 3E 01 F6 | 	mov	local08, local07
0081c     04 3E 65 F0 | 	shl	local08, #4
00820     84 F0 04 F1 | 	add	objptr, #132
00824     78 40 01 FB | 	rdlong	local09, objptr
00828     84 F0 84 F1 | 	sub	objptr, #132
0082c     A0 3E 01 F1 | 	add	local08, local09
00830     78 3E 41 FC | 	wrbyte	local08, objptr
00834                 | '       if (16*j+i)==0
00834     9E 3E 01 F6 | 	mov	local08, local07
00838     04 3E 65 F0 | 	shl	local08, #4
0083c     84 F0 04 F1 | 	add	objptr, #132
00840     78 40 01 FB | 	rdlong	local09, objptr
00844     84 F0 84 F1 | 	sub	objptr, #132
00848     A0 3E 09 F1 | 	add	local08, local09 wz
0084c                 | '         teststring[0]:=32
0084c     78 40 48 AC |  if_e	wrbyte	#32, objptr
00850                 | '       teststring[1]:=0
00850     01 F0 04 F1 | 	add	objptr, #1
00854     78 00 48 FC | 	wrbyte	#0, objptr
00858                 | '       v.write(v.inttohex(16*j+i,2))
00858     9E 0C 01 F6 | 	mov	arg01, local07
0085c     04 0C 65 F0 | 	shl	arg01, #4
00860     83 F0 04 F1 | 	add	objptr, #131
00864     78 40 01 FB | 	rdlong	local09, objptr
00868     A0 0C 01 F1 | 	add	arg01, local09
0086c     02 0E 05 F6 | 	mov	arg02, #2
00870     04 F0 04 F1 | 	add	objptr, #4
00874     70 24 B0 FD | 	call	#_hng012_inttohex
00878     7D 0C 01 F6 | 	mov	arg01, result1
0087c     0C 1F B0 FD | 	call	#_hng012_write
00880                 | '       v.write(string(" "))
00880     1D 00 00 FF 
00884     51 0C 05 F6 | 	mov	arg01, ##@LR__0188
00888     00 1F B0 FD | 	call	#_hng012_write
0088c     88 F0 84 F1 | 	sub	objptr, #136
00890                 | '       v.write(@teststring)
00890     78 0C 01 F6 | 	mov	arg01, objptr
00894     88 F0 04 F1 | 	add	objptr, #136
00898     F0 1E B0 FD | 	call	#_hng012_write
0089c                 | '       v.write(string(","))
0089c     1D 00 00 FF 
008a0     53 0C 05 F6 | 	mov	arg01, ##@LR__0189
008a4     E4 1E B0 FD | 	call	#_hng012_write
008a8     04 F0 84 F1 | 	sub	objptr, #4
008ac     78 3E 01 FB | 	rdlong	local08, objptr
008b0     01 3E 05 F1 | 	add	local08, #1
008b4     78 3E 61 FC | 	wrlong	local08, objptr
008b8     84 F0 84 F1 | 	sub	objptr, #132
008bc     10 3E 5D F2 | 	cmps	local08, #16 wcz
008c0     54 FF 9F CD |  if_b	jmp	#LR__0003
008c4                 | '     v.crlf()
008c4     88 F0 04 F1 | 	add	objptr, #136
008c8     A4 22 B0 FD | 	call	#_hng012_crlf
008cc                 | '     v.waitvbl(1)
008cc     01 0C 05 F6 | 	mov	arg01, #1
008d0     DC 17 B0 FD | 	call	#_hng012_waitvbl
008d4     88 F0 84 F1 | 	sub	objptr, #136
008d8     01 3C 05 F1 | 	add	local07, #1
008dc     10 3C 5D F2 | 	cmps	local07, #16 wcz
008e0     18 FF 9F CD |  if_b	jmp	#LR__0002
008e4                 | '   v.crlf()
008e4     88 F0 04 F1 | 	add	objptr, #136
008e8     84 22 B0 FD | 	call	#_hng012_crlf
008ec                 | '   v.crlf()
008ec     80 22 B0 FD | 	call	#_hng012_crlf
008f0                 | '   v.write(string("C:\>"))
008f0     1D 00 00 FF 
008f4     55 0C 05 F6 | 	mov	arg01, ##@LR__0190
008f8     90 1E B0 FD | 	call	#_hng012_write
008fc                 | ' 
008fc                 | ' 
008fc                 | '   v.waitvbl(600)
008fc     01 00 00 FF 
00900     58 0C 05 F6 | 	mov	arg01, ##600
00904     A8 17 B0 FD | 	call	#_hng012_waitvbl
00908                 | '   v.write(string("mode 0"))
00908     1D 00 00 FF 
0090c     5A 0C 05 F6 | 	mov	arg01, ##@LR__0191
00910     78 1E B0 FD | 	call	#_hng012_write
00914                 | '   v.waitvbl(60)
00914     3C 0C 05 F6 | 	mov	arg01, #60
00918     94 17 B0 FD | 	call	#_hng012_waitvbl
0091c                 | ' 
0091c                 | '   v.setmode(0)
0091c     00 0C 05 F6 | 	mov	arg01, #0
00920     80 24 B0 FD | 	call	#_hng012_setmode
00924     88 F0 84 F1 | 	sub	objptr, #136
00928                 | '   v.defchar(0,2,0,255,0,0,0,0,0,0,0,0,0,0,0,0,0,0)
00928     00 0C 05 F6 | 	mov	arg01, #0
0092c     02 0E 05 F6 | 	mov	arg02, #2
00930     00 10 05 F6 | 	mov	arg03, #0
00934     FF 12 05 F6 | 	mov	arg04, #255
00938     00 14 05 F6 | 	mov	arg05, #0
0093c     00 16 05 F6 | 	mov	arg06, #0
00940     00 18 05 F6 | 	mov	arg07, #0
00944     00 1A 05 F6 | 	mov	arg08, #0
00948     00 1C 05 F6 | 	mov	arg09, #0
0094c     00 1E 05 F6 | 	mov	arg10, #0
00950     00 20 05 F6 | 	mov	arg11, #0
00954     00 22 05 F6 | 	mov	arg12, #0
00958     00 24 05 F6 | 	mov	arg13, #0
0095c     00 26 05 F6 | 	mov	arg14, #0
00960     00 28 05 F6 | 	mov	arg15, #0
00964     00 2A 05 F6 | 	mov	arg16, #0
00968     00 2C 05 F6 | 	mov	arg17, #0
0096c     00 2E 05 F6 | 	mov	arg18, #0
00970     60 16 B0 FD | 	call	#_hng012_defchar
00974                 | '   v.setfontnum(4096)
00974     0C 0C C5 F9 | 	decod	arg01, #12
00978                 | ' 
00978                 | ' fontnum:=afontnum
00978     BC F1 04 F1 | 	add	objptr, #444
0097c     78 0C 61 FC | 	wrlong	arg01, objptr
00980     34 F1 84 F1 | 	sub	objptr, #308
00984                 | ' 
00984                 | '   v.cls(0,15)
00984     00 0C 05 F6 | 	mov	arg01, #0
00988     0F 0E 05 F6 | 	mov	arg02, #15
0098c     84 19 B0 FD | 	call	#_hng012_cls
00990                 | '   v.setbordercolors(0,0,0)
00990     00 0C 05 F6 | 	mov	arg01, #0
00994     00 0E 05 F6 | 	mov	arg02, #0
00998     00 10 05 F6 | 	mov	arg03, #0
0099c     00 18 B0 FD | 	call	#_hng012_setbordercolors
009a0                 | '   v.cursoroff()
009a0                 | ' 
009a0                 | ' ''---------- Switch the cursor off
009a0                 | ' 
009a0                 | ' cursor_sh-=16
009a0     CA F0 04 F1 | 	add	objptr, #202
009a4     78 42 C1 FA | 	rdbyte	local10, objptr
009a8     10 42 85 F1 | 	sub	local10, #16
009ac     78 42 41 FC | 	wrbyte	local10, objptr
009b0     CA F0 84 F1 | 	sub	objptr, #202
009b4                 | '   v.outtextxy(0,0,string(" File  Options  View  Special"))
009b4     1D 00 00 FF 
009b8     61 10 05 F6 | 	mov	arg03, ##@LR__0192
009bc     00 0C 05 F6 | 	mov	arg01, #0
009c0     00 0E 05 F6 | 	mov	arg02, #0
009c4     2C 1A B0 FD | 	call	#_hng012_outtextxy
009c8                 | '   repeat i from 0 to 99
009c8     04 F0 84 F1 | 	sub	objptr, #4
009cc     78 00 68 FC | 	wrlong	#0, objptr
009d0     84 F0 84 F1 | 	sub	objptr, #132
009d4     58 F6 9F FE | 	loc	pa,	#(@LR__0005-@LR__0004)
009d8     35 00 A0 FD | 	call	#FCACHE_LOAD_
009dc                 | LR__0004
009dc                 | '     teststring[i]:=2
009dc     84 F0 04 F1 | 	add	objptr, #132
009e0     78 3E 01 FB | 	rdlong	local08, objptr
009e4     84 F0 84 F1 | 	sub	objptr, #132
009e8     78 3E 01 F1 | 	add	local08, objptr
009ec     9F 04 48 FC | 	wrbyte	#2, local08
009f0     84 F0 04 F1 | 	add	objptr, #132
009f4     78 3E 01 FB | 	rdlong	local08, objptr
009f8     01 3E 05 F1 | 	add	local08, #1
009fc     78 3E 61 FC | 	wrlong	local08, objptr
00a00     84 F0 84 F1 | 	sub	objptr, #132
00a04     64 3E 5D F2 | 	cmps	local08, #100 wcz
00a08     D0 FF 9F CD |  if_b	jmp	#LR__0004
00a0c                 | LR__0005
00a0c                 | '   teststring[100]:=0
00a0c     00 0C 05 F6 | 	mov	arg01, #0
00a10     64 F0 04 F1 | 	add	objptr, #100
00a14     78 00 48 FC | 	wrbyte	#0, objptr
00a18     64 F0 84 F1 | 	sub	objptr, #100
00a1c                 | '   v.outtextxy(0,1,@teststring)
00a1c     01 0E 05 F6 | 	mov	arg02, #1
00a20     78 10 01 F6 | 	mov	arg03, objptr
00a24     88 F0 04 F1 | 	add	objptr, #136
00a28     C8 19 B0 FD | 	call	#_hng012_outtextxy
00a2c     88 F0 84 F1 | 	sub	objptr, #136
00a30                 | '   teststring[0]:=10
00a30     78 14 48 FC | 	wrbyte	#10, objptr
00a34                 | '   repeat i from 1 to 80
00a34     84 F0 04 F1 | 	add	objptr, #132
00a38     78 02 68 FC | 	wrlong	#1, objptr
00a3c     84 F0 84 F1 | 	sub	objptr, #132
00a40     EC F5 9F FE | 	loc	pa,	#(@LR__0007-@LR__0006)
00a44     35 00 A0 FD | 	call	#FCACHE_LOAD_
00a48                 | LR__0006
00a48                 | '     teststring[i]:=3
00a48     84 F0 04 F1 | 	add	objptr, #132
00a4c     78 3E 01 FB | 	rdlong	local08, objptr
00a50     84 F0 84 F1 | 	sub	objptr, #132
00a54     78 3E 01 F1 | 	add	local08, objptr
00a58     9F 06 48 FC | 	wrbyte	#3, local08
00a5c     84 F0 04 F1 | 	add	objptr, #132
00a60     78 3E 01 FB | 	rdlong	local08, objptr
00a64     01 3E 05 F1 | 	add	local08, #1
00a68     78 3E 61 FC | 	wrlong	local08, objptr
00a6c     84 F0 84 F1 | 	sub	objptr, #132
00a70     51 3E 5D F2 | 	cmps	local08, #81 wcz
00a74     D0 FF 9F CD |  if_b	jmp	#LR__0006
00a78                 | LR__0007
00a78                 | '   teststring[81]:=9
00a78     51 F0 04 F1 | 	add	objptr, #81
00a7c     78 12 48 FC | 	wrbyte	#9, objptr
00a80                 | '   teststring[82]:=0
00a80     01 F0 04 F1 | 	add	objptr, #1
00a84     78 00 48 FC | 	wrbyte	#0, objptr
00a88                 | ' 
00a88                 | '   v.setcursorpos(8,5)
00a88     05 0E 05 F6 | 	mov	arg02, #5
00a8c                 | ' 
00a8c                 | ' ''---------- Set the (x,y) position of cursor
00a8c                 | ' 
00a8c                 | ' cursor_x:=x
00a8c     FE F0 04 F1 | 	add	objptr, #254
00a90     78 10 48 FC | 	wrbyte	#8, objptr
00a94                 | ' cursor_y:=y
00a94     01 F0 04 F1 | 	add	objptr, #1
00a98     78 0A 48 FC | 	wrbyte	#5, objptr
00a9c     51 F1 84 F1 | 	sub	objptr, #337
00aa0                 | '   v.writeln(@teststring)
00aa0     78 0C 01 F6 | 	mov	arg01, objptr
00aa4     88 F0 04 F1 | 	add	objptr, #136
00aa8     CC 1E B0 FD | 	call	#_hng012_writeln
00aac     88 F0 84 F1 | 	sub	objptr, #136
00ab0                 | '   repeat j from 0 to 7
00ab0     00 3C 05 F6 | 	mov	local07, #0
00ab4                 | LR__0008
00ab4                 | '     v.write(string("        "))
00ab4     1D 00 00 FF 
00ab8     7F 0C 05 F6 | 	mov	arg01, ##@LR__0193
00abc     88 F0 04 F1 | 	add	objptr, #136
00ac0     C8 1C B0 FD | 	call	#_hng012_write
00ac4                 | '     v.putchar(4)
00ac4     04 0C 05 F6 | 	mov	arg01, #4
00ac8     48 1B B0 FD | 	call	#_hng012_putchar
00acc                 | '     repeat i from 0 to 15
00acc     04 F0 84 F1 | 	sub	objptr, #4
00ad0     78 00 68 FC | 	wrlong	#0, objptr
00ad4     84 F0 84 F1 | 	sub	objptr, #132
00ad8                 | LR__0009
00ad8                 | '       teststring[0]:=16*j+i
00ad8     9E 3E 01 F6 | 	mov	local08, local07
00adc     04 3E 65 F0 | 	shl	local08, #4
00ae0     84 F0 04 F1 | 	add	objptr, #132
00ae4     78 40 01 FB | 	rdlong	local09, objptr
00ae8     84 F0 84 F1 | 	sub	objptr, #132
00aec     A0 3E 01 F1 | 	add	local08, local09
00af0     78 3E 41 FC | 	wrbyte	local08, objptr
00af4                 | '       if (16*j+i)==0
00af4     9E 3E 01 F6 | 	mov	local08, local07
00af8     04 3E 65 F0 | 	shl	local08, #4
00afc     84 F0 04 F1 | 	add	objptr, #132
00b00     78 40 01 FB | 	rdlong	local09, objptr
00b04     84 F0 84 F1 | 	sub	objptr, #132
00b08     A0 3E 09 F1 | 	add	local08, local09 wz
00b0c                 | '         teststring[0]:=32
00b0c     78 40 48 AC |  if_e	wrbyte	#32, objptr
00b10                 | '       teststring[1]:=0
00b10     01 F0 04 F1 | 	add	objptr, #1
00b14     78 00 48 FC | 	wrbyte	#0, objptr
00b18                 | '       v.write(v.inttohex(16*j+i,2))
00b18     9E 0C 01 F6 | 	mov	arg01, local07
00b1c     04 0C 65 F0 | 	shl	arg01, #4
00b20     83 F0 04 F1 | 	add	objptr, #131
00b24     78 40 01 FB | 	rdlong	local09, objptr
00b28     A0 0C 01 F1 | 	add	arg01, local09
00b2c     02 0E 05 F6 | 	mov	arg02, #2
00b30     04 F0 04 F1 | 	add	objptr, #4
00b34     B0 21 B0 FD | 	call	#_hng012_inttohex
00b38     7D 0C 01 F6 | 	mov	arg01, result1
00b3c     4C 1C B0 FD | 	call	#_hng012_write
00b40                 | '       v.write(string(" "))
00b40     1D 00 00 FF 
00b44     88 0C 05 F6 | 	mov	arg01, ##@LR__0194
00b48     40 1C B0 FD | 	call	#_hng012_write
00b4c     88 F0 84 F1 | 	sub	objptr, #136
00b50                 | '       v.write(@teststring)
00b50     78 0C 01 F6 | 	mov	arg01, objptr
00b54     88 F0 04 F1 | 	add	objptr, #136
00b58     30 1C B0 FD | 	call	#_hng012_write
00b5c                 | '       v.write(string(","))
00b5c     1D 00 00 FF 
00b60     8A 0C 05 F6 | 	mov	arg01, ##@LR__0195
00b64     24 1C B0 FD | 	call	#_hng012_write
00b68     04 F0 84 F1 | 	sub	objptr, #4
00b6c     78 3E 01 FB | 	rdlong	local08, objptr
00b70     01 3E 05 F1 | 	add	local08, #1
00b74     78 3E 61 FC | 	wrlong	local08, objptr
00b78     84 F0 84 F1 | 	sub	objptr, #132
00b7c     10 3E 5D F2 | 	cmps	local08, #16 wcz
00b80     54 FF 9F CD |  if_b	jmp	#LR__0009
00b84                 | '     v.putchar(4)
00b84     04 0C 05 F6 | 	mov	arg01, #4
00b88     88 F0 04 F1 | 	add	objptr, #136
00b8c     84 1A B0 FD | 	call	#_hng012_putchar
00b90                 | '     v.crlf()
00b90     DC 1F B0 FD | 	call	#_hng012_crlf
00b94                 | '     v.waitvbl(2)
00b94     02 0C 05 F6 | 	mov	arg01, #2
00b98     14 15 B0 FD | 	call	#_hng012_waitvbl
00b9c     88 F0 84 F1 | 	sub	objptr, #136
00ba0     01 3C 05 F1 | 	add	local07, #1
00ba4     08 3C 5D F2 | 	cmps	local07, #8 wcz
00ba8     08 FF 9F CD |  if_b	jmp	#LR__0008
00bac                 | '   teststring[0]:=$C
00bac     78 18 48 FC | 	wrbyte	#12, objptr
00bb0                 | '   repeat i from 1 to 80
00bb0     84 F0 04 F1 | 	add	objptr, #132
00bb4     78 02 68 FC | 	wrlong	#1, objptr
00bb8     84 F0 84 F1 | 	sub	objptr, #132
00bbc     70 F4 9F FE | 	loc	pa,	#(@LR__0011-@LR__0010)
00bc0     35 00 A0 FD | 	call	#FCACHE_LOAD_
00bc4                 | LR__0010
00bc4                 | '     teststring[i]:=3
00bc4     84 F0 04 F1 | 	add	objptr, #132
00bc8     78 3E 01 FB | 	rdlong	local08, objptr
00bcc     84 F0 84 F1 | 	sub	objptr, #132
00bd0     78 3E 01 F1 | 	add	local08, objptr
00bd4     9F 06 48 FC | 	wrbyte	#3, local08
00bd8     84 F0 04 F1 | 	add	objptr, #132
00bdc     78 3E 01 FB | 	rdlong	local08, objptr
00be0     01 3E 05 F1 | 	add	local08, #1
00be4     78 3E 61 FC | 	wrlong	local08, objptr
00be8     84 F0 84 F1 | 	sub	objptr, #132
00bec     51 3E 5D F2 | 	cmps	local08, #81 wcz
00bf0     D0 FF 9F CD |  if_b	jmp	#LR__0010
00bf4                 | LR__0011
00bf4                 | '   teststring[81]:=$B
00bf4     51 F0 04 F1 | 	add	objptr, #81
00bf8     78 16 48 FC | 	wrbyte	#11, objptr
00bfc                 | '   teststring[82]:=0
00bfc     01 F0 04 F1 | 	add	objptr, #1
00c00     78 00 48 FC | 	wrbyte	#0, objptr
00c04                 | '   v.setcursorpos(8,14)
00c04     0E 0E 05 F6 | 	mov	arg02, #14
00c08                 | ' 
00c08                 | ' ''---------- Set the (x,y) position of cursor
00c08                 | ' 
00c08                 | ' cursor_x:=x
00c08     FE F0 04 F1 | 	add	objptr, #254
00c0c     78 10 48 FC | 	wrbyte	#8, objptr
00c10                 | ' cursor_y:=y
00c10     01 F0 04 F1 | 	add	objptr, #1
00c14     78 1C 48 FC | 	wrbyte	#14, objptr
00c18     51 F1 84 F1 | 	sub	objptr, #337
00c1c                 | '   v.writeln(@teststring)
00c1c     78 0C 01 F6 | 	mov	arg01, objptr
00c20     88 F0 04 F1 | 	add	objptr, #136
00c24     50 1D B0 FD | 	call	#_hng012_writeln
00c28                 | ' 
00c28                 | '   v.writeln(string(" "))
00c28     1D 00 00 FF 
00c2c     8C 0C 05 F6 | 	mov	arg01, ##@LR__0196
00c30     44 1D B0 FD | 	call	#_hng012_writeln
00c34                 | '   v.writeln(string("     ... but Atari ST-like mono font can also be used."))
00c34     1D 00 00 FF 
00c38     8E 0C 05 F6 | 	mov	arg01, ##@LR__0197
00c3c     38 1D B0 FD | 	call	#_hng012_writeln
00c40                 | '   v.writeln(string("         We also switched the graphics mode to PAL like 50 Hz, 624 lines."))
00c40     1D 00 00 FF 
00c44     C5 0C 05 F6 | 	mov	arg01, ##@LR__0198
00c48     2C 1D B0 FD | 	call	#_hng012_writeln
00c4c                 | '   v.writeln(string(" "))
00c4c     1D 00 00 FF 
00c50     0F 0D 05 F6 | 	mov	arg01, ##@LR__0199
00c54     20 1D B0 FD | 	call	#_hng012_writeln
00c58                 | '   v.setwritecolors(v.c_red,v.c_white)
00c58     0F 0E 05 F6 | 	mov	arg02, #15
00c5c                 | ' 
00c5c                 | ' 
00c5c                 | ' write_color:=ff
00c5c     CC F0 04 F1 | 	add	objptr, #204
00c60     78 4E 68 FC | 	wrlong	#39, objptr
00c64                 | ' write_background:=bb
00c64     04 F0 04 F1 | 	add	objptr, #4
00c68     78 1E 68 FC | 	wrlong	#15, objptr
00c6c     D0 F0 84 F1 | 	sub	objptr, #208
00c70                 | '   v.writeln(string("         Although the font is mono style, we are still in the color mode here."))
00c70     1D 00 00 FF 
00c74     11 0D 05 F6 | 	mov	arg01, ##@LR__0200
00c78     FC 1C B0 FD | 	call	#_hng012_writeln
00c7c                 | ' 
00c7c                 | ' 
00c7c                 | ' 
00c7c                 | '   v.waitvbl(1200)
00c7c     02 00 00 FF 
00c80     B0 0C 05 F6 | 	mov	arg01, ##1200
00c84     28 14 B0 FD | 	call	#_hng012_waitvbl
00c88                 | ' 
00c88                 | ' '-----------------
00c88                 | '   v.setfontnum(0)
00c88                 | ' 
00c88                 | ' fontnum:=afontnum
00c88     34 F1 04 F1 | 	add	objptr, #308
00c8c     78 00 68 FC | 	wrlong	#0, objptr
00c90     34 F1 84 F1 | 	sub	objptr, #308
00c94                 | '   v.setscreencolors (151,145)
00c94     97 0C 05 F6 | 	mov	arg01, #151
00c98     91 0E 05 F6 | 	mov	arg02, #145
00c9c     84 14 B0 FD | 	call	#_hng012_setscreencolors
00ca0                 | ' 
00ca0                 | ' 
00ca0                 | '   repeat i from 0 to 99
00ca0     04 F0 84 F1 | 	sub	objptr, #4
00ca4     78 00 68 FC | 	wrlong	#0, objptr
00ca8     84 F0 84 F1 | 	sub	objptr, #132
00cac                 | LR__0012
00cac                 | '     repeat j from 0 to 29
00cac     00 3C 05 F6 | 	mov	local07, #0
00cb0                 | LR__0013
00cb0                 | '       v.putcharxy(i,j,(i+100*j) & $FF)
00cb0     84 F0 04 F1 | 	add	objptr, #132
00cb4     78 0C 01 FB | 	rdlong	arg01, objptr
00cb8     86 10 01 F6 | 	mov	arg03, arg01
00cbc     64 3C 05 FD | 	qmul	local07, #100
00cc0     18 44 61 FD | 	getqx	local11
00cc4     A2 10 01 F1 | 	add	arg03, local11
00cc8     FF 10 05 F5 | 	and	arg03, #255
00ccc     9E 0E 01 F6 | 	mov	arg02, local07
00cd0     04 F0 04 F1 | 	add	objptr, #4
00cd4     BC 16 B0 FD | 	call	#_hng012_putcharxy
00cd8     88 F0 84 F1 | 	sub	objptr, #136
00cdc     01 3C 05 F1 | 	add	local07, #1
00ce0     1E 3C 5D F2 | 	cmps	local07, #30 wcz
00ce4     C8 FF 9F CD |  if_b	jmp	#LR__0013
00ce8     84 F0 04 F1 | 	add	objptr, #132
00cec     78 3E 01 FB | 	rdlong	local08, objptr
00cf0     01 3E 05 F1 | 	add	local08, #1
00cf4     78 3E 61 FC | 	wrlong	local08, objptr
00cf8     84 F0 84 F1 | 	sub	objptr, #132
00cfc     64 3E 5D F2 | 	cmps	local08, #100 wcz
00d00     A8 FF 9F CD |  if_b	jmp	#LR__0012
00d04                 | ' 
00d04                 | '   v.waitvbl(100)
00d04     64 0C 05 F6 | 	mov	arg01, #100
00d08     88 F0 04 F1 | 	add	objptr, #136
00d0c     A0 13 B0 FD | 	call	#_hng012_waitvbl
00d10     88 F0 84 F1 | 	sub	objptr, #136
00d14                 | ' 
00d14                 | '   repeat j from 0 to 29
00d14     00 3C 05 F6 | 	mov	local07, #0
00d18                 | LR__0014
00d18                 | '     v.scrolldown()
00d18     88 F0 04 F1 | 	add	objptr, #136
00d1c     98 1D B0 FD | 	call	#_hng012_scrolldown
00d20                 | '     v.waitvbl(1)
00d20     01 0C 05 F6 | 	mov	arg01, #1
00d24     88 13 B0 FD | 	call	#_hng012_waitvbl
00d28     88 F0 84 F1 | 	sub	objptr, #136
00d2c     01 3C 05 F1 | 	add	local07, #1
00d30     1E 3C 5D F2 | 	cmps	local07, #30 wcz
00d34     E0 FF 9F CD |  if_b	jmp	#LR__0014
00d38                 | ' 
00d38                 | '   v.cls(151,145)
00d38     97 0C 05 F6 | 	mov	arg01, #151
00d3c     91 0E 05 F6 | 	mov	arg02, #145
00d40     88 F0 04 F1 | 	add	objptr, #136
00d44     CC 15 B0 FD | 	call	#_hng012_cls
00d48     88 F0 84 F1 | 	sub	objptr, #136
00d4c                 | ' 
00d4c                 | '   v.outtextxy (50-(strsize(s3)>>1),10,s3)
00d4c     99 0C 01 F6 | 	mov	arg01, local02
00d50     00 46 05 F6 | 	mov	local12, #0
00d54     B8 F2 9F FE | 	loc	pa,	#(@LR__0016-@LR__0015)
00d58     35 00 A0 FD | 	call	#FCACHE_LOAD_
00d5c                 | LR__0015
00d5c     86 42 C9 FA | 	rdbyte	local10, arg01 wz
00d60     01 46 05 51 |  if_ne	add	local12, #1
00d64     01 0C 05 51 |  if_ne	add	arg01, #1
00d68     F0 FF 9F 5D |  if_ne	jmp	#LR__0015
00d6c                 | LR__0016
00d6c     A3 FA 00 F6 | 	mov	result1, local12
00d70     7D 3E 01 F6 | 	mov	local08, result1
00d74     01 3E 45 F0 | 	shr	local08, #1
00d78     32 0C 05 F6 | 	mov	arg01, #50
00d7c     9F 0C 81 F1 | 	sub	arg01, local08
00d80     99 10 01 F6 | 	mov	arg03, local02
00d84     0A 0E 05 F6 | 	mov	arg02, #10
00d88     88 F0 04 F1 | 	add	objptr, #136
00d8c     64 16 B0 FD | 	call	#_hng012_outtextxy
00d90                 | '   v.waitvbl(20)
00d90     14 0C 05 F6 | 	mov	arg01, #20
00d94     18 13 B0 FD | 	call	#_hng012_waitvbl
00d98     88 F0 84 F1 | 	sub	objptr, #136
00d9c                 | '   repeat k from 0 to 20
00d9c     00 48 05 F6 | 	mov	local13, #0
00da0                 | LR__0017
00da0                 | '     repeat i from 0 to 99
00da0     84 F0 04 F1 | 	add	objptr, #132
00da4     78 00 68 FC | 	wrlong	#0, objptr
00da8     84 F0 84 F1 | 	sub	objptr, #132
00dac                 | LR__0018
00dac                 | '       j:=(i+k)//16
00dac     84 F0 04 F1 | 	add	objptr, #132
00db0     78 3E 01 FB | 	rdlong	local08, objptr
00db4     A4 3E 01 F1 | 	add	local08, local13
00db8     9F 40 51 F6 | 	abs	local09, local08 wc
00dbc     0F 40 05 F5 | 	and	local09, #15
00dc0     A0 40 61 C6 |  if_b	neg	local09, local09
00dc4     A0 3C 01 F6 | 	mov	local07, local09
00dc8                 | '       v.setcharcolor(i,10,v.getvgacolor(j))
00dc8     78 3E 01 FB | 	rdlong	local08, objptr
00dcc     9E 0C 01 F6 | 	mov	arg01, local07
00dd0                 | ' 
00dd0                 | ' return colors[color]
00dd0     54 F1 04 F1 | 	add	objptr, #340
00dd4     78 0C 01 F1 | 	add	arg01, objptr
00dd8     86 FA C0 FA | 	rdbyte	result1, arg01
00ddc     50 F1 84 F1 | 	sub	objptr, #336
00de0     7D 10 01 F6 | 	mov	arg03, result1
00de4     9F 0C 01 F6 | 	mov	arg01, local08
00de8     0A 0E 05 F6 | 	mov	arg02, #10
00dec     14 14 B0 FD | 	call	#_hng012_setcharcolor
00df0                 | '       v.setbackcolor(i,10,v.getvgacolor((j+4)//16))
00df0     04 F0 84 F1 | 	sub	objptr, #4
00df4     78 0C 01 FB | 	rdlong	arg01, objptr
00df8     04 3C 05 F1 | 	add	local07, #4
00dfc     9E 4A 51 F6 | 	abs	local14, local07 wc
00e00     0F 4A 05 F5 | 	and	local14, #15
00e04     A5 4A 61 C6 |  if_b	neg	local14, local14
00e08                 | ' 
00e08                 | ' return colors[color]
00e08     54 F1 04 F1 | 	add	objptr, #340
00e0c     78 4A 01 F1 | 	add	local14, objptr
00e10     A5 FA C0 FA | 	rdbyte	result1, local14
00e14     50 F1 84 F1 | 	sub	objptr, #336
00e18     7D 10 01 F6 | 	mov	arg03, result1
00e1c     0A 0E 05 F6 | 	mov	arg02, #10
00e20     54 14 B0 FD | 	call	#_hng012_setbackcolor
00e24     04 F0 84 F1 | 	sub	objptr, #4
00e28     78 3E 01 FB | 	rdlong	local08, objptr
00e2c     01 3E 05 F1 | 	add	local08, #1
00e30     78 3E 61 FC | 	wrlong	local08, objptr
00e34     84 F0 84 F1 | 	sub	objptr, #132
00e38     64 3E 5D F2 | 	cmps	local08, #100 wcz
00e3c     6C FF 9F CD |  if_b	jmp	#LR__0018
00e40                 | '     v.waitvbl(10)
00e40     0A 0C 05 F6 | 	mov	arg01, #10
00e44     88 F0 04 F1 | 	add	objptr, #136
00e48     64 12 B0 FD | 	call	#_hng012_waitvbl
00e4c     88 F0 84 F1 | 	sub	objptr, #136
00e50     01 48 05 F1 | 	add	local13, #1
00e54     15 48 5D F2 | 	cmps	local13, #21 wcz
00e58     44 FF 9F CD |  if_b	jmp	#LR__0017
00e5c                 | '   repeat i from 0 to 99
00e5c     84 F0 04 F1 | 	add	objptr, #132
00e60     78 00 68 FC | 	wrlong	#0, objptr
00e64     84 F0 84 F1 | 	sub	objptr, #132
00e68                 | LR__0019
00e68                 | '     v.setcharcolor(i,10,153)
00e68     84 F0 04 F1 | 	add	objptr, #132
00e6c     78 0C 01 FB | 	rdlong	arg01, objptr
00e70     0A 0E 05 F6 | 	mov	arg02, #10
00e74     99 10 05 F6 | 	mov	arg03, #153
00e78     04 F0 04 F1 | 	add	objptr, #4
00e7c     84 13 B0 FD | 	call	#_hng012_setcharcolor
00e80                 | '     v.setbackcolor(i,10,145)
00e80     04 F0 84 F1 | 	sub	objptr, #4
00e84     78 0C 01 FB | 	rdlong	arg01, objptr
00e88     0A 0E 05 F6 | 	mov	arg02, #10
00e8c     91 10 05 F6 | 	mov	arg03, #145
00e90     04 F0 04 F1 | 	add	objptr, #4
00e94     E0 13 B0 FD | 	call	#_hng012_setbackcolor
00e98     04 F0 84 F1 | 	sub	objptr, #4
00e9c     78 3E 01 FB | 	rdlong	local08, objptr
00ea0     01 3E 05 F1 | 	add	local08, #1
00ea4     78 3E 61 FC | 	wrlong	local08, objptr
00ea8     84 F0 84 F1 | 	sub	objptr, #132
00eac     64 3E 5D F2 | 	cmps	local08, #100 wcz
00eb0     B4 FF 9F CD |  if_b	jmp	#LR__0019
00eb4                 | ' 
00eb4                 | '   v.outtextxy (50-(strsize(s4)>>1),12,s4)
00eb4     9A 0C 01 F6 | 	mov	arg01, local03
00eb8     00 46 05 F6 | 	mov	local12, #0
00ebc     50 F1 9F FE | 	loc	pa,	#(@LR__0021-@LR__0020)
00ec0     35 00 A0 FD | 	call	#FCACHE_LOAD_
00ec4                 | LR__0020
00ec4     86 42 C9 FA | 	rdbyte	local10, arg01 wz
00ec8     01 46 05 51 |  if_ne	add	local12, #1
00ecc     01 0C 05 51 |  if_ne	add	arg01, #1
00ed0     F0 FF 9F 5D |  if_ne	jmp	#LR__0020
00ed4                 | LR__0021
00ed4     A3 FA 00 F6 | 	mov	result1, local12
00ed8     7D 3E 01 F6 | 	mov	local08, result1
00edc     01 3E 45 F0 | 	shr	local08, #1
00ee0     32 0C 05 F6 | 	mov	arg01, #50
00ee4     9F 0C 81 F1 | 	sub	arg01, local08
00ee8     0C 0E 05 F6 | 	mov	arg02, #12
00eec     9A 10 01 F6 | 	mov	arg03, local03
00ef0     88 F0 04 F1 | 	add	objptr, #136
00ef4     FC 14 B0 FD | 	call	#_hng012_outtextxy
00ef8                 | '   v.waitvbl(20)
00ef8     14 0C 05 F6 | 	mov	arg01, #20
00efc     B0 11 B0 FD | 	call	#_hng012_waitvbl
00f00     88 F0 84 F1 | 	sub	objptr, #136
00f04                 | '   v.outtextxy (50-(strsize(s5)>>1),14,s5)
00f04     9B 0C 01 F6 | 	mov	arg01, local04
00f08     00 46 05 F6 | 	mov	local12, #0
00f0c     00 F1 9F FE | 	loc	pa,	#(@LR__0023-@LR__0022)
00f10     35 00 A0 FD | 	call	#FCACHE_LOAD_
00f14                 | LR__0022
00f14     86 42 C9 FA | 	rdbyte	local10, arg01 wz
00f18     01 46 05 51 |  if_ne	add	local12, #1
00f1c     01 0C 05 51 |  if_ne	add	arg01, #1
00f20     F0 FF 9F 5D |  if_ne	jmp	#LR__0022
00f24                 | LR__0023
00f24     A3 FA 00 F6 | 	mov	result1, local12
00f28     7D 3E 01 F6 | 	mov	local08, result1
00f2c     01 3E 45 F0 | 	shr	local08, #1
00f30     32 0C 05 F6 | 	mov	arg01, #50
00f34     9F 0C 81 F1 | 	sub	arg01, local08
00f38     9B 10 01 F6 | 	mov	arg03, local04
00f3c     0E 0E 05 F6 | 	mov	arg02, #14
00f40     88 F0 04 F1 | 	add	objptr, #136
00f44     AC 14 B0 FD | 	call	#_hng012_outtextxy
00f48                 | '   v.waitvbl(200)
00f48     C8 0C 05 F6 | 	mov	arg01, #200
00f4c     60 11 B0 FD | 	call	#_hng012_waitvbl
00f50                 | ' 
00f50                 | ' 
00f50                 | '   repeat i from 0 to 99
00f50     04 F0 84 F1 | 	sub	objptr, #4
00f54     78 00 68 FC | 	wrlong	#0, objptr
00f58     84 F0 84 F1 | 	sub	objptr, #132
00f5c                 | LR__0024
00f5c                 | '     repeat j from 0 to 29
00f5c     00 3C 05 F6 | 	mov	local07, #0
00f60                 | LR__0025
00f60                 | '       v.putcharxy(i,j,(i+100*j) & $FF)
00f60     84 F0 04 F1 | 	add	objptr, #132
00f64     78 0C 01 FB | 	rdlong	arg01, objptr
00f68     86 10 01 F6 | 	mov	arg03, arg01
00f6c     64 3C 05 FD | 	qmul	local07, #100
00f70     18 44 61 FD | 	getqx	local11
00f74     A2 10 01 F1 | 	add	arg03, local11
00f78     FF 10 05 F5 | 	and	arg03, #255
00f7c     9E 0E 01 F6 | 	mov	arg02, local07
00f80     04 F0 04 F1 | 	add	objptr, #4
00f84     0C 14 B0 FD | 	call	#_hng012_putcharxy
00f88     88 F0 84 F1 | 	sub	objptr, #136
00f8c     01 3C 05 F1 | 	add	local07, #1
00f90     1E 3C 5D F2 | 	cmps	local07, #30 wcz
00f94     C8 FF 9F CD |  if_b	jmp	#LR__0025
00f98     84 F0 04 F1 | 	add	objptr, #132
00f9c     78 3E 01 FB | 	rdlong	local08, objptr
00fa0     01 3E 05 F1 | 	add	local08, #1
00fa4     78 3E 61 FC | 	wrlong	local08, objptr
00fa8     84 F0 84 F1 | 	sub	objptr, #132
00fac     64 3E 5D F2 | 	cmps	local08, #100 wcz
00fb0     A8 FF 9F CD |  if_b	jmp	#LR__0024
00fb4                 | ' 
00fb4                 | '   v.waitvbl(100)
00fb4     64 0C 05 F6 | 	mov	arg01, #100
00fb8     88 F0 04 F1 | 	add	objptr, #136
00fbc     F0 10 B0 FD | 	call	#_hng012_waitvbl
00fc0     88 F0 84 F1 | 	sub	objptr, #136
00fc4                 | ' 
00fc4                 | '   repeat k from 0 to 99
00fc4     00 48 05 F6 | 	mov	local13, #0
00fc8                 | LR__0026
00fc8                 | '     repeat i from 0 to 31
00fc8     84 F0 04 F1 | 	add	objptr, #132
00fcc     78 00 68 FC | 	wrlong	#0, objptr
00fd0     84 F0 84 F1 | 	sub	objptr, #132
00fd4                 | LR__0027
00fd4                 | '       v.setbordercolor(i,getrnd() & 255,getrnd() & 255,getrnd()& 255)
00fd4     84 F0 04 F1 | 	add	objptr, #132
00fd8     78 0C 01 FB | 	rdlong	arg01, objptr
00fdc     1B 0E 61 FD | 	getrnd	arg02
00fe0     FF 0E 05 F5 | 	and	arg02, #255
00fe4     1B 10 61 FD | 	getrnd	arg03
00fe8     FF 10 05 F5 | 	and	arg03, #255
00fec     1B FA 60 FD | 	getrnd	result1
00ff0     7D 12 01 F6 | 	mov	arg04, result1
00ff4     FF 12 05 F5 | 	and	arg04, #255
00ff8     04 F0 04 F1 | 	add	objptr, #4
00ffc     EC 12 B0 FD | 	call	#_hng012_setbordercolor
01000     04 F0 84 F1 | 	sub	objptr, #4
01004     78 3E 01 FB | 	rdlong	local08, objptr
01008     01 3E 05 F1 | 	add	local08, #1
0100c     78 3E 61 FC | 	wrlong	local08, objptr
01010     84 F0 84 F1 | 	sub	objptr, #132
01014     20 3E 5D F2 | 	cmps	local08, #32 wcz
01018     B8 FF 9F CD |  if_b	jmp	#LR__0027
0101c                 | '     repeat j from 0 to 29
0101c     00 3C 05 F6 | 	mov	local07, #0
01020                 | LR__0028
01020                 | '       repeat i from 0 to 99
01020     84 F0 04 F1 | 	add	objptr, #132
01024     78 00 68 FC | 	wrlong	#0, objptr
01028     84 F0 84 F1 | 	sub	objptr, #132
0102c                 | LR__0029
0102c                 | '         v.setcharcolor(i,j,getrnd()&255)
0102c     84 F0 04 F1 | 	add	objptr, #132
01030     78 0C 01 FB | 	rdlong	arg01, objptr
01034     1B FA 60 FD | 	getrnd	result1
01038     7D 10 01 F6 | 	mov	arg03, result1
0103c     FF 10 05 F5 | 	and	arg03, #255
01040     9E 0E 01 F6 | 	mov	arg02, local07
01044     04 F0 04 F1 | 	add	objptr, #4
01048     B8 11 B0 FD | 	call	#_hng012_setcharcolor
0104c                 | '         v.setbackcolor(i,j,getrnd()&255)
0104c     04 F0 84 F1 | 	sub	objptr, #4
01050     78 0C 01 FB | 	rdlong	arg01, objptr
01054     1B FA 60 FD | 	getrnd	result1
01058     7D 10 01 F6 | 	mov	arg03, result1
0105c     FF 10 05 F5 | 	and	arg03, #255
01060     9E 0E 01 F6 | 	mov	arg02, local07
01064     04 F0 04 F1 | 	add	objptr, #4
01068     0C 12 B0 FD | 	call	#_hng012_setbackcolor
0106c     04 F0 84 F1 | 	sub	objptr, #4
01070     78 3E 01 FB | 	rdlong	local08, objptr
01074     01 3E 05 F1 | 	add	local08, #1
01078     78 3E 61 FC | 	wrlong	local08, objptr
0107c     84 F0 84 F1 | 	sub	objptr, #132
01080     64 3E 5D F2 | 	cmps	local08, #100 wcz
01084     A4 FF 9F CD |  if_b	jmp	#LR__0029
01088     01 3C 05 F1 | 	add	local07, #1
0108c     1E 3C 5D F2 | 	cmps	local07, #30 wcz
01090     8C FF 9F CD |  if_b	jmp	#LR__0028
01094                 | '     v.waitvbl(1)
01094     01 0C 05 F6 | 	mov	arg01, #1
01098     88 F0 04 F1 | 	add	objptr, #136
0109c     10 10 B0 FD | 	call	#_hng012_waitvbl
010a0     88 F0 84 F1 | 	sub	objptr, #136
010a4     01 48 05 F1 | 	add	local13, #1
010a8     64 48 5D F2 | 	cmps	local13, #100 wcz
010ac     18 FF 9F CD |  if_b	jmp	#LR__0026
010b0                 | ' 
010b0                 | '   v.waitvbl(500)
010b0     F4 0D 05 F6 | 	mov	arg01, #500
010b4     88 F0 04 F1 | 	add	objptr, #136
010b8     F4 0F B0 FD | 	call	#_hng012_waitvbl
010bc                 | ' 
010bc                 | '   v.cls(151,145)
010bc     97 0C 05 F6 | 	mov	arg01, #151
010c0     91 0E 05 F6 | 	mov	arg02, #145
010c4     4C 12 B0 FD | 	call	#_hng012_cls
010c8                 | '   v.setscreencolors (151,145)
010c8     97 0C 05 F6 | 	mov	arg01, #151
010cc     91 0E 05 F6 | 	mov	arg02, #145
010d0     50 10 B0 FD | 	call	#_hng012_setscreencolors
010d4                 | '   v.setbordercolors(0,0,0)
010d4     00 0C 05 F6 | 	mov	arg01, #0
010d8     00 0E 05 F6 | 	mov	arg02, #0
010dc     00 10 05 F6 | 	mov	arg03, #0
010e0     BC 10 B0 FD | 	call	#_hng012_setbordercolors
010e4     88 F0 84 F1 | 	sub	objptr, #136
010e8                 | ' 
010e8                 | '   v.outtextxy (50-(strsize(s6)>>1),10,s6)
010e8     9C 0C 01 F6 | 	mov	arg01, local05
010ec     00 46 05 F6 | 	mov	local12, #0
010f0     1C EF 9F FE | 	loc	pa,	#(@LR__0031-@LR__0030)
010f4     35 00 A0 FD | 	call	#FCACHE_LOAD_
010f8                 | LR__0030
010f8     86 42 C9 FA | 	rdbyte	local10, arg01 wz
010fc     01 46 05 51 |  if_ne	add	local12, #1
01100     01 0C 05 51 |  if_ne	add	arg01, #1
01104     F0 FF 9F 5D |  if_ne	jmp	#LR__0030
01108                 | LR__0031
01108     A3 FA 00 F6 | 	mov	result1, local12
0110c     7D 3E 01 F6 | 	mov	local08, result1
01110     01 3E 45 F0 | 	shr	local08, #1
01114     32 0C 05 F6 | 	mov	arg01, #50
01118     9F 0C 81 F1 | 	sub	arg01, local08
0111c     9C 10 01 F6 | 	mov	arg03, local05
01120     0A 0E 05 F6 | 	mov	arg02, #10
01124     88 F0 04 F1 | 	add	objptr, #136
01128     C8 12 B0 FD | 	call	#_hng012_outtextxy
0112c                 | '   v.waitvbl(50)
0112c     32 0C 05 F6 | 	mov	arg01, #50
01130     7C 0F B0 FD | 	call	#_hng012_waitvbl
01134     88 F0 84 F1 | 	sub	objptr, #136
01138                 | ' 
01138                 | ' 
01138                 | '   random:=getrnd()
01138     1B FA 60 FD | 	getrnd	result1
0113c                 | ' 
0113c                 | '   repeat j from 0 to 15
0113c     00 3C 05 F6 | 	mov	local07, #0
01140                 | LR__0032
01140                 | ' 
01140                 | '     v. waitvbl(25)
01140     19 0C 05 F6 | 	mov	arg01, #25
01144     88 F0 04 F1 | 	add	objptr, #136
01148     64 0F B0 FD | 	call	#_hng012_waitvbl
0114c                 | '     v.setscreencolors (getrnd() & 255,getrnd() & 255)
0114c     1B 0C 61 FD | 	getrnd	arg01
01150     FF 0C 05 F5 | 	and	arg01, #255
01154     1B FA 60 FD | 	getrnd	result1
01158     7D 0E 01 F6 | 	mov	arg02, result1
0115c     FF 0E 05 F5 | 	and	arg02, #255
01160     C0 0F B0 FD | 	call	#_hng012_setscreencolors
01164     88 F0 84 F1 | 	sub	objptr, #136
01168     01 3C 05 F1 | 	add	local07, #1
0116c     10 3C 5D F2 | 	cmps	local07, #16 wcz
01170     CC FF 9F CD |  if_b	jmp	#LR__0032
01174                 | ' 
01174                 | '   v.setscreencolors (151,145)
01174     97 0C 05 F6 | 	mov	arg01, #151
01178     91 0E 05 F6 | 	mov	arg02, #145
0117c     88 F0 04 F1 | 	add	objptr, #136
01180     A0 0F B0 FD | 	call	#_hng012_setscreencolors
01184     88 F0 84 F1 | 	sub	objptr, #136
01188                 | ' 
01188                 | '   v.outtextxy (50-(strsize(s7)>>1),12,s7)
01188     9D 0C 01 F6 | 	mov	arg01, local06
0118c     00 46 05 F6 | 	mov	local12, #0
01190     7C EE 9F FE | 	loc	pa,	#(@LR__0034-@LR__0033)
01194     35 00 A0 FD | 	call	#FCACHE_LOAD_
01198                 | LR__0033
01198     86 42 C9 FA | 	rdbyte	local10, arg01 wz
0119c     01 46 05 51 |  if_ne	add	local12, #1
011a0     01 0C 05 51 |  if_ne	add	arg01, #1
011a4     F0 FF 9F 5D |  if_ne	jmp	#LR__0033
011a8                 | LR__0034
011a8     A3 FA 00 F6 | 	mov	result1, local12
011ac     7D 3E 01 F6 | 	mov	local08, result1
011b0     01 3E 45 F0 | 	shr	local08, #1
011b4     32 0C 05 F6 | 	mov	arg01, #50
011b8     9F 0C 81 F1 | 	sub	arg01, local08
011bc     9D 10 01 F6 | 	mov	arg03, local06
011c0     0C 0E 05 F6 | 	mov	arg02, #12
011c4     88 F0 04 F1 | 	add	objptr, #136
011c8     28 12 B0 FD | 	call	#_hng012_outtextxy
011cc                 | '   v.waitvbl(50)
011cc     32 0C 05 F6 | 	mov	arg01, #50
011d0     DC 0E B0 FD | 	call	#_hng012_waitvbl
011d4     88 F0 84 F1 | 	sub	objptr, #136
011d8                 | ' 
011d8                 | '   repeat j from 0 to 15
011d8     00 3C 05 F6 | 	mov	local07, #0
011dc                 | LR__0035
011dc                 | '     v.waitvbl(25)
011dc     19 0C 05 F6 | 	mov	arg01, #25
011e0     88 F0 04 F1 | 	add	objptr, #136
011e4     C8 0E B0 FD | 	call	#_hng012_waitvbl
011e8                 | '     v.setbordercolors (getrnd() & 255,getrnd() & 255,getrnd() & 255)
011e8     1B 0C 61 FD | 	getrnd	arg01
011ec     FF 0C 05 F5 | 	and	arg01, #255
011f0     1B 0E 61 FD | 	getrnd	arg02
011f4     FF 0E 05 F5 | 	and	arg02, #255
011f8     1B FA 60 FD | 	getrnd	result1
011fc     7D 10 01 F6 | 	mov	arg03, result1
01200     FF 10 05 F5 | 	and	arg03, #255
01204     98 0F B0 FD | 	call	#_hng012_setbordercolors
01208     88 F0 84 F1 | 	sub	objptr, #136
0120c     01 3C 05 F1 | 	add	local07, #1
01210     10 3C 5D F2 | 	cmps	local07, #16 wcz
01214     C4 FF 9F CD |  if_b	jmp	#LR__0035
01218                 | ' 
01218                 | '   v.waitvbl(25)
01218     19 0C 05 F6 | 	mov	arg01, #25
0121c     88 F0 04 F1 | 	add	objptr, #136
01220     8C 0E B0 FD | 	call	#_hng012_waitvbl
01224                 | '   v.setbordercolors(0,0,0)
01224     00 0C 05 F6 | 	mov	arg01, #0
01228     00 0E 05 F6 | 	mov	arg02, #0
0122c     00 10 05 F6 | 	mov	arg03, #0
01230     6C 0F B0 FD | 	call	#_hng012_setbordercolors
01234     88 F0 84 F1 | 	sub	objptr, #136
01238                 | ' '
01238                 | '   repeat j from 0 to 29
01238     00 3C 05 F6 | 	mov	local07, #0
0123c                 | LR__0036
0123c                 | '    v.scrollup()
0123c     88 F0 04 F1 | 	add	objptr, #136
01240     A0 17 B0 FD | 	call	#_hng012_scrollup
01244                 | '    v.waitvbl(2)
01244     02 0C 05 F6 | 	mov	arg01, #2
01248     64 0E B0 FD | 	call	#_hng012_waitvbl
0124c     88 F0 84 F1 | 	sub	objptr, #136
01250     01 3C 05 F1 | 	add	local07, #1
01254     1E 3C 5D F2 | 	cmps	local07, #30 wcz
01258     E0 FF 9F CD |  if_b	jmp	#LR__0036
0125c                 | ' 
0125c                 | ' 
0125c                 | '   repeat i from 0 to 29
0125c     84 F0 04 F1 | 	add	objptr, #132
01260     78 00 68 FC | 	wrlong	#0, objptr
01264     84 F0 84 F1 | 	sub	objptr, #132
01268                 | LR__0037
01268                 | '     v.waitvbl(2)
01268     02 0C 05 F6 | 	mov	arg01, #2
0126c     88 F0 04 F1 | 	add	objptr, #136
01270     3C 0E B0 FD | 	call	#_hng012_waitvbl
01274                 | '     v.cls(141,145)
01274     8D 0C 05 F6 | 	mov	arg01, #141
01278     91 0E 05 F6 | 	mov	arg02, #145
0127c     94 10 B0 FD | 	call	#_hng012_cls
01280                 | '     v.outtextxy(i,i,s1)
01280     04 F0 84 F1 | 	sub	objptr, #4
01284     78 0C 01 FB | 	rdlong	arg01, objptr
01288     86 0E 01 F6 | 	mov	arg02, arg01
0128c     98 10 01 F6 | 	mov	arg03, local01
01290     04 F0 04 F1 | 	add	objptr, #4
01294     5C 11 B0 FD | 	call	#_hng012_outtextxy
01298     04 F0 84 F1 | 	sub	objptr, #4
0129c     78 3E 01 FB | 	rdlong	local08, objptr
012a0     01 3E 05 F1 | 	add	local08, #1
012a4     78 3E 61 FC | 	wrlong	local08, objptr
012a8     84 F0 84 F1 | 	sub	objptr, #132
012ac     1E 3E 5D F2 | 	cmps	local08, #30 wcz
012b0     B4 FF 9F CD |  if_b	jmp	#LR__0037
012b4                 | ' 
012b4                 | ' 
012b4                 | '   v.waitvbl(100)
012b4     64 0C 05 F6 | 	mov	arg01, #100
012b8     88 F0 04 F1 | 	add	objptr, #136
012bc     F0 0D B0 FD | 	call	#_hng012_waitvbl
012c0                 | '   v.setmode(320)
012c0     40 0D 05 F6 | 	mov	arg01, #320
012c4     DC 1A B0 FD | 	call	#_hng012_setmode
012c8                 | '   v.setfontnum(0)
012c8                 | ' 
012c8                 | ' fontnum:=afontnum
012c8     34 F1 04 F1 | 	add	objptr, #308
012cc     78 00 68 FC | 	wrlong	#0, objptr
012d0                 | '   v.cursoron()
012d0                 | ' 
012d0                 | ' ''---------- Switch the cursor on
012d0                 | ' 
012d0                 | ' cursor_sh+=16
012d0     6A F0 84 F1 | 	sub	objptr, #106
012d4     78 42 C1 FA | 	rdbyte	local10, objptr
012d8     10 42 05 F1 | 	add	local10, #16
012dc     78 42 41 FC | 	wrbyte	local10, objptr
012e0     CA F0 84 F1 | 	sub	objptr, #202
012e4                 | '   v.cls(15,0)
012e4     0F 0C 05 F6 | 	mov	arg01, #15
012e8     00 0E 05 F6 | 	mov	arg02, #0
012ec     24 10 B0 FD | 	call	#_hng012_cls
012f0                 | '   v.setcursorpos(0,0)
012f0     00 0E 05 F6 | 	mov	arg02, #0
012f4                 | ' 
012f4                 | ' ''---------- Set the (x,y) position of cursor
012f4                 | ' 
012f4                 | ' cursor_x:=x
012f4     C8 F0 04 F1 | 	add	objptr, #200
012f8     78 00 48 FC | 	wrbyte	#0, objptr
012fc                 | ' cursor_y:=y
012fc     01 F0 04 F1 | 	add	objptr, #1
01300     78 00 48 FC | 	wrbyte	#0, objptr
01304                 | '   v.setwritecolors(v.c_blue,0)
01304                 | ' 
01304                 | ' 
01304                 | ' write_color:=ff
01304     03 F0 04 F1 | 	add	objptr, #3
01308     78 EA 68 FC | 	wrlong	#117, objptr
0130c                 | ' write_background:=bb
0130c     04 F0 04 F1 | 	add	objptr, #4
01310     78 00 68 FC | 	wrlong	#0, objptr
01314     D0 F0 84 F1 | 	sub	objptr, #208
01318                 | '   v.writeln(string("blue"))
01318     1D 00 00 FF 
0131c     60 0D 05 F6 | 	mov	arg01, ##@LR__0201
01320     54 16 B0 FD | 	call	#_hng012_writeln
01324                 | '   v.setwritecolors(v.c_green,0)
01324     00 0E 05 F6 | 	mov	arg02, #0
01328                 | ' 
01328                 | ' 
01328                 | ' write_color:=ff
01328     CC F0 04 F1 | 	add	objptr, #204
0132c     78 8E 69 FC | 	wrlong	#199, objptr
01330                 | ' write_background:=bb
01330     04 F0 04 F1 | 	add	objptr, #4
01334     78 00 68 FC | 	wrlong	#0, objptr
01338     D0 F0 84 F1 | 	sub	objptr, #208
0133c                 | '   v.writeln(string("green"))
0133c     1D 00 00 FF 
01340     65 0D 05 F6 | 	mov	arg01, ##@LR__0202
01344     30 16 B0 FD | 	call	#_hng012_writeln
01348                 | '   v.setwritecolors(v.c_cyan,0)
01348     00 0E 05 F6 | 	mov	arg02, #0
0134c                 | ' 
0134c                 | ' 
0134c                 | ' write_color:=ff
0134c     CC F0 04 F1 | 	add	objptr, #204
01350     78 2E 69 FC | 	wrlong	#151, objptr
01354                 | ' write_background:=bb
01354     04 F0 04 F1 | 	add	objptr, #4
01358     78 00 68 FC | 	wrlong	#0, objptr
0135c     D0 F0 84 F1 | 	sub	objptr, #208
01360                 | '   v.writeln(string("cyan"))
01360     1D 00 00 FF 
01364     6B 0D 05 F6 | 	mov	arg01, ##@LR__0203
01368     0C 16 B0 FD | 	call	#_hng012_writeln
0136c                 | '   v.setwritecolors(v.c_red,0)
0136c     00 0E 05 F6 | 	mov	arg02, #0
01370                 | ' 
01370                 | ' 
01370                 | ' write_color:=ff
01370     CC F0 04 F1 | 	add	objptr, #204
01374     78 4E 68 FC | 	wrlong	#39, objptr
01378                 | ' write_background:=bb
01378     04 F0 04 F1 | 	add	objptr, #4
0137c     78 00 68 FC | 	wrlong	#0, objptr
01380     D0 F0 84 F1 | 	sub	objptr, #208
01384                 | '   v.writeln(string("red"))
01384     1D 00 00 FF 
01388     70 0D 05 F6 | 	mov	arg01, ##@LR__0204
0138c     E8 15 B0 FD | 	call	#_hng012_writeln
01390                 | '   v.setwritecolors(v.c_magenta,0)
01390     00 0E 05 F6 | 	mov	arg02, #0
01394                 | ' 
01394                 | ' 
01394                 | ' write_color:=ff
01394     CC F0 04 F1 | 	add	objptr, #204
01398     78 8E 68 FC | 	wrlong	#71, objptr
0139c                 | ' write_background:=bb
0139c     04 F0 04 F1 | 	add	objptr, #4
013a0     78 00 68 FC | 	wrlong	#0, objptr
013a4     D0 F0 84 F1 | 	sub	objptr, #208
013a8                 | '   v.writeln(string("magenta"))
013a8     1D 00 00 FF 
013ac     74 0D 05 F6 | 	mov	arg01, ##@LR__0205
013b0     C4 15 B0 FD | 	call	#_hng012_writeln
013b4                 | '   v.setwritecolors(v.c_brown,0)
013b4     00 0E 05 F6 | 	mov	arg02, #0
013b8                 | ' 
013b8                 | ' 
013b8                 | ' write_color:=ff
013b8     CC F0 04 F1 | 	add	objptr, #204
013bc     78 EC 69 FC | 	wrlong	#246, objptr
013c0                 | ' write_background:=bb
013c0     04 F0 04 F1 | 	add	objptr, #4
013c4     78 00 68 FC | 	wrlong	#0, objptr
013c8     D0 F0 84 F1 | 	sub	objptr, #208
013cc                 | '   v.writeln(string("brown"))
013cc     1D 00 00 FF 
013d0     7C 0D 05 F6 | 	mov	arg01, ##@LR__0206
013d4     A0 15 B0 FD | 	call	#_hng012_writeln
013d8                 | '   v.setwritecolors(v.c_lightgray,0)
013d8     00 0E 05 F6 | 	mov	arg02, #0
013dc                 | ' 
013dc                 | ' 
013dc                 | ' write_color:=ff
013dc     CC F0 04 F1 | 	add	objptr, #204
013e0     78 14 68 FC | 	wrlong	#10, objptr
013e4                 | ' write_background:=bb
013e4     04 F0 04 F1 | 	add	objptr, #4
013e8     78 00 68 FC | 	wrlong	#0, objptr
013ec     D0 F0 84 F1 | 	sub	objptr, #208
013f0                 | '   v.writeln(string("light gray"))
013f0     1D 00 00 FF 
013f4     82 0D 05 F6 | 	mov	arg01, ##@LR__0207
013f8     7C 15 B0 FD | 	call	#_hng012_writeln
013fc                 | '   v.setwritecolors(v.c_darkgray,0)
013fc     00 0E 05 F6 | 	mov	arg02, #0
01400                 | ' 
01400                 | ' 
01400                 | ' write_color:=ff
01400     CC F0 04 F1 | 	add	objptr, #204
01404     78 0A 68 FC | 	wrlong	#5, objptr
01408                 | ' write_background:=bb
01408     04 F0 04 F1 | 	add	objptr, #4
0140c     78 00 68 FC | 	wrlong	#0, objptr
01410     D0 F0 84 F1 | 	sub	objptr, #208
01414                 | '   v.writeln(string("dark gray"))
01414     1D 00 00 FF 
01418     8D 0D 05 F6 | 	mov	arg01, ##@LR__0208
0141c     58 15 B0 FD | 	call	#_hng012_writeln
01420                 | '   v.setwritecolors(v.c_lightblue,0)
01420     00 0E 05 F6 | 	mov	arg02, #0
01424                 | ' 
01424                 | ' 
01424                 | ' write_color:=ff
01424     CC F0 04 F1 | 	add	objptr, #204
01428     78 F6 68 FC | 	wrlong	#123, objptr
0142c                 | ' write_background:=bb
0142c     04 F0 04 F1 | 	add	objptr, #4
01430     78 00 68 FC | 	wrlong	#0, objptr
01434     D0 F0 84 F1 | 	sub	objptr, #208
01438                 | '   v.writeln(string("light blue"))
01438     1D 00 00 FF 
0143c     97 0D 05 F6 | 	mov	arg01, ##@LR__0209
01440     34 15 B0 FD | 	call	#_hng012_writeln
01444                 | '   v.setwritecolors(v.c_lightgreen,0)
01444     00 0E 05 F6 | 	mov	arg02, #0
01448                 | ' 
01448                 | ' 
01448                 | ' write_color:=ff
01448     CC F0 04 F1 | 	add	objptr, #204
0144c     78 96 69 FC | 	wrlong	#203, objptr
01450                 | ' write_background:=bb
01450     04 F0 04 F1 | 	add	objptr, #4
01454     78 00 68 FC | 	wrlong	#0, objptr
01458     D0 F0 84 F1 | 	sub	objptr, #208
0145c                 | '   v.writeln(string("light green"))
0145c     1D 00 00 FF 
01460     A2 0D 05 F6 | 	mov	arg01, ##@LR__0210
01464     10 15 B0 FD | 	call	#_hng012_writeln
01468                 | '   v.setwritecolors(v.c_lightcyan,0)
01468     00 0E 05 F6 | 	mov	arg02, #0
0146c                 | ' 
0146c                 | ' 
0146c                 | ' write_color:=ff
0146c     CC F0 04 F1 | 	add	objptr, #204
01470     78 36 69 FC | 	wrlong	#155, objptr
01474                 | ' write_background:=bb
01474     04 F0 04 F1 | 	add	objptr, #4
01478     78 00 68 FC | 	wrlong	#0, objptr
0147c     D0 F0 84 F1 | 	sub	objptr, #208
01480                 | '   v.writeln(string("light cyan"))
01480     1D 00 00 FF 
01484     AE 0D 05 F6 | 	mov	arg01, ##@LR__0211
01488     EC 14 B0 FD | 	call	#_hng012_writeln
0148c                 | '   v.setwritecolors(v.c_lightred,0)
0148c     00 0E 05 F6 | 	mov	arg02, #0
01490                 | ' 
01490                 | ' 
01490                 | ' write_color:=ff
01490     CC F0 04 F1 | 	add	objptr, #204
01494     78 56 68 FC | 	wrlong	#43, objptr
01498                 | ' write_background:=bb
01498     04 F0 04 F1 | 	add	objptr, #4
0149c     78 00 68 FC | 	wrlong	#0, objptr
014a0     D0 F0 84 F1 | 	sub	objptr, #208
014a4                 | '   v.writeln(string("light red"))
014a4     1D 00 00 FF 
014a8     B9 0D 05 F6 | 	mov	arg01, ##@LR__0212
014ac     C8 14 B0 FD | 	call	#_hng012_writeln
014b0                 | '   v.setwritecolors(v.c_lightmagenta,0)
014b0     00 0E 05 F6 | 	mov	arg02, #0
014b4                 | ' 
014b4                 | ' 
014b4                 | ' write_color:=ff
014b4     CC F0 04 F1 | 	add	objptr, #204
014b8     78 96 68 FC | 	wrlong	#75, objptr
014bc                 | ' write_background:=bb
014bc     04 F0 04 F1 | 	add	objptr, #4
014c0     78 00 68 FC | 	wrlong	#0, objptr
014c4     D0 F0 84 F1 | 	sub	objptr, #208
014c8                 | '   v.writeln(string("light magenta"))
014c8     1D 00 00 FF 
014cc     C3 0D 05 F6 | 	mov	arg01, ##@LR__0213
014d0     A4 14 B0 FD | 	call	#_hng012_writeln
014d4                 | '   v.setwritecolors(v.c_yellow,0)
014d4     00 0E 05 F6 | 	mov	arg02, #0
014d8                 | ' 
014d8                 | ' 
014d8                 | ' write_color:=ff
014d8     CC F0 04 F1 | 	add	objptr, #204
014dc     78 D4 69 FC | 	wrlong	#234, objptr
014e0                 | ' write_background:=bb
014e0     04 F0 04 F1 | 	add	objptr, #4
014e4     78 00 68 FC | 	wrlong	#0, objptr
014e8     D0 F0 84 F1 | 	sub	objptr, #208
014ec                 | '   v.writeln(string("yellow"))
014ec     1D 00 00 FF 
014f0     D1 0D 05 F6 | 	mov	arg01, ##@LR__0214
014f4     80 14 B0 FD | 	call	#_hng012_writeln
014f8                 | '   v.setwritecolors(v.c_white,0)
014f8     00 0E 05 F6 | 	mov	arg02, #0
014fc                 | ' 
014fc                 | ' 
014fc                 | ' write_color:=ff
014fc     CC F0 04 F1 | 	add	objptr, #204
01500     78 1E 68 FC | 	wrlong	#15, objptr
01504                 | ' write_background:=bb
01504     04 F0 04 F1 | 	add	objptr, #4
01508     78 00 68 FC | 	wrlong	#0, objptr
0150c     D0 F0 84 F1 | 	sub	objptr, #208
01510                 | '   v.writeln(string("white"))
01510     1D 00 00 FF 
01514     D8 0D 05 F6 | 	mov	arg01, ##@LR__0215
01518     5C 14 B0 FD | 	call	#_hng012_writeln
0151c                 | '   v.write(string("Clock frequency: "))
0151c     1D 00 00 FF 
01520     DE 0D 05 F6 | 	mov	arg01, ##@LR__0216
01524     64 12 B0 FD | 	call	#_hng012_write
01528                 | '   v.writeln(v.inttostr(clkfreq))
01528     14 0C 05 FB | 	rdlong	arg01, #20
0152c     A8 16 B0 FD | 	call	#_hng012_inttostr
01530     7D 0C 01 F6 | 	mov	arg01, result1
01534     40 14 B0 FD | 	call	#_hng012_writeln
01538                 | ' 
01538                 | '   repeat i from 0 to 15
01538     04 F0 84 F1 | 	sub	objptr, #4
0153c     78 00 68 FC | 	wrlong	#0, objptr
01540     84 F0 84 F1 | 	sub	objptr, #132
01544                 | LR__0038
01544                 | '     repeat j from 0 to 15
01544     00 3C 05 F6 | 	mov	local07, #0
01548                 | LR__0039
01548                 | '       repeat k from 0 to 1
01548     00 48 05 F6 | 	mov	local13, #0
0154c                 | LR__0040
0154c                 | '         v.setbackcolor(2*i+50,j+8,16*i+j)
0154c     84 F0 04 F1 | 	add	objptr, #132
01550     78 0C 01 FB | 	rdlong	arg01, objptr
01554     01 0C 65 F0 | 	shl	arg01, #1
01558     32 0C 05 F1 | 	add	arg01, #50
0155c     9E 0E 01 F6 | 	mov	arg02, local07
01560     08 0E 05 F1 | 	add	arg02, #8
01564     78 10 01 FB | 	rdlong	arg03, objptr
01568     04 10 65 F0 | 	shl	arg03, #4
0156c     9E 10 01 F1 | 	add	arg03, local07
01570     04 F0 04 F1 | 	add	objptr, #4
01574     00 0D B0 FD | 	call	#_hng012_setbackcolor
01578                 | '         v.setbackcolor(2*i+51,j+8,16*i+j)
01578     04 F0 84 F1 | 	sub	objptr, #4
0157c     78 0C 01 FB | 	rdlong	arg01, objptr
01580     01 0C 65 F0 | 	shl	arg01, #1
01584     33 0C 05 F1 | 	add	arg01, #51
01588     9E 0E 01 F6 | 	mov	arg02, local07
0158c     08 0E 05 F1 | 	add	arg02, #8
01590     78 10 01 FB | 	rdlong	arg03, objptr
01594     04 10 65 F0 | 	shl	arg03, #4
01598     9E 10 01 F1 | 	add	arg03, local07
0159c     04 F0 04 F1 | 	add	objptr, #4
015a0     D4 0C B0 FD | 	call	#_hng012_setbackcolor
015a4     88 F0 84 F1 | 	sub	objptr, #136
015a8     01 48 05 F1 | 	add	local13, #1
015ac     02 48 5D F2 | 	cmps	local13, #2 wcz
015b0     98 FF 9F CD |  if_b	jmp	#LR__0040
015b4     01 3C 05 F1 | 	add	local07, #1
015b8     10 3C 5D F2 | 	cmps	local07, #16 wcz
015bc     88 FF 9F CD |  if_b	jmp	#LR__0039
015c0     84 F0 04 F1 | 	add	objptr, #132
015c4     78 3E 01 FB | 	rdlong	local08, objptr
015c8     01 3E 05 F1 | 	add	local08, #1
015cc     78 3E 61 FC | 	wrlong	local08, objptr
015d0     84 F0 84 F1 | 	sub	objptr, #132
015d4     10 3E 5D F2 | 	cmps	local08, #16 wcz
015d8     68 FF 9F CD |  if_b	jmp	#LR__0038
015dc                 | ' 
015dc                 | '   v.waitvbl(1000)
015dc     01 00 00 FF 
015e0     E8 0D 05 F6 | 	mov	arg01, ##1000
015e4     88 F0 04 F1 | 	add	objptr, #136
015e8     C4 0A B0 FD | 	call	#_hng012_waitvbl
015ec                 | ' 
015ec                 | ' 
015ec                 | ' 
015ec                 | '   v.setcursorpos(0,25)
015ec     19 0E 05 F6 | 	mov	arg02, #25
015f0                 | ' 
015f0                 | ' ''---------- Set the (x,y) position of cursor
015f0                 | ' 
015f0                 | ' cursor_x:=x
015f0     C8 F0 04 F1 | 	add	objptr, #200
015f4     78 00 48 FC | 	wrbyte	#0, objptr
015f8                 | ' cursor_y:=y
015f8     01 F0 04 F1 | 	add	objptr, #1
015fc     78 32 48 FC | 	wrbyte	#25, objptr
01600     C9 F0 84 F1 | 	sub	objptr, #201
01604                 | '   v.waitvbl(120)
01604     78 0C 05 F6 | 	mov	arg01, #120
01608     A4 0A B0 FD | 	call	#_hng012_waitvbl
0160c                 | '   v.setwritecolors(v.c_white,v.c_black)
0160c     00 0E 05 F6 | 	mov	arg02, #0
01610                 | ' 
01610                 | ' 
01610                 | ' write_color:=ff
01610     CC F0 04 F1 | 	add	objptr, #204
01614     78 1E 68 FC | 	wrlong	#15, objptr
01618                 | ' write_background:=bb
01618     04 F0 04 F1 | 	add	objptr, #4
0161c     78 00 68 FC | 	wrlong	#0, objptr
01620     D0 F0 84 F1 | 	sub	objptr, #208
01624                 | '   v.write(string("C:\>"))
01624     1D 00 00 FF 
01628     F0 0D 05 F6 | 	mov	arg01, ##@LR__0217
0162c     5C 11 B0 FD | 	call	#_hng012_write
01630                 | '   v.waitvbl(120)
01630     78 0C 05 F6 | 	mov	arg01, #120
01634     78 0A B0 FD | 	call	#_hng012_waitvbl
01638                 | '   v.write(string("p"))
01638     1D 00 00 FF 
0163c     F5 0D 05 F6 | 	mov	arg01, ##@LR__0218
01640     48 11 B0 FD | 	call	#_hng012_write
01644                 | '   v.waitvbl(10)
01644     0A 0C 05 F6 | 	mov	arg01, #10
01648     64 0A B0 FD | 	call	#_hng012_waitvbl
0164c                 | '   v.write(string("c"))
0164c     1D 00 00 FF 
01650     F7 0D 05 F6 | 	mov	arg01, ##@LR__0219
01654     34 11 B0 FD | 	call	#_hng012_write
01658                 | '   v.waitvbl(10)
01658     0A 0C 05 F6 | 	mov	arg01, #10
0165c     50 0A B0 FD | 	call	#_hng012_waitvbl
01660                 | '   v.writeln(string(" "))
01660     1D 00 00 FF 
01664     F9 0D 05 F6 | 	mov	arg01, ##@LR__0220
01668     0C 13 B0 FD | 	call	#_hng012_writeln
0166c                 | '   v.waitvbl(120)
0166c     78 0C 05 F6 | 	mov	arg01, #120
01670     3C 0A B0 FD | 	call	#_hng012_waitvbl
01674                 | ' 
01674                 | '   teststring[100]:=0
01674     24 F0 84 F1 | 	sub	objptr, #36
01678     78 00 48 FC | 	wrbyte	#0, objptr
0167c                 | '   repeat i from 0 to 99
0167c     20 F0 04 F1 | 	add	objptr, #32
01680     78 00 68 FC | 	wrlong	#0, objptr
01684     84 F0 84 F1 | 	sub	objptr, #132
01688     A4 E9 9F FE | 	loc	pa,	#(@LR__0042-@LR__0041)
0168c     35 00 A0 FD | 	call	#FCACHE_LOAD_
01690                 | LR__0041
01690                 | '     teststring[i]:=32
01690     84 F0 04 F1 | 	add	objptr, #132
01694     78 3E 01 FB | 	rdlong	local08, objptr
01698     84 F0 84 F1 | 	sub	objptr, #132
0169c     78 3E 01 F1 | 	add	local08, objptr
016a0     9F 40 48 FC | 	wrbyte	#32, local08
016a4     84 F0 04 F1 | 	add	objptr, #132
016a8     78 3E 01 FB | 	rdlong	local08, objptr
016ac     01 3E 05 F1 | 	add	local08, #1
016b0     78 3E 61 FC | 	wrlong	local08, objptr
016b4     84 F0 84 F1 | 	sub	objptr, #132
016b8     64 3E 5D F2 | 	cmps	local08, #100 wcz
016bc     D0 FF 9F CD |  if_b	jmp	#LR__0041
016c0                 | LR__0042
016c0                 | '   repeat i from 21 to 29
016c0     84 F0 04 F1 | 	add	objptr, #132
016c4     78 2A 68 FC | 	wrlong	#21, objptr
016c8     84 F0 84 F1 | 	sub	objptr, #132
016cc                 | LR__0043
016cc                 | '     v.outtextxyc(0,i,@teststring,v.c_white,v.c_black)
016cc     84 F0 04 F1 | 	add	objptr, #132
016d0     78 0E 01 FB | 	rdlong	arg02, objptr
016d4     84 F0 84 F1 | 	sub	objptr, #132
016d8     00 0C 05 F6 | 	mov	arg01, #0
016dc     78 10 01 F6 | 	mov	arg03, objptr
016e0     0F 12 05 F6 | 	mov	arg04, #15
016e4     00 14 05 F6 | 	mov	arg05, #0
016e8     88 F0 04 F1 | 	add	objptr, #136
016ec     DC 0D B0 FD | 	call	#_hng012_outtextxyc
016f0     04 F0 84 F1 | 	sub	objptr, #4
016f4     78 3E 01 FB | 	rdlong	local08, objptr
016f8     01 3E 05 F1 | 	add	local08, #1
016fc     78 3E 61 FC | 	wrlong	local08, objptr
01700     84 F0 84 F1 | 	sub	objptr, #132
01704     1E 3E 5D F2 | 	cmps	local08, #30 wcz
01708     C0 FF 9F CD |  if_b	jmp	#LR__0043
0170c                 | ' 
0170c                 | '   v.write(string("The Propeller Commander, Copyleft ("))
0170c     1D 00 00 FF 
01710     FB 0D 05 F6 | 	mov	arg01, ##@LR__0221
01714     88 F0 04 F1 | 	add	objptr, #136
01718     70 10 B0 FD | 	call	#_hng012_write
0171c     88 F0 84 F1 | 	sub	objptr, #136
01720                 | '   teststring[0]:=1
01720     78 02 48 FC | 	wrbyte	#1, objptr
01724                 | '   teststring[1]:=0
01724     01 F0 04 F1 | 	add	objptr, #1
01728     78 00 48 FC | 	wrbyte	#0, objptr
0172c     01 F0 84 F1 | 	sub	objptr, #1
01730                 | '   v.write(@teststring)
01730     78 0C 01 F6 | 	mov	arg01, objptr
01734     88 F0 04 F1 | 	add	objptr, #136
01738     50 10 B0 FD | 	call	#_hng012_write
0173c                 | '   v.writeln(string(") 2021 pik33@o2.pl"))
0173c     1E 00 00 FF 
01740     1F 0C 05 F6 | 	mov	arg01, ##@LR__0222
01744     30 12 B0 FD | 	call	#_hng012_writeln
01748                 | '   v.waitvbl(60)
01748     3C 0C 05 F6 | 	mov	arg01, #60
0174c     60 09 B0 FD | 	call	#_hng012_waitvbl
01750                 | '   v.writeln(string(" "))
01750     1E 00 00 FF 
01754     32 0C 05 F6 | 	mov	arg01, ##@LR__0223
01758     1C 12 B0 FD | 	call	#_hng012_writeln
0175c                 | '   v.write(string("C:\>"))
0175c     1E 00 00 FF 
01760     34 0C 05 F6 | 	mov	arg01, ##@LR__0224
01764     24 10 B0 FD | 	call	#_hng012_write
01768                 | ' 
01768                 | '   v.setwritecolors(v.c_lightcyan,v.c_blue)
01768                 | ' 
01768                 | ' 
01768                 | ' write_color:=ff
01768     CC F0 04 F1 | 	add	objptr, #204
0176c     78 36 69 FC | 	wrlong	#155, objptr
01770                 | ' write_background:=bb
01770     04 F0 04 F1 | 	add	objptr, #4
01774     78 EA 68 FC | 	wrlong	#117, objptr
01778                 | ' 
01778                 | '   repeat i from 1 to 98
01778     D4 F0 84 F1 | 	sub	objptr, #212
0177c     78 02 68 FC | 	wrlong	#1, objptr
01780     84 F0 84 F1 | 	sub	objptr, #132
01784     A8 E8 9F FE | 	loc	pa,	#(@LR__0045-@LR__0044)
01788     35 00 A0 FD | 	call	#FCACHE_LOAD_
0178c                 | LR__0044
0178c                 | '     teststring[i]:=$CD
0178c     84 F0 04 F1 | 	add	objptr, #132
01790     78 3E 01 FB | 	rdlong	local08, objptr
01794     84 F0 84 F1 | 	sub	objptr, #132
01798     78 3E 01 F1 | 	add	local08, objptr
0179c     9F 9A 49 FC | 	wrbyte	#205, local08
017a0     84 F0 04 F1 | 	add	objptr, #132
017a4     78 3E 01 FB | 	rdlong	local08, objptr
017a8     01 3E 05 F1 | 	add	local08, #1
017ac     78 3E 61 FC | 	wrlong	local08, objptr
017b0     84 F0 84 F1 | 	sub	objptr, #132
017b4     63 3E 5D F2 | 	cmps	local08, #99 wcz
017b8     D0 FF 9F CD |  if_b	jmp	#LR__0044
017bc                 | LR__0045
017bc                 | '   teststring[0]:=$C9
017bc     78 92 49 FC | 	wrbyte	#201, objptr
017c0                 | '   teststring[50]:=$C9
017c0     32 F0 04 F1 | 	add	objptr, #50
017c4     78 92 49 FC | 	wrbyte	#201, objptr
017c8                 | ' 
017c8                 | '   teststring[49]:=$BB
017c8     01 F0 84 F1 | 	sub	objptr, #1
017cc     78 76 49 FC | 	wrbyte	#187, objptr
017d0                 | '   teststring[99]:=$BB
017d0     32 F0 04 F1 | 	add	objptr, #50
017d4     78 76 49 FC | 	wrbyte	#187, objptr
017d8                 | '   teststring[100]:=0
017d8     00 0C 05 F6 | 	mov	arg01, #0
017dc     01 F0 04 F1 | 	add	objptr, #1
017e0     78 00 48 FC | 	wrbyte	#0, objptr
017e4     64 F0 84 F1 | 	sub	objptr, #100
017e8                 | ' 
017e8                 | '   v.outtextxyc(0,0,@teststring,v.c_lightcyan, v.c_blue)
017e8     00 0E 05 F6 | 	mov	arg02, #0
017ec     78 10 01 F6 | 	mov	arg03, objptr
017f0     9B 12 05 F6 | 	mov	arg04, #155
017f4     75 14 05 F6 | 	mov	arg05, #117
017f8     88 F0 04 F1 | 	add	objptr, #136
017fc     CC 0C B0 FD | 	call	#_hng012_outtextxyc
01800                 | '   v.outtextxyc(71,0,string(" Status "),v.c_lightcyan, v.c_blue)
01800     1E 00 00 FF 
01804     39 10 05 F6 | 	mov	arg03, ##@LR__0225
01808     47 0C 05 F6 | 	mov	arg01, #71
0180c     00 0E 05 F6 | 	mov	arg02, #0
01810     9B 12 05 F6 | 	mov	arg04, #155
01814     75 14 05 F6 | 	mov	arg05, #117
01818     B0 0C B0 FD | 	call	#_hng012_outtextxyc
0181c                 | '   v.outtextxyc(23,0,string(" C:\ "),v.c_blue, v.c_lightcyan)
0181c     1E 00 00 FF 
01820     42 10 05 F6 | 	mov	arg03, ##@LR__0226
01824     17 0C 05 F6 | 	mov	arg01, #23
01828     00 0E 05 F6 | 	mov	arg02, #0
0182c     75 12 05 F6 | 	mov	arg04, #117
01830     9B 14 05 F6 | 	mov	arg05, #155
01834     94 0C B0 FD | 	call	#_hng012_outtextxyc
01838                 | '   repeat i from 1 to 98
01838     04 F0 84 F1 | 	sub	objptr, #4
0183c     78 02 68 FC | 	wrlong	#1, objptr
01840     84 F0 84 F1 | 	sub	objptr, #132
01844     E8 E7 9F FE | 	loc	pa,	#(@LR__0047-@LR__0046)
01848     35 00 A0 FD | 	call	#FCACHE_LOAD_
0184c                 | LR__0046
0184c                 | '     teststring[i]:=32
0184c     84 F0 04 F1 | 	add	objptr, #132
01850     78 3E 01 FB | 	rdlong	local08, objptr
01854     84 F0 84 F1 | 	sub	objptr, #132
01858     78 3E 01 F1 | 	add	local08, objptr
0185c     9F 40 48 FC | 	wrbyte	#32, local08
01860     84 F0 04 F1 | 	add	objptr, #132
01864     78 3E 01 FB | 	rdlong	local08, objptr
01868     01 3E 05 F1 | 	add	local08, #1
0186c     78 3E 61 FC | 	wrlong	local08, objptr
01870     84 F0 84 F1 | 	sub	objptr, #132
01874     63 3E 5D F2 | 	cmps	local08, #99 wcz
01878     D0 FF 9F CD |  if_b	jmp	#LR__0046
0187c                 | LR__0047
0187c                 | '   teststring[43]:=$B3
0187c     2B F0 04 F1 | 	add	objptr, #43
01880     78 66 49 FC | 	wrbyte	#179, objptr
01884                 | '   teststring[32]:=$B3
01884     0B F0 84 F1 | 	sub	objptr, #11
01888     78 66 49 FC | 	wrbyte	#179, objptr
0188c                 | '   teststring[22]:=$B3
0188c     0A F0 84 F1 | 	sub	objptr, #10
01890     78 66 49 FC | 	wrbyte	#179, objptr
01894     16 F0 84 F1 | 	sub	objptr, #22
01898                 | '   teststring[0]:=$BA
01898     78 74 49 FC | 	wrbyte	#186, objptr
0189c                 | '   teststring[49]:=$BA
0189c     31 F0 04 F1 | 	add	objptr, #49
018a0     78 74 49 FC | 	wrbyte	#186, objptr
018a4                 | '   teststring[50]:=$BA
018a4     01 F0 04 F1 | 	add	objptr, #1
018a8     78 74 49 FC | 	wrbyte	#186, objptr
018ac                 | '   teststring[99]:=$BA
018ac     31 F0 04 F1 | 	add	objptr, #49
018b0     78 74 49 FC | 	wrbyte	#186, objptr
018b4                 | '   repeat i from 1 to 19
018b4     21 F0 04 F1 | 	add	objptr, #33
018b8     78 02 68 FC | 	wrlong	#1, objptr
018bc     84 F0 84 F1 | 	sub	objptr, #132
018c0                 | LR__0048
018c0                 | '     v.outtextxyc(0,i,@teststring,v.c_lightcyan, v.c_blue)
018c0     84 F0 04 F1 | 	add	objptr, #132
018c4     78 0E 01 FB | 	rdlong	arg02, objptr
018c8     84 F0 84 F1 | 	sub	objptr, #132
018cc     00 0C 05 F6 | 	mov	arg01, #0
018d0     78 10 01 F6 | 	mov	arg03, objptr
018d4     9B 12 05 F6 | 	mov	arg04, #155
018d8     75 14 05 F6 | 	mov	arg05, #117
018dc     88 F0 04 F1 | 	add	objptr, #136
018e0     E8 0B B0 FD | 	call	#_hng012_outtextxyc
018e4     04 F0 84 F1 | 	sub	objptr, #4
018e8     78 3E 01 FB | 	rdlong	local08, objptr
018ec     01 3E 05 F1 | 	add	local08, #1
018f0     78 3E 61 FC | 	wrlong	local08, objptr
018f4     84 F0 84 F1 | 	sub	objptr, #132
018f8     14 3E 5D F2 | 	cmps	local08, #20 wcz
018fc     C0 FF 9F CD |  if_b	jmp	#LR__0048
01900                 | '   repeat i from 1 to 98
01900     84 F0 04 F1 | 	add	objptr, #132
01904     78 02 68 FC | 	wrlong	#1, objptr
01908     84 F0 84 F1 | 	sub	objptr, #132
0190c     20 E7 9F FE | 	loc	pa,	#(@LR__0050-@LR__0049)
01910     35 00 A0 FD | 	call	#FCACHE_LOAD_
01914                 | LR__0049
01914                 | '     teststring[i]:=$CD
01914     84 F0 04 F1 | 	add	objptr, #132
01918     78 3E 01 FB | 	rdlong	local08, objptr
0191c     84 F0 84 F1 | 	sub	objptr, #132
01920     78 3E 01 F1 | 	add	local08, objptr
01924     9F 9A 49 FC | 	wrbyte	#205, local08
01928     84 F0 04 F1 | 	add	objptr, #132
0192c     78 3E 01 FB | 	rdlong	local08, objptr
01930     01 3E 05 F1 | 	add	local08, #1
01934     78 3E 61 FC | 	wrlong	local08, objptr
01938     84 F0 84 F1 | 	sub	objptr, #132
0193c     63 3E 5D F2 | 	cmps	local08, #99 wcz
01940     D0 FF 9F CD |  if_b	jmp	#LR__0049
01944                 | LR__0050
01944                 | '   teststring[0]:=$C8
01944     78 90 49 FC | 	wrbyte	#200, objptr
01948                 | '   teststring[50]:=$C8
01948     32 F0 04 F1 | 	add	objptr, #50
0194c     78 90 49 FC | 	wrbyte	#200, objptr
01950                 | ' 
01950                 | '   teststring[49]:=$BC
01950     BC 4C 05 F6 | 	mov	local15, #188
01954     01 F0 84 F1 | 	sub	objptr, #1
01958     78 78 49 FC | 	wrbyte	#188, objptr
0195c                 | '   teststring[99]:=$BC
0195c     32 F0 04 F1 | 	add	objptr, #50
01960     78 78 49 FC | 	wrbyte	#188, objptr
01964                 | '   teststring[100]:=0
01964     00 0C 05 F6 | 	mov	arg01, #0
01968     01 F0 04 F1 | 	add	objptr, #1
0196c     78 00 48 FC | 	wrbyte	#0, objptr
01970     64 F0 84 F1 | 	sub	objptr, #100
01974                 | ' 
01974                 | '   v.outtextxyc(0,20,@teststring,v.c_lightcyan, v.c_blue)
01974     14 0E 05 F6 | 	mov	arg02, #20
01978     78 10 01 F6 | 	mov	arg03, objptr
0197c     9B 12 05 F6 | 	mov	arg04, #155
01980     75 14 05 F6 | 	mov	arg05, #117
01984     88 F0 04 F1 | 	add	objptr, #136
01988     40 0B B0 FD | 	call	#_hng012_outtextxyc
0198c                 | '   v.outtextxy(56,2,string("The Propeller Commander, Version 0.00"))
0198c     1E 00 00 FF 
01990     48 10 05 F6 | 	mov	arg03, ##@LR__0227
01994     38 0C 05 F6 | 	mov	arg01, #56
01998     02 0E 05 F6 | 	mov	arg02, #2
0199c     54 0A B0 FD | 	call	#_hng012_outtextxy
019a0                 | '   v.outtextxy(60,3,string("Copyleft ("))
019a0     1E 00 00 FF 
019a4     6E 10 05 F6 | 	mov	arg03, ##@LR__0228
019a8     3C 0C 05 F6 | 	mov	arg01, #60
019ac     03 0E 05 F6 | 	mov	arg02, #3
019b0     40 0A B0 FD | 	call	#_hng012_outtextxy
019b4     88 F0 84 F1 | 	sub	objptr, #136
019b8                 | '   teststring[0]:=1
019b8     78 02 48 FC | 	wrbyte	#1, objptr
019bc                 | '   teststring[1]:=0
019bc     01 F0 04 F1 | 	add	objptr, #1
019c0     78 00 48 FC | 	wrbyte	#0, objptr
019c4     01 F0 84 F1 | 	sub	objptr, #1
019c8                 | '   v.outtextxy(70,3,@teststring)
019c8     46 0C 05 F6 | 	mov	arg01, #70
019cc     03 0E 05 F6 | 	mov	arg02, #3
019d0     78 10 01 F6 | 	mov	arg03, objptr
019d4     88 F0 04 F1 | 	add	objptr, #136
019d8     18 0A B0 FD | 	call	#_hng012_outtextxy
019dc                 | '   v.outtextxy(71,3,string(") 2021 pik33@o2.pl"))
019dc     1E 00 00 FF 
019e0     79 10 05 F6 | 	mov	arg03, ##@LR__0229
019e4     47 0C 05 F6 | 	mov	arg01, #71
019e8     03 0E 05 F6 | 	mov	arg02, #3
019ec     04 0A B0 FD | 	call	#_hng012_outtextxy
019f0                 | ' 
019f0                 | '   repeat i from 1 to 48
019f0     04 F0 84 F1 | 	sub	objptr, #4
019f4     78 02 68 FC | 	wrlong	#1, objptr
019f8     84 F0 84 F1 | 	sub	objptr, #132
019fc                 | LR__0051
019fc                 | '     teststring[i]:=$CD
019fc     84 F0 04 F1 | 	add	objptr, #132
01a00     78 3E 01 FB | 	rdlong	local08, objptr
01a04     84 F0 84 F1 | 	sub	objptr, #132
01a08     78 3E 01 F1 | 	add	local08, objptr
01a0c     9F 9A 49 FC | 	wrbyte	#205, local08
01a10                 | '     teststring[50]:=0
01a10     32 F0 04 F1 | 	add	objptr, #50
01a14     78 00 48 FC | 	wrbyte	#0, objptr
01a18     32 F0 84 F1 | 	sub	objptr, #50
01a1c                 | '     teststring[0]:=$CC
01a1c     78 98 49 FC | 	wrbyte	#204, objptr
01a20                 | '     teststring[49]:=$B9
01a20     31 F0 04 F1 | 	add	objptr, #49
01a24     78 72 49 FC | 	wrbyte	#185, objptr
01a28     31 F0 84 F1 | 	sub	objptr, #49
01a2c                 | '     v.outtextxy(50,5,@teststring)
01a2c     32 0C 05 F6 | 	mov	arg01, #50
01a30     05 0E 05 F6 | 	mov	arg02, #5
01a34     78 10 01 F6 | 	mov	arg03, objptr
01a38     88 F0 04 F1 | 	add	objptr, #136
01a3c     B4 09 B0 FD | 	call	#_hng012_outtextxy
01a40     88 F0 84 F1 | 	sub	objptr, #136
01a44                 | '     v.outtextxy(50,14,@teststring)
01a44     32 0C 05 F6 | 	mov	arg01, #50
01a48     0E 0E 05 F6 | 	mov	arg02, #14
01a4c     78 10 01 F6 | 	mov	arg03, objptr
01a50     88 F0 04 F1 | 	add	objptr, #136
01a54     9C 09 B0 FD | 	call	#_hng012_outtextxy
01a58     04 F0 84 F1 | 	sub	objptr, #4
01a5c     78 3E 01 FB | 	rdlong	local08, objptr
01a60     01 3E 05 F1 | 	add	local08, #1
01a64     78 3E 61 FC | 	wrlong	local08, objptr
01a68     84 F0 84 F1 | 	sub	objptr, #132
01a6c     31 3E 5D F2 | 	cmps	local08, #49 wcz
01a70     88 FF 9F CD |  if_b	jmp	#LR__0051
01a74                 | ' 
01a74                 | '   v.outtextxy(65,7,string("524,288 Bytes Memory"))
01a74     1E 00 00 FF 
01a78     8C 10 05 F6 | 	mov	arg03, ##@LR__0230
01a7c     41 0C 05 F6 | 	mov	arg01, #65
01a80     07 0E 05 F6 | 	mov	arg02, #7
01a84     88 F0 04 F1 | 	add	objptr, #136
01a88     68 09 B0 FD | 	call	#_hng012_outtextxy
01a8c                 | '   i:=$80000-@aend
01a8c     13 4C C5 F9 | 	decod	local15, #19
01a90     7A 4C 81 F1 | 	sub	local15, ptr__dat__
01a94     04 F0 84 F1 | 	sub	objptr, #4
01a98     78 4C 61 FC | 	wrlong	local15, objptr
01a9c                 | '   v.outtextxy(66,8,v.inttostr(i / 1000))
01a9c     42 4C 05 F6 | 	mov	local15, #66
01aa0     08 3E 05 F6 | 	mov	local08, #8
01aa4     78 5E 01 FB | 	rdlong	muldiva_, objptr
01aa8     84 F0 84 F1 | 	sub	objptr, #132
01aac     01 00 00 FF 
01ab0     E8 61 05 F6 | 	mov	muldivb_, ##1000
01ab4     6B 00 A0 FD | 	call	#divide_
01ab8     B0 0C 01 F6 | 	mov	arg01, muldivb_
01abc     88 F0 04 F1 | 	add	objptr, #136
01ac0     14 11 B0 FD | 	call	#_hng012_inttostr
01ac4     7D 10 01 F6 | 	mov	arg03, result1
01ac8     A6 0C 01 F6 | 	mov	arg01, local15
01acc     9F 0E 01 F6 | 	mov	arg02, local08
01ad0     20 09 B0 FD | 	call	#_hng012_outtextxy
01ad4                 | '   v.outtextxy(69,8,string(","))
01ad4     1E 00 00 FF 
01ad8     A1 10 05 F6 | 	mov	arg03, ##@LR__0231
01adc     45 0C 05 F6 | 	mov	arg01, #69
01ae0     08 0E 05 F6 | 	mov	arg02, #8
01ae4     0C 09 B0 FD | 	call	#_hng012_outtextxy
01ae8                 | '   v.outtextxy(70,8,v.inttostr(i // 1000))
01ae8     46 4C 05 F6 | 	mov	local15, #70
01aec     08 3E 05 F6 | 	mov	local08, #8
01af0     04 F0 84 F1 | 	sub	objptr, #4
01af4     78 5E 01 FB | 	rdlong	muldiva_, objptr
01af8     84 F0 84 F1 | 	sub	objptr, #132
01afc     01 00 00 FF 
01b00     E8 61 05 F6 | 	mov	muldivb_, ##1000
01b04     6B 00 A0 FD | 	call	#divide_
01b08     AF 0C 01 F6 | 	mov	arg01, muldiva_
01b0c     88 F0 04 F1 | 	add	objptr, #136
01b10     C4 10 B0 FD | 	call	#_hng012_inttostr
01b14     7D 10 01 F6 | 	mov	arg03, result1
01b18     A6 0C 01 F6 | 	mov	arg01, local15
01b1c     9F 0E 01 F6 | 	mov	arg02, local08
01b20     D0 08 B0 FD | 	call	#_hng012_outtextxy
01b24                 | '   v.outtextxy(74,8,string("Bytes Free"))
01b24     1E 00 00 FF 
01b28     A3 10 05 F6 | 	mov	arg03, ##@LR__0232
01b2c     4A 0C 05 F6 | 	mov	arg01, #74
01b30     08 0E 05 F6 | 	mov	arg02, #8
01b34     BC 08 B0 FD | 	call	#_hng012_outtextxy
01b38                 | '   v.outtextxy(56,9,string("32,212,254,720 total bytes on drive C:"))
01b38     1E 00 00 FF 
01b3c     AE 10 05 F6 | 	mov	arg03, ##@LR__0233
01b40     38 0C 05 F6 | 	mov	arg01, #56
01b44     09 0E 05 F6 | 	mov	arg02, #9
01b48     A8 08 B0 FD | 	call	#_hng012_outtextxy
01b4c                 | '   v.outtextxy(57,10,string("3,989,123,640 bytes free on drive C:"))
01b4c     1E 00 00 FF 
01b50     D5 10 05 F6 | 	mov	arg03, ##@LR__0234
01b54     39 0C 05 F6 | 	mov	arg01, #57
01b58     0A 0E 05 F6 | 	mov	arg02, #10
01b5c     94 08 B0 FD | 	call	#_hng012_outtextxy
01b60                 | '   v.outtextxy(58,11,string("123 files use 128,956,384 bytes in"))
01b60     1E 00 00 FF 
01b64     FA 10 05 F6 | 	mov	arg03, ##@LR__0235
01b68     3A 0C 05 F6 | 	mov	arg01, #58
01b6c     0B 0E 05 F6 | 	mov	arg02, #11
01b70     80 08 B0 FD | 	call	#_hng012_outtextxy
01b74                 | '   v.outtextxy(74,12,string("C:"))
01b74     1E 00 00 FF 
01b78     1D 11 05 F6 | 	mov	arg03, ##@LR__0236
01b7c     4A 0C 05 F6 | 	mov	arg01, #74
01b80     0C 0E 05 F6 | 	mov	arg02, #12
01b84     6C 08 B0 FD | 	call	#_hng012_outtextxy
01b88                 | '   v.outtextxy(58,17,string("No 'dirinfo' file in this directory"))
01b88     1E 00 00 FF 
01b8c     20 11 05 F6 | 	mov	arg03, ##@LR__0237
01b90     3A 0C 05 F6 | 	mov	arg01, #58
01b94     11 0E 05 F6 | 	mov	arg02, #17
01b98     58 08 B0 FD | 	call	#_hng012_outtextxy
01b9c                 | ' 
01b9c                 | '   v.outtextxyc(9,1,string("Name"),v.c_yellow,v.c_blue)
01b9c     1E 00 00 FF 
01ba0     44 11 05 F6 | 	mov	arg03, ##@LR__0238
01ba4     09 0C 05 F6 | 	mov	arg01, #9
01ba8     01 0E 05 F6 | 	mov	arg02, #1
01bac     EA 12 05 F6 | 	mov	arg04, #234
01bb0     75 14 05 F6 | 	mov	arg05, #117
01bb4     14 09 B0 FD | 	call	#_hng012_outtextxyc
01bb8                 | '   v.outtextxyc(25,1,string("Size"),v.c_yellow,v.c_blue)
01bb8     1E 00 00 FF 
01bbc     49 11 05 F6 | 	mov	arg03, ##@LR__0239
01bc0     19 0C 05 F6 | 	mov	arg01, #25
01bc4     01 0E 05 F6 | 	mov	arg02, #1
01bc8     EA 12 05 F6 | 	mov	arg04, #234
01bcc     75 14 05 F6 | 	mov	arg05, #117
01bd0     F8 08 B0 FD | 	call	#_hng012_outtextxyc
01bd4                 | '   v.outtextxyc(36,1,string("Date"),v.c_yellow,v.c_blue)
01bd4     1E 00 00 FF 
01bd8     4E 11 05 F6 | 	mov	arg03, ##@LR__0240
01bdc     24 0C 05 F6 | 	mov	arg01, #36
01be0     01 0E 05 F6 | 	mov	arg02, #1
01be4     EA 12 05 F6 | 	mov	arg04, #234
01be8     75 14 05 F6 | 	mov	arg05, #117
01bec     DC 08 B0 FD | 	call	#_hng012_outtextxyc
01bf0                 | '   v.outtextxyc(45,1,string("Time"),v.c_yellow,v.c_blue)
01bf0     1E 00 00 FF 
01bf4     53 11 05 F6 | 	mov	arg03, ##@LR__0241
01bf8     2D 0C 05 F6 | 	mov	arg01, #45
01bfc     01 0E 05 F6 | 	mov	arg02, #1
01c00     EA 12 05 F6 | 	mov	arg04, #234
01c04     75 14 05 F6 | 	mov	arg05, #117
01c08     C0 08 B0 FD | 	call	#_hng012_outtextxyc
01c0c                 | '   v.outtextxy(44,2,string("12:34"))
01c0c     1E 00 00 FF 
01c10     58 11 05 F6 | 	mov	arg03, ##@LR__0242
01c14     2C 0C 05 F6 | 	mov	arg01, #44
01c18     02 0E 05 F6 | 	mov	arg02, #2
01c1c     D4 07 B0 FD | 	call	#_hng012_outtextxy
01c20                 | '   v.outtextxy(33,2,string("2021.03.23"))
01c20     1E 00 00 FF 
01c24     5E 11 05 F6 | 	mov	arg03, ##@LR__0243
01c28     21 0C 05 F6 | 	mov	arg01, #33
01c2c     02 0E 05 F6 | 	mov	arg02, #2
01c30     C0 07 B0 FD | 	call	#_hng012_outtextxy
01c34     88 F0 84 F1 | 	sub	objptr, #136
01c38                 | '   teststring[0]:=16
01c38     78 20 48 FC | 	wrbyte	#16, objptr
01c3c                 | '   teststring[1]:=0
01c3c     01 F0 04 F1 | 	add	objptr, #1
01c40     78 00 48 FC | 	wrbyte	#0, objptr
01c44                 | '   repeat i from 2 to 8
01c44     83 F0 04 F1 | 	add	objptr, #131
01c48     78 04 68 FC | 	wrlong	#2, objptr
01c4c     84 F0 84 F1 | 	sub	objptr, #132
01c50                 | LR__0052
01c50                 | '     v.outtextxy(23,i,@teststring)
01c50     84 F0 04 F1 | 	add	objptr, #132
01c54     78 0E 01 FB | 	rdlong	arg02, objptr
01c58     84 F0 84 F1 | 	sub	objptr, #132
01c5c     17 0C 05 F6 | 	mov	arg01, #23
01c60     78 10 01 F6 | 	mov	arg03, objptr
01c64     88 F0 04 F1 | 	add	objptr, #136
01c68     88 07 B0 FD | 	call	#_hng012_outtextxy
01c6c     04 F0 84 F1 | 	sub	objptr, #4
01c70     78 3E 01 FB | 	rdlong	local08, objptr
01c74     01 3E 05 F1 | 	add	local08, #1
01c78     78 3E 61 FC | 	wrlong	local08, objptr
01c7c     84 F0 84 F1 | 	sub	objptr, #132
01c80     09 3E 5D F2 | 	cmps	local08, #9 wcz
01c84     C8 FF 9F CD |  if_b	jmp	#LR__0052
01c88                 | '   teststring[0]:=17
01c88     78 22 48 FC | 	wrbyte	#17, objptr
01c8c                 | '   repeat i from 2 to 8
01c8c     84 F0 04 F1 | 	add	objptr, #132
01c90     78 04 68 FC | 	wrlong	#2, objptr
01c94     84 F0 84 F1 | 	sub	objptr, #132
01c98                 | LR__0053
01c98                 | '     v.outtextxy(31,i,@teststring)
01c98     84 F0 04 F1 | 	add	objptr, #132
01c9c     78 0E 01 FB | 	rdlong	arg02, objptr
01ca0     84 F0 84 F1 | 	sub	objptr, #132
01ca4     1F 0C 05 F6 | 	mov	arg01, #31
01ca8     78 10 01 F6 | 	mov	arg03, objptr
01cac     88 F0 04 F1 | 	add	objptr, #136
01cb0     40 07 B0 FD | 	call	#_hng012_outtextxy
01cb4     04 F0 84 F1 | 	sub	objptr, #4
01cb8     78 3E 01 FB | 	rdlong	local08, objptr
01cbc     01 3E 05 F1 | 	add	local08, #1
01cc0     78 3E 61 FC | 	wrlong	local08, objptr
01cc4     84 F0 84 F1 | 	sub	objptr, #132
01cc8     09 3E 5D F2 | 	cmps	local08, #9 wcz
01ccc     C8 FF 9F CD |  if_b	jmp	#LR__0053
01cd0                 | '   repeat i from 2 to 8
01cd0     84 F0 04 F1 | 	add	objptr, #132
01cd4     78 04 68 FC | 	wrlong	#2, objptr
01cd8     84 F0 84 F1 | 	sub	objptr, #132
01cdc                 | LR__0054
01cdc                 | '     v.outtextxy(24,i,string("SUB-DIR"))
01cdc     84 F0 04 F1 | 	add	objptr, #132
01ce0     78 0E 01 FB | 	rdlong	arg02, objptr
01ce4     1E 00 00 FF 
01ce8     69 11 05 F6 | 	mov	arg03, ##@LR__0244
01cec     18 0C 05 F6 | 	mov	arg01, #24
01cf0     04 F0 04 F1 | 	add	objptr, #4
01cf4     FC 06 B0 FD | 	call	#_hng012_outtextxy
01cf8     04 F0 84 F1 | 	sub	objptr, #4
01cfc     78 3E 01 FB | 	rdlong	local08, objptr
01d00     01 3E 05 F1 | 	add	local08, #1
01d04     78 3E 61 FC | 	wrlong	local08, objptr
01d08     84 F0 84 F1 | 	sub	objptr, #132
01d0c     09 3E 5D F2 | 	cmps	local08, #9 wcz
01d10     C8 FF 9F CD |  if_b	jmp	#LR__0054
01d14                 | '   v.outtextxy(27,9,string("21356"))
01d14     1E 00 00 FF 
01d18     71 11 05 F6 | 	mov	arg03, ##@LR__0245
01d1c     1B 0C 05 F6 | 	mov	arg01, #27
01d20     09 0E 05 F6 | 	mov	arg02, #9
01d24     88 F0 04 F1 | 	add	objptr, #136
01d28     C8 06 B0 FD | 	call	#_hng012_outtextxy
01d2c                 | '   v.outtextxy(27,10,string("12564"))
01d2c     1E 00 00 FF 
01d30     77 11 05 F6 | 	mov	arg03, ##@LR__0246
01d34     1B 0C 05 F6 | 	mov	arg01, #27
01d38     0A 0E 05 F6 | 	mov	arg02, #10
01d3c     B4 06 B0 FD | 	call	#_hng012_outtextxy
01d40                 | '   v.outtextxy(28,11,string("1128"))
01d40     1E 00 00 FF 
01d44     7D 11 05 F6 | 	mov	arg03, ##@LR__0247
01d48     1C 0C 05 F6 | 	mov	arg01, #28
01d4c     0B 0E 05 F6 | 	mov	arg02, #11
01d50     A0 06 B0 FD | 	call	#_hng012_outtextxy
01d54                 | '   v.outtextxy(26,12,string("105321"))
01d54     1E 00 00 FF 
01d58     82 11 05 F6 | 	mov	arg03, ##@LR__0248
01d5c     1A 0C 05 F6 | 	mov	arg01, #26
01d60     0C 0E 05 F6 | 	mov	arg02, #12
01d64     8C 06 B0 FD | 	call	#_hng012_outtextxy
01d68                 | '   v.outtextxy(27,13,string("30831"))
01d68     1E 00 00 FF 
01d6c     89 11 05 F6 | 	mov	arg03, ##@LR__0249
01d70     1B 0C 05 F6 | 	mov	arg01, #27
01d74     0D 0E 05 F6 | 	mov	arg02, #13
01d78     78 06 B0 FD | 	call	#_hng012_outtextxy
01d7c                 | '   v.outtextxy(29,14,string("856"))
01d7c     1E 00 00 FF 
01d80     8F 11 05 F6 | 	mov	arg03, ##@LR__0250
01d84     1D 0C 05 F6 | 	mov	arg01, #29
01d88     0E 0E 05 F6 | 	mov	arg02, #14
01d8c     64 06 B0 FD | 	call	#_hng012_outtextxy
01d90                 | '   v.outtextxy(27,15,string("31248"))
01d90     1E 00 00 FF 
01d94     93 11 05 F6 | 	mov	arg03, ##@LR__0251
01d98     1B 0C 05 F6 | 	mov	arg01, #27
01d9c     0F 0E 05 F6 | 	mov	arg02, #15
01da0     50 06 B0 FD | 	call	#_hng012_outtextxy
01da4                 | '   v.outtextxy(28,16,string("2316"))
01da4     1E 00 00 FF 
01da8     99 11 05 F6 | 	mov	arg03, ##@LR__0252
01dac     1C 0C 05 F6 | 	mov	arg01, #28
01db0     10 0E 05 F6 | 	mov	arg02, #16
01db4     3C 06 B0 FD | 	call	#_hng012_outtextxy
01db8                 | '   v.outtextxy(27,17,string("17531"))
01db8     1E 00 00 FF 
01dbc     9E 11 05 F6 | 	mov	arg03, ##@LR__0253
01dc0     1B 0C 05 F6 | 	mov	arg01, #27
01dc4     11 0E 05 F6 | 	mov	arg02, #17
01dc8     28 06 B0 FD | 	call	#_hng012_outtextxy
01dcc                 | '   v.outtextxy(1,2,string("PropDOS"))
01dcc     1E 00 00 FF 
01dd0     A4 11 05 F6 | 	mov	arg03, ##@LR__0254
01dd4     01 0C 05 F6 | 	mov	arg01, #1
01dd8     02 0E 05 F6 | 	mov	arg02, #2
01ddc     14 06 B0 FD | 	call	#_hng012_outtextxy
01de0                 | '   v.outtextxy(1,3,string("BASIC"))
01de0     1E 00 00 FF 
01de4     AC 11 05 F6 | 	mov	arg03, ##@LR__0255
01de8     01 0C 05 F6 | 	mov	arg01, #1
01dec     03 0E 05 F6 | 	mov	arg02, #3
01df0     00 06 B0 FD | 	call	#_hng012_outtextxy
01df4                 | '   v.outtextxy(1,4,string("Spin"))
01df4     1E 00 00 FF 
01df8     B2 11 05 F6 | 	mov	arg03, ##@LR__0256
01dfc     01 0C 05 F6 | 	mov	arg01, #1
01e00     04 0E 05 F6 | 	mov	arg02, #4
01e04     EC 05 B0 FD | 	call	#_hng012_outtextxy
01e08                 | '   v.outtextxy(1,5,string("Windows"))
01e08     1E 00 00 FF 
01e0c     B7 11 05 F6 | 	mov	arg03, ##@LR__0257
01e10     01 0C 05 F6 | 	mov	arg01, #1
01e14     05 0E 05 F6 | 	mov	arg02, #5
01e18     D8 05 B0 FD | 	call	#_hng012_outtextxy
01e1c                 | '   v.outtextxy(1,6,string("Atari             emu"))
01e1c     1E 00 00 FF 
01e20     BF 11 05 F6 | 	mov	arg03, ##@LR__0258
01e24     01 0C 05 F6 | 	mov	arg01, #1
01e28     06 0E 05 F6 | 	mov	arg02, #6
01e2c     C4 05 B0 FD | 	call	#_hng012_outtextxy
01e30                 | '   v.outtextxy(1,7,string("Amiga             emu"))
01e30     1E 00 00 FF 
01e34     D5 11 05 F6 | 	mov	arg03, ##@LR__0259
01e38     01 0C 05 F6 | 	mov	arg01, #1
01e3c     07 0E 05 F6 | 	mov	arg02, #7
01e40     B0 05 B0 FD | 	call	#_hng012_outtextxy
01e44                 | '   v.outtextxy(1,8,string("Propeller"))
01e44     1E 00 00 FF 
01e48     EB 11 05 F6 | 	mov	arg03, ##@LR__0260
01e4c     01 0C 05 F6 | 	mov	arg01, #1
01e50     08 0E 05 F6 | 	mov	arg02, #8
01e54     9C 05 B0 FD | 	call	#_hng012_outtextxy
01e58                 | '   v.outtextxy(1,9,string("DOS               SYS"))
01e58     1E 00 00 FF 
01e5c     F5 11 05 F6 | 	mov	arg03, ##@LR__0261
01e60     01 0C 05 F6 | 	mov	arg01, #1
01e64     09 0E 05 F6 | 	mov	arg02, #9
01e68     88 05 B0 FD | 	call	#_hng012_outtextxy
01e6c                 | '   v.outtextxy(1,10,string("DUP               SYS"))
01e6c     1F 00 00 FF 
01e70     0B 10 05 F6 | 	mov	arg03, ##@LR__0262
01e74     01 0C 05 F6 | 	mov	arg01, #1
01e78     0A 0E 05 F6 | 	mov	arg02, #10
01e7c     74 05 B0 FD | 	call	#_hng012_outtextxy
01e80                 | '   v.outtextxy(1,11,string("Autoexec          BAT"))
01e80     1F 00 00 FF 
01e84     21 10 05 F6 | 	mov	arg03, ##@LR__0263
01e88     01 0C 05 F6 | 	mov	arg01, #1
01e8c     0B 0E 05 F6 | 	mov	arg02, #11
01e90     60 05 B0 FD | 	call	#_hng012_outtextxy
01e94                 | '   v.outtextxy(1,12,string("pc                exe"))
01e94     1F 00 00 FF 
01e98     37 10 05 F6 | 	mov	arg03, ##@LR__0264
01e9c     01 0C 05 F6 | 	mov	arg01, #1
01ea0     0C 0E 05 F6 | 	mov	arg02, #12
01ea4     4C 05 B0 FD | 	call	#_hng012_outtextxy
01ea8                 | '   v.outtextxy(1,13,string("win               com"))
01ea8     1F 00 00 FF 
01eac     4D 10 05 F6 | 	mov	arg03, ##@LR__0265
01eb0     01 0C 05 F6 | 	mov	arg01, #1
01eb4     0D 0E 05 F6 | 	mov	arg02, #13
01eb8     38 05 B0 FD | 	call	#_hng012_outtextxy
01ebc                 | '   v.outtextxy(1,14,string("DOOM              BAT"))
01ebc     1F 00 00 FF 
01ec0     63 10 05 F6 | 	mov	arg03, ##@LR__0266
01ec4     01 0C 05 F6 | 	mov	arg01, #1
01ec8     0E 0E 05 F6 | 	mov	arg02, #14
01ecc     24 05 B0 FD | 	call	#_hng012_outtextxy
01ed0                 | '   v.outtextxy(1,15,string("command           com"))
01ed0     1F 00 00 FF 
01ed4     79 10 05 F6 | 	mov	arg03, ##@LR__0267
01ed8     01 0C 05 F6 | 	mov	arg01, #1
01edc     0F 0E 05 F6 | 	mov	arg02, #15
01ee0     10 05 B0 FD | 	call	#_hng012_outtextxy
01ee4                 | '   v.outtextxy(1,16,string("config            sys"))
01ee4     1F 00 00 FF 
01ee8     8F 10 05 F6 | 	mov	arg03, ##@LR__0268
01eec     01 0C 05 F6 | 	mov	arg01, #1
01ef0     10 0E 05 F6 | 	mov	arg02, #16
01ef4     FC 04 B0 FD | 	call	#_hng012_outtextxy
01ef8                 | '   v.outtextxy(1,17,string("msdos             sys"))
01ef8     1F 00 00 FF 
01efc     A5 10 05 F6 | 	mov	arg03, ##@LR__0269
01f00     01 0C 05 F6 | 	mov	arg01, #1
01f04     11 0E 05 F6 | 	mov	arg02, #17
01f08     E8 04 B0 FD | 	call	#_hng012_outtextxy
01f0c                 | ' 
01f0c                 | '   repeat i from 0 to 49
01f0c     04 F0 84 F1 | 	sub	objptr, #4
01f10     78 00 68 FC | 	wrlong	#0, objptr
01f14     84 F0 84 F1 | 	sub	objptr, #132
01f18     14 E1 9F FE | 	loc	pa,	#(@LR__0056-@LR__0055)
01f1c     35 00 A0 FD | 	call	#FCACHE_LOAD_
01f20                 | LR__0055
01f20                 | '     teststring[i]:=$C4
01f20     84 F0 04 F1 | 	add	objptr, #132
01f24     78 3E 01 FB | 	rdlong	local08, objptr
01f28     84 F0 84 F1 | 	sub	objptr, #132
01f2c     78 3E 01 F1 | 	add	local08, objptr
01f30     9F 88 49 FC | 	wrbyte	#196, local08
01f34     84 F0 04 F1 | 	add	objptr, #132
01f38     78 3E 01 FB | 	rdlong	local08, objptr
01f3c     01 3E 05 F1 | 	add	local08, #1
01f40     78 3E 61 FC | 	wrlong	local08, objptr
01f44     84 F0 84 F1 | 	sub	objptr, #132
01f48     32 3E 5D F2 | 	cmps	local08, #50 wcz
01f4c     D0 FF 9F CD |  if_b	jmp	#LR__0055
01f50                 | LR__0056
01f50                 | '   teststring[50]:=0
01f50     32 F0 04 F1 | 	add	objptr, #50
01f54     78 00 48 FC | 	wrbyte	#0, objptr
01f58     32 F0 84 F1 | 	sub	objptr, #50
01f5c                 | '   teststring[0]:=$BA
01f5c     78 74 49 FC | 	wrbyte	#186, objptr
01f60                 | '   teststring[49]:=$BA
01f60     31 F0 04 F1 | 	add	objptr, #49
01f64     78 74 49 FC | 	wrbyte	#186, objptr
01f68                 | '   teststring[22]:=$C1
01f68     1B F0 84 F1 | 	sub	objptr, #27
01f6c     78 82 49 FC | 	wrbyte	#193, objptr
01f70                 | '   teststring[32]:=$C1
01f70     0A F0 04 F1 | 	add	objptr, #10
01f74     78 82 49 FC | 	wrbyte	#193, objptr
01f78                 | '   teststring[43]:=$C1
01f78     0B F0 04 F1 | 	add	objptr, #11
01f7c     78 82 49 FC | 	wrbyte	#193, objptr
01f80     2B F0 84 F1 | 	sub	objptr, #43
01f84                 | '   v.outtextxy(0,18,@teststring)
01f84     00 0C 05 F6 | 	mov	arg01, #0
01f88     12 0E 05 F6 | 	mov	arg02, #18
01f8c     78 10 01 F6 | 	mov	arg03, objptr
01f90     88 F0 04 F1 | 	add	objptr, #136
01f94     5C 04 B0 FD | 	call	#_hng012_outtextxy
01f98                 | '   v.outtextxy(1,19,string("pc.exe                105321    2021.03.23 12:34"))
01f98     1F 00 00 FF 
01f9c     BB 10 05 F6 | 	mov	arg03, ##@LR__0270
01fa0     01 0C 05 F6 | 	mov	arg01, #1
01fa4     13 0E 05 F6 | 	mov	arg02, #19
01fa8     48 04 B0 FD | 	call	#_hng012_outtextxy
01fac                 | ' 
01fac                 | '   v.waitvbl(2400)
01fac     04 00 00 FF 
01fb0     60 0D 05 F6 | 	mov	arg01, ##2400
01fb4     F8 00 B0 FD | 	call	#_hng012_waitvbl
01fb8                 | '   v.setmode(448)
01fb8     C0 0D 05 F6 | 	mov	arg01, #448
01fbc     E4 0D B0 FD | 	call	#_hng012_setmode
01fc0     88 F0 84 F1 | 	sub	objptr, #136
01fc4     7C E6 9F FD | 	jmp	#LR__0001
01fc8     46 F0 03 F6 | 	mov	ptra, fp
01fcc     5A 00 A0 FD | 	call	#popregs_
01fd0                 | _demo_ret
01fd0     2D 00 64 FD | 	ret
01fd4                 | 
01fd4                 | ' 
01fd4                 | ' ''--------- Redefine a character
01fd4                 | ' 
01fd4                 | ' pub defchar(fn,ch,b0,b1,b2,b3,b4,b5,b6,b7,b8,b9,b10,b11,b12,b13,b14,b15) :s
01fd4                 | _hng012_defchar
01fd4                 | ' 
01fd4                 | ' s:=@st_font+fn+ch*16
01fd4     08 00 00 FF 
01fd8     00 F6 04 F1 | 	add	ptr__hng012_dat__, ##4096
01fdc     7B FA 00 F6 | 	mov	result1, ptr__hng012_dat__
01fe0     08 00 00 FF 
01fe4     00 F6 84 F1 | 	sub	ptr__hng012_dat__, ##4096
01fe8     86 FA 00 F1 | 	add	result1, arg01
01fec     04 0E 65 F0 | 	shl	arg02, #4
01ff0     87 FA 00 F1 | 	add	result1, arg02
01ff4                 | ' byte[s+00]:=b0
01ff4     7D 10 41 FC | 	wrbyte	arg03, result1
01ff8                 | ' byte[s+01]:=b1
01ff8     7D FC 00 F6 | 	mov	_var01, result1
01ffc     01 FC 04 F1 | 	add	_var01, #1
02000     7E 12 41 FC | 	wrbyte	arg04, _var01
02004                 | ' byte[s+02]:=b2
02004     7D FC 00 F6 | 	mov	_var01, result1
02008     02 FC 04 F1 | 	add	_var01, #2
0200c     7E 14 41 FC | 	wrbyte	arg05, _var01
02010                 | ' byte[s+03]:=b3
02010     7D FC 00 F6 | 	mov	_var01, result1
02014     03 FC 04 F1 | 	add	_var01, #3
02018     7E 16 41 FC | 	wrbyte	arg06, _var01
0201c                 | ' byte[s+04]:=b4
0201c     7D FC 00 F6 | 	mov	_var01, result1
02020     04 FC 04 F1 | 	add	_var01, #4
02024     7E 18 41 FC | 	wrbyte	arg07, _var01
02028                 | ' byte[s+05]:=b5
02028     7D FC 00 F6 | 	mov	_var01, result1
0202c     05 FC 04 F1 | 	add	_var01, #5
02030     7E 1A 41 FC | 	wrbyte	arg08, _var01
02034                 | ' byte[s+06]:=b6
02034     7D FC 00 F6 | 	mov	_var01, result1
02038     06 FC 04 F1 | 	add	_var01, #6
0203c     7E 1C 41 FC | 	wrbyte	arg09, _var01
02040                 | ' byte[s+07]:=b7
02040     7D FC 00 F6 | 	mov	_var01, result1
02044     07 FC 04 F1 | 	add	_var01, #7
02048     7E 1E 41 FC | 	wrbyte	arg10, _var01
0204c                 | ' byte[s+08]:=b8
0204c     7D FC 00 F6 | 	mov	_var01, result1
02050     08 FC 04 F1 | 	add	_var01, #8
02054     7E 20 41 FC | 	wrbyte	arg11, _var01
02058                 | ' byte[s+09]:=b9
02058     7D FC 00 F6 | 	mov	_var01, result1
0205c     09 FC 04 F1 | 	add	_var01, #9
02060     7E 22 41 FC | 	wrbyte	arg12, _var01
02064                 | ' byte[s+10]:=b10
02064     7D FC 00 F6 | 	mov	_var01, result1
02068     0A FC 04 F1 | 	add	_var01, #10
0206c     7E 24 41 FC | 	wrbyte	arg13, _var01
02070                 | ' byte[s+11]:=b11
02070     7D FC 00 F6 | 	mov	_var01, result1
02074     0B FC 04 F1 | 	add	_var01, #11
02078     7E 26 41 FC | 	wrbyte	arg14, _var01
0207c                 | ' byte[s+12]:=b12
0207c     7D FC 00 F6 | 	mov	_var01, result1
02080     0C FC 04 F1 | 	add	_var01, #12
02084     7E 28 41 FC | 	wrbyte	arg15, _var01
02088                 | ' byte[s+13]:=b13
02088     7D FC 00 F6 | 	mov	_var01, result1
0208c     0D FC 04 F1 | 	add	_var01, #13
02090     7E 2A 41 FC | 	wrbyte	arg16, _var01
02094                 | ' byte[s+14]:=b14
02094     7D FC 00 F6 | 	mov	_var01, result1
02098     0E FC 04 F1 | 	add	_var01, #14
0209c     7E 2C 41 FC | 	wrbyte	arg17, _var01
020a0                 | ' byte[s+15]:=b15
020a0     7D FC 00 F6 | 	mov	_var01, result1
020a4     0F FC 04 F1 | 	add	_var01, #15
020a8     7E 2E 41 FC | 	wrbyte	arg18, _var01
020ac                 | _hng012_defchar_ret
020ac     2D 00 64 FD | 	ret
020b0                 | 
020b0                 | ' 
020b0                 | ' '*************************************************************************
020b0                 | ' '                                                                        *
020b0                 | ' '  VBlank functions                                                      *
020b0                 | ' '                                                                        *
020b0                 | ' '*************************************************************************
020b0                 | ' 
020b0                 | ' pub waitvbl(amount) | i
020b0                 | _hng012_waitvbl
020b0     04 88 04 F6 | 	mov	COUNT_, #4
020b4     4B 00 A0 FD | 	call	#pushregs_
020b8     86 30 01 F6 | 	mov	local01, arg01
020bc                 | ' 
020bc                 | ' ''---------- Wait for start of vblank. Amount=delay in frames
020bc                 | ' 
020bc                 | ' repeat i from 1 to amount
020bc     01 32 05 F6 | 	mov	local02, #1
020c0     01 30 5D F2 | 	cmps	local01, #1 wcz
020c4     01 34 05 16 |  if_a	mov	local03, #1
020c8     01 34 65 E6 |  if_be	neg	local03, #1
020cc     9A 30 01 F1 | 	add	local01, local03
020d0                 | LR__0057
020d0                 | '   repeat until vblank==0
020d0                 | LR__0058
020d0     D4 F0 04 F1 | 	add	objptr, #212
020d4     78 36 09 FB | 	rdlong	local04, objptr wz
020d8     D4 F0 84 F1 | 	sub	objptr, #212
020dc     0C 00 90 AD |  if_e	jmp	#LR__0059
020e0                 | '     waitus(100)
020e0     64 0C 05 F6 | 	mov	arg01, #100
020e4     78 12 B0 FD | 	call	#__system___waitus
020e8     E4 FF 9F FD | 	jmp	#LR__0058
020ec                 | LR__0059
020ec                 | '   repeat until vblank==1
020ec                 | LR__0060
020ec     D4 F0 04 F1 | 	add	objptr, #212
020f0     78 36 01 FB | 	rdlong	local04, objptr
020f4     D4 F0 84 F1 | 	sub	objptr, #212
020f8     01 36 0D F2 | 	cmp	local04, #1 wz
020fc     0C 00 90 AD |  if_e	jmp	#LR__0061
02100                 | '     waitus(100)
02100     64 0C 05 F6 | 	mov	arg01, #100
02104     58 12 B0 FD | 	call	#__system___waitus
02108     E0 FF 9F FD | 	jmp	#LR__0060
0210c                 | LR__0061
0210c     9A 32 01 F1 | 	add	local02, local03
02110     98 32 09 F2 | 	cmp	local02, local01 wz
02114     B8 FF 9F 5D |  if_ne	jmp	#LR__0057
02118     46 F0 03 F6 | 	mov	ptra, fp
0211c     5A 00 A0 FD | 	call	#popregs_
02120                 | _hng012_waitvbl_ret
02120     2D 00 64 FD | 	ret
02124                 | 
02124                 | ' 
02124                 | ' ''---------- Set font and back colors for all screen - from 256 color palette
02124                 | ' 
02124                 | ' pub setscreencolors(ff,bb) | c ,i
02124                 | _hng012_setscreencolors
02124                 | ' 
02124                 | ' c:=ff<<24+bb<<16
02124     18 0C 65 F0 | 	shl	arg01, #24
02128     10 0E 65 F0 | 	shl	arg02, #16
0212c     87 0C 01 F1 | 	add	arg01, arg02
02130                 | ' 
02130                 | ' repeat i from 0 to buflen-1
02130     00 FC 04 F6 | 	mov	_var01, #0
02134     C4 F0 04 F1 | 	add	objptr, #196
02138     78 FE 00 FB | 	rdlong	_var02, objptr
0213c     C4 F0 84 F1 | 	sub	objptr, #196
02140     01 FE 84 F1 | 	sub	_var02, #1
02144     00 FE 5C F2 | 	cmps	_var02, #0 wcz
02148     01 00 05 16 |  if_a	mov	_var03, #1
0214c     01 00 65 E6 |  if_be	neg	_var03, #1
02150     80 FE 00 F1 | 	add	_var02, _var03
02154     E8 DE 9F FE | 	loc	pa,	#(@LR__0063-@LR__0062)
02158     35 00 A0 FD | 	call	#FCACHE_LOAD_
0215c                 | LR__0062
0215c                 | '    long[buf_ptr+4*i]:= (long[buf_ptr+4*i] & $FFFF) |  c
0215c     78 02 01 FB | 	rdlong	_var04, objptr
02160     7E 04 01 F6 | 	mov	_var05, _var01
02164     02 04 65 F0 | 	shl	_var05, #2
02168     82 02 01 F1 | 	add	_var04, _var05
0216c     81 06 01 FB | 	rdlong	_var06, _var04
02170     7F 00 00 FF 
02174     FF 07 05 F5 | 	and	_var06, ##65535
02178     86 06 41 F5 | 	or	_var06, arg01
0217c     78 08 01 FB | 	rdlong	_var07, objptr
02180     7E 0A 01 F6 | 	mov	_var08, _var01
02184     02 0A 65 F0 | 	shl	_var08, #2
02188     85 08 01 F1 | 	add	_var07, _var08
0218c     84 06 61 FC | 	wrlong	_var06, _var07
02190     80 FC 00 F1 | 	add	_var01, _var03
02194     7F FC 08 F2 | 	cmp	_var01, _var02 wz
02198     C0 FF 9F 5D |  if_ne	jmp	#LR__0062
0219c                 | LR__0063
0219c                 | _hng012_setscreencolors_ret
0219c     2D 00 64 FD | 	ret
021a0                 | 
021a0                 | ' 
021a0                 | ' ''---------- Set border color for all screen - rgb
021a0                 | ' 
021a0                 | ' pub setbordercolors(r,g,b) |color, i
021a0                 | _hng012_setbordercolors
021a0                 | ' 
021a0                 | ' color:=r<<16+g<<8+b  ''' todo!!! border buffer has to be defined like a main buffer
021a0     10 0C 65 F0 | 	shl	arg01, #16
021a4     08 0E 65 F0 | 	shl	arg02, #8
021a8     87 0C 01 F1 | 	add	arg01, arg02
021ac     88 0C 01 F1 | 	add	arg01, arg03
021b0                 | ' 
021b0                 | ' repeat i from 0 to lines+1
021b0     00 FC 04 F6 | 	mov	_var01, #0
021b4     28 F1 04 F1 | 	add	objptr, #296
021b8     78 FE 00 FB | 	rdlong	_var02, objptr
021bc     28 F1 84 F1 | 	sub	objptr, #296
021c0     01 FE 04 F1 | 	add	_var02, #1
021c4     00 FE 5C F2 | 	cmps	_var02, #0 wcz
021c8     01 00 05 16 |  if_a	mov	_var03, #1
021cc     01 00 65 E6 |  if_be	neg	_var03, #1
021d0     80 FE 00 F1 | 	add	_var02, _var03
021d4     4C DE 9F FE | 	loc	pa,	#(@LR__0065-@LR__0064)
021d8     35 00 A0 FD | 	call	#FCACHE_LOAD_
021dc                 | LR__0064
021dc                 | '   bordercolor[i]:=color
021dc     7E 02 01 F6 | 	mov	_var04, _var01
021e0     02 02 65 F0 | 	shl	_var04, #2
021e4     2C F0 04 F1 | 	add	objptr, #44
021e8     78 02 01 F1 | 	add	_var04, objptr
021ec     81 0C 61 FC | 	wrlong	arg01, _var04
021f0     80 FC 00 F1 | 	add	_var01, _var03
021f4     7F FC 08 F2 | 	cmp	_var01, _var02 wz
021f8     2C F0 84 F1 | 	sub	objptr, #44
021fc     DC FF 9F 5D |  if_ne	jmp	#LR__0064
02200                 | LR__0065
02200                 | _hng012_setbordercolors_ret
02200     2D 00 64 FD | 	ret
02204                 | 
02204                 | ' 
02204                 | ' ''---------- Set the color for the character at line y and position x
02204                 | ' 
02204                 | ' pub setcharcolor(x,y,c) | place, color
02204                 | _hng012_setcharcolor
02204                 | ' 
02204                 | ' place:=(x)+(y*cpl)
02204     24 F1 04 F1 | 	add	objptr, #292
02208     78 FC 00 FB | 	rdlong	_var01, objptr
0220c     7E 0E 01 FD | 	qmul	arg02, _var01
02210     18 FE 60 FD | 	getqx	_var02
02214     7F 0C 01 F1 | 	add	arg01, _var02
02218                 | ' 
02218                 | ' if (place>buflen-1)
02218     60 F0 84 F1 | 	sub	objptr, #96
0221c     78 00 01 FB | 	rdlong	_var03, objptr
02220     C4 F0 84 F1 | 	sub	objptr, #196
02224     01 00 85 F1 | 	sub	_var03, #1
02228     80 0C 59 F2 | 	cmps	arg01, _var03 wcz
0222c     10 00 90 ED |  if_be	jmp	#LR__0066
02230                 | '   place:=buflen-1
02230     C4 F0 04 F1 | 	add	objptr, #196
02234     78 0C 01 FB | 	rdlong	arg01, objptr
02238     C4 F0 84 F1 | 	sub	objptr, #196
0223c     01 0C 85 F1 | 	sub	arg01, #1
02240                 | LR__0066
02240                 | ' 
02240                 | ' color:=(long[buf_ptr+4*place] &$FFFFFF) | (c<<24)
02240     78 FE 00 FB | 	rdlong	_var02, objptr
02244     86 FC 00 F6 | 	mov	_var01, arg01
02248     02 FC 64 F0 | 	shl	_var01, #2
0224c     7E FE 00 F1 | 	add	_var02, _var01
02250     7F 02 01 FB | 	rdlong	_var04, _var02
02254     FF 7F 00 FF 
02258     FF 03 05 F5 | 	and	_var04, ##16777215
0225c     18 10 65 F0 | 	shl	arg03, #24
02260     88 02 41 F5 | 	or	_var04, arg03
02264                 | ' long[buf_ptr+4*place]:=color
02264     78 00 01 FB | 	rdlong	_var03, objptr
02268     02 0C 65 F0 | 	shl	arg01, #2
0226c     86 00 01 F1 | 	add	_var03, arg01
02270     80 02 61 FC | 	wrlong	_var04, _var03
02274                 | _hng012_setcharcolor_ret
02274     2D 00 64 FD | 	ret
02278                 | 
02278                 | ' 
02278                 | ' ''---------- Set the background color at line y and position x
02278                 | ' 
02278                 | ' pub setbackcolor(x,y,c) | place, color
02278                 | _hng012_setbackcolor
02278                 | ' 
02278                 | ' place:=(x)+(y*cpl)
02278     24 F1 04 F1 | 	add	objptr, #292
0227c     78 FC 00 FB | 	rdlong	_var01, objptr
02280     7E 0E 01 FD | 	qmul	arg02, _var01
02284     18 FE 60 FD | 	getqx	_var02
02288     7F 0C 01 F1 | 	add	arg01, _var02
0228c                 | ' 
0228c                 | ' if (place>buflen-1)
0228c     60 F0 84 F1 | 	sub	objptr, #96
02290     78 00 01 FB | 	rdlong	_var03, objptr
02294     C4 F0 84 F1 | 	sub	objptr, #196
02298     01 00 85 F1 | 	sub	_var03, #1
0229c     80 0C 59 F2 | 	cmps	arg01, _var03 wcz
022a0     10 00 90 ED |  if_be	jmp	#LR__0067
022a4                 | '   place:=buflen-1
022a4     C4 F0 04 F1 | 	add	objptr, #196
022a8     78 0C 01 FB | 	rdlong	arg01, objptr
022ac     C4 F0 84 F1 | 	sub	objptr, #196
022b0     01 0C 85 F1 | 	sub	arg01, #1
022b4                 | LR__0067
022b4                 | ' 
022b4                 | ' color:=(long[buf_ptr+4*place] &$FF00FFFF) | (c<<16)
022b4     78 FE 00 FB | 	rdlong	_var02, objptr
022b8     86 FC 00 F6 | 	mov	_var01, arg01
022bc     02 FC 64 F0 | 	shl	_var01, #2
022c0     7E FE 00 F1 | 	add	_var02, _var01
022c4     7F 02 01 FB | 	rdlong	_var04, _var02
022c8     7F 80 7F FF 
022cc     FF 03 05 F5 | 	and	_var04, ##-16711681
022d0     10 10 65 F0 | 	shl	arg03, #16
022d4     88 02 41 F5 | 	or	_var04, arg03
022d8                 | ' long[buf_ptr+4*place]:=color
022d8     78 00 01 FB | 	rdlong	_var03, objptr
022dc     02 0C 65 F0 | 	shl	arg01, #2
022e0     86 00 01 F1 | 	add	_var03, arg01
022e4     80 02 61 FC | 	wrlong	_var04, _var03
022e8                 | _hng012_setbackcolor_ret
022e8     2D 00 64 FD | 	ret
022ec                 | 
022ec                 | ' 
022ec                 | ' ''---------- Set the border color, o is upper border, lines+1 is lower border
022ec                 | ' 
022ec                 | ' pub setbordercolor(line,r,g,b) | color
022ec                 | _hng012_setbordercolor
022ec                 | ' 
022ec                 | ' color:=r<<16+g<<8+b
022ec     10 0E 65 F0 | 	shl	arg02, #16
022f0     08 10 65 F0 | 	shl	arg03, #8
022f4     88 0E 01 F1 | 	add	arg02, arg03
022f8     89 0E 01 F1 | 	add	arg02, arg04
022fc                 | ' bordercolor[line]:=color
022fc     02 0C 65 F0 | 	shl	arg01, #2
02300     2C F0 04 F1 | 	add	objptr, #44
02304     78 0C 01 F1 | 	add	arg01, objptr
02308     86 0E 61 FC | 	wrlong	arg02, arg01
0230c     2C F0 84 F1 | 	sub	objptr, #44
02310                 | _hng012_setbordercolor_ret
02310     2D 00 64 FD | 	ret
02314                 | 
02314                 | ' 
02314                 | ' 
02314                 | ' '*************************************************************************
02314                 | ' '                                                                        *
02314                 | ' '  Text functions                                                        *
02314                 | ' '                                                                        *
02314                 | ' '*************************************************************************
02314                 | ' 
02314                 | ' ''---------- Clear the screen, set its foreground/background color
02314                 | ' 
02314                 | ' pub cls(fc,bc)   :c
02314                 | _hng012_cls
02314     03 88 04 F6 | 	mov	COUNT_, #3
02318     4B 00 A0 FD | 	call	#pushregs_
0231c     86 30 01 F6 | 	mov	local01, arg01
02320                 | ' 
02320                 | ' c:=fc<<24+bc<<16+$20
02320     98 32 01 F6 | 	mov	local02, local01
02324     18 32 65 F0 | 	shl	local02, #24
02328     87 34 01 F6 | 	mov	local03, arg02
0232c     10 34 65 F0 | 	shl	local03, #16
02330     9A 32 01 F1 | 	add	local02, local03
02334     20 32 05 F1 | 	add	local02, #32
02338                 | ' longfill(buf_ptr,c,buflen)
02338     78 0C 01 FB | 	rdlong	arg01, objptr
0233c     C4 F0 04 F1 | 	add	objptr, #196
02340     78 10 09 FB | 	rdlong	arg03, objptr wz
02344     C4 F0 84 F1 | 	sub	objptr, #196
02348     14 00 90 AD |  if_e	jmp	#LR__0072
0234c     BC DC 9F FE | 	loc	pa,	#(@LR__0070-@LR__0068)
02350     35 00 A0 FD | 	call	#FCACHE_LOAD_
02354                 | LR__0068
02354     88 04 D8 FC | 	rep	@LR__0071, arg03
02358                 | LR__0069
02358     86 32 61 FC | 	wrlong	local02, arg01
0235c     04 0C 05 F1 | 	add	arg01, #4
02360                 | LR__0070
02360                 | LR__0071
02360                 | LR__0072
02360                 | ' setwritecolors(fc,bc)
02360                 | ' 
02360                 | ' 
02360                 | ' write_color:=ff
02360     CC F0 04 F1 | 	add	objptr, #204
02364     78 30 61 FC | 	wrlong	local01, objptr
02368                 | ' write_background:=bb
02368     04 F0 04 F1 | 	add	objptr, #4
0236c     78 0E 61 FC | 	wrlong	arg02, objptr
02370                 | ' cursor_x:=0
02370     08 F0 84 F1 | 	sub	objptr, #8
02374     78 00 48 FC | 	wrbyte	#0, objptr
02378                 | ' cursor_y:=0
02378     01 F0 04 F1 | 	add	objptr, #1
0237c     78 00 48 FC | 	wrbyte	#0, objptr
02380     C9 F0 84 F1 | 	sub	objptr, #201
02384     99 FA 00 F6 | 	mov	result1, local02
02388     46 F0 03 F6 | 	mov	ptra, fp
0238c     5A 00 A0 FD | 	call	#popregs_
02390                 | _hng012_cls_ret
02390     2D 00 64 FD | 	ret
02394                 | 
02394                 | ' 
02394                 | ' ''---------- Output a char at x,y, don't change colors and cursor position
02394                 | ' 
02394                 | ' pub putcharxy(x,y,achar) | c
02394                 | _hng012_putcharxy
02394                 | ' 
02394                 | ' long[buf_ptr+4*(cpl*y+x)]:=(long[buf_ptr+4*(cpl*y+x)] & $FFFFFF00)  |(achar & $000000FF)
02394     78 FC 00 FB | 	rdlong	_var01, objptr
02398     24 F1 04 F1 | 	add	objptr, #292
0239c     78 FE 00 FB | 	rdlong	_var02, objptr
023a0     24 F1 84 F1 | 	sub	objptr, #292
023a4     87 FE 00 FD | 	qmul	_var02, arg02
023a8     18 00 61 FD | 	getqx	_var03
023ac     86 00 01 F1 | 	add	_var03, arg01
023b0     02 00 65 F0 | 	shl	_var03, #2
023b4     80 FC 00 F1 | 	add	_var01, _var03
023b8     7E 02 01 FB | 	rdlong	_var04, _var01
023bc     FF 02 25 F5 | 	andn	_var04, #255
023c0     FF 10 05 F5 | 	and	arg03, #255
023c4     88 02 41 F5 | 	or	_var04, arg03
023c8     78 04 01 FB | 	rdlong	_var05, objptr
023cc     24 F1 04 F1 | 	add	objptr, #292
023d0     78 06 01 FB | 	rdlong	_var06, objptr
023d4     24 F1 84 F1 | 	sub	objptr, #292
023d8     87 06 01 FD | 	qmul	_var06, arg02
023dc     18 08 61 FD | 	getqx	_var07
023e0     86 08 01 F1 | 	add	_var07, arg01
023e4     02 08 65 F0 | 	shl	_var07, #2
023e8     84 04 01 F1 | 	add	_var05, _var07
023ec     82 02 61 FC | 	wrlong	_var04, _var05
023f0                 | _hng012_putcharxy_ret
023f0     2D 00 64 FD | 	ret
023f4                 | 
023f4                 | ' 
023f4                 | ' ''--------- Output a string at position x,y without changing colors
023f4                 | ' 
023f4                 | ' pub outtextxy(x,y,text) | iii
023f4                 | _hng012_outtextxy
023f4     0F 88 04 F6 | 	mov	COUNT_, #15
023f8     4B 00 A0 FD | 	call	#pushregs_
023fc     86 30 01 F6 | 	mov	local01, arg01
02400                 | ' 
02400                 | ' repeat iii from 0 to strsize(text)-1
02400     00 32 05 F6 | 	mov	local02, #0
02404     88 0C 01 F6 | 	mov	arg01, arg03
02408     00 34 05 F6 | 	mov	local03, #0
0240c     00 DC 9F FE | 	loc	pa,	#(@LR__0074-@LR__0073)
02410     35 00 A0 FD | 	call	#FCACHE_LOAD_
02414                 | LR__0073
02414     86 36 C9 FA | 	rdbyte	local04, arg01 wz
02418     01 34 05 51 |  if_ne	add	local03, #1
0241c     01 0C 05 51 |  if_ne	add	arg01, #1
02420     F0 FF 9F 5D |  if_ne	jmp	#LR__0073
02424                 | LR__0074
02424     9A FA 00 F6 | 	mov	result1, local03
02428     7D 38 01 F6 | 	mov	local05, result1
0242c     01 38 85 F1 | 	sub	local05, #1
02430     00 38 5D F2 | 	cmps	local05, #0 wcz
02434     01 3A 05 16 |  if_a	mov	local06, #1
02438     01 3A 65 E6 |  if_be	neg	local06, #1
0243c     9D 38 01 F1 | 	add	local05, local06
02440     34 DC 9F FE | 	loc	pa,	#(@LR__0076-@LR__0075)
02444     35 00 A0 FD | 	call	#FCACHE_LOAD_
02448                 | LR__0075
02448                 | '   long[buf_ptr+4*(cpl*y+x+iii)]:=(long[buf_ptr+4*(cpl*y+x+iii)] & $FFFFFF00)  | byte[text+iii]
02448     78 3C 01 FB | 	rdlong	local07, objptr
0244c     24 F1 04 F1 | 	add	objptr, #292
02450     78 3E 01 FB | 	rdlong	local08, objptr
02454     24 F1 84 F1 | 	sub	objptr, #292
02458     87 3E 01 FD | 	qmul	local08, arg02
0245c     18 40 61 FD | 	getqx	local09
02460     98 40 01 F1 | 	add	local09, local01
02464     99 40 01 F1 | 	add	local09, local02
02468     02 40 65 F0 | 	shl	local09, #2
0246c     A0 3C 01 F1 | 	add	local07, local09
02470     9E 42 01 FB | 	rdlong	local10, local07
02474     FF 42 25 F5 | 	andn	local10, #255
02478     88 44 01 F6 | 	mov	local11, arg03
0247c     99 44 01 F1 | 	add	local11, local02
02480     A2 46 C1 FA | 	rdbyte	local12, local11
02484     A3 42 41 F5 | 	or	local10, local12
02488     78 48 01 FB | 	rdlong	local13, objptr
0248c     24 F1 04 F1 | 	add	objptr, #292
02490     78 4A 01 FB | 	rdlong	local14, objptr
02494     24 F1 84 F1 | 	sub	objptr, #292
02498     87 4A 01 FD | 	qmul	local14, arg02
0249c     18 4C 61 FD | 	getqx	local15
024a0     98 4C 01 F1 | 	add	local15, local01
024a4     99 4C 01 F1 | 	add	local15, local02
024a8     02 4C 65 F0 | 	shl	local15, #2
024ac     A6 48 01 F1 | 	add	local13, local15
024b0     A4 42 61 FC | 	wrlong	local10, local13
024b4     9D 32 01 F1 | 	add	local02, local06
024b8     9C 32 09 F2 | 	cmp	local02, local05 wz
024bc     88 FF 9F 5D |  if_ne	jmp	#LR__0075
024c0                 | LR__0076
024c0     46 F0 03 F6 | 	mov	ptra, fp
024c4     5A 00 A0 FD | 	call	#popregs_
024c8                 | _hng012_outtextxy_ret
024c8     2D 00 64 FD | 	ret
024cc                 | 
024cc                 | ' 
024cc                 | ' 
024cc                 | ' ''--------- Output a string at position x,y and colors b,f
024cc                 | ' 
024cc                 | ' pub outtextxyc(x,y,text,f,b) | iii,c
024cc                 | _hng012_outtextxyc
024cc     10 88 04 F6 | 	mov	COUNT_, #16
024d0     4B 00 A0 FD | 	call	#pushregs_
024d4     86 30 01 F6 | 	mov	local01, arg01
024d8                 | ' 
024d8                 | ' c:=f<<24+b<<16
024d8     18 12 65 F0 | 	shl	arg04, #24
024dc     10 14 65 F0 | 	shl	arg05, #16
024e0     8A 12 01 F1 | 	add	arg04, arg05
024e4                 | ' repeat iii from 0 to strsize(text)-1
024e4     00 32 05 F6 | 	mov	local02, #0
024e8     88 0C 01 F6 | 	mov	arg01, arg03
024ec     00 34 05 F6 | 	mov	local03, #0
024f0     1C DB 9F FE | 	loc	pa,	#(@LR__0078-@LR__0077)
024f4     35 00 A0 FD | 	call	#FCACHE_LOAD_
024f8                 | LR__0077
024f8     86 36 C9 FA | 	rdbyte	local04, arg01 wz
024fc     01 34 05 51 |  if_ne	add	local03, #1
02500     01 0C 05 51 |  if_ne	add	arg01, #1
02504     F0 FF 9F 5D |  if_ne	jmp	#LR__0077
02508                 | LR__0078
02508     9A FA 00 F6 | 	mov	result1, local03
0250c     7D 38 01 F6 | 	mov	local05, result1
02510     01 38 85 F1 | 	sub	local05, #1
02514     00 38 5D F2 | 	cmps	local05, #0 wcz
02518     01 3A 05 16 |  if_a	mov	local06, #1
0251c     01 3A 65 E6 |  if_be	neg	local06, #1
02520     9D 38 01 F1 | 	add	local05, local06
02524     B4 DB 9F FE | 	loc	pa,	#(@LR__0080-@LR__0079)
02528     35 00 A0 FD | 	call	#FCACHE_LOAD_
0252c                 | LR__0079
0252c                 | '   long[buf_ptr+4*(cpl*y+x+iii)]:=(long[buf_ptr+4*(cpl*y+x+iii)] & $FFFFFF00)  | byte[text+iii]
0252c     78 3C 01 FB | 	rdlong	local07, objptr
02530     24 F1 04 F1 | 	add	objptr, #292
02534     78 3E 01 FB | 	rdlong	local08, objptr
02538     24 F1 84 F1 | 	sub	objptr, #292
0253c     87 3E 01 FD | 	qmul	local08, arg02
02540     18 40 61 FD | 	getqx	local09
02544     98 40 01 F1 | 	add	local09, local01
02548     99 40 01 F1 | 	add	local09, local02
0254c     02 40 65 F0 | 	shl	local09, #2
02550     A0 3C 01 F1 | 	add	local07, local09
02554     9E 42 01 FB | 	rdlong	local10, local07
02558     FF 42 25 F5 | 	andn	local10, #255
0255c     88 44 01 F6 | 	mov	local11, arg03
02560     99 44 01 F1 | 	add	local11, local02
02564     A2 46 C1 FA | 	rdbyte	local12, local11
02568     A3 42 41 F5 | 	or	local10, local12
0256c     78 48 01 FB | 	rdlong	local13, objptr
02570     24 F1 04 F1 | 	add	objptr, #292
02574     78 4A 01 FB | 	rdlong	local14, objptr
02578     24 F1 84 F1 | 	sub	objptr, #292
0257c     87 4A 01 FD | 	qmul	local14, arg02
02580     18 4C 61 FD | 	getqx	local15
02584     98 4C 01 F1 | 	add	local15, local01
02588     99 4C 01 F1 | 	add	local15, local02
0258c     02 4C 65 F0 | 	shl	local15, #2
02590     A6 48 01 F1 | 	add	local13, local15
02594     A4 42 61 FC | 	wrlong	local10, local13
02598                 | '   long[buf_ptr+4*(cpl*y+x+iii)]:=(long[buf_ptr+4*(cpl*y+x+iii)] & $0000FFFF)  | c
02598     78 3C 01 FB | 	rdlong	local07, objptr
0259c     24 F1 04 F1 | 	add	objptr, #292
025a0     78 3E 01 FB | 	rdlong	local08, objptr
025a4     24 F1 84 F1 | 	sub	objptr, #292
025a8     87 3E 01 FD | 	qmul	local08, arg02
025ac     18 40 61 FD | 	getqx	local09
025b0     98 40 01 F1 | 	add	local09, local01
025b4     99 40 01 F1 | 	add	local09, local02
025b8     02 40 65 F0 | 	shl	local09, #2
025bc     A0 3C 01 F1 | 	add	local07, local09
025c0     9E 42 01 FB | 	rdlong	local10, local07
025c4     7F 00 00 FF 
025c8     FF 43 05 F5 | 	and	local10, ##65535
025cc     89 42 41 F5 | 	or	local10, arg04
025d0     78 44 01 FB | 	rdlong	local11, objptr
025d4     24 F1 04 F1 | 	add	objptr, #292
025d8     78 4E 01 FB | 	rdlong	local16, objptr
025dc     24 F1 84 F1 | 	sub	objptr, #292
025e0     87 4E 01 FD | 	qmul	local16, arg02
025e4     18 4A 61 FD | 	getqx	local14
025e8     98 4A 01 F1 | 	add	local14, local01
025ec     99 4A 01 F1 | 	add	local14, local02
025f0     02 4A 65 F0 | 	shl	local14, #2
025f4     A5 44 01 F1 | 	add	local11, local14
025f8     A2 42 61 FC | 	wrlong	local10, local11
025fc     9D 32 01 F1 | 	add	local02, local06
02600     9C 32 09 F2 | 	cmp	local02, local05 wz
02604     24 FF 9F 5D |  if_ne	jmp	#LR__0079
02608                 | LR__0080
02608     46 F0 03 F6 | 	mov	ptra, fp
0260c     5A 00 A0 FD | 	call	#popregs_
02610                 | _hng012_outtextxyc_ret
02610     2D 00 64 FD | 	ret
02614                 | 
02614                 | ' 
02614                 | ' ''---------- Output a char at the cursor position, move the cursor
02614                 | ' 
02614                 | ' pub putchar(achar) | c,x,y
02614                 | _hng012_putchar
02614     0E 88 04 F6 | 	mov	COUNT_, #14
02618     4B 00 A0 FD | 	call	#pushregs_
0261c                 | ' 
0261c                 | ' x:=cursor_x
0261c     C8 F0 04 F1 | 	add	objptr, #200
02620     78 30 C1 FA | 	rdbyte	local01, objptr
02624                 | ' y:=cursor_y
02624     01 F0 04 F1 | 	add	objptr, #1
02628     78 32 C1 FA | 	rdbyte	local02, objptr
0262c                 | ' c:=write_color<<24+write_background<<16
0262c     03 F0 04 F1 | 	add	objptr, #3
02630     78 34 01 FB | 	rdlong	local03, objptr
02634     18 34 65 F0 | 	shl	local03, #24
02638     04 F0 04 F1 | 	add	objptr, #4
0263c     78 36 01 FB | 	rdlong	local04, objptr
02640     D0 F0 84 F1 | 	sub	objptr, #208
02644     10 36 65 F0 | 	shl	local04, #16
02648     9B 34 01 F1 | 	add	local03, local04
0264c                 | ' long[buf_ptr+4*(cpl*y+x)]:=long[buf_ptr+4*(cpl*y+x)] &$FFFF | c
0264c     78 38 01 FB | 	rdlong	local05, objptr
02650     24 F1 04 F1 | 	add	objptr, #292
02654     78 3A 01 FB | 	rdlong	local06, objptr
02658     24 F1 84 F1 | 	sub	objptr, #292
0265c     99 3A 01 FD | 	qmul	local06, local02
02660     18 3C 61 FD | 	getqx	local07
02664     98 3C 01 F1 | 	add	local07, local01
02668     02 3C 65 F0 | 	shl	local07, #2
0266c     9E 38 01 F1 | 	add	local05, local07
02670     9C 3E 01 FB | 	rdlong	local08, local05
02674     7F 00 00 FF 
02678     FF 3F 05 F5 | 	and	local08, ##65535
0267c     9A 3E 41 F5 | 	or	local08, local03
02680     78 40 01 FB | 	rdlong	local09, objptr
02684     24 F1 04 F1 | 	add	objptr, #292
02688     78 42 01 FB | 	rdlong	local10, objptr
0268c     24 F1 84 F1 | 	sub	objptr, #292
02690     99 42 01 FD | 	qmul	local10, local02
02694     18 44 61 FD | 	getqx	local11
02698     98 44 01 F1 | 	add	local11, local01
0269c     02 44 65 F0 | 	shl	local11, #2
026a0     A2 40 01 F1 | 	add	local09, local11
026a4     A0 3E 61 FC | 	wrlong	local08, local09
026a8                 | ' long[buf_ptr+4*(cpl*y+x)]:=(long[buf_ptr+4*(cpl*y+x)] & $FFFFFF00)  |(achar & $000000FF)
026a8     78 38 01 FB | 	rdlong	local05, objptr
026ac     24 F1 04 F1 | 	add	objptr, #292
026b0     78 3A 01 FB | 	rdlong	local06, objptr
026b4     24 F1 84 F1 | 	sub	objptr, #292
026b8     99 3A 01 FD | 	qmul	local06, local02
026bc     18 3C 61 FD | 	getqx	local07
026c0     98 3C 01 F1 | 	add	local07, local01
026c4     02 3C 65 F0 | 	shl	local07, #2
026c8     9E 38 01 F1 | 	add	local05, local07
026cc     9C 3E 01 FB | 	rdlong	local08, local05
026d0     FF 3E 25 F5 | 	andn	local08, #255
026d4     86 40 01 F6 | 	mov	local09, arg01
026d8     FF 40 05 F5 | 	and	local09, #255
026dc     A0 3E 41 F5 | 	or	local08, local09
026e0     78 46 01 FB | 	rdlong	local12, objptr
026e4     24 F1 04 F1 | 	add	objptr, #292
026e8     78 48 01 FB | 	rdlong	local13, objptr
026ec     99 48 01 FD | 	qmul	local13, local02
026f0     18 4A 61 FD | 	getqx	local14
026f4     98 4A 01 F1 | 	add	local14, local01
026f8     02 4A 65 F0 | 	shl	local14, #2
026fc     A5 46 01 F1 | 	add	local12, local14
02700     A3 3E 61 FC | 	wrlong	local08, local12
02704                 | ' cursor_x+=1
02704     5C F0 84 F1 | 	sub	objptr, #92
02708     78 3E C1 FA | 	rdbyte	local08, objptr
0270c     01 3E 05 F1 | 	add	local08, #1
02710     78 3E 41 FC | 	wrbyte	local08, objptr
02714                 | ' if cursor_x==cpl
02714     78 3E C1 FA | 	rdbyte	local08, objptr
02718     5C F0 04 F1 | 	add	objptr, #92
0271c     78 36 01 FB | 	rdlong	local04, objptr
02720     24 F1 84 F1 | 	sub	objptr, #292
02724     9B 3E 09 F2 | 	cmp	local08, local04 wz
02728     54 00 90 5D |  if_ne	jmp	#LR__0082
0272c                 | '   cursor_x:=0
0272c     C8 F0 04 F1 | 	add	objptr, #200
02730     78 00 48 FC | 	wrbyte	#0, objptr
02734                 | '   cursor_y+=1
02734     01 F0 04 F1 | 	add	objptr, #1
02738     78 3E C1 FA | 	rdbyte	local08, objptr
0273c     01 3E 05 F1 | 	add	local08, #1
02740     78 3E 41 FC | 	wrbyte	local08, objptr
02744                 | '   if cursor_y>lines-1
02744     5F F0 04 F1 | 	add	objptr, #95
02748     78 3E 01 FB | 	rdlong	local08, objptr
0274c     01 3E 85 F1 | 	sub	local08, #1
02750     5F F0 84 F1 | 	sub	objptr, #95
02754     78 36 C1 FA | 	rdbyte	local04, objptr
02758     C9 F0 84 F1 | 	sub	objptr, #201
0275c     9F 36 59 F2 | 	cmps	local04, local08 wcz
02760     1C 00 90 ED |  if_be	jmp	#LR__0081
02764                 | '     scrollup()
02764     7C 02 B0 FD | 	call	#_hng012_scrollup
02768                 | '     cursor_y:=lines-1
02768     28 F1 04 F1 | 	add	objptr, #296
0276c     78 3E 01 FB | 	rdlong	local08, objptr
02770     01 3E 85 F1 | 	sub	local08, #1
02774     5F F0 84 F1 | 	sub	objptr, #95
02778     78 3E 41 FC | 	wrbyte	local08, objptr
0277c     C9 F0 84 F1 | 	sub	objptr, #201
02780                 | LR__0081
02780                 | LR__0082
02780     46 F0 03 F6 | 	mov	ptra, fp
02784     5A 00 A0 FD | 	call	#popregs_
02788                 | _hng012_putchar_ret
02788     2D 00 64 FD | 	ret
0278c                 | 
0278c                 | ' 
0278c                 | ' ''--------- Output a string at the cursor position, move the cursor
0278c                 | ' 
0278c                 | ' pub write(text) | iii,c,ncx,ncy
0278c                 | _hng012_write
0278c     17 88 04 F6 | 	mov	COUNT_, #23
02790     4B 00 A0 FD | 	call	#pushregs_
02794     86 30 01 F6 | 	mov	local01, arg01
02798                 | ' 
02798                 | ' c:=write_color<<24+write_background<<16
02798     CC F0 04 F1 | 	add	objptr, #204
0279c     78 32 01 FB | 	rdlong	local02, objptr
027a0     18 32 65 F0 | 	shl	local02, #24
027a4     04 F0 04 F1 | 	add	objptr, #4
027a8     78 34 01 FB | 	rdlong	local03, objptr
027ac     10 34 65 F0 | 	shl	local03, #16
027b0     9A 32 01 F1 | 	add	local02, local03
027b4                 | ' 'debug(uhex_long(write_color))
027b4                 | ' ncy:=cursor_y
027b4     07 F0 84 F1 | 	sub	objptr, #7
027b8     78 36 C1 FA | 	rdbyte	local04, objptr
027bc                 | ' ncx:=cursor_x+strsize(text)
027bc     01 F0 84 F1 | 	sub	objptr, #1
027c0     78 38 C1 FA | 	rdbyte	local05, objptr
027c4     C8 F0 84 F1 | 	sub	objptr, #200
027c8     98 0C 01 F6 | 	mov	arg01, local01
027cc     00 3A 05 F6 | 	mov	local06, #0
027d0     3C D8 9F FE | 	loc	pa,	#(@LR__0084-@LR__0083)
027d4     35 00 A0 FD | 	call	#FCACHE_LOAD_
027d8                 | LR__0083
027d8     86 3C C9 FA | 	rdbyte	local07, arg01 wz
027dc     01 3A 05 51 |  if_ne	add	local06, #1
027e0     01 0C 05 51 |  if_ne	add	arg01, #1
027e4     F0 FF 9F 5D |  if_ne	jmp	#LR__0083
027e8                 | LR__0084
027e8     9D FA 00 F6 | 	mov	result1, local06
027ec     9D 38 01 F1 | 	add	local05, local06
027f0     9C 3E 01 F6 | 	mov	local08, local05
027f4     38 D8 9F FE | 	loc	pa,	#(@LR__0086-@LR__0085)
027f8     35 00 A0 FD | 	call	#FCACHE_LOAD_
027fc                 | ' repeat while ncx>cpl-1
027fc                 | LR__0085
027fc     24 F1 04 F1 | 	add	objptr, #292
02800     78 38 01 FB | 	rdlong	local05, objptr
02804     24 F1 84 F1 | 	sub	objptr, #292
02808     01 38 85 F1 | 	sub	local05, #1
0280c     9C 3E 59 F2 | 	cmps	local08, local05 wcz
02810     18 00 90 ED |  if_be	jmp	#LR__0087
02814                 | '   ncx-=cpl
02814     24 F1 04 F1 | 	add	objptr, #292
02818     78 40 01 FB | 	rdlong	local09, objptr
0281c     24 F1 84 F1 | 	sub	objptr, #292
02820     A0 3E 81 F1 | 	sub	local08, local09
02824                 | '   ncy+=1
02824     01 36 05 F1 | 	add	local04, #1
02828     D0 FF 9F FD | 	jmp	#LR__0085
0282c                 | LR__0086
0282c                 | LR__0087
0282c                 | ' repeat while ncy>lines-1
0282c                 | LR__0088
0282c     28 F1 04 F1 | 	add	objptr, #296
02830     78 38 01 FB | 	rdlong	local05, objptr
02834     28 F1 84 F1 | 	sub	objptr, #296
02838     01 38 85 F1 | 	sub	local05, #1
0283c     9C 36 59 F2 | 	cmps	local04, local05 wcz
02840     20 00 90 ED |  if_be	jmp	#LR__0089
02844                 | '   ncy-=1
02844     01 36 85 F1 | 	sub	local04, #1
02848                 | '   scrollup()
02848     98 01 B0 FD | 	call	#_hng012_scrollup
0284c                 | '   cursor_y-=1
0284c     C9 F0 04 F1 | 	add	objptr, #201
02850     78 38 C1 FA | 	rdbyte	local05, objptr
02854     01 38 85 F1 | 	sub	local05, #1
02858     78 38 41 FC | 	wrbyte	local05, objptr
0285c     C9 F0 84 F1 | 	sub	objptr, #201
02860     C8 FF 9F FD | 	jmp	#LR__0088
02864                 | LR__0089
02864                 | ' 
02864                 | ' repeat iii from 0 to strsize(text)-1
02864     00 42 05 F6 | 	mov	local10, #0
02868     98 0C 01 F6 | 	mov	arg01, local01
0286c     00 3A 05 F6 | 	mov	local06, #0
02870     9C D7 9F FE | 	loc	pa,	#(@LR__0091-@LR__0090)
02874     35 00 A0 FD | 	call	#FCACHE_LOAD_
02878                 | LR__0090
02878     86 3C C9 FA | 	rdbyte	local07, arg01 wz
0287c     01 3A 05 51 |  if_ne	add	local06, #1
02880     01 0C 05 51 |  if_ne	add	arg01, #1
02884     F0 FF 9F 5D |  if_ne	jmp	#LR__0090
02888                 | LR__0091
02888     9D FA 00 F6 | 	mov	result1, local06
0288c     7D 44 01 F6 | 	mov	local11, result1
02890     01 44 85 F1 | 	sub	local11, #1
02894     00 44 5D F2 | 	cmps	local11, #0 wcz
02898     01 46 05 16 |  if_a	mov	local12, #1
0289c     01 46 65 E6 |  if_be	neg	local12, #1
028a0     A3 44 01 F1 | 	add	local11, local12
028a4     E8 D7 9F FE | 	loc	pa,	#(@LR__0093-@LR__0092)
028a8     35 00 A0 FD | 	call	#FCACHE_LOAD_
028ac                 | LR__0092
028ac                 | ' 
028ac                 | '   long[buf_ptr+4*(cpl*cursor_y+cursor_x+iii)]:=long[buf_ptr+4*(cpl*cursor_y+cursor_x+iii)] &$FFFF | c
028ac     78 48 01 FB | 	rdlong	local13, objptr
028b0     24 F1 04 F1 | 	add	objptr, #292
028b4     78 4A 01 FB | 	rdlong	local14, objptr
028b8     5B F0 84 F1 | 	sub	objptr, #91
028bc     78 4C C1 FA | 	rdbyte	local15, objptr
028c0     A6 4A 01 FD | 	qmul	local14, local15
028c4     18 4E 61 FD | 	getqx	local16
028c8     01 F0 84 F1 | 	sub	objptr, #1
028cc     78 50 C1 FA | 	rdbyte	local17, objptr
028d0     C8 F0 84 F1 | 	sub	objptr, #200
028d4     A8 4E 01 F1 | 	add	local16, local17
028d8     A1 4E 01 F1 | 	add	local16, local10
028dc     02 4E 65 F0 | 	shl	local16, #2
028e0     A7 48 01 F1 | 	add	local13, local16
028e4     A4 52 01 FB | 	rdlong	local18, local13
028e8     7F 00 00 FF 
028ec     FF 53 05 F5 | 	and	local18, ##65535
028f0     99 52 41 F5 | 	or	local18, local02
028f4     78 54 01 FB | 	rdlong	local19, objptr
028f8     24 F1 04 F1 | 	add	objptr, #292
028fc     78 56 01 FB | 	rdlong	local20, objptr
02900     5B F0 84 F1 | 	sub	objptr, #91
02904     78 58 C1 FA | 	rdbyte	local21, objptr
02908     AC 56 01 FD | 	qmul	local20, local21
0290c     18 5A 61 FD | 	getqx	local22
02910     01 F0 84 F1 | 	sub	objptr, #1
02914     78 5C C1 FA | 	rdbyte	local23, objptr
02918     C8 F0 84 F1 | 	sub	objptr, #200
0291c     AE 5A 01 F1 | 	add	local22, local23
02920     A1 5A 01 F1 | 	add	local22, local10
02924     02 5A 65 F0 | 	shl	local22, #2
02928     AD 54 01 F1 | 	add	local19, local22
0292c     AA 52 61 FC | 	wrlong	local18, local19
02930     A3 42 01 F1 | 	add	local10, local12
02934     A2 42 09 F2 | 	cmp	local10, local11 wz
02938     70 FF 9F 5D |  if_ne	jmp	#LR__0092
0293c                 | LR__0093
0293c                 | ' 
0293c                 | ' outtextxy(cursor_x,cursor_y,text)
0293c     C8 F0 04 F1 | 	add	objptr, #200
02940     78 0C C1 FA | 	rdbyte	arg01, objptr
02944     01 F0 04 F1 | 	add	objptr, #1
02948     78 0E C1 FA | 	rdbyte	arg02, objptr
0294c     C9 F0 84 F1 | 	sub	objptr, #201
02950     98 10 01 F6 | 	mov	arg03, local01
02954     9C FA BF FD | 	call	#_hng012_outtextxy
02958                 | ' 
02958                 | ' cursor_x:=ncx
02958     C8 F0 04 F1 | 	add	objptr, #200
0295c     78 3E 41 FC | 	wrbyte	local08, objptr
02960                 | ' cursor_y:=ncy
02960     01 F0 04 F1 | 	add	objptr, #1
02964     78 36 41 FC | 	wrbyte	local04, objptr
02968     C9 F0 84 F1 | 	sub	objptr, #201
0296c     46 F0 03 F6 | 	mov	ptra, fp
02970     5A 00 A0 FD | 	call	#popregs_
02974                 | _hng012_write_ret
02974     2D 00 64 FD | 	ret
02978                 | 
02978                 | ' 
02978                 | ' '--------- Output a string at the cursor position x,y, move the cursor to the next line
02978                 | ' 
02978                 | ' pub writeln(text)
02978                 | _hng012_writeln
02978     02 88 04 F6 | 	mov	COUNT_, #2
0297c     4B 00 A0 FD | 	call	#pushregs_
02980                 | ' 
02980                 | ' write(text)
02980     08 FE BF FD | 	call	#_hng012_write
02984                 | ' cursor_x:=0
02984     C8 F0 04 F1 | 	add	objptr, #200
02988     78 00 48 FC | 	wrbyte	#0, objptr
0298c                 | ' cursor_y+=1
0298c     01 F0 04 F1 | 	add	objptr, #1
02990     78 30 C1 FA | 	rdbyte	local01, objptr
02994     01 30 05 F1 | 	add	local01, #1
02998     78 30 41 FC | 	wrbyte	local01, objptr
0299c                 | ' if (cursor_y>lines-1)
0299c     5F F0 04 F1 | 	add	objptr, #95
029a0     78 30 01 FB | 	rdlong	local01, objptr
029a4     01 30 85 F1 | 	sub	local01, #1
029a8     5F F0 84 F1 | 	sub	objptr, #95
029ac     78 32 C1 FA | 	rdbyte	local02, objptr
029b0     C9 F0 84 F1 | 	sub	objptr, #201
029b4     98 32 59 F2 | 	cmps	local02, local01 wcz
029b8     1C 00 90 ED |  if_be	jmp	#LR__0094
029bc                 | '   scrollup()
029bc     24 00 B0 FD | 	call	#_hng012_scrollup
029c0                 | '   cursor_y:=lines-1
029c0     28 F1 04 F1 | 	add	objptr, #296
029c4     78 30 01 FB | 	rdlong	local01, objptr
029c8     01 30 85 F1 | 	sub	local01, #1
029cc     5F F0 84 F1 | 	sub	objptr, #95
029d0     78 30 41 FC | 	wrbyte	local01, objptr
029d4     C9 F0 84 F1 | 	sub	objptr, #201
029d8                 | LR__0094
029d8     46 F0 03 F6 | 	mov	ptra, fp
029dc     5A 00 A0 FD | 	call	#popregs_
029e0                 | _hng012_writeln_ret
029e0     2D 00 64 FD | 	ret
029e4                 | 
029e4                 | ' 
029e4                 | ' ''-----------  Scroll the screen one line up
029e4                 | ' 
029e4                 | ' pub scrollup() | i
029e4                 | _hng012_scrollup
029e4     0C 88 04 F6 | 	mov	COUNT_, #12
029e8     4B 00 A0 FD | 	call	#pushregs_
029ec                 | ' 
029ec                 | ' longmove(buf_ptr,buf_ptr+4*cpl,buflen-cpl)
029ec     78 0C 01 FB | 	rdlong	arg01, objptr
029f0     86 0E 01 F6 | 	mov	arg02, arg01
029f4     24 F1 04 F1 | 	add	objptr, #292
029f8     78 30 01 FB | 	rdlong	local01, objptr
029fc     02 30 65 F0 | 	shl	local01, #2
02a00     98 0E 01 F1 | 	add	arg02, local01
02a04     60 F0 84 F1 | 	sub	objptr, #96
02a08     78 10 01 FB | 	rdlong	arg03, objptr
02a0c     60 F0 04 F1 | 	add	objptr, #96
02a10     78 32 01 FB | 	rdlong	local02, objptr
02a14     24 F1 84 F1 | 	sub	objptr, #292
02a18     99 10 81 F1 | 	sub	arg03, local02
02a1c     68 08 B0 FD | 	call	#__system__longmove
02a20                 | ' repeat i from buflen-cpl to buflen-1
02a20     C4 F0 04 F1 | 	add	objptr, #196
02a24     78 34 01 FB | 	rdlong	local03, objptr
02a28     60 F0 04 F1 | 	add	objptr, #96
02a2c     78 30 01 FB | 	rdlong	local01, objptr
02a30     98 34 81 F1 | 	sub	local03, local01
02a34     60 F0 84 F1 | 	sub	objptr, #96
02a38     78 36 01 FB | 	rdlong	local04, objptr
02a3c     01 36 85 F1 | 	sub	local04, #1
02a40     78 38 01 FB | 	rdlong	local05, objptr
02a44     60 F0 04 F1 | 	add	objptr, #96
02a48     78 3A 01 FB | 	rdlong	local06, objptr
02a4c     24 F1 84 F1 | 	sub	objptr, #292
02a50     9D 38 81 F1 | 	sub	local05, local06
02a54     9C 36 59 F2 | 	cmps	local04, local05 wcz
02a58     01 3C 05 16 |  if_a	mov	local07, #1
02a5c     01 3C 65 E6 |  if_be	neg	local07, #1
02a60     9E 36 01 F1 | 	add	local04, local07
02a64     D8 D5 9F FE | 	loc	pa,	#(@LR__0096-@LR__0095)
02a68     35 00 A0 FD | 	call	#FCACHE_LOAD_
02a6c                 | LR__0095
02a6c                 | '   long[buf_ptr+4*i]:=(long[buf_ptr+4*i] & $FFFF0000) | 32
02a6c     78 3E 01 FB | 	rdlong	local08, objptr
02a70     9A 40 01 F6 | 	mov	local09, local03
02a74     02 40 65 F0 | 	shl	local09, #2
02a78     A0 3E 01 F1 | 	add	local08, local09
02a7c     9F 42 01 FB | 	rdlong	local10, local08
02a80     80 FF 7F FF 
02a84     00 42 05 F5 | 	and	local10, ##-65536
02a88     20 42 45 F5 | 	or	local10, #32
02a8c     78 44 01 FB | 	rdlong	local11, objptr
02a90     9A 46 01 F6 | 	mov	local12, local03
02a94     02 46 65 F0 | 	shl	local12, #2
02a98     A3 44 01 F1 | 	add	local11, local12
02a9c     A2 42 61 FC | 	wrlong	local10, local11
02aa0     9E 34 01 F1 | 	add	local03, local07
02aa4     9B 34 09 F2 | 	cmp	local03, local04 wz
02aa8     C0 FF 9F 5D |  if_ne	jmp	#LR__0095
02aac                 | LR__0096
02aac     46 F0 03 F6 | 	mov	ptra, fp
02ab0     5A 00 A0 FD | 	call	#popregs_
02ab4                 | _hng012_scrollup_ret
02ab4     2D 00 64 FD | 	ret
02ab8                 | 
02ab8                 | ' 
02ab8                 | ' ''----------- Scroll the screen one line down
02ab8                 | ' 
02ab8                 | ' pub scrolldown() | i
02ab8                 | _hng012_scrolldown
02ab8     09 88 04 F6 | 	mov	COUNT_, #9
02abc     4B 00 A0 FD | 	call	#pushregs_
02ac0                 | ' 
02ac0                 | ' longmove(buf_ptr+cpl*4,buf_ptr,buflen-cpl)
02ac0     78 0C 01 FB | 	rdlong	arg01, objptr
02ac4     24 F1 04 F1 | 	add	objptr, #292
02ac8     78 30 01 FB | 	rdlong	local01, objptr
02acc     24 F1 84 F1 | 	sub	objptr, #292
02ad0     02 30 65 F0 | 	shl	local01, #2
02ad4     98 0C 01 F1 | 	add	arg01, local01
02ad8     78 0E 01 FB | 	rdlong	arg02, objptr
02adc     C4 F0 04 F1 | 	add	objptr, #196
02ae0     78 10 01 FB | 	rdlong	arg03, objptr
02ae4     60 F0 04 F1 | 	add	objptr, #96
02ae8     78 32 01 FB | 	rdlong	local02, objptr
02aec     24 F1 84 F1 | 	sub	objptr, #292
02af0     99 10 81 F1 | 	sub	arg03, local02
02af4     90 07 B0 FD | 	call	#__system__longmove
02af8                 | ' repeat i from 0 to cpl-1
02af8     00 34 05 F6 | 	mov	local03, #0
02afc     24 F1 04 F1 | 	add	objptr, #292
02b00     78 36 01 FB | 	rdlong	local04, objptr
02b04     24 F1 84 F1 | 	sub	objptr, #292
02b08     01 36 85 F1 | 	sub	local04, #1
02b0c     00 36 5D F2 | 	cmps	local04, #0 wcz
02b10     01 38 05 16 |  if_a	mov	local05, #1
02b14     01 38 65 E6 |  if_be	neg	local05, #1
02b18     9C 36 01 F1 | 	add	local04, local05
02b1c     20 D5 9F FE | 	loc	pa,	#(@LR__0098-@LR__0097)
02b20     35 00 A0 FD | 	call	#FCACHE_LOAD_
02b24                 | LR__0097
02b24                 | '   long[buf_ptr+4*i]:=(long[buf_ptr+4*i] & $FFFF0000) | 32
02b24     78 3A 01 FB | 	rdlong	local06, objptr
02b28     9A 3C 01 F6 | 	mov	local07, local03
02b2c     02 3C 65 F0 | 	shl	local07, #2
02b30     9E 3A 01 F1 | 	add	local06, local07
02b34     9D 3E 01 FB | 	rdlong	local08, local06
02b38     80 FF 7F FF 
02b3c     00 3E 05 F5 | 	and	local08, ##-65536
02b40     20 3E 45 F5 | 	or	local08, #32
02b44     78 40 01 FB | 	rdlong	local09, objptr
02b48     9A 32 01 F6 | 	mov	local02, local03
02b4c     02 32 65 F0 | 	shl	local02, #2
02b50     99 40 01 F1 | 	add	local09, local02
02b54     A0 3E 61 FC | 	wrlong	local08, local09
02b58     9C 34 01 F1 | 	add	local03, local05
02b5c     9B 34 09 F2 | 	cmp	local03, local04 wz
02b60     C0 FF 9F 5D |  if_ne	jmp	#LR__0097
02b64                 | LR__0098
02b64     46 F0 03 F6 | 	mov	ptra, fp
02b68     5A 00 A0 FD | 	call	#popregs_
02b6c                 | _hng012_scrolldown_ret
02b6c     2D 00 64 FD | 	ret
02b70                 | 
02b70                 | ' 
02b70                 | ' ''----------- Set cursor at the first character in a new line, scroll if needed
02b70                 | ' 
02b70                 | ' pub crlf()
02b70                 | _hng012_crlf
02b70     02 88 04 F6 | 	mov	COUNT_, #2
02b74     4B 00 A0 FD | 	call	#pushregs_
02b78                 | ' 
02b78                 | ' cursor_x:=0
02b78     C8 F0 04 F1 | 	add	objptr, #200
02b7c     78 00 48 FC | 	wrbyte	#0, objptr
02b80                 | ' cursor_y+=1
02b80     01 F0 04 F1 | 	add	objptr, #1
02b84     78 30 C1 FA | 	rdbyte	local01, objptr
02b88     01 30 05 F1 | 	add	local01, #1
02b8c     78 30 41 FC | 	wrbyte	local01, objptr
02b90                 | ' if cursor_y>lines-1
02b90     5F F0 04 F1 | 	add	objptr, #95
02b94     78 30 01 FB | 	rdlong	local01, objptr
02b98     01 30 85 F1 | 	sub	local01, #1
02b9c     5F F0 84 F1 | 	sub	objptr, #95
02ba0     78 32 C1 FA | 	rdbyte	local02, objptr
02ba4     C9 F0 84 F1 | 	sub	objptr, #201
02ba8     98 32 59 F2 | 	cmps	local02, local01 wcz
02bac     1C 00 90 ED |  if_be	jmp	#LR__0099
02bb0                 | '   scrollup()
02bb0     30 FE BF FD | 	call	#_hng012_scrollup
02bb4                 | '   cursor_y:=lines-1
02bb4     28 F1 04 F1 | 	add	objptr, #296
02bb8     78 30 01 FB | 	rdlong	local01, objptr
02bbc     01 30 85 F1 | 	sub	local01, #1
02bc0     5F F0 84 F1 | 	sub	objptr, #95
02bc4     78 30 41 FC | 	wrbyte	local01, objptr
02bc8     C9 F0 84 F1 | 	sub	objptr, #201
02bcc                 | LR__0099
02bcc     46 F0 03 F6 | 	mov	ptra, fp
02bd0     5A 00 A0 FD | 	call	#popregs_
02bd4                 | _hng012_crlf_ret
02bd4     2D 00 64 FD | 	ret
02bd8                 | 
02bd8                 | ' 
02bd8                 | ' 
02bd8                 | ' '*************************************************************************
02bd8                 | ' '                                                                        *
02bd8                 | ' '  Conversions                                                           *
02bd8                 | ' '                                                                        *
02bd8                 | ' '*************************************************************************
02bd8                 | ' 
02bd8                 | ' ''---------- Convert a integer to dec string, return a pointer
02bd8                 | ' 
02bd8                 | ' pub inttostr(i):result |q,pos,k,j
02bd8                 | _hng012_inttostr
02bd8     06 88 04 F6 | 	mov	COUNT_, #6
02bdc     4B 00 A0 FD | 	call	#pushregs_
02be0     86 30 01 F6 | 	mov	local01, arg01
02be4                 | ' 
02be4                 | ' j:=i
02be4     98 32 09 F6 | 	mov	local02, local01 wz
02be8                 | ' pos:=10
02be8     0A 34 05 F6 | 	mov	local03, #10
02bec                 | ' k:=0
02bec     00 36 05 F6 | 	mov	local04, #0
02bf0                 | ' 
02bf0                 | ' if (j==0)
02bf0     18 00 90 5D |  if_ne	jmp	#LR__0100
02bf4                 | '   n_string[0]:=48
02bf4     D8 F0 04 F1 | 	add	objptr, #216
02bf8     78 60 48 FC | 	wrbyte	#48, objptr
02bfc                 | '   n_string[1]:=0
02bfc     01 F0 04 F1 | 	add	objptr, #1
02c00     78 00 48 FC | 	wrbyte	#0, objptr
02c04     D9 F0 84 F1 | 	sub	objptr, #217
02c08                 | ' 
02c08                 | ' else
02c08     C4 00 90 FD | 	jmp	#LR__0107
02c0c                 | LR__0100
02c0c                 | '   if (j<0)
02c0c     00 32 5D F2 | 	cmps	local02, #0 wcz
02c10                 | '     j:=0-j
02c10     99 32 61 C6 |  if_b	neg	local02, local02
02c14                 | '     k:=45
02c14     2D 36 05 C6 |  if_b	mov	local04, #45
02c18                 | ' 
02c18                 | '   n_string[11]:=0
02c18     E3 F0 04 F1 | 	add	objptr, #227
02c1c     78 00 48 FC | 	wrbyte	#0, objptr
02c20     E3 F0 84 F1 | 	sub	objptr, #227
02c24     18 D4 9F FE | 	loc	pa,	#(@LR__0102-@LR__0101)
02c28     35 00 A0 FD | 	call	#FCACHE_LOAD_
02c2c                 | '   repeat while (pos>-1)
02c2c                 | LR__0101
02c2c     FF FF 7F FF 
02c30     FF 35 5D F2 | 	cmps	local03, ##-1 wcz
02c34     34 00 90 ED |  if_be	jmp	#LR__0103
02c38                 | '     q:=j//10
02c38     99 5E 01 F6 | 	mov	muldiva_, local02
02c3c     0A 60 05 F6 | 	mov	muldivb_, #10
02c40     6B 00 A0 FD | 	call	#divide_
02c44                 | '     q:=48+q
02c44     30 38 05 F6 | 	mov	local05, #48
02c48     AF 38 01 F1 | 	add	local05, muldiva_
02c4c                 | '     n_string[pos]:=q
02c4c     9A 3A 01 F6 | 	mov	local06, local03
02c50     D8 F0 04 F1 | 	add	objptr, #216
02c54     78 3A 01 F1 | 	add	local06, objptr
02c58     9D 38 41 FC | 	wrbyte	local05, local06
02c5c                 | '     j:=j/10
02c5c     B0 32 01 F6 | 	mov	local02, muldivb_
02c60                 | '     pos-=1
02c60     01 34 85 F1 | 	sub	local03, #1
02c64     D8 F0 84 F1 | 	sub	objptr, #216
02c68     C0 FF 9F FD | 	jmp	#LR__0101
02c6c                 | LR__0102
02c6c                 | LR__0103
02c6c                 | '   repeat while n_string[0]==48
02c6c                 | LR__0104
02c6c     D8 F0 04 F1 | 	add	objptr, #216
02c70     78 3A C1 FA | 	rdbyte	local06, objptr
02c74     D8 F0 84 F1 | 	sub	objptr, #216
02c78     30 3A 0D F2 | 	cmp	local06, #48 wz
02c7c     20 00 90 5D |  if_ne	jmp	#LR__0105
02c80                 | '     bytemove(@n_string,@n_string+1,12)
02c80     D8 F0 04 F1 | 	add	objptr, #216
02c84     78 0C 01 F6 | 	mov	arg01, objptr
02c88     78 0E 01 F6 | 	mov	arg02, objptr
02c8c     D8 F0 84 F1 | 	sub	objptr, #216
02c90     01 0E 05 F1 | 	add	arg02, #1
02c94     0C 10 05 F6 | 	mov	arg03, #12
02c98     5C 05 B0 FD | 	call	#__system__bytemove
02c9c     CC FF 9F FD | 	jmp	#LR__0104
02ca0                 | LR__0105
02ca0                 | ' 
02ca0                 | '   if k==45
02ca0     2D 36 0D F2 | 	cmp	local04, #45 wz
02ca4     28 00 90 5D |  if_ne	jmp	#LR__0106
02ca8                 | '      bytemove(@n_string+1,@n_string,12)
02ca8     D8 F0 04 F1 | 	add	objptr, #216
02cac     78 0C 01 F6 | 	mov	arg01, objptr
02cb0     01 0C 05 F1 | 	add	arg01, #1
02cb4     78 0E 01 F6 | 	mov	arg02, objptr
02cb8     D8 F0 84 F1 | 	sub	objptr, #216
02cbc     0C 10 05 F6 | 	mov	arg03, #12
02cc0     34 05 B0 FD | 	call	#__system__bytemove
02cc4                 | '      n_string[0]:=k
02cc4     D8 F0 04 F1 | 	add	objptr, #216
02cc8     78 36 41 FC | 	wrbyte	local04, objptr
02ccc     D8 F0 84 F1 | 	sub	objptr, #216
02cd0                 | LR__0106
02cd0                 | LR__0107
02cd0                 | ' 
02cd0                 | ' q:=@n_string
02cd0     D8 F0 04 F1 | 	add	objptr, #216
02cd4     78 FA 00 F6 | 	mov	result1, objptr
02cd8     D8 F0 84 F1 | 	sub	objptr, #216
02cdc                 | ' return q
02cdc     46 F0 03 F6 | 	mov	ptra, fp
02ce0     5A 00 A0 FD | 	call	#popregs_
02ce4                 | _hng012_inttostr_ret
02ce4     2D 00 64 FD | 	ret
02ce8                 | 
02ce8                 | ' 
02ce8                 | ' ''----------  Convert unsigned integer to hex string with d digits, return a pointer
02ce8                 | ' 
02ce8                 | ' pub inttohex(i,d):result |q,pos,k,j
02ce8                 | _hng012_inttohex
02ce8                 | ' 
02ce8                 | ' j:=i
02ce8                 | ' pos:=d-1
02ce8     87 FC 00 F6 | 	mov	_var01, arg02
02cec     01 FC 84 F1 | 	sub	_var01, #1
02cf0                 | ' k:=0
02cf0                 | ' n_string[d]:=0
02cf0     87 FE 00 F6 | 	mov	_var02, arg02
02cf4     D8 F0 04 F1 | 	add	objptr, #216
02cf8     78 00 01 F6 | 	mov	_var03, objptr
02cfc     78 FE 00 F1 | 	add	_var02, objptr
02d00     7F 00 48 FC | 	wrbyte	#0, _var02
02d04                 | ' repeat k from 0 to d-1
02d04     00 02 05 F6 | 	mov	_var04, #0
02d08     01 0E 85 F1 | 	sub	arg02, #1
02d0c     87 04 01 F6 | 	mov	_var05, arg02
02d10     00 04 5D F2 | 	cmps	_var05, #0 wcz
02d14     D8 F0 84 F1 | 	sub	objptr, #216
02d18     01 00 05 16 |  if_a	mov	_var03, #1
02d1c     01 00 65 E6 |  if_be	neg	_var03, #1
02d20     80 04 01 F1 | 	add	_var05, _var03
02d24     F8 D2 9F FE | 	loc	pa,	#(@LR__0109-@LR__0108)
02d28     35 00 A0 FD | 	call	#FCACHE_LOAD_
02d2c                 | LR__0108
02d2c                 | '   n_string[k]:=48
02d2c     81 06 01 F6 | 	mov	_var06, _var04
02d30     D8 F0 04 F1 | 	add	objptr, #216
02d34     78 06 01 F1 | 	add	_var06, objptr
02d38     83 60 48 FC | 	wrbyte	#48, _var06
02d3c     80 02 01 F1 | 	add	_var04, _var03
02d40     82 02 09 F2 | 	cmp	_var04, _var05 wz
02d44     D8 F0 84 F1 | 	sub	objptr, #216
02d48     E0 FF 9F 5D |  if_ne	jmp	#LR__0108
02d4c                 | LR__0109
02d4c                 | ' if (j<>0)
02d4c     00 0C 0D F2 | 	cmp	arg01, #0 wz
02d50     40 00 90 AD |  if_e	jmp	#LR__0112
02d54                 | ' 
02d54                 | '   repeat while (pos>-1)
02d54                 | LR__0110
02d54     FF FF 7F FF 
02d58     FF FD 5C F2 | 	cmps	_var01, ##-1 wcz
02d5c     34 00 90 ED |  if_be	jmp	#LR__0111
02d60                 | '     q:=j+//16
02d60     86 08 01 F6 | 	mov	_var07, arg01
02d64     0F 08 05 F5 | 	and	_var07, #15
02d68                 | '     if (q>9)
02d68     09 08 5D F2 | 	cmps	_var07, #9 wcz
02d6c                 | '       q:=q+7
02d6c     07 08 05 11 |  if_a	add	_var07, #7
02d70                 | '     q:=48+q
02d70     30 08 05 F1 | 	add	_var07, #48
02d74                 | '     n_string[pos]:=q
02d74     7E 0E 01 F6 | 	mov	arg02, _var01
02d78     D8 F0 04 F1 | 	add	objptr, #216
02d7c     78 0E 01 F1 | 	add	arg02, objptr
02d80     87 08 41 FC | 	wrbyte	_var07, arg02
02d84                 | '     j:=j+/16
02d84     04 0C 45 F0 | 	shr	arg01, #4
02d88                 | '     pos-=1
02d88     01 FC 84 F1 | 	sub	_var01, #1
02d8c     D8 F0 84 F1 | 	sub	objptr, #216
02d90     C0 FF 9F FD | 	jmp	#LR__0110
02d94                 | LR__0111
02d94                 | LR__0112
02d94                 | ' 
02d94                 | ' q:=@n_string
02d94     D8 F0 04 F1 | 	add	objptr, #216
02d98     78 FA 00 F6 | 	mov	result1, objptr
02d9c     D8 F0 84 F1 | 	sub	objptr, #216
02da0                 | ' return q
02da0                 | _hng012_inttohex_ret
02da0     2D 00 64 FD | 	ret
02da4                 | 
02da4                 | ' 
02da4                 | ' 
02da4                 | ' '*************************************************************************
02da4                 | ' '                                                                        *
02da4                 | ' '  Mode setting and driver start                                                          *
02da4                 | ' '                                                                        *
02da4                 | ' '*************************************************************************
02da4                 | ' 
02da4                 | ' ''---------  Set the graphics mode
02da4                 | ' 
02da4                 | ' pub setmode(mode) | i
02da4                 | _hng012_setmode
02da4     0A 88 04 F6 | 	mov	COUNT_, #10
02da8     4B 00 A0 FD | 	call	#pushregs_
02dac     86 30 01 F6 | 	mov	local01, arg01
02db0                 | ' 
02db0                 | ' '' mode:nt_bb_cc_vv_hh
02db0                 | ' '' hh - h.zoom, vv-v.zoom, cc-c.depth,
02db0                 | ' '' bb - borders/total pixels, 00-wide/1140, 01 medium/1026, 10 narrow/912, 11 no border, 1024 px PAL, 880 px NTSC
02db0                 | ' 
02db0                 | ' if (mode<512)  '' text modes
02db0     01 00 00 FF 
02db4     00 30 5D F2 | 	cmps	local01, ##512 wcz
02db8     60 02 90 3D |  if_ae	jmp	#LR__0123
02dbc                 | '   longmove(@streamer,@timingsxxt,6)
02dbc     38 F1 04 F1 | 	add	objptr, #312
02dc0     78 32 01 F6 | 	mov	local02, objptr
02dc4     99 34 01 F6 | 	mov	local03, local02
02dc8     0E 00 00 FF 
02dcc     00 F6 04 F1 | 	add	ptr__hng012_dat__, ##7168
02dd0     7B 36 01 F6 | 	mov	local04, ptr__hng012_dat__
02dd4     9B 38 01 F6 | 	mov	local05, local04
02dd8     06 3A 05 F6 | 	mov	local06, #6
02ddc     9A 0C 01 F6 | 	mov	arg01, local03
02de0     9C 0E 01 F6 | 	mov	arg02, local05
02de4     06 10 05 F6 | 	mov	arg03, #6
02de8     38 F1 84 F1 | 	sub	objptr, #312
02dec     0E 00 00 FF 
02df0     00 F6 84 F1 | 	sub	ptr__hng012_dat__, ##7168
02df4     90 04 B0 FD | 	call	#__system__longmove
02df8     7D 3C 01 F6 | 	mov	local07, result1
02dfc                 | '   if (mode==0)                                'PAL 50 Hz signaling 1140x624, active 800x480, 100x30 text, wide border, 2 colors per pixel, 00_00_00_00_00=0, 354_693_878 Hz
02dfc     00 30 0D F2 | 	cmp	local01, #0 wz
02e00     40 00 90 5D |  if_ne	jmp	#LR__0113
02e04                 | '     longmove(@timings,@timings000,16)
02e04     E4 F0 04 F1 | 	add	objptr, #228
02e08     78 32 01 F6 | 	mov	local02, objptr
02e0c     99 34 01 F6 | 	mov	local03, local02
02e10     0E 00 00 FF 
02e14     18 F6 04 F1 | 	add	ptr__hng012_dat__, ##7192
02e18     7B 36 01 F6 | 	mov	local04, ptr__hng012_dat__
02e1c     9B 38 01 F6 | 	mov	local05, local04
02e20     10 3A 05 F6 | 	mov	local06, #16
02e24     9A 0C 01 F6 | 	mov	arg01, local03
02e28     9C 0E 01 F6 | 	mov	arg02, local05
02e2c     10 10 05 F6 | 	mov	arg03, #16
02e30     E4 F0 84 F1 | 	sub	objptr, #228
02e34     0E 00 00 FF 
02e38     18 F6 84 F1 | 	sub	ptr__hng012_dat__, ##7192
02e3c     48 04 B0 FD | 	call	#__system__longmove
02e40     7D 3C 01 F6 | 	mov	local07, result1
02e44                 | LR__0113
02e44                 | '   if (mode==64)                               'PAL 50 Hz signaling 1026x624, active 880x496, 110x31 text, medium border, 2 colors per pixel 00_01_00_00_00=64, 319_215_686 Hz
02e44     40 30 0D F2 | 	cmp	local01, #64 wz
02e48     28 00 90 5D |  if_ne	jmp	#LR__0114
02e4c                 | '     longmove(@timings,@timings064,16)
02e4c     E4 F0 04 F1 | 	add	objptr, #228
02e50     78 0C 01 F6 | 	mov	arg01, objptr
02e54     E4 F0 84 F1 | 	sub	objptr, #228
02e58     0E 00 00 FF 
02e5c     58 F6 04 F1 | 	add	ptr__hng012_dat__, ##7256
02e60     7B 0E 01 F6 | 	mov	arg02, ptr__hng012_dat__
02e64     0E 00 00 FF 
02e68     58 F6 84 F1 | 	sub	ptr__hng012_dat__, ##7256
02e6c     10 10 05 F6 | 	mov	arg03, #16
02e70     14 04 B0 FD | 	call	#__system__longmove
02e74                 | LR__0114
02e74                 | '   if (mode==128)                              'PAL 50 Hz signaling 912x624, active 800x480, 100x30 text, medium border, 2 colors per pixel 00_10_00_00_00=64, 283750000z
02e74     80 30 0D F2 | 	cmp	local01, #128 wz
02e78     28 00 90 5D |  if_ne	jmp	#LR__0115
02e7c                 | '     longmove(@timings,@timings128,16)
02e7c     E4 F0 04 F1 | 	add	objptr, #228
02e80     78 0C 01 F6 | 	mov	arg01, objptr
02e84     E4 F0 84 F1 | 	sub	objptr, #228
02e88     0E 00 00 FF 
02e8c     98 F6 04 F1 | 	add	ptr__hng012_dat__, ##7320
02e90     7B 0E 01 F6 | 	mov	arg02, ptr__hng012_dat__
02e94     0E 00 00 FF 
02e98     98 F6 84 F1 | 	sub	ptr__hng012_dat__, ##7320
02e9c     10 10 05 F6 | 	mov	arg03, #16
02ea0     E4 03 B0 FD | 	call	#__system__longmove
02ea4                 | LR__0115
02ea4                 | '   if (mode==192)                              'PAL 50 Hz signaling 1140x624, active 1024x576, 128x36 text, borderless, 2 colors per pixel 00_11_00_00_00=6192, 354_693_878 Hz
02ea4     C0 30 0D F2 | 	cmp	local01, #192 wz
02ea8     28 00 90 5D |  if_ne	jmp	#LR__0116
02eac                 | '     longmove(@timings,@timings192,16)
02eac     E4 F0 04 F1 | 	add	objptr, #228
02eb0     78 0C 01 F6 | 	mov	arg01, objptr
02eb4     E4 F0 84 F1 | 	sub	objptr, #228
02eb8     0E 00 00 FF 
02ebc     D8 F6 04 F1 | 	add	ptr__hng012_dat__, ##7384
02ec0     7B 0E 01 F6 | 	mov	arg02, ptr__hng012_dat__
02ec4     0E 00 00 FF 
02ec8     D8 F6 84 F1 | 	sub	ptr__hng012_dat__, ##7384
02ecc     10 10 05 F6 | 	mov	arg03, #16
02ed0     B4 03 B0 FD | 	call	#__system__longmove
02ed4                 | LR__0116
02ed4                 | '   if (mode==256)                              'NTSC 50 Hz signaling 1140x524, active 800x480, 100x30 text, NO PLACE FOR wide border, 2 colors per pixel, 01_00_00_00_00=256, 357959184 Hz
02ed4     00 31 0D F2 | 	cmp	local01, #256 wz
02ed8     28 00 90 5D |  if_ne	jmp	#LR__0117
02edc                 | '     longmove(@timings,@timings256,16)
02edc     E4 F0 04 F1 | 	add	objptr, #228
02ee0     78 0C 01 F6 | 	mov	arg01, objptr
02ee4     E4 F0 84 F1 | 	sub	objptr, #228
02ee8     0E 00 00 FF 
02eec     18 F7 04 F1 | 	add	ptr__hng012_dat__, ##7448
02ef0     7B 0E 01 F6 | 	mov	arg02, ptr__hng012_dat__
02ef4     0E 00 00 FF 
02ef8     18 F7 84 F1 | 	sub	ptr__hng012_dat__, ##7448
02efc     10 10 05 F6 | 	mov	arg03, #16
02f00     84 03 B0 FD | 	call	#__system__longmove
02f04                 | LR__0117
02f04                 | '   if (mode==320)                              'NTSC 50 Hz signaling 1026x524, active 800x480, 100x30 text, NO PLACE FOR wide border, 2 colors per pixel, 01_01_00_00_00=320, 322162162 Hz
02f04     40 31 0D F2 | 	cmp	local01, #320 wz
02f08     28 00 90 5D |  if_ne	jmp	#LR__0118
02f0c                 | '     longmove(@timings,@timings320,16)
02f0c     E4 F0 04 F1 | 	add	objptr, #228
02f10     78 0C 01 F6 | 	mov	arg01, objptr
02f14     E4 F0 84 F1 | 	sub	objptr, #228
02f18     0E 00 00 FF 
02f1c     58 F7 04 F1 | 	add	ptr__hng012_dat__, ##7512
02f20     7B 0E 01 F6 | 	mov	arg02, ptr__hng012_dat__
02f24     0E 00 00 FF 
02f28     58 F7 84 F1 | 	sub	ptr__hng012_dat__, ##7512
02f2c     10 10 05 F6 | 	mov	arg03, #16
02f30     54 03 B0 FD | 	call	#__system__longmove
02f34                 | LR__0118
02f34                 | '   if (mode==384)                              'NTSC 50 Hz signaling 912x524, active 800x480, 100x30 text, NO PLACE FOR wide border, 2 colors per pixel, 01_10_00_00_00=384, 286363636 Hz
02f34     80 31 0D F2 | 	cmp	local01, #384 wz
02f38     28 00 90 5D |  if_ne	jmp	#LR__0119
02f3c                 | '     longmove(@timings,@timings384,16)
02f3c     E4 F0 04 F1 | 	add	objptr, #228
02f40     78 0C 01 F6 | 	mov	arg01, objptr
02f44     E4 F0 84 F1 | 	sub	objptr, #228
02f48     0E 00 00 FF 
02f4c     98 F7 04 F1 | 	add	ptr__hng012_dat__, ##7576
02f50     7B 0E 01 F6 | 	mov	arg02, ptr__hng012_dat__
02f54     0E 00 00 FF 
02f58     98 F7 84 F1 | 	sub	ptr__hng012_dat__, ##7576
02f5c     10 10 05 F6 | 	mov	arg03, #16
02f60     24 03 B0 FD | 	call	#__system__longmove
02f64                 | LR__0119
02f64                 | '   if (mode==448)                              'NTSC 50 Hz signaling 1026x524, active 880x496, 110x31 text, borderless, 2 colors per pixel, 01_11_00_00_00=496, 322162162 Hz
02f64     C0 31 0D F2 | 	cmp	local01, #448 wz
02f68     28 00 90 5D |  if_ne	jmp	#LR__0120
02f6c                 | '     longmove(@timings,@timings448,16)
02f6c     E4 F0 04 F1 | 	add	objptr, #228
02f70     78 0C 01 F6 | 	mov	arg01, objptr
02f74     E4 F0 84 F1 | 	sub	objptr, #228
02f78     0E 00 00 FF 
02f7c     D8 F7 04 F1 | 	add	ptr__hng012_dat__, ##7640
02f80     7B 0E 01 F6 | 	mov	arg02, ptr__hng012_dat__
02f84     0E 00 00 FF 
02f88     D8 F7 84 F1 | 	sub	ptr__hng012_dat__, ##7640
02f8c     10 10 05 F6 | 	mov	arg03, #16
02f90     F4 02 B0 FD | 	call	#__system__longmove
02f94                 | LR__0120
02f94                 | ' 
02f94                 | '   repeat i from 0 to 5
02f94     00 3E 05 F6 | 	mov	local08, #0
02f98     C4 D0 9F FE | 	loc	pa,	#(@LR__0122-@LR__0121)
02f9c     35 00 A0 FD | 	call	#FCACHE_LOAD_
02fa0                 | LR__0121
02fa0                 | '     timings[i]:=timings[i]+streamer[i]+hdmibase<<17
02fa0     9F 34 01 F6 | 	mov	local03, local08
02fa4     02 34 65 F0 | 	shl	local03, #2
02fa8     E4 F0 04 F1 | 	add	objptr, #228
02fac     78 34 01 F1 | 	add	local03, objptr
02fb0     9F 38 01 F6 | 	mov	local05, local08
02fb4     02 38 65 F0 | 	shl	local05, #2
02fb8     54 F0 04 F1 | 	add	objptr, #84
02fbc     9A 32 01 FB | 	rdlong	local02, local03
02fc0     78 38 01 F1 | 	add	local05, objptr
02fc4     9C 3C 01 FB | 	rdlong	local07, local05
02fc8     9E 32 01 F1 | 	add	local02, local07
02fcc     14 F1 84 F1 | 	sub	objptr, #276
02fd0     78 40 01 FB | 	rdlong	local09, objptr
02fd4     11 40 65 F0 | 	shl	local09, #17
02fd8     A0 32 01 F1 | 	add	local02, local09
02fdc     9F 42 01 F6 | 	mov	local10, local08
02fe0     02 42 65 F0 | 	shl	local10, #2
02fe4     C0 F0 04 F1 | 	add	objptr, #192
02fe8     78 42 01 F1 | 	add	local10, objptr
02fec     A1 32 61 FC | 	wrlong	local02, local10
02ff0     01 3E 05 F1 | 	add	local08, #1
02ff4     06 3E 5D F2 | 	cmps	local08, #6 wcz
02ff8     E4 F0 84 F1 | 	sub	objptr, #228
02ffc     A0 FF 9F CD |  if_b	jmp	#LR__0121
03000                 | LR__0122
03000                 | '   clkfreq:=timings[13]
03000     18 F1 04 F1 | 	add	objptr, #280
03004     78 32 01 FB | 	rdlong	local02, objptr
03008     14 32 65 FC | 	wrlong	local02, #20
0300c                 | '   hubset(timings[14])
0300c     04 F0 04 F1 | 	add	objptr, #4
03010     78 0C 01 FB | 	rdlong	arg01, objptr
03014     1C F1 84 F1 | 	sub	objptr, #284
03018     00 0C 61 FD | 	hubset	arg01
0301c                 | LR__0123
0301c                 | ' 
0301c                 | ' cpl:=timings[11]
0301c     10 F1 04 F1 | 	add	objptr, #272
03020     78 32 01 FB | 	rdlong	local02, objptr
03024     14 F0 04 F1 | 	add	objptr, #20
03028     78 32 61 FC | 	wrlong	local02, objptr
0302c                 | ' lines:=timings[12]>>4
0302c     10 F0 84 F1 | 	sub	objptr, #16
03030     78 32 01 FB | 	rdlong	local02, objptr
03034     04 32 45 F0 | 	shr	local02, #4
03038     14 F0 04 F1 | 	add	objptr, #20
0303c     78 32 61 FC | 	wrlong	local02, objptr
03040                 | ' buflen:=cpl*lines
03040     04 F0 84 F1 | 	sub	objptr, #4
03044     78 34 01 FB | 	rdlong	local03, objptr
03048     04 F0 04 F1 | 	add	objptr, #4
0304c     78 38 01 FB | 	rdlong	local05, objptr
03050     9C 34 01 FD | 	qmul	local03, local05
03054     18 34 61 FD | 	getqx	local03
03058     64 F0 84 F1 | 	sub	objptr, #100
0305c     78 34 61 FC | 	wrlong	local03, objptr
03060                 | ' buf_ptr:=$7C000-4*buflen
03060     C4 F0 84 F1 | 	sub	objptr, #196
03064     02 34 65 F0 | 	shl	local03, #2
03068     E0 03 00 FF 
0306c     00 32 05 F6 | 	mov	local02, ##507904
03070     9A 32 81 F1 | 	sub	local02, local03
03074     78 32 61 FC | 	wrlong	local02, objptr
03078                 | ' mode_ptr:=@timings
03078     E4 F0 04 F1 | 	add	objptr, #228
0307c     78 32 01 F6 | 	mov	local02, objptr
03080     D0 F0 84 F1 | 	sub	objptr, #208
03084     78 32 61 FC | 	wrlong	local02, objptr
03088     14 F0 84 F1 | 	sub	objptr, #20
0308c     46 F0 03 F6 | 	mov	ptra, fp
03090     5A 00 A0 FD | 	call	#popregs_
03094                 | _hng012_setmode_ret
03094     2D 00 64 FD | 	ret
03098                 | 
03098                 | ' 
03098                 | ' '--------- Start the driver with graphics mode 'mode' at pins 'base'
03098                 | ' 
03098                 | ' pub start(mode,base):result
03098                 | _hng012_start
03098     02 88 04 F6 | 	mov	COUNT_, #2
0309c     4B 00 A0 FD | 	call	#pushregs_
030a0                 | ' 
030a0                 | ' ' initialize pointers and variables
030a0                 | ' 
030a0                 | ' border_ptr:=@bordercolor
030a0     2C F0 04 F1 | 	add	objptr, #44
030a4     78 30 01 F6 | 	mov	local01, objptr
030a8     24 F0 84 F1 | 	sub	objptr, #36
030ac     78 30 61 FC | 	wrlong	local01, objptr
030b0                 | ' font_ptr:=@vga_font
030b0     04 F0 84 F1 | 	sub	objptr, #4
030b4     78 F6 60 FC | 	wrlong	ptr__hng012_dat__, objptr
030b8                 | ' hdmibase:=base
030b8     20 F0 04 F1 | 	add	objptr, #32
030bc     78 0E 61 FC | 	wrlong	arg02, objptr
030c0     24 F0 84 F1 | 	sub	objptr, #36
030c4                 | ' 
030c4                 | ' ' the mode has to be set here to enable computing the buffer length
030c4                 | ' 
030c4                 | ' setmode(mode)
030c4     DC FC BF FD | 	call	#_hng012_setmode
030c8                 | ' 
030c8                 | ' 
030c8                 | ' 
030c8                 | ' vblank_ptr:=@vblank
030c8     D4 F0 04 F1 | 	add	objptr, #212
030cc     78 30 01 F6 | 	mov	local01, objptr
030d0     C8 F0 84 F1 | 	sub	objptr, #200
030d4     78 30 61 FC | 	wrlong	local01, objptr
030d8                 | ' cursor_ptr:=@cursor_x
030d8     BC F0 04 F1 | 	add	objptr, #188
030dc     78 30 01 F6 | 	mov	local01, objptr
030e0     B8 F0 84 F1 | 	sub	objptr, #184
030e4     78 30 61 FC | 	wrlong	local01, objptr
030e8                 | ' 
030e8                 | ' palette_ptr:=@ataripalette
030e8     0C 00 00 FF 
030ec     00 F6 04 F1 | 	add	ptr__hng012_dat__, ##6144
030f0     08 F0 04 F1 | 	add	objptr, #8
030f4     78 F6 60 FC | 	wrlong	ptr__hng012_dat__, objptr
030f8                 | ' command_ptr:=@cmd1
030f8     14 F1 04 F1 | 	add	objptr, #276
030fc     78 30 01 F6 | 	mov	local01, objptr
03100     10 F1 84 F1 | 	sub	objptr, #272
03104     78 30 61 FC | 	wrlong	local01, objptr
03108                 | ' fontnum_ptr:=@fontnum
03108     18 F1 04 F1 | 	add	objptr, #280
0310c     78 30 01 F6 | 	mov	local01, objptr
03110     14 F1 84 F1 | 	sub	objptr, #276
03114     78 30 61 FC | 	wrlong	local01, objptr
03118                 | ' 
03118                 | ' fontnum:=0  ' PC type font ' TODO: font# in buffer byte #1
03118     14 F1 04 F1 | 	add	objptr, #276
0311c     78 00 68 FC | 	wrlong	#0, objptr
03120                 | ' bytemove(@colors,@vgacolors,16)
03120     1C F0 04 F1 | 	add	objptr, #28
03124     78 0C 01 F6 | 	mov	arg01, objptr
03128     50 F1 84 F1 | 	sub	objptr, #336
0312c     03 00 00 FF 
03130     18 F6 04 F1 | 	add	ptr__hng012_dat__, ##1560
03134     7B 0E 01 F6 | 	mov	arg02, ptr__hng012_dat__
03138     0F 00 00 FF 
0313c     18 F6 84 F1 | 	sub	ptr__hng012_dat__, ##7704
03140     10 10 05 F6 | 	mov	arg03, #16
03144     B0 00 B0 FD | 	call	#__system__bytemove
03148                 | ' 
03148                 | ' ' initialize a cursor
03148                 | ' 
03148                 | ' cursor_x:=0
03148     C8 F0 04 F1 | 	add	objptr, #200
0314c     78 00 48 FC | 	wrbyte	#0, objptr
03150                 | ' cursor_y:=0
03150     01 F0 04 F1 | 	add	objptr, #1
03154     78 00 48 FC | 	wrbyte	#0, objptr
03158                 | ' cursor_sh:=14
03158     01 F0 04 F1 | 	add	objptr, #1
0315c     78 1C 48 FC | 	wrbyte	#14, objptr
03160                 | ' 
03160                 | ' cmd1:=257 ' set command idle
03160     62 F0 04 F1 | 	add	objptr, #98
03164     78 02 6A FC | 	wrlong	#257, objptr
03168     2C F1 84 F1 | 	sub	objptr, #300
0316c                 | ' 
0316c                 | ' ' start the cog
0316c                 | ' 
0316c                 | ' cog:=coginit(16,@hdmi, @buf_ptr)
0316c     0F 00 00 FF 
03170     28 F6 04 F1 | 	add	ptr__hng012_dat__, ##7720
03174     7B 0E 01 F6 | 	mov	arg02, ptr__hng012_dat__
03178     0F 00 00 FF 
0317c     28 F6 84 F1 | 	sub	ptr__hng012_dat__, ##7720
03180     78 10 01 F6 | 	mov	arg03, objptr
03184     10 0C 05 F6 | 	mov	arg01, #16
03188     28 10 61 FD | 	setq	arg03
0318c     87 0C F1 FC | 	coginit	arg01, arg02 wc
03190     01 0C 65 C6 |  if_b	neg	arg01, #1
03194     86 FA 00 F6 | 	mov	result1, arg01
03198     7D 32 01 F6 | 	mov	local02, result1
0319c     28 F0 04 F1 | 	add	objptr, #40
031a0     78 32 61 FC | 	wrlong	local02, objptr
031a4     28 F0 84 F1 | 	sub	objptr, #40
031a8                 | ' waitms(20)
031a8     14 0C 05 F6 | 	mov	arg01, #20
031ac     50 01 B0 FD | 	call	#__system___waitms
031b0                 | ' 
031b0                 | ' ' clear the screen and set the colors to green on black
031b0                 | ' 
031b0                 | ' cls(c_green,c_black)
031b0     C7 0C 05 F6 | 	mov	arg01, #199
031b4     00 0E 05 F6 | 	mov	arg02, #0
031b8     58 F1 BF FD | 	call	#_hng012_cls
031bc                 | ' setbordercolors(0,0,0)
031bc     00 0C 05 F6 | 	mov	arg01, #0
031c0     00 0E 05 F6 | 	mov	arg02, #0
031c4     00 10 05 F6 | 	mov	arg03, #0
031c8     D4 EF BF FD | 	call	#_hng012_setbordercolors
031cc                 | ' setwritecolors(c_green,c_black)
031cc                 | ' 
031cc                 | ' 
031cc                 | ' write_color:=ff
031cc     CC F0 04 F1 | 	add	objptr, #204
031d0     78 8E 69 FC | 	wrlong	#199, objptr
031d4                 | ' write_background:=bb
031d4     04 F0 04 F1 | 	add	objptr, #4
031d8     78 00 68 FC | 	wrlong	#0, objptr
031dc                 | ' 
031dc                 | ' return cog
031dc     A8 F0 84 F1 | 	sub	objptr, #168
031e0     78 FA 00 FB | 	rdlong	result1, objptr
031e4     28 F0 84 F1 | 	sub	objptr, #40
031e8     46 F0 03 F6 | 	mov	ptra, fp
031ec     5A 00 A0 FD | 	call	#popregs_
031f0                 | _hng012_start_ret
031f0     2D 00 64 FD | 	ret
031f4                 | hubexit
031f4     23 00 80 FD | 	jmp	#cogexit
031f8                 | 
031f8                 | __system__bytemove
031f8     86 FC 00 F6 | 	mov	_var01, arg01
031fc     87 0C 59 F2 | 	cmps	arg01, arg02 wcz
03200     50 00 90 3D |  if_ae	jmp	#LR__0131
03204     18 CE 9F FE | 	loc	pa,	#(@LR__0125-@LR__0124)
03208     35 00 A0 FD | 	call	#FCACHE_LOAD_
0320c                 | LR__0124
0320c     03 10 5D F2 | 	cmps	arg03, #3 wcz
03210     18 00 90 ED |  if_be	jmp	#LR__0126
03214     87 FE 00 FB | 	rdlong	_var02, arg02
03218     86 FE 60 FC | 	wrlong	_var02, arg01
0321c     04 0C 05 F1 | 	add	arg01, #4
03220     04 0E 05 F1 | 	add	arg02, #4
03224     04 10 85 F1 | 	sub	arg03, #4
03228     E0 FF 9F FD | 	jmp	#LR__0124
0322c                 | LR__0125
0322c                 | LR__0126
0322c     88 00 09 F6 | 	mov	_var03, arg03 wz
03230     4C 00 90 AD |  if_e	jmp	#LR__0137
03234     DC CD 9F FE | 	loc	pa,	#(@LR__0129-@LR__0127)
03238     35 00 A0 FD | 	call	#FCACHE_LOAD_
0323c                 | LR__0127
0323c     80 08 D8 FC | 	rep	@LR__0130, _var03
03240                 | LR__0128
03240     87 FE C0 FA | 	rdbyte	_var02, arg02
03244     86 FE 40 FC | 	wrbyte	_var02, arg01
03248     01 0C 05 F1 | 	add	arg01, #1
0324c     01 0E 05 F1 | 	add	arg02, #1
03250                 | LR__0129
03250                 | LR__0130
03250     2C 00 90 FD | 	jmp	#LR__0137
03254                 | LR__0131
03254     88 0C 01 F1 | 	add	arg01, arg03
03258     88 0E 01 F1 | 	add	arg02, arg03
0325c     88 02 09 F6 | 	mov	_var04, arg03 wz
03260     1C 00 90 AD |  if_e	jmp	#LR__0136
03264     AC CD 9F FE | 	loc	pa,	#(@LR__0134-@LR__0132)
03268     35 00 A0 FD | 	call	#FCACHE_LOAD_
0326c                 | LR__0132
0326c     81 08 D8 FC | 	rep	@LR__0135, _var04
03270                 | LR__0133
03270     01 0C 85 F1 | 	sub	arg01, #1
03274     01 0E 85 F1 | 	sub	arg02, #1
03278     87 FE C0 FA | 	rdbyte	_var02, arg02
0327c     86 FE 40 FC | 	wrbyte	_var02, arg01
03280                 | LR__0134
03280                 | LR__0135
03280                 | LR__0136
03280                 | LR__0137
03280     7E FA 00 F6 | 	mov	result1, _var01
03284                 | __system__bytemove_ret
03284     2D 00 64 FD | 	ret
03288                 | 
03288                 | __system__longmove
03288     86 FC 00 F6 | 	mov	_var01, arg01
0328c     87 0C 59 F2 | 	cmps	arg01, arg02 wcz
03290     28 00 90 3D |  if_ae	jmp	#LR__0142
03294     88 FE 08 F6 | 	mov	_var02, arg03 wz
03298     5C 00 90 AD |  if_e	jmp	#LR__0148
0329c     74 CD 9F FE | 	loc	pa,	#(@LR__0140-@LR__0138)
032a0     35 00 A0 FD | 	call	#FCACHE_LOAD_
032a4                 | LR__0138
032a4     7F 08 D8 FC | 	rep	@LR__0141, _var02
032a8                 | LR__0139
032a8     87 00 01 FB | 	rdlong	_var03, arg02
032ac     86 00 61 FC | 	wrlong	_var03, arg01
032b0     04 0C 05 F1 | 	add	arg01, #4
032b4     04 0E 05 F1 | 	add	arg02, #4
032b8                 | LR__0140
032b8                 | LR__0141
032b8     3C 00 90 FD | 	jmp	#LR__0148
032bc                 | LR__0142
032bc     88 02 01 F6 | 	mov	_var04, arg03
032c0     02 02 65 F0 | 	shl	_var04, #2
032c4     81 0C 01 F1 | 	add	arg01, _var04
032c8     88 02 01 F6 | 	mov	_var04, arg03
032cc     02 02 65 F0 | 	shl	_var04, #2
032d0     81 0E 01 F1 | 	add	arg02, _var04
032d4     88 04 09 F6 | 	mov	_var05, arg03 wz
032d8     1C 00 90 AD |  if_e	jmp	#LR__0147
032dc     34 CD 9F FE | 	loc	pa,	#(@LR__0145-@LR__0143)
032e0     35 00 A0 FD | 	call	#FCACHE_LOAD_
032e4                 | LR__0143
032e4     82 08 D8 FC | 	rep	@LR__0146, _var05
032e8                 | LR__0144
032e8     04 0C 85 F1 | 	sub	arg01, #4
032ec     04 0E 85 F1 | 	sub	arg02, #4
032f0     87 00 01 FB | 	rdlong	_var03, arg02
032f4     86 00 61 FC | 	wrlong	_var03, arg01
032f8                 | LR__0145
032f8                 | LR__0146
032f8                 | LR__0147
032f8                 | LR__0148
032f8     7E FA 00 F6 | 	mov	result1, _var01
032fc                 | __system__longmove_ret
032fc     2D 00 64 FD | 	ret
03300                 | 
03300                 | __system___waitms
03300     02 88 04 F6 | 	mov	COUNT_, #2
03304     4B 00 A0 FD | 	call	#pushregs_
03308     86 30 01 F6 | 	mov	local01, arg01
0330c     14 32 05 FB | 	rdlong	local02, #20
03310     04 CD 9F FE | 	loc	pa,	#(@LR__0150-@LR__0149)
03314     35 00 A0 FD | 	call	#FCACHE_LOAD_
03318                 | LR__0149
03318     01 00 00 FF 
0331c     E8 31 5D F2 | 	cmps	local01, ##1000 wcz
03320     1F 32 61 1D |  if_a	waitx	local02
03324     01 00 00 1F 
03328     E8 31 85 11 |  if_a	sub	local01, ##1000
0332c     E8 FF 9F 1D |  if_a	jmp	#LR__0149
03330                 | LR__0150
03330     00 30 5D F2 | 	cmps	local01, #0 wcz
03334     1C 00 90 ED |  if_be	jmp	#LR__0151
03338     99 5E 01 F6 | 	mov	muldiva_, local02
0333c     01 00 00 FF 
03340     E8 61 05 F6 | 	mov	muldivb_, ##1000
03344     6B 00 A0 FD | 	call	#divide_
03348     B0 30 01 FD | 	qmul	local01, muldivb_
0334c     18 0C 61 FD | 	getqx	arg01
03350     1F 0C 61 FD | 	waitx	arg01
03354                 | LR__0151
03354     46 F0 03 F6 | 	mov	ptra, fp
03358     5A 00 A0 FD | 	call	#popregs_
0335c                 | __system___waitms_ret
0335c     2D 00 64 FD | 	ret
03360                 | 
03360                 | __system___waitus
03360     02 88 04 F6 | 	mov	COUNT_, #2
03364     4B 00 A0 FD | 	call	#pushregs_
03368     86 30 01 F6 | 	mov	local01, arg01
0336c     14 32 05 FB | 	rdlong	local02, #20
03370     A4 CC 9F FE | 	loc	pa,	#(@LR__0153-@LR__0152)
03374     35 00 A0 FD | 	call	#FCACHE_LOAD_
03378                 | LR__0152
03378     A1 07 00 FF 
0337c     40 30 5D F2 | 	cmps	local01, ##1000000 wcz
03380     1F 32 61 1D |  if_a	waitx	local02
03384     A1 07 00 1F 
03388     40 30 85 11 |  if_a	sub	local01, ##1000000
0338c     E8 FF 9F 1D |  if_a	jmp	#LR__0152
03390                 | LR__0153
03390     00 30 5D F2 | 	cmps	local01, #0 wcz
03394     1C 00 90 ED |  if_be	jmp	#LR__0154
03398     99 5E 01 F6 | 	mov	muldiva_, local02
0339c     A1 07 00 FF 
033a0     40 60 05 F6 | 	mov	muldivb_, ##1000000
033a4     6B 00 A0 FD | 	call	#divide_
033a8     B0 30 01 FD | 	qmul	local01, muldivb_
033ac     18 0C 61 FD | 	getqx	arg01
033b0     1F 0C 61 FD | 	waitx	arg01
033b4                 | LR__0154
033b4     46 F0 03 F6 | 	mov	ptra, fp
033b8     5A 00 A0 FD | 	call	#popregs_
033bc                 | __system___waitus_ret
033bc     2D 00 64 FD | 	ret
033c0                 | 
033c0                 | LR__0155
033c0     41 20 48 44 
033c4     4D 49 20 4E 
033c8     6F 73 74 61 
033cc     6C 67 69 63 
033d0     20 74 65 78 
033d4     74 20 64 72 
033d8     69 76 65 72 
033dc     20 64 65 6D 
033e0     6F          | 	byte	"A HDMI Nostalgic text driver demo"
033e1     00          | 	byte	0
033e2                 | LR__0156
033e2     49 74 20 75 
033e6     73 65 73 20 
033ea     38 78 31 36 
033ee     20 66 6F 6E 
033f2     74          | 	byte	"It uses 8x16 font"
033f3     00          | 	byte	0
033f4                 | LR__0157
033f4     45 76 65 72 
033f8     79 20 63 68 
033fc     61 72 61 63 
03400     74 65 72 20 
03404     68 61 73 20 
03408     69 74 73 20 
0340c     6F 77 6E 20 
03410     66 6F 72 65 
03414     67 72 6F 75 
03418     6E 64 20 61 
0341c     6E 64 20 62 
03420     61 63 6B 67 
03424     72 6F 75 6E 
03428     64 20 63 6F 
0342c     6C 6F 72    | 	byte	"Every character has its own foreground and background color"
0342f     00          | 	byte	0
03430                 | LR__0158
03430     45 76 65 72 
03434     79 20 6C 69 
03438     6E 65 20 68 
0343c     61 73 20 69 
03440     74 73 20 6F 
03444     77 6E 20 62 
03448     6F 72 64 65 
0344c     72 20 63 6F 
03450     6C 6F 72    | 	byte	"Every line has its own border color"
03453     00          | 	byte	0
03454                 | LR__0159
03454     54 68 65 20 
03458     68 75 62 20 
0345c     52 41 4D 20 
03460     69 73 20 75 
03464     73 65 64 20 
03468     66 6F 72 20 
0346c     74 68 65 20 
03470     63 6F 6C 6F 
03474     72 20 62 75 
03478     66 66 65 72 | 	byte	"The hub RAM is used for the color buffer"
0347c     00          | 	byte	0
0347d                 | LR__0160
0347d     59 6F 75 20 
03481     63 61 6E 20 
03485     73 65 74 20 
03489     63 6F 6C 6F 
0348d     72 73 20 66 
03491     6F 72 20 61 
03495     6C 6C 20 74 
03499     68 65 20 73 
0349d     63 72 65 65 
034a1     6E 20 75 73 
034a5     69 6E 67 20 
034a9     6F 6E 65 20 
034ad     66 75 6E 63 
034b1     74 69 6F 6E 
034b5     20 63 61 6C 
034b9     6C          | 	byte	"You can set colors for all the screen using one function call"
034ba     00          | 	byte	0
034bb                 | LR__0161
034bb     59 6F 75 20 
034bf     63 61 6E 20 
034c3     73 65 74 20 
034c7     62 6F 72 64 
034cb     65 72 20 63 
034cf     6F 6C 6F 72 
034d3     20 66 6F 72 
034d7     20 61 6C 6C 
034db     20 74 68 65 
034df     20 73 63 72 
034e3     65 65 6E 20 
034e7     75 73 69 6E 
034eb     67 20 6F 6E 
034ef     65 20 66 75 
034f3     6E 63 74 69 
034f7     6F 6E 20 63 
034fb     61 6C 6C 2C 
034ff     20 74 6F 6F | 	byte	"You can set border color for all the screen using one function call, too"
03503     00          | 	byte	0
03504                 | LR__0162
03504     31 32 33 34 
03508     35 36 37 38 
0350c     39 30       | 	byte	"1234567890"
0350e     00          | 	byte	0
0350f                 | LR__0163
0350f     50 32 20 52 
03513     65 74 72 6F 
03517     6D 61 63 68 
0351b     69 6E 65 20 
0351f     44 4F 53 20 
03523     76 2E 20 30 
03527     2E 30 30    | 	byte	"P2 Retromachine DOS v. 0.00"
0352a     00          | 	byte	0
0352b                 | LR__0164
0352b     54 68 69 73 
0352f     20 69 73 20 
03533     61 20 64 65 
03537     6D 6F 6E 73 
0353b     74 72 61 74 
0353f     69 6F 6E 20 
03543     6F 66 20 48 
03547     44 4D 49 20 
0354b     27 6E 6F 73 
0354f     74 61 6C 67 
03553     69 63 27 20 
03557     74 65 78 74 
0355b     20 64 72 69 
0355f     76 65 72    | 	byte	"This is a demonstration of HDMI 'nostalgic' text driver"
03562     00          | 	byte	0
03563                 | LR__0165
03563     54 68 65 20 
03567     64 72 69 76 
0356b     65 72 20 69 
0356f     73 20 62 61 
03573     73 65 64 20 
03577     6F 6E 20 50 
0357b     41 4C 2F 4E 
0357f     54 53 43 20 
03583     6E 6F 6E 2D 
03587     69 6E 74 65 
0358b     72 6C 61 63 
0358f     65 64 20 74 
03593     69 6D 69 6E 
03597     67 73 2E 2E 
0359b     2E          | 	byte	"The driver is based on PAL/NTSC non-interlaced timings..."
0359c     00          | 	byte	0
0359d                 | LR__0166
0359d     2E 2E 2E 67 
035a1     65 6E 65 72 
035a5     61 74 69 6E 
035a9     67 20 35 32 
035ad     34 20 6C 69 
035b1     6E 65 73 20 
035b5     61 74 20 36 
035b9     30 20 48 7A 
035bd     20 6F 72 20 
035c1     36 32 34 20 
035c5     6C 69 6E 65 
035c9     73 20 61 74 
035cd     20 35 30 20 
035d1     48 7A       | 	byte	"...generating 524 lines at 60 Hz or 624 lines at 50 Hz"
035d3     00          | 	byte	0
035d4                 | LR__0167
035d4     54 68 65 20 
035d8     50 32 20 63 
035dc     6C 6F 63 6B 
035e0     20 69 73 20 
035e4     62 61 73 65 
035e8     64 20 6F 6E 
035ec     20 50 41 4C 
035f0     2F 4E 54 53 
035f4     43 20 63 6F 
035f8     6C 6F 72 20 
035fc     63 61 72 72 
03600     69 65 72 20 
03604     66 72 65 71 
03608     75 65 6E 63 
0360c     79 20 6D 75 
03610     6C 74 69 70 
03614     6C 69 65 64 
03618     20 62 79 20 
0361c     61 20 63 6F 
03620     6E 73 74 61 
03624     6E 74       | 	byte	"The P2 clock is based on PAL/NTSC color carrier frequency multiplied by a constant"
03626     00          | 	byte	0
03627                 | LR__0168
03627     54 68 65 20 
0362b     64 72 69 76 
0362f     65 72 20 66 
03633     69 74 73 20 
03637     69 6E 20    | 	byte	"The driver fits in "
0363a     00          | 	byte	0
0363b                 | LR__0169
0363b     20 6C 6F 6E 
0363f     67 73 2E    | 	byte	" longs."
03642     00          | 	byte	0
03643                 | LR__0170
03643     57 65 20 68 
03647     61 76 65 20 
0364b     38 20 6D 6F 
0364f     64 65 73 20 
03653     61 76 61 69 
03657     6C 61 62 6C 
0365b     65 3A       | 	byte	"We have 8 modes available:"
0365d     00          | 	byte	0
0365e                 | LR__0171
0365e     2D 20 6D 6F 
03662     64 65 20 30 
03666     3A 20 20 20 
0366a     50 41 4C 20 
0366e     20 35 30 20 
03672     48 7A 20 73 
03676     69 67 6E 61 
0367a     6C 69 6E 67 
0367e     20 31 31 34 
03682     30 78 36 32 
03686     34 2C 20 61 
0368a     63 74 69 76 
0368e     65 20 20 38 
03692     30 30 78 34 
03696     38 30 2C 20 
0369a     31 30 30 78 
0369e     33 30 20 74 
036a2     65 78 74 2C 
036a6     20 77 69 64 
036aa     65 20 62 6F 
036ae     72 64 65 72 
036b2     2C 20 20 20 
036b6     33 35 34 5F 
036ba     36 39 33 5F 
036be     38 37 38 20 
036c2     48 7A       | 	byte	"- mode 0:   PAL  50 Hz signaling 1140x624, active  800x480, 100x30 text, wide border,   354_693_878 Hz"
036c4     00          | 	byte	0
036c5                 | LR__0172
036c5     2D 20 6D 6F 
036c9     64 65 20 36 
036cd     34 3A 20 20 
036d1     50 41 4C 20 
036d5     20 35 30 20 
036d9     48 7A 20 73 
036dd     69 67 6E 61 
036e1     6C 69 6E 67 
036e5     20 31 30 32 
036e9     36 78 36 32 
036ed     34 2C 20 61 
036f1     63 74 69 76 
036f5     65 20 20 38 
036f9     38 30 78 34 
036fd     39 36 2C 20 
03701     31 31 30 78 
03705     33 31 20 74 
03709     65 78 74 2C 
0370d     20 6D 65 64 
03711     69 75 6D 20 
03715     62 6F 72 64 
03719     65 72 2C 20 
0371d     33 31 39 5F 
03721     32 31 35 5F 
03725     36 38 36 20 
03729     48 7A       | 	byte	"- mode 64:  PAL  50 Hz signaling 1026x624, active  880x496, 110x31 text, medium border, 319_215_686 Hz"
0372b     00          | 	byte	0
0372c                 | LR__0173
0372c     2D 20 6D 6F 
03730     64 65 20 31 
03734     32 38 3A 20 
03738     50 41 4C 20 
0373c     20 35 30 20 
03740     48 7A 20 73 
03744     69 67 6E 61 
03748     6C 69 6E 67 
0374c     20 20 39 31 
03750     32 78 36 32 
03754     34 2C 20 61 
03758     63 74 69 76 
0375c     65 20 20 38 
03760     30 30 78 34 
03764     38 30 2C 20 
03768     31 30 30 78 
0376c     33 30 20 74 
03770     65 78 74 2C 
03774     20 6E 61 72 
03778     72 6F 77 20 
0377c     62 6F 72 64 
03780     65 72 2C 20 
03784     32 38 33 5F 
03788     37 35 30 5F 
0378c     30 30 30 20 
03790     48 7A       | 	byte	"- mode 128: PAL  50 Hz signaling  912x624, active  800x480, 100x30 text, narrow border, 283_750_000 Hz"
03792     00          | 	byte	0
03793                 | LR__0174
03793     2D 20 6D 6F 
03797     64 65 20 31 
0379b     39 32 3A 20 
0379f     50 41 4C 20 
037a3     20 35 30 20 
037a7     48 7A 20 73 
037ab     69 67 6E 61 
037af     6C 69 6E 67 
037b3     20 31 31 34 
037b7     30 78 36 32 
037bb     34 2C 20 61 
037bf     63 74 69 76 
037c3     65 20 31 30 
037c7     32 34 78 35 
037cb     37 36 2C 20 
037cf     31 32 38 78 
037d3     33 36 20 74 
037d7     65 78 74 2C 
037db     20 62 6F 72 
037df     64 65 72 6C 
037e3     65 73 73 2C 
037e7     20 20 20 20 
037eb     33 35 34 5F 
037ef     36 39 33 5F 
037f3     38 37 38 20 
037f7     48 7A       | 	byte	"- mode 192: PAL  50 Hz signaling 1140x624, active 1024x576, 128x36 text, borderless,    354_693_878 Hz"
037f9     00          | 	byte	0
037fa                 | LR__0175
037fa     2D 20 6D 6F 
037fe     64 65 20 32 
03802     35 36 3A 20 
03806     4E 54 53 43 
0380a     20 36 30 20 
0380e     48 7A 20 73 
03812     69 67 6E 61 
03816     6C 69 6E 67 
0381a     20 31 31 34 
0381e     30 78 36 32 
03822     34 2C 20 61 
03826     63 74 69 76 
0382a     65 20 20 38 
0382e     30 30 78 34 
03832     38 30 2C 20 
03836     31 30 30 78 
0383a     33 30 20 74 
0383e     65 78 74 2C 
03842     20 6E 61 72 
03846     72 6F 77 20 
0384a     62 6F 72 64 
0384e     65 72 2C 20 
03852     33 35 37 5F 
03856     39 35 39 5F 
0385a     31 38 34 20 
0385e     48 7A       | 	byte	"- mode 256: NTSC 60 Hz signaling 1140x624, active  800x480, 100x30 text, narrow border, 357_959_184 Hz"
03860     00          | 	byte	0
03861                 | LR__0176
03861     2D 20 6D 6F 
03865     64 65 20 33 
03869     32 30 3A 20 
0386d     4E 54 53 43 
03871     20 36 30 20 
03875     48 7A 20 73 
03879     69 67 6E 61 
0387d     6C 69 6E 67 
03881     20 31 30 32 
03885     36 78 36 32 
03889     34 2C 20 61 
0388d     63 74 69 76 
03891     65 20 20 38 
03895     30 30 78 34 
03899     38 30 2C 20 
0389d     31 30 30 78 
038a1     33 30 20 74 
038a5     65 78 74 2C 
038a9     20 6E 61 72 
038ad     72 6F 77 20 
038b1     62 6F 72 64 
038b5     65 72 2C 20 
038b9     33 32 32 5F 
038bd     31 36 32 5F 
038c1     31 36 32 20 
038c5     48 7A       | 	byte	"- mode 320: NTSC 60 Hz signaling 1026x624, active  800x480, 100x30 text, narrow border, 322_162_162 Hz"
038c7     00          | 	byte	0
038c8                 | LR__0177
038c8     2D 20 6D 6F 
038cc     64 65 20 33 
038d0     38 34 3A 20 
038d4     4E 54 53 43 
038d8     20 36 30 20 
038dc     48 7A 20 73 
038e0     69 67 6E 61 
038e4     6C 69 6E 67 
038e8     20 20 39 31 
038ec     32 78 36 32 
038f0     34 2C 20 61 
038f4     63 74 69 76 
038f8     65 20 20 38 
038fc     30 30 78 34 
03900     38 30 2C 20 
03904     31 30 30 78 
03908     33 30 20 74 
0390c     65 78 74 2C 
03910     20 6E 61 72 
03914     72 6F 77 20 
03918     62 6F 72 64 
0391c     65 72 2C 20 
03920     32 38 36 5F 
03924     33 36 33 5F 
03928     36 33 36 20 
0392c     48 7A       | 	byte	"- mode 384: NTSC 60 Hz signaling  912x624, active  800x480, 100x30 text, narrow border, 286_363_636 Hz"
0392e     00          | 	byte	0
0392f                 | LR__0178
0392f     2D 20 6D 6F 
03933     64 65 20 34 
03937     34 38 3A 20 
0393b     4E 54 53 43 
0393f     20 36 30 20 
03943     48 7A 20 73 
03947     69 67 6E 61 
0394b     6C 69 6E 67 
0394f     20 31 30 32 
03953     36 78 36 32 
03957     34 2C 20 61 
0395b     63 74 69 76 
0395f     65 20 20 38 
03963     38 30 78 34 
03967     39 36 2C 20 
0396b     31 31 30 78 
0396f     33 31 20 74 
03973     65 78 74 2C 
03977     20 62 6F 72 
0397b     64 65 72 6C 
0397f     65 73 73 2C 
03983     20 20 20 20 
03987     33 32 32 5F 
0398b     31 36 32 5F 
0398f     31 36 32 20 
03993     48 7A       | 	byte	"- mode 448: NTSC 60 Hz signaling 1026x624, active  880x496, 110x31 text, borderless,    322_162_162 Hz"
03995     00          | 	byte	0
03996                 | LR__0179
03996     57 65 20 61 
0399a     72 65 20 69 
0399e     6E 20 74 68 
039a2     65 20 6D 6F 
039a6     64 65 20 34 
039aa     34 38 20 6E 
039ae     6F 77       | 	byte	"We are in the mode 448 now"
039b0     00          | 	byte	0
039b1                 | LR__0180
039b1     49 74 20 69 
039b5     73 20 74 68 
039b9     65 20 73 61 
039bd     66 65 73 74 
039c1     20 6D 6F 64 
039c5     65 20 74 6F 
039c9     20 73 74 61 
039cd     72 74 2C 20 
039d1     74 68 65 20 
039d5     50 32 20 69 
039d9     73 20 63 6C 
039dd     6F 63 6B 65 
039e1     64 20 61 74 
039e5     20 33 32 32 
039e9     20 4D 48 7A 
039ed     20 61 6E 64 
039f1     20 74 68 65 
039f5     20 72 65 66 
039f9     72 65 73 68 
039fd     20 72 61 74 
03a01     65 20 69 73 
03a05     20 36 30 20 
03a09     48 7A       | 	byte	"It is the safest mode to start, the P2 is clocked at 322 MHz and the refresh rate is 60 Hz"
03a0b     00          | 	byte	0
03a0c                 | LR__0181
03a0c     20          | 	byte	" "
03a0d     00          | 	byte	0
03a0e                 | LR__0182
03a0e     54 68 69 73 
03a12     20 69 73 20 
03a16     4D 53 2D 44 
03a1a     4F 53 20 6C 
03a1e     69 6B 65 20 
03a22     38 78 31 36 
03a26     20 66 6F 6E 
03a2a     74 20 73 74 
03a2e     79 6C 65 2E 
03a32     2E 2E       | 	byte	"This is MS-DOS like 8x16 font style..."
03a34     00          | 	byte	0
03a35                 | LR__0183
03a35     20          | 	byte	" "
03a36     00          | 	byte	0
03a37                 | LR__0184
03a37     43 3A 5C 3E | 	byte	"C:\>"
03a3b     00          | 	byte	0
03a3c                 | LR__0185
03a3c     73 68 6F 77 
03a40     66 6F 6E 74 
03a44     20          | 	byte	"showfont "
03a45     00          | 	byte	0
03a46                 | LR__0186
03a46     20          | 	byte	" "
03a47     00          | 	byte	0
03a48                 | LR__0187
03a48     20 20 20 20 
03a4c     20 20 20 20 | 	byte	"        "
03a50     00          | 	byte	0
03a51                 | LR__0188
03a51     20          | 	byte	" "
03a52     00          | 	byte	0
03a53                 | LR__0189
03a53     2C          | 	byte	","
03a54     00          | 	byte	0
03a55                 | LR__0190
03a55     43 3A 5C 3E | 	byte	"C:\>"
03a59     00          | 	byte	0
03a5a                 | LR__0191
03a5a     6D 6F 64 65 
03a5e     20 30       | 	byte	"mode 0"
03a60     00          | 	byte	0
03a61                 | LR__0192
03a61     20 46 69 6C 
03a65     65 20 20 4F 
03a69     70 74 69 6F 
03a6d     6E 73 20 20 
03a71     56 69 65 77 
03a75     20 20 53 70 
03a79     65 63 69 61 
03a7d     6C          | 	byte	" File  Options  View  Special"
03a7e     00          | 	byte	0
03a7f                 | LR__0193
03a7f     20 20 20 20 
03a83     20 20 20 20 | 	byte	"        "
03a87     00          | 	byte	0
03a88                 | LR__0194
03a88     20          | 	byte	" "
03a89     00          | 	byte	0
03a8a                 | LR__0195
03a8a     2C          | 	byte	","
03a8b     00          | 	byte	0
03a8c                 | LR__0196
03a8c     20          | 	byte	" "
03a8d     00          | 	byte	0
03a8e                 | LR__0197
03a8e     20 20 20 20 
03a92     20 2E 2E 2E 
03a96     20 62 75 74 
03a9a     20 41 74 61 
03a9e     72 69 20 53 
03aa2     54 2D 6C 69 
03aa6     6B 65 20 6D 
03aaa     6F 6E 6F 20 
03aae     66 6F 6E 74 
03ab2     20 63 61 6E 
03ab6     20 61 6C 73 
03aba     6F 20 62 65 
03abe     20 75 73 65 
03ac2     64 2E       | 	byte	"     ... but Atari ST-like mono font can also be used."
03ac4     00          | 	byte	0
03ac5                 | LR__0198
03ac5     20 20 20 20 
03ac9     20 20 20 20 
03acd     20 57 65 20 
03ad1     61 6C 73 6F 
03ad5     20 73 77 69 
03ad9     74 63 68 65 
03add     64 20 74 68 
03ae1     65 20 67 72 
03ae5     61 70 68 69 
03ae9     63 73 20 6D 
03aed     6F 64 65 20 
03af1     74 6F 20 50 
03af5     41 4C 20 6C 
03af9     69 6B 65 20 
03afd     35 30 20 48 
03b01     7A 2C 20 36 
03b05     32 34 20 6C 
03b09     69 6E 65 73 
03b0d     2E          | 	byte	"         We also switched the graphics mode to PAL like 50 Hz, 624 lines."
03b0e     00          | 	byte	0
03b0f                 | LR__0199
03b0f     20          | 	byte	" "
03b10     00          | 	byte	0
03b11                 | LR__0200
03b11     20 20 20 20 
03b15     20 20 20 20 
03b19     20 41 6C 74 
03b1d     68 6F 75 67 
03b21     68 20 74 68 
03b25     65 20 66 6F 
03b29     6E 74 20 69 
03b2d     73 20 6D 6F 
03b31     6E 6F 20 73 
03b35     74 79 6C 65 
03b39     2C 20 77 65 
03b3d     20 61 72 65 
03b41     20 73 74 69 
03b45     6C 6C 20 69 
03b49     6E 20 74 68 
03b4d     65 20 63 6F 
03b51     6C 6F 72 20 
03b55     6D 6F 64 65 
03b59     20 68 65 72 
03b5d     65 2E       | 	byte	"         Although the font is mono style, we are still in the color mode here."
03b5f     00          | 	byte	0
03b60                 | LR__0201
03b60     62 6C 75 65 | 	byte	"blue"
03b64     00          | 	byte	0
03b65                 | LR__0202
03b65     67 72 65 65 
03b69     6E          | 	byte	"green"
03b6a     00          | 	byte	0
03b6b                 | LR__0203
03b6b     63 79 61 6E | 	byte	"cyan"
03b6f     00          | 	byte	0
03b70                 | LR__0204
03b70     72 65 64    | 	byte	"red"
03b73     00          | 	byte	0
03b74                 | LR__0205
03b74     6D 61 67 65 
03b78     6E 74 61    | 	byte	"magenta"
03b7b     00          | 	byte	0
03b7c                 | LR__0206
03b7c     62 72 6F 77 
03b80     6E          | 	byte	"brown"
03b81     00          | 	byte	0
03b82                 | LR__0207
03b82     6C 69 67 68 
03b86     74 20 67 72 
03b8a     61 79       | 	byte	"light gray"
03b8c     00          | 	byte	0
03b8d                 | LR__0208
03b8d     64 61 72 6B 
03b91     20 67 72 61 
03b95     79          | 	byte	"dark gray"
03b96     00          | 	byte	0
03b97                 | LR__0209
03b97     6C 69 67 68 
03b9b     74 20 62 6C 
03b9f     75 65       | 	byte	"light blue"
03ba1     00          | 	byte	0
03ba2                 | LR__0210
03ba2     6C 69 67 68 
03ba6     74 20 67 72 
03baa     65 65 6E    | 	byte	"light green"
03bad     00          | 	byte	0
03bae                 | LR__0211
03bae     6C 69 67 68 
03bb2     74 20 63 79 
03bb6     61 6E       | 	byte	"light cyan"
03bb8     00          | 	byte	0
03bb9                 | LR__0212
03bb9     6C 69 67 68 
03bbd     74 20 72 65 
03bc1     64          | 	byte	"light red"
03bc2     00          | 	byte	0
03bc3                 | LR__0213
03bc3     6C 69 67 68 
03bc7     74 20 6D 61 
03bcb     67 65 6E 74 
03bcf     61          | 	byte	"light magenta"
03bd0     00          | 	byte	0
03bd1                 | LR__0214
03bd1     79 65 6C 6C 
03bd5     6F 77       | 	byte	"yellow"
03bd7     00          | 	byte	0
03bd8                 | LR__0215
03bd8     77 68 69 74 
03bdc     65          | 	byte	"white"
03bdd     00          | 	byte	0
03bde                 | LR__0216
03bde     43 6C 6F 63 
03be2     6B 20 66 72 
03be6     65 71 75 65 
03bea     6E 63 79 3A 
03bee     20          | 	byte	"Clock frequency: "
03bef     00          | 	byte	0
03bf0                 | LR__0217
03bf0     43 3A 5C 3E | 	byte	"C:\>"
03bf4     00          | 	byte	0
03bf5                 | LR__0218
03bf5     70          | 	byte	"p"
03bf6     00          | 	byte	0
03bf7                 | LR__0219
03bf7     63          | 	byte	"c"
03bf8     00          | 	byte	0
03bf9                 | LR__0220
03bf9     20          | 	byte	" "
03bfa     00          | 	byte	0
03bfb                 | LR__0221
03bfb     54 68 65 20 
03bff     50 72 6F 70 
03c03     65 6C 6C 65 
03c07     72 20 43 6F 
03c0b     6D 6D 61 6E 
03c0f     64 65 72 2C 
03c13     20 43 6F 70 
03c17     79 6C 65 66 
03c1b     74 20 28    | 	byte	"The Propeller Commander, Copyleft ("
03c1e     00          | 	byte	0
03c1f                 | LR__0222
03c1f     29 20 32 30 
03c23     32 31 20 70 
03c27     69 6B 33 33 
03c2b     40 6F 32 2E 
03c2f     70 6C       | 	byte	") 2021 pik33@o2.pl"
03c31     00          | 	byte	0
03c32                 | LR__0223
03c32     20          | 	byte	" "
03c33     00          | 	byte	0
03c34                 | LR__0224
03c34     43 3A 5C 3E | 	byte	"C:\>"
03c38     00          | 	byte	0
03c39                 | LR__0225
03c39     20 53 74 61 
03c3d     74 75 73 20 | 	byte	" Status "
03c41     00          | 	byte	0
03c42                 | LR__0226
03c42     20 43 3A 5C 
03c46     20          | 	byte	" C:\ "
03c47     00          | 	byte	0
03c48                 | LR__0227
03c48     54 68 65 20 
03c4c     50 72 6F 70 
03c50     65 6C 6C 65 
03c54     72 20 43 6F 
03c58     6D 6D 61 6E 
03c5c     64 65 72 2C 
03c60     20 56 65 72 
03c64     73 69 6F 6E 
03c68     20 30 2E 30 
03c6c     30          | 	byte	"The Propeller Commander, Version 0.00"
03c6d     00          | 	byte	0
03c6e                 | LR__0228
03c6e     43 6F 70 79 
03c72     6C 65 66 74 
03c76     20 28       | 	byte	"Copyleft ("
03c78     00          | 	byte	0
03c79                 | LR__0229
03c79     29 20 32 30 
03c7d     32 31 20 70 
03c81     69 6B 33 33 
03c85     40 6F 32 2E 
03c89     70 6C       | 	byte	") 2021 pik33@o2.pl"
03c8b     00          | 	byte	0
03c8c                 | LR__0230
03c8c     35 32 34 2C 
03c90     32 38 38 20 
03c94     42 79 74 65 
03c98     73 20 4D 65 
03c9c     6D 6F 72 79 | 	byte	"524,288 Bytes Memory"
03ca0     00          | 	byte	0
03ca1                 | LR__0231
03ca1     2C          | 	byte	","
03ca2     00          | 	byte	0
03ca3                 | LR__0232
03ca3     42 79 74 65 
03ca7     73 20 46 72 
03cab     65 65       | 	byte	"Bytes Free"
03cad     00          | 	byte	0
03cae                 | LR__0233
03cae     33 32 2C 32 
03cb2     31 32 2C 32 
03cb6     35 34 2C 37 
03cba     32 30 20 74 
03cbe     6F 74 61 6C 
03cc2     20 62 79 74 
03cc6     65 73 20 6F 
03cca     6E 20 64 72 
03cce     69 76 65 20 
03cd2     43 3A       | 	byte	"32,212,254,720 total bytes on drive C:"
03cd4     00          | 	byte	0
03cd5                 | LR__0234
03cd5     33 2C 39 38 
03cd9     39 2C 31 32 
03cdd     33 2C 36 34 
03ce1     30 20 62 79 
03ce5     74 65 73 20 
03ce9     66 72 65 65 
03ced     20 6F 6E 20 
03cf1     64 72 69 76 
03cf5     65 20 43 3A | 	byte	"3,989,123,640 bytes free on drive C:"
03cf9     00          | 	byte	0
03cfa                 | LR__0235
03cfa     31 32 33 20 
03cfe     66 69 6C 65 
03d02     73 20 75 73 
03d06     65 20 31 32 
03d0a     38 2C 39 35 
03d0e     36 2C 33 38 
03d12     34 20 62 79 
03d16     74 65 73 20 
03d1a     69 6E       | 	byte	"123 files use 128,956,384 bytes in"
03d1c     00          | 	byte	0
03d1d                 | LR__0236
03d1d     43 3A       | 	byte	"C:"
03d1f     00          | 	byte	0
03d20                 | LR__0237
03d20     4E 6F 20 27 
03d24     64 69 72 69 
03d28     6E 66 6F 27 
03d2c     20 66 69 6C 
03d30     65 20 69 6E 
03d34     20 74 68 69 
03d38     73 20 64 69 
03d3c     72 65 63 74 
03d40     6F 72 79    | 	byte	"No 'dirinfo' file in this directory"
03d43     00          | 	byte	0
03d44                 | LR__0238
03d44     4E 61 6D 65 | 	byte	"Name"
03d48     00          | 	byte	0
03d49                 | LR__0239
03d49     53 69 7A 65 | 	byte	"Size"
03d4d     00          | 	byte	0
03d4e                 | LR__0240
03d4e     44 61 74 65 | 	byte	"Date"
03d52     00          | 	byte	0
03d53                 | LR__0241
03d53     54 69 6D 65 | 	byte	"Time"
03d57     00          | 	byte	0
03d58                 | LR__0242
03d58     31 32 3A 33 
03d5c     34          | 	byte	"12:34"
03d5d     00          | 	byte	0
03d5e                 | LR__0243
03d5e     32 30 32 31 
03d62     2E 30 33 2E 
03d66     32 33       | 	byte	"2021.03.23"
03d68     00          | 	byte	0
03d69                 | LR__0244
03d69     53 55 42 2D 
03d6d     44 49 52    | 	byte	"SUB-DIR"
03d70     00          | 	byte	0
03d71                 | LR__0245
03d71     32 31 33 35 
03d75     36          | 	byte	"21356"
03d76     00          | 	byte	0
03d77                 | LR__0246
03d77     31 32 35 36 
03d7b     34          | 	byte	"12564"
03d7c     00          | 	byte	0
03d7d                 | LR__0247
03d7d     31 31 32 38 | 	byte	"1128"
03d81     00          | 	byte	0
03d82                 | LR__0248
03d82     31 30 35 33 
03d86     32 31       | 	byte	"105321"
03d88     00          | 	byte	0
03d89                 | LR__0249
03d89     33 30 38 33 
03d8d     31          | 	byte	"30831"
03d8e     00          | 	byte	0
03d8f                 | LR__0250
03d8f     38 35 36    | 	byte	"856"
03d92     00          | 	byte	0
03d93                 | LR__0251
03d93     33 31 32 34 
03d97     38          | 	byte	"31248"
03d98     00          | 	byte	0
03d99                 | LR__0252
03d99     32 33 31 36 | 	byte	"2316"
03d9d     00          | 	byte	0
03d9e                 | LR__0253
03d9e     31 37 35 33 
03da2     31          | 	byte	"17531"
03da3     00          | 	byte	0
03da4                 | LR__0254
03da4     50 72 6F 70 
03da8     44 4F 53    | 	byte	"PropDOS"
03dab     00          | 	byte	0
03dac                 | LR__0255
03dac     42 41 53 49 
03db0     43          | 	byte	"BASIC"
03db1     00          | 	byte	0
03db2                 | LR__0256
03db2     53 70 69 6E | 	byte	"Spin"
03db6     00          | 	byte	0
03db7                 | LR__0257
03db7     57 69 6E 64 
03dbb     6F 77 73    | 	byte	"Windows"
03dbe     00          | 	byte	0
03dbf                 | LR__0258
03dbf     41 74 61 72 
03dc3     69 20 20 20 
03dc7     20 20 20 20 
03dcb     20 20 20 20 
03dcf     20 20 65 6D 
03dd3     75          | 	byte	"Atari             emu"
03dd4     00          | 	byte	0
03dd5                 | LR__0259
03dd5     41 6D 69 67 
03dd9     61 20 20 20 
03ddd     20 20 20 20 
03de1     20 20 20 20 
03de5     20 20 65 6D 
03de9     75          | 	byte	"Amiga             emu"
03dea     00          | 	byte	0
03deb                 | LR__0260
03deb     50 72 6F 70 
03def     65 6C 6C 65 
03df3     72          | 	byte	"Propeller"
03df4     00          | 	byte	0
03df5                 | LR__0261
03df5     44 4F 53 20 
03df9     20 20 20 20 
03dfd     20 20 20 20 
03e01     20 20 20 20 
03e05     20 20 53 59 
03e09     53          | 	byte	"DOS               SYS"
03e0a     00          | 	byte	0
03e0b                 | LR__0262
03e0b     44 55 50 20 
03e0f     20 20 20 20 
03e13     20 20 20 20 
03e17     20 20 20 20 
03e1b     20 20 53 59 
03e1f     53          | 	byte	"DUP               SYS"
03e20     00          | 	byte	0
03e21                 | LR__0263
03e21     41 75 74 6F 
03e25     65 78 65 63 
03e29     20 20 20 20 
03e2d     20 20 20 20 
03e31     20 20 42 41 
03e35     54          | 	byte	"Autoexec          BAT"
03e36     00          | 	byte	0
03e37                 | LR__0264
03e37     70 63 20 20 
03e3b     20 20 20 20 
03e3f     20 20 20 20 
03e43     20 20 20 20 
03e47     20 20 65 78 
03e4b     65          | 	byte	"pc                exe"
03e4c     00          | 	byte	0
03e4d                 | LR__0265
03e4d     77 69 6E 20 
03e51     20 20 20 20 
03e55     20 20 20 20 
03e59     20 20 20 20 
03e5d     20 20 63 6F 
03e61     6D          | 	byte	"win               com"
03e62     00          | 	byte	0
03e63                 | LR__0266
03e63     44 4F 4F 4D 
03e67     20 20 20 20 
03e6b     20 20 20 20 
03e6f     20 20 20 20 
03e73     20 20 42 41 
03e77     54          | 	byte	"DOOM              BAT"
03e78     00          | 	byte	0
03e79                 | LR__0267
03e79     63 6F 6D 6D 
03e7d     61 6E 64 20 
03e81     20 20 20 20 
03e85     20 20 20 20 
03e89     20 20 63 6F 
03e8d     6D          | 	byte	"command           com"
03e8e     00          | 	byte	0
03e8f                 | LR__0268
03e8f     63 6F 6E 66 
03e93     69 67 20 20 
03e97     20 20 20 20 
03e9b     20 20 20 20 
03e9f     20 20 73 79 
03ea3     73          | 	byte	"config            sys"
03ea4     00          | 	byte	0
03ea5                 | LR__0269
03ea5     6D 73 64 6F 
03ea9     73 20 20 20 
03ead     20 20 20 20 
03eb1     20 20 20 20 
03eb5     20 20 73 79 
03eb9     73          | 	byte	"msdos             sys"
03eba     00          | 	byte	0
03ebb                 | LR__0270
03ebb     70 63 2E 65 
03ebf     78 65 20 20 
03ec3     20 20 20 20 
03ec7     20 20 20 20 
03ecb     20 20 20 20 
03ecf     20 20 31 30 
03ed3     35 33 32 31 
03ed7     20 20 20 20 
03edb     32 30 32 31 
03edf     2E 30 33 2E 
03ee3     32 33 20 31 
03ee7     32 3A 33 34 | 	byte	"pc.exe                105321    2021.03.23 12:34"
03eeb     00          | 	byte	0
03eec                 | 	alignl
03eec                 | _dat_
03eec     00 00 00 00 | aend long 0
03ef0                 | 	alignl
03ef0                 | _hng012_dat_
03ef0     00 00 00 00 
03ef4     00 00 00 00 
03ef8     00 00 00 00 
03efc     00 00 00 00 
03f00     00 00 00    | vga_font                file "vgafont.def"
03f03     7E 81 A5 81 
03f07     81 BD 99 81 
03f0b     81 7E 00 00 
03f0f     00 00 00 00 | 	byte	$7e, $81, $a5, $81, $81, $bd, $99, $81, $81, $7e, $00, $00, $00, $00, $00, $00
03f13     7E FF DB FF 
03f17     FF C3 E7 FF 
03f1b     FF 7E 00 00 
03f1f     00 00 00 00 | 	byte	$7e, $ff, $db, $ff, $ff, $c3, $e7, $ff, $ff, $7e, $00, $00, $00, $00, $00, $00
03f23     00 36 7F 7F 
03f27     7F 7F 3E 1C 
03f2b     08 00 00 00 
03f2f     00 00 00 00 | 	byte	$00, $36, $7f, $7f, $7f, $7f, $3e, $1c, $08, $00, $00, $00, $00, $00, $00, $00
03f33     00 08 1C 3E 
03f37     7F 3E 1C 08 
03f3b     00 00 00 00 
03f3f     00 00 00 00 | 	byte	$00, $08, $1c, $3e, $7f, $3e, $1c, $08, $00, $00, $00, $00, $00, $00, $00, $00
03f43     18 3C 3C E7 
03f47     E7 E7 18 18 
03f4b     3C 00 00 00 
03f4f     00 00 00 00 | 	byte	$18, $3c, $3c, $e7, $e7, $e7, $18, $18, $3c, $00, $00, $00, $00, $00, $00, $00
03f53     18 3C 7E FF 
03f57     FF 7E 18 18 
03f5b     3C 00 00 00 
03f5f     00 00 00 00 | 	byte	$18, $3c, $7e, $ff, $ff, $7e, $18, $18, $3c, $00, $00, $00, $00, $00, $00, $00
03f63     00 00 00 18 
03f67     3C 3C 18 00 
03f6b     00 00 00 00 
03f6f     00 FF FF FF | 	byte	$00, $00, $00, $18, $3c, $3c, $18, $00, $00, $00, $00, $00, $00, $ff, $ff, $ff
03f73     FF FF FF E7 
03f77     C3 C3 E7 FF 
03f7b     FF FF FF FF 
03f7f     FF 00 00 00 | 	byte	$ff, $ff, $ff, $e7, $c3, $c3, $e7, $ff, $ff, $ff, $ff, $ff, $ff, $00, $00, $00
03f83     00 00 3C 66 
03f87     42 42 66 3C 
03f8b     00 00 00 00 
03f8f     00 FF FF FF | 	byte	$00, $00, $3c, $66, $42, $42, $66, $3c, $00, $00, $00, $00, $00, $ff, $ff, $ff
03f93     FF FF C3 99 
03f97     BD BD 99 C3 
03f9b     FF FF FF FF 
03f9f     FF 00 00 00 | 	byte	$ff, $ff, $c3, $99, $bd, $bd, $99, $c3, $ff, $ff, $ff, $ff, $ff, $00, $00, $00
03fa3     78 70 58 4C 
03fa7     1E 33 33 33 
03fab     33 1E 00 00 
03faf     00 00 00 00 | 	byte	$78, $70, $58, $4c, $1e, $33, $33, $33, $33, $1e, $00, $00, $00, $00, $00, $00
03fb3     3C 66 66 66 
03fb7     66 3C 18 7E 
03fbb     18 18 00 00 
03fbf     00 00 00 00 | 	byte	$3c, $66, $66, $66, $66, $3c, $18, $7e, $18, $18, $00, $00, $00, $00, $00, $00
03fc3     FC CC FC 0C 
03fc7     0C 0C 0C 0E 
03fcb     0F 07 00 00 
03fcf     00 00 00 00 | 	byte	$fc, $cc, $fc, $0c, $0c, $0c, $0c, $0e, $0f, $07, $00, $00, $00, $00, $00, $00
03fd3     FE C6 FE C6 
03fd7     C6 C6 C6 E6 
03fdb     E7 67 03 00 
03fdf     00 00 00 00 | 	byte	$fe, $c6, $fe, $c6, $c6, $c6, $c6, $e6, $e7, $67, $03, $00, $00, $00, $00, $00
03fe3     18 18 DB 3C 
03fe7     E7 3C DB 18 
03feb     18 00 00 00 
03fef     00 00 00 01 | 	byte	$18, $18, $db, $3c, $e7, $3c, $db, $18, $18, $00, $00, $00, $00, $00, $00, $01
03ff3     03 07 0F 1F 
03ff7     7F 1F 0F 07 
03ffb     03 01 00 00 
03fff     00 00 00 40 | 	byte	$03, $07, $0f, $1f, $7f, $1f, $0f, $07, $03, $01, $00, $00, $00, $00, $00, $40
04003     60 70 78 7C 
04007     7F 7C 78 70 
0400b     60 40 00 00 
0400f     00 00 00 00 | 	byte	$60, $70, $78, $7c, $7f, $7c, $78, $70, $60, $40, $00, $00, $00, $00, $00, $00
04013     18 3C 7E 18 
04017     18 18 7E 3C 
0401b     18 00 00 00 
0401f     00 00 00 00 | 	byte	$18, $3c, $7e, $18, $18, $18, $7e, $3c, $18, $00, $00, $00, $00, $00, $00, $00
04023     66 66 66 66 
04027     66 66 66    | 	byte	$66[7]
0402a     00 66 66 00 
0402e     00 00 00 00 
04032     00 FE DB DB 
04036     DB DE D8 D8 | 	byte	$00, $66, $66, $00, $00, $00, $00, $00, $00, $fe, $db, $db, $db, $de, $d8, $d8
0403a     D8 D8 D8 00 
0403e     00 00 00 3E 
04042     63 06 1C 36 
04046     63 63 36 1C | 	byte	$d8, $d8, $d8, $00, $00, $00, $00, $3e, $63, $06, $1c, $36, $63, $63, $36, $1c
0404a     30 63 3E 00 
0404e     00 00 00 00 
04052     00 00 00 00 
04056     00 00 00 7F | 	byte	$30, $63, $3e, $00, $00, $00, $00, $00, $00, $00, $00, $00, $00, $00, $00, $7f
0405a     7F 7F 7F 00 
0405e     00 00 00 00 
04062     00 18 3C 7E 
04066     18 18 18 7E | 	byte	$7f, $7f, $7f, $00, $00, $00, $00, $00, $00, $18, $3c, $7e, $18, $18, $18, $7e
0406a     3C 18 7E 00 
0406e     00 00 00 00 
04072     00 18 3C 7E 
04076     18 18 18 18 | 	byte	$3c, $18, $7e, $00, $00, $00, $00, $00, $00, $18, $3c, $7e, $18, $18, $18, $18
0407a     18 18 18 00 
0407e     00 00 00 00 
04082     00 18 18 18 
04086     18 18 18 18 | 	byte	$18, $18, $18, $00, $00, $00, $00, $00, $00, $18, $18, $18, $18, $18, $18, $18
0408a     7E 3C 18 00 
0408e     00 00 00 00 
04092     00 00 00 18 
04096     30 7F 30 18 | 	byte	$7e, $3c, $18, $00, $00, $00, $00, $00, $00, $00, $00, $18, $30, $7f, $30, $18
0409a     00 00 00 00 
0409e     00 00 00 00 
040a2     00 00 00    | 	byte	$00[11]
040a5     0C 06 7F 06 
040a9     0C 00 00 00 
040ad     00 00 00 00 
040b1     00 00 00 00 | 	byte	$0c, $06, $7f, $06, $0c, $00, $00, $00, $00, $00, $00, $00, $00, $00, $00, $00
040b5     00 03 03 03 
040b9     7F 00 00 00 
040bd     00 00 00 00 
040c1     00 00 00 00 | 	byte	$00, $03, $03, $03, $7f, $00, $00, $00, $00, $00, $00, $00, $00, $00, $00, $00
040c5     14 36 7F 36 
040c9     14 00 00 00 
040cd     00 00 00 00 
040d1     00 00 00 08 | 	byte	$14, $36, $7f, $36, $14, $00, $00, $00, $00, $00, $00, $00, $00, $00, $00, $08
040d5     1C 1C 3E 3E 
040d9     7F 7F 00 00 
040dd     00 00 00 00 
040e1     00 00 00 7F | 	byte	$1c, $1c, $3e, $3e, $7f, $7f, $00, $00, $00, $00, $00, $00, $00, $00, $00, $7f
040e5     7F 3E 3E 1C 
040e9     1C 08 00 00 
040ed     00 00 00 00 
040f1     00 00 00 00 | 	byte	$7f, $3e, $3e, $1c, $1c, $08, $00, $00, $00, $00, $00, $00, $00, $00, $00, $00
040f5     00 00 00 00 
040f9     00 00 00 00 
040fd     00 00 00 00 
04101     00 00       | 	byte	$00[14]
04103     18 3C 3C 3C 
04107     18 18 18 00 
0410b     18 18 00 00 
0410f     00 00 66 66 | 	byte	$18, $3c, $3c, $3c, $18, $18, $18, $00, $18, $18, $00, $00, $00, $00, $66, $66
04113     66 24 00 00 
04117     00 00 00 00 
0411b     00 00 00 00 
0411f     00 00 00 00 | 	byte	$66, $24, $00, $00, $00, $00, $00, $00, $00, $00, $00, $00, $00, $00, $00, $00
04123     00 36 36 7F 
04127     36 36 36 7F 
0412b     36 36 00 00 
0412f     00 00 18 18 | 	byte	$00, $36, $36, $7f, $36, $36, $36, $7f, $36, $36, $00, $00, $00, $00, $18, $18
04133     3E 63 43 03 
04137     3E 60 60 61 
0413b     63 3E 18 18 
0413f     00 00 00 00 | 	byte	$3e, $63, $43, $03, $3e, $60, $60, $61, $63, $3e, $18, $18, $00, $00, $00, $00
04143     00 00 43 63 
04147     30 18 0C 06 
0414b     63 61 00 00 
0414f     00 00 00 00 | 	byte	$00, $00, $43, $63, $30, $18, $0c, $06, $63, $61, $00, $00, $00, $00, $00, $00
04153     1C 36 36 1C 
04157     6E 3B 33 33 
0415b     33 6E 00 00 
0415f     00 00 00 00 | 	byte	$1c, $36, $36, $1c, $6e, $3b, $33, $33, $33, $6e, $00, $00, $00, $00, $00, $00
04163     0C 0C 0C 06 
04167     00 00 00 00 
0416b     00 00 00 00 
0416f     00 00 00 00 | 	byte	$0c, $0c, $0c, $06, $00, $00, $00, $00, $00, $00, $00, $00, $00, $00, $00, $00
04173     30 18 0C 0C 
04177     0C 0C 0C 0C 
0417b     18 30 00 00 
0417f     00 00 00 00 | 	byte	$30, $18, $0c, $0c, $0c, $0c, $0c, $0c, $18, $30, $00, $00, $00, $00, $00, $00
04183     0C 18 30 30 
04187     30 30 30 30 
0418b     18 0C 00 00 
0418f     00 00 00 00 | 	byte	$0c, $18, $30, $30, $30, $30, $30, $30, $18, $0c, $00, $00, $00, $00, $00, $00
04193     00 00 00 66 
04197     3C FF 3C 66 
0419b     00 00 00 00 
0419f     00 00 00 00 | 	byte	$00, $00, $00, $66, $3c, $ff, $3c, $66, $00, $00, $00, $00, $00, $00, $00, $00
041a3     00 00 00 18 
041a7     18 7E 18 18 
041ab     00 00 00 00 
041af     00 00 00 00 | 	byte	$00, $00, $00, $18, $18, $7e, $18, $18, $00, $00, $00, $00, $00, $00, $00, $00
041b3     00 00 00 00 
041b7     00 00 00 00 | 	byte	$00[8]
041bb     18 18 18 0C 
041bf     00 00 00 00 
041c3     00 00 00 00 
041c7     00 7F 00 00 | 	byte	$18, $18, $18, $0c, $00, $00, $00, $00, $00, $00, $00, $00, $00, $7f, $00, $00
041cb     00 00 00 00 
041cf     00 00 00 00 
041d3     00 00 00 00 
041d7     00 00 00 00 | 	byte	$00[16]
041db     18 18 00 00 
041df     00 00 00 00 
041e3     00 00 40 60 
041e7     30 18 0C 06 | 	byte	$18, $18, $00, $00, $00, $00, $00, $00, $00, $00, $40, $60, $30, $18, $0c, $06
041eb     03 01 00 00 
041ef     00 00 00 00 
041f3     1C 36 63 63 
041f7     6B 6B 63 63 | 	byte	$03, $01, $00, $00, $00, $00, $00, $00, $1c, $36, $63, $63, $6b, $6b, $63, $63
041fb     36 1C 00 00 
041ff     00 00 00 00 
04203     18 1C 1E 18 
04207     18 18 18 18 | 	byte	$36, $1c, $00, $00, $00, $00, $00, $00, $18, $1c, $1e, $18, $18, $18, $18, $18
0420b     18 7E 00 00 
0420f     00 00 00 00 
04213     3E 63 60 30 
04217     18 0C 06 03 | 	byte	$18, $7e, $00, $00, $00, $00, $00, $00, $3e, $63, $60, $30, $18, $0c, $06, $03
0421b     63 7F 00 00 
0421f     00 00 00 00 
04223     3E 63 60 60 
04227     3C 60 60 60 | 	byte	$63, $7f, $00, $00, $00, $00, $00, $00, $3e, $63, $60, $60, $3c, $60, $60, $60
0422b     63 3E 00 00 
0422f     00 00 00 00 
04233     30 38 3C 36 
04237     33 7F 30 30 | 	byte	$63, $3e, $00, $00, $00, $00, $00, $00, $30, $38, $3c, $36, $33, $7f, $30, $30
0423b     30 78 00 00 
0423f     00 00 00 00 
04243     7F 03 03 03 
04247     3F 60 60 60 | 	byte	$30, $78, $00, $00, $00, $00, $00, $00, $7f, $03, $03, $03, $3f, $60, $60, $60
0424b     63 3E 00 00 
0424f     00 00 00 00 
04253     1C 06 03 03 
04257     3F 63 63 63 | 	byte	$63, $3e, $00, $00, $00, $00, $00, $00, $1c, $06, $03, $03, $3f, $63, $63, $63
0425b     63 3E 00 00 
0425f     00 00 00 00 
04263     7F 63 60 60 
04267     30 18 0C 0C | 	byte	$63, $3e, $00, $00, $00, $00, $00, $00, $7f, $63, $60, $60, $30, $18, $0c, $0c
0426b     0C 0C 00 00 
0426f     00 00 00 00 
04273     3E 63 63 63 
04277     3E 63 63 63 | 	byte	$0c, $0c, $00, $00, $00, $00, $00, $00, $3e, $63, $63, $63, $3e, $63, $63, $63
0427b     63 3E 00 00 
0427f     00 00 00 00 
04283     3E 63 63 63 
04287     7E 60 60 60 | 	byte	$63, $3e, $00, $00, $00, $00, $00, $00, $3e, $63, $63, $63, $7e, $60, $60, $60
0428b     30 1E 00 00 
0428f     00 00 00 00 
04293     00 00 00 18 
04297     18 00 00 00 | 	byte	$30, $1e, $00, $00, $00, $00, $00, $00, $00, $00, $00, $18, $18, $00, $00, $00
0429b     18 18 00 00 
0429f     00 00 00 00 
042a3     00 00 00 18 
042a7     18 00 00 00 | 	byte	$18, $18, $00, $00, $00, $00, $00, $00, $00, $00, $00, $18, $18, $00, $00, $00
042ab     18 18 0C 00 
042af     00 00 00 00 
042b3     00 60 30 18 
042b7     0C 06 0C 18 | 	byte	$18, $18, $0c, $00, $00, $00, $00, $00, $00, $60, $30, $18, $0c, $06, $0c, $18
042bb     30 60 00 00 
042bf     00 00 00 00 
042c3     00 00 00 7E 
042c7     00 00 7E 00 | 	byte	$30, $60, $00, $00, $00, $00, $00, $00, $00, $00, $00, $7e, $00, $00, $7e, $00
042cb     00 00 00 00 
042cf     00 00 00 00 
042d3     00          | 	byte	$00[9]
042d4     06 0C 18 30 
042d8     60 30 18 0C 
042dc     06 00 00 00 
042e0     00 00 00 3E | 	byte	$06, $0c, $18, $30, $60, $30, $18, $0c, $06, $00, $00, $00, $00, $00, $00, $3e
042e4     63 63 30 18 
042e8     18 18 00 18 
042ec     18 00 00 00 
042f0     00 00 00 00 | 	byte	$63, $63, $30, $18, $18, $18, $00, $18, $18, $00, $00, $00, $00, $00, $00, $00
042f4     3E 63 63 7B 
042f8     7B 7B 3B 03 
042fc     3E 00 00 00 
04300     00 00 00 08 | 	byte	$3e, $63, $63, $7b, $7b, $7b, $3b, $03, $3e, $00, $00, $00, $00, $00, $00, $08
04304     1C 36 63 63 
04308     7F 63 63 63 
0430c     63 00 00 00 
04310     00 00 00 3F | 	byte	$1c, $36, $63, $63, $7f, $63, $63, $63, $63, $00, $00, $00, $00, $00, $00, $3f
04314     66 66 66 3E 
04318     66 66 66 66 
0431c     3F 00 00 00 
04320     00 00 00 3C | 	byte	$66, $66, $66, $3e, $66, $66, $66, $66, $3f, $00, $00, $00, $00, $00, $00, $3c
04324     66 43 03 03 
04328     03 03 43 66 
0432c     3C 00 00 00 
04330     00 00 00 1F | 	byte	$66, $43, $03, $03, $03, $03, $43, $66, $3c, $00, $00, $00, $00, $00, $00, $1f
04334     36 66 66 66 
04338     66 66 66 36 
0433c     1F 00 00 00 
04340     00 00 00 7F | 	byte	$36, $66, $66, $66, $66, $66, $66, $36, $1f, $00, $00, $00, $00, $00, $00, $7f
04344     66 46 16 1E 
04348     16 06 46 66 
0434c     7F 00 00 00 
04350     00 00 00 7F | 	byte	$66, $46, $16, $1e, $16, $06, $46, $66, $7f, $00, $00, $00, $00, $00, $00, $7f
04354     66 46 16 1E 
04358     16 06 06 06 
0435c     0F 00 00 00 
04360     00 00 00 3C | 	byte	$66, $46, $16, $1e, $16, $06, $06, $06, $0f, $00, $00, $00, $00, $00, $00, $3c
04364     66 43 03 03 
04368     7B 63 63 66 
0436c     5C 00 00 00 
04370     00 00 00 63 | 	byte	$66, $43, $03, $03, $7b, $63, $63, $66, $5c, $00, $00, $00, $00, $00, $00, $63
04374     63 63 63 7F 
04378     63 63 63 63 
0437c     63 00 00 00 
04380     00 00 00 3C | 	byte	$63, $63, $63, $7f, $63, $63, $63, $63, $63, $00, $00, $00, $00, $00, $00, $3c
04384     18 18 18 18 
04388     18 18 18 18 | 	byte	$18[8]
0438c     3C 00 00 00 
04390     00 00 00 78 
04394     30 30 30 30 
04398     30 33 33 33 | 	byte	$3c, $00, $00, $00, $00, $00, $00, $78, $30, $30, $30, $30, $30, $33, $33, $33
0439c     1E 00 00 00 
043a0     00 00 00 67 
043a4     66 66 36 1E 
043a8     1E 36 66 66 | 	byte	$1e, $00, $00, $00, $00, $00, $00, $67, $66, $66, $36, $1e, $1e, $36, $66, $66
043ac     67 00 00 00 
043b0     00 00 00 0F 
043b4     06 06 06 06 
043b8     06 06 46 66 | 	byte	$67, $00, $00, $00, $00, $00, $00, $0f, $06, $06, $06, $06, $06, $06, $46, $66
043bc     7F 00 00 00 
043c0     00 00 00 63 
043c4     77 7F 7F 6B 
043c8     63 63 63 63 | 	byte	$7f, $00, $00, $00, $00, $00, $00, $63, $77, $7f, $7f, $6b, $63, $63, $63, $63
043cc     63 00 00 00 
043d0     00 00 00 63 
043d4     67 6F 7F 7B 
043d8     73 63 63 63 | 	byte	$63, $00, $00, $00, $00, $00, $00, $63, $67, $6f, $7f, $7b, $73, $63, $63, $63
043dc     63 00 00 00 
043e0     00 00 00 3E 
043e4     63 63 63 63 
043e8     63 63 63 63 | 	byte	$63, $00, $00, $00, $00, $00, $00, $3e, $63, $63, $63, $63, $63, $63, $63, $63
043ec     3E 00 00 00 
043f0     00 00 00 3F 
043f4     66 66 66 3E 
043f8     06 06 06 06 | 	byte	$3e, $00, $00, $00, $00, $00, $00, $3f, $66, $66, $66, $3e, $06, $06, $06, $06
043fc     0F 00 00 00 
04400     00 00 00 3E 
04404     63 63 63 63 
04408     63 63 6B 7B | 	byte	$0f, $00, $00, $00, $00, $00, $00, $3e, $63, $63, $63, $63, $63, $63, $6b, $7b
0440c     3E 30 70 00 
04410     00 00 00 3F 
04414     66 66 66 3E 
04418     36 66 66 66 | 	byte	$3e, $30, $70, $00, $00, $00, $00, $3f, $66, $66, $66, $3e, $36, $66, $66, $66
0441c     67 00 00 00 
04420     00 00 00 3E 
04424     63 63 06 1C 
04428     30 60 63 63 | 	byte	$67, $00, $00, $00, $00, $00, $00, $3e, $63, $63, $06, $1c, $30, $60, $63, $63
0442c     3E 00 00 00 
04430     00 00 00 7E 
04434     7E 5A 18 18 
04438     18 18 18 18 | 	byte	$3e, $00, $00, $00, $00, $00, $00, $7e, $7e, $5a, $18, $18, $18, $18, $18, $18
0443c     3C 00 00 00 
04440     00 00 00 63 
04444     63 63 63 63 
04448     63 63 63 63 | 	byte	$3c, $00, $00, $00, $00, $00, $00, $63, $63, $63, $63, $63, $63, $63, $63, $63
0444c     3E 00 00 00 
04450     00 00 00 63 
04454     63 63 63 63 
04458     63 63 36 1C | 	byte	$3e, $00, $00, $00, $00, $00, $00, $63, $63, $63, $63, $63, $63, $63, $36, $1c
0445c     08 00 00 00 
04460     00 00 00 63 
04464     63 63 63 6B 
04468     6B 6B 7F 77 | 	byte	$08, $00, $00, $00, $00, $00, $00, $63, $63, $63, $63, $6b, $6b, $6b, $7f, $77
0446c     36 00 00 00 
04470     00 00 00 63 
04474     63 36 3E 1C 
04478     1C 3E 36 63 | 	byte	$36, $00, $00, $00, $00, $00, $00, $63, $63, $36, $3e, $1c, $1c, $3e, $36, $63
0447c     63 00 00 00 
04480     00 00 00 66 
04484     66 66 66 3C 
04488     18 18 18 18 | 	byte	$63, $00, $00, $00, $00, $00, $00, $66, $66, $66, $66, $3c, $18, $18, $18, $18
0448c     3C 00 00 00 
04490     00 00 00 7F 
04494     63 61 30 18 
04498     0C 06 43 63 | 	byte	$3c, $00, $00, $00, $00, $00, $00, $7f, $63, $61, $30, $18, $0c, $06, $43, $63
0449c     7F 00 00 00 
044a0     00 00 00 3C 
044a4     0C 0C 0C 0C 
044a8     0C 0C 0C 0C | 	byte	$7f, $00, $00, $00, $00, $00, $00, $3c, $0c, $0c, $0c, $0c, $0c, $0c, $0c, $0c
044ac     3C 00 00 00 
044b0     00 00 00 00 
044b4     01 03 07 0E 
044b8     1C 38 70 60 | 	byte	$3c, $00, $00, $00, $00, $00, $00, $00, $01, $03, $07, $0e, $1c, $38, $70, $60
044bc     40 00 00 00 
044c0     00 00 00 3C 
044c4     30 30 30 30 
044c8     30 30 30 30 | 	byte	$40, $00, $00, $00, $00, $00, $00, $3c, $30, $30, $30, $30, $30, $30, $30, $30
044cc     3C 00 00 00 
044d0     1C 36 00 00 
044d4     00 00 00 00 
044d8     00 00 00 00 | 	byte	$3c, $00, $00, $00, $1c, $36, $00, $00, $00, $00, $00, $00, $00, $00, $00, $00
044dc     00 00 00 00 
044e0     00 00 00 00 
044e4     00 00 00 00 
044e8     00 00 00 00 
044ec     00          | 	byte	$00[17]
044ed     FF 00 00 0C 
044f1     18 00 00 00 
044f5     00 00 00 00 
044f9     00 00 00 00 | 	byte	$ff, $00, $00, $0c, $18, $00, $00, $00, $00, $00, $00, $00, $00, $00, $00, $00
044fd     00 00 00 00 
04501     00 00 00 00 
04505     00          | 	byte	$00[9]
04506     1E 30 3E 33 
0450a     33 33 6E 00 
0450e     00 00 00 00 
04512     00 07 06 06 | 	byte	$1e, $30, $3e, $33, $33, $33, $6e, $00, $00, $00, $00, $00, $00, $07, $06, $06
04516     1E 36 66 66 
0451a     66 66 3E 00 
0451e     00 00 00 00 
04522     00 00 00 00 | 	byte	$1e, $36, $66, $66, $66, $66, $3e, $00, $00, $00, $00, $00, $00, $00, $00, $00
04526     3E 63 03 03 
0452a     03 63 3E 00 
0452e     00 00 00 00 
04532     00 38 30 30 | 	byte	$3e, $63, $03, $03, $03, $63, $3e, $00, $00, $00, $00, $00, $00, $38, $30, $30
04536     3C 36 33 33 
0453a     33 33 6E 00 
0453e     00 00 00 00 
04542     00 00 00 00 | 	byte	$3c, $36, $33, $33, $33, $33, $6e, $00, $00, $00, $00, $00, $00, $00, $00, $00
04546     3E 63 7F 03 
0454a     03 63 3E 00 
0454e     00 00 00 00 
04552     00 38 6C 4C | 	byte	$3e, $63, $7f, $03, $03, $63, $3e, $00, $00, $00, $00, $00, $00, $38, $6c, $4c
04556     0C 1E 0C 0C 
0455a     0C 0C 1E 00 
0455e     00 00 00 00 
04562     00 00 00 00 | 	byte	$0c, $1e, $0c, $0c, $0c, $0c, $1e, $00, $00, $00, $00, $00, $00, $00, $00, $00
04566     6E 33 33 33 
0456a     33 33 3E 30 
0456e     33 1E 00 00 
04572     00 07 06 06 | 	byte	$6e, $33, $33, $33, $33, $33, $3e, $30, $33, $1e, $00, $00, $00, $07, $06, $06
04576     36 6E 66 66 
0457a     66 66 67 00 
0457e     00 00 00 00 
04582     00 18 18 00 | 	byte	$36, $6e, $66, $66, $66, $66, $67, $00, $00, $00, $00, $00, $00, $18, $18, $00
04586     1C 18 18 18 
0458a     18 18 3C 00 
0458e     00 00 00 00 
04592     00 60 60 00 | 	byte	$1c, $18, $18, $18, $18, $18, $3c, $00, $00, $00, $00, $00, $00, $60, $60, $00
04596     70 60 60 60 
0459a     60 60 60 66 
0459e     66 3C 00 00 
045a2     00 07 06 06 | 	byte	$70, $60, $60, $60, $60, $60, $60, $66, $66, $3c, $00, $00, $00, $07, $06, $06
045a6     66 36 1E 1E 
045aa     36 66 67 00 
045ae     00 00 00 00 
045b2     00 1C 18 18 | 	byte	$66, $36, $1e, $1e, $36, $66, $67, $00, $00, $00, $00, $00, $00, $1c, $18, $18
045b6     18 18 18 18 
045ba     18 18       | 	byte	$18[6]
045bc     3C 00 00 00 
045c0     00 00 00 00 
045c4     00 00 37 7F 
045c8     6B 6B 6B 6B | 	byte	$3c, $00, $00, $00, $00, $00, $00, $00, $00, $00, $37, $7f, $6b, $6b, $6b, $6b
045cc     63 00 00 00 
045d0     00 00 00 00 
045d4     00 00 3B 66 
045d8     66 66 66 66 | 	byte	$63, $00, $00, $00, $00, $00, $00, $00, $00, $00, $3b, $66, $66, $66, $66, $66
045dc     66 00 00 00 
045e0     00 00 00 00 
045e4     00 00 3E 63 
045e8     63 63 63 63 | 	byte	$66, $00, $00, $00, $00, $00, $00, $00, $00, $00, $3e, $63, $63, $63, $63, $63
045ec     3E 00 00 00 
045f0     00 00 00 00 
045f4     00 00 3B 66 
045f8     66 66 66 66 | 	byte	$3e, $00, $00, $00, $00, $00, $00, $00, $00, $00, $3b, $66, $66, $66, $66, $66
045fc     3E 06 06 0F 
04600     00 00 00 00 
04604     00 00 6E 33 
04608     33 33 33 33 | 	byte	$3e, $06, $06, $0f, $00, $00, $00, $00, $00, $00, $6e, $33, $33, $33, $33, $33
0460c     3E 30 30 78 
04610     00 00 00 00 
04614     00 00 3B 6E 
04618     66 06 06 06 | 	byte	$3e, $30, $30, $78, $00, $00, $00, $00, $00, $00, $3b, $6e, $66, $06, $06, $06
0461c     0F 00 00 00 
04620     00 00 00 00 
04624     00 00 3E 63 
04628     06 1C 30 63 | 	byte	$0f, $00, $00, $00, $00, $00, $00, $00, $00, $00, $3e, $63, $06, $1c, $30, $63
0462c     3E 00 00 00 
04630     00 00 00 08 
04634     0C 0C 3F 0C 
04638     0C 0C 0C 6C | 	byte	$3e, $00, $00, $00, $00, $00, $00, $08, $0c, $0c, $3f, $0c, $0c, $0c, $0c, $6c
0463c     38 00 00 00 
04640     00 00 00 00 
04644     00 00 33 33 
04648     33 33 33 33 | 	byte	$38, $00, $00, $00, $00, $00, $00, $00, $00, $00, $33, $33, $33, $33, $33, $33
0464c     6E 00 00 00 
04650     00 00 00 00 
04654     00 00 63 63 
04658     63 63 63 36 | 	byte	$6e, $00, $00, $00, $00, $00, $00, $00, $00, $00, $63, $63, $63, $63, $63, $36
0465c     1C 00 00 00 
04660     00 00 00 00 
04664     00 00 63 63 
04668     6B 6B 6B 7F | 	byte	$1c, $00, $00, $00, $00, $00, $00, $00, $00, $00, $63, $63, $6b, $6b, $6b, $7f
0466c     36 00 00 00 
04670     00 00 00 00 
04674     00 00 63 36 
04678     1C 1C 1C 36 | 	byte	$36, $00, $00, $00, $00, $00, $00, $00, $00, $00, $63, $36, $1c, $1c, $1c, $36
0467c     63 00 00 00 
04680     00 00 00 00 
04684     00 00 63 63 
04688     63 63 63 63 | 	byte	$63, $00, $00, $00, $00, $00, $00, $00, $00, $00, $63, $63, $63, $63, $63, $63
0468c     7E 60 30 1F 
04690     00 00 00 00 
04694     00 00 7F 33 
04698     18 0C 06 63 | 	byte	$7e, $60, $30, $1f, $00, $00, $00, $00, $00, $00, $7f, $33, $18, $0c, $06, $63
0469c     7F 00 00 00 
046a0     00 00 00 70 
046a4     18 18 18 0E 
046a8     18 18 18 18 | 	byte	$7f, $00, $00, $00, $00, $00, $00, $70, $18, $18, $18, $0e, $18, $18, $18, $18
046ac     70 00 00 00 
046b0     00 00 00 18 
046b4     18 18 18 18 
046b8     18 18 18 18 | 	byte	$70, $00, $00, $00, $00, $00, $00, $18, $18, $18, $18, $18, $18, $18, $18, $18
046bc     18 00 00 00 
046c0     00 00 00 0E 
046c4     18 18 18 70 
046c8     18 18 18 18 | 	byte	$18, $00, $00, $00, $00, $00, $00, $0e, $18, $18, $18, $70, $18, $18, $18, $18
046cc     0E 00 00 00 
046d0     6E 3B 00 00 
046d4     00 00 00 00 
046d8     00 00 00 00 | 	byte	$0e, $00, $00, $00, $6e, $3b, $00, $00, $00, $00, $00, $00, $00, $00, $00, $00
046dc     00 00 00 00 
046e0     00 00 00 00 
046e4     00 00       | 	byte	$00[10]
046e6     08 1C 36 63 
046ea     63 63 7F 00 
046ee     00 00 00 00 
046f2     00 3C 66 43 | 	byte	$08, $1c, $36, $63, $63, $63, $7f, $00, $00, $00, $00, $00, $00, $3c, $66, $43
046f6     03 03 03 03 
046fa     43 66 3C 18 
046fe     30 1E 00 00 
04702     00 00 33 00 | 	byte	$03, $03, $03, $03, $43, $66, $3c, $18, $30, $1e, $00, $00, $00, $00, $33, $00
04706     33 33 33 33 
0470a     33 33       | 	byte	$33[6]
0470c     6E 00 00 00 
04710     00 00 60 30 
04714     18 00 3E 63 
04718     7F 03 03 63 | 	byte	$6e, $00, $00, $00, $00, $00, $60, $30, $18, $00, $3e, $63, $7f, $03, $03, $63
0471c     3E 00 00 00 
04720     00 00 08 1C 
04724     36 00 1E 30 
04728     3E 33 33 33 | 	byte	$3e, $00, $00, $00, $00, $00, $08, $1c, $36, $00, $1e, $30, $3e, $33, $33, $33
0472c     6E 00 00 00 
04730     00 00 00 00 
04734     33 00 1E 30 
04738     3E 33 33 33 | 	byte	$6e, $00, $00, $00, $00, $00, $00, $00, $33, $00, $1e, $30, $3e, $33, $33, $33
0473c     6E 00 00 00 
04740     00 00 1C 36 
04744     1C 00 33 33 
04748     33 33 33 33 | 	byte	$6e, $00, $00, $00, $00, $00, $1c, $36, $1c, $00, $33, $33, $33, $33, $33, $33
0474c     6E 00 00 00 
04750     00 00 60 30 
04754     18 00 3E 63 
04758     03 03 03 63 | 	byte	$6e, $00, $00, $00, $00, $00, $60, $30, $18, $00, $3e, $63, $03, $03, $03, $63
0475c     3E 00 00 00 
04760     00 00 00 00 
04764     00 00 3E 63 
04768     03 03 03 63 | 	byte	$3e, $00, $00, $00, $00, $00, $00, $00, $00, $00, $3e, $63, $03, $03, $03, $63
0476c     3E 18 30 1E 
04770     00 00 00 1C 
04774     58 78 38 18 
04778     1C 1E 1A 18 | 	byte	$3e, $18, $30, $1e, $00, $00, $00, $1c, $58, $78, $38, $18, $1c, $1e, $1a, $18
0477c     3C 00 00 00 
04780     00 00 00 00 
04784     63 00 3E 63 
04788     7F 03 03 63 | 	byte	$3c, $00, $00, $00, $00, $00, $00, $00, $63, $00, $3e, $63, $7f, $03, $03, $63
0478c     3E 00 00 00 
04790     66 33 00 3E 
04794     63 63 63 63 
04798     63 63 63 63 | 	byte	$3e, $00, $00, $00, $66, $33, $00, $3e, $63, $63, $63, $63, $63, $63, $63, $63
0479c     3E 00 00 00 
047a0     00 00 CC 66 
047a4     33 00 3E 63 
047a8     63 63 63 63 | 	byte	$3e, $00, $00, $00, $00, $00, $cc, $66, $33, $00, $3e, $63, $63, $63, $63, $63
047ac     3E 00 00 00 
047b0     00 00 18 3C 
047b4     66 00 1C 18 
047b8     18 18 18 18 | 	byte	$3e, $00, $00, $00, $00, $00, $18, $3c, $66, $00, $1c, $18, $18, $18, $18, $18
047bc     3C 00 00 00 
047c0     30 18 00 7F 
047c4     63 61 30 18 
047c8     0C 06 43 63 | 	byte	$3c, $00, $00, $00, $30, $18, $00, $7f, $63, $61, $30, $18, $0c, $06, $43, $63
047cc     7F 00 00 00 
047d0     00 63 00 08 
047d4     1C 36 63 63 
047d8     7F 63 63 63 | 	byte	$7f, $00, $00, $00, $00, $63, $00, $08, $1c, $36, $63, $63, $7f, $63, $63, $63
047dc     63 00 00 00 
047e0     30 18 00 3C 
047e4     66 43 03 03 
047e8     03 03 43 66 | 	byte	$63, $00, $00, $00, $30, $18, $00, $3c, $66, $43, $03, $03, $03, $03, $43, $66
047ec     3C 00 00 00 
047f0     30 18 00 7F 
047f4     66 46 16 1E 
047f8     16 06 46 66 | 	byte	$3c, $00, $00, $00, $30, $18, $00, $7f, $66, $46, $16, $1e, $16, $06, $46, $66
047fc     7F 00 00 00 
04800     0C 06 00 0F 
04804     06 06 06 06 
04808     06 06 46 66 | 	byte	$7f, $00, $00, $00, $0c, $06, $00, $0f, $06, $06, $06, $06, $06, $06, $46, $66
0480c     7F 00 00 00 
04810     30 18 00 1C 
04814     18 18 18 18 
04818     18 18 18 18 | 	byte	$7f, $00, $00, $00, $30, $18, $00, $1c, $18, $18, $18, $18, $18, $18, $18, $18
0481c     3C 00 00 00 
04820     00 00 08 1C 
04824     36 00 3E 63 
04828     63 63 63 63 | 	byte	$3c, $00, $00, $00, $00, $00, $08, $1c, $36, $00, $3e, $63, $63, $63, $63, $63
0482c     3E 00 00 00 
04830     00 00 00 00 
04834     63 00 3E 63 
04838     63 63 63 63 | 	byte	$3e, $00, $00, $00, $00, $00, $00, $00, $63, $00, $3e, $63, $63, $63, $63, $63
0483c     3E 00 00 00 
04840     00 00 00 6F 
04844     46 26 06 06 
04848     06 06 46 66 | 	byte	$3e, $00, $00, $00, $00, $00, $00, $6f, $46, $26, $06, $06, $06, $06, $46, $66
0484c     7F 00 00 00 
04850     00 00 00 6E 
04854     4C 2C 0C 0C 
04858     0C 0C 0C 0C | 	byte	$7f, $00, $00, $00, $00, $00, $00, $6e, $4c, $2c, $0c, $0c, $0c, $0c, $0c, $0c
0485c     1E 00 00 00 
04860     30 18 00 3E 
04864     63 63 06 1C 
04868     30 60 63 63 | 	byte	$1e, $00, $00, $00, $30, $18, $00, $3e, $63, $63, $06, $1c, $30, $60, $63, $63
0486c     3E 00 00 00 
04870     00 00 60 30 
04874     18 00 3E 63 
04878     06 1C 30 63 | 	byte	$3e, $00, $00, $00, $00, $00, $60, $30, $18, $00, $3e, $63, $06, $1c, $30, $63
0487c     3E 00 00 00 
04880     00 63 00 3E 
04884     63 63 63 63 
04888     63 63 63 63 | 	byte	$3e, $00, $00, $00, $00, $63, $00, $3e, $63, $63, $63, $63, $63, $63, $63, $63
0488c     3E 00 00 00 
04890     00 63 00 63 
04894     63 63 63 63 
04898     63 63 63 63 | 	byte	$3e, $00, $00, $00, $00, $63, $00, $63, $63, $63, $63, $63, $63, $63, $63, $63
0489c     3E 00 00 00 
048a0     6C 38 00 7E 
048a4     7E 5A 18 18 
048a8     18 18 18 18 | 	byte	$3e, $00, $00, $00, $6c, $38, $00, $7e, $7e, $5a, $18, $18, $18, $18, $18, $18
048ac     3C 00 00 00 
048b0     00 00 60 48 
048b4     2C 0C 3F 0C 
048b8     0C 0C 0C 6C | 	byte	$3c, $00, $00, $00, $00, $00, $60, $48, $2c, $0c, $3f, $0c, $0c, $0c, $0c, $6c
048bc     38 00 00 00 
048c0     00 00 00 0F 
048c4     26 36 1E 0E 
048c8     07 07 46 66 | 	byte	$38, $00, $00, $00, $00, $00, $00, $0f, $26, $36, $1e, $0e, $07, $07, $46, $66
048cc     7F 00 00 00 
048d0     00 00 00 00 
048d4     00 63 36 1C 
048d8     1C 36 63 00 | 	byte	$7f, $00, $00, $00, $00, $00, $00, $00, $00, $63, $36, $1c, $1c, $36, $63, $00
048dc     00 00 00 00 
048e0     00 00       | 	byte	$00[6]
048e2     36 1C 08 00 
048e6     3E 63 03 03 
048ea     03 63 3E 00 
048ee     00 00 00 00 | 	byte	$36, $1c, $08, $00, $3e, $63, $03, $03, $03, $63, $3e, $00, $00, $00, $00, $00
048f2     30 18 0C 00 
048f6     1E 30 3E 33 
048fa     33 33 6E 00 
048fe     00 00 00 00 | 	byte	$30, $18, $0c, $00, $1e, $30, $3e, $33, $33, $33, $6e, $00, $00, $00, $00, $00
04902     60 30 18 00 
04906     1C 18 18 18 
0490a     18 18 3C 00 
0490e     00 00 00 00 | 	byte	$60, $30, $18, $00, $1c, $18, $18, $18, $18, $18, $3c, $00, $00, $00, $00, $00
04912     60 30 18 00 
04916     3E 63 63 63 
0491a     63 63 3E 00 
0491e     00 00 00 00 | 	byte	$60, $30, $18, $00, $3e, $63, $63, $63, $63, $63, $3e, $00, $00, $00, $00, $00
04922     30 18 0C 00 
04926     33 33 33 33 
0492a     33 33 6E 00 
0492e     00 00 00 00 | 	byte	$30, $18, $0c, $00, $33, $33, $33, $33, $33, $33, $6e, $00, $00, $00, $00, $00
04932     00 08 1C 36 
04936     63 63 7F 63 
0493a     63 63 63 18 
0493e     0C 78 00 00 | 	byte	$00, $08, $1c, $36, $63, $63, $7f, $63, $63, $63, $63, $18, $0c, $78, $00, $00
04942     00 00 00 00 
04946     1E 30 3E 33 
0494a     33 33 6E 18 
0494e     0C 78 36 1C | 	byte	$00, $00, $00, $00, $1e, $30, $3e, $33, $33, $33, $6e, $18, $0c, $78, $36, $1c
04952     00 7F 63 61 
04956     30 18 0C 06 
0495a     43 63 7F 00 
0495e     00 00 00 00 | 	byte	$00, $7f, $63, $61, $30, $18, $0c, $06, $43, $63, $7f, $00, $00, $00, $00, $00
04962     36 1C 08 00 
04966     7F 33 18 0C 
0496a     06 63 7F 00 
0496e     00 00 00 00 | 	byte	$36, $1c, $08, $00, $7f, $33, $18, $0c, $06, $63, $7f, $00, $00, $00, $00, $00
04972     00 7F 66 46 
04976     16 1E 16 06 
0497a     46 66 7F 18 
0497e     0C 78 00 00 | 	byte	$00, $7f, $66, $46, $16, $1e, $16, $06, $46, $66, $7f, $18, $0c, $78, $00, $00
04982     00 00 00 00 
04986     3E 63 7F 03 
0498a     03 63 3E 18 
0498e     0C 78 00 00 | 	byte	$00, $00, $00, $00, $3e, $63, $7f, $03, $03, $63, $3e, $18, $0c, $78, $00, $00
04992     00 3C 66 03 
04996     1F 03 0F 03 
0499a     03 66 3C 00 
0499e     00 00 00 00 | 	byte	$00, $3c, $66, $03, $1f, $03, $0f, $03, $03, $66, $3c, $00, $00, $00, $00, $00
049a2     60 30 18 00 
049a6     7F 33 18 0C 
049aa     06 63 7F 00 
049ae     00 00 6C 38 | 	byte	$60, $30, $18, $00, $7f, $33, $18, $0c, $06, $63, $7f, $00, $00, $00, $6c, $38
049b2     00 3C 66 43 
049b6     03 03 03 03 
049ba     43 66 3C 00 
049be     00 00 00 00 | 	byte	$00, $3c, $66, $43, $03, $03, $03, $03, $43, $66, $3c, $00, $00, $00, $00, $00
049c2     00 00 00 00 
049c6     3E 63 06 1C 
049ca     30 63 3E 18 
049ce     30 1E 00 00 | 	byte	$00, $00, $00, $00, $3e, $63, $06, $1c, $30, $63, $3e, $18, $30, $1e, $00, $00
049d2     00 00 00 00 
049d6     00 00       | 	byte	$00[6]
049d8     6C 36 1B 36 
049dc     6C 00 00 00 
049e0     00 00 00 00 
049e4     00 00 00 00 | 	byte	$6c, $36, $1b, $36, $6c, $00, $00, $00, $00, $00, $00, $00, $00, $00, $00, $00
049e8     1B 36 6C 36 
049ec     1B 00 00 00 
049f0     88 22 88 22 
049f4     88 22 88 22 | 	byte	$1b, $36, $6c, $36, $1b, $00, $00, $00, $88, $22, $88, $22, $88, $22, $88, $22
049f8     88 22 88 22 
049fc     88 22 88 22 
04a00     AA 55 AA 55 
04a04     AA 55 AA 55 | 	byte	$88, $22, $88, $22, $88, $22, $88, $22, $aa, $55, $aa, $55, $aa, $55, $aa, $55
04a08     AA 55 AA 55 
04a0c     AA 55 AA 55 
04a10     BB EE BB EE 
04a14     BB EE BB EE | 	byte	$aa, $55, $aa, $55, $aa, $55, $aa, $55, $bb, $ee, $bb, $ee, $bb, $ee, $bb, $ee
04a18     BB EE BB EE 
04a1c     BB EE BB EE 
04a20     18 18 18 18 
04a24     18 18 18 18 | 	byte	$bb, $ee, $bb, $ee, $bb, $ee, $bb, $ee, $18, $18, $18, $18, $18, $18, $18, $18
04a28     18 18 18 18 
04a2c     18 18 18 18 
04a30     18 18 18 18 
04a34     18 18 18    | 	byte	$18[15]
04a37     1F 18 18 18 
04a3b     18 18 18 18 
04a3f     18 30 18 00 
04a43     08 1C 36 63 | 	byte	$1f, $18, $18, $18, $18, $18, $18, $18, $18, $30, $18, $00, $08, $1c, $36, $63
04a47     63 7F 63 63 
04a4b     63 63 00 00 
04a4f     00 1C 36 00 
04a53     08 1C 36 63 | 	byte	$63, $7f, $63, $63, $63, $63, $00, $00, $00, $1c, $36, $00, $08, $1c, $36, $63
04a57     63 7F 63 63 
04a5b     63 63 00 00 
04a5f     00 36 1C 00 
04a63     7F 66 46 16 | 	byte	$63, $7f, $63, $63, $63, $63, $00, $00, $00, $36, $1c, $00, $7f, $66, $46, $16
04a67     1E 16 06 46 
04a6b     66 7F 00 00 
04a6f     00 00 00 00 
04a73     3E 63 63 06 | 	byte	$1e, $16, $06, $46, $66, $7f, $00, $00, $00, $00, $00, $00, $3e, $63, $63, $06
04a77     1C 30 60 63 
04a7b     63 3E 18 30 
04a7f     1E 6C 6C 6C 
04a83     6C 6C 6F 60 | 	byte	$1c, $30, $60, $63, $63, $3e, $18, $30, $1e, $6c, $6c, $6c, $6c, $6c, $6f, $60
04a87     6F 6C 6C 6C 
04a8b     6C 6C 6C 6C 
04a8f     6C 6C 6C 6C 
04a93     6C 6C 6C 6C | 	byte	$6f, $6c, $6c, $6c, $6c, $6c, $6c, $6c, $6c, $6c, $6c, $6c, $6c, $6c, $6c, $6c
04a97     6C 6C 6C 6C 
04a9b     6C 6C 6C 6C 
04a9f     6C          | 	byte	$6c[9]
04aa0     00 00 00 00 
04aa4     00          | 	byte	$00[5]
04aa5     7F 60 6F 6C 
04aa9     6C 6C 6C 6C 
04aad     6C 6C 6C 6C 
04ab1     6C 6C 6C 6C | 	byte	$7f, $60, $6f, $6c, $6c, $6c, $6c, $6c, $6c, $6c, $6c, $6c, $6c, $6c, $6c, $6c
04ab5     6F 60 7F 00 
04ab9     00 00 00 00 
04abd     00 00 00 18 
04ac1     18 00 7F 63 | 	byte	$6f, $60, $7f, $00, $00, $00, $00, $00, $00, $00, $00, $18, $18, $00, $7f, $63
04ac5     61 30 18 0C 
04ac9     06 43 63 7F 
04acd     00 00 00 00 
04ad1     00 00 18 18 | 	byte	$61, $30, $18, $0c, $06, $43, $63, $7f, $00, $00, $00, $00, $00, $00, $18, $18
04ad5     00 7F 33 18 
04ad9     0C 06 63 7F 
04add     00 00 00 00 
04ae1     00 00 00 00 | 	byte	$00, $7f, $33, $18, $0c, $06, $63, $7f, $00, $00, $00, $00, $00, $00, $00, $00
04ae5     00 00 1F 18 
04ae9     18 18 18 18 
04aed     18 18 18 18 
04af1     18 18 18 18 | 	byte	$00, $00, $1f, $18, $18, $18, $18, $18, $18, $18, $18, $18, $18, $18, $18, $18
04af5     18 18 F8 00 
04af9     00 00 00 00 
04afd     00 00 00 18 
04b01     18 18 18 18 | 	byte	$18, $18, $f8, $00, $00, $00, $00, $00, $00, $00, $00, $18, $18, $18, $18, $18
04b05     18 18 FF 00 
04b09     00 00 00 00 
04b0d     00 00 00 00 
04b11     00 00 00 00 | 	byte	$18, $18, $ff, $00, $00, $00, $00, $00, $00, $00, $00, $00, $00, $00, $00, $00
04b15     00 00 FF 18 
04b19     18 18 18 18 
04b1d     18 18 18 18 
04b21     18 18 18 18 | 	byte	$00, $00, $ff, $18, $18, $18, $18, $18, $18, $18, $18, $18, $18, $18, $18, $18
04b25     18 18 F8 18 
04b29     18 18 18 18 
04b2d     18 18 18 00 
04b31     00 00 00 00 | 	byte	$18, $18, $f8, $18, $18, $18, $18, $18, $18, $18, $18, $00, $00, $00, $00, $00
04b35     00 00 FF 00 
04b39     00 00 00 00 
04b3d     00 00 00 18 
04b41     18 18 18 18 | 	byte	$00, $00, $ff, $00, $00, $00, $00, $00, $00, $00, $00, $18, $18, $18, $18, $18
04b45     18 18 FF 18 
04b49     18 18 18 18 
04b4d     18 18 18 63 
04b51     3E 00 08 1C | 	byte	$18, $18, $ff, $18, $18, $18, $18, $18, $18, $18, $18, $63, $3e, $00, $08, $1c
04b55     36 63 63 7F 
04b59     63 63 63 63 
04b5d     00 00 00 00 
04b61     00 00 63 3E | 	byte	$36, $63, $63, $7f, $63, $63, $63, $63, $00, $00, $00, $00, $00, $00, $63, $3e
04b65     00 1E 30 3E 
04b69     33 33 33 6E 
04b6d     00 00 00 6C 
04b71     6C 6C 6C 6C | 	byte	$00, $1e, $30, $3e, $33, $33, $33, $6e, $00, $00, $00, $6c, $6c, $6c, $6c, $6c
04b75     EC 0C FC 00 
04b79     00 00 00 00 
04b7d     00 00 00 00 
04b81     00 00 00 00 | 	byte	$ec, $0c, $fc, $00, $00, $00, $00, $00, $00, $00, $00, $00, $00, $00, $00, $00
04b85     FC 0C EC 6C 
04b89     6C 6C 6C 6C 
04b8d     6C 6C 6C 6C 
04b91     6C 6C 6C 6C | 	byte	$fc, $0c, $ec, $6c, $6c, $6c, $6c, $6c, $6c, $6c, $6c, $6c, $6c, $6c, $6c, $6c
04b95     EF 00 FF 00 
04b99     00 00 00 00 
04b9d     00 00 00 00 
04ba1     00 00 00 00 | 	byte	$ef, $00, $ff, $00, $00, $00, $00, $00, $00, $00, $00, $00, $00, $00, $00, $00
04ba5     FF 00 EF 6C 
04ba9     6C 6C 6C 6C 
04bad     6C 6C 6C 6C 
04bb1     6C 6C 6C 6C | 	byte	$ff, $00, $ef, $6c, $6c, $6c, $6c, $6c, $6c, $6c, $6c, $6c, $6c, $6c, $6c, $6c
04bb5     EC 0C EC 6C 
04bb9     6C 6C 6C 6C 
04bbd     6C 6C 6C 00 
04bc1     00 00 00 00 | 	byte	$ec, $0c, $ec, $6c, $6c, $6c, $6c, $6c, $6c, $6c, $6c, $00, $00, $00, $00, $00
04bc5     FF 00 FF 00 
04bc9     00 00 00 00 
04bcd     00 00 00 6C 
04bd1     6C 6C 6C 6C | 	byte	$ff, $00, $ff, $00, $00, $00, $00, $00, $00, $00, $00, $6c, $6c, $6c, $6c, $6c
04bd5     EF 00 EF 6C 
04bd9     6C 6C 6C 6C 
04bdd     6C 6C 6C 00 
04be1     00 00 00 00 | 	byte	$ef, $00, $ef, $6c, $6c, $6c, $6c, $6c, $6c, $6c, $6c, $00, $00, $00, $00, $00
04be5     63 3E 63 63 
04be9     63 63 3E 63 
04bed     00 00 00 00 
04bf1     00 00 30 7E | 	byte	$63, $3e, $63, $63, $63, $63, $3e, $63, $00, $00, $00, $00, $00, $00, $30, $7e
04bf5     30 3C 36 33 
04bf9     33 33 33 6E 
04bfd     00 00 00 00 
04c01     00 00 1F 36 | 	byte	$30, $3c, $36, $33, $33, $33, $33, $6e, $00, $00, $00, $00, $00, $00, $1f, $36
04c05     66 66 6F 66 
04c09     66 66 36 1F 
04c0d     00 00 00 36 
04c11     1C 00 1F 36 | 	byte	$66, $66, $6f, $66, $66, $66, $36, $1f, $00, $00, $00, $36, $1c, $00, $1f, $36
04c15     66 66 66 66 
04c19     66 66       | 	byte	$66[6]
04c1b     36 1F 00 00 
04c1f     00 00 63 00 
04c23     7F 66 46 16 
04c27     1E 16 06 46 | 	byte	$36, $1f, $00, $00, $00, $00, $63, $00, $7f, $66, $46, $16, $1e, $16, $06, $46
04c2b     66 7F 00 00 
04c2f     00 6C 38 00 
04c33     38 30 30 3C 
04c37     36 33 33 33 | 	byte	$66, $7f, $00, $00, $00, $6c, $38, $00, $38, $30, $30, $3c, $36, $33, $33, $33
04c3b     33 6E 00 00 
04c3f     00 36 1C 00 
04c43     63 67 6F 7F 
04c47     7B 73 63 63 | 	byte	$33, $6e, $00, $00, $00, $36, $1c, $00, $63, $67, $6f, $7f, $7b, $73, $63, $63
04c4b     63 63 00 00 
04c4f     00 30 18 00 
04c53     3C 18 18 18 
04c57     18 18 18 18 | 	byte	$63, $63, $00, $00, $00, $30, $18, $00, $3c, $18, $18, $18, $18, $18, $18, $18
04c5b     18 3C 00 00 
04c5f     00 3C 66 00 
04c63     3C 18 18 18 
04c67     18 18 18 18 | 	byte	$18, $3c, $00, $00, $00, $3c, $66, $00, $3c, $18, $18, $18, $18, $18, $18, $18
04c6b     18 3C 00 00 
04c6f     00 00 00 36 
04c73     1C 08 00 3E 
04c77     63 7F 03 03 | 	byte	$18, $3c, $00, $00, $00, $00, $00, $36, $1c, $08, $00, $3e, $63, $7f, $03, $03
04c7b     63 3E 00 00 
04c7f     00 18 18 18 
04c83     18 18 18 18 
04c87     1F 00 00 00 | 	byte	$63, $3e, $00, $00, $00, $18, $18, $18, $18, $18, $18, $18, $1f, $00, $00, $00
04c8b     00 00 00 00 
04c8f     00 00 00 00 
04c93     00 00 00 00 | 	byte	$00[12]
04c97     F8 18 18 18 
04c9b     18 18 18 18 
04c9f     18 FF FF FF 
04ca3     FF FF FF FF | 	byte	$f8, $18, $18, $18, $18, $18, $18, $18, $18, $ff, $ff, $ff, $ff, $ff, $ff, $ff
04ca7     FF FF FF FF 
04cab     FF FF FF FF 
04caf     FF          | 	byte	$ff[9]
04cb0     00 00 00 00 
04cb4     00 00 00    | 	byte	$00[7]
04cb7     FF FF FF FF 
04cbb     FF FF FF FF 
04cbf     FF          | 	byte	$ff[9]
04cc0     00 00 00 7E 
04cc4     7E 5A 18 18 
04cc8     18 18 18 18 
04ccc     3C 18 30 1E | 	byte	$00, $00, $00, $7e, $7e, $5a, $18, $18, $18, $18, $18, $18, $3c, $18, $30, $1e
04cd0     1C 36 1C 63 
04cd4     63 63 63 63 
04cd8     63 63 63 63 
04cdc     3E 00 00 00 | 	byte	$1c, $36, $1c, $63, $63, $63, $63, $63, $63, $63, $63, $63, $3e, $00, $00, $00
04ce0     FF FF FF FF 
04ce4     FF FF FF    | 	byte	$ff[7]
04ce7     00 00 00 00 
04ceb     00 00 00 00 
04cef     00          | 	byte	$00[9]
04cf0     30 18 00 3E 
04cf4     63 63 63 63 
04cf8     63 63 63 63 
04cfc     3E 00 00 00 | 	byte	$30, $18, $00, $3e, $63, $63, $63, $63, $63, $63, $63, $63, $3e, $00, $00, $00
04d00     00 00 00 1E 
04d04     33 33 33 1B 
04d08     33 63 63 63 
04d0c     33 00 00 00 | 	byte	$00, $00, $00, $1e, $33, $33, $33, $1b, $33, $63, $63, $63, $33, $00, $00, $00
04d10     1C 36 00 3E 
04d14     63 63 63 63 
04d18     63 63 63 63 
04d1c     3E 00 00 00 | 	byte	$1c, $36, $00, $3e, $63, $63, $63, $63, $63, $63, $63, $63, $3e, $00, $00, $00
04d20     30 18 00 63 
04d24     67 6F 7F 7B 
04d28     73 63 63 63 
04d2c     63 00 00 00 | 	byte	$30, $18, $00, $63, $67, $6f, $7f, $7b, $73, $63, $63, $63, $63, $00, $00, $00
04d30     00 00 60 30 
04d34     18 00 3B 66 
04d38     66 66 66 66 
04d3c     66 00 00 00 | 	byte	$00, $00, $60, $30, $18, $00, $3b, $66, $66, $66, $66, $66, $66, $00, $00, $00
04d40     00 00 36 1C 
04d44     08 00 3B 66 
04d48     66 66 66 66 
04d4c     66 00 00 00 | 	byte	$00, $00, $36, $1c, $08, $00, $3b, $66, $66, $66, $66, $66, $66, $00, $00, $00
04d50     36 1C 00 3E 
04d54     63 63 06 1C 
04d58     30 60 63 63 
04d5c     3E 00 00 00 | 	byte	$36, $1c, $00, $3e, $63, $63, $06, $1c, $30, $60, $63, $63, $3e, $00, $00, $00
04d60     00 00 36 1C 
04d64     08 00 3E 63 
04d68     06 1C 30 63 
04d6c     3E 00 00 00 | 	byte	$00, $00, $36, $1c, $08, $00, $3e, $63, $06, $1c, $30, $63, $3e, $00, $00, $00
04d70     30 18 00 3F 
04d74     66 66 66 3E 
04d78     36 66 66 66 
04d7c     6F 00 00 00 | 	byte	$30, $18, $00, $3f, $66, $66, $66, $3e, $36, $66, $66, $66, $6f, $00, $00, $00
04d80     30 18 00 63 
04d84     63 63 63 63 
04d88     63 63 63 63 
04d8c     3E 00 00 00 | 	byte	$30, $18, $00, $63, $63, $63, $63, $63, $63, $63, $63, $63, $3e, $00, $00, $00
04d90     00 00 60 30 
04d94     18 00 3B 6E 
04d98     66 06 06 06 
04d9c     0F 00 00 00 | 	byte	$00, $00, $60, $30, $18, $00, $3b, $6e, $66, $06, $06, $06, $0f, $00, $00, $00
04da0     66 33 00 63 
04da4     63 63 63 63 
04da8     63 63 63 63 
04dac     3E 00 00 00 | 	byte	$66, $33, $00, $63, $63, $63, $63, $63, $63, $63, $63, $63, $3e, $00, $00, $00
04db0     00 00 60 30 
04db4     18 00 63 63 
04db8     63 63 63 63 
04dbc     7E 60 30 1F | 	byte	$00, $00, $60, $30, $18, $00, $63, $63, $63, $63, $63, $63, $7e, $60, $30, $1f
04dc0     30 18 00 66 
04dc4     66 66 66 3C 
04dc8     18 18 18 18 
04dcc     3C 00 00 00 | 	byte	$30, $18, $00, $66, $66, $66, $66, $3c, $18, $18, $18, $18, $3c, $00, $00, $00
04dd0     00 00 00 08 
04dd4     0C 0C 3F 0C 
04dd8     0C 0C 0C 6C 
04ddc     38 18 30 1E | 	byte	$00, $00, $00, $08, $0c, $0c, $3f, $0c, $0c, $0c, $0c, $6c, $38, $18, $30, $1e
04de0     30 18 00 00 
04de4     00 00 00 00 
04de8     00 00 00 00 
04dec     00 00 00 00 | 	byte	$30, $18, $00, $00, $00, $00, $00, $00, $00, $00, $00, $00, $00, $00, $00, $00
04df0     00 00 00 00 
04df4     00 00 00 00 | 	byte	$00[8]
04df8     7F 00 00 00 
04dfc     00 00 00 00 
04e00     66 33 00 00 
04e04     00 00 00 00 | 	byte	$7f, $00, $00, $00, $00, $00, $00, $00, $66, $33, $00, $00, $00, $00, $00, $00
04e08     00 00 00 00 
04e0c     00 00 00 00 
04e10     00 00 00 00 
04e14     00 00 00 00 
04e18     00 00 00 00 
04e1c     00          | 	byte	$00[21]
04e1d     0C 06 3C 36 
04e21     1C 00 00 00 
04e25     00 00 00 00 
04e29     00 00 00 00 | 	byte	$0c, $06, $3c, $36, $1c, $00, $00, $00, $00, $00, $00, $00, $00, $00, $00, $00
04e2d     00 00 00 63 
04e31     3E 00 00 00 
04e35     00 00 00 00 
04e39     00 00 00 00 | 	byte	$00, $00, $00, $63, $3e, $00, $00, $00, $00, $00, $00, $00, $00, $00, $00, $00
04e3d     00 00 00 00 
04e41     3E 63 06 1C 
04e45     36 63 63 36 
04e49     1C 30 63 3E | 	byte	$00, $00, $00, $00, $3e, $63, $06, $1c, $36, $63, $63, $36, $1c, $30, $63, $3e
04e4d     00 00 00 00 
04e51     00 00 00 00 | 	byte	$00[8]
04e55     18 00 7E 00 
04e59     18 00 00 00 
04e5d     00 00 00 00 
04e61     00 00 00 00 | 	byte	$18, $00, $7e, $00, $18, $00, $00, $00, $00, $00, $00, $00, $00, $00, $00, $00
04e65     00 00 00 00 
04e69     00 00 00 00 | 	byte	$00[8]
04e6d     18 30 1E 00 
04e71     00 00 1C 36 
04e75     36 1C 00 00 
04e79     00 00 00 00 | 	byte	$18, $30, $1e, $00, $00, $00, $1c, $36, $36, $1c, $00, $00, $00, $00, $00, $00
04e7d     00 00 00 00 
04e81     63 00 00 00 
04e85     00 00 00 00 
04e89     00 00 00 00 | 	byte	$00, $00, $00, $00, $63, $00, $00, $00, $00, $00, $00, $00, $00, $00, $00, $00
04e8d     00 00 00 18 
04e91     18 00 00 00 
04e95     00 00 00 00 
04e99     00 00 00 00 | 	byte	$00, $00, $00, $18, $18, $00, $00, $00, $00, $00, $00, $00, $00, $00, $00, $00
04e9d     00 00 00 00 
04ea1     00          | 	byte	$00[5]
04ea2     CC 66 33 00 
04ea6     33 33 33 33 
04eaa     33 33 6E 00 
04eae     00 00 36 1C | 	byte	$cc, $66, $33, $00, $33, $33, $33, $33, $33, $33, $6e, $00, $00, $00, $36, $1c
04eb2     00 3F 66 66 
04eb6     66 3E 36 66 
04eba     66 66 6F 00 
04ebe     00 00 00 00 | 	byte	$00, $3f, $66, $66, $66, $3e, $36, $66, $66, $66, $6f, $00, $00, $00, $00, $00
04ec2     36 1C 08 00 
04ec6     3B 6E 66 06 
04eca     06 06 0F 00 
04ece     00 00 00 00 | 	byte	$36, $1c, $08, $00, $3b, $6e, $66, $06, $06, $06, $0f, $00, $00, $00, $00, $00
04ed2     00 00 00 7E 
04ed6     7E 7E 7E 7E 
04eda     7E 7E 00 00 
04ede     00 00 00 00 | 	byte	$00, $00, $00, $7e, $7e, $7e, $7e, $7e, $7e, $7e, $00, $00, $00, $00, $00, $00
04ee2     00 00 00 00 
04ee6     00 00 00 00 
04eea     00 00 00 00 
04eee     00 00       | 	byte	$00, $00, $00, $00, $00, $00, $00, $00, $00, $00, $00, $00, $00, $00
04ef0     00 00 00 00 
      ...             
04f20     00 00 00 00 
04f24     00 00 00    | st_font                 file "st4font.def"
04f27     FF FF 00 00 
04f2b     00 00 00 00 
04f2f     00 18 18 18 
04f33     18 18 18 18 | 	byte	$ff, $ff, $00, $00, $00, $00, $00, $00, $00, $18, $18, $18, $18, $18, $18, $18
04f37     18 18 18 18 
04f3b     18 18 18 18 
04f3f     18          | 	byte	$18[9]
04f40     00 00 00 00 
04f44     00 00 00    | 	byte	$00[7]
04f47     FF FF 18 18 
04f4b     18 18 18 18 
04f4f     18 18 18 18 
04f53     18 18 18 18 | 	byte	$ff, $ff, $18, $18, $18, $18, $18, $18, $18, $18, $18, $18, $18, $18, $18, $18
04f57     FF FF 00 00 
04f5b     00 00 00 00 
04f5f     00 18 18 18 
04f63     18 18 18 18 | 	byte	$ff, $ff, $00, $00, $00, $00, $00, $00, $00, $18, $18, $18, $18, $18, $18, $18
04f67     1F 1F 18 18 
04f6b     18 18 18 18 
04f6f     18 18 18 18 
04f73     18 18 18 18 | 	byte	$1f, $1f, $18, $18, $18, $18, $18, $18, $18, $18, $18, $18, $18, $18, $18, $18
04f77     F8 F8 18 18 
04f7b     18 18 18 18 
04f7f     18 00 00 00 
04f83     00 00 00 00 | 	byte	$f8, $f8, $18, $18, $18, $18, $18, $18, $18, $00, $00, $00, $00, $00, $00, $00
04f87     1F 1F 18 18 
04f8b     18 18 18 18 
04f8f     18 00 00 00 
04f93     00 00 00 00 | 	byte	$1f, $1f, $18, $18, $18, $18, $18, $18, $18, $00, $00, $00, $00, $00, $00, $00
04f97     F8 F8 18 18 
04f9b     18 18 18 18 
04f9f     18 18 18 18 
04fa3     18 18 18 18 | 	byte	$f8, $f8, $18, $18, $18, $18, $18, $18, $18, $18, $18, $18, $18, $18, $18, $18
04fa7     1F 1F 00 00 
04fab     00 00 00 00 
04faf     00 18 18 18 
04fb3     18 18 18 18 | 	byte	$1f, $1f, $00, $00, $00, $00, $00, $00, $00, $18, $18, $18, $18, $18, $18, $18
04fb7     F8 F8 00 00 
04fbb     00 00 00 00 
04fbf     00 18 18 18 
04fc3     18 18 18 18 | 	byte	$f8, $f8, $00, $00, $00, $00, $00, $00, $00, $18, $18, $18, $18, $18, $18, $18
04fc7     FF FF 18 18 
04fcb     18 18 18 18 
04fcf     18 00 00 18 
04fd3     3C 7E 66 66 | 	byte	$ff, $ff, $18, $18, $18, $18, $18, $18, $18, $00, $00, $18, $3c, $7e, $66, $66
04fd7     66 7E 7E 66 
04fdb     66 66 66 30 
04fdf     18 00 00 7E 
04fe3     7E 06 06 3E | 	byte	$66, $7e, $7e, $66, $66, $66, $66, $30, $18, $00, $00, $7e, $7e, $06, $06, $3e
04fe7     3E 06 06 06 
04feb     06 7E 7E 18 
04fef     0C 30 18 3C 
04ff3     7E 66 66 06 | 	byte	$3e, $06, $06, $06, $06, $7e, $7e, $18, $0c, $30, $18, $3c, $7e, $66, $66, $06
04ff7     06 06 06 66 
04ffb     66 7E 3C 00 
04fff     00 30 18 66 
05003     66 66 6E 6E | 	byte	$06, $06, $06, $66, $66, $7e, $3c, $00, $00, $30, $18, $66, $66, $66, $6e, $6e
05007     7E 7E 76 76 
0500b     66 66 66 00 
0500f     00 30 18 7C 
05013     7E 06 06 0E | 	byte	$7e, $7e, $76, $76, $66, $66, $66, $00, $00, $30, $18, $7c, $7e, $06, $06, $0e
05017     1C 38 70 60 
0501b     60 7E 3E 00 
0501f     00 30 18 7E 
05023     7E 30 30 18 | 	byte	$1c, $38, $70, $60, $60, $7e, $3e, $00, $00, $30, $18, $7e, $7e, $30, $30, $18
05027     18 0C 0C 06 
0502b     06 7E 7E 00 
0502f     00 18 18 00 
05033     7E 7E 30 30 | 	byte	$18, $0c, $0c, $06, $06, $7e, $7e, $00, $00, $18, $18, $00, $7e, $7e, $30, $30
05037     18 18 0C 0C 
0503b     06 7E 7E 00 
0503f     00 30 18 3C 
05043     7E 66 66 66 | 	byte	$18, $18, $0c, $0c, $06, $7e, $7e, $00, $00, $30, $18, $3c, $7e, $66, $66, $66
05047     66 66 66 66 
0504b     66          | 	byte	$66[5]
0504c     7E 3C 00 00 
05050     00 00 06 06 
05054     06 06 16 1E 
05058     0E 06 06 06 | 	byte	$7e, $3c, $00, $00, $00, $00, $06, $06, $06, $06, $16, $1e, $0e, $06, $06, $06
0505c     7E 7E 00 00 
05060     00 00 00 00 
05064     00 3C 7C 60 
05068     7C 7E 66 66 | 	byte	$7e, $7e, $00, $00, $00, $00, $00, $00, $00, $3c, $7c, $60, $7c, $7e, $66, $66
0506c     7E 7C 30 18 
05070     00 00 00 00 
05074     00 3C 7E 66 
05078     66 7E 06 06 | 	byte	$7e, $7c, $30, $18, $00, $00, $00, $00, $00, $3c, $7e, $66, $66, $7e, $06, $06
0507c     7E 7C 18 0C 
05080     00 00 30 18 
05084     00 3C 3E 06 
05088     06 06 06 06 | 	byte	$7e, $7c, $18, $0c, $00, $00, $30, $18, $00, $3c, $3e, $06, $06, $06, $06, $06
0508c     7E 7C 00 00 
05090     00 00 30 18 
05094     00 3E 7E 66 
05098     66 66 66 66 | 	byte	$7e, $7c, $00, $00, $00, $00, $30, $18, $00, $3e, $7e, $66, $66, $66, $66, $66
0509c     66 66 00 00 
050a0     00 00 30 18 
050a4     00 7C 7E 06 
050a8     0E 3C 70 60 | 	byte	$66, $66, $00, $00, $00, $00, $30, $18, $00, $7c, $7e, $06, $0e, $3c, $70, $60
050ac     7E 3E 00 00 
050b0     00 00 30 18 
050b4     00 7E 7E 30 
050b8     18 18 0C 0C | 	byte	$7e, $3e, $00, $00, $00, $00, $30, $18, $00, $7e, $7e, $30, $18, $18, $0c, $0c
050bc     7E 7E 00 00 
050c0     00 00 18 18 
050c4     00 7E 7E 30 
050c8     18 18 0C 0C | 	byte	$7e, $7e, $00, $00, $00, $00, $18, $18, $00, $7e, $7e, $30, $18, $18, $0c, $0c
050cc     7E 7E 00 00 
050d0     00 00 30 18 
050d4     00 3C 7E 66 
050d8     66 66 66 66 | 	byte	$7e, $7e, $00, $00, $00, $00, $30, $18, $00, $3c, $7e, $66, $66, $66, $66, $66
050dc     7E 3C 00 00 
050e0     00 00 1C 1C 
050e4     18 18 38 3C 
050e8     1C 18 18 18 | 	byte	$7e, $3c, $00, $00, $00, $00, $1c, $1c, $18, $18, $38, $3c, $1c, $18, $18, $18
050ec     3C 3C 00 00 
050f0     00 00 00 00 
050f4     00 00 00 00 
050f8     00 00 00 00 | 	byte	$3c, $3c, $00, $00, $00, $00, $00, $00, $00, $00, $00, $00, $00, $00, $00, $00
050fc     00 00 00 00 
05100     00 00       | 	byte	$00[6]
05102     18 18 18 18 
05106     18 18 18 18 | 	byte	$18[8]
0510a     00 00 18 18 
0510e     00 00 00 00 
05112     66 66 66 66 
05116     00 00 00 00 | 	byte	$00, $00, $18, $18, $00, $00, $00, $00, $66, $66, $66, $66, $00, $00, $00, $00
0511a     00 00 00 00 
0511e     00 00 00 00 
05122     00          | 	byte	$00[9]
05123     66 66 FF FF 
05127     66 66 FF FF 
0512b     66 66 00 00 
0512f     00 00 18 18 | 	byte	$66, $66, $ff, $ff, $66, $66, $ff, $ff, $66, $66, $00, $00, $00, $00, $18, $18
05133     7C 7E 06 06 
05137     3E 7C 60 60 
0513b     7E 3E 18 18 
0513f     00 00 00 66 | 	byte	$7c, $7e, $06, $06, $3e, $7c, $60, $60, $7e, $3e, $18, $18, $00, $00, $00, $66
05143     66 30 30 18 
05147     18 0C 0C 66 
0514b     66 00 00 00 
0514f     00 00 3C 7E | 	byte	$66, $30, $30, $18, $18, $0c, $0c, $66, $66, $00, $00, $00, $00, $00, $3c, $7e
05153     66 66 3C 1C 
05157     1C FC FE 66 
0515b     66 FE FC 00 
0515f     00 00 00 18 | 	byte	$66, $66, $3c, $1c, $1c, $fc, $fe, $66, $66, $fe, $fc, $00, $00, $00, $00, $18
05163     18 18 18 18 
05167     00 00 00 00 
0516b     00 00 00 00 
0516f     00 00 00 30 | 	byte	$18, $18, $18, $18, $00, $00, $00, $00, $00, $00, $00, $00, $00, $00, $00, $30
05173     18 1C 0C 0C 
05177     0C 0C 0C 0C 
0517b     1C 18 30 00 
0517f     00 00 00 0C | 	byte	$18, $1c, $0c, $0c, $0c, $0c, $0c, $0c, $1c, $18, $30, $00, $00, $00, $00, $0c
05183     18 38 30 30 
05187     30 30 30 30 
0518b     38 18 0C 00 
0518f     00 00 00 00 | 	byte	$18, $38, $30, $30, $30, $30, $30, $30, $38, $18, $0c, $00, $00, $00, $00, $00
05193     66 66 3C 3C 
05197     FF FF 3C 3C 
0519b     66 66 00 00 
0519f     00 00 00 00 | 	byte	$66, $66, $3c, $3c, $ff, $ff, $3c, $3c, $66, $66, $00, $00, $00, $00, $00, $00
051a3     00 18 18 18 
051a7     7E 7E 18 18 
051ab     18 00 00 00 
051af     00 00 00 00 | 	byte	$00, $18, $18, $18, $7e, $7e, $18, $18, $18, $00, $00, $00, $00, $00, $00, $00
051b3     00 00 00 00 
051b7     00 00       | 	byte	$00[6]
051b9     18 18 18 18 
051bd     18          | 	byte	$18[5]
051be     0C 04 00 00 
051c2     00 00 00 00 
051c6     7E 7E 00 00 
051ca     00 00 00 00 | 	byte	$0c, $04, $00, $00, $00, $00, $00, $00, $7e, $7e, $00, $00, $00, $00, $00, $00
051ce     00 00 00 00 
051d2     00 00 00 00 
051d6     00 00 00 00 
051da     00          | 	byte	$00[13]
051db     18 18 18 00 
051df     00 00 00 60 
051e3     60 60 30 30 
051e7     18 18 0C 0C | 	byte	$18, $18, $18, $00, $00, $00, $00, $60, $60, $60, $30, $30, $18, $18, $0c, $0c
051eb     06 06 06 00 
051ef     00 00 00 3C 
051f3     7E 66 66 66 
051f7     76 6E 66 66 | 	byte	$06, $06, $06, $00, $00, $00, $00, $3c, $7e, $66, $66, $66, $76, $6e, $66, $66
051fb     66 7E 3C 00 
051ff     00 00 00 18 
05203     18 1C 1C 18 
05207     18 18 18 18 | 	byte	$66, $7e, $3c, $00, $00, $00, $00, $18, $18, $1c, $1c, $18, $18, $18, $18, $18
0520b     18 7E 7E 00 
0520f     00 00 00 3C 
05213     7E 66 66 30 
05217     30 18 18 0C | 	byte	$18, $7e, $7e, $00, $00, $00, $00, $3c, $7e, $66, $66, $30, $30, $18, $18, $0c
0521b     0C 7E 7E 00 
0521f     00 00 00 7E 
05223     7E 30 30 18 
05227     18 30 30 66 | 	byte	$0c, $7e, $7e, $00, $00, $00, $00, $7e, $7e, $30, $30, $18, $18, $30, $30, $66
0522b     66 7E 3C 00 
0522f     00 00 00 30 
05233     30 38 38 3C 
05237     3C 36 36 7E | 	byte	$66, $7e, $3c, $00, $00, $00, $00, $30, $30, $38, $38, $3c, $3c, $36, $36, $7e
0523b     7E 30 30 00 
0523f     00 00 00 7E 
05243     7E 06 06 3E 
05247     7E 60 60 60 | 	byte	$7e, $30, $30, $00, $00, $00, $00, $7e, $7e, $06, $06, $3e, $7e, $60, $60, $60
0524b     66 7E 3C 00 
0524f     00 00 00 38 
05253     3C 0E 06 06 
05257     3E 7E 66 66 | 	byte	$66, $7e, $3c, $00, $00, $00, $00, $38, $3c, $0e, $06, $06, $3e, $7e, $66, $66
0525b     66 7E 3C 00 
0525f     00 00 00 7E 
05263     7E 60 60 30 
05267     30 18 18 0C | 	byte	$66, $7e, $3c, $00, $00, $00, $00, $7e, $7e, $60, $60, $30, $30, $18, $18, $0c
0526b     0C 0C 0C 00 
0526f     00 00 00 3C 
05273     7E 66 66 3C 
05277     3C 66 66 66 | 	byte	$0c, $0c, $0c, $00, $00, $00, $00, $3c, $7e, $66, $66, $3c, $3c, $66, $66, $66
0527b     66 7E 3C 00 
0527f     00 00 00 3C 
05283     7E 66 66 7E 
05287     7C 60 60 60 | 	byte	$66, $7e, $3c, $00, $00, $00, $00, $3c, $7e, $66, $66, $7e, $7c, $60, $60, $60
0528b     70 3C 1C 00 
0528f     00 00 00 00 
05293     00 00 18 18 
05297     18 00 00 00 | 	byte	$70, $3c, $1c, $00, $00, $00, $00, $00, $00, $00, $18, $18, $18, $00, $00, $00
0529b     18 18 18 00 
0529f     00 00 00 00 
052a3     00 00 18 18 
052a7     18 00 00 18 | 	byte	$18, $18, $18, $00, $00, $00, $00, $00, $00, $00, $18, $18, $18, $00, $00, $18
052ab     18 18 18 0C 
052af     04 00 00 00 
052b3     70 38 1C 0E 
052b7     07 0E 1C 38 | 	byte	$18, $18, $18, $0c, $04, $00, $00, $00, $70, $38, $1c, $0e, $07, $0e, $1c, $38
052bb     70 00 00 00 
052bf     00 00 00 00 
052c3     00 00 7E 7E 
052c7     00 00 7E 7E | 	byte	$70, $00, $00, $00, $00, $00, $00, $00, $00, $00, $7e, $7e, $00, $00, $7e, $7e
052cb     00 00 00 00 
052cf     00 00 00 00 | 	byte	$00[8]
052d3     0E 1C 38 70 
052d7     E0 70 38 1C 
052db     0E 00 00 00 
052df     00 00 00 3C | 	byte	$0e, $1c, $38, $70, $e0, $70, $38, $1c, $0e, $00, $00, $00, $00, $00, $00, $3c
052e3     7E 66 66 30 
052e7     30 18 18 18 
052eb     00 18 18 00 
052ef     00 00 00 3C | 	byte	$7e, $66, $66, $30, $30, $18, $18, $18, $00, $18, $18, $00, $00, $00, $00, $3c
052f3     7E 66 66 66 
052f7     66 36 06 66 
052fb     66 7E 3C 00 
052ff     00 00 00 18 | 	byte	$7e, $66, $66, $66, $66, $36, $06, $66, $66, $7e, $3c, $00, $00, $00, $00, $18
05303     3C 7E 66 66 
05307     66 7E 7E 66 
0530b     66 66 66 00 
0530f     00 00 00 3E | 	byte	$3c, $7e, $66, $66, $66, $7e, $7e, $66, $66, $66, $66, $00, $00, $00, $00, $3e
05313     7E 66 66 7E 
05317     3E 66 66 66 
0531b     66 7E 3E 00 
0531f     00 00 00 3C | 	byte	$7e, $66, $66, $7e, $3e, $66, $66, $66, $66, $7e, $3e, $00, $00, $00, $00, $3c
05323     7E 66 66 06 
05327     06 06 06 66 
0532b     66 7E 3C 00 
0532f     00 00 00 3E | 	byte	$7e, $66, $66, $06, $06, $06, $06, $66, $66, $7e, $3c, $00, $00, $00, $00, $3e
05333     7E 66 66 66 
05337     66 66 66 66 
0533b     66 7E 3E 00 
0533f     00 00 00 7E | 	byte	$7e, $66, $66, $66, $66, $66, $66, $66, $66, $7e, $3e, $00, $00, $00, $00, $7e
05343     7E 06 06 3E 
05347     3E 06 06 06 
0534b     06 7E 7E 00 
0534f     00 00 00 7E | 	byte	$7e, $06, $06, $3e, $3e, $06, $06, $06, $06, $7e, $7e, $00, $00, $00, $00, $7e
05353     7E 06 06 3E 
05357     3E 06 06 06 
0535b     06 06 06 00 
0535f     00 00 00 7C | 	byte	$7e, $06, $06, $3e, $3e, $06, $06, $06, $06, $06, $06, $00, $00, $00, $00, $7c
05363     7E 06 06 76 
05367     76 66 66 66 
0536b     66 7E 3C 00 
0536f     00 00 00 66 | 	byte	$7e, $06, $06, $76, $76, $66, $66, $66, $66, $7e, $3c, $00, $00, $00, $00, $66
05373     66 66 66 7E 
05377     7E 66 66 66 
0537b     66 66 66 00 
0537f     00 00 00 7E | 	byte	$66, $66, $66, $7e, $7e, $66, $66, $66, $66, $66, $66, $00, $00, $00, $00, $7e
05383     7E 18 18 18 
05387     18 18 18 18 
0538b     18 7E 7E 00 
0538f     00 00 00 60 | 	byte	$7e, $18, $18, $18, $18, $18, $18, $18, $18, $7e, $7e, $00, $00, $00, $00, $60
05393     60 60 60 60 
05397     60 60 60    | 	byte	$60[7]
0539a     66 66 7E 3C 
0539e     00 00 00 00 
053a2     66 66 36 36 
053a6     1E 1E 36 36 | 	byte	$66, $66, $7e, $3c, $00, $00, $00, $00, $66, $66, $36, $36, $1e, $1e, $36, $36
053aa     66 66 C6 C6 
053ae     00 00 00 00 
053b2     06 06 06 06 
053b6     06 06 06 06 | 	byte	$66, $66, $c6, $c6, $00, $00, $00, $00, $06, $06, $06, $06, $06, $06, $06, $06
053ba     06 06 7E 7E 
053be     00 00 00 00 
053c2     C6 C6 EE EE 
053c6     FE D6 D6 C6 | 	byte	$06, $06, $7e, $7e, $00, $00, $00, $00, $c6, $c6, $ee, $ee, $fe, $d6, $d6, $c6
053ca     C6 C6 C6 C6 
053ce     00 00 00 00 
053d2     66 66 66 6E 
053d6     6E 7E 7E 76 | 	byte	$c6, $c6, $c6, $c6, $00, $00, $00, $00, $66, $66, $66, $6e, $6e, $7e, $7e, $76
053da     76 66 66 66 
053de     00 00 00 00 
053e2     3C 7E 66 66 
053e6     66 66 66 66 | 	byte	$76, $66, $66, $66, $00, $00, $00, $00, $3c, $7e, $66, $66, $66, $66, $66, $66
053ea     66 66 7E 3C 
053ee     00 00 00 00 
053f2     3E 7E 66 66 
053f6     66 66 7E 3E | 	byte	$66, $66, $7e, $3c, $00, $00, $00, $00, $3e, $7e, $66, $66, $66, $66, $7e, $3e
053fa     06 06 06 06 
053fe     00 00 00 00 
05402     3C 7E 66 66 
05406     66 66 66 66 | 	byte	$06, $06, $06, $06, $00, $00, $00, $00, $3c, $7e, $66, $66, $66, $66, $66, $66
0540a     66 56 3E 6C 
0540e     00 00 00 00 
05412     3E 7E 66 66 
05416     66 7E 3E 36 | 	byte	$66, $56, $3e, $6c, $00, $00, $00, $00, $3e, $7e, $66, $66, $66, $7e, $3e, $36
0541a     66 66 C6 C6 
0541e     00 00 00 00 
05422     7C 7E 06 06 
05426     0E 1C 38 70 | 	byte	$66, $66, $c6, $c6, $00, $00, $00, $00, $7c, $7e, $06, $06, $0e, $1c, $38, $70
0542a     60 60 7E 3E 
0542e     00 00 00 00 
05432     7E 7E 18 18 
05436     18 18 18 18 | 	byte	$60, $60, $7e, $3e, $00, $00, $00, $00, $7e, $7e, $18, $18, $18, $18, $18, $18
0543a     18 18 18 18 
0543e     00 00 00 00 
05442     66 66 66 66 
05446     66 66 66 66 | 	byte	$18, $18, $18, $18, $00, $00, $00, $00, $66, $66, $66, $66, $66, $66, $66, $66
0544a     66 66 7E 3C 
0544e     00 00 00 00 
05452     66 66 66 66 
05456     66 66 66 66 | 	byte	$66, $66, $7e, $3c, $00, $00, $00, $00, $66, $66, $66, $66, $66, $66, $66, $66
0545a     3C 3C 18 18 
0545e     00 00 00 00 
05462     C6 C6 C6 C6 
05466     C6 D6 D6 FE | 	byte	$3c, $3c, $18, $18, $00, $00, $00, $00, $c6, $c6, $c6, $c6, $c6, $d6, $d6, $fe
0546a     FE EE C6 82 
0546e     00 00 00 00 
05472     66 66 66 3C 
05476     3C 18 18 3C | 	byte	$fe, $ee, $c6, $82, $00, $00, $00, $00, $66, $66, $66, $3c, $3c, $18, $18, $3c
0547a     3C 66 66 66 
0547e     00 00 00 00 
05482     66 66 66 66 
05486     66 3C 3C 18 | 	byte	$3c, $66, $66, $66, $00, $00, $00, $00, $66, $66, $66, $66, $66, $3c, $3c, $18
0548a     18 18 18 18 
0548e     00 00 00 00 
05492     7E 7E 30 30 
05496     18 18 0C 0C | 	byte	$18, $18, $18, $18, $00, $00, $00, $00, $7e, $7e, $30, $30, $18, $18, $0c, $0c
0549a     06 06 7E 7E 
0549e     00 00 00 00 
054a2     3C 3C 0C 0C 
054a6     0C 0C 0C 0C | 	byte	$06, $06, $7e, $7e, $00, $00, $00, $00, $3c, $3c, $0c, $0c, $0c, $0c, $0c, $0c
054aa     0C 0C 3C 3C 
054ae     00 00 00 00 
054b2     06 06 0C 0C 
054b6     18 18 30 30 | 	byte	$0c, $0c, $3c, $3c, $00, $00, $00, $00, $06, $06, $0c, $0c, $18, $18, $30, $30
054ba     60 60 C0 C0 
054be     00 00 00 00 
054c2     3C 3C 30 30 
054c6     30 30 30 30 | 	byte	$60, $60, $c0, $c0, $00, $00, $00, $00, $3c, $3c, $30, $30, $30, $30, $30, $30
054ca     30 30 3C 3C 
054ce     00 00 00 00 
054d2     18 18 3C 3C 
054d6     66 66 00 00 | 	byte	$30, $30, $3c, $3c, $00, $00, $00, $00, $18, $18, $3c, $3c, $66, $66, $00, $00
054da     00 00 00 00 
054de     00 00 00 00 
054e2     00 00 00 00 
054e6     00 00 00 00 
054ea     00 00       | 	byte	$00[18]
054ec     FE FE 00 00 
054f0     00 00 0C 0C 
054f4     18 18 00 00 
054f8     00 00 00 00 | 	byte	$fe, $fe, $00, $00, $00, $00, $0c, $0c, $18, $18, $00, $00, $00, $00, $00, $00
054fc     00 00 00 00 
05500     00 00 00 00 
05504     00          | 	byte	$00[9]
05505     3C 7C 60 7C 
05509     7E 66 66 7E 
0550d     7C 00 00 00 
05511     00 06 06 06 | 	byte	$3c, $7c, $60, $7c, $7e, $66, $66, $7e, $7c, $00, $00, $00, $00, $06, $06, $06
05515     3E 7E 66 66 
05519     66 66 66 7E 
0551d     3E 00 00 00 
05521     00 00 00 00 | 	byte	$3e, $7e, $66, $66, $66, $66, $66, $7e, $3e, $00, $00, $00, $00, $00, $00, $00
05525     3C 3E 06 06 
05529     06 06 06 7E 
0552d     7C 00 00 00 
05531     00 60 60 60 | 	byte	$3c, $3e, $06, $06, $06, $06, $06, $7e, $7c, $00, $00, $00, $00, $60, $60, $60
05535     7C 7E 66 66 
05539     66 66 66 7E 
0553d     7C 00 00 00 
05541     00 00 00 00 | 	byte	$7c, $7e, $66, $66, $66, $66, $66, $7e, $7c, $00, $00, $00, $00, $00, $00, $00
05545     3C 7E 66 66 
05549     7E 06 06 7E 
0554d     7C 00 00 00 
05551     00 70 78 18 | 	byte	$3c, $7e, $66, $66, $7e, $06, $06, $7e, $7c, $00, $00, $00, $00, $70, $78, $18
05555     18 7E 7E 18 
05559     18 18 18 18 
0555d     18 00 00 00 
05561     00 00 00 00 | 	byte	$18, $7e, $7e, $18, $18, $18, $18, $18, $18, $00, $00, $00, $00, $00, $00, $00
05565     7C 7E 66 66 
05569     66 66 7E 7C 
0556d     60 7E 3E 00 
05571     00 06 06 06 | 	byte	$7c, $7e, $66, $66, $66, $66, $7e, $7c, $60, $7e, $3e, $00, $00, $06, $06, $06
05575     3E 7E 66 66 
05579     66 66 66 66 
0557d     66 00 00 00 
05581     00 18 18 00 | 	byte	$3e, $7e, $66, $66, $66, $66, $66, $66, $66, $00, $00, $00, $00, $18, $18, $00
05585     1C 1C 18 18 
05589     18 18 18 3C 
0558d     3C 00 00 00 
05591     00 30 30 00 | 	byte	$1c, $1c, $18, $18, $18, $18, $18, $3c, $3c, $00, $00, $00, $00, $30, $30, $00
05595     30 30 30 30 
05599     30 30 30 30 
0559d     30          | 	byte	$30[9]
0559e     3E 1E 00 00 
055a2     06 06 06 36 
055a6     36 1E 1E 1E 
055aa     36 36 66 66 | 	byte	$3e, $1e, $00, $00, $06, $06, $06, $36, $36, $1e, $1e, $1e, $36, $36, $66, $66
055ae     00 00 00 00 
055b2     1C 1C 18 18 
055b6     18 18 18 18 
055ba     18 18 3C 3C | 	byte	$00, $00, $00, $00, $1c, $1c, $18, $18, $18, $18, $18, $18, $18, $18, $3c, $3c
055be     00 00 00 00 
055c2     00 00 00    | 	byte	$00[7]
055c5     6C FE FE D6 
055c9     D6 C6 C6 C6 
055cd     C6 00 00 00 
055d1     00 00 00 00 | 	byte	$6c, $fe, $fe, $d6, $d6, $c6, $c6, $c6, $c6, $00, $00, $00, $00, $00, $00, $00
055d5     3E 7E 66 66 
055d9     66 66 66 66 
055dd     66 00 00 00 
055e1     00 00 00 00 | 	byte	$3e, $7e, $66, $66, $66, $66, $66, $66, $66, $00, $00, $00, $00, $00, $00, $00
055e5     3C 7E 66 66 
055e9     66 66 66 7E 
055ed     3C 00 00 00 
055f1     00 00 00 00 | 	byte	$3c, $7e, $66, $66, $66, $66, $66, $7e, $3c, $00, $00, $00, $00, $00, $00, $00
055f5     3E 7E 66 66 
055f9     66 66 66 7E 
055fd     3E 06 06 00 
05601     00 00 00 00 | 	byte	$3e, $7e, $66, $66, $66, $66, $66, $7e, $3e, $06, $06, $00, $00, $00, $00, $00
05605     7C 7E 66 66 
05609     66 66 66 7E 
0560d     7C 60 60 00 
05611     00 00 00 00 | 	byte	$7c, $7e, $66, $66, $66, $66, $66, $7e, $7c, $60, $60, $00, $00, $00, $00, $00
05615     3E 7E 66 06 
05619     06 06 06 06 
0561d     06 00 00 00 
05621     00 00 00 00 | 	byte	$3e, $7e, $66, $06, $06, $06, $06, $06, $06, $00, $00, $00, $00, $00, $00, $00
05625     7C 7E 06 0E 
05629     3C 70 60 7E 
0562d     3E 00 00 00 
05631     00 00 18 18 | 	byte	$7c, $7e, $06, $0e, $3c, $70, $60, $7e, $3e, $00, $00, $00, $00, $00, $18, $18
05635     7E 7E 18 18 
05639     18 18 18 78 
0563d     70 00 00 00 
05641     00 00 00 00 | 	byte	$7e, $7e, $18, $18, $18, $18, $18, $78, $70, $00, $00, $00, $00, $00, $00, $00
05645     66 66 66 66 
05649     66 66 66    | 	byte	$66[7]
0564c     7E 7C 00 00 
05650     00 00 00 00 
05654     00 66 66 66 
05658     66 66 3C 3C | 	byte	$7e, $7c, $00, $00, $00, $00, $00, $00, $00, $66, $66, $66, $66, $66, $3c, $3c
0565c     18 18 00 00 
05660     00 00 00 00 
05664     00 C6 C6 D6 
05668     D6 FE FE EE | 	byte	$18, $18, $00, $00, $00, $00, $00, $00, $00, $c6, $c6, $d6, $d6, $fe, $fe, $ee
0566c     C6 82 00 00 
05670     00 00 00 00 
05674     00 66 66 3C 
05678     3C 18 3C 3C | 	byte	$c6, $82, $00, $00, $00, $00, $00, $00, $00, $66, $66, $3c, $3c, $18, $3c, $3c
0567c     66 66 00 00 
05680     00 00 00 00 
05684     00 66 66 66 
05688     66 66 66 7E | 	byte	$66, $66, $00, $00, $00, $00, $00, $00, $00, $66, $66, $66, $66, $66, $66, $7e
0568c     7C 60 7E 3E 
05690     00 00 00 00 
05694     00 7E 7E 30 
05698     18 18 0C 0C | 	byte	$7c, $60, $7e, $3e, $00, $00, $00, $00, $00, $7e, $7e, $30, $18, $18, $0c, $0c
0569c     7E 7E 00 00 
056a0     00 00 30 18 
056a4     18 18 18 0C 
056a8     0C 18 18 18 | 	byte	$7e, $7e, $00, $00, $00, $00, $30, $18, $18, $18, $18, $0c, $0c, $18, $18, $18
056ac     18 30 00 00 
056b0     00 00 18 18 
056b4     18 18 18 18 
056b8     18 18 18 18 | 	byte	$18, $30, $00, $00, $00, $00, $18, $18, $18, $18, $18, $18, $18, $18, $18, $18
056bc     18 18 00 00 
056c0     00 00 0C 18 
056c4     18 18 18 30 
056c8     30 18 18 18 | 	byte	$18, $18, $00, $00, $00, $00, $0c, $18, $18, $18, $18, $30, $30, $18, $18, $18
056cc     18 0C 00 00 
056d0     00 00 6C 7E 
056d4     36 00 00 00 
056d8     00 00 00 00 | 	byte	$18, $0c, $00, $00, $00, $00, $6c, $7e, $36, $00, $00, $00, $00, $00, $00, $00
056dc     00 00 00 00 
056e0     00 00 00 00 
056e4     00          | 	byte	$00[9]
056e5     18 18 18 18 
056e9     18 18 00 00 
056ed     00 00 00    | 	byte	$18, $18, $18, $18, $18, $18, $00, $00, $00, $00, $00
056f0     00 00 00 00 
056f4     00          | ataripalette            file "ataripalettep2.def"
056f5     11 11 11 00 
056f9     22 22 22 00 
056fd     33 33 33 00 
05701     44 44 44 00 | 	byte	$11, $11, $11, $00, $22, $22, $22, $00, $33, $33, $33, $00, $44, $44, $44, $00
05705     55 55 55 00 
05709     66 66 66 00 
0570d     77 77 77 00 
05711     88 88 88 00 | 	byte	$55, $55, $55, $00, $66, $66, $66, $00, $77, $77, $77, $00, $88, $88, $88, $00
05715     99 99 99 00 
05719     AA AA AA 00 
0571d     BB BB BB 00 
05721     CC CC CC 00 | 	byte	$99, $99, $99, $00, $aa, $aa, $aa, $00, $bb, $bb, $bb, $00, $cc, $cc, $cc, $00
05725     DD DD DD 00 
05729     EE EE EE 00 
0572d     FF FF FF 00 
05731     00 0A 20 00 | 	byte	$dd, $dd, $dd, $00, $ee, $ee, $ee, $00, $ff, $ff, $ff, $00, $00, $0a, $20, $00
05735     00 14 40 00 
05739     00 1E 60 00 
0573d     00 28 80 00 
05741     00 32 9F 00 | 	byte	$00, $14, $40, $00, $00, $1e, $60, $00, $00, $28, $80, $00, $00, $32, $9f, $00
05745     00 3C BF 00 
05749     00 46 DF 00 
0574d     00 50 FF 00 
05751     1C 63 FF 00 | 	byte	$00, $3c, $bf, $00, $00, $46, $df, $00, $00, $50, $ff, $00, $1c, $63, $ff, $00
05755     39 77 FF 00 
05759     55 8A FF 00 
0575d     71 9E FF 00 
05761     8E B1 FF 00 | 	byte	$39, $77, $ff, $00, $55, $8a, $ff, $00, $71, $9e, $ff, $00, $8e, $b1, $ff, $00
05765     AA C5 FF 00 
05769     C6 D8 FF 00 
0576d     E3 EC FF 00 
05771     00 00 20 00 | 	byte	$aa, $c5, $ff, $00, $c6, $d8, $ff, $00, $e3, $ec, $ff, $00, $00, $00, $20, $00
05775     00 00 40 00 
05779     00 00 60 00 
0577d     00 00 80 00 
05781     00 00 9F 00 | 	byte	$00, $00, $40, $00, $00, $00, $60, $00, $00, $00, $80, $00, $00, $00, $9f, $00
05785     00 00 BF 00 
05789     00 00 DF 00 
0578d     00 00 FF 00 
05791     1C 1C FF 00 | 	byte	$00, $00, $bf, $00, $00, $00, $df, $00, $00, $00, $ff, $00, $1c, $1c, $ff, $00
05795     39 39 FF 00 
05799     55 55 FF 00 
0579d     71 71 FF 00 
057a1     8E 8E FF 00 | 	byte	$39, $39, $ff, $00, $55, $55, $ff, $00, $71, $71, $ff, $00, $8e, $8e, $ff, $00
057a5     AA AA FF 00 
057a9     C6 C6 FF 00 
057ad     E3 E3 FF 00 
057b1     10 00 20 00 | 	byte	$aa, $aa, $ff, $00, $c6, $c6, $ff, $00, $e3, $e3, $ff, $00, $10, $00, $20, $00
057b5     20 00 40 00 
057b9     30 00 60 00 
057bd     40 00 80 00 
057c1     50 00 9F 00 | 	byte	$20, $00, $40, $00, $30, $00, $60, $00, $40, $00, $80, $00, $50, $00, $9f, $00
057c5     60 00 BF 00 
057c9     70 00 DF 00 
057cd     80 00 FF 00 
057d1     8E 1C FF 00 | 	byte	$60, $00, $bf, $00, $70, $00, $df, $00, $80, $00, $ff, $00, $8e, $1c, $ff, $00
057d5     9C 39 FF 00 
057d9     AA 55 FF 00 
057dd     B8 71 FF 00 
057e1     C7 8E FF 00 | 	byte	$9c, $39, $ff, $00, $aa, $55, $ff, $00, $b8, $71, $ff, $00, $c7, $8e, $ff, $00
057e5     D5 AA FF 00 
057e9     E3 C6 FF 00 
057ed     F1 E3 FF 00 
057f1     20 00 20 00 | 	byte	$d5, $aa, $ff, $00, $e3, $c6, $ff, $00, $f1, $e3, $ff, $00, $20, $00, $20, $00
057f5     40 00 40 00 
057f9     60 00 60 00 
057fd     80 00 80 00 
05801     9F 00 9F 00 | 	byte	$40, $00, $40, $00, $60, $00, $60, $00, $80, $00, $80, $00, $9f, $00, $9f, $00
05805     BF 00 BF 00 
05809     DF 00 DF 00 
0580d     FF 00 FF 00 
05811     FF 1C FF 00 | 	byte	$bf, $00, $bf, $00, $df, $00, $df, $00, $ff, $00, $ff, $00, $ff, $1c, $ff, $00
05815     FF 39 FF 00 
05819     FF 55 FF 00 
0581d     FF 71 FF 00 
05821     FF 8E FF 00 | 	byte	$ff, $39, $ff, $00, $ff, $55, $ff, $00, $ff, $71, $ff, $00, $ff, $8e, $ff, $00
05825     FF AA FF 00 
05829     FF C6 FF 00 
0582d     FF E3 FF 00 
05831     20 00 10 00 | 	byte	$ff, $aa, $ff, $00, $ff, $c6, $ff, $00, $ff, $e3, $ff, $00, $20, $00, $10, $00
05835     40 00 20 00 
05839     60 00 30 00 
0583d     80 00 40 00 
05841     9F 00 50 00 | 	byte	$40, $00, $20, $00, $60, $00, $30, $00, $80, $00, $40, $00, $9f, $00, $50, $00
05845     BF 00 60 00 
05849     DF 00 70 00 
0584d     FF 00 80 00 
05851     FF 1C 8E 00 | 	byte	$bf, $00, $60, $00, $df, $00, $70, $00, $ff, $00, $80, $00, $ff, $1c, $8e, $00
05855     FF 39 9C 00 
05859     FF 55 AA 00 
0585d     FF 71 B8 00 
05861     FF 8E C7 00 | 	byte	$ff, $39, $9c, $00, $ff, $55, $aa, $00, $ff, $71, $b8, $00, $ff, $8e, $c7, $00
05865     FF AA D5 00 
05869     FF C6 E3 00 
0586d     FF E3 F1 00 
05871     20 00 00 00 | 	byte	$ff, $aa, $d5, $00, $ff, $c6, $e3, $00, $ff, $e3, $f1, $00, $20, $00, $00, $00
05875     40 00 00 00 
05879     60 00 00 00 
0587d     80 00 00 00 
05881     9F 00 00 00 | 	byte	$40, $00, $00, $00, $60, $00, $00, $00, $80, $00, $00, $00, $9f, $00, $00, $00
05885     BF 00 00 00 
05889     DF 00 00 00 
0588d     FF 00 00 00 
05891     FF 1C 1C 00 | 	byte	$bf, $00, $00, $00, $df, $00, $00, $00, $ff, $00, $00, $00, $ff, $1c, $1c, $00
05895     FF 39 39 00 
05899     FF 55 55 00 
0589d     FF 71 71 00 
058a1     FF 8E 8E 00 | 	byte	$ff, $39, $39, $00, $ff, $55, $55, $00, $ff, $71, $71, $00, $ff, $8e, $8e, $00
058a5     FF AA AA 00 
058a9     FF C6 C6 00 
058ad     FF E3 E3 00 
058b1     20 08 00 00 | 	byte	$ff, $aa, $aa, $00, $ff, $c6, $c6, $00, $ff, $e3, $e3, $00, $20, $08, $00, $00
058b5     40 10 00 00 
058b9     60 18 00 00 
058bd     80 20 00 00 
058c1     9F 28 00 00 | 	byte	$40, $10, $00, $00, $60, $18, $00, $00, $80, $20, $00, $00, $9f, $28, $00, $00
058c5     BF 30 00 00 
058c9     DF 38 00 00 
058cd     FF 40 00 00 
058d1     FF 55 1C 00 | 	byte	$bf, $30, $00, $00, $df, $38, $00, $00, $ff, $40, $00, $00, $ff, $55, $1c, $00
058d5     FF 6A 39 00 
058d9     FF 80 55 00 
058dd     FF 95 71 00 
058e1     FF AA 8E 00 | 	byte	$ff, $6a, $39, $00, $ff, $80, $55, $00, $ff, $95, $71, $00, $ff, $aa, $8e, $00
058e5     FF BF AA 00 
058e9     FF D5 C6 00 
058ed     FF EA E3 00 
058f1     20 10 00 00 | 	byte	$ff, $bf, $aa, $00, $ff, $d5, $c6, $00, $ff, $ea, $e3, $00, $20, $10, $00, $00
058f5     40 20 00 00 
058f9     60 30 00 00 
058fd     80 40 00 00 
05901     9F 50 00 00 | 	byte	$40, $20, $00, $00, $60, $30, $00, $00, $80, $40, $00, $00, $9f, $50, $00, $00
05905     BF 60 00 00 
05909     DF 70 00 00 
0590d     FF 80 00 00 
05911     FF 8E 1C 00 | 	byte	$bf, $60, $00, $00, $df, $70, $00, $00, $ff, $80, $00, $00, $ff, $8e, $1c, $00
05915     FF 9C 39 00 
05919     FF AA 55 00 
0591d     FF B8 71 00 
05921     FF C7 8E 00 | 	byte	$ff, $9c, $39, $00, $ff, $aa, $55, $00, $ff, $b8, $71, $00, $ff, $c7, $8e, $00
05925     FF D5 AA 00 
05929     FF E3 C6 00 
0592d     FF F1 E3 00 
05931     20 18 00 00 | 	byte	$ff, $d5, $aa, $00, $ff, $e3, $c6, $00, $ff, $f1, $e3, $00, $20, $18, $00, $00
05935     40 30 00 00 
05939     60 48 00 00 
0593d     80 60 00 00 
05941     9F 78 00 00 | 	byte	$40, $30, $00, $00, $60, $48, $00, $00, $80, $60, $00, $00, $9f, $78, $00, $00
05945     BF 90 00 00 
05949     DF A8 00 00 
0594d     FF C0 00 00 
05951     FF C7 1C 00 | 	byte	$bf, $90, $00, $00, $df, $a8, $00, $00, $ff, $c0, $00, $00, $ff, $c7, $1c, $00
05955     FF CE 39 00 
05959     FF D5 55 00 
0595d     FF DC 71 00 
05961     FF E3 8E 00 | 	byte	$ff, $ce, $39, $00, $ff, $d5, $55, $00, $ff, $dc, $71, $00, $ff, $e3, $8e, $00
05965     FF EA AA 00 
05969     FF F1 C6 00 
0596d     FF F8 E3 00 
05971     18 20 00 00 | 	byte	$ff, $ea, $aa, $00, $ff, $f1, $c6, $00, $ff, $f8, $e3, $00, $18, $20, $00, $00
05975     30 40 00 00 
05979     48 60 00 00 
0597d     60 80 00 00 
05981     78 9F 00 00 | 	byte	$30, $40, $00, $00, $48, $60, $00, $00, $60, $80, $00, $00, $78, $9f, $00, $00
05985     90 BF 00 00 
05989     A8 DF 00 00 
0598d     C0 FF 00 00 
05991     C7 FF 1C 00 | 	byte	$90, $bf, $00, $00, $a8, $df, $00, $00, $c0, $ff, $00, $00, $c7, $ff, $1c, $00
05995     CE FF 39 00 
05999     D5 FF 55 00 
0599d     DC FF 71 00 
059a1     E3 FF 8E 00 | 	byte	$ce, $ff, $39, $00, $d5, $ff, $55, $00, $dc, $ff, $71, $00, $e3, $ff, $8e, $00
059a5     EA FF AA 00 
059a9     F1 FF C6 00 
059ad     F8 FF E3 00 
059b1     00 20 00 00 | 	byte	$ea, $ff, $aa, $00, $f1, $ff, $c6, $00, $f8, $ff, $e3, $00, $00, $20, $00, $00
059b5     00 40 00 00 
059b9     00 60 00 00 
059bd     00 80 00 00 
059c1     00 9F 00 00 | 	byte	$00, $40, $00, $00, $00, $60, $00, $00, $00, $80, $00, $00, $00, $9f, $00, $00
059c5     00 BF 00 00 
059c9     00 DF 00 00 
059cd     00 FF 00 00 
059d1     1C FF 1C 00 | 	byte	$00, $bf, $00, $00, $00, $df, $00, $00, $00, $ff, $00, $00, $1c, $ff, $1c, $00
059d5     39 FF 39 00 
059d9     55 FF 55 00 
059dd     71 FF 71 00 
059e1     8E FF 8E 00 | 	byte	$39, $ff, $39, $00, $55, $ff, $55, $00, $71, $ff, $71, $00, $8e, $ff, $8e, $00
059e5     AA FF AA 00 
059e9     C6 FF C6 00 
059ed     E3 FF E3 00 
059f1     00 20 0A 00 | 	byte	$aa, $ff, $aa, $00, $c6, $ff, $c6, $00, $e3, $ff, $e3, $00, $00, $20, $0a, $00
059f5     00 40 14 00 
059f9     00 60 1E 00 
059fd     00 80 28 00 
05a01     00 9F 32 00 | 	byte	$00, $40, $14, $00, $00, $60, $1e, $00, $00, $80, $28, $00, $00, $9f, $32, $00
05a05     00 BF 3C 00 
05a09     00 DF 46 00 
05a0d     00 FF 50 00 
05a11     1C FF 63 00 | 	byte	$00, $bf, $3c, $00, $00, $df, $46, $00, $00, $ff, $50, $00, $1c, $ff, $63, $00
05a15     39 FF 77 00 
05a19     55 FF 8A 00 
05a1d     71 FF 9E 00 
05a21     8E FF B1 00 | 	byte	$39, $ff, $77, $00, $55, $ff, $8a, $00, $71, $ff, $9e, $00, $8e, $ff, $b1, $00
05a25     AA FF C5 00 
05a29     C6 FF D8 00 
05a2d     E3 FF EC 00 
05a31     00 20 14 00 | 	byte	$aa, $ff, $c5, $00, $c6, $ff, $d8, $00, $e3, $ff, $ec, $00, $00, $20, $14, $00
05a35     00 40 28 00 
05a39     00 60 3C 00 
05a3d     00 80 50 00 
05a41     00 9F 64 00 | 	byte	$00, $40, $28, $00, $00, $60, $3c, $00, $00, $80, $50, $00, $00, $9f, $64, $00
05a45     00 BF 78 00 
05a49     00 DF 8C 00 
05a4d     00 FF A0 00 
05a51     1C FF AB 00 | 	byte	$00, $bf, $78, $00, $00, $df, $8c, $00, $00, $ff, $a0, $00, $1c, $ff, $ab, $00
05a55     39 FF B5 00 
05a59     55 FF C0 00 
05a5d     71 FF CA 00 
05a61     8E FF D5 00 | 	byte	$39, $ff, $b5, $00, $55, $ff, $c0, $00, $71, $ff, $ca, $00, $8e, $ff, $d5, $00
05a65     AA FF DF 00 
05a69     C6 FF EA 00 
05a6d     E3 FF F4 00 
05a71     00 20 20 00 | 	byte	$aa, $ff, $df, $00, $c6, $ff, $ea, $00, $e3, $ff, $f4, $00, $00, $20, $20, $00
05a75     00 40 40 00 
05a79     00 60 60 00 
05a7d     00 80 80 00 
05a81     00 9F 9F 00 | 	byte	$00, $40, $40, $00, $00, $60, $60, $00, $00, $80, $80, $00, $00, $9f, $9f, $00
05a85     00 BF BF 00 
05a89     00 DF DF 00 
05a8d     00 FF FF 00 
05a91     1C FF FF 00 | 	byte	$00, $bf, $bf, $00, $00, $df, $df, $00, $00, $ff, $ff, $00, $1c, $ff, $ff, $00
05a95     39 FF FF 00 
05a99     55 FF FF 00 
05a9d     71 FF FF 00 
05aa1     8E FF FF 00 | 	byte	$39, $ff, $ff, $00, $55, $ff, $ff, $00, $71, $ff, $ff, $00, $8e, $ff, $ff, $00
05aa5     AA FF FF 00 
05aa9     C6 FF FF 00 
05aad     E3 FF FF 00 
05ab1     00 14 20 00 | 	byte	$aa, $ff, $ff, $00, $c6, $ff, $ff, $00, $e3, $ff, $ff, $00, $00, $14, $20, $00
05ab5     00 28 40 00 
05ab9     00 3C 60 00 
05abd     00 50 80 00 
05ac1     00 64 9F 00 | 	byte	$00, $28, $40, $00, $00, $3c, $60, $00, $00, $50, $80, $00, $00, $64, $9f, $00
05ac5     00 78 BF 00 
05ac9     00 8C DF 00 
05acd     00 A0 FF 00 
05ad1     1C AB FF 00 | 	byte	$00, $78, $bf, $00, $00, $8c, $df, $00, $00, $a0, $ff, $00, $1c, $ab, $ff, $00
05ad5     39 B5 FF 00 
05ad9     55 C0 FF 00 
05add     71 CA FF 00 
05ae1     8E D5 FF 00 | 	byte	$39, $b5, $ff, $00, $55, $c0, $ff, $00, $71, $ca, $ff, $00, $8e, $d5, $ff, $00
05ae5     AA DF FF 00 
05ae9     C6 EA FF 00 
05aed     E3 F4 FF    | 	byte	$aa, $df, $ff, $00, $c6, $ea, $ff, $00, $e3, $f4, $ff
05af0                 | 
05af0                 | '**********************************************************************************
05af0                 | '
05af0                 | '        Timings and colors definitions
05af0                 | '
05af0                 | '**********************************************************************************
05af0                 | 
05af0     00 00 81 70 
05af4     00 00 81 70 
05af8     00 00 81 70 
05afc     00 00 81 70 | timingsxxt      long $70810000, $70810000, $70810000, $70810000, $70810000, $20880000 'streamer sets for text mode, to add to timings[0..5]
05b00     00 00 81 70 
05b04     00 00 88 20 | 	byte	$00, $00, $81, $70, $00, $00, $88, $20
05b08                 | 
05b08                 | '                     bf.hs, hs,  bf.vis  visible, lr bord, pixel, ud bord,  up p., vsync, down p., mode, cpl, scanlines,  clock,                  hubset                  reserved
05b08     10 00 00 00 
05b0c     50 00 00 00 
05b10     14 00 00 00 
05b14     00 04 00 00 | timings000      long   16,   80,    20,    1024,    112,     8,     48,      16,      16,    16,      0,  100,   480,     354693878,   %1_110000__11_0110_1100__1111_1011,   0
05b18     70 00 00 00 
05b1c     08 00 00 00 
05b20     30 00 00 00 
05b24     10 00 00 00 | 	byte	$70, $00, $00, $00, $08, $00, $00, $00, $30, $00, $00, $00, $10, $00, $00, $00
05b28     10 00 00 00 
05b2c     10 00 00 00 
05b30     00 00 00 00 
05b34     64 00 00 00 | 	byte	$10, $00, $00, $00, $10, $00, $00, $00, $00, $00, $00, $00, $64, $00, $00, $00
05b38     E0 01 00 00 
05b3c     F6 32 24 15 
05b40     FB 6C C3 01 
05b44     00 00 00 00 | 	byte	$e0, $01, $00, $00, $f6, $32, $24, $15, $fb, $6c, $c3, $01, $00, $00, $00, $00
05b48     12 00 00 00 
05b4c     40 00 00 00 
05b50     10 00 00 00 
05b54     A0 03 00 00 | timings064      long   18,   64,    16,     928,     24,     8,     24,      24,      32,    24,     64,  110,   496,     319215686,   %1_110010__11_0010_1101__1111_1011,   0
05b58     18 00 00 00 
05b5c     08 00 00 00 
05b60     18 00 00 00 
05b64     18 00 00 00 | 	byte	$18, $00, $00, $00, $08, $00, $00, $00, $18, $00, $00, $00, $18, $00, $00, $00
05b68     20 00 00 00 
05b6c     18 00 00 00 
05b70     40 00 00 00 
05b74     6E 00 00 00 | 	byte	$20, $00, $00, $00, $18, $00, $00, $00, $40, $00, $00, $00, $6e, $00, $00, $00
05b78     F0 01 00 00 
05b7c     46 D8 06 13 
05b80     FB 2D CB 01 
05b84     00 00 00 00 | 	byte	$f0, $01, $00, $00, $46, $d8, $06, $13, $fb, $2d, $cb, $01, $00, $00, $00, $00
05b88     10 00 00 00 
05b8c     40 00 00 00 
05b90     10 00 00 00 
05b94     30 03 00 00 | timings128      long   16,   64,    16,     816,      8,     8,     8,       32,      64,    32,    128,  100,   480,     283750000,   %1_111111__11_1000_1011__1111_1011,   0
05b98     08 00 00 00 
05b9c     08 00 00 00 
05ba0     08 00 00 00 
05ba4     20 00 00 00 | 	byte	$08, $00, $00, $00, $08, $00, $00, $00, $08, $00, $00, $00, $20, $00, $00, $00
05ba8     40 00 00 00 
05bac     20 00 00 00 
05bb0     80 00 00 00 
05bb4     64 00 00 00 | 	byte	$40, $00, $00, $00, $20, $00, $00, $00, $80, $00, $00, $00, $64, $00, $00, $00
05bb8     E0 01 00 00 
05bbc     70 AE E9 10 
05bc0     FB 8B FF 01 
05bc4     00 00 00 00 | 	byte	$e0, $01, $00, $00, $70, $ae, $e9, $10, $fb, $8b, $ff, $01, $00, $00, $00, $00
05bc8     10 00 00 00 
05bcc     50 00 00 00 
05bd0     14 00 00 00 
05bd4     00 04 00 00 | timings192      long   16,   80,    20,    1024,      0,     8,     0,       16,      16,    16,    192,  128,   576,     354693878,   %1_110000__11_0110_1100__1111_1011,   0
05bd8     00 00 00 00 
05bdc     08 00 00 00 
05be0     00 00 00 00 
05be4     10 00 00 00 | 	byte	$00, $00, $00, $00, $08, $00, $00, $00, $00, $00, $00, $00, $10, $00, $00, $00
05be8     10 00 00 00 
05bec     10 00 00 00 
05bf0     C0 00 00 00 
05bf4     80 00 00 00 | 	byte	$10, $00, $00, $00, $10, $00, $00, $00, $c0, $00, $00, $00, $80, $00, $00, $00
05bf8     40 02 00 00 
05bfc     F6 32 24 15 
05c00     FB 6C C3 01 
05c04     00 00 00 00 | 	byte	$40, $02, $00, $00, $f6, $32, $24, $15, $fb, $6c, $c3, $01, $00, $00, $00, $00
05c08     50 00 00 00 
05c0c     A0 00 00 00 
05c10     54 00 00 00 
05c14     30 03 00 00 | timings256      long   80,  160,    84,     816,      8,     8,     8,        8,      12,     8,    256,  100,   480,     357959184,   %1_110000__11_0110_0100__1111_1011,   0
05c18     08 00 00 00 
05c1c     08 00 00 00 
05c20     08 00 00 00 
05c24     08 00 00 00 | 	byte	$08, $00, $00, $00, $08, $00, $00, $00, $08, $00, $00, $00, $08, $00, $00, $00
05c28     0C 00 00 00 
05c2c     08 00 00 00 
05c30     00 01 00 00 
05c34     64 00 00 00 | 	byte	$0c, $00, $00, $00, $08, $00, $00, $00, $00, $01, $00, $00, $64, $00, $00, $00
05c38     E0 01 00 00 
05c3c     10 06 56 15 
05c40     FB 64 C3 01 
05c44     00 00 00 00 | 	byte	$e0, $01, $00, $00, $10, $06, $56, $15, $fb, $64, $c3, $01, $00, $00, $00, $00
05c48     50 00 00 00 
05c4c     32 00 00 00 
05c50     50 00 00 00 
05c54     30 03 00 00 | timings320      long   80,   50,    80,     816,      8,     8,     8,        8,      12,     8,    320,  100,   480,     322162162,   %1_100100__10_0101_0011__1111_1011,   0
05c58     08 00 00 00 
05c5c     08 00 00 00 
05c60     08 00 00 00 
05c64     08 00 00 00 | 	byte	$08, $00, $00, $00, $08, $00, $00, $00, $08, $00, $00, $00, $08, $00, $00, $00
05c68     0C 00 00 00 
05c6c     08 00 00 00 
05c70     40 01 00 00 
05c74     64 00 00 00 | 	byte	$0c, $00, $00, $00, $08, $00, $00, $00, $40, $01, $00, $00, $64, $00, $00, $00
05c78     E0 01 00 00 
05c7c     F2 CD 33 13 
05c80     FB 53 92 01 
05c84     00 00 00 00 | 	byte	$e0, $01, $00, $00, $f2, $cd, $33, $13, $fb, $53, $92, $01, $00, $00, $00, $00
05c88     18 00 00 00 
05c8c     30 00 00 00 
05c90     18 00 00 00 
05c94     30 03 00 00 | timings384      long   24,   48,    24,     816,      8,     8,     8,        8,      12,     8,    384,  100,   480,     286363636,   %1_010101__01_0011_1010__1111_1011,   0
05c98     08 00 00 00 
05c9c     08 00 00 00 
05ca0     08 00 00 00 
05ca4     08 00 00 00 | 	byte	$08, $00, $00, $00, $08, $00, $00, $00, $08, $00, $00, $00, $08, $00, $00, $00
05ca8     0C 00 00 00 
05cac     08 00 00 00 
05cb0     80 01 00 00 
05cb4     64 00 00 00 | 	byte	$0c, $00, $00, $00, $08, $00, $00, $00, $80, $01, $00, $00, $64, $00, $00, $00
05cb8     E0 01 00 00 
05cbc     F4 8F 11 11 
05cc0     FB 3A 55 01 
05cc4     00 00 00 00 | 	byte	$e0, $01, $00, $00, $f4, $8f, $11, $11, $fb, $3a, $55, $01, $00, $00, $00, $00
05cc8     28 00 00 00 
05ccc     40 00 00 00 
05cd0     2A 00 00 00 
05cd4     70 03 00 00 | timings448      long   40,   64,    42,     880,      0,     8,     0,        8,      12,     8,    448,  110,   480,     322162162,   %1_100100__10_0101_0011__1111_1011,   0
05cd8     00 00 00 00 
05cdc     08 00 00 00 
05ce0     00 00 00 00 
05ce4     08 00 00 00 | 	byte	$00, $00, $00, $00, $08, $00, $00, $00, $00, $00, $00, $00, $08, $00, $00, $00
05ce8     0C 00 00 00 
05cec     08 00 00 00 
05cf0     C0 01 00 00 
05cf4     6E 00 00 00 | 	byte	$0c, $00, $00, $00, $08, $00, $00, $00, $c0, $01, $00, $00, $6e, $00, $00, $00
05cf8     E0 01 00 00 
05cfc     F2 CD 33 13 
05d00     FB 53 92 01 
05d04     00 00 00 00 | 	byte	$e0, $01, $00, $00, $f2, $cd, $33, $13, $fb, $53, $92, $01, $00, $00, $00, $00
05d08                 | 
05d08     00 75 C7 97 
05d0c     27 47 F6 0A 
05d10     05 7B CB 9B 
05d14     2B 4B EA 0F | vgacolors       byte   0, 117, 199, 151, 39, 71, 246, 10, 5, 123, 203, 155, 43, 75, 234, 15
05d18                 | 
05d18     28 12 64 FD | hdmi            setq    #9
05d1c     00 2F 05 FB |                 rdlong  framebuf,  ptra                 'read pointers
05d20                 | 
05d20     29 FE 65 FD |                 setq2   #255
05d24     9D 00 00 FB |                 rdlong  $000, paletteptr                'read palette
05d28                 | 
05d28     00 5A 6D FC |                 wrlong  #aend,#0                         'write driver length to hub#0: DEBUG/demo
05d2c     3C 00 66 FD |                 setcmod #$100                           'enable HDMI mode
05d30     07 44 05 F6 |                 mov     ii,#7
05d34     06 44 65 F0 |                 shl     ii,#6
05d38     A0 44 01 F1 |                 add     ii,hbase
05d3c     58 44 61 FD |                 drvl    ii                                 '#7<<6 + hdmi_base      ' enable HDMI pins
05d40     7B 0B 80 FF 
05d44     A2 00 0B FC |                 wrpin   ##%10110_1111_0111_10_00000_0, ii  '#7<<6 + hdmi_base      ' a '123 ohm BITDAC for pins
05d48                 | 
05d48     66 66 86 FF 
05d4c     1D 9A 65 FD |                 setxfrq ##$0CCCCCCC+1                   'set streamer freq to 1/10th clk
05d50                 | 
05d50                 | 
05d50                 | 'Start the frame rendering loop
05d50                 | 
05d50     28 18 64 FD | p101            setq    #12
05d54     9C 00 01 FB |                 rdlong  m_bs,modeptr                     ' read timings
05d58     00 2F 05 FB |                 rdlong framebuf,ptra                     ' if mode changed, the framebuffer will change,too
05d5c     09 14 15 F4 |                 testb   i_modenum,#9 wc                  ' bit #8 set = graphics modes, not yet implemented
05d60     84 01 90 CD |          if_c   jmp #p200                                                                ' jump to graphics mode: TODO, now it will return to p901
05d64                 | 
05d64     01 22 05 F1 | p901            add     frames,#1
05d68     9F 2C 01 FB |                 rdlong  fontstart,fontnumptr             ' TODO: free byte in char buf = font select
05d6c     98 2C 01 F1 |                 add     fontstart,fontbuf
05d70     9B 24 01 FB |                 rdlong  cursorx, cursorptr               ' read cursor position
05d74     92 26 E9 F8 |                 getbyte cursory, cursorx,#1              ' y position at byte #1
05d78     92 20 F1 F8 |                 getbyte cursorsh,cursorx,#2              ' shape at byte #2
05d7c     FF 24 05 F5 |                 and     cursorx,#255                     ' clear the cursor x varioble from y and shape
05d80                 | 
05d80     99 42 01 F6 |                 mov     borderptr2,borderptr             ' borderptr points to border colors table start
05d84     A1 FE 00 FB |                 rdlong  border,borderptr2                ' borderptr2 will change at every char line pointing to the individual border color
05d88     04 42 05 F1 |                 add     borderptr2,#4
05d8c     08 FE 64 F0 |                 shl     border,#8                        ' HDMI driver needs rgb0 format
05d90                 | 
05d90     9E 4E 01 FB |                 rdlong  t1,commandptr                    ' A mailbox interface, read the command
05d94     04 3C 05 F1 |                 add     commandptr,#4
05d98     9E 50 01 FB |                 rdlong  t2,commandptr                    ' read the argument
05d9c     04 3C 85 F1 |                 sub     commandptr,#4                    ' restore the pionter
05da0     00 4F 1D F2 |                 cmp     t1,#256  wcz                     '
05da4     A7 50 31 CC |          if_lt  wrlut   t2,t1                            ' command 0..255-> set the color in LUT
05da8     01 4F 05 F6 |                 mov     t1, #257                         ' 257=idle
05dac                 | 
05dac     9E 4E 61 FC |                 wrlong  t1,commandptr                    ' write 257 to hub variable so the program can test if command was done
05db0                 |  '' up porch
05db0                 | 
05db0     7B 48 01 F6 |                 mov     hsync0,sync_000                  '
05db4     7C 4A 01 F6 |                 mov     hsync1,sync_001
05db8     4C 0E 45 FB |                 callpa  i_upporch ,#blank
05dbc     9A 00 48 FC |                 wrbyte  #0,vblankptr
05dc0                 | 
05dc0                 | '' cursor blinking
05dc0                 | 
05dc0     04 22 0D F4 |                 testb   frames,#4 wz                     ' cursor blinks at framerate/16, todo: define
05dc4     81 24 05 A6 |          if_z   mov     cursorx,#129                     ' to switch the cursor off, move it out of the screen
05dc8                 | 
05dc8     86 44 09 F6 |                 mov     ii, i_vborder wz                 ' read upper border parameter
05dcc     0C 00 90 AD |                 if_z jmp #p111                           ' if zero, don't make a border
05dd0                 | 
05dd0                 | '' border, if exists
05dd0                 | 
05dd0     24 01 B0 FD | up_border       call    #hsync                           ' make a border
05dd4     7F 06 C1 FC |                 xcont   m_vi,border
05dd8     FD 45 6D FB |                 djnz    ii,#up_border
05ddc                 | 
05ddc                 | '' active lines
05ddc                 | 
05ddc     8C 44 01 F6 | p111            mov     ii,i_lines                      ' read active lines count
05de0     00 1C 05 F6 |                 mov     linenum,#0                      ' set line number to 0
05de4                 | 
05de4     92 2A 01 F6 | line1           mov     cursorpos2,cursorx              ' we need another var for cursor as this code will repeat 16x for every char line
05de8                 | 
05de8     8E 4C 41 F8 |                 getnib  fontline,linenum,#0             ' fontline is 0 to 15, a line in font def
05dec     97 46 01 F6 |                 mov     framebuf2,framebuf              ' compute a line start in the framebuffer, which is (line div 16)*cpl
05df0     8E 1A 01 F6 |                 mov     linestart,linenum               ' linestart will be used for checking cursor y and compute line start addr in the buffer
05df4     04 1A 45 F0 |                 shr     linestart,#4                    ' scanline to char line
05df8     93 1A 09 F2 |                 cmp     linestart,cursory wz            ' if the cursor is not here
05dfc     81 2A 05 56 |           if_nz mov     cursorpos2,#129                 ' move it out of the screen
05e00     8B 1A 01 FA |                 mul     linestart,i_cpl                 ' compute the address of char line in the buffer
05e04     02 1A 65 F0 |                 shl     linestart,#2
05e08     8D 46 01 F1 |                 add     framebuf2,linestart             ' and add it to the buffer start address
05e0c                 | 
05e0c     E8 00 B0 FD |                 call    #hsync                          ' now call hsync to gain some time between xconts
05e10                 | 
05e10     00 4C 0D F2 |                 cmp     fontline,#0 wz
05e14     0C 00 90 5D |           if_nz jmp     #p102                           ' if fontline =0, get a border color
05e18                 | 
05e18     A1 FE 00 FB |                 rdlong  border,borderptr2
05e1c     04 42 05 F1 |                 add     borderptr2,#4
05e20     08 FE 64 F0 |                 shl     border,#8
05e24                 | 
05e24     84 4E 31 F9 | p102            getword t1,m_border,#0                  ' else use the same border color for all the character line
05e28     00 4E 0D F2 |                 cmp     t1, #0 wz
05e2c     7F 08 C1 5C |           if_nz xcont   m_border,border                 ' display a left border
05e30     90 4C 19 F2 |                 cmp     fontline,cursorsh wcz           ' if the cursor have to be not displayed due to its shape
05e34     81 28 05 C6 |           if_c  mov     cursorpos,#129                  ' move it out of the screen
05e38     95 28 01 36 |          if_nc  mov     cursorpos,cursorpos2
05e3c     01 28 05 F1 |                 add     cursorpos,#1                    ' we will substract #1 below so compensate this here
05e40     96 50 01 F6 |                 mov     t2,fontstart                    ' font definition pointer
05e44     A6 50 01 F1 |                 add     t2,fontline                     ' add a current font line
05e48     8B 28 D8 FC |                 rep     @p103,i_cpl                     ' display cpl chars
05e4c                 | ''---------------------------------------------------------------------------------------
05e4c     A3 52 01 FB |                         rdlong  char,framebuf2          ' read a long char                          '1
05e50     A9 54 F1 F8 |                         getbyte backcolor,char,#2       ' byte #2 - background color                '2
05e54     A9 56 F9 F8 |                         getbyte charcolor,char,#3       ' byte #3 - foreground color                '3
05e58     A9 52 E1 F8 |                         getbyte char,char, #0           ' byte #0 - char code                       '4
05e5c     04 46 05 F1 |                         add     framebuf2,#4            ' point to the next long                    '5
05e60     04 52 65 F0 |                         shl     char,#4                 ' 1 char=16 bytes in font def               '6
05e64     A8 52 01 F1 |                         add     char,t2                 ' add this to font/line pointer             '7
05e68     A9 4E C1 FA |                         rdbyte  t1,char                 ' and get 8 pixels prom there               '8
05e6c     01 28 8D F1 |                         sub     cursorpos,#1 wz         ' if there is a cursor                      '9
05e70     FF 4E 65 A5 |                 if_z    xor     t1, #$FF                ' reverse the colors                        '10
05e74                 |                                                  ' prepare to sprite function, not yet implemented
05e74     61 4E 61 FD |                         mergeb  t1                                              ' convert to 16-color mode                                      '11
05e78     A7 0A C1 FC |                         xcont   m_lut1,t1               ' and display this                          '12
05e7c                 | 
05e7c     AA 4E A1 FA |                         rdlut   t1,backcolor            ' read a background color from palette      '13
05e80     8F 4E 31 FC |                         wrlut   t1,lutaddr              ' and write it to LUT #0 or #32             '14
05e84     01 1E 05 F1 |                         add     lutaddr,#1                                                          '15
05e88                 | 
05e88     AB 4E A1 FA |                         rdlut   t1,charcolor            ' the same for the foreground               '16
05e8c     8F 4E 31 FC |                         wrlut   t1,lutaddr                                                          '17
05e90     01 1E 85 F1 |                         sub     lutaddr,#1                                                          '18
05e94                 | 
05e94     10 0A E5 F4 |                         bitnot  m_lut1,#16                                                          '19
05e98     20 1E 65 F5 |                         xor     lutaddr,#32             ' use LUT #0-1 and 32-33                    '20
05e9c                 | 
05e9c                 | '------------------------ only 8 nops left :(
05e9c                 | 
05e9c                 | '' rep end ----------------------------------------------------------------------------
05e9c                 | 
05e9c                 | 
05e9c     84 4E 31 F9 | p103            getword t1,m_border,#0
05ea0     00 4E 0D F2 |                 cmp     t1, #0 wz
05ea4     7F 08 C1 5C |                 if_nz xcont   m_border,border            'display a right border if exists
05ea8                 | 
05ea8     01 1C 05 F1 |                 add     linenum, #1
05eac     CD 45 6D FB |                 djnz    ii,#line1                       ' and goto next line if not all were displayed
05eb0                 | 
05eb0                 | '' end of active screen
05eb0                 | 
05eb0     9A 02 68 FC |                 wrlong  #1,vblankptr
05eb4     86 44 09 F6 |                 mov     ii,i_vborder wz                  'make a lower border if exists
05eb8     18 00 90 AD |           if_z jmp #p112
05ebc                 | 
05ebc     A1 FE 00 FB |                  rdlong  border,borderptr2
05ec0     04 42 05 F1 |                  add     borderptr2,#4
05ec4     08 FE 64 F0 |                  shl     border,#8
05ec8     2C 00 B0 FD | down_border      call    #hsync
05ecc     7F 06 C1 FC |                  xcont   m_vi,border
05ed0     FD 45 6D FB |                  djnz    ii,#down_border
05ed4                 | 
05ed4     05 12 45 FB | p112             callpa  i_downporch ,#blank             'bottom blanks
05ed8                 | 
05ed8     7D 48 01 F6 |                  mov     hsync0,sync_222                 'vsync on
05edc     7E 4A 01 F6 |                  mov     hsync1,sync_223
05ee0     02 10 45 FB |                  callpa  i_vsync,#blank                  'vertical sync blanks
05ee4     68 FE 9F FD |                  jmp     #p101                            'loop
05ee8                 | 
05ee8                 | 
05ee8                 | ' The bitmap driver will start here
05ee8     78 FE 9F FD | p200                     jmp    #p901
05eec                 | 
05eec                 | 
05eec                 | '--------------------------------------------------------------------------
05eec                 | 
05eec                 | 
05eec                 | 
05eec     08 00 B0 FD | blank           call    #hsync                          'blank lines
05ef0     A4 06 C1 FC |                 xcont   m_vi,hsync0
05ef4     FD ED 6F 0B |         _ret_   djnz    pa,#blank
05ef8                 | 
05ef8     A4 00 C1 FC | hsync           xcont   m_bs,hsync0                     'horizontal sync
05efc     A5 02 B1 FC |                 xzero   m_sn,hsync1
05f00     A4 04 C1 0C |         _ret_   xcont   m_bv,hsync0
05f04                 | 
05f04                 | '' consts and vars
05f04                 | 
05f04     52 4D 35 D5 | sync_000        long    %1101010100_1101010100_1101010100_10    '
05f08     AE 42 35 D5 | sync_001        long    %1101010100_1101010100_0010101011_10    '        hsync
05f0c     52 45 15 55 | sync_222        long    %0101010100_0101010100_0101010100_10    'vsync
05f10     AE 4A 15 55 | sync_223        long    %0101010100_0101010100_1010101011_10    'vsync + hsync
05f14                 | 
05f14     00 2C 1A 00 | border          long    %00000000_00011010_00101100_00000000
05f18                 | 
05f18                 | '------ these longs will be set by setmode function
05f18                 | 
05f18     00 00 00 00 | m_bs            long    0        'blanks before sync
05f1c     00 00 00 00 | m_sn            long    0        'sync
05f20     00 00 00 00 | m_bv            long    0        'blanks before visible
05f24     00 00 00 00 | m_vi            long    0        'visible pixels #
05f28     00 00 00 00 | m_border        long    0        'left/right borders
05f2c     00 00 00 00 | m_lut1          long    0        'characters
05f30     00 00 00 00 | i_vborder       long    0        'up/down borders
05f34     00 00 00 00 | i_upporch       long    0        'up porch lines
05f38     00 00 00 00 | i_vsync         long    0        'vsync lines
05f3c     00 00 00 00 | i_downporch     long    0        'down porch lines
05f40     00 00 00 00 | i_modenum       long    0        'mode #
05f44     00 00 00 00 | i_cpl               long    0        'chars per line
05f48     00 00 00 00 | i_lines         long    0        'scanlines #
05f4c                 | 
05f4c     00 00 00 00 | linestart       long    0
05f50     00 00 00 00 | linenum         long    0
05f54     00 01 00 00 | lutaddr         long    256
05f58                 | 
05f58     0E 00 00 00 | cursorsh        long    14
05f5c     00 00 00 00 | frames          long    0
05f60     00 00 00 00 | cursorx         long    0
05f64     00 00 00 00 | cursory         long    0
05f68     00 00 00 00 | cursorpos       long    0
05f6c     00 00 00 00 | cursorpos2      long    0
05f70     00 00 00 00 | fontstart       long    0
05f74                 | 
05f74                 | framebuf        res     1
05f74                 | fontbuf         res     1
05f74                 | borderptr       res     1
05f74                 | vblankptr       res     1
05f74                 | cursorptr       res     1
05f74                 | modeptr         res     1
05f74                 | paletteptr      res     1
05f74                 | commandptr      res     1
05f74                 | 
05f74                 | fontnumptr      res     1
05f74                 | hbase           res     1
05f74                 | borderptr2      res     1
05f74                 | 
05f74                 | ii              res     1
05f74                 | framebuf2       res     1
05f74                 | hsync0          res     1
05f74                 | hsync1          res     1
05f74                 | fontline        res     1
05f74                 | t1              res     1
05f74                 | t2              res     1
05f74                 | char            res     1
05f74                 | backcolor       res     1
05f74                 | charcolor       res     1
05f74                 | repnum res 1
05f74     00 00 00 00 | aend             long 0
05f78                 | objmem
05f78     00 00 00 00 
      ...             
06158     00 00 00 00 
0615c     00 00 00 00 | 	long	0[122]
06160                 | stackspace
06160     00 00 00 00 | 	long	0[1]
06164 07e             | 	org	COG_BSS_START
06164 07e             | _var01
06164 07e             | 	res	1
06164 07f             | _var02
06164 07f             | 	res	1
06164 080             | _var03
06164 080             | 	res	1
06164 081             | _var04
06164 081             | 	res	1
06164 082             | _var05
06164 082             | 	res	1
06164 083             | _var06
06164 083             | 	res	1
06164 084             | _var07
06164 084             | 	res	1
06164 085             | _var08
06164 085             | 	res	1
06164 086             | arg01
06164 086             | 	res	1
06164 087             | arg02
06164 087             | 	res	1
06164 088             | arg03
06164 088             | 	res	1
06164 089             | arg04
06164 089             | 	res	1
06164 08a             | arg05
06164 08a             | 	res	1
06164 08b             | arg06
06164 08b             | 	res	1
06164 08c             | arg07
06164 08c             | 	res	1
06164 08d             | arg08
06164 08d             | 	res	1
06164 08e             | arg09
06164 08e             | 	res	1
06164 08f             | arg10
06164 08f             | 	res	1
06164 090             | arg11
06164 090             | 	res	1
06164 091             | arg12
06164 091             | 	res	1
06164 092             | arg13
06164 092             | 	res	1
06164 093             | arg14
06164 093             | 	res	1
06164 094             | arg15
06164 094             | 	res	1
06164 095             | arg16
06164 095             | 	res	1
06164 096             | arg17
06164 096             | 	res	1
06164 097             | arg18
06164 097             | 	res	1
06164 098             | local01
06164 098             | 	res	1
06164 099             | local02
06164 099             | 	res	1
06164 09a             | local03
06164 09a             | 	res	1
06164 09b             | local04
06164 09b             | 	res	1
06164 09c             | local05
06164 09c             | 	res	1
06164 09d             | local06
06164 09d             | 	res	1
06164 09e             | local07
06164 09e             | 	res	1
06164 09f             | local08
06164 09f             | 	res	1
06164 0a0             | local09
06164 0a0             | 	res	1
06164 0a1             | local10
06164 0a1             | 	res	1
06164 0a2             | local11
06164 0a2             | 	res	1
06164 0a3             | local12
06164 0a3             | 	res	1
06164 0a4             | local13
06164 0a4             | 	res	1
06164 0a5             | local14
06164 0a5             | 	res	1
06164 0a6             | local15
06164 0a6             | 	res	1
06164 0a7             | local16
06164 0a7             | 	res	1
06164 0a8             | local17
06164 0a8             | 	res	1
06164 0a9             | local18
06164 0a9             | 	res	1
06164 0aa             | local19
06164 0aa             | 	res	1
06164 0ab             | local20
06164 0ab             | 	res	1
06164 0ac             | local21
06164 0ac             | 	res	1
06164 0ad             | local22
06164 0ad             | 	res	1
06164 0ae             | local23
06164 0ae             | 	res	1
06164 0af             | muldiva_
06164 0af             | 	res	1
06164 0b0             | muldivb_
06164 0b0             | 	res	1
06164 0b1             | 	fit	480