
00000                 | 
00000                 | #line 1 "D:/Programowanie/ultibo-propeller/hng012/hngdemo.p2asm"
00000                 | ' 
00000                 | ' _clkfreq        = 200000000      'start safe, hubset will do the rest
00000                 | con
00000                 | 	_clkfreq = 200000000
00000                 | ' hdmi_base       = 48             'must be a multiple of 8
00000                 | 	hdmi_base = 48
00000                 | dat
00000 000 00 00 00 00 | 	nop
00004 001 01 EC 63 FD | 	cogid	pa
00008 002 02 00 00 FF 
0000c 003 00 EC E7 FC | 	coginit	pa,##$400
00010                 | 	orgh	$10
00010     00 00 00 00 | 	long	0	'reserved
00014     00 00 00 00 | 	long	0 ' clock frequency: will default to 200000000
00018     00 00 00 00 | 	long	0 ' clock mode: will default to $10009fb
0001c     00 00 00 00 
      ...             
003f8     00 00 00 00 
003fc     00 00 00 00 | 	orgh	$400
00400 000             | 	org	0
00400 000             | entry
00400 000 00 F0 0F F2 | 	cmp	ptra, #0 wz
00404 001 94 00 90 5D |  if_ne	jmp	#spininit
00408 002 78 F0 03 F6 | 	mov	ptra, objptr
0040c 003 E8 F1 07 F1 | 	add	ptra, #488
00410 004 14 EC 0F FB | 	rdlong	pa, #20 wz
00414 005 68 00 90 5D |  if_ne	jmp	#skip_clock_set_
00418 006 00 00 64 FD | 	hubset	#0
0041c 007 04 80 80 FF 
00420 008 00 F0 67 FD | 	hubset	##16779768
00424 009 86 01 80 FF 
00428 00a 1F 80 66 FD | 	waitx	##200000
0042c 00b 04 80 00 FF 
00430 00c FB ED 07 F6 | 	mov	pa, ##16779771
00434 00d 00 EC 63 FD | 	hubset	pa
00438 00e 18 EC 67 FC | 	wrlong	pa, #24
0043c 00f E1 F5 85 FF 
00440 010 14 00 6C FC | 	wrlong	##200000000, #20
00444 011 38 00 90 FD | 	jmp	#skip_clock_set_
00448 012 00 00 00 00 
      ...             
00478 01e 00 00 00 00 
0047c 01f 00 00 00 00 | 	orgf	32
00480 020             | skip_clock_set_
00480 020 04 EA 60 FD | 	locknew	__lockreg
00484 021 79 EA 60 FC | 	wrlong	__lockreg, ptr___lockreg_
00488 022 F4 05 A0 FD | 	call	#_demo
0048c 023             | cogexit
0048c 023 38 01 80 FF 
00490 024 1F 00 66 FD | 	waitx	##160000
00494 025 01 08 61 FD | 	cogid	arg01
00498 026 03 08 61 FD | 	cogstop	arg01
0049c 027             | spininit
0049c 027 00 F1 04 FB | 	rdlong	objptr, ptra
004a0 028 04 F0 07 F1 | 	add	ptra, #4
004a4 029 00 F9 04 FB | 	rdlong	result1, ptra
004a8 02a 04 F0 07 F1 | 	add	ptra, #4
004ac 02b 00 09 05 FB | 	rdlong	arg01, ptra
004b0 02c 04 F0 07 F1 | 	add	ptra, #4
004b4 02d 00 0B 05 FB | 	rdlong	arg02, ptra
004b8 02e 04 F0 07 F1 | 	add	ptra, #4
004bc 02f 00 0D 05 FB | 	rdlong	arg03, ptra
004c0 030 04 F0 07 F1 | 	add	ptra, #4
004c4 031 00 0F 05 FB | 	rdlong	arg04, ptra
004c8 032 10 F0 87 F1 | 	sub	ptra, #16
004cc 033 2D F8 60 FD | 	call	result1
004d0 034 B8 FF 9F FD | 	jmp	#cogexit
004d4 035             | FCACHE_LOAD_
004d4 035 2B 86 60 FD |     pop	fcache_tmpb_
004d8 036 F6 87 00 F1 |     add	fcache_tmpb_, pa
004dc 037 2A 86 60 FD |     push	fcache_tmpb_
004e0 038 F6 87 80 F1 |     sub	fcache_tmpb_, pa
004e4 039 02 EC 47 F0 |     shr	pa, #2
004e8 03a F6 85 00 F6 |     mov	fcache_tmpa_, pa
004ec 03b 00 85 04 F1 |     add	fcache_tmpa_, #$100
004f0 03c 42 82 30 FC |     wrlut ret_instr_, fcache_tmpa_
004f4 03d 01 EC 87 F1 |     sub	pa, #1
004f8 03e 29 EC 63 FD |     setq2	pa
004fc 03f 43 00 02 FB |     rdlong	$100-0, fcache_tmpb_
00500 040 00 03 80 FD |     jmp	#\$300 ' jmp to cache
00504 041             | ret_instr_
00504 041 2D 00 64 FD |     ret
00508 042             | fcache_tmpa_
00508 042 00 00 00 00 |     long 0
0050c 043             | fcache_tmpb_
0050c 043 00 00 00 00 |     long 0
00510 044             | COUNT_
00510 044 00 00 00 00 |     long 0
00514 045             | RETADDR_
00514 045 00 00 00 00 |     long 0
00518 046             | fp
00518 046 00 00 00 00 |     long 0
0051c 047             | gosub_
0051c 047 00 88 04 F6 |     mov  COUNT_, #0
00520 048 84 EC 03 F6 |     mov  pa, arg01
00524 049 2B 8A 60 FD |     pop  RETADDR_
00528 04a 1C 00 90 FD |     jmp  #pushregs_done_
0052c 04b             | pushregs_
0052c 04b 2B EC 63 FD |     pop  pa
00530 04c 2B 8A 60 FD |     pop  RETADDR_
00534 04d 04 88 94 FB |     tjz  COUNT_, #pushregs_done_
00538 04e 01 88 84 F1 |     sub  COUNT_, #1
0053c 04f 28 88 60 FD |     setq COUNT_
00540 050 00 2D 65 FC |     wrlong local01, ptra
00544 051 01 88 04 F1 |     add  COUNT_, #1
00548 052             | pushregs_done_
00548 052 02 88 64 F0 |     shl  COUNT_, #2
0054c 053 44 F0 03 F1 |     add  ptra, COUNT_
00550 054 02 88 44 F0 |     shr  COUNT_, #2
00554 055 28 04 64 FD |     setq #2 ' push 3 registers starting at COUNT_
00558 056 00 89 64 FC |     wrlong COUNT_, ptra
0055c 057 0C F0 07 F1 |     add    ptra, #12
00560 058 F8 8D 00 F6 |     mov    fp, ptra
00564 059 2C EC 63 FD |     jmp  pa
00568 05a             |  popregs_
00568 05a 2B EC 63 FD |     pop    pa
0056c 05b 0C F0 87 F1 |     sub    ptra, #12
00570 05c 28 04 64 FD |     setq   #2
00574 05d 00 89 04 FB |     rdlong COUNT_, ptra
00578 05e 06 88 94 FB |     tjz    COUNT_, #popregs__ret
0057c 05f 02 88 64 F0 |     shl    COUNT_, #2
00580 060 44 F0 83 F1 |     sub    ptra, COUNT_
00584 061 02 88 44 F0 |     shr    COUNT_, #2
00588 062 01 88 84 F1 |     sub    COUNT_, #1
0058c 063 28 88 60 FD |     setq   COUNT_
00590 064 00 2D 05 FB |     rdlong local01, ptra
00594 065             | popregs__ret
00594 065 2A 8A 60 FD |     push   RETADDR_
00598 066 2C EC 63 FD |     jmp    pa
0059c 067             | 
0059c 067             | unsdivide_
0059c 067 28 00 64 FD |        setq    #0
005a0 068 DB B4 11 FD |        qdiv    muldiva_, muldivb_
005a4 069 18 B6 61 FD |        getqx   muldivb_
005a8 06a 19 B4 61 0D |  _ret_ getqy   muldiva_
005ac 06b             | 
005ac 06b             | divide_
005ac 06b DA B4 51 F6 |        abs     muldiva_,muldiva_     wc       'abs(x)
005b0 06c 03 EE 84 F5 |        muxc    itmp2_,#%11                    'store sign of x
005b4 06d DB B6 59 F6 |        abs     muldivb_,muldivb_     wcz      'abs(y)
005b8 06e 02 EE 64 C5 |  if_c  xor     itmp2_,#%10                    'store sign of y
005bc 06f 2D 00 64 AD |  if_z  ret
005c0 070 D8 FF BF FD |        call    #unsdivide_
005c4 071 01 EE D4 F7 |        test    itmp2_,#1        wc       'restore sign, remainder
005c8 072 DA B4 81 F6 |        negc    muldiva_,muldiva_ 
005cc 073 02 EE D4 F7 |        test    itmp2_,#%10      wc       'restore sign, division result
005d0 074 DB B6 81 06 |  _ret_ negc    muldivb_,muldivb_
005d4 075             | 
005d4 075             | __lockreg
005d4 075 00 00 00 00 | 	long	0
005d8 076             | itmp1_
005d8 076 00 00 00 00 | 	long	0
005dc 077             | itmp2_
005dc 077 00 00 00 00 | 	long	0
005e0 078             | objptr
005e0 078 10 5D 00 00 | 	long	@objmem
005e4 079             | ptr___lockreg_
005e4 079 D4 05 00 00 | 	long	@__lockreg
005e8 07a             | ptr__dat__
005e8 07a 84 3C 00 00 | 	long	@_dat_
005ec 07b             | ptr__hng012_dat__
005ec 07b 88 3C 00 00 | 	long	@_hng012_dat_
005f0 07c             | result1
005f0 07c 00 00 00 00 | 	long	0
005f4 07d             | COG_BSS_START
005f4 07d             | 	fit	480
005f4                 | 	orgh
005f4                 | hubentry
005f4                 | 
005f4                 | ' 
005f4                 | ' pub demo() | random,  j, k, s1,s2,s3,s4,s5,s6,s7,s8
005f4                 | _demo
005f4     44 88 04 F6 | 	mov	COUNT_, #68
005f8     4B 00 A0 FD | 	call	#pushregs_
005fc                 | ' 
005fc                 | ' s1:=string("A HDMI Nostalgic text driver demo")
005fc     18 00 00 FF 
00600     58 2D 05 F6 | 	mov	local01, ##@LR__0156
00604                 | ' s2:=string("It uses 8x16 font")
00604                 | ' s3:=string("Every character has its own foreground and background color")
00604     18 00 00 FF 
00608     8C 2F 05 F6 | 	mov	local02, ##@LR__0158
0060c                 | ' s4:=string("Every line has its own border color")
0060c     18 00 00 FF 
00610     C8 31 05 F6 | 	mov	local03, ##@LR__0159
00614                 | ' s5:=string("The hub RAM is used for the color buffer")
00614     18 00 00 FF 
00618     EC 33 05 F6 | 	mov	local04, ##@LR__0160
0061c                 | ' s6:=string("You can set colors for all the screen using one function call")
0061c     19 00 00 FF 
00620     15 34 05 F6 | 	mov	local05, ##@LR__0161
00624                 | ' s7:=string("You can set border color for all the screen using one function call, too")
00624     19 00 00 FF 
00628     53 36 05 F6 | 	mov	local06, ##@LR__0162
0062c                 | ' s8:=string("1234567890")
0062c                 | ' 
0062c                 | ' 
0062c                 | ' 
0062c                 | ' v.start(448,hdmi_base)
0062c     C0 09 05 F6 | 	mov	arg01, #448
00630     30 0A 05 F6 | 	mov	arg02, #48
00634     B4 F0 04 F1 | 	add	objptr, #180
00638     78 38 01 F6 | 	mov	local07, objptr
0063c                 | ' 
0063c                 | ' ' initialize pointers and variables
0063c                 | ' 
0063c                 | ' border_ptr:=@bordercolor
0063c     24 F0 84 F1 | 	sub	objptr, #36
00640     78 38 61 FC | 	wrlong	local07, objptr
00644     7B 3A 01 F6 | 	mov	local08, ptr__hng012_dat__
00648                 | ' font_ptr:=@vga_font
00648     04 F0 84 F1 | 	sub	objptr, #4
0064c     78 3A 61 FC | 	wrlong	local08, objptr
00650                 | ' hdmibase:=base
00650     20 F0 04 F1 | 	add	objptr, #32
00654     78 60 68 FC | 	wrlong	#48, objptr
00658     24 F0 84 F1 | 	sub	objptr, #36
0065c                 | ' 
0065c                 | ' ' the mode has to be set here to enable computing the buffer length
0065c                 | ' 
0065c                 | ' setmode(mode)
0065c     A4 26 B0 FD | 	call	#_hng012_setmode
00660     D4 F0 04 F1 | 	add	objptr, #212
00664     78 3C 01 F6 | 	mov	local09, objptr
00668                 | ' 
00668                 | ' 
00668                 | ' 
00668                 | ' vblank_ptr:=@vblank
00668     C8 F0 84 F1 | 	sub	objptr, #200
0066c     78 3C 61 FC | 	wrlong	local09, objptr
00670     BC F0 04 F1 | 	add	objptr, #188
00674     78 3E 01 F6 | 	mov	local10, objptr
00678                 | ' cursor_ptr:=@cursor_x
00678     B8 F0 84 F1 | 	sub	objptr, #184
0067c     78 3E 61 FC | 	wrlong	local10, objptr
00680     0C 00 00 FF 
00684     00 F6 04 F1 | 	add	ptr__hng012_dat__, ##6144
00688                 | ' 
00688                 | ' palette_ptr:=@ataripalette
00688     08 F0 04 F1 | 	add	objptr, #8
0068c     78 F6 60 FC | 	wrlong	ptr__hng012_dat__, objptr
00690     14 F1 04 F1 | 	add	objptr, #276
00694     78 40 01 F6 | 	mov	local11, objptr
00698                 | ' command_ptr:=@cmd1
00698     10 F1 84 F1 | 	sub	objptr, #272
0069c     78 40 61 FC | 	wrlong	local11, objptr
006a0     18 F1 04 F1 | 	add	objptr, #280
006a4     78 42 01 F6 | 	mov	local12, objptr
006a8                 | ' fontnum_ptr:=@fontnum
006a8     14 F1 84 F1 | 	sub	objptr, #276
006ac     78 42 61 FC | 	wrlong	local12, objptr
006b0                 | ' 
006b0                 | ' fontnum:=0  ' PC type font ' TODO: font# in buffer byte #1
006b0     14 F1 04 F1 | 	add	objptr, #276
006b4     78 00 68 FC | 	wrlong	#0, objptr
006b8     1C F0 04 F1 | 	add	objptr, #28
006bc     78 08 01 F6 | 	mov	arg01, objptr
006c0     50 F1 84 F1 | 	sub	objptr, #336
006c4     03 00 00 FF 
006c8     18 F6 04 F1 | 	add	ptr__hng012_dat__, ##1560
006cc     7B 0A 01 F6 | 	mov	arg02, ptr__hng012_dat__
006d0     0F 00 00 FF 
006d4     18 F6 84 F1 | 	sub	ptr__hng012_dat__, ##7704
006d8                 | ' bytemove(@colors,@vgacolors,16)
006d8     10 0C 05 F6 | 	mov	arg03, #16
006dc     18 29 B0 FD | 	call	#__system__bytemove
006e0                 | ' 
006e0                 | ' ' initialize a cursor
006e0                 | ' 
006e0                 | ' cursor_x:=0
006e0     C8 F0 04 F1 | 	add	objptr, #200
006e4     78 00 48 FC | 	wrbyte	#0, objptr
006e8                 | ' cursor_y:=0
006e8     01 F0 04 F1 | 	add	objptr, #1
006ec     78 00 48 FC | 	wrbyte	#0, objptr
006f0                 | ' cursor_sh:=14
006f0     01 F0 04 F1 | 	add	objptr, #1
006f4     78 1C 48 FC | 	wrbyte	#14, objptr
006f8                 | ' 
006f8                 | ' cmd1:=257 ' set command idle
006f8     62 F0 04 F1 | 	add	objptr, #98
006fc     78 02 6A FC | 	wrlong	#257, objptr
00700     2C F1 84 F1 | 	sub	objptr, #300
00704                 | ' 
00704                 | ' ' start the cog
00704                 | ' 
00704                 | ' cog:=coginit(16,@hdmi, @buf_ptr)
00704     0F 00 00 FF 
00708     28 F6 04 F1 | 	add	ptr__hng012_dat__, ##7720
0070c     7B 0A 01 F6 | 	mov	arg02, ptr__hng012_dat__
00710     0F 00 00 FF 
00714     28 F6 84 F1 | 	sub	ptr__hng012_dat__, ##7720
00718     78 0C 01 F6 | 	mov	arg03, objptr
0071c     10 08 05 F6 | 	mov	arg01, #16
00720     28 0C 61 FD | 	setq	arg03
00724     85 08 F1 FC | 	coginit	arg01, arg02 wc
00728     01 08 65 C6 |  if_b	neg	arg01, #1
0072c     84 F8 00 F6 | 	mov	result1, arg01
00730     7C 44 01 F6 | 	mov	local13, result1
00734     28 F0 04 F1 | 	add	objptr, #40
00738     78 44 61 FC | 	wrlong	local13, objptr
0073c     28 F0 84 F1 | 	sub	objptr, #40
00740                 | ' waitms(20)
00740     14 46 05 F6 | 	mov	local14, #20
00744     14 48 05 FB | 	rdlong	local15, #20
00748     CC F8 9F FE | 	loc	pa,	#(@LR__0002-@LR__0001)
0074c     35 00 A0 FD | 	call	#FCACHE_LOAD_
00750                 | LR__0001
00750     01 00 00 FF 
00754     E8 47 5D F2 | 	cmps	local14, ##1000 wcz
00758     1F 48 61 1D |  if_a	waitx	local15
0075c     01 00 00 1F 
00760     E8 47 85 11 |  if_a	sub	local14, ##1000
00764     E8 FF 9F 1D |  if_a	jmp	#LR__0001
00768                 | LR__0002
00768     00 46 5D F2 | 	cmps	local14, #0 wcz
0076c     1C 00 90 ED |  if_be	jmp	#LR__0003
00770     A4 B4 01 F6 | 	mov	muldiva_, local15
00774     01 00 00 FF 
00778     E8 B7 05 F6 | 	mov	muldivb_, ##1000
0077c     6B 00 A0 FD | 	call	#divide_
00780     DB 46 01 FD | 	qmul	local14, muldivb_
00784     18 08 61 FD | 	getqx	arg01
00788     1F 08 61 FD | 	waitx	arg01
0078c                 | LR__0003
0078c                 | ' 
0078c                 | ' ' clear the screen and set the colors to green on black
0078c                 | ' 
0078c                 | ' cls(c_green,c_black)
0078c     C7 08 05 F6 | 	mov	arg01, #199
00790     00 0A 05 F6 | 	mov	arg02, #0
00794     C8 1C B0 FD | 	call	#_hng012_cls
00798                 | ' setbordercolors(0,0,0)
00798     00 08 05 F6 | 	mov	arg01, #0
0079c     00 0A 05 F6 | 	mov	arg02, #0
007a0     00 0C 05 F6 | 	mov	arg03, #0
007a4     7C 1B B0 FD | 	call	#_hng012_setbordercolors
007a8                 | ' setwritecolors(c_green,c_black)
007a8                 | ' 
007a8                 | ' 
007a8                 | ' write_color:=ff
007a8     CC F0 04 F1 | 	add	objptr, #204
007ac     78 8E 69 FC | 	wrlong	#199, objptr
007b0                 | ' write_background:=bb
007b0     04 F0 04 F1 | 	add	objptr, #4
007b4     78 00 68 FC | 	wrlong	#0, objptr
007b8                 | ' 
007b8                 | ' return cog
007b8     A8 F0 84 F1 | 	sub	objptr, #168
007bc     78 F8 00 FB | 	rdlong	result1, objptr
007c0     B0 F0 84 F1 | 	sub	objptr, #176
007c4                 | ' 
007c4                 | ' j:=0
007c4                 | ' 
007c4                 | ' repeat
007c4                 | LR__0004
007c4                 | ' 
007c4                 | '   v.cls(v.c_green,v.c_black)
007c4     C7 08 05 F6 | 	mov	arg01, #199
007c8     00 0A 05 F6 | 	mov	arg02, #0
007cc     88 F0 04 F1 | 	add	objptr, #136
007d0     8C 1C B0 FD | 	call	#_hng012_cls
007d4                 | '   v.waitvbl(60)
007d4     3C 08 05 F6 | 	mov	arg01, #60
007d8     68 1A B0 FD | 	call	#_hng012_waitvbl
007dc                 | ' 
007dc                 | '   v.writeln(string("P2 Retromachine DOS v. 0.00"))
007dc     19 00 00 FF 
007e0     A7 08 05 F6 | 	mov	arg01, ##@LR__0164
007e4     C0 21 B0 FD | 	call	#_hng012_writeln
007e8                 | '   v.waitvbl(120)
007e8     78 08 05 F6 | 	mov	arg01, #120
007ec     54 1A B0 FD | 	call	#_hng012_waitvbl
007f0                 | '   v.crlf()
007f0     E8 22 B0 FD | 	call	#_hng012_crlf
007f4                 | '   v.writeln(string("This is a demonstration of HDMI 'nostalgic' text driver"))
007f4     19 00 00 FF 
007f8     C3 08 05 F6 | 	mov	arg01, ##@LR__0165
007fc     A8 21 B0 FD | 	call	#_hng012_writeln
00800                 | '   v.waitvbl(120)
00800     78 08 05 F6 | 	mov	arg01, #120
00804     3C 1A B0 FD | 	call	#_hng012_waitvbl
00808                 | '   v.crlf()
00808     D0 22 B0 FD | 	call	#_hng012_crlf
0080c                 | '   v.writeln(string("The driver is based on PAL/NTSC non-interlaced timings..."))
0080c     19 00 00 FF 
00810     FB 08 05 F6 | 	mov	arg01, ##@LR__0166
00814     90 21 B0 FD | 	call	#_hng012_writeln
00818                 | '   v.waitvbl(60)
00818     3C 08 05 F6 | 	mov	arg01, #60
0081c     24 1A B0 FD | 	call	#_hng012_waitvbl
00820                 | '   v.writeln(string("...generating 524 lines at 60 Hz or 624 lines at 50 Hz"))
00820     19 00 00 FF 
00824     35 09 05 F6 | 	mov	arg01, ##@LR__0167
00828     7C 21 B0 FD | 	call	#_hng012_writeln
0082c                 | '   v.writeln(string("The P2 clock is based on PAL/NTSC color carrier frequency multiplied by a constant"))
0082c     19 00 00 FF 
00830     6C 09 05 F6 | 	mov	arg01, ##@LR__0168
00834     70 21 B0 FD | 	call	#_hng012_writeln
00838                 | '   v.waitvbl(120)
00838     78 08 05 F6 | 	mov	arg01, #120
0083c     04 1A B0 FD | 	call	#_hng012_waitvbl
00840                 | '   v.crlf()
00840     98 22 B0 FD | 	call	#_hng012_crlf
00844                 | '   v.write(string("The driver fits in "))
00844     19 00 00 FF 
00848     BF 09 05 F6 | 	mov	arg01, ##@LR__0169
0084c     A4 1F B0 FD | 	call	#_hng012_write
00850                 | '   v.write(v.inttostr(long[0]))
00850     00 08 05 FB | 	rdlong	arg01, #0
00854     EC 22 B0 FD | 	call	#_hng012_inttostr
00858     7C 08 01 F6 | 	mov	arg01, result1
0085c     94 1F B0 FD | 	call	#_hng012_write
00860                 | '   v.writeln (string(" longs."))
00860     19 00 00 FF 
00864     D3 09 05 F6 | 	mov	arg01, ##@LR__0170
00868     3C 21 B0 FD | 	call	#_hng012_writeln
0086c                 | '   v.waitvbl(120)
0086c     78 08 05 F6 | 	mov	arg01, #120
00870     D0 19 B0 FD | 	call	#_hng012_waitvbl
00874                 | '   v.writeln(string("We have 8 modes available:"))
00874     19 00 00 FF 
00878     DB 09 05 F6 | 	mov	arg01, ##@LR__0171
0087c     28 21 B0 FD | 	call	#_hng012_writeln
00880                 | '   v.waitvbl(60)
00880     3C 08 05 F6 | 	mov	arg01, #60
00884     BC 19 B0 FD | 	call	#_hng012_waitvbl
00888                 | '   v.writeln(string("- mode 0:   PAL  50 Hz signaling 1140x624, active  800x480, 100x30 text, wide border,   354_693_878 Hz"))
00888     19 00 00 FF 
0088c     F6 09 05 F6 | 	mov	arg01, ##@LR__0172
00890     14 21 B0 FD | 	call	#_hng012_writeln
00894                 | '   v.writeln(string("- mode 64:  PAL  50 Hz signaling 1026x624, active  880x496, 110x31 text, medium border, 319_215_686 Hz"))
00894     1A 00 00 FF 
00898     5D 08 05 F6 | 	mov	arg01, ##@LR__0173
0089c     08 21 B0 FD | 	call	#_hng012_writeln
008a0                 | '   v.writeln(string("- mode 128: PAL  50 Hz signaling  912x624, active  800x480, 100x30 text, narrow border, 283_750_000 Hz"))
008a0     1A 00 00 FF 
008a4     C4 08 05 F6 | 	mov	arg01, ##@LR__0174
008a8     FC 20 B0 FD | 	call	#_hng012_writeln
008ac                 | '   v.writeln(string("- mode 192: PAL  50 Hz signaling 1140x624, active 1024x576, 128x36 text, borderless,    354_693_878 Hz"))
008ac     1A 00 00 FF 
008b0     2B 09 05 F6 | 	mov	arg01, ##@LR__0175
008b4     F0 20 B0 FD | 	call	#_hng012_writeln
008b8                 | '   v.writeln(string("- mode 256: NTSC 60 Hz signaling 1140x624, active  800x480, 100x30 text, narrow border, 357_959_184 Hz"))
008b8     1A 00 00 FF 
008bc     92 09 05 F6 | 	mov	arg01, ##@LR__0176
008c0     E4 20 B0 FD | 	call	#_hng012_writeln
008c4                 | '   v.writeln(string("- mode 320: NTSC 60 Hz signaling 1026x624, active  800x480, 100x30 text, narrow border, 322_162_162 Hz"))
008c4     1A 00 00 FF 
008c8     F9 09 05 F6 | 	mov	arg01, ##@LR__0177
008cc     D8 20 B0 FD | 	call	#_hng012_writeln
008d0                 | '   v.writeln(string("- mode 384: NTSC 60 Hz signaling  912x624, active  800x480, 100x30 text, narrow border, 286_363_636 Hz"))
008d0     1B 00 00 FF 
008d4     60 08 05 F6 | 	mov	arg01, ##@LR__0178
008d8     CC 20 B0 FD | 	call	#_hng012_writeln
008dc                 | '   v.writeln(string("- mode 448: NTSC 60 Hz signaling 1026x624, active  880x496, 110x31 text, borderless,    322_162_162 Hz"))
008dc     1B 00 00 FF 
008e0     C7 08 05 F6 | 	mov	arg01, ##@LR__0179
008e4     C0 20 B0 FD | 	call	#_hng012_writeln
008e8                 | '   v.waitvbl(60)
008e8     3C 08 05 F6 | 	mov	arg01, #60
008ec     54 19 B0 FD | 	call	#_hng012_waitvbl
008f0                 | '   v.crlf()
008f0     E8 21 B0 FD | 	call	#_hng012_crlf
008f4                 | '   v.writeln(string("We are in the mode 448 now"))
008f4     1B 00 00 FF 
008f8     2E 09 05 F6 | 	mov	arg01, ##@LR__0180
008fc     A8 20 B0 FD | 	call	#_hng012_writeln
00900                 | '   v.writeln(string("It is the safest mode to start, the P2 is clocked at 322 MHz and the refresh rate is 60 Hz"))
00900     1B 00 00 FF 
00904     49 09 05 F6 | 	mov	arg01, ##@LR__0181
00908     9C 20 B0 FD | 	call	#_hng012_writeln
0090c                 | '   v.waitvbl(60)
0090c     3C 08 05 F6 | 	mov	arg01, #60
00910     30 19 B0 FD | 	call	#_hng012_waitvbl
00914                 | '   v.writeln(string(" "))
00914     1B 00 00 FF 
00918     A4 09 05 F6 | 	mov	arg01, ##@LR__0182
0091c     88 20 B0 FD | 	call	#_hng012_writeln
00920                 | '   v.writeln(string("This is MS-DOS like 8x16 font style..."))
00920     1B 00 00 FF 
00924     A6 09 05 F6 | 	mov	arg01, ##@LR__0183
00928     7C 20 B0 FD | 	call	#_hng012_writeln
0092c                 | '   v.writeln(string(" "))
0092c     1B 00 00 FF 
00930     CD 09 05 F6 | 	mov	arg01, ##@LR__0184
00934     70 20 B0 FD | 	call	#_hng012_writeln
00938                 | '   v.write(string("C:\>"))
00938     1B 00 00 FF 
0093c     CF 09 05 F6 | 	mov	arg01, ##@LR__0185
00940     B0 1E B0 FD | 	call	#_hng012_write
00944                 | '   v.waitvbl(600)
00944     01 00 00 FF 
00948     58 08 05 F6 | 	mov	arg01, ##600
0094c     F4 18 B0 FD | 	call	#_hng012_waitvbl
00950                 | '   v.writeln(string("showfont "))
00950     1B 00 00 FF 
00954     D4 09 05 F6 | 	mov	arg01, ##@LR__0186
00958     4C 20 B0 FD | 	call	#_hng012_writeln
0095c                 | '   v.waitvbl(60)
0095c     3C 08 05 F6 | 	mov	arg01, #60
00960     E0 18 B0 FD | 	call	#_hng012_waitvbl
00964                 | '   v.writeln(string(" "))
00964     1B 00 00 FF 
00968     DE 09 05 F6 | 	mov	arg01, ##@LR__0187
0096c     38 20 B0 FD | 	call	#_hng012_writeln
00970                 | ' 
00970                 | ' 
00970                 | '   v.crlf()
00970     68 21 B0 FD | 	call	#_hng012_crlf
00974     88 F0 84 F1 | 	sub	objptr, #136
00978     00 4A 05 F6 | 	mov	local16, #0
0097c     10 4C 05 F6 | 	mov	local17, #16
00980                 | LR__0005
00980                 | '     v.write(string("        "))
00980     1B 00 00 FF 
00984     E0 09 05 F6 | 	mov	arg01, ##@LR__0188
00988     88 F0 04 F1 | 	add	objptr, #136
0098c     64 1E B0 FD | 	call	#_hng012_write
00990     04 F0 84 F1 | 	sub	objptr, #4
00994     78 00 68 FC | 	wrlong	#0, objptr
00998     84 F0 84 F1 | 	sub	objptr, #132
0099c                 | LR__0006
0099c     A5 4E 01 F6 | 	mov	local18, local16
009a0     84 F0 04 F1 | 	add	objptr, #132
009a4     78 50 01 FB | 	rdlong	local19, objptr
009a8     84 F0 84 F1 | 	sub	objptr, #132
009ac     A8 4E 01 F1 | 	add	local18, local19
009b0                 | '       teststring[0]:=16*j+i
009b0     78 4E 41 FC | 	wrbyte	local18, objptr
009b4                 | '       if (16*j+i)==0
009b4     A5 52 01 F6 | 	mov	local20, local16
009b8     84 F0 04 F1 | 	add	objptr, #132
009bc     78 50 01 FB | 	rdlong	local19, objptr
009c0     84 F0 84 F1 | 	sub	objptr, #132
009c4     A8 52 09 F1 | 	add	local20, local19 wz
009c8                 | '         teststring[0]:=32
009c8     78 40 48 AC |  if_e	wrbyte	#32, objptr
009cc                 | '       teststring[1]:=0
009cc     01 F0 04 F1 | 	add	objptr, #1
009d0     78 00 48 FC | 	wrbyte	#0, objptr
009d4     A5 08 01 F6 | 	mov	arg01, local16
009d8     83 F0 04 F1 | 	add	objptr, #131
009dc     78 50 01 FB | 	rdlong	local19, objptr
009e0     A8 08 01 F1 | 	add	arg01, local19
009e4                 | '       v.write(v.inttohex(16*j+i,2))
009e4     02 0A 05 F6 | 	mov	arg02, #2
009e8     04 F0 04 F1 | 	add	objptr, #4
009ec     64 22 B0 FD | 	call	#_hng012_inttohex
009f0     7C 08 01 F6 | 	mov	arg01, result1
009f4     FC 1D B0 FD | 	call	#_hng012_write
009f8                 | '       v.write(string(" "))
009f8     1B 00 00 FF 
009fc     E9 09 05 F6 | 	mov	arg01, ##@LR__0189
00a00     F0 1D B0 FD | 	call	#_hng012_write
00a04     88 F0 84 F1 | 	sub	objptr, #136
00a08                 | '       v.write(@teststring)
00a08     78 08 01 F6 | 	mov	arg01, objptr
00a0c     88 F0 04 F1 | 	add	objptr, #136
00a10     E0 1D B0 FD | 	call	#_hng012_write
00a14                 | '       v.write(string(","))
00a14     1B 00 00 FF 
00a18     EB 09 05 F6 | 	mov	arg01, ##@LR__0190
00a1c     D4 1D B0 FD | 	call	#_hng012_write
00a20     04 F0 84 F1 | 	sub	objptr, #4
00a24     78 52 01 FB | 	rdlong	local20, objptr
00a28     01 52 05 F1 | 	add	local20, #1
00a2c     78 52 61 FC | 	wrlong	local20, objptr
00a30     84 F0 84 F1 | 	sub	objptr, #132
00a34     10 52 5D F2 | 	cmps	local20, #16 wcz
00a38     60 FF 9F CD |  if_b	jmp	#LR__0006
00a3c                 | '     v.crlf()
00a3c     88 F0 04 F1 | 	add	objptr, #136
00a40     98 20 B0 FD | 	call	#_hng012_crlf
00a44                 | '     v.waitvbl(1)
00a44     01 08 05 F6 | 	mov	arg01, #1
00a48     F8 17 B0 FD | 	call	#_hng012_waitvbl
00a4c     88 F0 84 F1 | 	sub	objptr, #136
00a50     10 4A 05 F1 | 	add	local16, #16
00a54     CA 4D 6D FB | 	djnz	local17, #LR__0005
00a58                 | '   v.crlf()
00a58     88 F0 04 F1 | 	add	objptr, #136
00a5c     7C 20 B0 FD | 	call	#_hng012_crlf
00a60                 | '   v.crlf()
00a60     78 20 B0 FD | 	call	#_hng012_crlf
00a64                 | '   v.write(string("C:\>"))
00a64     1B 00 00 FF 
00a68     ED 09 05 F6 | 	mov	arg01, ##@LR__0191
00a6c     84 1D B0 FD | 	call	#_hng012_write
00a70                 | ' 
00a70                 | ' 
00a70                 | '   v.waitvbl(600)
00a70     01 00 00 FF 
00a74     58 08 05 F6 | 	mov	arg01, ##600
00a78     C8 17 B0 FD | 	call	#_hng012_waitvbl
00a7c                 | '   v.write(string("mode 0"))
00a7c     1B 00 00 FF 
00a80     F2 09 05 F6 | 	mov	arg01, ##@LR__0192
00a84     6C 1D B0 FD | 	call	#_hng012_write
00a88                 | '   v.waitvbl(60)
00a88     3C 08 05 F6 | 	mov	arg01, #60
00a8c     B4 17 B0 FD | 	call	#_hng012_waitvbl
00a90                 | ' 
00a90                 | '   v.setmode(0)
00a90     00 08 05 F6 | 	mov	arg01, #0
00a94     6C 22 B0 FD | 	call	#_hng012_setmode
00a98                 | '   v.defchar(0,2,0,255,0,0,0,0,0,0,0,0,0,0,0,0,0,0)
00a98     00 08 05 F6 | 	mov	arg01, #0
00a9c     00 0C 05 F6 | 	mov	arg03, #0
00aa0     FF 0E 05 F6 | 	mov	arg04, #255
00aa4     00 10 05 F6 | 	mov	arg05, #0
00aa8     00 12 05 F6 | 	mov	arg06, #0
00aac     00 14 05 F6 | 	mov	arg07, #0
00ab0     00 16 05 F6 | 	mov	arg08, #0
00ab4     00 18 05 F6 | 	mov	arg09, #0
00ab8     00 1A 05 F6 | 	mov	arg10, #0
00abc     00 1C 05 F6 | 	mov	arg11, #0
00ac0     00 1E 05 F6 | 	mov	arg12, #0
00ac4     00 20 05 F6 | 	mov	arg13, #0
00ac8     00 22 05 F6 | 	mov	arg14, #0
00acc     00 24 05 F6 | 	mov	arg15, #0
00ad0     00 26 05 F6 | 	mov	arg16, #0
00ad4     00 28 05 F6 | 	mov	arg17, #0
00ad8     00 2A 05 F6 | 	mov	arg18, #0
00adc     08 00 00 FF 
00ae0     00 F6 04 F1 | 	add	ptr__hng012_dat__, ##4096
00ae4     7B F8 00 F6 | 	mov	result1, ptr__hng012_dat__
00ae8     08 00 00 FF 
00aec     00 F6 84 F1 | 	sub	ptr__hng012_dat__, ##4096
00af0     20 F8 04 F1 | 	add	result1, #32
00af4                 | ' 
00af4                 | ' s:=@st_font+fn+ch*16
00af4                 | ' byte[s+00]:=b0
00af4     7C 00 48 FC | 	wrbyte	#0, result1
00af8     7C 54 01 F6 | 	mov	local21, result1
00afc     01 54 05 F1 | 	add	local21, #1
00b00                 | ' byte[s+01]:=b1
00b00     AA FE 49 FC | 	wrbyte	#255, local21
00b04     7C 56 01 F6 | 	mov	local22, result1
00b08     02 56 05 F1 | 	add	local22, #2
00b0c                 | ' byte[s+02]:=b2
00b0c     AB 00 48 FC | 	wrbyte	#0, local22
00b10     7C 58 01 F6 | 	mov	local23, result1
00b14     03 58 05 F1 | 	add	local23, #3
00b18                 | ' byte[s+03]:=b3
00b18     AC 00 48 FC | 	wrbyte	#0, local23
00b1c     7C 5A 01 F6 | 	mov	local24, result1
00b20     04 5A 05 F1 | 	add	local24, #4
00b24                 | ' byte[s+04]:=b4
00b24     AD 00 48 FC | 	wrbyte	#0, local24
00b28     7C 5C 01 F6 | 	mov	local25, result1
00b2c     05 5C 05 F1 | 	add	local25, #5
00b30                 | ' byte[s+05]:=b5
00b30     AE 00 48 FC | 	wrbyte	#0, local25
00b34     7C 5E 01 F6 | 	mov	local26, result1
00b38     06 5E 05 F1 | 	add	local26, #6
00b3c                 | ' byte[s+06]:=b6
00b3c     AF 00 48 FC | 	wrbyte	#0, local26
00b40     7C 60 01 F6 | 	mov	local27, result1
00b44     07 60 05 F1 | 	add	local27, #7
00b48                 | ' byte[s+07]:=b7
00b48     B0 00 48 FC | 	wrbyte	#0, local27
00b4c     7C 62 01 F6 | 	mov	local28, result1
00b50     08 62 05 F1 | 	add	local28, #8
00b54                 | ' byte[s+08]:=b8
00b54     B1 00 48 FC | 	wrbyte	#0, local28
00b58     7C 64 01 F6 | 	mov	local29, result1
00b5c     09 64 05 F1 | 	add	local29, #9
00b60                 | ' byte[s+09]:=b9
00b60     B2 00 48 FC | 	wrbyte	#0, local29
00b64     7C 66 01 F6 | 	mov	local30, result1
00b68     0A 66 05 F1 | 	add	local30, #10
00b6c                 | ' byte[s+10]:=b10
00b6c     B3 00 48 FC | 	wrbyte	#0, local30
00b70     7C 68 01 F6 | 	mov	local31, result1
00b74     0B 68 05 F1 | 	add	local31, #11
00b78                 | ' byte[s+11]:=b11
00b78     B4 00 48 FC | 	wrbyte	#0, local31
00b7c     7C 6A 01 F6 | 	mov	local32, result1
00b80     0C 6A 05 F1 | 	add	local32, #12
00b84                 | ' byte[s+12]:=b12
00b84     B5 00 48 FC | 	wrbyte	#0, local32
00b88     7C 6C 01 F6 | 	mov	local33, result1
00b8c     0D 6C 05 F1 | 	add	local33, #13
00b90                 | ' byte[s+13]:=b13
00b90     B6 00 48 FC | 	wrbyte	#0, local33
00b94     7C 6E 01 F6 | 	mov	local34, result1
00b98     0E 6E 05 F1 | 	add	local34, #14
00b9c                 | ' byte[s+14]:=b14
00b9c     B7 00 48 FC | 	wrbyte	#0, local34
00ba0     7C 70 01 F6 | 	mov	local35, result1
00ba4     0F 70 05 F1 | 	add	local35, #15
00ba8                 | ' byte[s+15]:=b15
00ba8     B8 00 48 FC | 	wrbyte	#0, local35
00bac                 | '   v.setfontnum(4096)
00bac     0C 08 C5 F9 | 	decod	arg01, #12
00bb0                 | ' 
00bb0                 | ' fontnum:=afontnum
00bb0     34 F1 04 F1 | 	add	objptr, #308
00bb4     78 08 61 FC | 	wrlong	arg01, objptr
00bb8     34 F1 84 F1 | 	sub	objptr, #308
00bbc                 | ' 
00bbc                 | '   v.cls(0,15)
00bbc     00 08 05 F6 | 	mov	arg01, #0
00bc0     0F 0A 05 F6 | 	mov	arg02, #15
00bc4     98 18 B0 FD | 	call	#_hng012_cls
00bc8                 | '   v.setbordercolors(0,0,0)
00bc8     00 08 05 F6 | 	mov	arg01, #0
00bcc     00 0A 05 F6 | 	mov	arg02, #0
00bd0     00 0C 05 F6 | 	mov	arg03, #0
00bd4     4C 17 B0 FD | 	call	#_hng012_setbordercolors
00bd8                 | '   v.cursoroff()
00bd8                 | ' 
00bd8                 | ' ''---------- Switch the cursor off
00bd8                 | ' 
00bd8                 | ' cursor_sh-=16
00bd8     CA F0 04 F1 | 	add	objptr, #202
00bdc     78 72 C1 FA | 	rdbyte	local36, objptr
00be0     10 72 85 F1 | 	sub	local36, #16
00be4     78 72 41 FC | 	wrbyte	local36, objptr
00be8     CA F0 84 F1 | 	sub	objptr, #202
00bec                 | '   v.outtextxy(0,0,string(" File  Options  View  Special"))
00bec     1B 00 00 FF 
00bf0     F9 0D 05 F6 | 	mov	arg03, ##@LR__0193
00bf4     00 08 05 F6 | 	mov	arg01, #0
00bf8     00 0A 05 F6 | 	mov	arg02, #0
00bfc     1C 19 B0 FD | 	call	#_hng012_outtextxy
00c00     88 F0 84 F1 | 	sub	objptr, #136
00c04     78 74 01 F6 | 	mov	local37, objptr
00c08     84 F0 04 F1 | 	add	objptr, #132
00c0c     78 00 68 FC | 	wrlong	#0, objptr
00c10     84 F0 84 F1 | 	sub	objptr, #132
00c14     0C F4 9F FE | 	loc	pa,	#(@LR__0008-@LR__0007)
00c18     35 00 A0 FD | 	call	#FCACHE_LOAD_
00c1c                 | LR__0007
00c1c                 | '     teststring[i]:=2
00c1c     BA 04 48 FC | 	wrbyte	#2, local37
00c20     84 F0 04 F1 | 	add	objptr, #132
00c24     78 52 01 FB | 	rdlong	local20, objptr
00c28     01 52 05 F1 | 	add	local20, #1
00c2c     78 52 61 FC | 	wrlong	local20, objptr
00c30     01 74 05 F1 | 	add	local37, #1
00c34     84 F0 84 F1 | 	sub	objptr, #132
00c38     64 52 5D F2 | 	cmps	local20, #100 wcz
00c3c     DC FF 9F CD |  if_b	jmp	#LR__0007
00c40                 | LR__0008
00c40                 | '   teststring[100]:=0
00c40     64 F0 04 F1 | 	add	objptr, #100
00c44     78 00 48 FC | 	wrbyte	#0, objptr
00c48     64 F0 84 F1 | 	sub	objptr, #100
00c4c                 | '   v.outtextxy(0,1,@teststring)
00c4c     00 08 05 F6 | 	mov	arg01, #0
00c50     01 0A 05 F6 | 	mov	arg02, #1
00c54     78 0C 01 F6 | 	mov	arg03, objptr
00c58     88 F0 04 F1 | 	add	objptr, #136
00c5c     BC 18 B0 FD | 	call	#_hng012_outtextxy
00c60     88 F0 84 F1 | 	sub	objptr, #136
00c64                 | '   teststring[0]:=10
00c64     78 14 48 FC | 	wrbyte	#10, objptr
00c68     01 F0 04 F1 | 	add	objptr, #1
00c6c     78 76 01 F6 | 	mov	local38, objptr
00c70     83 F0 04 F1 | 	add	objptr, #131
00c74     78 02 68 FC | 	wrlong	#1, objptr
00c78     84 F0 84 F1 | 	sub	objptr, #132
00c7c     A4 F3 9F FE | 	loc	pa,	#(@LR__0010-@LR__0009)
00c80     35 00 A0 FD | 	call	#FCACHE_LOAD_
00c84                 | LR__0009
00c84                 | '     teststring[i]:=3
00c84     BB 06 48 FC | 	wrbyte	#3, local38
00c88     84 F0 04 F1 | 	add	objptr, #132
00c8c     78 52 01 FB | 	rdlong	local20, objptr
00c90     01 52 05 F1 | 	add	local20, #1
00c94     78 52 61 FC | 	wrlong	local20, objptr
00c98     01 76 05 F1 | 	add	local38, #1
00c9c     84 F0 84 F1 | 	sub	objptr, #132
00ca0     51 52 5D F2 | 	cmps	local20, #81 wcz
00ca4     DC FF 9F CD |  if_b	jmp	#LR__0009
00ca8                 | LR__0010
00ca8                 | '   teststring[81]:=9
00ca8     51 F0 04 F1 | 	add	objptr, #81
00cac     78 12 48 FC | 	wrbyte	#9, objptr
00cb0                 | '   teststring[82]:=0
00cb0     01 F0 04 F1 | 	add	objptr, #1
00cb4     78 00 48 FC | 	wrbyte	#0, objptr
00cb8                 | ' 
00cb8                 | '   v.setcursorpos(8,5)
00cb8     05 0A 05 F6 | 	mov	arg02, #5
00cbc                 | ' 
00cbc                 | ' ''---------- Set the (x,y) position of cursor
00cbc                 | ' 
00cbc                 | ' cursor_x:=x
00cbc     FE F0 04 F1 | 	add	objptr, #254
00cc0     78 10 48 FC | 	wrbyte	#8, objptr
00cc4                 | ' cursor_y:=y
00cc4     01 F0 04 F1 | 	add	objptr, #1
00cc8     78 0A 48 FC | 	wrbyte	#5, objptr
00ccc     51 F1 84 F1 | 	sub	objptr, #337
00cd0                 | '   v.writeln(@teststring)
00cd0     78 08 01 F6 | 	mov	arg01, objptr
00cd4     88 F0 04 F1 | 	add	objptr, #136
00cd8     CC 1C B0 FD | 	call	#_hng012_writeln
00cdc     88 F0 84 F1 | 	sub	objptr, #136
00ce0     00 78 05 F6 | 	mov	local39, #0
00ce4     08 4C 05 F6 | 	mov	local17, #8
00ce8                 | LR__0011
00ce8                 | '     v.write(string("        "))
00ce8     1C 00 00 FF 
00cec     17 08 05 F6 | 	mov	arg01, ##@LR__0194
00cf0     88 F0 04 F1 | 	add	objptr, #136
00cf4     FC 1A B0 FD | 	call	#_hng012_write
00cf8                 | '     v.putchar(4)
00cf8     04 08 05 F6 | 	mov	arg01, #4
00cfc     C4 19 B0 FD | 	call	#_hng012_putchar
00d00     04 F0 84 F1 | 	sub	objptr, #4
00d04     78 00 68 FC | 	wrlong	#0, objptr
00d08     84 F0 84 F1 | 	sub	objptr, #132
00d0c                 | LR__0012
00d0c     BC 7A 01 F6 | 	mov	local40, local39
00d10     84 F0 04 F1 | 	add	objptr, #132
00d14     78 50 01 FB | 	rdlong	local19, objptr
00d18     84 F0 84 F1 | 	sub	objptr, #132
00d1c     A8 7A 01 F1 | 	add	local40, local19
00d20                 | '       teststring[0]:=16*j+i
00d20     78 7A 41 FC | 	wrbyte	local40, objptr
00d24                 | '       if (16*j+i)==0
00d24     BC 52 01 F6 | 	mov	local20, local39
00d28     84 F0 04 F1 | 	add	objptr, #132
00d2c     78 50 01 FB | 	rdlong	local19, objptr
00d30     84 F0 84 F1 | 	sub	objptr, #132
00d34     A8 52 09 F1 | 	add	local20, local19 wz
00d38                 | '         teststring[0]:=32
00d38     78 40 48 AC |  if_e	wrbyte	#32, objptr
00d3c                 | '       teststring[1]:=0
00d3c     01 F0 04 F1 | 	add	objptr, #1
00d40     78 00 48 FC | 	wrbyte	#0, objptr
00d44     BC 08 01 F6 | 	mov	arg01, local39
00d48     83 F0 04 F1 | 	add	objptr, #131
00d4c     78 50 01 FB | 	rdlong	local19, objptr
00d50     A8 08 01 F1 | 	add	arg01, local19
00d54                 | '       v.write(v.inttohex(16*j+i,2))
00d54     02 0A 05 F6 | 	mov	arg02, #2
00d58     04 F0 04 F1 | 	add	objptr, #4
00d5c     F4 1E B0 FD | 	call	#_hng012_inttohex
00d60     7C 08 01 F6 | 	mov	arg01, result1
00d64     8C 1A B0 FD | 	call	#_hng012_write
00d68                 | '       v.write(string(" "))
00d68     1C 00 00 FF 
00d6c     20 08 05 F6 | 	mov	arg01, ##@LR__0195
00d70     80 1A B0 FD | 	call	#_hng012_write
00d74     88 F0 84 F1 | 	sub	objptr, #136
00d78                 | '       v.write(@teststring)
00d78     78 08 01 F6 | 	mov	arg01, objptr
00d7c     88 F0 04 F1 | 	add	objptr, #136
00d80     70 1A B0 FD | 	call	#_hng012_write
00d84                 | '       v.write(string(","))
00d84     1C 00 00 FF 
00d88     22 08 05 F6 | 	mov	arg01, ##@LR__0196
00d8c     64 1A B0 FD | 	call	#_hng012_write
00d90     04 F0 84 F1 | 	sub	objptr, #4
00d94     78 52 01 FB | 	rdlong	local20, objptr
00d98     01 52 05 F1 | 	add	local20, #1
00d9c     78 52 61 FC | 	wrlong	local20, objptr
00da0     84 F0 84 F1 | 	sub	objptr, #132
00da4     10 52 5D F2 | 	cmps	local20, #16 wcz
00da8     60 FF 9F CD |  if_b	jmp	#LR__0012
00dac                 | '     v.putchar(4)
00dac     04 08 05 F6 | 	mov	arg01, #4
00db0     88 F0 04 F1 | 	add	objptr, #136
00db4     0C 19 B0 FD | 	call	#_hng012_putchar
00db8                 | '     v.crlf()
00db8     20 1D B0 FD | 	call	#_hng012_crlf
00dbc                 | '     v.waitvbl(2)
00dbc     02 08 05 F6 | 	mov	arg01, #2
00dc0     80 14 B0 FD | 	call	#_hng012_waitvbl
00dc4     88 F0 84 F1 | 	sub	objptr, #136
00dc8     10 78 05 F1 | 	add	local39, #16
00dcc     C6 4D 6D FB | 	djnz	local17, #LR__0011
00dd0                 | '   teststring[0]:=$C
00dd0     78 18 48 FC | 	wrbyte	#12, objptr
00dd4     01 F0 04 F1 | 	add	objptr, #1
00dd8     78 7C 01 F6 | 	mov	local41, objptr
00ddc     83 F0 04 F1 | 	add	objptr, #131
00de0     78 02 68 FC | 	wrlong	#1, objptr
00de4     84 F0 84 F1 | 	sub	objptr, #132
00de8     38 F2 9F FE | 	loc	pa,	#(@LR__0014-@LR__0013)
00dec     35 00 A0 FD | 	call	#FCACHE_LOAD_
00df0                 | LR__0013
00df0                 | '     teststring[i]:=3
00df0     BE 06 48 FC | 	wrbyte	#3, local41
00df4     84 F0 04 F1 | 	add	objptr, #132
00df8     78 52 01 FB | 	rdlong	local20, objptr
00dfc     01 52 05 F1 | 	add	local20, #1
00e00     78 52 61 FC | 	wrlong	local20, objptr
00e04     01 7C 05 F1 | 	add	local41, #1
00e08     84 F0 84 F1 | 	sub	objptr, #132
00e0c     51 52 5D F2 | 	cmps	local20, #81 wcz
00e10     DC FF 9F CD |  if_b	jmp	#LR__0013
00e14                 | LR__0014
00e14                 | '   teststring[81]:=$B
00e14     51 F0 04 F1 | 	add	objptr, #81
00e18     78 16 48 FC | 	wrbyte	#11, objptr
00e1c                 | '   teststring[82]:=0
00e1c     01 F0 04 F1 | 	add	objptr, #1
00e20     78 00 48 FC | 	wrbyte	#0, objptr
00e24                 | '   v.setcursorpos(8,14)
00e24     0E 0A 05 F6 | 	mov	arg02, #14
00e28                 | ' 
00e28                 | ' ''---------- Set the (x,y) position of cursor
00e28                 | ' 
00e28                 | ' cursor_x:=x
00e28     FE F0 04 F1 | 	add	objptr, #254
00e2c     78 10 48 FC | 	wrbyte	#8, objptr
00e30                 | ' cursor_y:=y
00e30     01 F0 04 F1 | 	add	objptr, #1
00e34     78 1C 48 FC | 	wrbyte	#14, objptr
00e38     51 F1 84 F1 | 	sub	objptr, #337
00e3c                 | '   v.writeln(@teststring)
00e3c     78 08 01 F6 | 	mov	arg01, objptr
00e40     88 F0 04 F1 | 	add	objptr, #136
00e44     60 1B B0 FD | 	call	#_hng012_writeln
00e48                 | ' 
00e48                 | '   v.writeln(string(" "))
00e48     1C 00 00 FF 
00e4c     24 08 05 F6 | 	mov	arg01, ##@LR__0197
00e50     54 1B B0 FD | 	call	#_hng012_writeln
00e54                 | '   v.writeln(string("     ... but Atari ST-like mono font can also be used."))
00e54     1C 00 00 FF 
00e58     26 08 05 F6 | 	mov	arg01, ##@LR__0198
00e5c     48 1B B0 FD | 	call	#_hng012_writeln
00e60                 | '   v.writeln(string("         We also switched the graphics mode to PAL like 50 Hz, 624 lines."))
00e60     1C 00 00 FF 
00e64     5D 08 05 F6 | 	mov	arg01, ##@LR__0199
00e68     3C 1B B0 FD | 	call	#_hng012_writeln
00e6c                 | '   v.writeln(string(" "))
00e6c     1C 00 00 FF 
00e70     A7 08 05 F6 | 	mov	arg01, ##@LR__0200
00e74     30 1B B0 FD | 	call	#_hng012_writeln
00e78                 | '   v.setwritecolors(v.c_red,v.c_white)
00e78     0F 0A 05 F6 | 	mov	arg02, #15
00e7c                 | ' 
00e7c                 | ' 
00e7c                 | ' write_color:=ff
00e7c     CC F0 04 F1 | 	add	objptr, #204
00e80     78 4E 68 FC | 	wrlong	#39, objptr
00e84                 | ' write_background:=bb
00e84     04 F0 04 F1 | 	add	objptr, #4
00e88     78 1E 68 FC | 	wrlong	#15, objptr
00e8c     D0 F0 84 F1 | 	sub	objptr, #208
00e90                 | '   v.writeln(string("         Although the font is mono style, we are still in the color mode here."))
00e90     1C 00 00 FF 
00e94     A9 08 05 F6 | 	mov	arg01, ##@LR__0201
00e98     0C 1B B0 FD | 	call	#_hng012_writeln
00e9c                 | ' 
00e9c                 | ' 
00e9c                 | ' 
00e9c                 | '   v.waitvbl(1200)
00e9c     02 00 00 FF 
00ea0     B0 08 05 F6 | 	mov	arg01, ##1200
00ea4     9C 13 B0 FD | 	call	#_hng012_waitvbl
00ea8                 | ' 
00ea8                 | ' '-----------------
00ea8                 | '   v.setfontnum(0)
00ea8                 | ' 
00ea8                 | ' fontnum:=afontnum
00ea8     34 F1 04 F1 | 	add	objptr, #308
00eac     78 00 68 FC | 	wrlong	#0, objptr
00eb0     34 F1 84 F1 | 	sub	objptr, #308
00eb4                 | '   v.setscreencolors (151,145)
00eb4     97 08 05 F6 | 	mov	arg01, #151
00eb8     91 0A 05 F6 | 	mov	arg02, #145
00ebc     F8 13 B0 FD | 	call	#_hng012_setscreencolors
00ec0                 | ' 
00ec0                 | ' 
00ec0                 | '   repeat i from 0 to 99
00ec0     04 F0 84 F1 | 	sub	objptr, #4
00ec4     78 00 68 FC | 	wrlong	#0, objptr
00ec8     84 F0 84 F1 | 	sub	objptr, #132
00ecc                 | LR__0015
00ecc     00 7E 05 F6 | 	mov	local42, #0
00ed0     00 4C 05 F6 | 	mov	local17, #0
00ed4                 | LR__0016
00ed4     84 F0 04 F1 | 	add	objptr, #132
00ed8     78 0C 01 FB | 	rdlong	arg03, objptr
00edc     BF 0C 01 F1 | 	add	arg03, local42
00ee0     FF 0C 05 F5 | 	and	arg03, #255
00ee4                 | '       v.putcharxy(i,j,(i+100*j) & $FF)
00ee4     78 08 01 FB | 	rdlong	arg01, objptr
00ee8     A6 0A 01 F6 | 	mov	arg02, local17
00eec     04 F0 04 F1 | 	add	objptr, #4
00ef0     EC 15 B0 FD | 	call	#_hng012_putcharxy
00ef4     88 F0 84 F1 | 	sub	objptr, #136
00ef8     01 4C 05 F1 | 	add	local17, #1
00efc     64 7E 05 F1 | 	add	local42, #100
00f00     1E 4C 5D F2 | 	cmps	local17, #30 wcz
00f04     CC FF 9F CD |  if_b	jmp	#LR__0016
00f08     84 F0 04 F1 | 	add	objptr, #132
00f0c     78 52 01 FB | 	rdlong	local20, objptr
00f10     01 52 05 F1 | 	add	local20, #1
00f14     78 52 61 FC | 	wrlong	local20, objptr
00f18     84 F0 84 F1 | 	sub	objptr, #132
00f1c     64 52 5D F2 | 	cmps	local20, #100 wcz
00f20     A8 FF 9F CD |  if_b	jmp	#LR__0015
00f24                 | ' 
00f24                 | '   v.waitvbl(100)
00f24     64 08 05 F6 | 	mov	arg01, #100
00f28     88 F0 04 F1 | 	add	objptr, #136
00f2c     14 13 B0 FD | 	call	#_hng012_waitvbl
00f30     88 F0 84 F1 | 	sub	objptr, #136
00f34                 | ' 
00f34                 | '   repeat j from 0 to 29
00f34     1E 4C 05 F6 | 	mov	local17, #30
00f38                 | LR__0017
00f38                 | '     v.scrolldown()
00f38     AC F1 04 F1 | 	add	objptr, #428
00f3c     78 80 01 FB | 	rdlong	local43, objptr
00f40     24 F1 84 F1 | 	sub	objptr, #292
00f44     02 80 65 F0 | 	shl	local43, #2
00f48     78 08 01 FB | 	rdlong	arg01, objptr
00f4c     C0 08 01 F1 | 	add	arg01, local43
00f50     C4 F0 04 F1 | 	add	objptr, #196
00f54     78 0C 01 FB | 	rdlong	arg03, objptr
00f58     60 F0 04 F1 | 	add	objptr, #96
00f5c     78 82 01 FB | 	rdlong	local44, objptr
00f60     24 F1 84 F1 | 	sub	objptr, #292
00f64     C1 0C 81 F1 | 	sub	arg03, local44
00f68                 | ' 
00f68                 | ' longmove(buf_ptr+cpl*4,buf_ptr,buflen-cpl)
00f68     78 0A 01 FB | 	rdlong	arg02, objptr
00f6c     18 21 B0 FD | 	call	#__system__longmove
00f70                 | ' repeat i from 0 to cpl-1
00f70     00 84 05 F6 | 	mov	local45, #0
00f74     24 F1 04 F1 | 	add	objptr, #292
00f78     78 86 01 FB | 	rdlong	local46, objptr
00f7c     24 F1 84 F1 | 	sub	objptr, #292
00f80     01 86 85 F1 | 	sub	local46, #1
00f84     00 86 5D F2 | 	cmps	local46, #0 wcz
00f88     01 82 05 16 |  if_a	mov	local44, #1
00f8c     01 82 65 E6 |  if_be	neg	local44, #1
00f90     C1 86 01 F1 | 	add	local46, local44
00f94     98 F0 9F FE | 	loc	pa,	#(@LR__0019-@LR__0018)
00f98     35 00 A0 FD | 	call	#FCACHE_LOAD_
00f9c                 | LR__0018
00f9c     C2 88 01 F6 | 	mov	local47, local45
00fa0     02 88 65 F0 | 	shl	local47, #2
00fa4     78 8A 01 FB | 	rdlong	local48, objptr
00fa8     C4 8A 01 F1 | 	add	local48, local47
00fac     C5 8C 01 FB | 	rdlong	local49, local48
00fb0     80 FF 7F FF 
00fb4     00 8C 05 F5 | 	and	local49, ##-65536
00fb8     20 8C 45 F5 | 	or	local49, #32
00fbc                 | '   long[buf_ptr+4*i]:=(long[buf_ptr+4*i] & $FFFF0000) | 32
00fbc     C5 8C 61 FC | 	wrlong	local49, local48
00fc0     C1 84 01 F1 | 	add	local45, local44
00fc4     C3 84 09 F2 | 	cmp	local45, local46 wz
00fc8     D0 FF 9F 5D |  if_ne	jmp	#LR__0018
00fcc                 | LR__0019
00fcc                 | '     v.waitvbl(1)
00fcc     01 08 05 F6 | 	mov	arg01, #1
00fd0     70 12 B0 FD | 	call	#_hng012_waitvbl
00fd4     88 F0 84 F1 | 	sub	objptr, #136
00fd8     D7 4D 6D FB | 	djnz	local17, #LR__0017
00fdc                 | ' 
00fdc                 | '   v.cls(151,145)
00fdc     97 08 05 F6 | 	mov	arg01, #151
00fe0     91 0A 05 F6 | 	mov	arg02, #145
00fe4     88 F0 04 F1 | 	add	objptr, #136
00fe8     74 14 B0 FD | 	call	#_hng012_cls
00fec     88 F0 84 F1 | 	sub	objptr, #136
00ff0                 | ' 
00ff0                 | '   v.outtextxy (50-(strsize(s3)>>1),10,s3)
00ff0     97 08 01 F6 | 	mov	arg01, local02
00ff4     00 8E 05 F6 | 	mov	local50, #0
00ff8     14 F0 9F FE | 	loc	pa,	#(@LR__0021-@LR__0020)
00ffc     35 00 A0 FD | 	call	#FCACHE_LOAD_
01000                 | LR__0020
01000     84 72 C9 FA | 	rdbyte	local36, arg01 wz
01004     01 8E 05 51 |  if_ne	add	local50, #1
01008     01 08 05 51 |  if_ne	add	arg01, #1
0100c     F0 FF 9F 5D |  if_ne	jmp	#LR__0020
01010                 | LR__0021
01010     C7 F8 00 F6 | 	mov	result1, local50
01014     7C 52 01 F6 | 	mov	local20, result1
01018     01 52 45 F0 | 	shr	local20, #1
0101c     32 08 05 F6 | 	mov	arg01, #50
01020     A9 08 81 F1 | 	sub	arg01, local20
01024     97 0C 01 F6 | 	mov	arg03, local02
01028     0A 0A 05 F6 | 	mov	arg02, #10
0102c     88 F0 04 F1 | 	add	objptr, #136
01030     E8 14 B0 FD | 	call	#_hng012_outtextxy
01034                 | '   v.waitvbl(20)
01034     14 08 05 F6 | 	mov	arg01, #20
01038     08 12 B0 FD | 	call	#_hng012_waitvbl
0103c     88 F0 84 F1 | 	sub	objptr, #136
01040                 | '   repeat k from 0 to 20
01040     00 90 05 F6 | 	mov	local51, #0
01044                 | LR__0022
01044                 | '     repeat i from 0 to 99
01044     84 F0 04 F1 | 	add	objptr, #132
01048     78 00 68 FC | 	wrlong	#0, objptr
0104c     84 F0 84 F1 | 	sub	objptr, #132
01050                 | LR__0023
01050     84 F0 04 F1 | 	add	objptr, #132
01054     78 92 01 FB | 	rdlong	local52, objptr
01058     C8 92 01 F1 | 	add	local52, local51
0105c     C9 52 51 F6 | 	abs	local20, local52 wc
01060     0F 52 05 F5 | 	and	local20, #15
01064     A9 52 61 C6 |  if_b	neg	local20, local20
01068                 | '       j:=(i+k)//16
01068     A9 4C 01 F6 | 	mov	local17, local20
0106c                 | '       v.setcharcolor(i,10,v.getvgacolor(j))
0106c     78 52 01 FB | 	rdlong	local20, objptr
01070     A6 08 01 F6 | 	mov	arg01, local17
01074     54 F1 04 F1 | 	add	objptr, #340
01078     78 08 01 F1 | 	add	arg01, objptr
0107c                 | ' 
0107c                 | ' return colors[color]
0107c     84 F8 C0 FA | 	rdbyte	result1, arg01
01080     50 F1 84 F1 | 	sub	objptr, #336
01084     7C 0C 01 F6 | 	mov	arg03, result1
01088     A9 08 01 F6 | 	mov	arg01, local20
0108c     0A 0A 05 F6 | 	mov	arg02, #10
01090     F4 12 B0 FD | 	call	#_hng012_setcharcolor
01094     04 4C 05 F1 | 	add	local17, #4
01098     A6 52 51 F6 | 	abs	local20, local17 wc
0109c     0F 52 05 F5 | 	and	local20, #15
010a0     A9 52 61 C6 |  if_b	neg	local20, local20
010a4     A9 08 01 F6 | 	mov	arg01, local20
010a8                 | '       v.setbackcolor(i,10,v.getvgacolor((j+4)//16))
010a8     04 F0 84 F1 | 	sub	objptr, #4
010ac     78 52 01 FB | 	rdlong	local20, objptr
010b0     54 F1 04 F1 | 	add	objptr, #340
010b4     78 08 01 F1 | 	add	arg01, objptr
010b8                 | ' 
010b8                 | ' return colors[color]
010b8     84 F8 C0 FA | 	rdbyte	result1, arg01
010bc     50 F1 84 F1 | 	sub	objptr, #336
010c0     7C 0C 01 F6 | 	mov	arg03, result1
010c4     A9 08 01 F6 | 	mov	arg01, local20
010c8     0A 0A 05 F6 | 	mov	arg02, #10
010cc     24 13 B0 FD | 	call	#_hng012_setbackcolor
010d0     04 F0 84 F1 | 	sub	objptr, #4
010d4     78 52 01 FB | 	rdlong	local20, objptr
010d8     01 52 05 F1 | 	add	local20, #1
010dc     78 52 61 FC | 	wrlong	local20, objptr
010e0     84 F0 84 F1 | 	sub	objptr, #132
010e4     64 52 5D F2 | 	cmps	local20, #100 wcz
010e8     64 FF 9F CD |  if_b	jmp	#LR__0023
010ec                 | '     v.waitvbl(10)
010ec     0A 08 05 F6 | 	mov	arg01, #10
010f0     88 F0 04 F1 | 	add	objptr, #136
010f4     4C 11 B0 FD | 	call	#_hng012_waitvbl
010f8     88 F0 84 F1 | 	sub	objptr, #136
010fc     01 90 05 F1 | 	add	local51, #1
01100     15 90 5D F2 | 	cmps	local51, #21 wcz
01104     3C FF 9F CD |  if_b	jmp	#LR__0022
01108                 | '   repeat i from 0 to 99
01108     84 F0 04 F1 | 	add	objptr, #132
0110c     78 00 68 FC | 	wrlong	#0, objptr
01110     84 F0 84 F1 | 	sub	objptr, #132
01114                 | LR__0024
01114                 | '     v.setcharcolor(i,10,153)
01114     84 F0 04 F1 | 	add	objptr, #132
01118     78 08 01 FB | 	rdlong	arg01, objptr
0111c     0A 0A 05 F6 | 	mov	arg02, #10
01120     99 0C 05 F6 | 	mov	arg03, #153
01124     04 F0 04 F1 | 	add	objptr, #4
01128     5C 12 B0 FD | 	call	#_hng012_setcharcolor
0112c                 | '     v.setbackcolor(i,10,145)
0112c     04 F0 84 F1 | 	sub	objptr, #4
01130     78 08 01 FB | 	rdlong	arg01, objptr
01134     0A 0A 05 F6 | 	mov	arg02, #10
01138     91 0C 05 F6 | 	mov	arg03, #145
0113c     04 F0 04 F1 | 	add	objptr, #4
01140     B0 12 B0 FD | 	call	#_hng012_setbackcolor
01144     04 F0 84 F1 | 	sub	objptr, #4
01148     78 52 01 FB | 	rdlong	local20, objptr
0114c     01 52 05 F1 | 	add	local20, #1
01150     78 52 61 FC | 	wrlong	local20, objptr
01154     84 F0 84 F1 | 	sub	objptr, #132
01158     64 52 5D F2 | 	cmps	local20, #100 wcz
0115c     B4 FF 9F CD |  if_b	jmp	#LR__0024
01160                 | ' 
01160                 | '   v.outtextxy (50-(strsize(s4)>>1),12,s4)
01160     98 08 01 F6 | 	mov	arg01, local03
01164     00 8E 05 F6 | 	mov	local50, #0
01168     A4 EE 9F FE | 	loc	pa,	#(@LR__0026-@LR__0025)
0116c     35 00 A0 FD | 	call	#FCACHE_LOAD_
01170                 | LR__0025
01170     84 72 C9 FA | 	rdbyte	local36, arg01 wz
01174     01 8E 05 51 |  if_ne	add	local50, #1
01178     01 08 05 51 |  if_ne	add	arg01, #1
0117c     F0 FF 9F 5D |  if_ne	jmp	#LR__0025
01180                 | LR__0026
01180     C7 F8 00 F6 | 	mov	result1, local50
01184     7C 52 01 F6 | 	mov	local20, result1
01188     01 52 45 F0 | 	shr	local20, #1
0118c     32 08 05 F6 | 	mov	arg01, #50
01190     A9 08 81 F1 | 	sub	arg01, local20
01194     0C 0A 05 F6 | 	mov	arg02, #12
01198     98 0C 01 F6 | 	mov	arg03, local03
0119c     88 F0 04 F1 | 	add	objptr, #136
011a0     78 13 B0 FD | 	call	#_hng012_outtextxy
011a4                 | '   v.waitvbl(20)
011a4     14 08 05 F6 | 	mov	arg01, #20
011a8     98 10 B0 FD | 	call	#_hng012_waitvbl
011ac     88 F0 84 F1 | 	sub	objptr, #136
011b0                 | '   v.outtextxy (50-(strsize(s5)>>1),14,s5)
011b0     99 08 01 F6 | 	mov	arg01, local04
011b4     00 8E 05 F6 | 	mov	local50, #0
011b8     54 EE 9F FE | 	loc	pa,	#(@LR__0028-@LR__0027)
011bc     35 00 A0 FD | 	call	#FCACHE_LOAD_
011c0                 | LR__0027
011c0     84 72 C9 FA | 	rdbyte	local36, arg01 wz
011c4     01 8E 05 51 |  if_ne	add	local50, #1
011c8     01 08 05 51 |  if_ne	add	arg01, #1
011cc     F0 FF 9F 5D |  if_ne	jmp	#LR__0027
011d0                 | LR__0028
011d0     C7 F8 00 F6 | 	mov	result1, local50
011d4     7C 52 01 F6 | 	mov	local20, result1
011d8     01 52 45 F0 | 	shr	local20, #1
011dc     32 08 05 F6 | 	mov	arg01, #50
011e0     A9 08 81 F1 | 	sub	arg01, local20
011e4     99 0C 01 F6 | 	mov	arg03, local04
011e8     0E 0A 05 F6 | 	mov	arg02, #14
011ec     88 F0 04 F1 | 	add	objptr, #136
011f0     28 13 B0 FD | 	call	#_hng012_outtextxy
011f4                 | '   v.waitvbl(200)
011f4     C8 08 05 F6 | 	mov	arg01, #200
011f8     48 10 B0 FD | 	call	#_hng012_waitvbl
011fc                 | ' 
011fc                 | ' 
011fc                 | '   repeat i from 0 to 99
011fc     04 F0 84 F1 | 	sub	objptr, #4
01200     78 00 68 FC | 	wrlong	#0, objptr
01204     84 F0 84 F1 | 	sub	objptr, #132
01208                 | LR__0029
01208     00 94 05 F6 | 	mov	local53, #0
0120c     00 4C 05 F6 | 	mov	local17, #0
01210                 | LR__0030
01210     84 F0 04 F1 | 	add	objptr, #132
01214     78 0C 01 FB | 	rdlong	arg03, objptr
01218     CA 0C 01 F1 | 	add	arg03, local53
0121c     FF 0C 05 F5 | 	and	arg03, #255
01220                 | '       v.putcharxy(i,j,(i+100*j) & $FF)
01220     78 08 01 FB | 	rdlong	arg01, objptr
01224     A6 0A 01 F6 | 	mov	arg02, local17
01228     04 F0 04 F1 | 	add	objptr, #4
0122c     B0 12 B0 FD | 	call	#_hng012_putcharxy
01230     88 F0 84 F1 | 	sub	objptr, #136
01234     01 4C 05 F1 | 	add	local17, #1
01238     64 94 05 F1 | 	add	local53, #100
0123c     1E 4C 5D F2 | 	cmps	local17, #30 wcz
01240     CC FF 9F CD |  if_b	jmp	#LR__0030
01244     84 F0 04 F1 | 	add	objptr, #132
01248     78 52 01 FB | 	rdlong	local20, objptr
0124c     01 52 05 F1 | 	add	local20, #1
01250     78 52 61 FC | 	wrlong	local20, objptr
01254     84 F0 84 F1 | 	sub	objptr, #132
01258     64 52 5D F2 | 	cmps	local20, #100 wcz
0125c     A8 FF 9F CD |  if_b	jmp	#LR__0029
01260                 | ' 
01260                 | '   v.waitvbl(100)
01260     64 08 05 F6 | 	mov	arg01, #100
01264     88 F0 04 F1 | 	add	objptr, #136
01268     D8 0F B0 FD | 	call	#_hng012_waitvbl
0126c     88 F0 84 F1 | 	sub	objptr, #136
01270                 | ' 
01270                 | '   repeat k from 0 to 99
01270     64 90 05 F6 | 	mov	local51, #100
01274                 | LR__0031
01274                 | '     repeat i from 0 to 31
01274     84 F0 04 F1 | 	add	objptr, #132
01278     78 00 68 FC | 	wrlong	#0, objptr
0127c     84 F0 84 F1 | 	sub	objptr, #132
01280     D8 ED 9F FE | 	loc	pa,	#(@LR__0033-@LR__0032)
01284     35 00 A0 FD | 	call	#FCACHE_LOAD_
01288                 | LR__0032
01288                 | '       v.setbordercolor(i,getrnd() & 255,getrnd() & 255,getrnd()& 255)
01288     84 F0 04 F1 | 	add	objptr, #132
0128c     78 08 01 FB | 	rdlong	arg01, objptr
01290     1B 0A 61 FD | 	getrnd	arg02
01294     FF 0A 05 F5 | 	and	arg02, #255
01298     1B 0C 61 FD | 	getrnd	arg03
0129c     FF 0C 05 F5 | 	and	arg03, #255
012a0     1B 0E 61 FD | 	getrnd	arg04
012a4     FF 0E 05 F5 | 	and	arg04, #255
012a8     10 0A 65 F0 | 	shl	arg02, #16
012ac     08 0C 65 F0 | 	shl	arg03, #8
012b0     86 0A 01 F1 | 	add	arg02, arg03
012b4     87 0A 01 F1 | 	add	arg02, arg04
012b8                 | ' 
012b8                 | ' color:=r<<16+g<<8+b
012b8     02 08 65 F0 | 	shl	arg01, #2
012bc     30 F0 04 F1 | 	add	objptr, #48
012c0     78 08 01 F1 | 	add	arg01, objptr
012c4                 | ' bordercolor[line]:=color
012c4     84 0A 61 FC | 	wrlong	arg02, arg01
012c8     30 F0 84 F1 | 	sub	objptr, #48
012cc     78 52 01 FB | 	rdlong	local20, objptr
012d0     01 52 05 F1 | 	add	local20, #1
012d4     78 52 61 FC | 	wrlong	local20, objptr
012d8     84 F0 84 F1 | 	sub	objptr, #132
012dc     20 52 5D F2 | 	cmps	local20, #32 wcz
012e0     A4 FF 9F CD |  if_b	jmp	#LR__0032
012e4                 | LR__0033
012e4                 | '     repeat j from 0 to 29
012e4     00 4C 05 F6 | 	mov	local17, #0
012e8                 | LR__0034
012e8                 | '       repeat i from 0 to 99
012e8     84 F0 04 F1 | 	add	objptr, #132
012ec     78 00 68 FC | 	wrlong	#0, objptr
012f0     84 F0 84 F1 | 	sub	objptr, #132
012f4                 | LR__0035
012f4                 | '         v.setcharcolor(i,j,getrnd()&255)
012f4     84 F0 04 F1 | 	add	objptr, #132
012f8     78 08 01 FB | 	rdlong	arg01, objptr
012fc     1B F8 60 FD | 	getrnd	result1
01300     7C 0C 01 F6 | 	mov	arg03, result1
01304     FF 0C 05 F5 | 	and	arg03, #255
01308     A6 0A 01 F6 | 	mov	arg02, local17
0130c     04 F0 04 F1 | 	add	objptr, #4
01310     74 10 B0 FD | 	call	#_hng012_setcharcolor
01314                 | '         v.setbackcolor(i,j,getrnd()&255)
01314     04 F0 84 F1 | 	sub	objptr, #4
01318     78 08 01 FB | 	rdlong	arg01, objptr
0131c     1B F8 60 FD | 	getrnd	result1
01320     7C 0C 01 F6 | 	mov	arg03, result1
01324     FF 0C 05 F5 | 	and	arg03, #255
01328     A6 0A 01 F6 | 	mov	arg02, local17
0132c     04 F0 04 F1 | 	add	objptr, #4
01330     C0 10 B0 FD | 	call	#_hng012_setbackcolor
01334     04 F0 84 F1 | 	sub	objptr, #4
01338     78 52 01 FB | 	rdlong	local20, objptr
0133c     01 52 05 F1 | 	add	local20, #1
01340     78 52 61 FC | 	wrlong	local20, objptr
01344     84 F0 84 F1 | 	sub	objptr, #132
01348     64 52 5D F2 | 	cmps	local20, #100 wcz
0134c     A4 FF 9F CD |  if_b	jmp	#LR__0035
01350     01 4C 05 F1 | 	add	local17, #1
01354     1E 4C 5D F2 | 	cmps	local17, #30 wcz
01358     8C FF 9F CD |  if_b	jmp	#LR__0034
0135c                 | '     v.waitvbl(1)
0135c     01 08 05 F6 | 	mov	arg01, #1
01360     88 F0 04 F1 | 	add	objptr, #136
01364     DC 0E B0 FD | 	call	#_hng012_waitvbl
01368     88 F0 84 F1 | 	sub	objptr, #136
0136c     C1 91 6D FB | 	djnz	local51, #LR__0031
01370                 | ' 
01370                 | '   v.waitvbl(500)
01370     F4 09 05 F6 | 	mov	arg01, #500
01374     88 F0 04 F1 | 	add	objptr, #136
01378     C8 0E B0 FD | 	call	#_hng012_waitvbl
0137c                 | ' 
0137c                 | '   v.cls(151,145)
0137c     97 08 05 F6 | 	mov	arg01, #151
01380     91 0A 05 F6 | 	mov	arg02, #145
01384     D8 10 B0 FD | 	call	#_hng012_cls
01388                 | '   v.setscreencolors (151,145)
01388     97 08 05 F6 | 	mov	arg01, #151
0138c     91 0A 05 F6 | 	mov	arg02, #145
01390     24 0F B0 FD | 	call	#_hng012_setscreencolors
01394                 | '   v.setbordercolors(0,0,0)
01394     00 08 05 F6 | 	mov	arg01, #0
01398     00 0A 05 F6 | 	mov	arg02, #0
0139c     00 0C 05 F6 | 	mov	arg03, #0
013a0     80 0F B0 FD | 	call	#_hng012_setbordercolors
013a4     88 F0 84 F1 | 	sub	objptr, #136
013a8                 | ' 
013a8                 | '   v.outtextxy (50-(strsize(s6)>>1),10,s6)
013a8     9A 08 01 F6 | 	mov	arg01, local05
013ac     00 8E 05 F6 | 	mov	local50, #0
013b0     5C EC 9F FE | 	loc	pa,	#(@LR__0037-@LR__0036)
013b4     35 00 A0 FD | 	call	#FCACHE_LOAD_
013b8                 | LR__0036
013b8     84 72 C9 FA | 	rdbyte	local36, arg01 wz
013bc     01 8E 05 51 |  if_ne	add	local50, #1
013c0     01 08 05 51 |  if_ne	add	arg01, #1
013c4     F0 FF 9F 5D |  if_ne	jmp	#LR__0036
013c8                 | LR__0037
013c8     C7 F8 00 F6 | 	mov	result1, local50
013cc     7C 52 01 F6 | 	mov	local20, result1
013d0     01 52 45 F0 | 	shr	local20, #1
013d4     32 08 05 F6 | 	mov	arg01, #50
013d8     A9 08 81 F1 | 	sub	arg01, local20
013dc     9A 0C 01 F6 | 	mov	arg03, local05
013e0     0A 0A 05 F6 | 	mov	arg02, #10
013e4     88 F0 04 F1 | 	add	objptr, #136
013e8     30 11 B0 FD | 	call	#_hng012_outtextxy
013ec                 | '   v.waitvbl(50)
013ec     32 08 05 F6 | 	mov	arg01, #50
013f0     50 0E B0 FD | 	call	#_hng012_waitvbl
013f4     88 F0 84 F1 | 	sub	objptr, #136
013f8                 | ' 
013f8                 | ' 
013f8                 | '   random:=getrnd()
013f8     1B F8 60 FD | 	getrnd	result1
013fc                 | ' 
013fc                 | '   repeat j from 0 to 15
013fc     10 4C 05 F6 | 	mov	local17, #16
01400                 | LR__0038
01400                 | ' 
01400                 | '     v. waitvbl(25)
01400     19 08 05 F6 | 	mov	arg01, #25
01404     88 F0 04 F1 | 	add	objptr, #136
01408     38 0E B0 FD | 	call	#_hng012_waitvbl
0140c                 | '     v.setscreencolors (getrnd() & 255,getrnd() & 255)
0140c     1B 08 61 FD | 	getrnd	arg01
01410     FF 08 05 F5 | 	and	arg01, #255
01414     1B F8 60 FD | 	getrnd	result1
01418     7C 0A 01 F6 | 	mov	arg02, result1
0141c     FF 0A 05 F5 | 	and	arg02, #255
01420     94 0E B0 FD | 	call	#_hng012_setscreencolors
01424     88 F0 84 F1 | 	sub	objptr, #136
01428     F5 4D 6D FB | 	djnz	local17, #LR__0038
0142c                 | ' 
0142c                 | '  v.setscreencolors (151,145)
0142c     97 08 05 F6 | 	mov	arg01, #151
01430     91 0A 05 F6 | 	mov	arg02, #145
01434     88 F0 04 F1 | 	add	objptr, #136
01438     7C 0E B0 FD | 	call	#_hng012_setscreencolors
0143c     88 F0 84 F1 | 	sub	objptr, #136
01440                 | ' 
01440                 | '   v.outtextxy (50-(strsize(s7)>>1),12,s7)
01440     9B 08 01 F6 | 	mov	arg01, local06
01444     00 8E 05 F6 | 	mov	local50, #0
01448     C4 EB 9F FE | 	loc	pa,	#(@LR__0040-@LR__0039)
0144c     35 00 A0 FD | 	call	#FCACHE_LOAD_
01450                 | LR__0039
01450     84 72 C9 FA | 	rdbyte	local36, arg01 wz
01454     01 8E 05 51 |  if_ne	add	local50, #1
01458     01 08 05 51 |  if_ne	add	arg01, #1
0145c     F0 FF 9F 5D |  if_ne	jmp	#LR__0039
01460                 | LR__0040
01460     C7 F8 00 F6 | 	mov	result1, local50
01464     7C 52 01 F6 | 	mov	local20, result1
01468     01 52 45 F0 | 	shr	local20, #1
0146c     32 08 05 F6 | 	mov	arg01, #50
01470     A9 08 81 F1 | 	sub	arg01, local20
01474     9B 0C 01 F6 | 	mov	arg03, local06
01478     0C 0A 05 F6 | 	mov	arg02, #12
0147c     88 F0 04 F1 | 	add	objptr, #136
01480     98 10 B0 FD | 	call	#_hng012_outtextxy
01484                 | '   v.waitvbl(50)
01484     32 08 05 F6 | 	mov	arg01, #50
01488     B8 0D B0 FD | 	call	#_hng012_waitvbl
0148c     88 F0 84 F1 | 	sub	objptr, #136
01490                 | ' 
01490                 | '   repeat j from 0 to 15
01490     10 4C 05 F6 | 	mov	local17, #16
01494                 | LR__0041
01494                 | '     v.waitvbl(25)
01494     19 08 05 F6 | 	mov	arg01, #25
01498     88 F0 04 F1 | 	add	objptr, #136
0149c     A4 0D B0 FD | 	call	#_hng012_waitvbl
014a0                 | '     v.setbordercolors (getrnd() & 255,getrnd() & 255,getrnd() & 255)
014a0     1B 08 61 FD | 	getrnd	arg01
014a4     FF 08 05 F5 | 	and	arg01, #255
014a8     1B 0A 61 FD | 	getrnd	arg02
014ac     FF 0A 05 F5 | 	and	arg02, #255
014b0     1B F8 60 FD | 	getrnd	result1
014b4     7C 0C 01 F6 | 	mov	arg03, result1
014b8     FF 0C 05 F5 | 	and	arg03, #255
014bc     64 0E B0 FD | 	call	#_hng012_setbordercolors
014c0     88 F0 84 F1 | 	sub	objptr, #136
014c4     F3 4D 6D FB | 	djnz	local17, #LR__0041
014c8                 | ' 
014c8                 | '   v.waitvbl(25)
014c8     19 08 05 F6 | 	mov	arg01, #25
014cc     88 F0 04 F1 | 	add	objptr, #136
014d0     70 0D B0 FD | 	call	#_hng012_waitvbl
014d4                 | '   v.setbordercolors(0,0,0)
014d4     00 08 05 F6 | 	mov	arg01, #0
014d8     00 0A 05 F6 | 	mov	arg02, #0
014dc     00 0C 05 F6 | 	mov	arg03, #0
014e0     40 0E B0 FD | 	call	#_hng012_setbordercolors
014e4     88 F0 84 F1 | 	sub	objptr, #136
014e8                 | ' '
014e8                 | '   repeat j from 0 to 29
014e8     1E 4C 05 F6 | 	mov	local17, #30
014ec                 | LR__0042
014ec                 | '    v.scrollup()
014ec     88 F0 04 F1 | 	add	objptr, #136
014f0     20 15 B0 FD | 	call	#_hng012_scrollup
014f4                 | '    v.waitvbl(2)
014f4     02 08 05 F6 | 	mov	arg01, #2
014f8     48 0D B0 FD | 	call	#_hng012_waitvbl
014fc     88 F0 84 F1 | 	sub	objptr, #136
01500     FA 4D 6D FB | 	djnz	local17, #LR__0042
01504                 | ' 
01504                 | ' 
01504                 | '   repeat i from 0 to 29
01504     84 F0 04 F1 | 	add	objptr, #132
01508     78 00 68 FC | 	wrlong	#0, objptr
0150c     84 F0 84 F1 | 	sub	objptr, #132
01510                 | LR__0043
01510                 | '     v.waitvbl(2)
01510     02 08 05 F6 | 	mov	arg01, #2
01514     88 F0 04 F1 | 	add	objptr, #136
01518     28 0D B0 FD | 	call	#_hng012_waitvbl
0151c                 | '     v.cls(141,145)
0151c     8D 08 05 F6 | 	mov	arg01, #141
01520     91 0A 05 F6 | 	mov	arg02, #145
01524     38 0F B0 FD | 	call	#_hng012_cls
01528                 | '     v.outtextxy(i,i,s1)
01528     04 F0 84 F1 | 	sub	objptr, #4
0152c     78 08 01 FB | 	rdlong	arg01, objptr
01530     84 0A 01 F6 | 	mov	arg02, arg01
01534     96 0C 01 F6 | 	mov	arg03, local01
01538     04 F0 04 F1 | 	add	objptr, #4
0153c     DC 0F B0 FD | 	call	#_hng012_outtextxy
01540     04 F0 84 F1 | 	sub	objptr, #4
01544     78 52 01 FB | 	rdlong	local20, objptr
01548     01 52 05 F1 | 	add	local20, #1
0154c     78 52 61 FC | 	wrlong	local20, objptr
01550     84 F0 84 F1 | 	sub	objptr, #132
01554     1E 52 5D F2 | 	cmps	local20, #30 wcz
01558     B4 FF 9F CD |  if_b	jmp	#LR__0043
0155c                 | ' 
0155c                 | ' 
0155c                 | '   v.waitvbl(100)
0155c     64 08 05 F6 | 	mov	arg01, #100
01560     88 F0 04 F1 | 	add	objptr, #136
01564     DC 0C B0 FD | 	call	#_hng012_waitvbl
01568                 | '   v.setmode(320)
01568     40 09 05 F6 | 	mov	arg01, #320
0156c     94 17 B0 FD | 	call	#_hng012_setmode
01570                 | '   v.setfontnum(0)
01570                 | ' 
01570                 | ' fontnum:=afontnum
01570     34 F1 04 F1 | 	add	objptr, #308
01574     78 00 68 FC | 	wrlong	#0, objptr
01578                 | '   v.cursoron()
01578                 | ' 
01578                 | ' ''---------- Switch the cursor on
01578                 | ' 
01578                 | ' cursor_sh+=16
01578     6A F0 84 F1 | 	sub	objptr, #106
0157c     78 72 C1 FA | 	rdbyte	local36, objptr
01580     10 72 05 F1 | 	add	local36, #16
01584     78 72 41 FC | 	wrbyte	local36, objptr
01588     CA F0 84 F1 | 	sub	objptr, #202
0158c                 | '   v.cls(15,0)
0158c     0F 08 05 F6 | 	mov	arg01, #15
01590     00 0A 05 F6 | 	mov	arg02, #0
01594     C8 0E B0 FD | 	call	#_hng012_cls
01598                 | '   v.setcursorpos(0,0)
01598     00 0A 05 F6 | 	mov	arg02, #0
0159c                 | ' 
0159c                 | ' ''---------- Set the (x,y) position of cursor
0159c                 | ' 
0159c                 | ' cursor_x:=x
0159c     C8 F0 04 F1 | 	add	objptr, #200
015a0     78 00 48 FC | 	wrbyte	#0, objptr
015a4                 | ' cursor_y:=y
015a4     01 F0 04 F1 | 	add	objptr, #1
015a8     78 00 48 FC | 	wrbyte	#0, objptr
015ac                 | '   v.setwritecolors(v.c_blue,0)
015ac                 | ' 
015ac                 | ' 
015ac                 | ' write_color:=ff
015ac     03 F0 04 F1 | 	add	objptr, #3
015b0     78 EA 68 FC | 	wrlong	#117, objptr
015b4                 | ' write_background:=bb
015b4     04 F0 04 F1 | 	add	objptr, #4
015b8     78 00 68 FC | 	wrlong	#0, objptr
015bc     D0 F0 84 F1 | 	sub	objptr, #208
015c0                 | '   v.writeln(string("blue"))
015c0     1C 00 00 FF 
015c4     F8 08 05 F6 | 	mov	arg01, ##@LR__0202
015c8     DC 13 B0 FD | 	call	#_hng012_writeln
015cc                 | '   v.setwritecolors(v.c_green,0)
015cc     00 0A 05 F6 | 	mov	arg02, #0
015d0                 | ' 
015d0                 | ' 
015d0                 | ' write_color:=ff
015d0     CC F0 04 F1 | 	add	objptr, #204
015d4     78 8E 69 FC | 	wrlong	#199, objptr
015d8                 | ' write_background:=bb
015d8     04 F0 04 F1 | 	add	objptr, #4
015dc     78 00 68 FC | 	wrlong	#0, objptr
015e0     D0 F0 84 F1 | 	sub	objptr, #208
015e4                 | '   v.writeln(string("green"))
015e4     1C 00 00 FF 
015e8     FD 08 05 F6 | 	mov	arg01, ##@LR__0203
015ec     B8 13 B0 FD | 	call	#_hng012_writeln
015f0                 | '   v.setwritecolors(v.c_cyan,0)
015f0     00 0A 05 F6 | 	mov	arg02, #0
015f4                 | ' 
015f4                 | ' 
015f4                 | ' write_color:=ff
015f4     CC F0 04 F1 | 	add	objptr, #204
015f8     78 2E 69 FC | 	wrlong	#151, objptr
015fc                 | ' write_background:=bb
015fc     04 F0 04 F1 | 	add	objptr, #4
01600     78 00 68 FC | 	wrlong	#0, objptr
01604     D0 F0 84 F1 | 	sub	objptr, #208
01608                 | '   v.writeln(string("cyan"))
01608     1C 00 00 FF 
0160c     03 09 05 F6 | 	mov	arg01, ##@LR__0204
01610     94 13 B0 FD | 	call	#_hng012_writeln
01614                 | '   v.setwritecolors(v.c_red,0)
01614     00 0A 05 F6 | 	mov	arg02, #0
01618                 | ' 
01618                 | ' 
01618                 | ' write_color:=ff
01618     CC F0 04 F1 | 	add	objptr, #204
0161c     78 4E 68 FC | 	wrlong	#39, objptr
01620                 | ' write_background:=bb
01620     04 F0 04 F1 | 	add	objptr, #4
01624     78 00 68 FC | 	wrlong	#0, objptr
01628     D0 F0 84 F1 | 	sub	objptr, #208
0162c                 | '   v.writeln(string("red"))
0162c     1C 00 00 FF 
01630     08 09 05 F6 | 	mov	arg01, ##@LR__0205
01634     70 13 B0 FD | 	call	#_hng012_writeln
01638                 | '   v.setwritecolors(v.c_magenta,0)
01638     00 0A 05 F6 | 	mov	arg02, #0
0163c                 | ' 
0163c                 | ' 
0163c                 | ' write_color:=ff
0163c     CC F0 04 F1 | 	add	objptr, #204
01640     78 8E 68 FC | 	wrlong	#71, objptr
01644                 | ' write_background:=bb
01644     04 F0 04 F1 | 	add	objptr, #4
01648     78 00 68 FC | 	wrlong	#0, objptr
0164c     D0 F0 84 F1 | 	sub	objptr, #208
01650                 | '   v.writeln(string("magenta"))
01650     1C 00 00 FF 
01654     0C 09 05 F6 | 	mov	arg01, ##@LR__0206
01658     4C 13 B0 FD | 	call	#_hng012_writeln
0165c                 | '   v.setwritecolors(v.c_brown,0)
0165c     00 0A 05 F6 | 	mov	arg02, #0
01660                 | ' 
01660                 | ' 
01660                 | ' write_color:=ff
01660     CC F0 04 F1 | 	add	objptr, #204
01664     78 EC 69 FC | 	wrlong	#246, objptr
01668                 | ' write_background:=bb
01668     04 F0 04 F1 | 	add	objptr, #4
0166c     78 00 68 FC | 	wrlong	#0, objptr
01670     D0 F0 84 F1 | 	sub	objptr, #208
01674                 | '   v.writeln(string("brown"))
01674     1C 00 00 FF 
01678     14 09 05 F6 | 	mov	arg01, ##@LR__0207
0167c     28 13 B0 FD | 	call	#_hng012_writeln
01680                 | '   v.setwritecolors(v.c_lightgray,0)
01680     00 0A 05 F6 | 	mov	arg02, #0
01684                 | ' 
01684                 | ' 
01684                 | ' write_color:=ff
01684     CC F0 04 F1 | 	add	objptr, #204
01688     78 14 68 FC | 	wrlong	#10, objptr
0168c                 | ' write_background:=bb
0168c     04 F0 04 F1 | 	add	objptr, #4
01690     78 00 68 FC | 	wrlong	#0, objptr
01694     D0 F0 84 F1 | 	sub	objptr, #208
01698                 | '   v.writeln(string("light gray"))
01698     1C 00 00 FF 
0169c     1A 09 05 F6 | 	mov	arg01, ##@LR__0208
016a0     04 13 B0 FD | 	call	#_hng012_writeln
016a4                 | '   v.setwritecolors(v.c_darkgray,0)
016a4     00 0A 05 F6 | 	mov	arg02, #0
016a8                 | ' 
016a8                 | ' 
016a8                 | ' write_color:=ff
016a8     CC F0 04 F1 | 	add	objptr, #204
016ac     78 0A 68 FC | 	wrlong	#5, objptr
016b0                 | ' write_background:=bb
016b0     04 F0 04 F1 | 	add	objptr, #4
016b4     78 00 68 FC | 	wrlong	#0, objptr
016b8     D0 F0 84 F1 | 	sub	objptr, #208
016bc                 | '   v.writeln(string("dark gray"))
016bc     1C 00 00 FF 
016c0     25 09 05 F6 | 	mov	arg01, ##@LR__0209
016c4     E0 12 B0 FD | 	call	#_hng012_writeln
016c8                 | '   v.setwritecolors(v.c_lightblue,0)
016c8     00 0A 05 F6 | 	mov	arg02, #0
016cc                 | ' 
016cc                 | ' 
016cc                 | ' write_color:=ff
016cc     CC F0 04 F1 | 	add	objptr, #204
016d0     78 F6 68 FC | 	wrlong	#123, objptr
016d4                 | ' write_background:=bb
016d4     04 F0 04 F1 | 	add	objptr, #4
016d8     78 00 68 FC | 	wrlong	#0, objptr
016dc     D0 F0 84 F1 | 	sub	objptr, #208
016e0                 | '   v.writeln(string("light blue"))
016e0     1C 00 00 FF 
016e4     2F 09 05 F6 | 	mov	arg01, ##@LR__0210
016e8     BC 12 B0 FD | 	call	#_hng012_writeln
016ec                 | '   v.setwritecolors(v.c_lightgreen,0)
016ec     00 0A 05 F6 | 	mov	arg02, #0
016f0                 | ' 
016f0                 | ' 
016f0                 | ' write_color:=ff
016f0     CC F0 04 F1 | 	add	objptr, #204
016f4     78 96 69 FC | 	wrlong	#203, objptr
016f8                 | ' write_background:=bb
016f8     04 F0 04 F1 | 	add	objptr, #4
016fc     78 00 68 FC | 	wrlong	#0, objptr
01700     D0 F0 84 F1 | 	sub	objptr, #208
01704                 | '   v.writeln(string("light green"))
01704     1C 00 00 FF 
01708     3A 09 05 F6 | 	mov	arg01, ##@LR__0211
0170c     98 12 B0 FD | 	call	#_hng012_writeln
01710                 | '   v.setwritecolors(v.c_lightcyan,0)
01710     00 0A 05 F6 | 	mov	arg02, #0
01714                 | ' 
01714                 | ' 
01714                 | ' write_color:=ff
01714     CC F0 04 F1 | 	add	objptr, #204
01718     78 36 69 FC | 	wrlong	#155, objptr
0171c                 | ' write_background:=bb
0171c     04 F0 04 F1 | 	add	objptr, #4
01720     78 00 68 FC | 	wrlong	#0, objptr
01724     D0 F0 84 F1 | 	sub	objptr, #208
01728                 | '   v.writeln(string("light cyan"))
01728     1C 00 00 FF 
0172c     46 09 05 F6 | 	mov	arg01, ##@LR__0212
01730     74 12 B0 FD | 	call	#_hng012_writeln
01734                 | '   v.setwritecolors(v.c_lightred,0)
01734     00 0A 05 F6 | 	mov	arg02, #0
01738                 | ' 
01738                 | ' 
01738                 | ' write_color:=ff
01738     CC F0 04 F1 | 	add	objptr, #204
0173c     78 56 68 FC | 	wrlong	#43, objptr
01740                 | ' write_background:=bb
01740     04 F0 04 F1 | 	add	objptr, #4
01744     78 00 68 FC | 	wrlong	#0, objptr
01748     D0 F0 84 F1 | 	sub	objptr, #208
0174c                 | '   v.writeln(string("light red"))
0174c     1C 00 00 FF 
01750     51 09 05 F6 | 	mov	arg01, ##@LR__0213
01754     50 12 B0 FD | 	call	#_hng012_writeln
01758                 | '   v.setwritecolors(v.c_lightmagenta,0)
01758     00 0A 05 F6 | 	mov	arg02, #0
0175c                 | ' 
0175c                 | ' 
0175c                 | ' write_color:=ff
0175c     CC F0 04 F1 | 	add	objptr, #204
01760     78 96 68 FC | 	wrlong	#75, objptr
01764                 | ' write_background:=bb
01764     04 F0 04 F1 | 	add	objptr, #4
01768     78 00 68 FC | 	wrlong	#0, objptr
0176c     D0 F0 84 F1 | 	sub	objptr, #208
01770                 | '   v.writeln(string("light magenta"))
01770     1C 00 00 FF 
01774     5B 09 05 F6 | 	mov	arg01, ##@LR__0214
01778     2C 12 B0 FD | 	call	#_hng012_writeln
0177c                 | '   v.setwritecolors(v.c_yellow,0)
0177c     00 0A 05 F6 | 	mov	arg02, #0
01780                 | ' 
01780                 | ' 
01780                 | ' write_color:=ff
01780     CC F0 04 F1 | 	add	objptr, #204
01784     78 D4 69 FC | 	wrlong	#234, objptr
01788                 | ' write_background:=bb
01788     04 F0 04 F1 | 	add	objptr, #4
0178c     78 00 68 FC | 	wrlong	#0, objptr
01790     D0 F0 84 F1 | 	sub	objptr, #208
01794                 | '   v.writeln(string("yellow"))
01794     1C 00 00 FF 
01798     69 09 05 F6 | 	mov	arg01, ##@LR__0215
0179c     08 12 B0 FD | 	call	#_hng012_writeln
017a0                 | '   v.setwritecolors(v.c_white,0)
017a0     00 0A 05 F6 | 	mov	arg02, #0
017a4                 | ' 
017a4                 | ' 
017a4                 | ' write_color:=ff
017a4     CC F0 04 F1 | 	add	objptr, #204
017a8     78 1E 68 FC | 	wrlong	#15, objptr
017ac                 | ' write_background:=bb
017ac     04 F0 04 F1 | 	add	objptr, #4
017b0     78 00 68 FC | 	wrlong	#0, objptr
017b4     D0 F0 84 F1 | 	sub	objptr, #208
017b8                 | '   v.writeln(string("white"))
017b8     1C 00 00 FF 
017bc     70 09 05 F6 | 	mov	arg01, ##@LR__0216
017c0     E4 11 B0 FD | 	call	#_hng012_writeln
017c4                 | '   v.write(string("Clock frequency: "))
017c4     1C 00 00 FF 
017c8     76 09 05 F6 | 	mov	arg01, ##@LR__0217
017cc     24 10 B0 FD | 	call	#_hng012_write
017d0                 | '   v.writeln(v.inttostr(clkfreq))
017d0     14 08 05 FB | 	rdlong	arg01, #20
017d4     6C 13 B0 FD | 	call	#_hng012_inttostr
017d8     7C 08 01 F6 | 	mov	arg01, result1
017dc     C8 11 B0 FD | 	call	#_hng012_writeln
017e0     32 96 05 F6 | 	mov	local54, #50
017e4     00 98 05 F6 | 	mov	local55, #0
017e8     33 9A 05 F6 | 	mov	local56, #51
017ec     00 9C 05 F6 | 	mov	local57, #0
017f0     04 F0 84 F1 | 	sub	objptr, #4
017f4     78 00 68 FC | 	wrlong	#0, objptr
017f8     84 F0 84 F1 | 	sub	objptr, #132
017fc                 | LR__0044
017fc     08 9E 05 F6 | 	mov	local58, #8
01800     00 4C 05 F6 | 	mov	local17, #0
01804                 | LR__0045
01804     02 90 05 F6 | 	mov	local51, #2
01808                 | LR__0046
01808     CC 0C 01 F6 | 	mov	arg03, local55
0180c     A6 0C 01 F1 | 	add	arg03, local17
01810                 | '         v.setbackcolor(2*i+50,j+8,16*i+j)
01810     CB 08 01 F6 | 	mov	arg01, local54
01814     CF 0A 01 F6 | 	mov	arg02, local58
01818     88 F0 04 F1 | 	add	objptr, #136
0181c     D4 0B B0 FD | 	call	#_hng012_setbackcolor
01820     CE 0C 01 F6 | 	mov	arg03, local57
01824     A6 0C 01 F1 | 	add	arg03, local17
01828                 | '         v.setbackcolor(2*i+51,j+8,16*i+j)
01828     CD 08 01 F6 | 	mov	arg01, local56
0182c     CF 0A 01 F6 | 	mov	arg02, local58
01830     C0 0B B0 FD | 	call	#_hng012_setbackcolor
01834     88 F0 84 F1 | 	sub	objptr, #136
01838     F3 91 6D FB | 	djnz	local51, #LR__0046
0183c     01 4C 05 F1 | 	add	local17, #1
01840     01 9E 05 F1 | 	add	local58, #1
01844     10 4C 5D F2 | 	cmps	local17, #16 wcz
01848     B8 FF 9F CD |  if_b	jmp	#LR__0045
0184c     84 F0 04 F1 | 	add	objptr, #132
01850     78 52 01 FB | 	rdlong	local20, objptr
01854     01 52 05 F1 | 	add	local20, #1
01858     78 52 61 FC | 	wrlong	local20, objptr
0185c     02 96 05 F1 | 	add	local54, #2
01860     10 98 05 F1 | 	add	local55, #16
01864     02 9A 05 F1 | 	add	local56, #2
01868     10 9C 05 F1 | 	add	local57, #16
0186c     84 F0 84 F1 | 	sub	objptr, #132
01870     10 52 5D F2 | 	cmps	local20, #16 wcz
01874     84 FF 9F CD |  if_b	jmp	#LR__0044
01878                 | ' 
01878                 | '   v.waitvbl(1000)
01878     01 00 00 FF 
0187c     E8 09 05 F6 | 	mov	arg01, ##1000
01880     88 F0 04 F1 | 	add	objptr, #136
01884     BC 09 B0 FD | 	call	#_hng012_waitvbl
01888                 | ' 
01888                 | ' 
01888                 | ' 
01888                 | '   v.setcursorpos(0,25)
01888     19 0A 05 F6 | 	mov	arg02, #25
0188c                 | ' 
0188c                 | ' ''---------- Set the (x,y) position of cursor
0188c                 | ' 
0188c                 | ' cursor_x:=x
0188c     C8 F0 04 F1 | 	add	objptr, #200
01890     78 00 48 FC | 	wrbyte	#0, objptr
01894                 | ' cursor_y:=y
01894     01 F0 04 F1 | 	add	objptr, #1
01898     78 32 48 FC | 	wrbyte	#25, objptr
0189c     C9 F0 84 F1 | 	sub	objptr, #201
018a0                 | '   v.waitvbl(120)
018a0     78 08 05 F6 | 	mov	arg01, #120
018a4     9C 09 B0 FD | 	call	#_hng012_waitvbl
018a8                 | '   v.setwritecolors(v.c_white,v.c_black)
018a8     00 0A 05 F6 | 	mov	arg02, #0
018ac                 | ' 
018ac                 | ' 
018ac                 | ' write_color:=ff
018ac     CC F0 04 F1 | 	add	objptr, #204
018b0     78 1E 68 FC | 	wrlong	#15, objptr
018b4                 | ' write_background:=bb
018b4     04 F0 04 F1 | 	add	objptr, #4
018b8     78 00 68 FC | 	wrlong	#0, objptr
018bc     D0 F0 84 F1 | 	sub	objptr, #208
018c0                 | '   v.write(string("C:\>"))
018c0     1C 00 00 FF 
018c4     88 09 05 F6 | 	mov	arg01, ##@LR__0218
018c8     28 0F B0 FD | 	call	#_hng012_write
018cc                 | '   v.waitvbl(120)
018cc     78 08 05 F6 | 	mov	arg01, #120
018d0     70 09 B0 FD | 	call	#_hng012_waitvbl
018d4                 | '   v.write(string("p"))
018d4     1C 00 00 FF 
018d8     8D 09 05 F6 | 	mov	arg01, ##@LR__0219
018dc     14 0F B0 FD | 	call	#_hng012_write
018e0                 | '   v.waitvbl(10)
018e0     0A 08 05 F6 | 	mov	arg01, #10
018e4     5C 09 B0 FD | 	call	#_hng012_waitvbl
018e8                 | '   v.write(string("c"))
018e8     1C 00 00 FF 
018ec     8F 09 05 F6 | 	mov	arg01, ##@LR__0220
018f0     00 0F B0 FD | 	call	#_hng012_write
018f4                 | '   v.waitvbl(10)
018f4     0A 08 05 F6 | 	mov	arg01, #10
018f8     48 09 B0 FD | 	call	#_hng012_waitvbl
018fc                 | '   v.writeln(string(" "))
018fc     1C 00 00 FF 
01900     91 09 05 F6 | 	mov	arg01, ##@LR__0221
01904     A0 10 B0 FD | 	call	#_hng012_writeln
01908                 | '   v.waitvbl(120)
01908     78 08 05 F6 | 	mov	arg01, #120
0190c     34 09 B0 FD | 	call	#_hng012_waitvbl
01910                 | ' 
01910                 | '   teststring[100]:=0
01910     24 F0 84 F1 | 	sub	objptr, #36
01914     78 00 48 FC | 	wrbyte	#0, objptr
01918     64 F0 84 F1 | 	sub	objptr, #100
0191c     78 A0 01 F6 | 	mov	local59, objptr
01920     84 F0 04 F1 | 	add	objptr, #132
01924     78 00 68 FC | 	wrlong	#0, objptr
01928     84 F0 84 F1 | 	sub	objptr, #132
0192c     F4 E6 9F FE | 	loc	pa,	#(@LR__0048-@LR__0047)
01930     35 00 A0 FD | 	call	#FCACHE_LOAD_
01934                 | LR__0047
01934                 | '     teststring[i]:=32
01934     D0 40 48 FC | 	wrbyte	#32, local59
01938     84 F0 04 F1 | 	add	objptr, #132
0193c     78 52 01 FB | 	rdlong	local20, objptr
01940     01 52 05 F1 | 	add	local20, #1
01944     78 52 61 FC | 	wrlong	local20, objptr
01948     01 A0 05 F1 | 	add	local59, #1
0194c     84 F0 84 F1 | 	sub	objptr, #132
01950     64 52 5D F2 | 	cmps	local20, #100 wcz
01954     DC FF 9F CD |  if_b	jmp	#LR__0047
01958                 | LR__0048
01958                 | '   repeat i from 21 to 29
01958     84 F0 04 F1 | 	add	objptr, #132
0195c     78 2A 68 FC | 	wrlong	#21, objptr
01960     84 F0 84 F1 | 	sub	objptr, #132
01964                 | LR__0049
01964     78 0C 01 F6 | 	mov	arg03, objptr
01968                 | '     v.outtextxyc(0,i,@teststring,v.c_white,v.c_black)
01968     84 F0 04 F1 | 	add	objptr, #132
0196c     78 0A 01 FB | 	rdlong	arg02, objptr
01970     00 08 05 F6 | 	mov	arg01, #0
01974     0F 0E 05 F6 | 	mov	arg04, #15
01978     00 10 05 F6 | 	mov	arg05, #0
0197c     04 F0 04 F1 | 	add	objptr, #4
01980     48 0C B0 FD | 	call	#_hng012_outtextxyc
01984     04 F0 84 F1 | 	sub	objptr, #4
01988     78 52 01 FB | 	rdlong	local20, objptr
0198c     01 52 05 F1 | 	add	local20, #1
01990     78 52 61 FC | 	wrlong	local20, objptr
01994     84 F0 84 F1 | 	sub	objptr, #132
01998     1E 52 5D F2 | 	cmps	local20, #30 wcz
0199c     C4 FF 9F CD |  if_b	jmp	#LR__0049
019a0                 | ' 
019a0                 | '   v.write(string("The Propeller Commander, Copyleft ("))
019a0     1C 00 00 FF 
019a4     93 09 05 F6 | 	mov	arg01, ##@LR__0222
019a8     88 F0 04 F1 | 	add	objptr, #136
019ac     44 0E B0 FD | 	call	#_hng012_write
019b0     88 F0 84 F1 | 	sub	objptr, #136
019b4                 | '   teststring[0]:=1
019b4     78 02 48 FC | 	wrbyte	#1, objptr
019b8                 | '   teststring[1]:=0
019b8     01 F0 04 F1 | 	add	objptr, #1
019bc     78 00 48 FC | 	wrbyte	#0, objptr
019c0     01 F0 84 F1 | 	sub	objptr, #1
019c4                 | '   v.write(@teststring)
019c4     78 08 01 F6 | 	mov	arg01, objptr
019c8     88 F0 04 F1 | 	add	objptr, #136
019cc     24 0E B0 FD | 	call	#_hng012_write
019d0                 | '   v.writeln(string(") 2021 pik33@o2.pl"))
019d0     1C 00 00 FF 
019d4     B7 09 05 F6 | 	mov	arg01, ##@LR__0223
019d8     CC 0F B0 FD | 	call	#_hng012_writeln
019dc                 | '   v.waitvbl(60)
019dc     3C 08 05 F6 | 	mov	arg01, #60
019e0     60 08 B0 FD | 	call	#_hng012_waitvbl
019e4                 | '   v.writeln(string(" "))
019e4     1C 00 00 FF 
019e8     CA 09 05 F6 | 	mov	arg01, ##@LR__0224
019ec     B8 0F B0 FD | 	call	#_hng012_writeln
019f0                 | '   v.write(string("C:\>"))
019f0     1C 00 00 FF 
019f4     CC 09 05 F6 | 	mov	arg01, ##@LR__0225
019f8     F8 0D B0 FD | 	call	#_hng012_write
019fc                 | ' 
019fc                 | '   v.setwritecolors(v.c_lightcyan,v.c_blue)
019fc                 | ' 
019fc                 | ' 
019fc                 | ' write_color:=ff
019fc     CC F0 04 F1 | 	add	objptr, #204
01a00     78 36 69 FC | 	wrlong	#155, objptr
01a04                 | ' write_background:=bb
01a04     04 F0 04 F1 | 	add	objptr, #4
01a08     78 EA 68 FC | 	wrlong	#117, objptr
01a0c     57 F1 84 F1 | 	sub	objptr, #343
01a10     78 A2 01 F6 | 	mov	local60, objptr
01a14     83 F0 04 F1 | 	add	objptr, #131
01a18     78 02 68 FC | 	wrlong	#1, objptr
01a1c     84 F0 84 F1 | 	sub	objptr, #132
01a20     00 E6 9F FE | 	loc	pa,	#(@LR__0051-@LR__0050)
01a24     35 00 A0 FD | 	call	#FCACHE_LOAD_
01a28                 | LR__0050
01a28                 | '     teststring[i]:=$CD
01a28     D1 9A 49 FC | 	wrbyte	#205, local60
01a2c     84 F0 04 F1 | 	add	objptr, #132
01a30     78 52 01 FB | 	rdlong	local20, objptr
01a34     01 52 05 F1 | 	add	local20, #1
01a38     78 52 61 FC | 	wrlong	local20, objptr
01a3c     01 A2 05 F1 | 	add	local60, #1
01a40     84 F0 84 F1 | 	sub	objptr, #132
01a44     63 52 5D F2 | 	cmps	local20, #99 wcz
01a48     DC FF 9F CD |  if_b	jmp	#LR__0050
01a4c                 | LR__0051
01a4c                 | '   teststring[0]:=$C9
01a4c     78 92 49 FC | 	wrbyte	#201, objptr
01a50                 | '   teststring[50]:=$C9
01a50     32 F0 04 F1 | 	add	objptr, #50
01a54     78 92 49 FC | 	wrbyte	#201, objptr
01a58                 | ' 
01a58                 | '   teststring[49]:=$BB
01a58     01 F0 84 F1 | 	sub	objptr, #1
01a5c     78 76 49 FC | 	wrbyte	#187, objptr
01a60                 | '   teststring[99]:=$BB
01a60     32 F0 04 F1 | 	add	objptr, #50
01a64     78 76 49 FC | 	wrbyte	#187, objptr
01a68                 | '   teststring[100]:=0
01a68     01 F0 04 F1 | 	add	objptr, #1
01a6c     78 00 48 FC | 	wrbyte	#0, objptr
01a70     64 F0 84 F1 | 	sub	objptr, #100
01a74                 | ' 
01a74                 | '   v.outtextxyc(0,0,@teststring,v.c_lightcyan, v.c_blue)
01a74     00 08 05 F6 | 	mov	arg01, #0
01a78     00 0A 05 F6 | 	mov	arg02, #0
01a7c     78 0C 01 F6 | 	mov	arg03, objptr
01a80     9B 0E 05 F6 | 	mov	arg04, #155
01a84     75 10 05 F6 | 	mov	arg05, #117
01a88     88 F0 04 F1 | 	add	objptr, #136
01a8c     3C 0B B0 FD | 	call	#_hng012_outtextxyc
01a90                 | '   v.outtextxyc(71,0,string(" Status "),v.c_lightcyan, v.c_blue)
01a90     1C 00 00 FF 
01a94     D1 0D 05 F6 | 	mov	arg03, ##@LR__0226
01a98     47 08 05 F6 | 	mov	arg01, #71
01a9c     00 0A 05 F6 | 	mov	arg02, #0
01aa0     9B 0E 05 F6 | 	mov	arg04, #155
01aa4     75 10 05 F6 | 	mov	arg05, #117
01aa8     20 0B B0 FD | 	call	#_hng012_outtextxyc
01aac                 | '   v.outtextxyc(23,0,string(" C:\ "),v.c_blue, v.c_lightcyan)
01aac     1C 00 00 FF 
01ab0     DA 0D 05 F6 | 	mov	arg03, ##@LR__0227
01ab4     17 08 05 F6 | 	mov	arg01, #23
01ab8     00 0A 05 F6 | 	mov	arg02, #0
01abc     75 0E 05 F6 | 	mov	arg04, #117
01ac0     9B 10 05 F6 | 	mov	arg05, #155
01ac4     04 0B B0 FD | 	call	#_hng012_outtextxyc
01ac8     87 F0 84 F1 | 	sub	objptr, #135
01acc     78 A4 01 F6 | 	mov	local61, objptr
01ad0     83 F0 04 F1 | 	add	objptr, #131
01ad4     78 02 68 FC | 	wrlong	#1, objptr
01ad8     84 F0 84 F1 | 	sub	objptr, #132
01adc     44 E5 9F FE | 	loc	pa,	#(@LR__0053-@LR__0052)
01ae0     35 00 A0 FD | 	call	#FCACHE_LOAD_
01ae4                 | LR__0052
01ae4                 | '     teststring[i]:=32
01ae4     D2 40 48 FC | 	wrbyte	#32, local61
01ae8     84 F0 04 F1 | 	add	objptr, #132
01aec     78 52 01 FB | 	rdlong	local20, objptr
01af0     01 52 05 F1 | 	add	local20, #1
01af4     78 52 61 FC | 	wrlong	local20, objptr
01af8     01 A4 05 F1 | 	add	local61, #1
01afc     84 F0 84 F1 | 	sub	objptr, #132
01b00     63 52 5D F2 | 	cmps	local20, #99 wcz
01b04     DC FF 9F CD |  if_b	jmp	#LR__0052
01b08                 | LR__0053
01b08                 | '   teststring[43]:=$B3
01b08     2B F0 04 F1 | 	add	objptr, #43
01b0c     78 66 49 FC | 	wrbyte	#179, objptr
01b10                 | '   teststring[32]:=$B3
01b10     0B F0 84 F1 | 	sub	objptr, #11
01b14     78 66 49 FC | 	wrbyte	#179, objptr
01b18                 | '   teststring[22]:=$B3
01b18     0A F0 84 F1 | 	sub	objptr, #10
01b1c     78 66 49 FC | 	wrbyte	#179, objptr
01b20     16 F0 84 F1 | 	sub	objptr, #22
01b24                 | '   teststring[0]:=$BA
01b24     78 74 49 FC | 	wrbyte	#186, objptr
01b28                 | '   teststring[49]:=$BA
01b28     31 F0 04 F1 | 	add	objptr, #49
01b2c     78 74 49 FC | 	wrbyte	#186, objptr
01b30                 | '   teststring[50]:=$BA
01b30     01 F0 04 F1 | 	add	objptr, #1
01b34     78 74 49 FC | 	wrbyte	#186, objptr
01b38                 | '   teststring[99]:=$BA
01b38     31 F0 04 F1 | 	add	objptr, #49
01b3c     78 74 49 FC | 	wrbyte	#186, objptr
01b40                 | '   repeat i from 1 to 19
01b40     21 F0 04 F1 | 	add	objptr, #33
01b44     78 02 68 FC | 	wrlong	#1, objptr
01b48     84 F0 84 F1 | 	sub	objptr, #132
01b4c                 | LR__0054
01b4c     78 0C 01 F6 | 	mov	arg03, objptr
01b50                 | '     v.outtextxyc(0,i,@teststring,v.c_lightcyan, v.c_blue)
01b50     84 F0 04 F1 | 	add	objptr, #132
01b54     78 0A 01 FB | 	rdlong	arg02, objptr
01b58     00 08 05 F6 | 	mov	arg01, #0
01b5c     9B 0E 05 F6 | 	mov	arg04, #155
01b60     75 10 05 F6 | 	mov	arg05, #117
01b64     04 F0 04 F1 | 	add	objptr, #4
01b68     60 0A B0 FD | 	call	#_hng012_outtextxyc
01b6c     04 F0 84 F1 | 	sub	objptr, #4
01b70     78 52 01 FB | 	rdlong	local20, objptr
01b74     01 52 05 F1 | 	add	local20, #1
01b78     78 52 61 FC | 	wrlong	local20, objptr
01b7c     84 F0 84 F1 | 	sub	objptr, #132
01b80     14 52 5D F2 | 	cmps	local20, #20 wcz
01b84     C4 FF 9F CD |  if_b	jmp	#LR__0054
01b88     01 F0 04 F1 | 	add	objptr, #1
01b8c     78 A6 01 F6 | 	mov	local62, objptr
01b90     83 F0 04 F1 | 	add	objptr, #131
01b94     78 02 68 FC | 	wrlong	#1, objptr
01b98     84 F0 84 F1 | 	sub	objptr, #132
01b9c     84 E4 9F FE | 	loc	pa,	#(@LR__0056-@LR__0055)
01ba0     35 00 A0 FD | 	call	#FCACHE_LOAD_
01ba4                 | LR__0055
01ba4                 | '     teststring[i]:=$CD
01ba4     D3 9A 49 FC | 	wrbyte	#205, local62
01ba8     84 F0 04 F1 | 	add	objptr, #132
01bac     78 52 01 FB | 	rdlong	local20, objptr
01bb0     01 52 05 F1 | 	add	local20, #1
01bb4     78 52 61 FC | 	wrlong	local20, objptr
01bb8     01 A6 05 F1 | 	add	local62, #1
01bbc     84 F0 84 F1 | 	sub	objptr, #132
01bc0     63 52 5D F2 | 	cmps	local20, #99 wcz
01bc4     DC FF 9F CD |  if_b	jmp	#LR__0055
01bc8                 | LR__0056
01bc8                 | '   teststring[0]:=$C8
01bc8     78 90 49 FC | 	wrbyte	#200, objptr
01bcc                 | '   teststring[50]:=$C8
01bcc     32 F0 04 F1 | 	add	objptr, #50
01bd0     78 90 49 FC | 	wrbyte	#200, objptr
01bd4                 | ' 
01bd4                 | '   teststring[49]:=$BC
01bd4     01 F0 84 F1 | 	sub	objptr, #1
01bd8     78 78 49 FC | 	wrbyte	#188, objptr
01bdc                 | '   teststring[99]:=$BC
01bdc     32 F0 04 F1 | 	add	objptr, #50
01be0     78 78 49 FC | 	wrbyte	#188, objptr
01be4                 | '   teststring[100]:=0
01be4     01 F0 04 F1 | 	add	objptr, #1
01be8     78 00 48 FC | 	wrbyte	#0, objptr
01bec     64 F0 84 F1 | 	sub	objptr, #100
01bf0                 | ' 
01bf0                 | '   v.outtextxyc(0,20,@teststring,v.c_lightcyan, v.c_blue)
01bf0     00 08 05 F6 | 	mov	arg01, #0
01bf4     14 0A 05 F6 | 	mov	arg02, #20
01bf8     78 0C 01 F6 | 	mov	arg03, objptr
01bfc     9B 0E 05 F6 | 	mov	arg04, #155
01c00     75 10 05 F6 | 	mov	arg05, #117
01c04     88 F0 04 F1 | 	add	objptr, #136
01c08     C0 09 B0 FD | 	call	#_hng012_outtextxyc
01c0c                 | '   v.outtextxy(56,2,string("The Propeller Commander, Version 0.00"))
01c0c     1C 00 00 FF 
01c10     E0 0D 05 F6 | 	mov	arg03, ##@LR__0228
01c14     38 08 05 F6 | 	mov	arg01, #56
01c18     02 0A 05 F6 | 	mov	arg02, #2
01c1c     FC 08 B0 FD | 	call	#_hng012_outtextxy
01c20                 | '   v.outtextxy(60,3,string("Copyleft ("))
01c20     1D 00 00 FF 
01c24     06 0C 05 F6 | 	mov	arg03, ##@LR__0229
01c28     3C 08 05 F6 | 	mov	arg01, #60
01c2c     03 0A 05 F6 | 	mov	arg02, #3
01c30     E8 08 B0 FD | 	call	#_hng012_outtextxy
01c34     88 F0 84 F1 | 	sub	objptr, #136
01c38                 | '   teststring[0]:=1
01c38     78 02 48 FC | 	wrbyte	#1, objptr
01c3c                 | '   teststring[1]:=0
01c3c     01 F0 04 F1 | 	add	objptr, #1
01c40     78 00 48 FC | 	wrbyte	#0, objptr
01c44     01 F0 84 F1 | 	sub	objptr, #1
01c48                 | '   v.outtextxy(70,3,@teststring)
01c48     46 08 05 F6 | 	mov	arg01, #70
01c4c     03 0A 05 F6 | 	mov	arg02, #3
01c50     78 0C 01 F6 | 	mov	arg03, objptr
01c54     88 F0 04 F1 | 	add	objptr, #136
01c58     C0 08 B0 FD | 	call	#_hng012_outtextxy
01c5c                 | '   v.outtextxy(71,3,string(") 2021 pik33@o2.pl"))
01c5c     1D 00 00 FF 
01c60     11 0C 05 F6 | 	mov	arg03, ##@LR__0230
01c64     47 08 05 F6 | 	mov	arg01, #71
01c68     03 0A 05 F6 | 	mov	arg02, #3
01c6c     AC 08 B0 FD | 	call	#_hng012_outtextxy
01c70     87 F0 84 F1 | 	sub	objptr, #135
01c74     78 A8 01 F6 | 	mov	local63, objptr
01c78     83 F0 04 F1 | 	add	objptr, #131
01c7c     78 02 68 FC | 	wrlong	#1, objptr
01c80     84 F0 84 F1 | 	sub	objptr, #132
01c84                 | LR__0057
01c84                 | '     teststring[i]:=$CD
01c84     D4 9A 49 FC | 	wrbyte	#205, local63
01c88                 | '     teststring[50]:=0
01c88     32 F0 04 F1 | 	add	objptr, #50
01c8c     78 00 48 FC | 	wrbyte	#0, objptr
01c90     32 F0 84 F1 | 	sub	objptr, #50
01c94                 | '     teststring[0]:=$CC
01c94     78 98 49 FC | 	wrbyte	#204, objptr
01c98                 | '     teststring[49]:=$B9
01c98     31 F0 04 F1 | 	add	objptr, #49
01c9c     78 72 49 FC | 	wrbyte	#185, objptr
01ca0     31 F0 84 F1 | 	sub	objptr, #49
01ca4     78 AA 01 F6 | 	mov	local64, objptr
01ca8                 | '     v.outtextxy(50,5,@teststring)
01ca8     32 08 05 F6 | 	mov	arg01, #50
01cac     05 0A 05 F6 | 	mov	arg02, #5
01cb0     D5 0C 01 F6 | 	mov	arg03, local64
01cb4     88 F0 04 F1 | 	add	objptr, #136
01cb8     60 08 B0 FD | 	call	#_hng012_outtextxy
01cbc                 | '     v.outtextxy(50,14,@teststring)
01cbc     32 08 05 F6 | 	mov	arg01, #50
01cc0     0E 0A 05 F6 | 	mov	arg02, #14
01cc4     D5 0C 01 F6 | 	mov	arg03, local64
01cc8     50 08 B0 FD | 	call	#_hng012_outtextxy
01ccc     04 F0 84 F1 | 	sub	objptr, #4
01cd0     78 52 01 FB | 	rdlong	local20, objptr
01cd4     01 52 05 F1 | 	add	local20, #1
01cd8     78 52 61 FC | 	wrlong	local20, objptr
01cdc     01 A8 05 F1 | 	add	local63, #1
01ce0     84 F0 84 F1 | 	sub	objptr, #132
01ce4     31 52 5D F2 | 	cmps	local20, #49 wcz
01ce8     98 FF 9F CD |  if_b	jmp	#LR__0057
01cec                 | ' 
01cec                 | '   v.outtextxy(65,7,string("524,288 Bytes Memory"))
01cec     1D 00 00 FF 
01cf0     24 0C 05 F6 | 	mov	arg03, ##@LR__0231
01cf4     41 08 05 F6 | 	mov	arg01, #65
01cf8     07 0A 05 F6 | 	mov	arg02, #7
01cfc     88 F0 04 F1 | 	add	objptr, #136
01d00     18 08 B0 FD | 	call	#_hng012_outtextxy
01d04     7A AC 01 F6 | 	mov	local65, ptr__dat__
01d08     13 AE C5 F9 | 	decod	local66, #19
01d0c     D6 AE 81 F1 | 	sub	local66, local65
01d10                 | '   i:=$80000-@aend
01d10     04 F0 84 F1 | 	sub	objptr, #4
01d14     78 AE 61 FC | 	wrlong	local66, objptr
01d18     D7 B4 01 F6 | 	mov	muldiva_, local66
01d1c     84 F0 84 F1 | 	sub	objptr, #132
01d20     01 00 00 FF 
01d24     E8 B7 05 F6 | 	mov	muldivb_, ##1000
01d28     6B 00 A0 FD | 	call	#divide_
01d2c                 | '   v.outtextxy(66,8,v.inttostr(i / 1000))
01d2c     42 B0 05 F6 | 	mov	local67, #66
01d30     08 52 05 F6 | 	mov	local20, #8
01d34     DB 08 01 F6 | 	mov	arg01, muldivb_
01d38     88 F0 04 F1 | 	add	objptr, #136
01d3c     04 0E B0 FD | 	call	#_hng012_inttostr
01d40     7C 0C 01 F6 | 	mov	arg03, result1
01d44     D8 08 01 F6 | 	mov	arg01, local67
01d48     A9 0A 01 F6 | 	mov	arg02, local20
01d4c     CC 07 B0 FD | 	call	#_hng012_outtextxy
01d50                 | '   v.outtextxy(69,8,string(","))
01d50     1D 00 00 FF 
01d54     39 0C 05 F6 | 	mov	arg03, ##@LR__0232
01d58     45 08 05 F6 | 	mov	arg01, #69
01d5c     08 0A 05 F6 | 	mov	arg02, #8
01d60     B8 07 B0 FD | 	call	#_hng012_outtextxy
01d64     04 F0 84 F1 | 	sub	objptr, #4
01d68     78 B4 01 FB | 	rdlong	muldiva_, objptr
01d6c     84 F0 84 F1 | 	sub	objptr, #132
01d70     01 00 00 FF 
01d74     E8 B7 05 F6 | 	mov	muldivb_, ##1000
01d78     6B 00 A0 FD | 	call	#divide_
01d7c                 | '   v.outtextxy(70,8,v.inttostr(i // 1000))
01d7c     46 B0 05 F6 | 	mov	local67, #70
01d80     08 52 05 F6 | 	mov	local20, #8
01d84     DA 08 01 F6 | 	mov	arg01, muldiva_
01d88     88 F0 04 F1 | 	add	objptr, #136
01d8c     B4 0D B0 FD | 	call	#_hng012_inttostr
01d90     7C 0C 01 F6 | 	mov	arg03, result1
01d94     D8 08 01 F6 | 	mov	arg01, local67
01d98     A9 0A 01 F6 | 	mov	arg02, local20
01d9c     7C 07 B0 FD | 	call	#_hng012_outtextxy
01da0                 | '   v.outtextxy(74,8,string("Bytes Free"))
01da0     1D 00 00 FF 
01da4     3B 0C 05 F6 | 	mov	arg03, ##@LR__0233
01da8     4A 08 05 F6 | 	mov	arg01, #74
01dac     08 0A 05 F6 | 	mov	arg02, #8
01db0     68 07 B0 FD | 	call	#_hng012_outtextxy
01db4                 | '   v.outtextxy(56,9,string("32,212,254,720 total bytes on drive C:"))
01db4     1D 00 00 FF 
01db8     46 0C 05 F6 | 	mov	arg03, ##@LR__0234
01dbc     38 08 05 F6 | 	mov	arg01, #56
01dc0     09 0A 05 F6 | 	mov	arg02, #9
01dc4     54 07 B0 FD | 	call	#_hng012_outtextxy
01dc8                 | '   v.outtextxy(57,10,string("3,989,123,640 bytes free on drive C:"))
01dc8     1D 00 00 FF 
01dcc     6D 0C 05 F6 | 	mov	arg03, ##@LR__0235
01dd0     39 08 05 F6 | 	mov	arg01, #57
01dd4     0A 0A 05 F6 | 	mov	arg02, #10
01dd8     40 07 B0 FD | 	call	#_hng012_outtextxy
01ddc                 | '   v.outtextxy(58,11,string("123 files use 128,956,384 bytes in"))
01ddc     1D 00 00 FF 
01de0     92 0C 05 F6 | 	mov	arg03, ##@LR__0236
01de4     3A 08 05 F6 | 	mov	arg01, #58
01de8     0B 0A 05 F6 | 	mov	arg02, #11
01dec     2C 07 B0 FD | 	call	#_hng012_outtextxy
01df0                 | '   v.outtextxy(74,12,string("C:"))
01df0     1D 00 00 FF 
01df4     B5 0C 05 F6 | 	mov	arg03, ##@LR__0237
01df8     4A 08 05 F6 | 	mov	arg01, #74
01dfc     0C 0A 05 F6 | 	mov	arg02, #12
01e00     18 07 B0 FD | 	call	#_hng012_outtextxy
01e04                 | '   v.outtextxy(58,17,string("No 'dirinfo' file in this directory"))
01e04     1D 00 00 FF 
01e08     B8 0C 05 F6 | 	mov	arg03, ##@LR__0238
01e0c     3A 08 05 F6 | 	mov	arg01, #58
01e10     11 0A 05 F6 | 	mov	arg02, #17
01e14     04 07 B0 FD | 	call	#_hng012_outtextxy
01e18                 | ' 
01e18                 | '   v.outtextxyc(9,1,string("Name"),v.c_yellow,v.c_blue)
01e18     1D 00 00 FF 
01e1c     DC 0C 05 F6 | 	mov	arg03, ##@LR__0239
01e20     09 08 05 F6 | 	mov	arg01, #9
01e24     01 0A 05 F6 | 	mov	arg02, #1
01e28     EA 0E 05 F6 | 	mov	arg04, #234
01e2c     75 10 05 F6 | 	mov	arg05, #117
01e30     98 07 B0 FD | 	call	#_hng012_outtextxyc
01e34                 | '   v.outtextxyc(25,1,string("Size"),v.c_yellow,v.c_blue)
01e34     1D 00 00 FF 
01e38     E1 0C 05 F6 | 	mov	arg03, ##@LR__0240
01e3c     19 08 05 F6 | 	mov	arg01, #25
01e40     01 0A 05 F6 | 	mov	arg02, #1
01e44     EA 0E 05 F6 | 	mov	arg04, #234
01e48     75 10 05 F6 | 	mov	arg05, #117
01e4c     7C 07 B0 FD | 	call	#_hng012_outtextxyc
01e50                 | '   v.outtextxyc(36,1,string("Date"),v.c_yellow,v.c_blue)
01e50     1D 00 00 FF 
01e54     E6 0C 05 F6 | 	mov	arg03, ##@LR__0241
01e58     24 08 05 F6 | 	mov	arg01, #36
01e5c     01 0A 05 F6 | 	mov	arg02, #1
01e60     EA 0E 05 F6 | 	mov	arg04, #234
01e64     75 10 05 F6 | 	mov	arg05, #117
01e68     60 07 B0 FD | 	call	#_hng012_outtextxyc
01e6c                 | '   v.outtextxyc(45,1,string("Time"),v.c_yellow,v.c_blue)
01e6c     1D 00 00 FF 
01e70     EB 0C 05 F6 | 	mov	arg03, ##@LR__0242
01e74     2D 08 05 F6 | 	mov	arg01, #45
01e78     01 0A 05 F6 | 	mov	arg02, #1
01e7c     EA 0E 05 F6 | 	mov	arg04, #234
01e80     75 10 05 F6 | 	mov	arg05, #117
01e84     44 07 B0 FD | 	call	#_hng012_outtextxyc
01e88                 | '   v.outtextxy(44,2,string("12:34"))
01e88     1D 00 00 FF 
01e8c     F0 0C 05 F6 | 	mov	arg03, ##@LR__0243
01e90     2C 08 05 F6 | 	mov	arg01, #44
01e94     02 0A 05 F6 | 	mov	arg02, #2
01e98     80 06 B0 FD | 	call	#_hng012_outtextxy
01e9c                 | '   v.outtextxy(33,2,string("2021.03.23"))
01e9c     1D 00 00 FF 
01ea0     F6 0C 05 F6 | 	mov	arg03, ##@LR__0244
01ea4     21 08 05 F6 | 	mov	arg01, #33
01ea8     02 0A 05 F6 | 	mov	arg02, #2
01eac     6C 06 B0 FD | 	call	#_hng012_outtextxy
01eb0     88 F0 84 F1 | 	sub	objptr, #136
01eb4                 | '   teststring[0]:=16
01eb4     78 20 48 FC | 	wrbyte	#16, objptr
01eb8                 | '   teststring[1]:=0
01eb8     01 F0 04 F1 | 	add	objptr, #1
01ebc     78 00 48 FC | 	wrbyte	#0, objptr
01ec0                 | '   repeat i from 2 to 8
01ec0     83 F0 04 F1 | 	add	objptr, #131
01ec4     78 04 68 FC | 	wrlong	#2, objptr
01ec8     84 F0 84 F1 | 	sub	objptr, #132
01ecc                 | LR__0058
01ecc     78 0C 01 F6 | 	mov	arg03, objptr
01ed0                 | '     v.outtextxy(23,i,@teststring)
01ed0     84 F0 04 F1 | 	add	objptr, #132
01ed4     78 0A 01 FB | 	rdlong	arg02, objptr
01ed8     17 08 05 F6 | 	mov	arg01, #23
01edc     04 F0 04 F1 | 	add	objptr, #4
01ee0     38 06 B0 FD | 	call	#_hng012_outtextxy
01ee4     04 F0 84 F1 | 	sub	objptr, #4
01ee8     78 52 01 FB | 	rdlong	local20, objptr
01eec     01 52 05 F1 | 	add	local20, #1
01ef0     78 52 61 FC | 	wrlong	local20, objptr
01ef4     84 F0 84 F1 | 	sub	objptr, #132
01ef8     09 52 5D F2 | 	cmps	local20, #9 wcz
01efc     CC FF 9F CD |  if_b	jmp	#LR__0058
01f00                 | '   teststring[0]:=17
01f00     78 22 48 FC | 	wrbyte	#17, objptr
01f04                 | '   repeat i from 2 to 8
01f04     84 F0 04 F1 | 	add	objptr, #132
01f08     78 04 68 FC | 	wrlong	#2, objptr
01f0c     84 F0 84 F1 | 	sub	objptr, #132
01f10                 | LR__0059
01f10     78 0C 01 F6 | 	mov	arg03, objptr
01f14                 | '     v.outtextxy(31,i,@teststring)
01f14     84 F0 04 F1 | 	add	objptr, #132
01f18     78 0A 01 FB | 	rdlong	arg02, objptr
01f1c     1F 08 05 F6 | 	mov	arg01, #31
01f20     04 F0 04 F1 | 	add	objptr, #4
01f24     F4 05 B0 FD | 	call	#_hng012_outtextxy
01f28     04 F0 84 F1 | 	sub	objptr, #4
01f2c     78 52 01 FB | 	rdlong	local20, objptr
01f30     01 52 05 F1 | 	add	local20, #1
01f34     78 52 61 FC | 	wrlong	local20, objptr
01f38     84 F0 84 F1 | 	sub	objptr, #132
01f3c     09 52 5D F2 | 	cmps	local20, #9 wcz
01f40     CC FF 9F CD |  if_b	jmp	#LR__0059
01f44                 | '   repeat i from 2 to 8
01f44     84 F0 04 F1 | 	add	objptr, #132
01f48     78 04 68 FC | 	wrlong	#2, objptr
01f4c     84 F0 84 F1 | 	sub	objptr, #132
01f50                 | LR__0060
01f50                 | '     v.outtextxy(24,i,string("SUB-DIR"))
01f50     84 F0 04 F1 | 	add	objptr, #132
01f54     78 0A 01 FB | 	rdlong	arg02, objptr
01f58     1D 00 00 FF 
01f5c     01 0D 05 F6 | 	mov	arg03, ##@LR__0245
01f60     18 08 05 F6 | 	mov	arg01, #24
01f64     04 F0 04 F1 | 	add	objptr, #4
01f68     B0 05 B0 FD | 	call	#_hng012_outtextxy
01f6c     04 F0 84 F1 | 	sub	objptr, #4
01f70     78 52 01 FB | 	rdlong	local20, objptr
01f74     01 52 05 F1 | 	add	local20, #1
01f78     78 52 61 FC | 	wrlong	local20, objptr
01f7c     84 F0 84 F1 | 	sub	objptr, #132
01f80     09 52 5D F2 | 	cmps	local20, #9 wcz
01f84     C8 FF 9F CD |  if_b	jmp	#LR__0060
01f88                 | '   v.outtextxy(27,9,string("21356"))
01f88     1D 00 00 FF 
01f8c     09 0D 05 F6 | 	mov	arg03, ##@LR__0246
01f90     1B 08 05 F6 | 	mov	arg01, #27
01f94     09 0A 05 F6 | 	mov	arg02, #9
01f98     88 F0 04 F1 | 	add	objptr, #136
01f9c     7C 05 B0 FD | 	call	#_hng012_outtextxy
01fa0                 | '   v.outtextxy(27,10,string("12564"))
01fa0     1D 00 00 FF 
01fa4     0F 0D 05 F6 | 	mov	arg03, ##@LR__0247
01fa8     1B 08 05 F6 | 	mov	arg01, #27
01fac     0A 0A 05 F6 | 	mov	arg02, #10
01fb0     68 05 B0 FD | 	call	#_hng012_outtextxy
01fb4                 | '   v.outtextxy(28,11,string("1128"))
01fb4     1D 00 00 FF 
01fb8     15 0D 05 F6 | 	mov	arg03, ##@LR__0248
01fbc     1C 08 05 F6 | 	mov	arg01, #28
01fc0     0B 0A 05 F6 | 	mov	arg02, #11
01fc4     54 05 B0 FD | 	call	#_hng012_outtextxy
01fc8                 | '   v.outtextxy(26,12,string("105321"))
01fc8     1D 00 00 FF 
01fcc     1A 0D 05 F6 | 	mov	arg03, ##@LR__0249
01fd0     1A 08 05 F6 | 	mov	arg01, #26
01fd4     0C 0A 05 F6 | 	mov	arg02, #12
01fd8     40 05 B0 FD | 	call	#_hng012_outtextxy
01fdc                 | '   v.outtextxy(27,13,string("30831"))
01fdc     1D 00 00 FF 
01fe0     21 0D 05 F6 | 	mov	arg03, ##@LR__0250
01fe4     1B 08 05 F6 | 	mov	arg01, #27
01fe8     0D 0A 05 F6 | 	mov	arg02, #13
01fec     2C 05 B0 FD | 	call	#_hng012_outtextxy
01ff0                 | '   v.outtextxy(29,14,string("856"))
01ff0     1D 00 00 FF 
01ff4     27 0D 05 F6 | 	mov	arg03, ##@LR__0251
01ff8     1D 08 05 F6 | 	mov	arg01, #29
01ffc     0E 0A 05 F6 | 	mov	arg02, #14
02000     18 05 B0 FD | 	call	#_hng012_outtextxy
02004                 | '   v.outtextxy(27,15,string("31248"))
02004     1D 00 00 FF 
02008     2B 0D 05 F6 | 	mov	arg03, ##@LR__0252
0200c     1B 08 05 F6 | 	mov	arg01, #27
02010     0F 0A 05 F6 | 	mov	arg02, #15
02014     04 05 B0 FD | 	call	#_hng012_outtextxy
02018                 | '   v.outtextxy(28,16,string("2316"))
02018     1D 00 00 FF 
0201c     31 0D 05 F6 | 	mov	arg03, ##@LR__0253
02020     1C 08 05 F6 | 	mov	arg01, #28
02024     10 0A 05 F6 | 	mov	arg02, #16
02028     F0 04 B0 FD | 	call	#_hng012_outtextxy
0202c                 | '   v.outtextxy(27,17,string("17531"))
0202c     1D 00 00 FF 
02030     36 0D 05 F6 | 	mov	arg03, ##@LR__0254
02034     1B 08 05 F6 | 	mov	arg01, #27
02038     11 0A 05 F6 | 	mov	arg02, #17
0203c     DC 04 B0 FD | 	call	#_hng012_outtextxy
02040                 | '   v.outtextxy(1,2,string("PropDOS"))
02040     1D 00 00 FF 
02044     3C 0D 05 F6 | 	mov	arg03, ##@LR__0255
02048     01 08 05 F6 | 	mov	arg01, #1
0204c     02 0A 05 F6 | 	mov	arg02, #2
02050     C8 04 B0 FD | 	call	#_hng012_outtextxy
02054                 | '   v.outtextxy(1,3,string("BASIC"))
02054     1D 00 00 FF 
02058     44 0D 05 F6 | 	mov	arg03, ##@LR__0256
0205c     01 08 05 F6 | 	mov	arg01, #1
02060     03 0A 05 F6 | 	mov	arg02, #3
02064     B4 04 B0 FD | 	call	#_hng012_outtextxy
02068                 | '   v.outtextxy(1,4,string("Spin"))
02068     1D 00 00 FF 
0206c     4A 0D 05 F6 | 	mov	arg03, ##@LR__0257
02070     01 08 05 F6 | 	mov	arg01, #1
02074     04 0A 05 F6 | 	mov	arg02, #4
02078     A0 04 B0 FD | 	call	#_hng012_outtextxy
0207c                 | '   v.outtextxy(1,5,string("Windows"))
0207c     1D 00 00 FF 
02080     4F 0D 05 F6 | 	mov	arg03, ##@LR__0258
02084     01 08 05 F6 | 	mov	arg01, #1
02088     05 0A 05 F6 | 	mov	arg02, #5
0208c     8C 04 B0 FD | 	call	#_hng012_outtextxy
02090                 | '   v.outtextxy(1,6,string("Atari             emu"))
02090     1D 00 00 FF 
02094     57 0D 05 F6 | 	mov	arg03, ##@LR__0259
02098     01 08 05 F6 | 	mov	arg01, #1
0209c     06 0A 05 F6 | 	mov	arg02, #6
020a0     78 04 B0 FD | 	call	#_hng012_outtextxy
020a4                 | '   v.outtextxy(1,7,string("Amiga             emu"))
020a4     1D 00 00 FF 
020a8     6D 0D 05 F6 | 	mov	arg03, ##@LR__0260
020ac     01 08 05 F6 | 	mov	arg01, #1
020b0     07 0A 05 F6 | 	mov	arg02, #7
020b4     64 04 B0 FD | 	call	#_hng012_outtextxy
020b8                 | '   v.outtextxy(1,8,string("Propeller"))
020b8     1D 00 00 FF 
020bc     83 0D 05 F6 | 	mov	arg03, ##@LR__0261
020c0     01 08 05 F6 | 	mov	arg01, #1
020c4     08 0A 05 F6 | 	mov	arg02, #8
020c8     50 04 B0 FD | 	call	#_hng012_outtextxy
020cc                 | '   v.outtextxy(1,9,string("DOS               SYS"))
020cc     1D 00 00 FF 
020d0     8D 0D 05 F6 | 	mov	arg03, ##@LR__0262
020d4     01 08 05 F6 | 	mov	arg01, #1
020d8     09 0A 05 F6 | 	mov	arg02, #9
020dc     3C 04 B0 FD | 	call	#_hng012_outtextxy
020e0                 | '   v.outtextxy(1,10,string("DUP               SYS"))
020e0     1D 00 00 FF 
020e4     A3 0D 05 F6 | 	mov	arg03, ##@LR__0263
020e8     01 08 05 F6 | 	mov	arg01, #1
020ec     0A 0A 05 F6 | 	mov	arg02, #10
020f0     28 04 B0 FD | 	call	#_hng012_outtextxy
020f4                 | '   v.outtextxy(1,11,string("Autoexec          BAT"))
020f4     1D 00 00 FF 
020f8     B9 0D 05 F6 | 	mov	arg03, ##@LR__0264
020fc     01 08 05 F6 | 	mov	arg01, #1
02100     0B 0A 05 F6 | 	mov	arg02, #11
02104     14 04 B0 FD | 	call	#_hng012_outtextxy
02108                 | '   v.outtextxy(1,12,string("pc                exe"))
02108     1D 00 00 FF 
0210c     CF 0D 05 F6 | 	mov	arg03, ##@LR__0265
02110     01 08 05 F6 | 	mov	arg01, #1
02114     0C 0A 05 F6 | 	mov	arg02, #12
02118     00 04 B0 FD | 	call	#_hng012_outtextxy
0211c                 | '   v.outtextxy(1,13,string("win               com"))
0211c     1D 00 00 FF 
02120     E5 0D 05 F6 | 	mov	arg03, ##@LR__0266
02124     01 08 05 F6 | 	mov	arg01, #1
02128     0D 0A 05 F6 | 	mov	arg02, #13
0212c     EC 03 B0 FD | 	call	#_hng012_outtextxy
02130                 | '   v.outtextxy(1,14,string("DOOM              BAT"))
02130     1D 00 00 FF 
02134     FB 0D 05 F6 | 	mov	arg03, ##@LR__0267
02138     01 08 05 F6 | 	mov	arg01, #1
0213c     0E 0A 05 F6 | 	mov	arg02, #14
02140     D8 03 B0 FD | 	call	#_hng012_outtextxy
02144                 | '   v.outtextxy(1,15,string("command           com"))
02144     1E 00 00 FF 
02148     11 0C 05 F6 | 	mov	arg03, ##@LR__0268
0214c     01 08 05 F6 | 	mov	arg01, #1
02150     0F 0A 05 F6 | 	mov	arg02, #15
02154     C4 03 B0 FD | 	call	#_hng012_outtextxy
02158                 | '   v.outtextxy(1,16,string("config            sys"))
02158     1E 00 00 FF 
0215c     27 0C 05 F6 | 	mov	arg03, ##@LR__0269
02160     01 08 05 F6 | 	mov	arg01, #1
02164     10 0A 05 F6 | 	mov	arg02, #16
02168     B0 03 B0 FD | 	call	#_hng012_outtextxy
0216c                 | '   v.outtextxy(1,17,string("msdos             sys"))
0216c     1E 00 00 FF 
02170     3D 0C 05 F6 | 	mov	arg03, ##@LR__0270
02174     01 08 05 F6 | 	mov	arg01, #1
02178     11 0A 05 F6 | 	mov	arg02, #17
0217c     9C 03 B0 FD | 	call	#_hng012_outtextxy
02180     88 F0 84 F1 | 	sub	objptr, #136
02184     78 B2 01 F6 | 	mov	local68, objptr
02188     84 F0 04 F1 | 	add	objptr, #132
0218c     78 00 68 FC | 	wrlong	#0, objptr
02190     84 F0 84 F1 | 	sub	objptr, #132
02194     8C DE 9F FE | 	loc	pa,	#(@LR__0062-@LR__0061)
02198     35 00 A0 FD | 	call	#FCACHE_LOAD_
0219c                 | LR__0061
0219c                 | '     teststring[i]:=$C4
0219c     D9 88 49 FC | 	wrbyte	#196, local68
021a0     84 F0 04 F1 | 	add	objptr, #132
021a4     78 52 01 FB | 	rdlong	local20, objptr
021a8     01 52 05 F1 | 	add	local20, #1
021ac     78 52 61 FC | 	wrlong	local20, objptr
021b0     01 B2 05 F1 | 	add	local68, #1
021b4     84 F0 84 F1 | 	sub	objptr, #132
021b8     32 52 5D F2 | 	cmps	local20, #50 wcz
021bc     DC FF 9F CD |  if_b	jmp	#LR__0061
021c0                 | LR__0062
021c0                 | '   teststring[50]:=0
021c0     32 F0 04 F1 | 	add	objptr, #50
021c4     78 00 48 FC | 	wrbyte	#0, objptr
021c8     32 F0 84 F1 | 	sub	objptr, #50
021cc                 | '   teststring[0]:=$BA
021cc     78 74 49 FC | 	wrbyte	#186, objptr
021d0                 | '   teststring[49]:=$BA
021d0     31 F0 04 F1 | 	add	objptr, #49
021d4     78 74 49 FC | 	wrbyte	#186, objptr
021d8                 | '   teststring[22]:=$C1
021d8     1B F0 84 F1 | 	sub	objptr, #27
021dc     78 82 49 FC | 	wrbyte	#193, objptr
021e0                 | '   teststring[32]:=$C1
021e0     0A F0 04 F1 | 	add	objptr, #10
021e4     78 82 49 FC | 	wrbyte	#193, objptr
021e8                 | '   teststring[43]:=$C1
021e8     0B F0 04 F1 | 	add	objptr, #11
021ec     78 82 49 FC | 	wrbyte	#193, objptr
021f0     2B F0 84 F1 | 	sub	objptr, #43
021f4                 | '   v.outtextxy(0,18,@teststring)
021f4     00 08 05 F6 | 	mov	arg01, #0
021f8     12 0A 05 F6 | 	mov	arg02, #18
021fc     78 0C 01 F6 | 	mov	arg03, objptr
02200     88 F0 04 F1 | 	add	objptr, #136
02204     14 03 B0 FD | 	call	#_hng012_outtextxy
02208                 | '   v.outtextxy(1,19,string("pc.exe                105321    2021.03.23 12:34"))
02208     1E 00 00 FF 
0220c     53 0C 05 F6 | 	mov	arg03, ##@LR__0271
02210     01 08 05 F6 | 	mov	arg01, #1
02214     13 0A 05 F6 | 	mov	arg02, #19
02218     00 03 B0 FD | 	call	#_hng012_outtextxy
0221c                 | ' 
0221c                 | ' 
0221c                 | ' 
0221c                 | '   v.waitvbl(12000)
0221c     17 00 00 FF 
02220     E0 08 05 F6 | 	mov	arg01, ##12000
02224     1C 00 B0 FD | 	call	#_hng012_waitvbl
02228                 | '   v.setmode(448)
02228     C0 09 05 F6 | 	mov	arg01, #448
0222c     D4 0A B0 FD | 	call	#_hng012_setmode
02230     88 F0 84 F1 | 	sub	objptr, #136
02234     8C E5 9F FD | 	jmp	#LR__0004
02238     46 F0 03 F6 | 	mov	ptra, fp
0223c     5A 00 A0 FD | 	call	#popregs_
02240                 | _demo_ret
02240     2D 00 64 FD | 	ret
02244                 | 
02244                 | ' 
02244                 | ' '*************************************************************************
02244                 | ' '                                                                        *
02244                 | ' '  VBlank functions                                                      *
02244                 | ' '                                                                        *
02244                 | ' '*************************************************************************
02244                 | ' 
02244                 | ' pub waitvbl(amount) | i
02244                 | _hng012_waitvbl
02244     04 88 04 F6 | 	mov	COUNT_, #4
02248     4B 00 A0 FD | 	call	#pushregs_
0224c     84 2C 01 F6 | 	mov	local01, arg01
02250                 | ' 
02250                 | ' ''---------- Wait for start of vblank. Amount=delay in frames
02250                 | ' 
02250                 | ' repeat i from 1 to amount
02250     01 2E 05 F6 | 	mov	local02, #1
02254     01 2C 5D F2 | 	cmps	local01, #1 wcz
02258     01 30 05 16 |  if_a	mov	local03, #1
0225c     01 30 65 E6 |  if_be	neg	local03, #1
02260     98 2C 01 F1 | 	add	local01, local03
02264                 | LR__0063
02264                 | '   repeat until vblank==0
02264                 | LR__0064
02264     D4 F0 04 F1 | 	add	objptr, #212
02268     78 32 09 FB | 	rdlong	local04, objptr wz
0226c     D4 F0 84 F1 | 	sub	objptr, #212
02270     0C 00 90 AD |  if_e	jmp	#LR__0065
02274                 | '     waitus(100)
02274     64 08 05 F6 | 	mov	arg01, #100
02278     7C 0E B0 FD | 	call	#__system___waitus
0227c     E4 FF 9F FD | 	jmp	#LR__0064
02280                 | LR__0065
02280                 | '   repeat until vblank==1
02280                 | LR__0066
02280     D4 F0 04 F1 | 	add	objptr, #212
02284     78 32 01 FB | 	rdlong	local04, objptr
02288     D4 F0 84 F1 | 	sub	objptr, #212
0228c     01 32 0D F2 | 	cmp	local04, #1 wz
02290     0C 00 90 AD |  if_e	jmp	#LR__0067
02294                 | '     waitus(100)
02294     64 08 05 F6 | 	mov	arg01, #100
02298     5C 0E B0 FD | 	call	#__system___waitus
0229c     E0 FF 9F FD | 	jmp	#LR__0066
022a0                 | LR__0067
022a0     98 2E 01 F1 | 	add	local02, local03
022a4     96 2E 09 F2 | 	cmp	local02, local01 wz
022a8     B8 FF 9F 5D |  if_ne	jmp	#LR__0063
022ac     46 F0 03 F6 | 	mov	ptra, fp
022b0     5A 00 A0 FD | 	call	#popregs_
022b4                 | _hng012_waitvbl_ret
022b4     2D 00 64 FD | 	ret
022b8                 | 
022b8                 | ' 
022b8                 | ' ''---------- Set font and back colors for all screen - from 256 color palette
022b8                 | ' 
022b8                 | ' pub setscreencolors(ff,bb) | c ,i
022b8                 | _hng012_setscreencolors
022b8     18 08 65 F0 | 	shl	arg01, #24
022bc     10 0A 65 F0 | 	shl	arg02, #16
022c0     85 08 01 F1 | 	add	arg01, arg02
022c4                 | ' 
022c4                 | ' c:=ff<<24+bb<<16
022c4                 | ' 
022c4                 | ' repeat i from 0 to buflen-1
022c4     00 FA 04 F6 | 	mov	_var01, #0
022c8     C4 F0 04 F1 | 	add	objptr, #196
022cc     78 FC 00 FB | 	rdlong	_var02, objptr
022d0     C4 F0 84 F1 | 	sub	objptr, #196
022d4     01 FC 84 F1 | 	sub	_var02, #1
022d8     00 FC 5C F2 | 	cmps	_var02, #0 wcz
022dc     01 FE 04 16 |  if_a	mov	_var03, #1
022e0     01 FE 64 E6 |  if_be	neg	_var03, #1
022e4     7F FC 00 F1 | 	add	_var02, _var03
022e8     44 DD 9F FE | 	loc	pa,	#(@LR__0069-@LR__0068)
022ec     35 00 A0 FD | 	call	#FCACHE_LOAD_
022f0                 | LR__0068
022f0     7D 00 01 F6 | 	mov	_var04, _var01
022f4     02 00 65 F0 | 	shl	_var04, #2
022f8     78 02 01 FB | 	rdlong	_var05, objptr
022fc     80 02 01 F1 | 	add	_var05, _var04
02300     81 04 01 FB | 	rdlong	_var06, _var05
02304     7F 00 00 FF 
02308     FF 05 05 F5 | 	and	_var06, ##65535
0230c     84 04 41 F5 | 	or	_var06, arg01
02310                 | '    long[buf_ptr+4*i]:= (long[buf_ptr+4*i] & $FFFF) |  c
02310     81 04 61 FC | 	wrlong	_var06, _var05
02314     7F FA 00 F1 | 	add	_var01, _var03
02318     7E FA 08 F2 | 	cmp	_var01, _var02 wz
0231c     D0 FF 9F 5D |  if_ne	jmp	#LR__0068
02320                 | LR__0069
02320                 | _hng012_setscreencolors_ret
02320     2D 00 64 FD | 	ret
02324                 | 
02324                 | ' 
02324                 | ' ''---------- Set border color for all screen - rgb
02324                 | ' 
02324                 | ' pub setbordercolors(r,g,b) |color, i
02324                 | _hng012_setbordercolors
02324     10 08 65 F0 | 	shl	arg01, #16
02328     08 0A 65 F0 | 	shl	arg02, #8
0232c     85 08 01 F1 | 	add	arg01, arg02
02330     86 08 01 F1 | 	add	arg01, arg03
02334                 | ' 
02334                 | ' color:=r<<16+g<<8+b  ''' todo!!! border buffer has to be defined like a main buffer
02334                 | ' 
02334                 | ' repeat i from 0 to lines+1
02334     00 FA 04 F6 | 	mov	_var01, #0
02338     28 F1 04 F1 | 	add	objptr, #296
0233c     78 FC 00 FB | 	rdlong	_var02, objptr
02340     28 F1 84 F1 | 	sub	objptr, #296
02344     01 FC 04 F1 | 	add	_var02, #1
02348     00 FC 5C F2 | 	cmps	_var02, #0 wcz
0234c     01 FE 04 16 |  if_a	mov	_var03, #1
02350     01 FE 64 E6 |  if_be	neg	_var03, #1
02354     7F FC 00 F1 | 	add	_var02, _var03
02358     C8 DC 9F FE | 	loc	pa,	#(@LR__0071-@LR__0070)
0235c     35 00 A0 FD | 	call	#FCACHE_LOAD_
02360                 | LR__0070
02360     7D 00 01 F6 | 	mov	_var04, _var01
02364     02 00 65 F0 | 	shl	_var04, #2
02368     2C F0 04 F1 | 	add	objptr, #44
0236c     78 00 01 F1 | 	add	_var04, objptr
02370                 | '   bordercolor[i]:=color
02370     80 08 61 FC | 	wrlong	arg01, _var04
02374     7F FA 00 F1 | 	add	_var01, _var03
02378     7E FA 08 F2 | 	cmp	_var01, _var02 wz
0237c     2C F0 84 F1 | 	sub	objptr, #44
02380     DC FF 9F 5D |  if_ne	jmp	#LR__0070
02384                 | LR__0071
02384                 | _hng012_setbordercolors_ret
02384     2D 00 64 FD | 	ret
02388                 | 
02388                 | ' 
02388                 | ' ''---------- Set the color for the character at line y and position x
02388                 | ' 
02388                 | ' pub setcharcolor(x,y,c) | place, color
02388                 | _hng012_setcharcolor
02388     24 F1 04 F1 | 	add	objptr, #292
0238c     78 FA 00 FB | 	rdlong	_var01, objptr
02390     7D 0A 01 FD | 	qmul	arg02, _var01
02394     18 FC 60 FD | 	getqx	_var02
02398     7E 08 01 F1 | 	add	arg01, _var02
0239c                 | ' 
0239c                 | ' place:=(x)+(y*cpl)
0239c                 | ' 
0239c                 | ' if (place>buflen-1)
0239c     60 F0 84 F1 | 	sub	objptr, #96
023a0     78 FE 00 FB | 	rdlong	_var03, objptr
023a4     C4 F0 84 F1 | 	sub	objptr, #196
023a8     01 FE 84 F1 | 	sub	_var03, #1
023ac     7F 08 59 F2 | 	cmps	arg01, _var03 wcz
023b0     10 00 90 ED |  if_be	jmp	#LR__0072
023b4     C4 F0 04 F1 | 	add	objptr, #196
023b8     78 08 01 FB | 	rdlong	arg01, objptr
023bc     C4 F0 84 F1 | 	sub	objptr, #196
023c0     01 08 85 F1 | 	sub	arg01, #1
023c4                 | '   place:=buflen-1
023c4                 | LR__0072
023c4     02 08 65 F0 | 	shl	arg01, #2
023c8     78 00 01 FB | 	rdlong	_var04, objptr
023cc     84 00 01 F1 | 	add	_var04, arg01
023d0     80 02 01 FB | 	rdlong	_var05, _var04
023d4     FF 7F 00 FF 
023d8     FF 03 05 F5 | 	and	_var05, ##16777215
023dc     18 0C 65 F0 | 	shl	arg03, #24
023e0     86 02 41 F5 | 	or	_var05, arg03
023e4                 | ' 
023e4                 | ' color:=(long[buf_ptr+4*place] &$FFFFFF) | (c<<24)
023e4     78 04 01 FB | 	rdlong	_var06, objptr
023e8     84 04 01 F1 | 	add	_var06, arg01
023ec                 | ' long[buf_ptr+4*place]:=color
023ec     82 02 61 FC | 	wrlong	_var05, _var06
023f0                 | _hng012_setcharcolor_ret
023f0     2D 00 64 FD | 	ret
023f4                 | 
023f4                 | ' 
023f4                 | ' ''---------- Set the background color at line y and position x
023f4                 | ' 
023f4                 | ' pub setbackcolor(x,y,c) | place, color
023f4                 | _hng012_setbackcolor
023f4     24 F1 04 F1 | 	add	objptr, #292
023f8     78 FA 00 FB | 	rdlong	_var01, objptr
023fc     7D 0A 01 FD | 	qmul	arg02, _var01
02400     18 FC 60 FD | 	getqx	_var02
02404     7E 08 01 F1 | 	add	arg01, _var02
02408                 | ' 
02408                 | ' place:=(x)+(y*cpl)
02408                 | ' 
02408                 | ' if (place>buflen-1)
02408     60 F0 84 F1 | 	sub	objptr, #96
0240c     78 FE 00 FB | 	rdlong	_var03, objptr
02410     C4 F0 84 F1 | 	sub	objptr, #196
02414     01 FE 84 F1 | 	sub	_var03, #1
02418     7F 08 59 F2 | 	cmps	arg01, _var03 wcz
0241c     10 00 90 ED |  if_be	jmp	#LR__0073
02420     C4 F0 04 F1 | 	add	objptr, #196
02424     78 08 01 FB | 	rdlong	arg01, objptr
02428     C4 F0 84 F1 | 	sub	objptr, #196
0242c     01 08 85 F1 | 	sub	arg01, #1
02430                 | '   place:=buflen-1
02430                 | LR__0073
02430     02 08 65 F0 | 	shl	arg01, #2
02434     78 00 01 FB | 	rdlong	_var04, objptr
02438     84 00 01 F1 | 	add	_var04, arg01
0243c     80 02 01 FB | 	rdlong	_var05, _var04
02440     7F 80 7F FF 
02444     FF 03 05 F5 | 	and	_var05, ##-16711681
02448     10 0C 65 F0 | 	shl	arg03, #16
0244c     86 02 41 F5 | 	or	_var05, arg03
02450                 | ' 
02450                 | ' color:=(long[buf_ptr+4*place] &$FF00FFFF) | (c<<16)
02450     78 04 01 FB | 	rdlong	_var06, objptr
02454     84 04 01 F1 | 	add	_var06, arg01
02458                 | ' long[buf_ptr+4*place]:=color
02458     82 02 61 FC | 	wrlong	_var05, _var06
0245c                 | _hng012_setbackcolor_ret
0245c     2D 00 64 FD | 	ret
02460                 | 
02460                 | ' 
02460                 | ' 
02460                 | ' '*************************************************************************
02460                 | ' '                                                                        *
02460                 | ' '  Text functions                                                        *
02460                 | ' '                                                                        *
02460                 | ' '*************************************************************************
02460                 | ' 
02460                 | ' ''---------- Clear the screen, set its foreground/background color
02460                 | ' 
02460                 | ' pub cls(fc,bc)   :c
02460                 | _hng012_cls
02460     03 88 04 F6 | 	mov	COUNT_, #3
02464     4B 00 A0 FD | 	call	#pushregs_
02468     84 2C 01 F6 | 	mov	local01, arg01
0246c     96 2E 01 F6 | 	mov	local02, local01
02470     18 2E 65 F0 | 	shl	local02, #24
02474     85 30 01 F6 | 	mov	local03, arg02
02478     10 30 65 F0 | 	shl	local03, #16
0247c     98 2E 01 F1 | 	add	local02, local03
02480     20 2E 05 F1 | 	add	local02, #32
02484                 | ' 
02484                 | ' c:=fc<<24+bc<<16+$20
02484                 | ' longfill(buf_ptr,c,buflen)
02484     78 08 01 FB | 	rdlong	arg01, objptr
02488     C4 F0 04 F1 | 	add	objptr, #196
0248c     78 0C 09 FB | 	rdlong	arg03, objptr wz
02490     C4 F0 84 F1 | 	sub	objptr, #196
02494     14 00 90 AD |  if_e	jmp	#LR__0078
02498     70 DB 9F FE | 	loc	pa,	#(@LR__0076-@LR__0074)
0249c     35 00 A0 FD | 	call	#FCACHE_LOAD_
024a0                 | LR__0074
024a0     86 04 D8 FC | 	rep	@LR__0077, arg03
024a4                 | LR__0075
024a4     84 2E 61 FC | 	wrlong	local02, arg01
024a8     04 08 05 F1 | 	add	arg01, #4
024ac                 | LR__0076
024ac                 | LR__0077
024ac                 | LR__0078
024ac                 | ' setwritecolors(fc,bc)
024ac                 | ' 
024ac                 | ' 
024ac                 | ' write_color:=ff
024ac     CC F0 04 F1 | 	add	objptr, #204
024b0     78 2C 61 FC | 	wrlong	local01, objptr
024b4                 | ' write_background:=bb
024b4     04 F0 04 F1 | 	add	objptr, #4
024b8     78 0A 61 FC | 	wrlong	arg02, objptr
024bc                 | ' cursor_x:=0
024bc     08 F0 84 F1 | 	sub	objptr, #8
024c0     78 00 48 FC | 	wrbyte	#0, objptr
024c4                 | ' cursor_y:=0
024c4     01 F0 04 F1 | 	add	objptr, #1
024c8     78 00 48 FC | 	wrbyte	#0, objptr
024cc     C9 F0 84 F1 | 	sub	objptr, #201
024d0     97 F8 00 F6 | 	mov	result1, local02
024d4     46 F0 03 F6 | 	mov	ptra, fp
024d8     5A 00 A0 FD | 	call	#popregs_
024dc                 | _hng012_cls_ret
024dc     2D 00 64 FD | 	ret
024e0                 | 
024e0                 | ' 
024e0                 | ' ''---------- Output a char at x,y, don't change colors and cursor position
024e0                 | ' 
024e0                 | ' pub putcharxy(x,y,achar) | c
024e0                 | _hng012_putcharxy
024e0     24 F1 04 F1 | 	add	objptr, #292
024e4     78 FA 00 FB | 	rdlong	_var01, objptr
024e8     24 F1 84 F1 | 	sub	objptr, #292
024ec     85 FA 00 FD | 	qmul	_var01, arg02
024f0     18 FC 60 FD | 	getqx	_var02
024f4     84 FC 00 F1 | 	add	_var02, arg01
024f8     02 FC 64 F0 | 	shl	_var02, #2
024fc     78 FE 00 FB | 	rdlong	_var03, objptr
02500     7E FE 00 F1 | 	add	_var03, _var02
02504     7F 00 01 FB | 	rdlong	_var04, _var03
02508     FF 00 25 F5 | 	andn	_var04, #255
0250c     FF 0C 05 F5 | 	and	arg03, #255
02510     86 00 41 F5 | 	or	_var04, arg03
02514                 | ' 
02514                 | ' long[buf_ptr+4*(cpl*y+x)]:=(long[buf_ptr+4*(cpl*y+x)] & $FFFFFF00)  |(achar & $000000FF)
02514     7F 00 61 FC | 	wrlong	_var04, _var03
02518                 | _hng012_putcharxy_ret
02518     2D 00 64 FD | 	ret
0251c                 | 
0251c                 | ' 
0251c                 | ' ''--------- Output a string at position x,y without changing colors
0251c                 | ' 
0251c                 | ' pub outtextxy(x,y,text) | iii
0251c                 | _hng012_outtextxy
0251c     0B 88 04 F6 | 	mov	COUNT_, #11
02520     4B 00 A0 FD | 	call	#pushregs_
02524     84 2C 01 F6 | 	mov	local01, arg01
02528                 | ' 
02528                 | ' repeat iii from 0 to strsize(text)-1
02528     00 2E 05 F6 | 	mov	local02, #0
0252c     86 08 01 F6 | 	mov	arg01, arg03
02530     00 30 05 F6 | 	mov	local03, #0
02534     D8 DA 9F FE | 	loc	pa,	#(@LR__0080-@LR__0079)
02538     35 00 A0 FD | 	call	#FCACHE_LOAD_
0253c                 | LR__0079
0253c     84 32 C9 FA | 	rdbyte	local04, arg01 wz
02540     01 30 05 51 |  if_ne	add	local03, #1
02544     01 08 05 51 |  if_ne	add	arg01, #1
02548     F0 FF 9F 5D |  if_ne	jmp	#LR__0079
0254c                 | LR__0080
0254c     98 F8 00 F6 | 	mov	result1, local03
02550     7C 34 01 F6 | 	mov	local05, result1
02554     01 34 85 F1 | 	sub	local05, #1
02558     00 34 5D F2 | 	cmps	local05, #0 wcz
0255c     01 36 05 16 |  if_a	mov	local06, #1
02560     01 36 65 E6 |  if_be	neg	local06, #1
02564     9B 34 01 F1 | 	add	local05, local06
02568     E4 DA 9F FE | 	loc	pa,	#(@LR__0082-@LR__0081)
0256c     35 00 A0 FD | 	call	#FCACHE_LOAD_
02570                 | LR__0081
02570     24 F1 04 F1 | 	add	objptr, #292
02574     78 38 01 FB | 	rdlong	local07, objptr
02578     24 F1 84 F1 | 	sub	objptr, #292
0257c     85 38 01 FD | 	qmul	local07, arg02
02580     18 3A 61 FD | 	getqx	local08
02584     96 3A 01 F1 | 	add	local08, local01
02588     97 3A 01 F1 | 	add	local08, local02
0258c     02 3A 65 F0 | 	shl	local08, #2
02590     78 3C 01 FB | 	rdlong	local09, objptr
02594     9D 3C 01 F1 | 	add	local09, local08
02598     9E 3E 01 FB | 	rdlong	local10, local09
0259c     FF 3E 25 F5 | 	andn	local10, #255
025a0     86 40 01 F6 | 	mov	local11, arg03
025a4     97 40 01 F1 | 	add	local11, local02
025a8     A0 38 C1 FA | 	rdbyte	local07, local11
025ac     9C 3E 41 F5 | 	or	local10, local07
025b0                 | '   long[buf_ptr+4*(cpl*y+x+iii)]:=(long[buf_ptr+4*(cpl*y+x+iii)] & $FFFFFF00)  | byte[text+iii]
025b0     9E 3E 61 FC | 	wrlong	local10, local09
025b4     9B 2E 01 F1 | 	add	local02, local06
025b8     9A 2E 09 F2 | 	cmp	local02, local05 wz
025bc     B0 FF 9F 5D |  if_ne	jmp	#LR__0081
025c0                 | LR__0082
025c0     46 F0 03 F6 | 	mov	ptra, fp
025c4     5A 00 A0 FD | 	call	#popregs_
025c8                 | _hng012_outtextxy_ret
025c8     2D 00 64 FD | 	ret
025cc                 | 
025cc                 | ' 
025cc                 | ' 
025cc                 | ' ''--------- Output a string at position x,y and colors b,f
025cc                 | ' 
025cc                 | ' pub outtextxyc(x,y,text,f,b) | iii,c
025cc                 | _hng012_outtextxyc
025cc     0E 88 04 F6 | 	mov	COUNT_, #14
025d0     4B 00 A0 FD | 	call	#pushregs_
025d4     84 2C 01 F6 | 	mov	local01, arg01
025d8     18 0E 65 F0 | 	shl	arg04, #24
025dc     10 10 65 F0 | 	shl	arg05, #16
025e0     88 0E 01 F1 | 	add	arg04, arg05
025e4                 | ' 
025e4                 | ' c:=f<<24+b<<16
025e4                 | ' repeat iii from 0 to strsize(text)-1
025e4     00 2E 05 F6 | 	mov	local02, #0
025e8     86 08 01 F6 | 	mov	arg01, arg03
025ec     00 30 05 F6 | 	mov	local03, #0
025f0     1C DA 9F FE | 	loc	pa,	#(@LR__0084-@LR__0083)
025f4     35 00 A0 FD | 	call	#FCACHE_LOAD_
025f8                 | LR__0083
025f8     84 32 C9 FA | 	rdbyte	local04, arg01 wz
025fc     01 30 05 51 |  if_ne	add	local03, #1
02600     01 08 05 51 |  if_ne	add	arg01, #1
02604     F0 FF 9F 5D |  if_ne	jmp	#LR__0083
02608                 | LR__0084
02608     98 F8 00 F6 | 	mov	result1, local03
0260c     7C 34 01 F6 | 	mov	local05, result1
02610     01 34 85 F1 | 	sub	local05, #1
02614     00 34 5D F2 | 	cmps	local05, #0 wcz
02618     01 36 05 16 |  if_a	mov	local06, #1
0261c     01 36 65 E6 |  if_be	neg	local06, #1
02620     9B 34 01 F1 | 	add	local05, local06
02624     64 DA 9F FE | 	loc	pa,	#(@LR__0086-@LR__0085)
02628     35 00 A0 FD | 	call	#FCACHE_LOAD_
0262c                 | LR__0085
0262c     24 F1 04 F1 | 	add	objptr, #292
02630     78 38 01 FB | 	rdlong	local07, objptr
02634     24 F1 84 F1 | 	sub	objptr, #292
02638     85 38 01 FD | 	qmul	local07, arg02
0263c     18 3A 61 FD | 	getqx	local08
02640     96 3A 01 F1 | 	add	local08, local01
02644     97 3A 01 F1 | 	add	local08, local02
02648     02 3A 65 F0 | 	shl	local08, #2
0264c     78 3C 01 FB | 	rdlong	local09, objptr
02650     9D 3C 01 F1 | 	add	local09, local08
02654     9E 3E 01 FB | 	rdlong	local10, local09
02658     FF 3E 25 F5 | 	andn	local10, #255
0265c     86 40 01 F6 | 	mov	local11, arg03
02660     97 40 01 F1 | 	add	local11, local02
02664     A0 38 C1 FA | 	rdbyte	local07, local11
02668     9C 3E 41 F5 | 	or	local10, local07
0266c                 | '   long[buf_ptr+4*(cpl*y+x+iii)]:=(long[buf_ptr+4*(cpl*y+x+iii)] & $FFFFFF00)  | byte[text+iii]
0266c     9E 3E 61 FC | 	wrlong	local10, local09
02670     24 F1 04 F1 | 	add	objptr, #292
02674     78 38 01 FB | 	rdlong	local07, objptr
02678     24 F1 84 F1 | 	sub	objptr, #292
0267c     85 38 01 FD | 	qmul	local07, arg02
02680     18 42 61 FD | 	getqx	local12
02684     96 42 01 F1 | 	add	local12, local01
02688     97 42 01 F1 | 	add	local12, local02
0268c     02 42 65 F0 | 	shl	local12, #2
02690     78 44 01 FB | 	rdlong	local13, objptr
02694     A1 44 01 F1 | 	add	local13, local12
02698     A2 46 01 FB | 	rdlong	local14, local13
0269c     7F 00 00 FF 
026a0     FF 47 05 F5 | 	and	local14, ##65535
026a4     87 46 41 F5 | 	or	local14, arg04
026a8                 | '   long[buf_ptr+4*(cpl*y+x+iii)]:=(long[buf_ptr+4*(cpl*y+x+iii)] & $0000FFFF)  | c
026a8     A2 46 61 FC | 	wrlong	local14, local13
026ac     9B 2E 01 F1 | 	add	local02, local06
026b0     9A 2E 09 F2 | 	cmp	local02, local05 wz
026b4     74 FF 9F 5D |  if_ne	jmp	#LR__0085
026b8                 | LR__0086
026b8     46 F0 03 F6 | 	mov	ptra, fp
026bc     5A 00 A0 FD | 	call	#popregs_
026c0                 | _hng012_outtextxyc_ret
026c0     2D 00 64 FD | 	ret
026c4                 | 
026c4                 | ' 
026c4                 | ' ''---------- Output a char at the cursor position, move the cursor
026c4                 | ' 
026c4                 | ' pub putchar(achar) | c,x,y
026c4                 | _hng012_putchar
026c4     0F 88 04 F6 | 	mov	COUNT_, #15
026c8     4B 00 A0 FD | 	call	#pushregs_
026cc                 | ' 
026cc                 | ' x:=cursor_x
026cc     C8 F0 04 F1 | 	add	objptr, #200
026d0     78 2C C1 FA | 	rdbyte	local01, objptr
026d4                 | ' y:=cursor_y
026d4     01 F0 04 F1 | 	add	objptr, #1
026d8     78 2E C1 FA | 	rdbyte	local02, objptr
026dc     03 F0 04 F1 | 	add	objptr, #3
026e0     78 30 01 FB | 	rdlong	local03, objptr
026e4     18 30 65 F0 | 	shl	local03, #24
026e8     04 F0 04 F1 | 	add	objptr, #4
026ec     78 32 01 FB | 	rdlong	local04, objptr
026f0     10 32 65 F0 | 	shl	local04, #16
026f4     99 30 01 F1 | 	add	local03, local04
026f8                 | ' c:=write_color<<24+write_background<<16
026f8     54 F0 04 F1 | 	add	objptr, #84
026fc     78 34 01 FB | 	rdlong	local05, objptr
02700     24 F1 84 F1 | 	sub	objptr, #292
02704     97 34 01 FD | 	qmul	local05, local02
02708     18 36 61 FD | 	getqx	local06
0270c     96 36 01 F1 | 	add	local06, local01
02710     02 36 65 F0 | 	shl	local06, #2
02714     78 38 01 FB | 	rdlong	local07, objptr
02718     9B 38 01 F1 | 	add	local07, local06
0271c     9C 3A 01 FB | 	rdlong	local08, local07
02720     7F 00 00 FF 
02724     FF 3B 05 F5 | 	and	local08, ##65535
02728     98 3A 41 F5 | 	or	local08, local03
0272c                 | ' long[buf_ptr+4*(cpl*y+x)]:=long[buf_ptr+4*(cpl*y+x)] &$FFFF | c
0272c     9C 3A 61 FC | 	wrlong	local08, local07
02730     24 F1 04 F1 | 	add	objptr, #292
02734     78 34 01 FB | 	rdlong	local05, objptr
02738     24 F1 84 F1 | 	sub	objptr, #292
0273c     97 34 01 FD | 	qmul	local05, local02
02740     18 3C 61 FD | 	getqx	local09
02744     96 3C 01 F1 | 	add	local09, local01
02748     02 3C 65 F0 | 	shl	local09, #2
0274c     78 3E 01 FB | 	rdlong	local10, objptr
02750     9E 3E 01 F1 | 	add	local10, local09
02754     9F 40 01 FB | 	rdlong	local11, local10
02758     FF 40 25 F5 | 	andn	local11, #255
0275c     84 42 01 F6 | 	mov	local12, arg01
02760     FF 42 05 F5 | 	and	local12, #255
02764     A1 40 41 F5 | 	or	local11, local12
02768                 | ' long[buf_ptr+4*(cpl*y+x)]:=(long[buf_ptr+4*(cpl*y+x)] & $FFFFFF00)  |(achar & $000000FF)
02768     9F 40 61 FC | 	wrlong	local11, local10
0276c                 | ' cursor_x+=1
0276c     C8 F0 04 F1 | 	add	objptr, #200
02770     78 44 C1 FA | 	rdbyte	local13, objptr
02774     01 44 05 F1 | 	add	local13, #1
02778     78 44 41 FC | 	wrbyte	local13, objptr
0277c                 | ' if cursor_x==cpl
0277c     78 44 C1 FA | 	rdbyte	local13, objptr
02780     5C F0 04 F1 | 	add	objptr, #92
02784     78 46 01 FB | 	rdlong	local14, objptr
02788     24 F1 84 F1 | 	sub	objptr, #292
0278c     A3 44 09 F2 | 	cmp	local13, local14 wz
02790     54 00 90 5D |  if_ne	jmp	#LR__0088
02794                 | '   cursor_x:=0
02794     C8 F0 04 F1 | 	add	objptr, #200
02798     78 00 48 FC | 	wrbyte	#0, objptr
0279c                 | '   cursor_y+=1
0279c     01 F0 04 F1 | 	add	objptr, #1
027a0     78 44 C1 FA | 	rdbyte	local13, objptr
027a4     01 44 05 F1 | 	add	local13, #1
027a8     78 44 41 FC | 	wrbyte	local13, objptr
027ac                 | '   if cursor_y>lines-1
027ac     5F F0 04 F1 | 	add	objptr, #95
027b0     78 44 01 FB | 	rdlong	local13, objptr
027b4     01 44 85 F1 | 	sub	local13, #1
027b8     5F F0 84 F1 | 	sub	objptr, #95
027bc     78 46 C1 FA | 	rdbyte	local14, objptr
027c0     C9 F0 84 F1 | 	sub	objptr, #201
027c4     A2 46 59 F2 | 	cmps	local14, local13 wcz
027c8     1C 00 90 ED |  if_be	jmp	#LR__0087
027cc                 | '     scrollup()
027cc     44 02 B0 FD | 	call	#_hng012_scrollup
027d0     28 F1 04 F1 | 	add	objptr, #296
027d4     78 48 01 FB | 	rdlong	local15, objptr
027d8     01 48 85 F1 | 	sub	local15, #1
027dc                 | '     cursor_y:=lines-1
027dc     5F F0 84 F1 | 	sub	objptr, #95
027e0     78 48 41 FC | 	wrbyte	local15, objptr
027e4     C9 F0 84 F1 | 	sub	objptr, #201
027e8                 | LR__0087
027e8                 | LR__0088
027e8     46 F0 03 F6 | 	mov	ptra, fp
027ec     5A 00 A0 FD | 	call	#popregs_
027f0                 | _hng012_putchar_ret
027f0     2D 00 64 FD | 	ret
027f4                 | 
027f4                 | ' 
027f4                 | ' ''--------- Output a string at the cursor position, move the cursor
027f4                 | ' 
027f4                 | ' pub write(text) | iii,c,ncx,ncy
027f4                 | _hng012_write
027f4     11 88 04 F6 | 	mov	COUNT_, #17
027f8     4B 00 A0 FD | 	call	#pushregs_
027fc     84 2C 01 F6 | 	mov	local01, arg01
02800     CC F0 04 F1 | 	add	objptr, #204
02804     78 2E 01 FB | 	rdlong	local02, objptr
02808     18 2E 65 F0 | 	shl	local02, #24
0280c     04 F0 04 F1 | 	add	objptr, #4
02810     78 30 01 FB | 	rdlong	local03, objptr
02814     10 30 65 F0 | 	shl	local03, #16
02818     98 2E 01 F1 | 	add	local02, local03
0281c                 | ' 
0281c                 | ' c:=write_color<<24+write_background<<16
0281c                 | ' 'debug(uhex_long(write_color))
0281c                 | ' ncy:=cursor_y
0281c     07 F0 84 F1 | 	sub	objptr, #7
02820     78 32 C1 FA | 	rdbyte	local04, objptr
02824                 | ' ncx:=cursor_x+strsize(text)
02824     01 F0 84 F1 | 	sub	objptr, #1
02828     78 34 C1 FA | 	rdbyte	local05, objptr
0282c     C8 F0 84 F1 | 	sub	objptr, #200
02830     96 08 01 F6 | 	mov	arg01, local01
02834     00 36 05 F6 | 	mov	local06, #0
02838     D4 D7 9F FE | 	loc	pa,	#(@LR__0090-@LR__0089)
0283c     35 00 A0 FD | 	call	#FCACHE_LOAD_
02840                 | LR__0089
02840     84 38 C9 FA | 	rdbyte	local07, arg01 wz
02844     01 36 05 51 |  if_ne	add	local06, #1
02848     01 08 05 51 |  if_ne	add	arg01, #1
0284c     F0 FF 9F 5D |  if_ne	jmp	#LR__0089
02850                 | LR__0090
02850     9B F8 00 F6 | 	mov	result1, local06
02854     9B 34 01 F1 | 	add	local05, local06
02858     9A 3A 01 F6 | 	mov	local08, local05
0285c     D0 D7 9F FE | 	loc	pa,	#(@LR__0092-@LR__0091)
02860     35 00 A0 FD | 	call	#FCACHE_LOAD_
02864                 | ' repeat while ncx>cpl-1
02864                 | LR__0091
02864     24 F1 04 F1 | 	add	objptr, #292
02868     78 34 01 FB | 	rdlong	local05, objptr
0286c     24 F1 84 F1 | 	sub	objptr, #292
02870     01 34 85 F1 | 	sub	local05, #1
02874     9A 3A 59 F2 | 	cmps	local08, local05 wcz
02878     18 00 90 ED |  if_be	jmp	#LR__0093
0287c                 | '   ncx-=cpl
0287c     24 F1 04 F1 | 	add	objptr, #292
02880     78 3C 01 FB | 	rdlong	local09, objptr
02884     24 F1 84 F1 | 	sub	objptr, #292
02888     9E 3A 81 F1 | 	sub	local08, local09
0288c                 | '   ncy+=1
0288c     01 32 05 F1 | 	add	local04, #1
02890     D0 FF 9F FD | 	jmp	#LR__0091
02894                 | LR__0092
02894                 | LR__0093
02894                 | ' repeat while ncy>lines-1
02894                 | LR__0094
02894     28 F1 04 F1 | 	add	objptr, #296
02898     78 34 01 FB | 	rdlong	local05, objptr
0289c     28 F1 84 F1 | 	sub	objptr, #296
028a0     01 34 85 F1 | 	sub	local05, #1
028a4     9A 32 59 F2 | 	cmps	local04, local05 wcz
028a8     20 00 90 ED |  if_be	jmp	#LR__0095
028ac                 | '   ncy-=1
028ac     01 32 85 F1 | 	sub	local04, #1
028b0                 | '   scrollup()
028b0     60 01 B0 FD | 	call	#_hng012_scrollup
028b4                 | '   cursor_y-=1
028b4     C9 F0 04 F1 | 	add	objptr, #201
028b8     78 34 C1 FA | 	rdbyte	local05, objptr
028bc     01 34 85 F1 | 	sub	local05, #1
028c0     78 34 41 FC | 	wrbyte	local05, objptr
028c4     C9 F0 84 F1 | 	sub	objptr, #201
028c8     C8 FF 9F FD | 	jmp	#LR__0094
028cc                 | LR__0095
028cc                 | ' 
028cc                 | ' repeat iii from 0 to strsize(text)-1
028cc     00 3E 05 F6 | 	mov	local10, #0
028d0     96 08 01 F6 | 	mov	arg01, local01
028d4     00 36 05 F6 | 	mov	local06, #0
028d8     34 D7 9F FE | 	loc	pa,	#(@LR__0097-@LR__0096)
028dc     35 00 A0 FD | 	call	#FCACHE_LOAD_
028e0                 | LR__0096
028e0     84 38 C9 FA | 	rdbyte	local07, arg01 wz
028e4     01 36 05 51 |  if_ne	add	local06, #1
028e8     01 08 05 51 |  if_ne	add	arg01, #1
028ec     F0 FF 9F 5D |  if_ne	jmp	#LR__0096
028f0                 | LR__0097
028f0     9B F8 00 F6 | 	mov	result1, local06
028f4     7C 40 01 F6 | 	mov	local11, result1
028f8     01 40 85 F1 | 	sub	local11, #1
028fc     00 40 5D F2 | 	cmps	local11, #0 wcz
02900     01 42 05 16 |  if_a	mov	local12, #1
02904     01 42 65 E6 |  if_be	neg	local12, #1
02908     A1 40 01 F1 | 	add	local11, local12
0290c     48 D7 9F FE | 	loc	pa,	#(@LR__0099-@LR__0098)
02910     35 00 A0 FD | 	call	#FCACHE_LOAD_
02914                 | LR__0098
02914     24 F1 04 F1 | 	add	objptr, #292
02918     78 44 01 FB | 	rdlong	local13, objptr
0291c     5B F0 84 F1 | 	sub	objptr, #91
02920     78 46 C1 FA | 	rdbyte	local14, objptr
02924     A3 44 01 FD | 	qmul	local13, local14
02928     18 48 61 FD | 	getqx	local15
0292c     01 F0 84 F1 | 	sub	objptr, #1
02930     78 44 C1 FA | 	rdbyte	local13, objptr
02934     C8 F0 84 F1 | 	sub	objptr, #200
02938     A2 48 01 F1 | 	add	local15, local13
0293c     9F 48 01 F1 | 	add	local15, local10
02940     02 48 65 F0 | 	shl	local15, #2
02944     78 4A 01 FB | 	rdlong	local16, objptr
02948     A4 4A 01 F1 | 	add	local16, local15
0294c     A5 4C 01 FB | 	rdlong	local17, local16
02950     7F 00 00 FF 
02954     FF 4D 05 F5 | 	and	local17, ##65535
02958     97 4C 41 F5 | 	or	local17, local02
0295c                 | ' 
0295c                 | '   long[buf_ptr+4*(cpl*cursor_y+cursor_x+iii)]:=long[buf_ptr+4*(cpl*cursor_y+cursor_x+iii)] &$FFFF | c
0295c     A5 4C 61 FC | 	wrlong	local17, local16
02960     A1 3E 01 F1 | 	add	local10, local12
02964     A0 3E 09 F2 | 	cmp	local10, local11 wz
02968     A8 FF 9F 5D |  if_ne	jmp	#LR__0098
0296c                 | LR__0099
0296c                 | ' 
0296c                 | ' outtextxy(cursor_x,cursor_y,text)
0296c     C8 F0 04 F1 | 	add	objptr, #200
02970     78 08 C1 FA | 	rdbyte	arg01, objptr
02974     01 F0 04 F1 | 	add	objptr, #1
02978     78 0A C1 FA | 	rdbyte	arg02, objptr
0297c     C9 F0 84 F1 | 	sub	objptr, #201
02980     96 0C 01 F6 | 	mov	arg03, local01
02984     94 FB BF FD | 	call	#_hng012_outtextxy
02988                 | ' 
02988                 | ' cursor_x:=ncx
02988     C8 F0 04 F1 | 	add	objptr, #200
0298c     78 3A 41 FC | 	wrbyte	local08, objptr
02990                 | ' cursor_y:=ncy
02990     01 F0 04 F1 | 	add	objptr, #1
02994     78 32 41 FC | 	wrbyte	local04, objptr
02998     C9 F0 84 F1 | 	sub	objptr, #201
0299c     46 F0 03 F6 | 	mov	ptra, fp
029a0     5A 00 A0 FD | 	call	#popregs_
029a4                 | _hng012_write_ret
029a4     2D 00 64 FD | 	ret
029a8                 | 
029a8                 | ' 
029a8                 | ' '--------- Output a string at the cursor position x,y, move the cursor to the next line
029a8                 | ' 
029a8                 | ' pub writeln(text)
029a8                 | _hng012_writeln
029a8     03 88 04 F6 | 	mov	COUNT_, #3
029ac     4B 00 A0 FD | 	call	#pushregs_
029b0                 | ' 
029b0                 | ' write(text)
029b0     40 FE BF FD | 	call	#_hng012_write
029b4                 | ' cursor_x:=0
029b4     C8 F0 04 F1 | 	add	objptr, #200
029b8     78 00 48 FC | 	wrbyte	#0, objptr
029bc                 | ' cursor_y+=1
029bc     01 F0 04 F1 | 	add	objptr, #1
029c0     78 2C C1 FA | 	rdbyte	local01, objptr
029c4     01 2C 05 F1 | 	add	local01, #1
029c8     78 2C 41 FC | 	wrbyte	local01, objptr
029cc                 | ' if (cursor_y>lines-1)
029cc     5F F0 04 F1 | 	add	objptr, #95
029d0     78 2C 01 FB | 	rdlong	local01, objptr
029d4     01 2C 85 F1 | 	sub	local01, #1
029d8     5F F0 84 F1 | 	sub	objptr, #95
029dc     78 2E C1 FA | 	rdbyte	local02, objptr
029e0     C9 F0 84 F1 | 	sub	objptr, #201
029e4     96 2E 59 F2 | 	cmps	local02, local01 wcz
029e8     1C 00 90 ED |  if_be	jmp	#LR__0100
029ec                 | '   scrollup()
029ec     24 00 B0 FD | 	call	#_hng012_scrollup
029f0     28 F1 04 F1 | 	add	objptr, #296
029f4     78 30 01 FB | 	rdlong	local03, objptr
029f8     01 30 85 F1 | 	sub	local03, #1
029fc                 | '   cursor_y:=lines-1
029fc     5F F0 84 F1 | 	sub	objptr, #95
02a00     78 30 41 FC | 	wrbyte	local03, objptr
02a04     C9 F0 84 F1 | 	sub	objptr, #201
02a08                 | LR__0100
02a08     46 F0 03 F6 | 	mov	ptra, fp
02a0c     5A 00 A0 FD | 	call	#popregs_
02a10                 | _hng012_writeln_ret
02a10     2D 00 64 FD | 	ret
02a14                 | 
02a14                 | ' 
02a14                 | ' ''-----------  Scroll the screen one line up
02a14                 | ' 
02a14                 | ' pub scrollup() | i
02a14                 | _hng012_scrollup
02a14     0A 88 04 F6 | 	mov	COUNT_, #10
02a18     4B 00 A0 FD | 	call	#pushregs_
02a1c     24 F1 04 F1 | 	add	objptr, #292
02a20     78 2C 01 FB | 	rdlong	local01, objptr
02a24     24 F1 84 F1 | 	sub	objptr, #292
02a28     02 2C 65 F0 | 	shl	local01, #2
02a2c     78 0A 01 FB | 	rdlong	arg02, objptr
02a30     96 0A 01 F1 | 	add	arg02, local01
02a34     C4 F0 04 F1 | 	add	objptr, #196
02a38     78 0C 01 FB | 	rdlong	arg03, objptr
02a3c     60 F0 04 F1 | 	add	objptr, #96
02a40     78 2E 01 FB | 	rdlong	local02, objptr
02a44     24 F1 84 F1 | 	sub	objptr, #292
02a48     97 0C 81 F1 | 	sub	arg03, local02
02a4c                 | ' 
02a4c                 | ' longmove(buf_ptr,buf_ptr+4*cpl,buflen-cpl)
02a4c     78 08 01 FB | 	rdlong	arg01, objptr
02a50     34 06 B0 FD | 	call	#__system__longmove
02a54                 | ' repeat i from buflen-cpl to buflen-1
02a54     C4 F0 04 F1 | 	add	objptr, #196
02a58     78 30 01 FB | 	rdlong	local03, objptr
02a5c     60 F0 04 F1 | 	add	objptr, #96
02a60     78 2E 01 FB | 	rdlong	local02, objptr
02a64     97 30 81 F1 | 	sub	local03, local02
02a68     60 F0 84 F1 | 	sub	objptr, #96
02a6c     78 32 01 FB | 	rdlong	local04, objptr
02a70     01 32 85 F1 | 	sub	local04, #1
02a74     78 34 01 FB | 	rdlong	local05, objptr
02a78     60 F0 04 F1 | 	add	objptr, #96
02a7c     78 36 01 FB | 	rdlong	local06, objptr
02a80     24 F1 84 F1 | 	sub	objptr, #292
02a84     9B 34 81 F1 | 	sub	local05, local06
02a88     9A 32 59 F2 | 	cmps	local04, local05 wcz
02a8c     01 38 05 16 |  if_a	mov	local07, #1
02a90     01 38 65 E6 |  if_be	neg	local07, #1
02a94     9C 32 01 F1 | 	add	local04, local07
02a98     94 D5 9F FE | 	loc	pa,	#(@LR__0102-@LR__0101)
02a9c     35 00 A0 FD | 	call	#FCACHE_LOAD_
02aa0                 | LR__0101
02aa0     98 3A 01 F6 | 	mov	local08, local03
02aa4     02 3A 65 F0 | 	shl	local08, #2
02aa8     78 3C 01 FB | 	rdlong	local09, objptr
02aac     9D 3C 01 F1 | 	add	local09, local08
02ab0     9E 3E 01 FB | 	rdlong	local10, local09
02ab4     80 FF 7F FF 
02ab8     00 3E 05 F5 | 	and	local10, ##-65536
02abc     20 3E 45 F5 | 	or	local10, #32
02ac0                 | '   long[buf_ptr+4*i]:=(long[buf_ptr+4*i] & $FFFF0000) | 32
02ac0     9E 3E 61 FC | 	wrlong	local10, local09
02ac4     9C 30 01 F1 | 	add	local03, local07
02ac8     99 30 09 F2 | 	cmp	local03, local04 wz
02acc     D0 FF 9F 5D |  if_ne	jmp	#LR__0101
02ad0                 | LR__0102
02ad0     46 F0 03 F6 | 	mov	ptra, fp
02ad4     5A 00 A0 FD | 	call	#popregs_
02ad8                 | _hng012_scrollup_ret
02ad8     2D 00 64 FD | 	ret
02adc                 | 
02adc                 | ' 
02adc                 | ' ''----------- Set cursor at the first character in a new line, scroll if needed
02adc                 | ' 
02adc                 | ' pub crlf()
02adc                 | _hng012_crlf
02adc     03 88 04 F6 | 	mov	COUNT_, #3
02ae0     4B 00 A0 FD | 	call	#pushregs_
02ae4                 | ' 
02ae4                 | ' cursor_x:=0
02ae4     C8 F0 04 F1 | 	add	objptr, #200
02ae8     78 00 48 FC | 	wrbyte	#0, objptr
02aec                 | ' cursor_y+=1
02aec     01 F0 04 F1 | 	add	objptr, #1
02af0     78 2C C1 FA | 	rdbyte	local01, objptr
02af4     01 2C 05 F1 | 	add	local01, #1
02af8     78 2C 41 FC | 	wrbyte	local01, objptr
02afc                 | ' if cursor_y>lines-1
02afc     5F F0 04 F1 | 	add	objptr, #95
02b00     78 2C 01 FB | 	rdlong	local01, objptr
02b04     01 2C 85 F1 | 	sub	local01, #1
02b08     5F F0 84 F1 | 	sub	objptr, #95
02b0c     78 2E C1 FA | 	rdbyte	local02, objptr
02b10     C9 F0 84 F1 | 	sub	objptr, #201
02b14     96 2E 59 F2 | 	cmps	local02, local01 wcz
02b18     1C 00 90 ED |  if_be	jmp	#LR__0103
02b1c                 | '   scrollup()
02b1c     F4 FE BF FD | 	call	#_hng012_scrollup
02b20     28 F1 04 F1 | 	add	objptr, #296
02b24     78 30 01 FB | 	rdlong	local03, objptr
02b28     01 30 85 F1 | 	sub	local03, #1
02b2c                 | '   cursor_y:=lines-1
02b2c     5F F0 84 F1 | 	sub	objptr, #95
02b30     78 30 41 FC | 	wrbyte	local03, objptr
02b34     C9 F0 84 F1 | 	sub	objptr, #201
02b38                 | LR__0103
02b38     46 F0 03 F6 | 	mov	ptra, fp
02b3c     5A 00 A0 FD | 	call	#popregs_
02b40                 | _hng012_crlf_ret
02b40     2D 00 64 FD | 	ret
02b44                 | 
02b44                 | ' 
02b44                 | ' 
02b44                 | ' '*************************************************************************
02b44                 | ' '                                                                        *
02b44                 | ' '  Conversions                                                           *
02b44                 | ' '                                                                        *
02b44                 | ' '*************************************************************************
02b44                 | ' 
02b44                 | ' ''---------- Convert a integer to dec string, return a pointer
02b44                 | ' 
02b44                 | ' pub inttostr(i):result |q,pos,k,j
02b44                 | _hng012_inttostr
02b44     07 88 04 F6 | 	mov	COUNT_, #7
02b48     4B 00 A0 FD | 	call	#pushregs_
02b4c     84 2C 01 F6 | 	mov	local01, arg01
02b50                 | ' 
02b50                 | ' j:=i
02b50     96 2E 09 F6 | 	mov	local02, local01 wz
02b54                 | ' pos:=10
02b54     0A 30 05 F6 | 	mov	local03, #10
02b58                 | ' k:=0
02b58     00 32 05 F6 | 	mov	local04, #0
02b5c                 | ' 
02b5c                 | ' if (j==0)
02b5c     18 00 90 5D |  if_ne	jmp	#LR__0104
02b60                 | '   n_string[0]:=48
02b60     D8 F0 04 F1 | 	add	objptr, #216
02b64     78 60 48 FC | 	wrbyte	#48, objptr
02b68                 | '   n_string[1]:=0
02b68     01 F0 04 F1 | 	add	objptr, #1
02b6c     78 00 48 FC | 	wrbyte	#0, objptr
02b70     D9 F0 84 F1 | 	sub	objptr, #217
02b74                 | ' 
02b74                 | ' else
02b74     C4 00 90 FD | 	jmp	#LR__0111
02b78                 | LR__0104
02b78                 | '   if (j<0)
02b78     00 2E 5D F2 | 	cmps	local02, #0 wcz
02b7c                 | '     j:=0-j
02b7c     97 2E 61 C6 |  if_b	neg	local02, local02
02b80                 | '     k:=45
02b80     2D 32 05 C6 |  if_b	mov	local04, #45
02b84                 | ' 
02b84                 | '   n_string[11]:=0
02b84     E3 F0 04 F1 | 	add	objptr, #227
02b88     78 00 48 FC | 	wrbyte	#0, objptr
02b8c     E3 F0 84 F1 | 	sub	objptr, #227
02b90     AC D4 9F FE | 	loc	pa,	#(@LR__0106-@LR__0105)
02b94     35 00 A0 FD | 	call	#FCACHE_LOAD_
02b98                 | '   repeat while (pos>-1)
02b98                 | LR__0105
02b98     FF FF 7F FF 
02b9c     FF 31 5D F2 | 	cmps	local03, ##-1 wcz
02ba0     34 00 90 ED |  if_be	jmp	#LR__0107
02ba4     97 B4 01 F6 | 	mov	muldiva_, local02
02ba8     0A B6 05 F6 | 	mov	muldivb_, #10
02bac     6B 00 A0 FD | 	call	#divide_
02bb0     DA 34 01 F6 | 	mov	local05, muldiva_
02bb4                 | '     q:=j//10
02bb4                 | '     q:=48+q
02bb4     30 34 05 F1 | 	add	local05, #48
02bb8     98 36 01 F6 | 	mov	local06, local03
02bbc     D8 F0 04 F1 | 	add	objptr, #216
02bc0     78 36 01 F1 | 	add	local06, objptr
02bc4                 | '     n_string[pos]:=q
02bc4     9B 34 41 FC | 	wrbyte	local05, local06
02bc8                 | '     j:=j/10
02bc8     DB 2E 01 F6 | 	mov	local02, muldivb_
02bcc                 | '     pos-=1
02bcc     01 30 85 F1 | 	sub	local03, #1
02bd0     D8 F0 84 F1 | 	sub	objptr, #216
02bd4     C0 FF 9F FD | 	jmp	#LR__0105
02bd8                 | LR__0106
02bd8                 | LR__0107
02bd8                 | '   repeat while n_string[0]==48
02bd8                 | LR__0108
02bd8     D8 F0 04 F1 | 	add	objptr, #216
02bdc     78 38 C1 FA | 	rdbyte	local07, objptr
02be0     D8 F0 84 F1 | 	sub	objptr, #216
02be4     30 38 0D F2 | 	cmp	local07, #48 wz
02be8     20 00 90 5D |  if_ne	jmp	#LR__0109
02bec     D8 F0 04 F1 | 	add	objptr, #216
02bf0     78 08 01 F6 | 	mov	arg01, objptr
02bf4     D8 F0 84 F1 | 	sub	objptr, #216
02bf8     84 0A 01 F6 | 	mov	arg02, arg01
02bfc     01 0A 05 F1 | 	add	arg02, #1
02c00                 | '     bytemove(@n_string,@n_string+1,12)
02c00     0C 0C 05 F6 | 	mov	arg03, #12
02c04     F0 03 B0 FD | 	call	#__system__bytemove
02c08     CC FF 9F FD | 	jmp	#LR__0108
02c0c                 | LR__0109
02c0c                 | ' 
02c0c                 | '   if k==45
02c0c     2D 32 0D F2 | 	cmp	local04, #45 wz
02c10     28 00 90 5D |  if_ne	jmp	#LR__0110
02c14     D8 F0 04 F1 | 	add	objptr, #216
02c18     78 0A 01 F6 | 	mov	arg02, objptr
02c1c     D8 F0 84 F1 | 	sub	objptr, #216
02c20     85 08 01 F6 | 	mov	arg01, arg02
02c24     01 08 05 F1 | 	add	arg01, #1
02c28                 | '      bytemove(@n_string+1,@n_string,12)
02c28     0C 0C 05 F6 | 	mov	arg03, #12
02c2c     C8 03 B0 FD | 	call	#__system__bytemove
02c30                 | '      n_string[0]:=k
02c30     D8 F0 04 F1 | 	add	objptr, #216
02c34     78 32 41 FC | 	wrbyte	local04, objptr
02c38     D8 F0 84 F1 | 	sub	objptr, #216
02c3c                 | LR__0110
02c3c                 | LR__0111
02c3c     D8 F0 04 F1 | 	add	objptr, #216
02c40     78 F8 00 F6 | 	mov	result1, objptr
02c44     D8 F0 84 F1 | 	sub	objptr, #216
02c48                 | ' 
02c48                 | ' q:=@n_string
02c48                 | ' return q
02c48     46 F0 03 F6 | 	mov	ptra, fp
02c4c     5A 00 A0 FD | 	call	#popregs_
02c50                 | _hng012_inttostr_ret
02c50     2D 00 64 FD | 	ret
02c54                 | 
02c54                 | ' 
02c54                 | ' ''----------  Convert unsigned integer to hex string with d digits, return a pointer
02c54                 | ' 
02c54                 | ' pub inttohex(i,d):result |q,pos,k,j
02c54                 | _hng012_inttohex
02c54                 | ' 
02c54                 | ' j:=i
02c54     85 FA 00 F6 | 	mov	_var01, arg02
02c58     01 FA 84 F1 | 	sub	_var01, #1
02c5c                 | ' pos:=d-1
02c5c     7D FC 00 F6 | 	mov	_var02, _var01
02c60                 | ' k:=0
02c60     D8 F0 04 F1 | 	add	objptr, #216
02c64     78 0A 01 F1 | 	add	arg02, objptr
02c68                 | ' n_string[d]:=0
02c68     85 00 48 FC | 	wrbyte	#0, arg02
02c6c                 | ' repeat k from 0 to d-1
02c6c     00 FE 04 F6 | 	mov	_var03, #0
02c70     00 FA 5C F2 | 	cmps	_var01, #0 wcz
02c74     D8 F0 84 F1 | 	sub	objptr, #216
02c78     01 00 05 16 |  if_a	mov	_var04, #1
02c7c     01 00 65 E6 |  if_be	neg	_var04, #1
02c80     80 FA 00 F1 | 	add	_var01, _var04
02c84     98 D3 9F FE | 	loc	pa,	#(@LR__0113-@LR__0112)
02c88     35 00 A0 FD | 	call	#FCACHE_LOAD_
02c8c                 | LR__0112
02c8c     7F 02 01 F6 | 	mov	_var05, _var03
02c90     D8 F0 04 F1 | 	add	objptr, #216
02c94     78 02 01 F1 | 	add	_var05, objptr
02c98                 | '   n_string[k]:=48
02c98     81 60 48 FC | 	wrbyte	#48, _var05
02c9c     80 FE 00 F1 | 	add	_var03, _var04
02ca0     7D FE 08 F2 | 	cmp	_var03, _var01 wz
02ca4     D8 F0 84 F1 | 	sub	objptr, #216
02ca8     E0 FF 9F 5D |  if_ne	jmp	#LR__0112
02cac                 | LR__0113
02cac                 | ' if (j<>0)
02cac     00 08 0D F2 | 	cmp	arg01, #0 wz
02cb0     40 00 90 AD |  if_e	jmp	#LR__0116
02cb4                 | ' 
02cb4                 | '   repeat while (pos>-1)
02cb4                 | LR__0114
02cb4     FF FF 7F FF 
02cb8     FF FD 5C F2 | 	cmps	_var02, ##-1 wcz
02cbc     34 00 90 ED |  if_be	jmp	#LR__0115
02cc0     84 04 01 F6 | 	mov	_var06, arg01
02cc4     0F 04 05 F5 | 	and	_var06, #15
02cc8                 | '     q:=j+//16
02cc8                 | '     if (q>9)
02cc8     09 04 5D F2 | 	cmps	_var06, #9 wcz
02ccc                 | '       q:=q+7
02ccc     07 04 05 11 |  if_a	add	_var06, #7
02cd0                 | '     q:=48+q
02cd0     30 04 05 F1 | 	add	_var06, #48
02cd4     7E 06 01 F6 | 	mov	_var07, _var02
02cd8     D8 F0 04 F1 | 	add	objptr, #216
02cdc     78 06 01 F1 | 	add	_var07, objptr
02ce0                 | '     n_string[pos]:=q
02ce0     83 04 41 FC | 	wrbyte	_var06, _var07
02ce4                 | '     j:=j+/16
02ce4     04 08 45 F0 | 	shr	arg01, #4
02ce8                 | '     pos-=1
02ce8     01 FC 84 F1 | 	sub	_var02, #1
02cec     D8 F0 84 F1 | 	sub	objptr, #216
02cf0     C0 FF 9F FD | 	jmp	#LR__0114
02cf4                 | LR__0115
02cf4                 | LR__0116
02cf4     D8 F0 04 F1 | 	add	objptr, #216
02cf8     78 F8 00 F6 | 	mov	result1, objptr
02cfc     D8 F0 84 F1 | 	sub	objptr, #216
02d00                 | ' 
02d00                 | ' q:=@n_string
02d00                 | ' return q
02d00                 | _hng012_inttohex_ret
02d00     2D 00 64 FD | 	ret
02d04                 | 
02d04                 | ' 
02d04                 | ' 
02d04                 | ' '*************************************************************************
02d04                 | ' '                                                                        *
02d04                 | ' '  Mode setting and driver start                                                          *
02d04                 | ' '                                                                        *
02d04                 | ' '*************************************************************************
02d04                 | ' 
02d04                 | ' ''---------  Set the graphics mode
02d04                 | ' 
02d04                 | ' pub setmode(mode) | i
02d04                 | _hng012_setmode
02d04     14 88 04 F6 | 	mov	COUNT_, #20
02d08     4B 00 A0 FD | 	call	#pushregs_
02d0c     84 2C 01 F6 | 	mov	local01, arg01
02d10                 | ' 
02d10                 | ' '' mode:nt_bb_cc_vv_hh
02d10                 | ' '' hh - h.zoom, vv-v.zoom, cc-c.depth,
02d10                 | ' '' bb - borders/total pixels, 00-wide/1140, 01 medium/1026, 10 narrow/912, 11 no border, 1024 px PAL, 880 px NTSC
02d10                 | ' 
02d10                 | ' if (mode<512)  '' text modes
02d10     01 00 00 FF 
02d14     00 2C 5D F2 | 	cmps	local01, ##512 wcz
02d18     5C 02 90 3D |  if_ae	jmp	#LR__0127
02d1c     38 F1 04 F1 | 	add	objptr, #312
02d20     78 2E 01 F6 | 	mov	local02, objptr
02d24     0E 00 00 FF 
02d28     00 F6 04 F1 | 	add	ptr__hng012_dat__, ##7168
02d2c     7B 30 01 F6 | 	mov	local03, ptr__hng012_dat__
02d30                 | '   longmove(@streamer,@timingsxxt,6)
02d30     97 32 01 F6 | 	mov	local04, local02
02d34     98 34 01 F6 | 	mov	local05, local03
02d38     06 36 05 F6 | 	mov	local06, #6
02d3c     99 08 01 F6 | 	mov	arg01, local04
02d40     9A 0A 01 F6 | 	mov	arg02, local05
02d44     06 0C 05 F6 | 	mov	arg03, #6
02d48     38 F1 84 F1 | 	sub	objptr, #312
02d4c     0E 00 00 FF 
02d50     00 F6 84 F1 | 	sub	ptr__hng012_dat__, ##7168
02d54     30 03 B0 FD | 	call	#__system__longmove
02d58     7C 38 01 F6 | 	mov	local07, result1
02d5c                 | '   if (mode==0)                                'PAL 50 Hz signaling 1140x624, active 800x480, 100x30 text, wide border, 2 colors per pixel, 00_00_00_00_00=0, 354_693_878 Hz
02d5c     00 2C 0D F2 | 	cmp	local01, #0 wz
02d60     40 00 90 5D |  if_ne	jmp	#LR__0117
02d64     E4 F0 04 F1 | 	add	objptr, #228
02d68     78 3A 01 F6 | 	mov	local08, objptr
02d6c     0E 00 00 FF 
02d70     18 F6 04 F1 | 	add	ptr__hng012_dat__, ##7192
02d74     7B 3C 01 F6 | 	mov	local09, ptr__hng012_dat__
02d78                 | '     longmove(@timings,@timings000,16)
02d78     9D 32 01 F6 | 	mov	local04, local08
02d7c     9E 34 01 F6 | 	mov	local05, local09
02d80     10 36 05 F6 | 	mov	local06, #16
02d84     99 08 01 F6 | 	mov	arg01, local04
02d88     9A 0A 01 F6 | 	mov	arg02, local05
02d8c     10 0C 05 F6 | 	mov	arg03, #16
02d90     E4 F0 84 F1 | 	sub	objptr, #228
02d94     0E 00 00 FF 
02d98     18 F6 84 F1 | 	sub	ptr__hng012_dat__, ##7192
02d9c     E8 02 B0 FD | 	call	#__system__longmove
02da0     7C 38 01 F6 | 	mov	local07, result1
02da4                 | LR__0117
02da4                 | '   if (mode==64)                               'PAL 50 Hz signaling 1026x624, active 880x496, 110x31 text, medium border, 2 colors per pixel 00_01_00_00_00=64, 319_215_686 Hz
02da4     40 2C 0D F2 | 	cmp	local01, #64 wz
02da8     34 00 90 5D |  if_ne	jmp	#LR__0118
02dac     E4 F0 04 F1 | 	add	objptr, #228
02db0     78 3E 01 F6 | 	mov	local10, objptr
02db4     0E 00 00 FF 
02db8     58 F6 04 F1 | 	add	ptr__hng012_dat__, ##7256
02dbc     7B 40 01 F6 | 	mov	local11, ptr__hng012_dat__
02dc0                 | '     longmove(@timings,@timings064,16)
02dc0     9F 08 01 F6 | 	mov	arg01, local10
02dc4     A0 0A 01 F6 | 	mov	arg02, local11
02dc8     10 0C 05 F6 | 	mov	arg03, #16
02dcc     E4 F0 84 F1 | 	sub	objptr, #228
02dd0     0E 00 00 FF 
02dd4     58 F6 84 F1 | 	sub	ptr__hng012_dat__, ##7256
02dd8     AC 02 B0 FD | 	call	#__system__longmove
02ddc     7C 38 01 F6 | 	mov	local07, result1
02de0                 | LR__0118
02de0                 | '   if (mode==128)                              'PAL 50 Hz signaling 912x624, active 800x480, 100x30 text, medium border, 2 colors per pixel 00_10_00_00_00=64, 283750000z
02de0     80 2C 0D F2 | 	cmp	local01, #128 wz
02de4     28 00 90 5D |  if_ne	jmp	#LR__0119
02de8     E4 F0 04 F1 | 	add	objptr, #228
02dec     78 08 01 F6 | 	mov	arg01, objptr
02df0     E4 F0 84 F1 | 	sub	objptr, #228
02df4     0E 00 00 FF 
02df8     98 F6 04 F1 | 	add	ptr__hng012_dat__, ##7320
02dfc     7B 0A 01 F6 | 	mov	arg02, ptr__hng012_dat__
02e00     0E 00 00 FF 
02e04     98 F6 84 F1 | 	sub	ptr__hng012_dat__, ##7320
02e08                 | '     longmove(@timings,@timings128,16)
02e08     10 0C 05 F6 | 	mov	arg03, #16
02e0c     78 02 B0 FD | 	call	#__system__longmove
02e10                 | LR__0119
02e10                 | '   if (mode==192)                              'PAL 50 Hz signaling 1140x624, active 1024x576, 128x36 text, borderless, 2 colors per pixel 00_11_00_00_00=6192, 354_693_878 Hz
02e10     C0 2C 0D F2 | 	cmp	local01, #192 wz
02e14     28 00 90 5D |  if_ne	jmp	#LR__0120
02e18     E4 F0 04 F1 | 	add	objptr, #228
02e1c     78 08 01 F6 | 	mov	arg01, objptr
02e20     E4 F0 84 F1 | 	sub	objptr, #228
02e24     0E 00 00 FF 
02e28     D8 F6 04 F1 | 	add	ptr__hng012_dat__, ##7384
02e2c     7B 0A 01 F6 | 	mov	arg02, ptr__hng012_dat__
02e30     0E 00 00 FF 
02e34     D8 F6 84 F1 | 	sub	ptr__hng012_dat__, ##7384
02e38                 | '     longmove(@timings,@timings192,16)
02e38     10 0C 05 F6 | 	mov	arg03, #16
02e3c     48 02 B0 FD | 	call	#__system__longmove
02e40                 | LR__0120
02e40                 | '   if (mode==256)                              'NTSC 50 Hz signaling 1140x524, active 800x480, 100x30 text, NO PLACE FOR wide border, 2 colors per pixel, 01_00_00_00_00=256, 357959184 Hz
02e40     00 2D 0D F2 | 	cmp	local01, #256 wz
02e44     28 00 90 5D |  if_ne	jmp	#LR__0121
02e48     E4 F0 04 F1 | 	add	objptr, #228
02e4c     78 08 01 F6 | 	mov	arg01, objptr
02e50     E4 F0 84 F1 | 	sub	objptr, #228
02e54     0E 00 00 FF 
02e58     18 F7 04 F1 | 	add	ptr__hng012_dat__, ##7448
02e5c     7B 0A 01 F6 | 	mov	arg02, ptr__hng012_dat__
02e60     0E 00 00 FF 
02e64     18 F7 84 F1 | 	sub	ptr__hng012_dat__, ##7448
02e68                 | '     longmove(@timings,@timings256,16)
02e68     10 0C 05 F6 | 	mov	arg03, #16
02e6c     18 02 B0 FD | 	call	#__system__longmove
02e70                 | LR__0121
02e70                 | '   if (mode==320)                              'NTSC 50 Hz signaling 1026x524, active 800x480, 100x30 text, NO PLACE FOR wide border, 2 colors per pixel, 01_01_00_00_00=320, 322162162 Hz
02e70     40 2D 0D F2 | 	cmp	local01, #320 wz
02e74     28 00 90 5D |  if_ne	jmp	#LR__0122
02e78     E4 F0 04 F1 | 	add	objptr, #228
02e7c     78 08 01 F6 | 	mov	arg01, objptr
02e80     E4 F0 84 F1 | 	sub	objptr, #228
02e84     0E 00 00 FF 
02e88     58 F7 04 F1 | 	add	ptr__hng012_dat__, ##7512
02e8c     7B 0A 01 F6 | 	mov	arg02, ptr__hng012_dat__
02e90     0E 00 00 FF 
02e94     58 F7 84 F1 | 	sub	ptr__hng012_dat__, ##7512
02e98                 | '     longmove(@timings,@timings320,16)
02e98     10 0C 05 F6 | 	mov	arg03, #16
02e9c     E8 01 B0 FD | 	call	#__system__longmove
02ea0                 | LR__0122
02ea0                 | '   if (mode==384)                              'NTSC 50 Hz signaling 912x524, active 800x480, 100x30 text, NO PLACE FOR wide border, 2 colors per pixel, 01_10_00_00_00=384, 286363636 Hz
02ea0     80 2D 0D F2 | 	cmp	local01, #384 wz
02ea4     28 00 90 5D |  if_ne	jmp	#LR__0123
02ea8     E4 F0 04 F1 | 	add	objptr, #228
02eac     78 08 01 F6 | 	mov	arg01, objptr
02eb0     E4 F0 84 F1 | 	sub	objptr, #228
02eb4     0E 00 00 FF 
02eb8     98 F7 04 F1 | 	add	ptr__hng012_dat__, ##7576
02ebc     7B 0A 01 F6 | 	mov	arg02, ptr__hng012_dat__
02ec0     0E 00 00 FF 
02ec4     98 F7 84 F1 | 	sub	ptr__hng012_dat__, ##7576
02ec8                 | '     longmove(@timings,@timings384,16)
02ec8     10 0C 05 F6 | 	mov	arg03, #16
02ecc     B8 01 B0 FD | 	call	#__system__longmove
02ed0                 | LR__0123
02ed0                 | '   if (mode==448)                              'NTSC 50 Hz signaling 1026x524, active 880x496, 110x31 text, borderless, 2 colors per pixel, 01_11_00_00_00=496, 322162162 Hz
02ed0     C0 2D 0D F2 | 	cmp	local01, #448 wz
02ed4     28 00 90 5D |  if_ne	jmp	#LR__0124
02ed8     E4 F0 04 F1 | 	add	objptr, #228
02edc     78 08 01 F6 | 	mov	arg01, objptr
02ee0     E4 F0 84 F1 | 	sub	objptr, #228
02ee4     0E 00 00 FF 
02ee8     D8 F7 04 F1 | 	add	ptr__hng012_dat__, ##7640
02eec     7B 0A 01 F6 | 	mov	arg02, ptr__hng012_dat__
02ef0     0E 00 00 FF 
02ef4     D8 F7 84 F1 | 	sub	ptr__hng012_dat__, ##7640
02ef8                 | '     longmove(@timings,@timings448,16)
02ef8     10 0C 05 F6 | 	mov	arg03, #16
02efc     88 01 B0 FD | 	call	#__system__longmove
02f00                 | LR__0124
02f00                 | ' 
02f00                 | '   repeat i from 0 to 5
02f00     00 42 05 F6 | 	mov	local12, #0
02f04     48 D1 9F FE | 	loc	pa,	#(@LR__0126-@LR__0125)
02f08     35 00 A0 FD | 	call	#FCACHE_LOAD_
02f0c                 | LR__0125
02f0c     A1 44 01 F6 | 	mov	local13, local12
02f10     02 44 65 F0 | 	shl	local13, #2
02f14     E4 F0 04 F1 | 	add	objptr, #228
02f18     78 44 01 F1 | 	add	local13, objptr
02f1c     A1 46 01 F6 | 	mov	local14, local12
02f20     02 46 65 F0 | 	shl	local14, #2
02f24     54 F0 04 F1 | 	add	objptr, #84
02f28     A2 48 01 FB | 	rdlong	local15, local13
02f2c     78 46 01 F1 | 	add	local14, objptr
02f30     A3 34 01 FB | 	rdlong	local05, local14
02f34     9A 48 01 F1 | 	add	local15, local05
02f38     14 F1 84 F1 | 	sub	objptr, #276
02f3c     78 4A 01 FB | 	rdlong	local16, objptr
02f40     24 F0 84 F1 | 	sub	objptr, #36
02f44     11 4A 65 F0 | 	shl	local16, #17
02f48     A5 48 01 F1 | 	add	local15, local16
02f4c                 | '     timings[i]:=timings[i]+streamer[i]+hdmibase<<17
02f4c     A2 48 61 FC | 	wrlong	local15, local13
02f50     01 42 05 F1 | 	add	local12, #1
02f54     06 42 5D F2 | 	cmps	local12, #6 wcz
02f58     B0 FF 9F CD |  if_b	jmp	#LR__0125
02f5c                 | LR__0126
02f5c                 | '   clkfreq:=timings[13]
02f5c     18 F1 04 F1 | 	add	objptr, #280
02f60     78 32 01 FB | 	rdlong	local04, objptr
02f64     14 32 65 FC | 	wrlong	local04, #20
02f68                 | '   hubset(timings[14])
02f68     04 F0 04 F1 | 	add	objptr, #4
02f6c     78 08 01 FB | 	rdlong	arg01, objptr
02f70     1C F1 84 F1 | 	sub	objptr, #284
02f74     00 08 61 FD | 	hubset	arg01
02f78                 | LR__0127
02f78                 | ' 
02f78                 | ' cpl:=timings[11]
02f78     10 F1 04 F1 | 	add	objptr, #272
02f7c     78 32 01 FB | 	rdlong	local04, objptr
02f80     14 F0 04 F1 | 	add	objptr, #20
02f84     78 32 61 FC | 	wrlong	local04, objptr
02f88     10 F0 84 F1 | 	sub	objptr, #16
02f8c     78 4C 01 FB | 	rdlong	local17, objptr
02f90     04 4C 45 F0 | 	shr	local17, #4
02f94                 | ' lines:=timings[12]>>4
02f94     14 F0 04 F1 | 	add	objptr, #20
02f98     78 4C 61 FC | 	wrlong	local17, objptr
02f9c     04 F0 84 F1 | 	sub	objptr, #4
02fa0     78 34 01 FB | 	rdlong	local05, objptr
02fa4     04 F0 04 F1 | 	add	objptr, #4
02fa8     78 38 01 FB | 	rdlong	local07, objptr
02fac     9C 34 01 FD | 	qmul	local05, local07
02fb0     18 4E 61 FD | 	getqx	local18
02fb4                 | ' buflen:=cpl*lines
02fb4     64 F0 84 F1 | 	sub	objptr, #100
02fb8     78 4E 61 FC | 	wrlong	local18, objptr
02fbc     C4 F0 84 F1 | 	sub	objptr, #196
02fc0     02 4E 65 F0 | 	shl	local18, #2
02fc4     E0 03 00 FF 
02fc8     00 50 05 F6 | 	mov	local19, ##507904
02fcc     A7 50 81 F1 | 	sub	local19, local18
02fd0                 | ' buf_ptr:=$7C000-4*buflen
02fd0     78 50 61 FC | 	wrlong	local19, objptr
02fd4     E4 F0 04 F1 | 	add	objptr, #228
02fd8     78 52 01 F6 | 	mov	local20, objptr
02fdc                 | ' mode_ptr:=@timings
02fdc     D0 F0 84 F1 | 	sub	objptr, #208
02fe0     78 52 61 FC | 	wrlong	local20, objptr
02fe4     14 F0 84 F1 | 	sub	objptr, #20
02fe8     46 F0 03 F6 | 	mov	ptra, fp
02fec     5A 00 A0 FD | 	call	#popregs_
02ff0                 | _hng012_setmode_ret
02ff0     2D 00 64 FD | 	ret
02ff4                 | hubexit
02ff4     23 00 80 FD | 	jmp	#cogexit
02ff8                 | 
02ff8                 | __system__bytemove
02ff8     84 FA 00 F6 | 	mov	_var01, arg01
02ffc     85 08 59 F2 | 	cmps	arg01, arg02 wcz
03000     50 00 90 3D |  if_ae	jmp	#LR__0135
03004     18 D0 9F FE | 	loc	pa,	#(@LR__0129-@LR__0128)
03008     35 00 A0 FD | 	call	#FCACHE_LOAD_
0300c                 | LR__0128
0300c     03 0C 5D F2 | 	cmps	arg03, #3 wcz
03010     18 00 90 ED |  if_be	jmp	#LR__0130
03014     85 FC 00 FB | 	rdlong	_var02, arg02
03018     84 FC 60 FC | 	wrlong	_var02, arg01
0301c     04 08 05 F1 | 	add	arg01, #4
03020     04 0A 05 F1 | 	add	arg02, #4
03024     04 0C 85 F1 | 	sub	arg03, #4
03028     E0 FF 9F FD | 	jmp	#LR__0128
0302c                 | LR__0129
0302c                 | LR__0130
0302c     86 FE 08 F6 | 	mov	_var03, arg03 wz
03030     4C 00 90 AD |  if_e	jmp	#LR__0141
03034     DC CF 9F FE | 	loc	pa,	#(@LR__0133-@LR__0131)
03038     35 00 A0 FD | 	call	#FCACHE_LOAD_
0303c                 | LR__0131
0303c     7F 08 D8 FC | 	rep	@LR__0134, _var03
03040                 | LR__0132
03040     85 FC C0 FA | 	rdbyte	_var02, arg02
03044     84 FC 40 FC | 	wrbyte	_var02, arg01
03048     01 08 05 F1 | 	add	arg01, #1
0304c     01 0A 05 F1 | 	add	arg02, #1
03050                 | LR__0133
03050                 | LR__0134
03050     2C 00 90 FD | 	jmp	#LR__0141
03054                 | LR__0135
03054     86 08 01 F1 | 	add	arg01, arg03
03058     86 0A 01 F1 | 	add	arg02, arg03
0305c     86 00 09 F6 | 	mov	_var04, arg03 wz
03060     1C 00 90 AD |  if_e	jmp	#LR__0140
03064     AC CF 9F FE | 	loc	pa,	#(@LR__0138-@LR__0136)
03068     35 00 A0 FD | 	call	#FCACHE_LOAD_
0306c                 | LR__0136
0306c     80 08 D8 FC | 	rep	@LR__0139, _var04
03070                 | LR__0137
03070     01 08 85 F1 | 	sub	arg01, #1
03074     01 0A 85 F1 | 	sub	arg02, #1
03078     85 FC C0 FA | 	rdbyte	_var02, arg02
0307c     84 FC 40 FC | 	wrbyte	_var02, arg01
03080                 | LR__0138
03080                 | LR__0139
03080                 | LR__0140
03080                 | LR__0141
03080     7D F8 00 F6 | 	mov	result1, _var01
03084                 | __system__bytemove_ret
03084     2D 00 64 FD | 	ret
03088                 | 
03088                 | __system__longmove
03088     84 FA 00 F6 | 	mov	_var01, arg01
0308c     85 08 59 F2 | 	cmps	arg01, arg02 wcz
03090     28 00 90 3D |  if_ae	jmp	#LR__0146
03094     86 FC 08 F6 | 	mov	_var02, arg03 wz
03098     54 00 90 AD |  if_e	jmp	#LR__0152
0309c     74 CF 9F FE | 	loc	pa,	#(@LR__0144-@LR__0142)
030a0     35 00 A0 FD | 	call	#FCACHE_LOAD_
030a4                 | LR__0142
030a4     7E 08 D8 FC | 	rep	@LR__0145, _var02
030a8                 | LR__0143
030a8     85 FE 00 FB | 	rdlong	_var03, arg02
030ac     84 FE 60 FC | 	wrlong	_var03, arg01
030b0     04 08 05 F1 | 	add	arg01, #4
030b4     04 0A 05 F1 | 	add	arg02, #4
030b8                 | LR__0144
030b8                 | LR__0145
030b8     34 00 90 FD | 	jmp	#LR__0152
030bc                 | LR__0146
030bc     86 00 01 F6 | 	mov	_var04, arg03
030c0     02 00 65 F0 | 	shl	_var04, #2
030c4     80 08 01 F1 | 	add	arg01, _var04
030c8     80 0A 01 F1 | 	add	arg02, _var04
030cc     86 02 09 F6 | 	mov	_var05, arg03 wz
030d0     1C 00 90 AD |  if_e	jmp	#LR__0151
030d4     3C CF 9F FE | 	loc	pa,	#(@LR__0149-@LR__0147)
030d8     35 00 A0 FD | 	call	#FCACHE_LOAD_
030dc                 | LR__0147
030dc     81 08 D8 FC | 	rep	@LR__0150, _var05
030e0                 | LR__0148
030e0     04 08 85 F1 | 	sub	arg01, #4
030e4     04 0A 85 F1 | 	sub	arg02, #4
030e8     85 FE 00 FB | 	rdlong	_var03, arg02
030ec     84 FE 60 FC | 	wrlong	_var03, arg01
030f0                 | LR__0149
030f0                 | LR__0150
030f0                 | LR__0151
030f0                 | LR__0152
030f0     7D F8 00 F6 | 	mov	result1, _var01
030f4                 | __system__longmove_ret
030f4     2D 00 64 FD | 	ret
030f8                 | 
030f8                 | __system___waitus
030f8     02 88 04 F6 | 	mov	COUNT_, #2
030fc     4B 00 A0 FD | 	call	#pushregs_
03100     84 2C 01 F6 | 	mov	local01, arg01
03104     14 2E 05 FB | 	rdlong	local02, #20
03108     0C CF 9F FE | 	loc	pa,	#(@LR__0154-@LR__0153)
0310c     35 00 A0 FD | 	call	#FCACHE_LOAD_
03110                 | LR__0153
03110     A1 07 00 FF 
03114     40 2C 5D F2 | 	cmps	local01, ##1000000 wcz
03118     1F 2E 61 1D |  if_a	waitx	local02
0311c     A1 07 00 1F 
03120     40 2C 85 11 |  if_a	sub	local01, ##1000000
03124     E8 FF 9F 1D |  if_a	jmp	#LR__0153
03128                 | LR__0154
03128     00 2C 5D F2 | 	cmps	local01, #0 wcz
0312c     1C 00 90 ED |  if_be	jmp	#LR__0155
03130     97 B4 01 F6 | 	mov	muldiva_, local02
03134     A1 07 00 FF 
03138     40 B6 05 F6 | 	mov	muldivb_, ##1000000
0313c     6B 00 A0 FD | 	call	#divide_
03140     DB 2C 01 FD | 	qmul	local01, muldivb_
03144     18 08 61 FD | 	getqx	arg01
03148     1F 08 61 FD | 	waitx	arg01
0314c                 | LR__0155
0314c     46 F0 03 F6 | 	mov	ptra, fp
03150     5A 00 A0 FD | 	call	#popregs_
03154                 | __system___waitus_ret
03154     2D 00 64 FD | 	ret
03158                 | 
03158                 | LR__0156
03158     41 20 48 44 
0315c     4D 49 20 4E 
03160     6F 73 74 61 
03164     6C 67 69 63 
03168     20 74 65 78 
0316c     74 20 64 72 
03170     69 76 65 72 
03174     20 64 65 6D 
03178     6F          | 	byte	"A HDMI Nostalgic text driver demo"
03179     00          | 	byte	0
0317a                 | LR__0157
0317a     49 74 20 75 
0317e     73 65 73 20 
03182     38 78 31 36 
03186     20 66 6F 6E 
0318a     74          | 	byte	"It uses 8x16 font"
0318b     00          | 	byte	0
0318c                 | LR__0158
0318c     45 76 65 72 
03190     79 20 63 68 
03194     61 72 61 63 
03198     74 65 72 20 
0319c     68 61 73 20 
031a0     69 74 73 20 
031a4     6F 77 6E 20 
031a8     66 6F 72 65 
031ac     67 72 6F 75 
031b0     6E 64 20 61 
031b4     6E 64 20 62 
031b8     61 63 6B 67 
031bc     72 6F 75 6E 
031c0     64 20 63 6F 
031c4     6C 6F 72    | 	byte	"Every character has its own foreground and background color"
031c7     00          | 	byte	0
031c8                 | LR__0159
031c8     45 76 65 72 
031cc     79 20 6C 69 
031d0     6E 65 20 68 
031d4     61 73 20 69 
031d8     74 73 20 6F 
031dc     77 6E 20 62 
031e0     6F 72 64 65 
031e4     72 20 63 6F 
031e8     6C 6F 72    | 	byte	"Every line has its own border color"
031eb     00          | 	byte	0
031ec                 | LR__0160
031ec     54 68 65 20 
031f0     68 75 62 20 
031f4     52 41 4D 20 
031f8     69 73 20 75 
031fc     73 65 64 20 
03200     66 6F 72 20 
03204     74 68 65 20 
03208     63 6F 6C 6F 
0320c     72 20 62 75 
03210     66 66 65 72 | 	byte	"The hub RAM is used for the color buffer"
03214     00          | 	byte	0
03215                 | LR__0161
03215     59 6F 75 20 
03219     63 61 6E 20 
0321d     73 65 74 20 
03221     63 6F 6C 6F 
03225     72 73 20 66 
03229     6F 72 20 61 
0322d     6C 6C 20 74 
03231     68 65 20 73 
03235     63 72 65 65 
03239     6E 20 75 73 
0323d     69 6E 67 20 
03241     6F 6E 65 20 
03245     66 75 6E 63 
03249     74 69 6F 6E 
0324d     20 63 61 6C 
03251     6C          | 	byte	"You can set colors for all the screen using one function call"
03252     00          | 	byte	0
03253                 | LR__0162
03253     59 6F 75 20 
03257     63 61 6E 20 
0325b     73 65 74 20 
0325f     62 6F 72 64 
03263     65 72 20 63 
03267     6F 6C 6F 72 
0326b     20 66 6F 72 
0326f     20 61 6C 6C 
03273     20 74 68 65 
03277     20 73 63 72 
0327b     65 65 6E 20 
0327f     75 73 69 6E 
03283     67 20 6F 6E 
03287     65 20 66 75 
0328b     6E 63 74 69 
0328f     6F 6E 20 63 
03293     61 6C 6C 2C 
03297     20 74 6F 6F | 	byte	"You can set border color for all the screen using one function call, too"
0329b     00          | 	byte	0
0329c                 | LR__0163
0329c     31 32 33 34 
032a0     35 36 37 38 
032a4     39 30       | 	byte	"1234567890"
032a6     00          | 	byte	0
032a7                 | LR__0164
032a7     50 32 20 52 
032ab     65 74 72 6F 
032af     6D 61 63 68 
032b3     69 6E 65 20 
032b7     44 4F 53 20 
032bb     76 2E 20 30 
032bf     2E 30 30    | 	byte	"P2 Retromachine DOS v. 0.00"
032c2     00          | 	byte	0
032c3                 | LR__0165
032c3     54 68 69 73 
032c7     20 69 73 20 
032cb     61 20 64 65 
032cf     6D 6F 6E 73 
032d3     74 72 61 74 
032d7     69 6F 6E 20 
032db     6F 66 20 48 
032df     44 4D 49 20 
032e3     27 6E 6F 73 
032e7     74 61 6C 67 
032eb     69 63 27 20 
032ef     74 65 78 74 
032f3     20 64 72 69 
032f7     76 65 72    | 	byte	"This is a demonstration of HDMI 'nostalgic' text driver"
032fa     00          | 	byte	0
032fb                 | LR__0166
032fb     54 68 65 20 
032ff     64 72 69 76 
03303     65 72 20 69 
03307     73 20 62 61 
0330b     73 65 64 20 
0330f     6F 6E 20 50 
03313     41 4C 2F 4E 
03317     54 53 43 20 
0331b     6E 6F 6E 2D 
0331f     69 6E 74 65 
03323     72 6C 61 63 
03327     65 64 20 74 
0332b     69 6D 69 6E 
0332f     67 73 2E 2E 
03333     2E          | 	byte	"The driver is based on PAL/NTSC non-interlaced timings..."
03334     00          | 	byte	0
03335                 | LR__0167
03335     2E 2E 2E 67 
03339     65 6E 65 72 
0333d     61 74 69 6E 
03341     67 20 35 32 
03345     34 20 6C 69 
03349     6E 65 73 20 
0334d     61 74 20 36 
03351     30 20 48 7A 
03355     20 6F 72 20 
03359     36 32 34 20 
0335d     6C 69 6E 65 
03361     73 20 61 74 
03365     20 35 30 20 
03369     48 7A       | 	byte	"...generating 524 lines at 60 Hz or 624 lines at 50 Hz"
0336b     00          | 	byte	0
0336c                 | LR__0168
0336c     54 68 65 20 
03370     50 32 20 63 
03374     6C 6F 63 6B 
03378     20 69 73 20 
0337c     62 61 73 65 
03380     64 20 6F 6E 
03384     20 50 41 4C 
03388     2F 4E 54 53 
0338c     43 20 63 6F 
03390     6C 6F 72 20 
03394     63 61 72 72 
03398     69 65 72 20 
0339c     66 72 65 71 
033a0     75 65 6E 63 
033a4     79 20 6D 75 
033a8     6C 74 69 70 
033ac     6C 69 65 64 
033b0     20 62 79 20 
033b4     61 20 63 6F 
033b8     6E 73 74 61 
033bc     6E 74       | 	byte	"The P2 clock is based on PAL/NTSC color carrier frequency multiplied by a constant"
033be     00          | 	byte	0
033bf                 | LR__0169
033bf     54 68 65 20 
033c3     64 72 69 76 
033c7     65 72 20 66 
033cb     69 74 73 20 
033cf     69 6E 20    | 	byte	"The driver fits in "
033d2     00          | 	byte	0
033d3                 | LR__0170
033d3     20 6C 6F 6E 
033d7     67 73 2E    | 	byte	" longs."
033da     00          | 	byte	0
033db                 | LR__0171
033db     57 65 20 68 
033df     61 76 65 20 
033e3     38 20 6D 6F 
033e7     64 65 73 20 
033eb     61 76 61 69 
033ef     6C 61 62 6C 
033f3     65 3A       | 	byte	"We have 8 modes available:"
033f5     00          | 	byte	0
033f6                 | LR__0172
033f6     2D 20 6D 6F 
033fa     64 65 20 30 
033fe     3A 20 20 20 
03402     50 41 4C 20 
03406     20 35 30 20 
0340a     48 7A 20 73 
0340e     69 67 6E 61 
03412     6C 69 6E 67 
03416     20 31 31 34 
0341a     30 78 36 32 
0341e     34 2C 20 61 
03422     63 74 69 76 
03426     65 20 20 38 
0342a     30 30 78 34 
0342e     38 30 2C 20 
03432     31 30 30 78 
03436     33 30 20 74 
0343a     65 78 74 2C 
0343e     20 77 69 64 
03442     65 20 62 6F 
03446     72 64 65 72 
0344a     2C 20 20 20 
0344e     33 35 34 5F 
03452     36 39 33 5F 
03456     38 37 38 20 
0345a     48 7A       | 	byte	"- mode 0:   PAL  50 Hz signaling 1140x624, active  800x480, 100x30 text, wide border,   354_693_878 Hz"
0345c     00          | 	byte	0
0345d                 | LR__0173
0345d     2D 20 6D 6F 
03461     64 65 20 36 
03465     34 3A 20 20 
03469     50 41 4C 20 
0346d     20 35 30 20 
03471     48 7A 20 73 
03475     69 67 6E 61 
03479     6C 69 6E 67 
0347d     20 31 30 32 
03481     36 78 36 32 
03485     34 2C 20 61 
03489     63 74 69 76 
0348d     65 20 20 38 
03491     38 30 78 34 
03495     39 36 2C 20 
03499     31 31 30 78 
0349d     33 31 20 74 
034a1     65 78 74 2C 
034a5     20 6D 65 64 
034a9     69 75 6D 20 
034ad     62 6F 72 64 
034b1     65 72 2C 20 
034b5     33 31 39 5F 
034b9     32 31 35 5F 
034bd     36 38 36 20 
034c1     48 7A       | 	byte	"- mode 64:  PAL  50 Hz signaling 1026x624, active  880x496, 110x31 text, medium border, 319_215_686 Hz"
034c3     00          | 	byte	0
034c4                 | LR__0174
034c4     2D 20 6D 6F 
034c8     64 65 20 31 
034cc     32 38 3A 20 
034d0     50 41 4C 20 
034d4     20 35 30 20 
034d8     48 7A 20 73 
034dc     69 67 6E 61 
034e0     6C 69 6E 67 
034e4     20 20 39 31 
034e8     32 78 36 32 
034ec     34 2C 20 61 
034f0     63 74 69 76 
034f4     65 20 20 38 
034f8     30 30 78 34 
034fc     38 30 2C 20 
03500     31 30 30 78 
03504     33 30 20 74 
03508     65 78 74 2C 
0350c     20 6E 61 72 
03510     72 6F 77 20 
03514     62 6F 72 64 
03518     65 72 2C 20 
0351c     32 38 33 5F 
03520     37 35 30 5F 
03524     30 30 30 20 
03528     48 7A       | 	byte	"- mode 128: PAL  50 Hz signaling  912x624, active  800x480, 100x30 text, narrow border, 283_750_000 Hz"
0352a     00          | 	byte	0
0352b                 | LR__0175
0352b     2D 20 6D 6F 
0352f     64 65 20 31 
03533     39 32 3A 20 
03537     50 41 4C 20 
0353b     20 35 30 20 
0353f     48 7A 20 73 
03543     69 67 6E 61 
03547     6C 69 6E 67 
0354b     20 31 31 34 
0354f     30 78 36 32 
03553     34 2C 20 61 
03557     63 74 69 76 
0355b     65 20 31 30 
0355f     32 34 78 35 
03563     37 36 2C 20 
03567     31 32 38 78 
0356b     33 36 20 74 
0356f     65 78 74 2C 
03573     20 62 6F 72 
03577     64 65 72 6C 
0357b     65 73 73 2C 
0357f     20 20 20 20 
03583     33 35 34 5F 
03587     36 39 33 5F 
0358b     38 37 38 20 
0358f     48 7A       | 	byte	"- mode 192: PAL  50 Hz signaling 1140x624, active 1024x576, 128x36 text, borderless,    354_693_878 Hz"
03591     00          | 	byte	0
03592                 | LR__0176
03592     2D 20 6D 6F 
03596     64 65 20 32 
0359a     35 36 3A 20 
0359e     4E 54 53 43 
035a2     20 36 30 20 
035a6     48 7A 20 73 
035aa     69 67 6E 61 
035ae     6C 69 6E 67 
035b2     20 31 31 34 
035b6     30 78 36 32 
035ba     34 2C 20 61 
035be     63 74 69 76 
035c2     65 20 20 38 
035c6     30 30 78 34 
035ca     38 30 2C 20 
035ce     31 30 30 78 
035d2     33 30 20 74 
035d6     65 78 74 2C 
035da     20 6E 61 72 
035de     72 6F 77 20 
035e2     62 6F 72 64 
035e6     65 72 2C 20 
035ea     33 35 37 5F 
035ee     39 35 39 5F 
035f2     31 38 34 20 
035f6     48 7A       | 	byte	"- mode 256: NTSC 60 Hz signaling 1140x624, active  800x480, 100x30 text, narrow border, 357_959_184 Hz"
035f8     00          | 	byte	0
035f9                 | LR__0177
035f9     2D 20 6D 6F 
035fd     64 65 20 33 
03601     32 30 3A 20 
03605     4E 54 53 43 
03609     20 36 30 20 
0360d     48 7A 20 73 
03611     69 67 6E 61 
03615     6C 69 6E 67 
03619     20 31 30 32 
0361d     36 78 36 32 
03621     34 2C 20 61 
03625     63 74 69 76 
03629     65 20 20 38 
0362d     30 30 78 34 
03631     38 30 2C 20 
03635     31 30 30 78 
03639     33 30 20 74 
0363d     65 78 74 2C 
03641     20 6E 61 72 
03645     72 6F 77 20 
03649     62 6F 72 64 
0364d     65 72 2C 20 
03651     33 32 32 5F 
03655     31 36 32 5F 
03659     31 36 32 20 
0365d     48 7A       | 	byte	"- mode 320: NTSC 60 Hz signaling 1026x624, active  800x480, 100x30 text, narrow border, 322_162_162 Hz"
0365f     00          | 	byte	0
03660                 | LR__0178
03660     2D 20 6D 6F 
03664     64 65 20 33 
03668     38 34 3A 20 
0366c     4E 54 53 43 
03670     20 36 30 20 
03674     48 7A 20 73 
03678     69 67 6E 61 
0367c     6C 69 6E 67 
03680     20 20 39 31 
03684     32 78 36 32 
03688     34 2C 20 61 
0368c     63 74 69 76 
03690     65 20 20 38 
03694     30 30 78 34 
03698     38 30 2C 20 
0369c     31 30 30 78 
036a0     33 30 20 74 
036a4     65 78 74 2C 
036a8     20 6E 61 72 
036ac     72 6F 77 20 
036b0     62 6F 72 64 
036b4     65 72 2C 20 
036b8     32 38 36 5F 
036bc     33 36 33 5F 
036c0     36 33 36 20 
036c4     48 7A       | 	byte	"- mode 384: NTSC 60 Hz signaling  912x624, active  800x480, 100x30 text, narrow border, 286_363_636 Hz"
036c6     00          | 	byte	0
036c7                 | LR__0179
036c7     2D 20 6D 6F 
036cb     64 65 20 34 
036cf     34 38 3A 20 
036d3     4E 54 53 43 
036d7     20 36 30 20 
036db     48 7A 20 73 
036df     69 67 6E 61 
036e3     6C 69 6E 67 
036e7     20 31 30 32 
036eb     36 78 36 32 
036ef     34 2C 20 61 
036f3     63 74 69 76 
036f7     65 20 20 38 
036fb     38 30 78 34 
036ff     39 36 2C 20 
03703     31 31 30 78 
03707     33 31 20 74 
0370b     65 78 74 2C 
0370f     20 62 6F 72 
03713     64 65 72 6C 
03717     65 73 73 2C 
0371b     20 20 20 20 
0371f     33 32 32 5F 
03723     31 36 32 5F 
03727     31 36 32 20 
0372b     48 7A       | 	byte	"- mode 448: NTSC 60 Hz signaling 1026x624, active  880x496, 110x31 text, borderless,    322_162_162 Hz"
0372d     00          | 	byte	0
0372e                 | LR__0180
0372e     57 65 20 61 
03732     72 65 20 69 
03736     6E 20 74 68 
0373a     65 20 6D 6F 
0373e     64 65 20 34 
03742     34 38 20 6E 
03746     6F 77       | 	byte	"We are in the mode 448 now"
03748     00          | 	byte	0
03749                 | LR__0181
03749     49 74 20 69 
0374d     73 20 74 68 
03751     65 20 73 61 
03755     66 65 73 74 
03759     20 6D 6F 64 
0375d     65 20 74 6F 
03761     20 73 74 61 
03765     72 74 2C 20 
03769     74 68 65 20 
0376d     50 32 20 69 
03771     73 20 63 6C 
03775     6F 63 6B 65 
03779     64 20 61 74 
0377d     20 33 32 32 
03781     20 4D 48 7A 
03785     20 61 6E 64 
03789     20 74 68 65 
0378d     20 72 65 66 
03791     72 65 73 68 
03795     20 72 61 74 
03799     65 20 69 73 
0379d     20 36 30 20 
037a1     48 7A       | 	byte	"It is the safest mode to start, the P2 is clocked at 322 MHz and the refresh rate is 60 Hz"
037a3     00          | 	byte	0
037a4                 | LR__0182
037a4     20          | 	byte	" "
037a5     00          | 	byte	0
037a6                 | LR__0183
037a6     54 68 69 73 
037aa     20 69 73 20 
037ae     4D 53 2D 44 
037b2     4F 53 20 6C 
037b6     69 6B 65 20 
037ba     38 78 31 36 
037be     20 66 6F 6E 
037c2     74 20 73 74 
037c6     79 6C 65 2E 
037ca     2E 2E       | 	byte	"This is MS-DOS like 8x16 font style..."
037cc     00          | 	byte	0
037cd                 | LR__0184
037cd     20          | 	byte	" "
037ce     00          | 	byte	0
037cf                 | LR__0185
037cf     43 3A 5C 3E | 	byte	"C:\>"
037d3     00          | 	byte	0
037d4                 | LR__0186
037d4     73 68 6F 77 
037d8     66 6F 6E 74 
037dc     20          | 	byte	"showfont "
037dd     00          | 	byte	0
037de                 | LR__0187
037de     20          | 	byte	" "
037df     00          | 	byte	0
037e0                 | LR__0188
037e0     20 20 20 20 
037e4     20 20 20 20 | 	byte	"        "
037e8     00          | 	byte	0
037e9                 | LR__0189
037e9     20          | 	byte	" "
037ea     00          | 	byte	0
037eb                 | LR__0190
037eb     2C          | 	byte	","
037ec     00          | 	byte	0
037ed                 | LR__0191
037ed     43 3A 5C 3E | 	byte	"C:\>"
037f1     00          | 	byte	0
037f2                 | LR__0192
037f2     6D 6F 64 65 
037f6     20 30       | 	byte	"mode 0"
037f8     00          | 	byte	0
037f9                 | LR__0193
037f9     20 46 69 6C 
037fd     65 20 20 4F 
03801     70 74 69 6F 
03805     6E 73 20 20 
03809     56 69 65 77 
0380d     20 20 53 70 
03811     65 63 69 61 
03815     6C          | 	byte	" File  Options  View  Special"
03816     00          | 	byte	0
03817                 | LR__0194
03817     20 20 20 20 
0381b     20 20 20 20 | 	byte	"        "
0381f     00          | 	byte	0
03820                 | LR__0195
03820     20          | 	byte	" "
03821     00          | 	byte	0
03822                 | LR__0196
03822     2C          | 	byte	","
03823     00          | 	byte	0
03824                 | LR__0197
03824     20          | 	byte	" "
03825     00          | 	byte	0
03826                 | LR__0198
03826     20 20 20 20 
0382a     20 2E 2E 2E 
0382e     20 62 75 74 
03832     20 41 74 61 
03836     72 69 20 53 
0383a     54 2D 6C 69 
0383e     6B 65 20 6D 
03842     6F 6E 6F 20 
03846     66 6F 6E 74 
0384a     20 63 61 6E 
0384e     20 61 6C 73 
03852     6F 20 62 65 
03856     20 75 73 65 
0385a     64 2E       | 	byte	"     ... but Atari ST-like mono font can also be used."
0385c     00          | 	byte	0
0385d                 | LR__0199
0385d     20 20 20 20 
03861     20 20 20 20 
03865     20 57 65 20 
03869     61 6C 73 6F 
0386d     20 73 77 69 
03871     74 63 68 65 
03875     64 20 74 68 
03879     65 20 67 72 
0387d     61 70 68 69 
03881     63 73 20 6D 
03885     6F 64 65 20 
03889     74 6F 20 50 
0388d     41 4C 20 6C 
03891     69 6B 65 20 
03895     35 30 20 48 
03899     7A 2C 20 36 
0389d     32 34 20 6C 
038a1     69 6E 65 73 
038a5     2E          | 	byte	"         We also switched the graphics mode to PAL like 50 Hz, 624 lines."
038a6     00          | 	byte	0
038a7                 | LR__0200
038a7     20          | 	byte	" "
038a8     00          | 	byte	0
038a9                 | LR__0201
038a9     20 20 20 20 
038ad     20 20 20 20 
038b1     20 41 6C 74 
038b5     68 6F 75 67 
038b9     68 20 74 68 
038bd     65 20 66 6F 
038c1     6E 74 20 69 
038c5     73 20 6D 6F 
038c9     6E 6F 20 73 
038cd     74 79 6C 65 
038d1     2C 20 77 65 
038d5     20 61 72 65 
038d9     20 73 74 69 
038dd     6C 6C 20 69 
038e1     6E 20 74 68 
038e5     65 20 63 6F 
038e9     6C 6F 72 20 
038ed     6D 6F 64 65 
038f1     20 68 65 72 
038f5     65 2E       | 	byte	"         Although the font is mono style, we are still in the color mode here."
038f7     00          | 	byte	0
038f8                 | LR__0202
038f8     62 6C 75 65 | 	byte	"blue"
038fc     00          | 	byte	0
038fd                 | LR__0203
038fd     67 72 65 65 
03901     6E          | 	byte	"green"
03902     00          | 	byte	0
03903                 | LR__0204
03903     63 79 61 6E | 	byte	"cyan"
03907     00          | 	byte	0
03908                 | LR__0205
03908     72 65 64    | 	byte	"red"
0390b     00          | 	byte	0
0390c                 | LR__0206
0390c     6D 61 67 65 
03910     6E 74 61    | 	byte	"magenta"
03913     00          | 	byte	0
03914                 | LR__0207
03914     62 72 6F 77 
03918     6E          | 	byte	"brown"
03919     00          | 	byte	0
0391a                 | LR__0208
0391a     6C 69 67 68 
0391e     74 20 67 72 
03922     61 79       | 	byte	"light gray"
03924     00          | 	byte	0
03925                 | LR__0209
03925     64 61 72 6B 
03929     20 67 72 61 
0392d     79          | 	byte	"dark gray"
0392e     00          | 	byte	0
0392f                 | LR__0210
0392f     6C 69 67 68 
03933     74 20 62 6C 
03937     75 65       | 	byte	"light blue"
03939     00          | 	byte	0
0393a                 | LR__0211
0393a     6C 69 67 68 
0393e     74 20 67 72 
03942     65 65 6E    | 	byte	"light green"
03945     00          | 	byte	0
03946                 | LR__0212
03946     6C 69 67 68 
0394a     74 20 63 79 
0394e     61 6E       | 	byte	"light cyan"
03950     00          | 	byte	0
03951                 | LR__0213
03951     6C 69 67 68 
03955     74 20 72 65 
03959     64          | 	byte	"light red"
0395a     00          | 	byte	0
0395b                 | LR__0214
0395b     6C 69 67 68 
0395f     74 20 6D 61 
03963     67 65 6E 74 
03967     61          | 	byte	"light magenta"
03968     00          | 	byte	0
03969                 | LR__0215
03969     79 65 6C 6C 
0396d     6F 77       | 	byte	"yellow"
0396f     00          | 	byte	0
03970                 | LR__0216
03970     77 68 69 74 
03974     65          | 	byte	"white"
03975     00          | 	byte	0
03976                 | LR__0217
03976     43 6C 6F 63 
0397a     6B 20 66 72 
0397e     65 71 75 65 
03982     6E 63 79 3A 
03986     20          | 	byte	"Clock frequency: "
03987     00          | 	byte	0
03988                 | LR__0218
03988     43 3A 5C 3E | 	byte	"C:\>"
0398c     00          | 	byte	0
0398d                 | LR__0219
0398d     70          | 	byte	"p"
0398e     00          | 	byte	0
0398f                 | LR__0220
0398f     63          | 	byte	"c"
03990     00          | 	byte	0
03991                 | LR__0221
03991     20          | 	byte	" "
03992     00          | 	byte	0
03993                 | LR__0222
03993     54 68 65 20 
03997     50 72 6F 70 
0399b     65 6C 6C 65 
0399f     72 20 43 6F 
039a3     6D 6D 61 6E 
039a7     64 65 72 2C 
039ab     20 43 6F 70 
039af     79 6C 65 66 
039b3     74 20 28    | 	byte	"The Propeller Commander, Copyleft ("
039b6     00          | 	byte	0
039b7                 | LR__0223
039b7     29 20 32 30 
039bb     32 31 20 70 
039bf     69 6B 33 33 
039c3     40 6F 32 2E 
039c7     70 6C       | 	byte	") 2021 pik33@o2.pl"
039c9     00          | 	byte	0
039ca                 | LR__0224
039ca     20          | 	byte	" "
039cb     00          | 	byte	0
039cc                 | LR__0225
039cc     43 3A 5C 3E | 	byte	"C:\>"
039d0     00          | 	byte	0
039d1                 | LR__0226
039d1     20 53 74 61 
039d5     74 75 73 20 | 	byte	" Status "
039d9     00          | 	byte	0
039da                 | LR__0227
039da     20 43 3A 5C 
039de     20          | 	byte	" C:\ "
039df     00          | 	byte	0
039e0                 | LR__0228
039e0     54 68 65 20 
039e4     50 72 6F 70 
039e8     65 6C 6C 65 
039ec     72 20 43 6F 
039f0     6D 6D 61 6E 
039f4     64 65 72 2C 
039f8     20 56 65 72 
039fc     73 69 6F 6E 
03a00     20 30 2E 30 
03a04     30          | 	byte	"The Propeller Commander, Version 0.00"
03a05     00          | 	byte	0
03a06                 | LR__0229
03a06     43 6F 70 79 
03a0a     6C 65 66 74 
03a0e     20 28       | 	byte	"Copyleft ("
03a10     00          | 	byte	0
03a11                 | LR__0230
03a11     29 20 32 30 
03a15     32 31 20 70 
03a19     69 6B 33 33 
03a1d     40 6F 32 2E 
03a21     70 6C       | 	byte	") 2021 pik33@o2.pl"
03a23     00          | 	byte	0
03a24                 | LR__0231
03a24     35 32 34 2C 
03a28     32 38 38 20 
03a2c     42 79 74 65 
03a30     73 20 4D 65 
03a34     6D 6F 72 79 | 	byte	"524,288 Bytes Memory"
03a38     00          | 	byte	0
03a39                 | LR__0232
03a39     2C          | 	byte	","
03a3a     00          | 	byte	0
03a3b                 | LR__0233
03a3b     42 79 74 65 
03a3f     73 20 46 72 
03a43     65 65       | 	byte	"Bytes Free"
03a45     00          | 	byte	0
03a46                 | LR__0234
03a46     33 32 2C 32 
03a4a     31 32 2C 32 
03a4e     35 34 2C 37 
03a52     32 30 20 74 
03a56     6F 74 61 6C 
03a5a     20 62 79 74 
03a5e     65 73 20 6F 
03a62     6E 20 64 72 
03a66     69 76 65 20 
03a6a     43 3A       | 	byte	"32,212,254,720 total bytes on drive C:"
03a6c     00          | 	byte	0
03a6d                 | LR__0235
03a6d     33 2C 39 38 
03a71     39 2C 31 32 
03a75     33 2C 36 34 
03a79     30 20 62 79 
03a7d     74 65 73 20 
03a81     66 72 65 65 
03a85     20 6F 6E 20 
03a89     64 72 69 76 
03a8d     65 20 43 3A | 	byte	"3,989,123,640 bytes free on drive C:"
03a91     00          | 	byte	0
03a92                 | LR__0236
03a92     31 32 33 20 
03a96     66 69 6C 65 
03a9a     73 20 75 73 
03a9e     65 20 31 32 
03aa2     38 2C 39 35 
03aa6     36 2C 33 38 
03aaa     34 20 62 79 
03aae     74 65 73 20 
03ab2     69 6E       | 	byte	"123 files use 128,956,384 bytes in"
03ab4     00          | 	byte	0
03ab5                 | LR__0237
03ab5     43 3A       | 	byte	"C:"
03ab7     00          | 	byte	0
03ab8                 | LR__0238
03ab8     4E 6F 20 27 
03abc     64 69 72 69 
03ac0     6E 66 6F 27 
03ac4     20 66 69 6C 
03ac8     65 20 69 6E 
03acc     20 74 68 69 
03ad0     73 20 64 69 
03ad4     72 65 63 74 
03ad8     6F 72 79    | 	byte	"No 'dirinfo' file in this directory"
03adb     00          | 	byte	0
03adc                 | LR__0239
03adc     4E 61 6D 65 | 	byte	"Name"
03ae0     00          | 	byte	0
03ae1                 | LR__0240
03ae1     53 69 7A 65 | 	byte	"Size"
03ae5     00          | 	byte	0
03ae6                 | LR__0241
03ae6     44 61 74 65 | 	byte	"Date"
03aea     00          | 	byte	0
03aeb                 | LR__0242
03aeb     54 69 6D 65 | 	byte	"Time"
03aef     00          | 	byte	0
03af0                 | LR__0243
03af0     31 32 3A 33 
03af4     34          | 	byte	"12:34"
03af5     00          | 	byte	0
03af6                 | LR__0244
03af6     32 30 32 31 
03afa     2E 30 33 2E 
03afe     32 33       | 	byte	"2021.03.23"
03b00     00          | 	byte	0
03b01                 | LR__0245
03b01     53 55 42 2D 
03b05     44 49 52    | 	byte	"SUB-DIR"
03b08     00          | 	byte	0
03b09                 | LR__0246
03b09     32 31 33 35 
03b0d     36          | 	byte	"21356"
03b0e     00          | 	byte	0
03b0f                 | LR__0247
03b0f     31 32 35 36 
03b13     34          | 	byte	"12564"
03b14     00          | 	byte	0
03b15                 | LR__0248
03b15     31 31 32 38 | 	byte	"1128"
03b19     00          | 	byte	0
03b1a                 | LR__0249
03b1a     31 30 35 33 
03b1e     32 31       | 	byte	"105321"
03b20     00          | 	byte	0
03b21                 | LR__0250
03b21     33 30 38 33 
03b25     31          | 	byte	"30831"
03b26     00          | 	byte	0
03b27                 | LR__0251
03b27     38 35 36    | 	byte	"856"
03b2a     00          | 	byte	0
03b2b                 | LR__0252
03b2b     33 31 32 34 
03b2f     38          | 	byte	"31248"
03b30     00          | 	byte	0
03b31                 | LR__0253
03b31     32 33 31 36 | 	byte	"2316"
03b35     00          | 	byte	0
03b36                 | LR__0254
03b36     31 37 35 33 
03b3a     31          | 	byte	"17531"
03b3b     00          | 	byte	0
03b3c                 | LR__0255
03b3c     50 72 6F 70 
03b40     44 4F 53    | 	byte	"PropDOS"
03b43     00          | 	byte	0
03b44                 | LR__0256
03b44     42 41 53 49 
03b48     43          | 	byte	"BASIC"
03b49     00          | 	byte	0
03b4a                 | LR__0257
03b4a     53 70 69 6E | 	byte	"Spin"
03b4e     00          | 	byte	0
03b4f                 | LR__0258
03b4f     57 69 6E 64 
03b53     6F 77 73    | 	byte	"Windows"
03b56     00          | 	byte	0
03b57                 | LR__0259
03b57     41 74 61 72 
03b5b     69 20 20 20 
03b5f     20 20 20 20 
03b63     20 20 20 20 
03b67     20 20 65 6D 
03b6b     75          | 	byte	"Atari             emu"
03b6c     00          | 	byte	0
03b6d                 | LR__0260
03b6d     41 6D 69 67 
03b71     61 20 20 20 
03b75     20 20 20 20 
03b79     20 20 20 20 
03b7d     20 20 65 6D 
03b81     75          | 	byte	"Amiga             emu"
03b82     00          | 	byte	0
03b83                 | LR__0261
03b83     50 72 6F 70 
03b87     65 6C 6C 65 
03b8b     72          | 	byte	"Propeller"
03b8c     00          | 	byte	0
03b8d                 | LR__0262
03b8d     44 4F 53 20 
03b91     20 20 20 20 
03b95     20 20 20 20 
03b99     20 20 20 20 
03b9d     20 20 53 59 
03ba1     53          | 	byte	"DOS               SYS"
03ba2     00          | 	byte	0
03ba3                 | LR__0263
03ba3     44 55 50 20 
03ba7     20 20 20 20 
03bab     20 20 20 20 
03baf     20 20 20 20 
03bb3     20 20 53 59 
03bb7     53          | 	byte	"DUP               SYS"
03bb8     00          | 	byte	0
03bb9                 | LR__0264
03bb9     41 75 74 6F 
03bbd     65 78 65 63 
03bc1     20 20 20 20 
03bc5     20 20 20 20 
03bc9     20 20 42 41 
03bcd     54          | 	byte	"Autoexec          BAT"
03bce     00          | 	byte	0
03bcf                 | LR__0265
03bcf     70 63 20 20 
03bd3     20 20 20 20 
03bd7     20 20 20 20 
03bdb     20 20 20 20 
03bdf     20 20 65 78 
03be3     65          | 	byte	"pc                exe"
03be4     00          | 	byte	0
03be5                 | LR__0266
03be5     77 69 6E 20 
03be9     20 20 20 20 
03bed     20 20 20 20 
03bf1     20 20 20 20 
03bf5     20 20 63 6F 
03bf9     6D          | 	byte	"win               com"
03bfa     00          | 	byte	0
03bfb                 | LR__0267
03bfb     44 4F 4F 4D 
03bff     20 20 20 20 
03c03     20 20 20 20 
03c07     20 20 20 20 
03c0b     20 20 42 41 
03c0f     54          | 	byte	"DOOM              BAT"
03c10     00          | 	byte	0
03c11                 | LR__0268
03c11     63 6F 6D 6D 
03c15     61 6E 64 20 
03c19     20 20 20 20 
03c1d     20 20 20 20 
03c21     20 20 63 6F 
03c25     6D          | 	byte	"command           com"
03c26     00          | 	byte	0
03c27                 | LR__0269
03c27     63 6F 6E 66 
03c2b     69 67 20 20 
03c2f     20 20 20 20 
03c33     20 20 20 20 
03c37     20 20 73 79 
03c3b     73          | 	byte	"config            sys"
03c3c     00          | 	byte	0
03c3d                 | LR__0270
03c3d     6D 73 64 6F 
03c41     73 20 20 20 
03c45     20 20 20 20 
03c49     20 20 20 20 
03c4d     20 20 73 79 
03c51     73          | 	byte	"msdos             sys"
03c52     00          | 	byte	0
03c53                 | LR__0271
03c53     70 63 2E 65 
03c57     78 65 20 20 
03c5b     20 20 20 20 
03c5f     20 20 20 20 
03c63     20 20 20 20 
03c67     20 20 31 30 
03c6b     35 33 32 31 
03c6f     20 20 20 20 
03c73     32 30 32 31 
03c77     2E 30 33 2E 
03c7b     32 33 20 31 
03c7f     32 3A 33 34 | 	byte	"pc.exe                105321    2021.03.23 12:34"
03c83     00          | 	byte	0
03c84                 | 	alignl
03c84                 | _dat_
03c84     00 00 00 00 | aend long 0
03c88                 | 	alignl
03c88                 | _hng012_dat_
03c88     00 00 00 00 
03c8c     00 00 00 00 
03c90     00 00 00 00 
03c94     00 00 00 00 
03c98     00 00 00    | vga_font                file "vgafont.def"
03c9b     7E 81 A5 81 
03c9f     81 BD 99 81 
03ca3     81 7E 00 00 
03ca7     00 00 00 00 | 	byte	$7e, $81, $a5, $81, $81, $bd, $99, $81, $81, $7e, $00, $00, $00, $00, $00, $00
03cab     7E FF DB FF 
03caf     FF C3 E7 FF 
03cb3     FF 7E 00 00 
03cb7     00 00 00 00 | 	byte	$7e, $ff, $db, $ff, $ff, $c3, $e7, $ff, $ff, $7e, $00, $00, $00, $00, $00, $00
03cbb     00 36 7F 7F 
03cbf     7F 7F 3E 1C 
03cc3     08 00 00 00 
03cc7     00 00 00 00 | 	byte	$00, $36, $7f, $7f, $7f, $7f, $3e, $1c, $08, $00, $00, $00, $00, $00, $00, $00
03ccb     00 08 1C 3E 
03ccf     7F 3E 1C 08 
03cd3     00 00 00 00 
03cd7     00 00 00 00 | 	byte	$00, $08, $1c, $3e, $7f, $3e, $1c, $08, $00, $00, $00, $00, $00, $00, $00, $00
03cdb     18 3C 3C E7 
03cdf     E7 E7 18 18 
03ce3     3C 00 00 00 
03ce7     00 00 00 00 | 	byte	$18, $3c, $3c, $e7, $e7, $e7, $18, $18, $3c, $00, $00, $00, $00, $00, $00, $00
03ceb     18 3C 7E FF 
03cef     FF 7E 18 18 
03cf3     3C 00 00 00 
03cf7     00 00 00 00 | 	byte	$18, $3c, $7e, $ff, $ff, $7e, $18, $18, $3c, $00, $00, $00, $00, $00, $00, $00
03cfb     00 00 00 18 
03cff     3C 3C 18 00 
03d03     00 00 00 00 
03d07     00 FF FF FF | 	byte	$00, $00, $00, $18, $3c, $3c, $18, $00, $00, $00, $00, $00, $00, $ff, $ff, $ff
03d0b     FF FF FF E7 
03d0f     C3 C3 E7 FF 
03d13     FF FF FF FF 
03d17     FF 00 00 00 | 	byte	$ff, $ff, $ff, $e7, $c3, $c3, $e7, $ff, $ff, $ff, $ff, $ff, $ff, $00, $00, $00
03d1b     00 00 3C 66 
03d1f     42 42 66 3C 
03d23     00 00 00 00 
03d27     00 FF FF FF | 	byte	$00, $00, $3c, $66, $42, $42, $66, $3c, $00, $00, $00, $00, $00, $ff, $ff, $ff
03d2b     FF FF C3 99 
03d2f     BD BD 99 C3 
03d33     FF FF FF FF 
03d37     FF 00 00 00 | 	byte	$ff, $ff, $c3, $99, $bd, $bd, $99, $c3, $ff, $ff, $ff, $ff, $ff, $00, $00, $00
03d3b     78 70 58 4C 
03d3f     1E 33 33 33 
03d43     33 1E 00 00 
03d47     00 00 00 00 | 	byte	$78, $70, $58, $4c, $1e, $33, $33, $33, $33, $1e, $00, $00, $00, $00, $00, $00
03d4b     3C 66 66 66 
03d4f     66 3C 18 7E 
03d53     18 18 00 00 
03d57     00 00 00 00 | 	byte	$3c, $66, $66, $66, $66, $3c, $18, $7e, $18, $18, $00, $00, $00, $00, $00, $00
03d5b     FC CC FC 0C 
03d5f     0C 0C 0C 0E 
03d63     0F 07 00 00 
03d67     00 00 00 00 | 	byte	$fc, $cc, $fc, $0c, $0c, $0c, $0c, $0e, $0f, $07, $00, $00, $00, $00, $00, $00
03d6b     FE C6 FE C6 
03d6f     C6 C6 C6 E6 
03d73     E7 67 03 00 
03d77     00 00 00 00 | 	byte	$fe, $c6, $fe, $c6, $c6, $c6, $c6, $e6, $e7, $67, $03, $00, $00, $00, $00, $00
03d7b     18 18 DB 3C 
03d7f     E7 3C DB 18 
03d83     18 00 00 00 
03d87     00 00 00 01 | 	byte	$18, $18, $db, $3c, $e7, $3c, $db, $18, $18, $00, $00, $00, $00, $00, $00, $01
03d8b     03 07 0F 1F 
03d8f     7F 1F 0F 07 
03d93     03 01 00 00 
03d97     00 00 00 40 | 	byte	$03, $07, $0f, $1f, $7f, $1f, $0f, $07, $03, $01, $00, $00, $00, $00, $00, $40
03d9b     60 70 78 7C 
03d9f     7F 7C 78 70 
03da3     60 40 00 00 
03da7     00 00 00 00 | 	byte	$60, $70, $78, $7c, $7f, $7c, $78, $70, $60, $40, $00, $00, $00, $00, $00, $00
03dab     18 3C 7E 18 
03daf     18 18 7E 3C 
03db3     18 00 00 00 
03db7     00 00 00 00 | 	byte	$18, $3c, $7e, $18, $18, $18, $7e, $3c, $18, $00, $00, $00, $00, $00, $00, $00
03dbb     66 66 66 66 
03dbf     66 66 66    | 	byte	$66[7]
03dc2     00 66 66 00 
03dc6     00 00 00 00 
03dca     00 FE DB DB 
03dce     DB DE D8 D8 | 	byte	$00, $66, $66, $00, $00, $00, $00, $00, $00, $fe, $db, $db, $db, $de, $d8, $d8
03dd2     D8 D8 D8 00 
03dd6     00 00 00 3E 
03dda     63 06 1C 36 
03dde     63 63 36 1C | 	byte	$d8, $d8, $d8, $00, $00, $00, $00, $3e, $63, $06, $1c, $36, $63, $63, $36, $1c
03de2     30 63 3E 00 
03de6     00 00 00 00 
03dea     00 00 00 00 
03dee     00 00 00 7F | 	byte	$30, $63, $3e, $00, $00, $00, $00, $00, $00, $00, $00, $00, $00, $00, $00, $7f
03df2     7F 7F 7F 00 
03df6     00 00 00 00 
03dfa     00 18 3C 7E 
03dfe     18 18 18 7E | 	byte	$7f, $7f, $7f, $00, $00, $00, $00, $00, $00, $18, $3c, $7e, $18, $18, $18, $7e
03e02     3C 18 7E 00 
03e06     00 00 00 00 
03e0a     00 18 3C 7E 
03e0e     18 18 18 18 | 	byte	$3c, $18, $7e, $00, $00, $00, $00, $00, $00, $18, $3c, $7e, $18, $18, $18, $18
03e12     18 18 18 00 
03e16     00 00 00 00 
03e1a     00 18 18 18 
03e1e     18 18 18 18 | 	byte	$18, $18, $18, $00, $00, $00, $00, $00, $00, $18, $18, $18, $18, $18, $18, $18
03e22     7E 3C 18 00 
03e26     00 00 00 00 
03e2a     00 00 00 18 
03e2e     30 7F 30 18 | 	byte	$7e, $3c, $18, $00, $00, $00, $00, $00, $00, $00, $00, $18, $30, $7f, $30, $18
03e32     00 00 00 00 
03e36     00 00 00 00 
03e3a     00 00 00    | 	byte	$00[11]
03e3d     0C 06 7F 06 
03e41     0C 00 00 00 
03e45     00 00 00 00 
03e49     00 00 00 00 | 	byte	$0c, $06, $7f, $06, $0c, $00, $00, $00, $00, $00, $00, $00, $00, $00, $00, $00
03e4d     00 03 03 03 
03e51     7F 00 00 00 
03e55     00 00 00 00 
03e59     00 00 00 00 | 	byte	$00, $03, $03, $03, $7f, $00, $00, $00, $00, $00, $00, $00, $00, $00, $00, $00
03e5d     14 36 7F 36 
03e61     14 00 00 00 
03e65     00 00 00 00 
03e69     00 00 00 08 | 	byte	$14, $36, $7f, $36, $14, $00, $00, $00, $00, $00, $00, $00, $00, $00, $00, $08
03e6d     1C 1C 3E 3E 
03e71     7F 7F 00 00 
03e75     00 00 00 00 
03e79     00 00 00 7F | 	byte	$1c, $1c, $3e, $3e, $7f, $7f, $00, $00, $00, $00, $00, $00, $00, $00, $00, $7f
03e7d     7F 3E 3E 1C 
03e81     1C 08 00 00 
03e85     00 00 00 00 
03e89     00 00 00 00 | 	byte	$7f, $3e, $3e, $1c, $1c, $08, $00, $00, $00, $00, $00, $00, $00, $00, $00, $00
03e8d     00 00 00 00 
03e91     00 00 00 00 
03e95     00 00 00 00 
03e99     00 00       | 	byte	$00[14]
03e9b     18 3C 3C 3C 
03e9f     18 18 18 00 
03ea3     18 18 00 00 
03ea7     00 00 66 66 | 	byte	$18, $3c, $3c, $3c, $18, $18, $18, $00, $18, $18, $00, $00, $00, $00, $66, $66
03eab     66 24 00 00 
03eaf     00 00 00 00 
03eb3     00 00 00 00 
03eb7     00 00 00 00 | 	byte	$66, $24, $00, $00, $00, $00, $00, $00, $00, $00, $00, $00, $00, $00, $00, $00
03ebb     00 36 36 7F 
03ebf     36 36 36 7F 
03ec3     36 36 00 00 
03ec7     00 00 18 18 | 	byte	$00, $36, $36, $7f, $36, $36, $36, $7f, $36, $36, $00, $00, $00, $00, $18, $18
03ecb     3E 63 43 03 
03ecf     3E 60 60 61 
03ed3     63 3E 18 18 
03ed7     00 00 00 00 | 	byte	$3e, $63, $43, $03, $3e, $60, $60, $61, $63, $3e, $18, $18, $00, $00, $00, $00
03edb     00 00 43 63 
03edf     30 18 0C 06 
03ee3     63 61 00 00 
03ee7     00 00 00 00 | 	byte	$00, $00, $43, $63, $30, $18, $0c, $06, $63, $61, $00, $00, $00, $00, $00, $00
03eeb     1C 36 36 1C 
03eef     6E 3B 33 33 
03ef3     33 6E 00 00 
03ef7     00 00 00 00 | 	byte	$1c, $36, $36, $1c, $6e, $3b, $33, $33, $33, $6e, $00, $00, $00, $00, $00, $00
03efb     0C 0C 0C 06 
03eff     00 00 00 00 
03f03     00 00 00 00 
03f07     00 00 00 00 | 	byte	$0c, $0c, $0c, $06, $00, $00, $00, $00, $00, $00, $00, $00, $00, $00, $00, $00
03f0b     30 18 0C 0C 
03f0f     0C 0C 0C 0C 
03f13     18 30 00 00 
03f17     00 00 00 00 | 	byte	$30, $18, $0c, $0c, $0c, $0c, $0c, $0c, $18, $30, $00, $00, $00, $00, $00, $00
03f1b     0C 18 30 30 
03f1f     30 30 30 30 
03f23     18 0C 00 00 
03f27     00 00 00 00 | 	byte	$0c, $18, $30, $30, $30, $30, $30, $30, $18, $0c, $00, $00, $00, $00, $00, $00
03f2b     00 00 00 66 
03f2f     3C FF 3C 66 
03f33     00 00 00 00 
03f37     00 00 00 00 | 	byte	$00, $00, $00, $66, $3c, $ff, $3c, $66, $00, $00, $00, $00, $00, $00, $00, $00
03f3b     00 00 00 18 
03f3f     18 7E 18 18 
03f43     00 00 00 00 
03f47     00 00 00 00 | 	byte	$00, $00, $00, $18, $18, $7e, $18, $18, $00, $00, $00, $00, $00, $00, $00, $00
03f4b     00 00 00 00 
03f4f     00 00 00 00 | 	byte	$00[8]
03f53     18 18 18 0C 
03f57     00 00 00 00 
03f5b     00 00 00 00 
03f5f     00 7F 00 00 | 	byte	$18, $18, $18, $0c, $00, $00, $00, $00, $00, $00, $00, $00, $00, $7f, $00, $00
03f63     00 00 00 00 
03f67     00 00 00 00 
03f6b     00 00 00 00 
03f6f     00 00 00 00 | 	byte	$00[16]
03f73     18 18 00 00 
03f77     00 00 00 00 
03f7b     00 00 40 60 
03f7f     30 18 0C 06 | 	byte	$18, $18, $00, $00, $00, $00, $00, $00, $00, $00, $40, $60, $30, $18, $0c, $06
03f83     03 01 00 00 
03f87     00 00 00 00 
03f8b     1C 36 63 63 
03f8f     6B 6B 63 63 | 	byte	$03, $01, $00, $00, $00, $00, $00, $00, $1c, $36, $63, $63, $6b, $6b, $63, $63
03f93     36 1C 00 00 
03f97     00 00 00 00 
03f9b     18 1C 1E 18 
03f9f     18 18 18 18 | 	byte	$36, $1c, $00, $00, $00, $00, $00, $00, $18, $1c, $1e, $18, $18, $18, $18, $18
03fa3     18 7E 00 00 
03fa7     00 00 00 00 
03fab     3E 63 60 30 
03faf     18 0C 06 03 | 	byte	$18, $7e, $00, $00, $00, $00, $00, $00, $3e, $63, $60, $30, $18, $0c, $06, $03
03fb3     63 7F 00 00 
03fb7     00 00 00 00 
03fbb     3E 63 60 60 
03fbf     3C 60 60 60 | 	byte	$63, $7f, $00, $00, $00, $00, $00, $00, $3e, $63, $60, $60, $3c, $60, $60, $60
03fc3     63 3E 00 00 
03fc7     00 00 00 00 
03fcb     30 38 3C 36 
03fcf     33 7F 30 30 | 	byte	$63, $3e, $00, $00, $00, $00, $00, $00, $30, $38, $3c, $36, $33, $7f, $30, $30
03fd3     30 78 00 00 
03fd7     00 00 00 00 
03fdb     7F 03 03 03 
03fdf     3F 60 60 60 | 	byte	$30, $78, $00, $00, $00, $00, $00, $00, $7f, $03, $03, $03, $3f, $60, $60, $60
03fe3     63 3E 00 00 
03fe7     00 00 00 00 
03feb     1C 06 03 03 
03fef     3F 63 63 63 | 	byte	$63, $3e, $00, $00, $00, $00, $00, $00, $1c, $06, $03, $03, $3f, $63, $63, $63
03ff3     63 3E 00 00 
03ff7     00 00 00 00 
03ffb     7F 63 60 60 
03fff     30 18 0C 0C | 	byte	$63, $3e, $00, $00, $00, $00, $00, $00, $7f, $63, $60, $60, $30, $18, $0c, $0c
04003     0C 0C 00 00 
04007     00 00 00 00 
0400b     3E 63 63 63 
0400f     3E 63 63 63 | 	byte	$0c, $0c, $00, $00, $00, $00, $00, $00, $3e, $63, $63, $63, $3e, $63, $63, $63
04013     63 3E 00 00 
04017     00 00 00 00 
0401b     3E 63 63 63 
0401f     7E 60 60 60 | 	byte	$63, $3e, $00, $00, $00, $00, $00, $00, $3e, $63, $63, $63, $7e, $60, $60, $60
04023     30 1E 00 00 
04027     00 00 00 00 
0402b     00 00 00 18 
0402f     18 00 00 00 | 	byte	$30, $1e, $00, $00, $00, $00, $00, $00, $00, $00, $00, $18, $18, $00, $00, $00
04033     18 18 00 00 
04037     00 00 00 00 
0403b     00 00 00 18 
0403f     18 00 00 00 | 	byte	$18, $18, $00, $00, $00, $00, $00, $00, $00, $00, $00, $18, $18, $00, $00, $00
04043     18 18 0C 00 
04047     00 00 00 00 
0404b     00 60 30 18 
0404f     0C 06 0C 18 | 	byte	$18, $18, $0c, $00, $00, $00, $00, $00, $00, $60, $30, $18, $0c, $06, $0c, $18
04053     30 60 00 00 
04057     00 00 00 00 
0405b     00 00 00 7E 
0405f     00 00 7E 00 | 	byte	$30, $60, $00, $00, $00, $00, $00, $00, $00, $00, $00, $7e, $00, $00, $7e, $00
04063     00 00 00 00 
04067     00 00 00 00 
0406b     00          | 	byte	$00[9]
0406c     06 0C 18 30 
04070     60 30 18 0C 
04074     06 00 00 00 
04078     00 00 00 3E | 	byte	$06, $0c, $18, $30, $60, $30, $18, $0c, $06, $00, $00, $00, $00, $00, $00, $3e
0407c     63 63 30 18 
04080     18 18 00 18 
04084     18 00 00 00 
04088     00 00 00 00 | 	byte	$63, $63, $30, $18, $18, $18, $00, $18, $18, $00, $00, $00, $00, $00, $00, $00
0408c     3E 63 63 7B 
04090     7B 7B 3B 03 
04094     3E 00 00 00 
04098     00 00 00 08 | 	byte	$3e, $63, $63, $7b, $7b, $7b, $3b, $03, $3e, $00, $00, $00, $00, $00, $00, $08
0409c     1C 36 63 63 
040a0     7F 63 63 63 
040a4     63 00 00 00 
040a8     00 00 00 3F | 	byte	$1c, $36, $63, $63, $7f, $63, $63, $63, $63, $00, $00, $00, $00, $00, $00, $3f
040ac     66 66 66 3E 
040b0     66 66 66 66 
040b4     3F 00 00 00 
040b8     00 00 00 3C | 	byte	$66, $66, $66, $3e, $66, $66, $66, $66, $3f, $00, $00, $00, $00, $00, $00, $3c
040bc     66 43 03 03 
040c0     03 03 43 66 
040c4     3C 00 00 00 
040c8     00 00 00 1F | 	byte	$66, $43, $03, $03, $03, $03, $43, $66, $3c, $00, $00, $00, $00, $00, $00, $1f
040cc     36 66 66 66 
040d0     66 66 66 36 
040d4     1F 00 00 00 
040d8     00 00 00 7F | 	byte	$36, $66, $66, $66, $66, $66, $66, $36, $1f, $00, $00, $00, $00, $00, $00, $7f
040dc     66 46 16 1E 
040e0     16 06 46 66 
040e4     7F 00 00 00 
040e8     00 00 00 7F | 	byte	$66, $46, $16, $1e, $16, $06, $46, $66, $7f, $00, $00, $00, $00, $00, $00, $7f
040ec     66 46 16 1E 
040f0     16 06 06 06 
040f4     0F 00 00 00 
040f8     00 00 00 3C | 	byte	$66, $46, $16, $1e, $16, $06, $06, $06, $0f, $00, $00, $00, $00, $00, $00, $3c
040fc     66 43 03 03 
04100     7B 63 63 66 
04104     5C 00 00 00 
04108     00 00 00 63 | 	byte	$66, $43, $03, $03, $7b, $63, $63, $66, $5c, $00, $00, $00, $00, $00, $00, $63
0410c     63 63 63 7F 
04110     63 63 63 63 
04114     63 00 00 00 
04118     00 00 00 3C | 	byte	$63, $63, $63, $7f, $63, $63, $63, $63, $63, $00, $00, $00, $00, $00, $00, $3c
0411c     18 18 18 18 
04120     18 18 18 18 | 	byte	$18[8]
04124     3C 00 00 00 
04128     00 00 00 78 
0412c     30 30 30 30 
04130     30 33 33 33 | 	byte	$3c, $00, $00, $00, $00, $00, $00, $78, $30, $30, $30, $30, $30, $33, $33, $33
04134     1E 00 00 00 
04138     00 00 00 67 
0413c     66 66 36 1E 
04140     1E 36 66 66 | 	byte	$1e, $00, $00, $00, $00, $00, $00, $67, $66, $66, $36, $1e, $1e, $36, $66, $66
04144     67 00 00 00 
04148     00 00 00 0F 
0414c     06 06 06 06 
04150     06 06 46 66 | 	byte	$67, $00, $00, $00, $00, $00, $00, $0f, $06, $06, $06, $06, $06, $06, $46, $66
04154     7F 00 00 00 
04158     00 00 00 63 
0415c     77 7F 7F 6B 
04160     63 63 63 63 | 	byte	$7f, $00, $00, $00, $00, $00, $00, $63, $77, $7f, $7f, $6b, $63, $63, $63, $63
04164     63 00 00 00 
04168     00 00 00 63 
0416c     67 6F 7F 7B 
04170     73 63 63 63 | 	byte	$63, $00, $00, $00, $00, $00, $00, $63, $67, $6f, $7f, $7b, $73, $63, $63, $63
04174     63 00 00 00 
04178     00 00 00 3E 
0417c     63 63 63 63 
04180     63 63 63 63 | 	byte	$63, $00, $00, $00, $00, $00, $00, $3e, $63, $63, $63, $63, $63, $63, $63, $63
04184     3E 00 00 00 
04188     00 00 00 3F 
0418c     66 66 66 3E 
04190     06 06 06 06 | 	byte	$3e, $00, $00, $00, $00, $00, $00, $3f, $66, $66, $66, $3e, $06, $06, $06, $06
04194     0F 00 00 00 
04198     00 00 00 3E 
0419c     63 63 63 63 
041a0     63 63 6B 7B | 	byte	$0f, $00, $00, $00, $00, $00, $00, $3e, $63, $63, $63, $63, $63, $63, $6b, $7b
041a4     3E 30 70 00 
041a8     00 00 00 3F 
041ac     66 66 66 3E 
041b0     36 66 66 66 | 	byte	$3e, $30, $70, $00, $00, $00, $00, $3f, $66, $66, $66, $3e, $36, $66, $66, $66
041b4     67 00 00 00 
041b8     00 00 00 3E 
041bc     63 63 06 1C 
041c0     30 60 63 63 | 	byte	$67, $00, $00, $00, $00, $00, $00, $3e, $63, $63, $06, $1c, $30, $60, $63, $63
041c4     3E 00 00 00 
041c8     00 00 00 7E 
041cc     7E 5A 18 18 
041d0     18 18 18 18 | 	byte	$3e, $00, $00, $00, $00, $00, $00, $7e, $7e, $5a, $18, $18, $18, $18, $18, $18
041d4     3C 00 00 00 
041d8     00 00 00 63 
041dc     63 63 63 63 
041e0     63 63 63 63 | 	byte	$3c, $00, $00, $00, $00, $00, $00, $63, $63, $63, $63, $63, $63, $63, $63, $63
041e4     3E 00 00 00 
041e8     00 00 00 63 
041ec     63 63 63 63 
041f0     63 63 36 1C | 	byte	$3e, $00, $00, $00, $00, $00, $00, $63, $63, $63, $63, $63, $63, $63, $36, $1c
041f4     08 00 00 00 
041f8     00 00 00 63 
041fc     63 63 63 6B 
04200     6B 6B 7F 77 | 	byte	$08, $00, $00, $00, $00, $00, $00, $63, $63, $63, $63, $6b, $6b, $6b, $7f, $77
04204     36 00 00 00 
04208     00 00 00 63 
0420c     63 36 3E 1C 
04210     1C 3E 36 63 | 	byte	$36, $00, $00, $00, $00, $00, $00, $63, $63, $36, $3e, $1c, $1c, $3e, $36, $63
04214     63 00 00 00 
04218     00 00 00 66 
0421c     66 66 66 3C 
04220     18 18 18 18 | 	byte	$63, $00, $00, $00, $00, $00, $00, $66, $66, $66, $66, $3c, $18, $18, $18, $18
04224     3C 00 00 00 
04228     00 00 00 7F 
0422c     63 61 30 18 
04230     0C 06 43 63 | 	byte	$3c, $00, $00, $00, $00, $00, $00, $7f, $63, $61, $30, $18, $0c, $06, $43, $63
04234     7F 00 00 00 
04238     00 00 00 3C 
0423c     0C 0C 0C 0C 
04240     0C 0C 0C 0C | 	byte	$7f, $00, $00, $00, $00, $00, $00, $3c, $0c, $0c, $0c, $0c, $0c, $0c, $0c, $0c
04244     3C 00 00 00 
04248     00 00 00 00 
0424c     01 03 07 0E 
04250     1C 38 70 60 | 	byte	$3c, $00, $00, $00, $00, $00, $00, $00, $01, $03, $07, $0e, $1c, $38, $70, $60
04254     40 00 00 00 
04258     00 00 00 3C 
0425c     30 30 30 30 
04260     30 30 30 30 | 	byte	$40, $00, $00, $00, $00, $00, $00, $3c, $30, $30, $30, $30, $30, $30, $30, $30
04264     3C 00 00 00 
04268     1C 36 00 00 
0426c     00 00 00 00 
04270     00 00 00 00 | 	byte	$3c, $00, $00, $00, $1c, $36, $00, $00, $00, $00, $00, $00, $00, $00, $00, $00
04274     00 00 00 00 
04278     00 00 00 00 
0427c     00 00 00 00 
04280     00 00 00 00 
04284     00          | 	byte	$00[17]
04285     FF 00 00 0C 
04289     18 00 00 00 
0428d     00 00 00 00 
04291     00 00 00 00 | 	byte	$ff, $00, $00, $0c, $18, $00, $00, $00, $00, $00, $00, $00, $00, $00, $00, $00
04295     00 00 00 00 
04299     00 00 00 00 
0429d     00          | 	byte	$00[9]
0429e     1E 30 3E 33 
042a2     33 33 6E 00 
042a6     00 00 00 00 
042aa     00 07 06 06 | 	byte	$1e, $30, $3e, $33, $33, $33, $6e, $00, $00, $00, $00, $00, $00, $07, $06, $06
042ae     1E 36 66 66 
042b2     66 66 3E 00 
042b6     00 00 00 00 
042ba     00 00 00 00 | 	byte	$1e, $36, $66, $66, $66, $66, $3e, $00, $00, $00, $00, $00, $00, $00, $00, $00
042be     3E 63 03 03 
042c2     03 63 3E 00 
042c6     00 00 00 00 
042ca     00 38 30 30 | 	byte	$3e, $63, $03, $03, $03, $63, $3e, $00, $00, $00, $00, $00, $00, $38, $30, $30
042ce     3C 36 33 33 
042d2     33 33 6E 00 
042d6     00 00 00 00 
042da     00 00 00 00 | 	byte	$3c, $36, $33, $33, $33, $33, $6e, $00, $00, $00, $00, $00, $00, $00, $00, $00
042de     3E 63 7F 03 
042e2     03 63 3E 00 
042e6     00 00 00 00 
042ea     00 38 6C 4C | 	byte	$3e, $63, $7f, $03, $03, $63, $3e, $00, $00, $00, $00, $00, $00, $38, $6c, $4c
042ee     0C 1E 0C 0C 
042f2     0C 0C 1E 00 
042f6     00 00 00 00 
042fa     00 00 00 00 | 	byte	$0c, $1e, $0c, $0c, $0c, $0c, $1e, $00, $00, $00, $00, $00, $00, $00, $00, $00
042fe     6E 33 33 33 
04302     33 33 3E 30 
04306     33 1E 00 00 
0430a     00 07 06 06 | 	byte	$6e, $33, $33, $33, $33, $33, $3e, $30, $33, $1e, $00, $00, $00, $07, $06, $06
0430e     36 6E 66 66 
04312     66 66 67 00 
04316     00 00 00 00 
0431a     00 18 18 00 | 	byte	$36, $6e, $66, $66, $66, $66, $67, $00, $00, $00, $00, $00, $00, $18, $18, $00
0431e     1C 18 18 18 
04322     18 18 3C 00 
04326     00 00 00 00 
0432a     00 60 60 00 | 	byte	$1c, $18, $18, $18, $18, $18, $3c, $00, $00, $00, $00, $00, $00, $60, $60, $00
0432e     70 60 60 60 
04332     60 60 60 66 
04336     66 3C 00 00 
0433a     00 07 06 06 | 	byte	$70, $60, $60, $60, $60, $60, $60, $66, $66, $3c, $00, $00, $00, $07, $06, $06
0433e     66 36 1E 1E 
04342     36 66 67 00 
04346     00 00 00 00 
0434a     00 1C 18 18 | 	byte	$66, $36, $1e, $1e, $36, $66, $67, $00, $00, $00, $00, $00, $00, $1c, $18, $18
0434e     18 18 18 18 
04352     18 18       | 	byte	$18[6]
04354     3C 00 00 00 
04358     00 00 00 00 
0435c     00 00 37 7F 
04360     6B 6B 6B 6B | 	byte	$3c, $00, $00, $00, $00, $00, $00, $00, $00, $00, $37, $7f, $6b, $6b, $6b, $6b
04364     63 00 00 00 
04368     00 00 00 00 
0436c     00 00 3B 66 
04370     66 66 66 66 | 	byte	$63, $00, $00, $00, $00, $00, $00, $00, $00, $00, $3b, $66, $66, $66, $66, $66
04374     66 00 00 00 
04378     00 00 00 00 
0437c     00 00 3E 63 
04380     63 63 63 63 | 	byte	$66, $00, $00, $00, $00, $00, $00, $00, $00, $00, $3e, $63, $63, $63, $63, $63
04384     3E 00 00 00 
04388     00 00 00 00 
0438c     00 00 3B 66 
04390     66 66 66 66 | 	byte	$3e, $00, $00, $00, $00, $00, $00, $00, $00, $00, $3b, $66, $66, $66, $66, $66
04394     3E 06 06 0F 
04398     00 00 00 00 
0439c     00 00 6E 33 
043a0     33 33 33 33 | 	byte	$3e, $06, $06, $0f, $00, $00, $00, $00, $00, $00, $6e, $33, $33, $33, $33, $33
043a4     3E 30 30 78 
043a8     00 00 00 00 
043ac     00 00 3B 6E 
043b0     66 06 06 06 | 	byte	$3e, $30, $30, $78, $00, $00, $00, $00, $00, $00, $3b, $6e, $66, $06, $06, $06
043b4     0F 00 00 00 
043b8     00 00 00 00 
043bc     00 00 3E 63 
043c0     06 1C 30 63 | 	byte	$0f, $00, $00, $00, $00, $00, $00, $00, $00, $00, $3e, $63, $06, $1c, $30, $63
043c4     3E 00 00 00 
043c8     00 00 00 08 
043cc     0C 0C 3F 0C 
043d0     0C 0C 0C 6C | 	byte	$3e, $00, $00, $00, $00, $00, $00, $08, $0c, $0c, $3f, $0c, $0c, $0c, $0c, $6c
043d4     38 00 00 00 
043d8     00 00 00 00 
043dc     00 00 33 33 
043e0     33 33 33 33 | 	byte	$38, $00, $00, $00, $00, $00, $00, $00, $00, $00, $33, $33, $33, $33, $33, $33
043e4     6E 00 00 00 
043e8     00 00 00 00 
043ec     00 00 63 63 
043f0     63 63 63 36 | 	byte	$6e, $00, $00, $00, $00, $00, $00, $00, $00, $00, $63, $63, $63, $63, $63, $36
043f4     1C 00 00 00 
043f8     00 00 00 00 
043fc     00 00 63 63 
04400     6B 6B 6B 7F | 	byte	$1c, $00, $00, $00, $00, $00, $00, $00, $00, $00, $63, $63, $6b, $6b, $6b, $7f
04404     36 00 00 00 
04408     00 00 00 00 
0440c     00 00 63 36 
04410     1C 1C 1C 36 | 	byte	$36, $00, $00, $00, $00, $00, $00, $00, $00, $00, $63, $36, $1c, $1c, $1c, $36
04414     63 00 00 00 
04418     00 00 00 00 
0441c     00 00 63 63 
04420     63 63 63 63 | 	byte	$63, $00, $00, $00, $00, $00, $00, $00, $00, $00, $63, $63, $63, $63, $63, $63
04424     7E 60 30 1F 
04428     00 00 00 00 
0442c     00 00 7F 33 
04430     18 0C 06 63 | 	byte	$7e, $60, $30, $1f, $00, $00, $00, $00, $00, $00, $7f, $33, $18, $0c, $06, $63
04434     7F 00 00 00 
04438     00 00 00 70 
0443c     18 18 18 0E 
04440     18 18 18 18 | 	byte	$7f, $00, $00, $00, $00, $00, $00, $70, $18, $18, $18, $0e, $18, $18, $18, $18
04444     70 00 00 00 
04448     00 00 00 18 
0444c     18 18 18 18 
04450     18 18 18 18 | 	byte	$70, $00, $00, $00, $00, $00, $00, $18, $18, $18, $18, $18, $18, $18, $18, $18
04454     18 00 00 00 
04458     00 00 00 0E 
0445c     18 18 18 70 
04460     18 18 18 18 | 	byte	$18, $00, $00, $00, $00, $00, $00, $0e, $18, $18, $18, $70, $18, $18, $18, $18
04464     0E 00 00 00 
04468     6E 3B 00 00 
0446c     00 00 00 00 
04470     00 00 00 00 | 	byte	$0e, $00, $00, $00, $6e, $3b, $00, $00, $00, $00, $00, $00, $00, $00, $00, $00
04474     00 00 00 00 
04478     00 00 00 00 
0447c     00 00       | 	byte	$00[10]
0447e     08 1C 36 63 
04482     63 63 7F 00 
04486     00 00 00 00 
0448a     00 3C 66 43 | 	byte	$08, $1c, $36, $63, $63, $63, $7f, $00, $00, $00, $00, $00, $00, $3c, $66, $43
0448e     03 03 03 03 
04492     43 66 3C 18 
04496     30 1E 00 00 
0449a     00 00 33 00 | 	byte	$03, $03, $03, $03, $43, $66, $3c, $18, $30, $1e, $00, $00, $00, $00, $33, $00
0449e     33 33 33 33 
044a2     33 33       | 	byte	$33[6]
044a4     6E 00 00 00 
044a8     00 00 60 30 
044ac     18 00 3E 63 
044b0     7F 03 03 63 | 	byte	$6e, $00, $00, $00, $00, $00, $60, $30, $18, $00, $3e, $63, $7f, $03, $03, $63
044b4     3E 00 00 00 
044b8     00 00 08 1C 
044bc     36 00 1E 30 
044c0     3E 33 33 33 | 	byte	$3e, $00, $00, $00, $00, $00, $08, $1c, $36, $00, $1e, $30, $3e, $33, $33, $33
044c4     6E 00 00 00 
044c8     00 00 00 00 
044cc     33 00 1E 30 
044d0     3E 33 33 33 | 	byte	$6e, $00, $00, $00, $00, $00, $00, $00, $33, $00, $1e, $30, $3e, $33, $33, $33
044d4     6E 00 00 00 
044d8     00 00 1C 36 
044dc     1C 00 33 33 
044e0     33 33 33 33 | 	byte	$6e, $00, $00, $00, $00, $00, $1c, $36, $1c, $00, $33, $33, $33, $33, $33, $33
044e4     6E 00 00 00 
044e8     00 00 60 30 
044ec     18 00 3E 63 
044f0     03 03 03 63 | 	byte	$6e, $00, $00, $00, $00, $00, $60, $30, $18, $00, $3e, $63, $03, $03, $03, $63
044f4     3E 00 00 00 
044f8     00 00 00 00 
044fc     00 00 3E 63 
04500     03 03 03 63 | 	byte	$3e, $00, $00, $00, $00, $00, $00, $00, $00, $00, $3e, $63, $03, $03, $03, $63
04504     3E 18 30 1E 
04508     00 00 00 1C 
0450c     58 78 38 18 
04510     1C 1E 1A 18 | 	byte	$3e, $18, $30, $1e, $00, $00, $00, $1c, $58, $78, $38, $18, $1c, $1e, $1a, $18
04514     3C 00 00 00 
04518     00 00 00 00 
0451c     63 00 3E 63 
04520     7F 03 03 63 | 	byte	$3c, $00, $00, $00, $00, $00, $00, $00, $63, $00, $3e, $63, $7f, $03, $03, $63
04524     3E 00 00 00 
04528     66 33 00 3E 
0452c     63 63 63 63 
04530     63 63 63 63 | 	byte	$3e, $00, $00, $00, $66, $33, $00, $3e, $63, $63, $63, $63, $63, $63, $63, $63
04534     3E 00 00 00 
04538     00 00 CC 66 
0453c     33 00 3E 63 
04540     63 63 63 63 | 	byte	$3e, $00, $00, $00, $00, $00, $cc, $66, $33, $00, $3e, $63, $63, $63, $63, $63
04544     3E 00 00 00 
04548     00 00 18 3C 
0454c     66 00 1C 18 
04550     18 18 18 18 | 	byte	$3e, $00, $00, $00, $00, $00, $18, $3c, $66, $00, $1c, $18, $18, $18, $18, $18
04554     3C 00 00 00 
04558     30 18 00 7F 
0455c     63 61 30 18 
04560     0C 06 43 63 | 	byte	$3c, $00, $00, $00, $30, $18, $00, $7f, $63, $61, $30, $18, $0c, $06, $43, $63
04564     7F 00 00 00 
04568     00 63 00 08 
0456c     1C 36 63 63 
04570     7F 63 63 63 | 	byte	$7f, $00, $00, $00, $00, $63, $00, $08, $1c, $36, $63, $63, $7f, $63, $63, $63
04574     63 00 00 00 
04578     30 18 00 3C 
0457c     66 43 03 03 
04580     03 03 43 66 | 	byte	$63, $00, $00, $00, $30, $18, $00, $3c, $66, $43, $03, $03, $03, $03, $43, $66
04584     3C 00 00 00 
04588     30 18 00 7F 
0458c     66 46 16 1E 
04590     16 06 46 66 | 	byte	$3c, $00, $00, $00, $30, $18, $00, $7f, $66, $46, $16, $1e, $16, $06, $46, $66
04594     7F 00 00 00 
04598     0C 06 00 0F 
0459c     06 06 06 06 
045a0     06 06 46 66 | 	byte	$7f, $00, $00, $00, $0c, $06, $00, $0f, $06, $06, $06, $06, $06, $06, $46, $66
045a4     7F 00 00 00 
045a8     30 18 00 1C 
045ac     18 18 18 18 
045b0     18 18 18 18 | 	byte	$7f, $00, $00, $00, $30, $18, $00, $1c, $18, $18, $18, $18, $18, $18, $18, $18
045b4     3C 00 00 00 
045b8     00 00 08 1C 
045bc     36 00 3E 63 
045c0     63 63 63 63 | 	byte	$3c, $00, $00, $00, $00, $00, $08, $1c, $36, $00, $3e, $63, $63, $63, $63, $63
045c4     3E 00 00 00 
045c8     00 00 00 00 
045cc     63 00 3E 63 
045d0     63 63 63 63 | 	byte	$3e, $00, $00, $00, $00, $00, $00, $00, $63, $00, $3e, $63, $63, $63, $63, $63
045d4     3E 00 00 00 
045d8     00 00 00 6F 
045dc     46 26 06 06 
045e0     06 06 46 66 | 	byte	$3e, $00, $00, $00, $00, $00, $00, $6f, $46, $26, $06, $06, $06, $06, $46, $66
045e4     7F 00 00 00 
045e8     00 00 00 6E 
045ec     4C 2C 0C 0C 
045f0     0C 0C 0C 0C | 	byte	$7f, $00, $00, $00, $00, $00, $00, $6e, $4c, $2c, $0c, $0c, $0c, $0c, $0c, $0c
045f4     1E 00 00 00 
045f8     30 18 00 3E 
045fc     63 63 06 1C 
04600     30 60 63 63 | 	byte	$1e, $00, $00, $00, $30, $18, $00, $3e, $63, $63, $06, $1c, $30, $60, $63, $63
04604     3E 00 00 00 
04608     00 00 60 30 
0460c     18 00 3E 63 
04610     06 1C 30 63 | 	byte	$3e, $00, $00, $00, $00, $00, $60, $30, $18, $00, $3e, $63, $06, $1c, $30, $63
04614     3E 00 00 00 
04618     00 63 00 3E 
0461c     63 63 63 63 
04620     63 63 63 63 | 	byte	$3e, $00, $00, $00, $00, $63, $00, $3e, $63, $63, $63, $63, $63, $63, $63, $63
04624     3E 00 00 00 
04628     00 63 00 63 
0462c     63 63 63 63 
04630     63 63 63 63 | 	byte	$3e, $00, $00, $00, $00, $63, $00, $63, $63, $63, $63, $63, $63, $63, $63, $63
04634     3E 00 00 00 
04638     6C 38 00 7E 
0463c     7E 5A 18 18 
04640     18 18 18 18 | 	byte	$3e, $00, $00, $00, $6c, $38, $00, $7e, $7e, $5a, $18, $18, $18, $18, $18, $18
04644     3C 00 00 00 
04648     00 00 60 48 
0464c     2C 0C 3F 0C 
04650     0C 0C 0C 6C | 	byte	$3c, $00, $00, $00, $00, $00, $60, $48, $2c, $0c, $3f, $0c, $0c, $0c, $0c, $6c
04654     38 00 00 00 
04658     00 00 00 0F 
0465c     26 36 1E 0E 
04660     07 07 46 66 | 	byte	$38, $00, $00, $00, $00, $00, $00, $0f, $26, $36, $1e, $0e, $07, $07, $46, $66
04664     7F 00 00 00 
04668     00 00 00 00 
0466c     00 63 36 1C 
04670     1C 36 63 00 | 	byte	$7f, $00, $00, $00, $00, $00, $00, $00, $00, $63, $36, $1c, $1c, $36, $63, $00
04674     00 00 00 00 
04678     00 00       | 	byte	$00[6]
0467a     36 1C 08 00 
0467e     3E 63 03 03 
04682     03 63 3E 00 
04686     00 00 00 00 | 	byte	$36, $1c, $08, $00, $3e, $63, $03, $03, $03, $63, $3e, $00, $00, $00, $00, $00
0468a     30 18 0C 00 
0468e     1E 30 3E 33 
04692     33 33 6E 00 
04696     00 00 00 00 | 	byte	$30, $18, $0c, $00, $1e, $30, $3e, $33, $33, $33, $6e, $00, $00, $00, $00, $00
0469a     60 30 18 00 
0469e     1C 18 18 18 
046a2     18 18 3C 00 
046a6     00 00 00 00 | 	byte	$60, $30, $18, $00, $1c, $18, $18, $18, $18, $18, $3c, $00, $00, $00, $00, $00
046aa     60 30 18 00 
046ae     3E 63 63 63 
046b2     63 63 3E 00 
046b6     00 00 00 00 | 	byte	$60, $30, $18, $00, $3e, $63, $63, $63, $63, $63, $3e, $00, $00, $00, $00, $00
046ba     30 18 0C 00 
046be     33 33 33 33 
046c2     33 33 6E 00 
046c6     00 00 00 00 | 	byte	$30, $18, $0c, $00, $33, $33, $33, $33, $33, $33, $6e, $00, $00, $00, $00, $00
046ca     00 08 1C 36 
046ce     63 63 7F 63 
046d2     63 63 63 18 
046d6     0C 78 00 00 | 	byte	$00, $08, $1c, $36, $63, $63, $7f, $63, $63, $63, $63, $18, $0c, $78, $00, $00
046da     00 00 00 00 
046de     1E 30 3E 33 
046e2     33 33 6E 18 
046e6     0C 78 36 1C | 	byte	$00, $00, $00, $00, $1e, $30, $3e, $33, $33, $33, $6e, $18, $0c, $78, $36, $1c
046ea     00 7F 63 61 
046ee     30 18 0C 06 
046f2     43 63 7F 00 
046f6     00 00 00 00 | 	byte	$00, $7f, $63, $61, $30, $18, $0c, $06, $43, $63, $7f, $00, $00, $00, $00, $00
046fa     36 1C 08 00 
046fe     7F 33 18 0C 
04702     06 63 7F 00 
04706     00 00 00 00 | 	byte	$36, $1c, $08, $00, $7f, $33, $18, $0c, $06, $63, $7f, $00, $00, $00, $00, $00
0470a     00 7F 66 46 
0470e     16 1E 16 06 
04712     46 66 7F 18 
04716     0C 78 00 00 | 	byte	$00, $7f, $66, $46, $16, $1e, $16, $06, $46, $66, $7f, $18, $0c, $78, $00, $00
0471a     00 00 00 00 
0471e     3E 63 7F 03 
04722     03 63 3E 18 
04726     0C 78 00 00 | 	byte	$00, $00, $00, $00, $3e, $63, $7f, $03, $03, $63, $3e, $18, $0c, $78, $00, $00
0472a     00 3C 66 03 
0472e     1F 03 0F 03 
04732     03 66 3C 00 
04736     00 00 00 00 | 	byte	$00, $3c, $66, $03, $1f, $03, $0f, $03, $03, $66, $3c, $00, $00, $00, $00, $00
0473a     60 30 18 00 
0473e     7F 33 18 0C 
04742     06 63 7F 00 
04746     00 00 6C 38 | 	byte	$60, $30, $18, $00, $7f, $33, $18, $0c, $06, $63, $7f, $00, $00, $00, $6c, $38
0474a     00 3C 66 43 
0474e     03 03 03 03 
04752     43 66 3C 00 
04756     00 00 00 00 | 	byte	$00, $3c, $66, $43, $03, $03, $03, $03, $43, $66, $3c, $00, $00, $00, $00, $00
0475a     00 00 00 00 
0475e     3E 63 06 1C 
04762     30 63 3E 18 
04766     30 1E 00 00 | 	byte	$00, $00, $00, $00, $3e, $63, $06, $1c, $30, $63, $3e, $18, $30, $1e, $00, $00
0476a     00 00 00 00 
0476e     00 00       | 	byte	$00[6]
04770     6C 36 1B 36 
04774     6C 00 00 00 
04778     00 00 00 00 
0477c     00 00 00 00 | 	byte	$6c, $36, $1b, $36, $6c, $00, $00, $00, $00, $00, $00, $00, $00, $00, $00, $00
04780     1B 36 6C 36 
04784     1B 00 00 00 
04788     88 22 88 22 
0478c     88 22 88 22 | 	byte	$1b, $36, $6c, $36, $1b, $00, $00, $00, $88, $22, $88, $22, $88, $22, $88, $22
04790     88 22 88 22 
04794     88 22 88 22 
04798     AA 55 AA 55 
0479c     AA 55 AA 55 | 	byte	$88, $22, $88, $22, $88, $22, $88, $22, $aa, $55, $aa, $55, $aa, $55, $aa, $55
047a0     AA 55 AA 55 
047a4     AA 55 AA 55 
047a8     BB EE BB EE 
047ac     BB EE BB EE | 	byte	$aa, $55, $aa, $55, $aa, $55, $aa, $55, $bb, $ee, $bb, $ee, $bb, $ee, $bb, $ee
047b0     BB EE BB EE 
047b4     BB EE BB EE 
047b8     18 18 18 18 
047bc     18 18 18 18 | 	byte	$bb, $ee, $bb, $ee, $bb, $ee, $bb, $ee, $18, $18, $18, $18, $18, $18, $18, $18
047c0     18 18 18 18 
047c4     18 18 18 18 
047c8     18 18 18 18 
047cc     18 18 18    | 	byte	$18[15]
047cf     1F 18 18 18 
047d3     18 18 18 18 
047d7     18 30 18 00 
047db     08 1C 36 63 | 	byte	$1f, $18, $18, $18, $18, $18, $18, $18, $18, $30, $18, $00, $08, $1c, $36, $63
047df     63 7F 63 63 
047e3     63 63 00 00 
047e7     00 1C 36 00 
047eb     08 1C 36 63 | 	byte	$63, $7f, $63, $63, $63, $63, $00, $00, $00, $1c, $36, $00, $08, $1c, $36, $63
047ef     63 7F 63 63 
047f3     63 63 00 00 
047f7     00 36 1C 00 
047fb     7F 66 46 16 | 	byte	$63, $7f, $63, $63, $63, $63, $00, $00, $00, $36, $1c, $00, $7f, $66, $46, $16
047ff     1E 16 06 46 
04803     66 7F 00 00 
04807     00 00 00 00 
0480b     3E 63 63 06 | 	byte	$1e, $16, $06, $46, $66, $7f, $00, $00, $00, $00, $00, $00, $3e, $63, $63, $06
0480f     1C 30 60 63 
04813     63 3E 18 30 
04817     1E 6C 6C 6C 
0481b     6C 6C 6F 60 | 	byte	$1c, $30, $60, $63, $63, $3e, $18, $30, $1e, $6c, $6c, $6c, $6c, $6c, $6f, $60
0481f     6F 6C 6C 6C 
04823     6C 6C 6C 6C 
04827     6C 6C 6C 6C 
0482b     6C 6C 6C 6C | 	byte	$6f, $6c, $6c, $6c, $6c, $6c, $6c, $6c, $6c, $6c, $6c, $6c, $6c, $6c, $6c, $6c
0482f     6C 6C 6C 6C 
04833     6C 6C 6C 6C 
04837     6C          | 	byte	$6c[9]
04838     00 00 00 00 
0483c     00          | 	byte	$00[5]
0483d     7F 60 6F 6C 
04841     6C 6C 6C 6C 
04845     6C 6C 6C 6C 
04849     6C 6C 6C 6C | 	byte	$7f, $60, $6f, $6c, $6c, $6c, $6c, $6c, $6c, $6c, $6c, $6c, $6c, $6c, $6c, $6c
0484d     6F 60 7F 00 
04851     00 00 00 00 
04855     00 00 00 18 
04859     18 00 7F 63 | 	byte	$6f, $60, $7f, $00, $00, $00, $00, $00, $00, $00, $00, $18, $18, $00, $7f, $63
0485d     61 30 18 0C 
04861     06 43 63 7F 
04865     00 00 00 00 
04869     00 00 18 18 | 	byte	$61, $30, $18, $0c, $06, $43, $63, $7f, $00, $00, $00, $00, $00, $00, $18, $18
0486d     00 7F 33 18 
04871     0C 06 63 7F 
04875     00 00 00 00 
04879     00 00 00 00 | 	byte	$00, $7f, $33, $18, $0c, $06, $63, $7f, $00, $00, $00, $00, $00, $00, $00, $00
0487d     00 00 1F 18 
04881     18 18 18 18 
04885     18 18 18 18 
04889     18 18 18 18 | 	byte	$00, $00, $1f, $18, $18, $18, $18, $18, $18, $18, $18, $18, $18, $18, $18, $18
0488d     18 18 F8 00 
04891     00 00 00 00 
04895     00 00 00 18 
04899     18 18 18 18 | 	byte	$18, $18, $f8, $00, $00, $00, $00, $00, $00, $00, $00, $18, $18, $18, $18, $18
0489d     18 18 FF 00 
048a1     00 00 00 00 
048a5     00 00 00 00 
048a9     00 00 00 00 | 	byte	$18, $18, $ff, $00, $00, $00, $00, $00, $00, $00, $00, $00, $00, $00, $00, $00
048ad     00 00 FF 18 
048b1     18 18 18 18 
048b5     18 18 18 18 
048b9     18 18 18 18 | 	byte	$00, $00, $ff, $18, $18, $18, $18, $18, $18, $18, $18, $18, $18, $18, $18, $18
048bd     18 18 F8 18 
048c1     18 18 18 18 
048c5     18 18 18 00 
048c9     00 00 00 00 | 	byte	$18, $18, $f8, $18, $18, $18, $18, $18, $18, $18, $18, $00, $00, $00, $00, $00
048cd     00 00 FF 00 
048d1     00 00 00 00 
048d5     00 00 00 18 
048d9     18 18 18 18 | 	byte	$00, $00, $ff, $00, $00, $00, $00, $00, $00, $00, $00, $18, $18, $18, $18, $18
048dd     18 18 FF 18 
048e1     18 18 18 18 
048e5     18 18 18 63 
048e9     3E 00 08 1C | 	byte	$18, $18, $ff, $18, $18, $18, $18, $18, $18, $18, $18, $63, $3e, $00, $08, $1c
048ed     36 63 63 7F 
048f1     63 63 63 63 
048f5     00 00 00 00 
048f9     00 00 63 3E | 	byte	$36, $63, $63, $7f, $63, $63, $63, $63, $00, $00, $00, $00, $00, $00, $63, $3e
048fd     00 1E 30 3E 
04901     33 33 33 6E 
04905     00 00 00 6C 
04909     6C 6C 6C 6C | 	byte	$00, $1e, $30, $3e, $33, $33, $33, $6e, $00, $00, $00, $6c, $6c, $6c, $6c, $6c
0490d     EC 0C FC 00 
04911     00 00 00 00 
04915     00 00 00 00 
04919     00 00 00 00 | 	byte	$ec, $0c, $fc, $00, $00, $00, $00, $00, $00, $00, $00, $00, $00, $00, $00, $00
0491d     FC 0C EC 6C 
04921     6C 6C 6C 6C 
04925     6C 6C 6C 6C 
04929     6C 6C 6C 6C | 	byte	$fc, $0c, $ec, $6c, $6c, $6c, $6c, $6c, $6c, $6c, $6c, $6c, $6c, $6c, $6c, $6c
0492d     EF 00 FF 00 
04931     00 00 00 00 
04935     00 00 00 00 
04939     00 00 00 00 | 	byte	$ef, $00, $ff, $00, $00, $00, $00, $00, $00, $00, $00, $00, $00, $00, $00, $00
0493d     FF 00 EF 6C 
04941     6C 6C 6C 6C 
04945     6C 6C 6C 6C 
04949     6C 6C 6C 6C | 	byte	$ff, $00, $ef, $6c, $6c, $6c, $6c, $6c, $6c, $6c, $6c, $6c, $6c, $6c, $6c, $6c
0494d     EC 0C EC 6C 
04951     6C 6C 6C 6C 
04955     6C 6C 6C 00 
04959     00 00 00 00 | 	byte	$ec, $0c, $ec, $6c, $6c, $6c, $6c, $6c, $6c, $6c, $6c, $00, $00, $00, $00, $00
0495d     FF 00 FF 00 
04961     00 00 00 00 
04965     00 00 00 6C 
04969     6C 6C 6C 6C | 	byte	$ff, $00, $ff, $00, $00, $00, $00, $00, $00, $00, $00, $6c, $6c, $6c, $6c, $6c
0496d     EF 00 EF 6C 
04971     6C 6C 6C 6C 
04975     6C 6C 6C 00 
04979     00 00 00 00 | 	byte	$ef, $00, $ef, $6c, $6c, $6c, $6c, $6c, $6c, $6c, $6c, $00, $00, $00, $00, $00
0497d     63 3E 63 63 
04981     63 63 3E 63 
04985     00 00 00 00 
04989     00 00 30 7E | 	byte	$63, $3e, $63, $63, $63, $63, $3e, $63, $00, $00, $00, $00, $00, $00, $30, $7e
0498d     30 3C 36 33 
04991     33 33 33 6E 
04995     00 00 00 00 
04999     00 00 1F 36 | 	byte	$30, $3c, $36, $33, $33, $33, $33, $6e, $00, $00, $00, $00, $00, $00, $1f, $36
0499d     66 66 6F 66 
049a1     66 66 36 1F 
049a5     00 00 00 36 
049a9     1C 00 1F 36 | 	byte	$66, $66, $6f, $66, $66, $66, $36, $1f, $00, $00, $00, $36, $1c, $00, $1f, $36
049ad     66 66 66 66 
049b1     66 66       | 	byte	$66[6]
049b3     36 1F 00 00 
049b7     00 00 63 00 
049bb     7F 66 46 16 
049bf     1E 16 06 46 | 	byte	$36, $1f, $00, $00, $00, $00, $63, $00, $7f, $66, $46, $16, $1e, $16, $06, $46
049c3     66 7F 00 00 
049c7     00 6C 38 00 
049cb     38 30 30 3C 
049cf     36 33 33 33 | 	byte	$66, $7f, $00, $00, $00, $6c, $38, $00, $38, $30, $30, $3c, $36, $33, $33, $33
049d3     33 6E 00 00 
049d7     00 36 1C 00 
049db     63 67 6F 7F 
049df     7B 73 63 63 | 	byte	$33, $6e, $00, $00, $00, $36, $1c, $00, $63, $67, $6f, $7f, $7b, $73, $63, $63
049e3     63 63 00 00 
049e7     00 30 18 00 
049eb     3C 18 18 18 
049ef     18 18 18 18 | 	byte	$63, $63, $00, $00, $00, $30, $18, $00, $3c, $18, $18, $18, $18, $18, $18, $18
049f3     18 3C 00 00 
049f7     00 3C 66 00 
049fb     3C 18 18 18 
049ff     18 18 18 18 | 	byte	$18, $3c, $00, $00, $00, $3c, $66, $00, $3c, $18, $18, $18, $18, $18, $18, $18
04a03     18 3C 00 00 
04a07     00 00 00 36 
04a0b     1C 08 00 3E 
04a0f     63 7F 03 03 | 	byte	$18, $3c, $00, $00, $00, $00, $00, $36, $1c, $08, $00, $3e, $63, $7f, $03, $03
04a13     63 3E 00 00 
04a17     00 18 18 18 
04a1b     18 18 18 18 
04a1f     1F 00 00 00 | 	byte	$63, $3e, $00, $00, $00, $18, $18, $18, $18, $18, $18, $18, $1f, $00, $00, $00
04a23     00 00 00 00 
04a27     00 00 00 00 
04a2b     00 00 00 00 | 	byte	$00[12]
04a2f     F8 18 18 18 
04a33     18 18 18 18 
04a37     18 FF FF FF 
04a3b     FF FF FF FF | 	byte	$f8, $18, $18, $18, $18, $18, $18, $18, $18, $ff, $ff, $ff, $ff, $ff, $ff, $ff
04a3f     FF FF FF FF 
04a43     FF FF FF FF 
04a47     FF          | 	byte	$ff[9]
04a48     00 00 00 00 
04a4c     00 00 00    | 	byte	$00[7]
04a4f     FF FF FF FF 
04a53     FF FF FF FF 
04a57     FF          | 	byte	$ff[9]
04a58     00 00 00 7E 
04a5c     7E 5A 18 18 
04a60     18 18 18 18 
04a64     3C 18 30 1E | 	byte	$00, $00, $00, $7e, $7e, $5a, $18, $18, $18, $18, $18, $18, $3c, $18, $30, $1e
04a68     1C 36 1C 63 
04a6c     63 63 63 63 
04a70     63 63 63 63 
04a74     3E 00 00 00 | 	byte	$1c, $36, $1c, $63, $63, $63, $63, $63, $63, $63, $63, $63, $3e, $00, $00, $00
04a78     FF FF FF FF 
04a7c     FF FF FF    | 	byte	$ff[7]
04a7f     00 00 00 00 
04a83     00 00 00 00 
04a87     00          | 	byte	$00[9]
04a88     30 18 00 3E 
04a8c     63 63 63 63 
04a90     63 63 63 63 
04a94     3E 00 00 00 | 	byte	$30, $18, $00, $3e, $63, $63, $63, $63, $63, $63, $63, $63, $3e, $00, $00, $00
04a98     00 00 00 1E 
04a9c     33 33 33 1B 
04aa0     33 63 63 63 
04aa4     33 00 00 00 | 	byte	$00, $00, $00, $1e, $33, $33, $33, $1b, $33, $63, $63, $63, $33, $00, $00, $00
04aa8     1C 36 00 3E 
04aac     63 63 63 63 
04ab0     63 63 63 63 
04ab4     3E 00 00 00 | 	byte	$1c, $36, $00, $3e, $63, $63, $63, $63, $63, $63, $63, $63, $3e, $00, $00, $00
04ab8     30 18 00 63 
04abc     67 6F 7F 7B 
04ac0     73 63 63 63 
04ac4     63 00 00 00 | 	byte	$30, $18, $00, $63, $67, $6f, $7f, $7b, $73, $63, $63, $63, $63, $00, $00, $00
04ac8     00 00 60 30 
04acc     18 00 3B 66 
04ad0     66 66 66 66 
04ad4     66 00 00 00 | 	byte	$00, $00, $60, $30, $18, $00, $3b, $66, $66, $66, $66, $66, $66, $00, $00, $00
04ad8     00 00 36 1C 
04adc     08 00 3B 66 
04ae0     66 66 66 66 
04ae4     66 00 00 00 | 	byte	$00, $00, $36, $1c, $08, $00, $3b, $66, $66, $66, $66, $66, $66, $00, $00, $00
04ae8     36 1C 00 3E 
04aec     63 63 06 1C 
04af0     30 60 63 63 
04af4     3E 00 00 00 | 	byte	$36, $1c, $00, $3e, $63, $63, $06, $1c, $30, $60, $63, $63, $3e, $00, $00, $00
04af8     00 00 36 1C 
04afc     08 00 3E 63 
04b00     06 1C 30 63 
04b04     3E 00 00 00 | 	byte	$00, $00, $36, $1c, $08, $00, $3e, $63, $06, $1c, $30, $63, $3e, $00, $00, $00
04b08     30 18 00 3F 
04b0c     66 66 66 3E 
04b10     36 66 66 66 
04b14     6F 00 00 00 | 	byte	$30, $18, $00, $3f, $66, $66, $66, $3e, $36, $66, $66, $66, $6f, $00, $00, $00
04b18     30 18 00 63 
04b1c     63 63 63 63 
04b20     63 63 63 63 
04b24     3E 00 00 00 | 	byte	$30, $18, $00, $63, $63, $63, $63, $63, $63, $63, $63, $63, $3e, $00, $00, $00
04b28     00 00 60 30 
04b2c     18 00 3B 6E 
04b30     66 06 06 06 
04b34     0F 00 00 00 | 	byte	$00, $00, $60, $30, $18, $00, $3b, $6e, $66, $06, $06, $06, $0f, $00, $00, $00
04b38     66 33 00 63 
04b3c     63 63 63 63 
04b40     63 63 63 63 
04b44     3E 00 00 00 | 	byte	$66, $33, $00, $63, $63, $63, $63, $63, $63, $63, $63, $63, $3e, $00, $00, $00
04b48     00 00 60 30 
04b4c     18 00 63 63 
04b50     63 63 63 63 
04b54     7E 60 30 1F | 	byte	$00, $00, $60, $30, $18, $00, $63, $63, $63, $63, $63, $63, $7e, $60, $30, $1f
04b58     30 18 00 66 
04b5c     66 66 66 3C 
04b60     18 18 18 18 
04b64     3C 00 00 00 | 	byte	$30, $18, $00, $66, $66, $66, $66, $3c, $18, $18, $18, $18, $3c, $00, $00, $00
04b68     00 00 00 08 
04b6c     0C 0C 3F 0C 
04b70     0C 0C 0C 6C 
04b74     38 18 30 1E | 	byte	$00, $00, $00, $08, $0c, $0c, $3f, $0c, $0c, $0c, $0c, $6c, $38, $18, $30, $1e
04b78     30 18 00 00 
04b7c     00 00 00 00 
04b80     00 00 00 00 
04b84     00 00 00 00 | 	byte	$30, $18, $00, $00, $00, $00, $00, $00, $00, $00, $00, $00, $00, $00, $00, $00
04b88     00 00 00 00 
04b8c     00 00 00 00 | 	byte	$00[8]
04b90     7F 00 00 00 
04b94     00 00 00 00 
04b98     66 33 00 00 
04b9c     00 00 00 00 | 	byte	$7f, $00, $00, $00, $00, $00, $00, $00, $66, $33, $00, $00, $00, $00, $00, $00
04ba0     00 00 00 00 
04ba4     00 00 00 00 
04ba8     00 00 00 00 
04bac     00 00 00 00 
04bb0     00 00 00 00 
04bb4     00          | 	byte	$00[21]
04bb5     0C 06 3C 36 
04bb9     1C 00 00 00 
04bbd     00 00 00 00 
04bc1     00 00 00 00 | 	byte	$0c, $06, $3c, $36, $1c, $00, $00, $00, $00, $00, $00, $00, $00, $00, $00, $00
04bc5     00 00 00 63 
04bc9     3E 00 00 00 
04bcd     00 00 00 00 
04bd1     00 00 00 00 | 	byte	$00, $00, $00, $63, $3e, $00, $00, $00, $00, $00, $00, $00, $00, $00, $00, $00
04bd5     00 00 00 00 
04bd9     3E 63 06 1C 
04bdd     36 63 63 36 
04be1     1C 30 63 3E | 	byte	$00, $00, $00, $00, $3e, $63, $06, $1c, $36, $63, $63, $36, $1c, $30, $63, $3e
04be5     00 00 00 00 
04be9     00 00 00 00 | 	byte	$00[8]
04bed     18 00 7E 00 
04bf1     18 00 00 00 
04bf5     00 00 00 00 
04bf9     00 00 00 00 | 	byte	$18, $00, $7e, $00, $18, $00, $00, $00, $00, $00, $00, $00, $00, $00, $00, $00
04bfd     00 00 00 00 
04c01     00 00 00 00 | 	byte	$00[8]
04c05     18 30 1E 00 
04c09     00 00 1C 36 
04c0d     36 1C 00 00 
04c11     00 00 00 00 | 	byte	$18, $30, $1e, $00, $00, $00, $1c, $36, $36, $1c, $00, $00, $00, $00, $00, $00
04c15     00 00 00 00 
04c19     63 00 00 00 
04c1d     00 00 00 00 
04c21     00 00 00 00 | 	byte	$00, $00, $00, $00, $63, $00, $00, $00, $00, $00, $00, $00, $00, $00, $00, $00
04c25     00 00 00 18 
04c29     18 00 00 00 
04c2d     00 00 00 00 
04c31     00 00 00 00 | 	byte	$00, $00, $00, $18, $18, $00, $00, $00, $00, $00, $00, $00, $00, $00, $00, $00
04c35     00 00 00 00 
04c39     00          | 	byte	$00[5]
04c3a     CC 66 33 00 
04c3e     33 33 33 33 
04c42     33 33 6E 00 
04c46     00 00 36 1C | 	byte	$cc, $66, $33, $00, $33, $33, $33, $33, $33, $33, $6e, $00, $00, $00, $36, $1c
04c4a     00 3F 66 66 
04c4e     66 3E 36 66 
04c52     66 66 6F 00 
04c56     00 00 00 00 | 	byte	$00, $3f, $66, $66, $66, $3e, $36, $66, $66, $66, $6f, $00, $00, $00, $00, $00
04c5a     36 1C 08 00 
04c5e     3B 6E 66 06 
04c62     06 06 0F 00 
04c66     00 00 00 00 | 	byte	$36, $1c, $08, $00, $3b, $6e, $66, $06, $06, $06, $0f, $00, $00, $00, $00, $00
04c6a     00 00 00 7E 
04c6e     7E 7E 7E 7E 
04c72     7E 7E 00 00 
04c76     00 00 00 00 | 	byte	$00, $00, $00, $7e, $7e, $7e, $7e, $7e, $7e, $7e, $00, $00, $00, $00, $00, $00
04c7a     00 00 00 00 
04c7e     00 00 00 00 
04c82     00 00 00 00 
04c86     00 00       | 	byte	$00, $00, $00, $00, $00, $00, $00, $00, $00, $00, $00, $00, $00, $00
04c88     00 00 00 00 
      ...             
04cb8     00 00 00 00 
04cbc     00 00 00    | st_font                 file "st4font.def"
04cbf     FF FF 00 00 
04cc3     00 00 00 00 
04cc7     00 18 18 18 
04ccb     18 18 18 18 | 	byte	$ff, $ff, $00, $00, $00, $00, $00, $00, $00, $18, $18, $18, $18, $18, $18, $18
04ccf     18 18 18 18 
04cd3     18 18 18 18 
04cd7     18          | 	byte	$18[9]
04cd8     00 00 00 00 
04cdc     00 00 00    | 	byte	$00[7]
04cdf     FF FF 18 18 
04ce3     18 18 18 18 
04ce7     18 18 18 18 
04ceb     18 18 18 18 | 	byte	$ff, $ff, $18, $18, $18, $18, $18, $18, $18, $18, $18, $18, $18, $18, $18, $18
04cef     FF FF 00 00 
04cf3     00 00 00 00 
04cf7     00 18 18 18 
04cfb     18 18 18 18 | 	byte	$ff, $ff, $00, $00, $00, $00, $00, $00, $00, $18, $18, $18, $18, $18, $18, $18
04cff     1F 1F 18 18 
04d03     18 18 18 18 
04d07     18 18 18 18 
04d0b     18 18 18 18 | 	byte	$1f, $1f, $18, $18, $18, $18, $18, $18, $18, $18, $18, $18, $18, $18, $18, $18
04d0f     F8 F8 18 18 
04d13     18 18 18 18 
04d17     18 00 00 00 
04d1b     00 00 00 00 | 	byte	$f8, $f8, $18, $18, $18, $18, $18, $18, $18, $00, $00, $00, $00, $00, $00, $00
04d1f     1F 1F 18 18 
04d23     18 18 18 18 
04d27     18 00 00 00 
04d2b     00 00 00 00 | 	byte	$1f, $1f, $18, $18, $18, $18, $18, $18, $18, $00, $00, $00, $00, $00, $00, $00
04d2f     F8 F8 18 18 
04d33     18 18 18 18 
04d37     18 18 18 18 
04d3b     18 18 18 18 | 	byte	$f8, $f8, $18, $18, $18, $18, $18, $18, $18, $18, $18, $18, $18, $18, $18, $18
04d3f     1F 1F 00 00 
04d43     00 00 00 00 
04d47     00 18 18 18 
04d4b     18 18 18 18 | 	byte	$1f, $1f, $00, $00, $00, $00, $00, $00, $00, $18, $18, $18, $18, $18, $18, $18
04d4f     F8 F8 00 00 
04d53     00 00 00 00 
04d57     00 18 18 18 
04d5b     18 18 18 18 | 	byte	$f8, $f8, $00, $00, $00, $00, $00, $00, $00, $18, $18, $18, $18, $18, $18, $18
04d5f     FF FF 18 18 
04d63     18 18 18 18 
04d67     18 00 00 18 
04d6b     3C 7E 66 66 | 	byte	$ff, $ff, $18, $18, $18, $18, $18, $18, $18, $00, $00, $18, $3c, $7e, $66, $66
04d6f     66 7E 7E 66 
04d73     66 66 66 30 
04d77     18 00 00 7E 
04d7b     7E 06 06 3E | 	byte	$66, $7e, $7e, $66, $66, $66, $66, $30, $18, $00, $00, $7e, $7e, $06, $06, $3e
04d7f     3E 06 06 06 
04d83     06 7E 7E 18 
04d87     0C 30 18 3C 
04d8b     7E 66 66 06 | 	byte	$3e, $06, $06, $06, $06, $7e, $7e, $18, $0c, $30, $18, $3c, $7e, $66, $66, $06
04d8f     06 06 06 66 
04d93     66 7E 3C 00 
04d97     00 30 18 66 
04d9b     66 66 6E 6E | 	byte	$06, $06, $06, $66, $66, $7e, $3c, $00, $00, $30, $18, $66, $66, $66, $6e, $6e
04d9f     7E 7E 76 76 
04da3     66 66 66 00 
04da7     00 30 18 7C 
04dab     7E 06 06 0E | 	byte	$7e, $7e, $76, $76, $66, $66, $66, $00, $00, $30, $18, $7c, $7e, $06, $06, $0e
04daf     1C 38 70 60 
04db3     60 7E 3E 00 
04db7     00 30 18 7E 
04dbb     7E 30 30 18 | 	byte	$1c, $38, $70, $60, $60, $7e, $3e, $00, $00, $30, $18, $7e, $7e, $30, $30, $18
04dbf     18 0C 0C 06 
04dc3     06 7E 7E 00 
04dc7     00 18 18 00 
04dcb     7E 7E 30 30 | 	byte	$18, $0c, $0c, $06, $06, $7e, $7e, $00, $00, $18, $18, $00, $7e, $7e, $30, $30
04dcf     18 18 0C 0C 
04dd3     06 7E 7E 00 
04dd7     00 30 18 3C 
04ddb     7E 66 66 66 | 	byte	$18, $18, $0c, $0c, $06, $7e, $7e, $00, $00, $30, $18, $3c, $7e, $66, $66, $66
04ddf     66 66 66 66 
04de3     66          | 	byte	$66[5]
04de4     7E 3C 00 00 
04de8     00 00 06 06 
04dec     06 06 16 1E 
04df0     0E 06 06 06 | 	byte	$7e, $3c, $00, $00, $00, $00, $06, $06, $06, $06, $16, $1e, $0e, $06, $06, $06
04df4     7E 7E 00 00 
04df8     00 00 00 00 
04dfc     00 3C 7C 60 
04e00     7C 7E 66 66 | 	byte	$7e, $7e, $00, $00, $00, $00, $00, $00, $00, $3c, $7c, $60, $7c, $7e, $66, $66
04e04     7E 7C 30 18 
04e08     00 00 00 00 
04e0c     00 3C 7E 66 
04e10     66 7E 06 06 | 	byte	$7e, $7c, $30, $18, $00, $00, $00, $00, $00, $3c, $7e, $66, $66, $7e, $06, $06
04e14     7E 7C 18 0C 
04e18     00 00 30 18 
04e1c     00 3C 3E 06 
04e20     06 06 06 06 | 	byte	$7e, $7c, $18, $0c, $00, $00, $30, $18, $00, $3c, $3e, $06, $06, $06, $06, $06
04e24     7E 7C 00 00 
04e28     00 00 30 18 
04e2c     00 3E 7E 66 
04e30     66 66 66 66 | 	byte	$7e, $7c, $00, $00, $00, $00, $30, $18, $00, $3e, $7e, $66, $66, $66, $66, $66
04e34     66 66 00 00 
04e38     00 00 30 18 
04e3c     00 7C 7E 06 
04e40     0E 3C 70 60 | 	byte	$66, $66, $00, $00, $00, $00, $30, $18, $00, $7c, $7e, $06, $0e, $3c, $70, $60
04e44     7E 3E 00 00 
04e48     00 00 30 18 
04e4c     00 7E 7E 30 
04e50     18 18 0C 0C | 	byte	$7e, $3e, $00, $00, $00, $00, $30, $18, $00, $7e, $7e, $30, $18, $18, $0c, $0c
04e54     7E 7E 00 00 
04e58     00 00 18 18 
04e5c     00 7E 7E 30 
04e60     18 18 0C 0C | 	byte	$7e, $7e, $00, $00, $00, $00, $18, $18, $00, $7e, $7e, $30, $18, $18, $0c, $0c
04e64     7E 7E 00 00 
04e68     00 00 30 18 
04e6c     00 3C 7E 66 
04e70     66 66 66 66 | 	byte	$7e, $7e, $00, $00, $00, $00, $30, $18, $00, $3c, $7e, $66, $66, $66, $66, $66
04e74     7E 3C 00 00 
04e78     00 00 1C 1C 
04e7c     18 18 38 3C 
04e80     1C 18 18 18 | 	byte	$7e, $3c, $00, $00, $00, $00, $1c, $1c, $18, $18, $38, $3c, $1c, $18, $18, $18
04e84     3C 3C 00 00 
04e88     00 00 00 00 
04e8c     00 00 00 00 
04e90     00 00 00 00 | 	byte	$3c, $3c, $00, $00, $00, $00, $00, $00, $00, $00, $00, $00, $00, $00, $00, $00
04e94     00 00 00 00 
04e98     00 00       | 	byte	$00[6]
04e9a     18 18 18 18 
04e9e     18 18 18 18 | 	byte	$18[8]
04ea2     00 00 18 18 
04ea6     00 00 00 00 
04eaa     66 66 66 66 
04eae     00 00 00 00 | 	byte	$00, $00, $18, $18, $00, $00, $00, $00, $66, $66, $66, $66, $00, $00, $00, $00
04eb2     00 00 00 00 
04eb6     00 00 00 00 
04eba     00          | 	byte	$00[9]
04ebb     66 66 FF FF 
04ebf     66 66 FF FF 
04ec3     66 66 00 00 
04ec7     00 00 18 18 | 	byte	$66, $66, $ff, $ff, $66, $66, $ff, $ff, $66, $66, $00, $00, $00, $00, $18, $18
04ecb     7C 7E 06 06 
04ecf     3E 7C 60 60 
04ed3     7E 3E 18 18 
04ed7     00 00 00 66 | 	byte	$7c, $7e, $06, $06, $3e, $7c, $60, $60, $7e, $3e, $18, $18, $00, $00, $00, $66
04edb     66 30 30 18 
04edf     18 0C 0C 66 
04ee3     66 00 00 00 
04ee7     00 00 3C 7E | 	byte	$66, $30, $30, $18, $18, $0c, $0c, $66, $66, $00, $00, $00, $00, $00, $3c, $7e
04eeb     66 66 3C 1C 
04eef     1C FC FE 66 
04ef3     66 FE FC 00 
04ef7     00 00 00 18 | 	byte	$66, $66, $3c, $1c, $1c, $fc, $fe, $66, $66, $fe, $fc, $00, $00, $00, $00, $18
04efb     18 18 18 18 
04eff     00 00 00 00 
04f03     00 00 00 00 
04f07     00 00 00 30 | 	byte	$18, $18, $18, $18, $00, $00, $00, $00, $00, $00, $00, $00, $00, $00, $00, $30
04f0b     18 1C 0C 0C 
04f0f     0C 0C 0C 0C 
04f13     1C 18 30 00 
04f17     00 00 00 0C | 	byte	$18, $1c, $0c, $0c, $0c, $0c, $0c, $0c, $1c, $18, $30, $00, $00, $00, $00, $0c
04f1b     18 38 30 30 
04f1f     30 30 30 30 
04f23     38 18 0C 00 
04f27     00 00 00 00 | 	byte	$18, $38, $30, $30, $30, $30, $30, $30, $38, $18, $0c, $00, $00, $00, $00, $00
04f2b     66 66 3C 3C 
04f2f     FF FF 3C 3C 
04f33     66 66 00 00 
04f37     00 00 00 00 | 	byte	$66, $66, $3c, $3c, $ff, $ff, $3c, $3c, $66, $66, $00, $00, $00, $00, $00, $00
04f3b     00 18 18 18 
04f3f     7E 7E 18 18 
04f43     18 00 00 00 
04f47     00 00 00 00 | 	byte	$00, $18, $18, $18, $7e, $7e, $18, $18, $18, $00, $00, $00, $00, $00, $00, $00
04f4b     00 00 00 00 
04f4f     00 00       | 	byte	$00[6]
04f51     18 18 18 18 
04f55     18          | 	byte	$18[5]
04f56     0C 04 00 00 
04f5a     00 00 00 00 
04f5e     7E 7E 00 00 
04f62     00 00 00 00 | 	byte	$0c, $04, $00, $00, $00, $00, $00, $00, $7e, $7e, $00, $00, $00, $00, $00, $00
04f66     00 00 00 00 
04f6a     00 00 00 00 
04f6e     00 00 00 00 
04f72     00          | 	byte	$00[13]
04f73     18 18 18 00 
04f77     00 00 00 60 
04f7b     60 60 30 30 
04f7f     18 18 0C 0C | 	byte	$18, $18, $18, $00, $00, $00, $00, $60, $60, $60, $30, $30, $18, $18, $0c, $0c
04f83     06 06 06 00 
04f87     00 00 00 3C 
04f8b     7E 66 66 66 
04f8f     76 6E 66 66 | 	byte	$06, $06, $06, $00, $00, $00, $00, $3c, $7e, $66, $66, $66, $76, $6e, $66, $66
04f93     66 7E 3C 00 
04f97     00 00 00 18 
04f9b     18 1C 1C 18 
04f9f     18 18 18 18 | 	byte	$66, $7e, $3c, $00, $00, $00, $00, $18, $18, $1c, $1c, $18, $18, $18, $18, $18
04fa3     18 7E 7E 00 
04fa7     00 00 00 3C 
04fab     7E 66 66 30 
04faf     30 18 18 0C | 	byte	$18, $7e, $7e, $00, $00, $00, $00, $3c, $7e, $66, $66, $30, $30, $18, $18, $0c
04fb3     0C 7E 7E 00 
04fb7     00 00 00 7E 
04fbb     7E 30 30 18 
04fbf     18 30 30 66 | 	byte	$0c, $7e, $7e, $00, $00, $00, $00, $7e, $7e, $30, $30, $18, $18, $30, $30, $66
04fc3     66 7E 3C 00 
04fc7     00 00 00 30 
04fcb     30 38 38 3C 
04fcf     3C 36 36 7E | 	byte	$66, $7e, $3c, $00, $00, $00, $00, $30, $30, $38, $38, $3c, $3c, $36, $36, $7e
04fd3     7E 30 30 00 
04fd7     00 00 00 7E 
04fdb     7E 06 06 3E 
04fdf     7E 60 60 60 | 	byte	$7e, $30, $30, $00, $00, $00, $00, $7e, $7e, $06, $06, $3e, $7e, $60, $60, $60
04fe3     66 7E 3C 00 
04fe7     00 00 00 38 
04feb     3C 0E 06 06 
04fef     3E 7E 66 66 | 	byte	$66, $7e, $3c, $00, $00, $00, $00, $38, $3c, $0e, $06, $06, $3e, $7e, $66, $66
04ff3     66 7E 3C 00 
04ff7     00 00 00 7E 
04ffb     7E 60 60 30 
04fff     30 18 18 0C | 	byte	$66, $7e, $3c, $00, $00, $00, $00, $7e, $7e, $60, $60, $30, $30, $18, $18, $0c
05003     0C 0C 0C 00 
05007     00 00 00 3C 
0500b     7E 66 66 3C 
0500f     3C 66 66 66 | 	byte	$0c, $0c, $0c, $00, $00, $00, $00, $3c, $7e, $66, $66, $3c, $3c, $66, $66, $66
05013     66 7E 3C 00 
05017     00 00 00 3C 
0501b     7E 66 66 7E 
0501f     7C 60 60 60 | 	byte	$66, $7e, $3c, $00, $00, $00, $00, $3c, $7e, $66, $66, $7e, $7c, $60, $60, $60
05023     70 3C 1C 00 
05027     00 00 00 00 
0502b     00 00 18 18 
0502f     18 00 00 00 | 	byte	$70, $3c, $1c, $00, $00, $00, $00, $00, $00, $00, $18, $18, $18, $00, $00, $00
05033     18 18 18 00 
05037     00 00 00 00 
0503b     00 00 18 18 
0503f     18 00 00 18 | 	byte	$18, $18, $18, $00, $00, $00, $00, $00, $00, $00, $18, $18, $18, $00, $00, $18
05043     18 18 18 0C 
05047     04 00 00 00 
0504b     70 38 1C 0E 
0504f     07 0E 1C 38 | 	byte	$18, $18, $18, $0c, $04, $00, $00, $00, $70, $38, $1c, $0e, $07, $0e, $1c, $38
05053     70 00 00 00 
05057     00 00 00 00 
0505b     00 00 7E 7E 
0505f     00 00 7E 7E | 	byte	$70, $00, $00, $00, $00, $00, $00, $00, $00, $00, $7e, $7e, $00, $00, $7e, $7e
05063     00 00 00 00 
05067     00 00 00 00 | 	byte	$00[8]
0506b     0E 1C 38 70 
0506f     E0 70 38 1C 
05073     0E 00 00 00 
05077     00 00 00 3C | 	byte	$0e, $1c, $38, $70, $e0, $70, $38, $1c, $0e, $00, $00, $00, $00, $00, $00, $3c
0507b     7E 66 66 30 
0507f     30 18 18 18 
05083     00 18 18 00 
05087     00 00 00 3C | 	byte	$7e, $66, $66, $30, $30, $18, $18, $18, $00, $18, $18, $00, $00, $00, $00, $3c
0508b     7E 66 66 66 
0508f     66 36 06 66 
05093     66 7E 3C 00 
05097     00 00 00 18 | 	byte	$7e, $66, $66, $66, $66, $36, $06, $66, $66, $7e, $3c, $00, $00, $00, $00, $18
0509b     3C 7E 66 66 
0509f     66 7E 7E 66 
050a3     66 66 66 00 
050a7     00 00 00 3E | 	byte	$3c, $7e, $66, $66, $66, $7e, $7e, $66, $66, $66, $66, $00, $00, $00, $00, $3e
050ab     7E 66 66 7E 
050af     3E 66 66 66 
050b3     66 7E 3E 00 
050b7     00 00 00 3C | 	byte	$7e, $66, $66, $7e, $3e, $66, $66, $66, $66, $7e, $3e, $00, $00, $00, $00, $3c
050bb     7E 66 66 06 
050bf     06 06 06 66 
050c3     66 7E 3C 00 
050c7     00 00 00 3E | 	byte	$7e, $66, $66, $06, $06, $06, $06, $66, $66, $7e, $3c, $00, $00, $00, $00, $3e
050cb     7E 66 66 66 
050cf     66 66 66 66 
050d3     66 7E 3E 00 
050d7     00 00 00 7E | 	byte	$7e, $66, $66, $66, $66, $66, $66, $66, $66, $7e, $3e, $00, $00, $00, $00, $7e
050db     7E 06 06 3E 
050df     3E 06 06 06 
050e3     06 7E 7E 00 
050e7     00 00 00 7E | 	byte	$7e, $06, $06, $3e, $3e, $06, $06, $06, $06, $7e, $7e, $00, $00, $00, $00, $7e
050eb     7E 06 06 3E 
050ef     3E 06 06 06 
050f3     06 06 06 00 
050f7     00 00 00 7C | 	byte	$7e, $06, $06, $3e, $3e, $06, $06, $06, $06, $06, $06, $00, $00, $00, $00, $7c
050fb     7E 06 06 76 
050ff     76 66 66 66 
05103     66 7E 3C 00 
05107     00 00 00 66 | 	byte	$7e, $06, $06, $76, $76, $66, $66, $66, $66, $7e, $3c, $00, $00, $00, $00, $66
0510b     66 66 66 7E 
0510f     7E 66 66 66 
05113     66 66 66 00 
05117     00 00 00 7E | 	byte	$66, $66, $66, $7e, $7e, $66, $66, $66, $66, $66, $66, $00, $00, $00, $00, $7e
0511b     7E 18 18 18 
0511f     18 18 18 18 
05123     18 7E 7E 00 
05127     00 00 00 60 | 	byte	$7e, $18, $18, $18, $18, $18, $18, $18, $18, $7e, $7e, $00, $00, $00, $00, $60
0512b     60 60 60 60 
0512f     60 60 60    | 	byte	$60[7]
05132     66 66 7E 3C 
05136     00 00 00 00 
0513a     66 66 36 36 
0513e     1E 1E 36 36 | 	byte	$66, $66, $7e, $3c, $00, $00, $00, $00, $66, $66, $36, $36, $1e, $1e, $36, $36
05142     66 66 C6 C6 
05146     00 00 00 00 
0514a     06 06 06 06 
0514e     06 06 06 06 | 	byte	$66, $66, $c6, $c6, $00, $00, $00, $00, $06, $06, $06, $06, $06, $06, $06, $06
05152     06 06 7E 7E 
05156     00 00 00 00 
0515a     C6 C6 EE EE 
0515e     FE D6 D6 C6 | 	byte	$06, $06, $7e, $7e, $00, $00, $00, $00, $c6, $c6, $ee, $ee, $fe, $d6, $d6, $c6
05162     C6 C6 C6 C6 
05166     00 00 00 00 
0516a     66 66 66 6E 
0516e     6E 7E 7E 76 | 	byte	$c6, $c6, $c6, $c6, $00, $00, $00, $00, $66, $66, $66, $6e, $6e, $7e, $7e, $76
05172     76 66 66 66 
05176     00 00 00 00 
0517a     3C 7E 66 66 
0517e     66 66 66 66 | 	byte	$76, $66, $66, $66, $00, $00, $00, $00, $3c, $7e, $66, $66, $66, $66, $66, $66
05182     66 66 7E 3C 
05186     00 00 00 00 
0518a     3E 7E 66 66 
0518e     66 66 7E 3E | 	byte	$66, $66, $7e, $3c, $00, $00, $00, $00, $3e, $7e, $66, $66, $66, $66, $7e, $3e
05192     06 06 06 06 
05196     00 00 00 00 
0519a     3C 7E 66 66 
0519e     66 66 66 66 | 	byte	$06, $06, $06, $06, $00, $00, $00, $00, $3c, $7e, $66, $66, $66, $66, $66, $66
051a2     66 56 3E 6C 
051a6     00 00 00 00 
051aa     3E 7E 66 66 
051ae     66 7E 3E 36 | 	byte	$66, $56, $3e, $6c, $00, $00, $00, $00, $3e, $7e, $66, $66, $66, $7e, $3e, $36
051b2     66 66 C6 C6 
051b6     00 00 00 00 
051ba     7C 7E 06 06 
051be     0E 1C 38 70 | 	byte	$66, $66, $c6, $c6, $00, $00, $00, $00, $7c, $7e, $06, $06, $0e, $1c, $38, $70
051c2     60 60 7E 3E 
051c6     00 00 00 00 
051ca     7E 7E 18 18 
051ce     18 18 18 18 | 	byte	$60, $60, $7e, $3e, $00, $00, $00, $00, $7e, $7e, $18, $18, $18, $18, $18, $18
051d2     18 18 18 18 
051d6     00 00 00 00 
051da     66 66 66 66 
051de     66 66 66 66 | 	byte	$18, $18, $18, $18, $00, $00, $00, $00, $66, $66, $66, $66, $66, $66, $66, $66
051e2     66 66 7E 3C 
051e6     00 00 00 00 
051ea     66 66 66 66 
051ee     66 66 66 66 | 	byte	$66, $66, $7e, $3c, $00, $00, $00, $00, $66, $66, $66, $66, $66, $66, $66, $66
051f2     3C 3C 18 18 
051f6     00 00 00 00 
051fa     C6 C6 C6 C6 
051fe     C6 D6 D6 FE | 	byte	$3c, $3c, $18, $18, $00, $00, $00, $00, $c6, $c6, $c6, $c6, $c6, $d6, $d6, $fe
05202     FE EE C6 82 
05206     00 00 00 00 
0520a     66 66 66 3C 
0520e     3C 18 18 3C | 	byte	$fe, $ee, $c6, $82, $00, $00, $00, $00, $66, $66, $66, $3c, $3c, $18, $18, $3c
05212     3C 66 66 66 
05216     00 00 00 00 
0521a     66 66 66 66 
0521e     66 3C 3C 18 | 	byte	$3c, $66, $66, $66, $00, $00, $00, $00, $66, $66, $66, $66, $66, $3c, $3c, $18
05222     18 18 18 18 
05226     00 00 00 00 
0522a     7E 7E 30 30 
0522e     18 18 0C 0C | 	byte	$18, $18, $18, $18, $00, $00, $00, $00, $7e, $7e, $30, $30, $18, $18, $0c, $0c
05232     06 06 7E 7E 
05236     00 00 00 00 
0523a     3C 3C 0C 0C 
0523e     0C 0C 0C 0C | 	byte	$06, $06, $7e, $7e, $00, $00, $00, $00, $3c, $3c, $0c, $0c, $0c, $0c, $0c, $0c
05242     0C 0C 3C 3C 
05246     00 00 00 00 
0524a     06 06 0C 0C 
0524e     18 18 30 30 | 	byte	$0c, $0c, $3c, $3c, $00, $00, $00, $00, $06, $06, $0c, $0c, $18, $18, $30, $30
05252     60 60 C0 C0 
05256     00 00 00 00 
0525a     3C 3C 30 30 
0525e     30 30 30 30 | 	byte	$60, $60, $c0, $c0, $00, $00, $00, $00, $3c, $3c, $30, $30, $30, $30, $30, $30
05262     30 30 3C 3C 
05266     00 00 00 00 
0526a     18 18 3C 3C 
0526e     66 66 00 00 | 	byte	$30, $30, $3c, $3c, $00, $00, $00, $00, $18, $18, $3c, $3c, $66, $66, $00, $00
05272     00 00 00 00 
05276     00 00 00 00 
0527a     00 00 00 00 
0527e     00 00 00 00 
05282     00 00       | 	byte	$00[18]
05284     FE FE 00 00 
05288     00 00 0C 0C 
0528c     18 18 00 00 
05290     00 00 00 00 | 	byte	$fe, $fe, $00, $00, $00, $00, $0c, $0c, $18, $18, $00, $00, $00, $00, $00, $00
05294     00 00 00 00 
05298     00 00 00 00 
0529c     00          | 	byte	$00[9]
0529d     3C 7C 60 7C 
052a1     7E 66 66 7E 
052a5     7C 00 00 00 
052a9     00 06 06 06 | 	byte	$3c, $7c, $60, $7c, $7e, $66, $66, $7e, $7c, $00, $00, $00, $00, $06, $06, $06
052ad     3E 7E 66 66 
052b1     66 66 66 7E 
052b5     3E 00 00 00 
052b9     00 00 00 00 | 	byte	$3e, $7e, $66, $66, $66, $66, $66, $7e, $3e, $00, $00, $00, $00, $00, $00, $00
052bd     3C 3E 06 06 
052c1     06 06 06 7E 
052c5     7C 00 00 00 
052c9     00 60 60 60 | 	byte	$3c, $3e, $06, $06, $06, $06, $06, $7e, $7c, $00, $00, $00, $00, $60, $60, $60
052cd     7C 7E 66 66 
052d1     66 66 66 7E 
052d5     7C 00 00 00 
052d9     00 00 00 00 | 	byte	$7c, $7e, $66, $66, $66, $66, $66, $7e, $7c, $00, $00, $00, $00, $00, $00, $00
052dd     3C 7E 66 66 
052e1     7E 06 06 7E 
052e5     7C 00 00 00 
052e9     00 70 78 18 | 	byte	$3c, $7e, $66, $66, $7e, $06, $06, $7e, $7c, $00, $00, $00, $00, $70, $78, $18
052ed     18 7E 7E 18 
052f1     18 18 18 18 
052f5     18 00 00 00 
052f9     00 00 00 00 | 	byte	$18, $7e, $7e, $18, $18, $18, $18, $18, $18, $00, $00, $00, $00, $00, $00, $00
052fd     7C 7E 66 66 
05301     66 66 7E 7C 
05305     60 7E 3E 00 
05309     00 06 06 06 | 	byte	$7c, $7e, $66, $66, $66, $66, $7e, $7c, $60, $7e, $3e, $00, $00, $06, $06, $06
0530d     3E 7E 66 66 
05311     66 66 66 66 
05315     66 00 00 00 
05319     00 18 18 00 | 	byte	$3e, $7e, $66, $66, $66, $66, $66, $66, $66, $00, $00, $00, $00, $18, $18, $00
0531d     1C 1C 18 18 
05321     18 18 18 3C 
05325     3C 00 00 00 
05329     00 30 30 00 | 	byte	$1c, $1c, $18, $18, $18, $18, $18, $3c, $3c, $00, $00, $00, $00, $30, $30, $00
0532d     30 30 30 30 
05331     30 30 30 30 
05335     30          | 	byte	$30[9]
05336     3E 1E 00 00 
0533a     06 06 06 36 
0533e     36 1E 1E 1E 
05342     36 36 66 66 | 	byte	$3e, $1e, $00, $00, $06, $06, $06, $36, $36, $1e, $1e, $1e, $36, $36, $66, $66
05346     00 00 00 00 
0534a     1C 1C 18 18 
0534e     18 18 18 18 
05352     18 18 3C 3C | 	byte	$00, $00, $00, $00, $1c, $1c, $18, $18, $18, $18, $18, $18, $18, $18, $3c, $3c
05356     00 00 00 00 
0535a     00 00 00    | 	byte	$00[7]
0535d     6C FE FE D6 
05361     D6 C6 C6 C6 
05365     C6 00 00 00 
05369     00 00 00 00 | 	byte	$6c, $fe, $fe, $d6, $d6, $c6, $c6, $c6, $c6, $00, $00, $00, $00, $00, $00, $00
0536d     3E 7E 66 66 
05371     66 66 66 66 
05375     66 00 00 00 
05379     00 00 00 00 | 	byte	$3e, $7e, $66, $66, $66, $66, $66, $66, $66, $00, $00, $00, $00, $00, $00, $00
0537d     3C 7E 66 66 
05381     66 66 66 7E 
05385     3C 00 00 00 
05389     00 00 00 00 | 	byte	$3c, $7e, $66, $66, $66, $66, $66, $7e, $3c, $00, $00, $00, $00, $00, $00, $00
0538d     3E 7E 66 66 
05391     66 66 66 7E 
05395     3E 06 06 00 
05399     00 00 00 00 | 	byte	$3e, $7e, $66, $66, $66, $66, $66, $7e, $3e, $06, $06, $00, $00, $00, $00, $00
0539d     7C 7E 66 66 
053a1     66 66 66 7E 
053a5     7C 60 60 00 
053a9     00 00 00 00 | 	byte	$7c, $7e, $66, $66, $66, $66, $66, $7e, $7c, $60, $60, $00, $00, $00, $00, $00
053ad     3E 7E 66 06 
053b1     06 06 06 06 
053b5     06 00 00 00 
053b9     00 00 00 00 | 	byte	$3e, $7e, $66, $06, $06, $06, $06, $06, $06, $00, $00, $00, $00, $00, $00, $00
053bd     7C 7E 06 0E 
053c1     3C 70 60 7E 
053c5     3E 00 00 00 
053c9     00 00 18 18 | 	byte	$7c, $7e, $06, $0e, $3c, $70, $60, $7e, $3e, $00, $00, $00, $00, $00, $18, $18
053cd     7E 7E 18 18 
053d1     18 18 18 78 
053d5     70 00 00 00 
053d9     00 00 00 00 | 	byte	$7e, $7e, $18, $18, $18, $18, $18, $78, $70, $00, $00, $00, $00, $00, $00, $00
053dd     66 66 66 66 
053e1     66 66 66    | 	byte	$66[7]
053e4     7E 7C 00 00 
053e8     00 00 00 00 
053ec     00 66 66 66 
053f0     66 66 3C 3C | 	byte	$7e, $7c, $00, $00, $00, $00, $00, $00, $00, $66, $66, $66, $66, $66, $3c, $3c
053f4     18 18 00 00 
053f8     00 00 00 00 
053fc     00 C6 C6 D6 
05400     D6 FE FE EE | 	byte	$18, $18, $00, $00, $00, $00, $00, $00, $00, $c6, $c6, $d6, $d6, $fe, $fe, $ee
05404     C6 82 00 00 
05408     00 00 00 00 
0540c     00 66 66 3C 
05410     3C 18 3C 3C | 	byte	$c6, $82, $00, $00, $00, $00, $00, $00, $00, $66, $66, $3c, $3c, $18, $3c, $3c
05414     66 66 00 00 
05418     00 00 00 00 
0541c     00 66 66 66 
05420     66 66 66 7E | 	byte	$66, $66, $00, $00, $00, $00, $00, $00, $00, $66, $66, $66, $66, $66, $66, $7e
05424     7C 60 7E 3E 
05428     00 00 00 00 
0542c     00 7E 7E 30 
05430     18 18 0C 0C | 	byte	$7c, $60, $7e, $3e, $00, $00, $00, $00, $00, $7e, $7e, $30, $18, $18, $0c, $0c
05434     7E 7E 00 00 
05438     00 00 30 18 
0543c     18 18 18 0C 
05440     0C 18 18 18 | 	byte	$7e, $7e, $00, $00, $00, $00, $30, $18, $18, $18, $18, $0c, $0c, $18, $18, $18
05444     18 30 00 00 
05448     00 00 18 18 
0544c     18 18 18 18 
05450     18 18 18 18 | 	byte	$18, $30, $00, $00, $00, $00, $18, $18, $18, $18, $18, $18, $18, $18, $18, $18
05454     18 18 00 00 
05458     00 00 0C 18 
0545c     18 18 18 30 
05460     30 18 18 18 | 	byte	$18, $18, $00, $00, $00, $00, $0c, $18, $18, $18, $18, $30, $30, $18, $18, $18
05464     18 0C 00 00 
05468     00 00 6C 7E 
0546c     36 00 00 00 
05470     00 00 00 00 | 	byte	$18, $0c, $00, $00, $00, $00, $6c, $7e, $36, $00, $00, $00, $00, $00, $00, $00
05474     00 00 00 00 
05478     00 00 00 00 
0547c     00          | 	byte	$00[9]
0547d     18 18 18 18 
05481     18 18 00 00 
05485     00 00 00    | 	byte	$18, $18, $18, $18, $18, $18, $00, $00, $00, $00, $00
05488     00 00 00 00 
0548c     00          | ataripalette            file "ataripalettep2.def"
0548d     11 11 11 00 
05491     22 22 22 00 
05495     33 33 33 00 
05499     44 44 44 00 | 	byte	$11, $11, $11, $00, $22, $22, $22, $00, $33, $33, $33, $00, $44, $44, $44, $00
0549d     55 55 55 00 
054a1     66 66 66 00 
054a5     77 77 77 00 
054a9     88 88 88 00 | 	byte	$55, $55, $55, $00, $66, $66, $66, $00, $77, $77, $77, $00, $88, $88, $88, $00
054ad     99 99 99 00 
054b1     AA AA AA 00 
054b5     BB BB BB 00 
054b9     CC CC CC 00 | 	byte	$99, $99, $99, $00, $aa, $aa, $aa, $00, $bb, $bb, $bb, $00, $cc, $cc, $cc, $00
054bd     DD DD DD 00 
054c1     EE EE EE 00 
054c5     FF FF FF 00 
054c9     00 0A 20 00 | 	byte	$dd, $dd, $dd, $00, $ee, $ee, $ee, $00, $ff, $ff, $ff, $00, $00, $0a, $20, $00
054cd     00 14 40 00 
054d1     00 1E 60 00 
054d5     00 28 80 00 
054d9     00 32 9F 00 | 	byte	$00, $14, $40, $00, $00, $1e, $60, $00, $00, $28, $80, $00, $00, $32, $9f, $00
054dd     00 3C BF 00 
054e1     00 46 DF 00 
054e5     00 50 FF 00 
054e9     1C 63 FF 00 | 	byte	$00, $3c, $bf, $00, $00, $46, $df, $00, $00, $50, $ff, $00, $1c, $63, $ff, $00
054ed     39 77 FF 00 
054f1     55 8A FF 00 
054f5     71 9E FF 00 
054f9     8E B1 FF 00 | 	byte	$39, $77, $ff, $00, $55, $8a, $ff, $00, $71, $9e, $ff, $00, $8e, $b1, $ff, $00
054fd     AA C5 FF 00 
05501     C6 D8 FF 00 
05505     E3 EC FF 00 
05509     00 00 20 00 | 	byte	$aa, $c5, $ff, $00, $c6, $d8, $ff, $00, $e3, $ec, $ff, $00, $00, $00, $20, $00
0550d     00 00 40 00 
05511     00 00 60 00 
05515     00 00 80 00 
05519     00 00 9F 00 | 	byte	$00, $00, $40, $00, $00, $00, $60, $00, $00, $00, $80, $00, $00, $00, $9f, $00
0551d     00 00 BF 00 
05521     00 00 DF 00 
05525     00 00 FF 00 
05529     1C 1C FF 00 | 	byte	$00, $00, $bf, $00, $00, $00, $df, $00, $00, $00, $ff, $00, $1c, $1c, $ff, $00
0552d     39 39 FF 00 
05531     55 55 FF 00 
05535     71 71 FF 00 
05539     8E 8E FF 00 | 	byte	$39, $39, $ff, $00, $55, $55, $ff, $00, $71, $71, $ff, $00, $8e, $8e, $ff, $00
0553d     AA AA FF 00 
05541     C6 C6 FF 00 
05545     E3 E3 FF 00 
05549     10 00 20 00 | 	byte	$aa, $aa, $ff, $00, $c6, $c6, $ff, $00, $e3, $e3, $ff, $00, $10, $00, $20, $00
0554d     20 00 40 00 
05551     30 00 60 00 
05555     40 00 80 00 
05559     50 00 9F 00 | 	byte	$20, $00, $40, $00, $30, $00, $60, $00, $40, $00, $80, $00, $50, $00, $9f, $00
0555d     60 00 BF 00 
05561     70 00 DF 00 
05565     80 00 FF 00 
05569     8E 1C FF 00 | 	byte	$60, $00, $bf, $00, $70, $00, $df, $00, $80, $00, $ff, $00, $8e, $1c, $ff, $00
0556d     9C 39 FF 00 
05571     AA 55 FF 00 
05575     B8 71 FF 00 
05579     C7 8E FF 00 | 	byte	$9c, $39, $ff, $00, $aa, $55, $ff, $00, $b8, $71, $ff, $00, $c7, $8e, $ff, $00
0557d     D5 AA FF 00 
05581     E3 C6 FF 00 
05585     F1 E3 FF 00 
05589     20 00 20 00 | 	byte	$d5, $aa, $ff, $00, $e3, $c6, $ff, $00, $f1, $e3, $ff, $00, $20, $00, $20, $00
0558d     40 00 40 00 
05591     60 00 60 00 
05595     80 00 80 00 
05599     9F 00 9F 00 | 	byte	$40, $00, $40, $00, $60, $00, $60, $00, $80, $00, $80, $00, $9f, $00, $9f, $00
0559d     BF 00 BF 00 
055a1     DF 00 DF 00 
055a5     FF 00 FF 00 
055a9     FF 1C FF 00 | 	byte	$bf, $00, $bf, $00, $df, $00, $df, $00, $ff, $00, $ff, $00, $ff, $1c, $ff, $00
055ad     FF 39 FF 00 
055b1     FF 55 FF 00 
055b5     FF 71 FF 00 
055b9     FF 8E FF 00 | 	byte	$ff, $39, $ff, $00, $ff, $55, $ff, $00, $ff, $71, $ff, $00, $ff, $8e, $ff, $00
055bd     FF AA FF 00 
055c1     FF C6 FF 00 
055c5     FF E3 FF 00 
055c9     20 00 10 00 | 	byte	$ff, $aa, $ff, $00, $ff, $c6, $ff, $00, $ff, $e3, $ff, $00, $20, $00, $10, $00
055cd     40 00 20 00 
055d1     60 00 30 00 
055d5     80 00 40 00 
055d9     9F 00 50 00 | 	byte	$40, $00, $20, $00, $60, $00, $30, $00, $80, $00, $40, $00, $9f, $00, $50, $00
055dd     BF 00 60 00 
055e1     DF 00 70 00 
055e5     FF 00 80 00 
055e9     FF 1C 8E 00 | 	byte	$bf, $00, $60, $00, $df, $00, $70, $00, $ff, $00, $80, $00, $ff, $1c, $8e, $00
055ed     FF 39 9C 00 
055f1     FF 55 AA 00 
055f5     FF 71 B8 00 
055f9     FF 8E C7 00 | 	byte	$ff, $39, $9c, $00, $ff, $55, $aa, $00, $ff, $71, $b8, $00, $ff, $8e, $c7, $00
055fd     FF AA D5 00 
05601     FF C6 E3 00 
05605     FF E3 F1 00 
05609     20 00 00 00 | 	byte	$ff, $aa, $d5, $00, $ff, $c6, $e3, $00, $ff, $e3, $f1, $00, $20, $00, $00, $00
0560d     40 00 00 00 
05611     60 00 00 00 
05615     80 00 00 00 
05619     9F 00 00 00 | 	byte	$40, $00, $00, $00, $60, $00, $00, $00, $80, $00, $00, $00, $9f, $00, $00, $00
0561d     BF 00 00 00 
05621     DF 00 00 00 
05625     FF 00 00 00 
05629     FF 1C 1C 00 | 	byte	$bf, $00, $00, $00, $df, $00, $00, $00, $ff, $00, $00, $00, $ff, $1c, $1c, $00
0562d     FF 39 39 00 
05631     FF 55 55 00 
05635     FF 71 71 00 
05639     FF 8E 8E 00 | 	byte	$ff, $39, $39, $00, $ff, $55, $55, $00, $ff, $71, $71, $00, $ff, $8e, $8e, $00
0563d     FF AA AA 00 
05641     FF C6 C6 00 
05645     FF E3 E3 00 
05649     20 08 00 00 | 	byte	$ff, $aa, $aa, $00, $ff, $c6, $c6, $00, $ff, $e3, $e3, $00, $20, $08, $00, $00
0564d     40 10 00 00 
05651     60 18 00 00 
05655     80 20 00 00 
05659     9F 28 00 00 | 	byte	$40, $10, $00, $00, $60, $18, $00, $00, $80, $20, $00, $00, $9f, $28, $00, $00
0565d     BF 30 00 00 
05661     DF 38 00 00 
05665     FF 40 00 00 
05669     FF 55 1C 00 | 	byte	$bf, $30, $00, $00, $df, $38, $00, $00, $ff, $40, $00, $00, $ff, $55, $1c, $00
0566d     FF 6A 39 00 
05671     FF 80 55 00 
05675     FF 95 71 00 
05679     FF AA 8E 00 | 	byte	$ff, $6a, $39, $00, $ff, $80, $55, $00, $ff, $95, $71, $00, $ff, $aa, $8e, $00
0567d     FF BF AA 00 
05681     FF D5 C6 00 
05685     FF EA E3 00 
05689     20 10 00 00 | 	byte	$ff, $bf, $aa, $00, $ff, $d5, $c6, $00, $ff, $ea, $e3, $00, $20, $10, $00, $00
0568d     40 20 00 00 
05691     60 30 00 00 
05695     80 40 00 00 
05699     9F 50 00 00 | 	byte	$40, $20, $00, $00, $60, $30, $00, $00, $80, $40, $00, $00, $9f, $50, $00, $00
0569d     BF 60 00 00 
056a1     DF 70 00 00 
056a5     FF 80 00 00 
056a9     FF 8E 1C 00 | 	byte	$bf, $60, $00, $00, $df, $70, $00, $00, $ff, $80, $00, $00, $ff, $8e, $1c, $00
056ad     FF 9C 39 00 
056b1     FF AA 55 00 
056b5     FF B8 71 00 
056b9     FF C7 8E 00 | 	byte	$ff, $9c, $39, $00, $ff, $aa, $55, $00, $ff, $b8, $71, $00, $ff, $c7, $8e, $00
056bd     FF D5 AA 00 
056c1     FF E3 C6 00 
056c5     FF F1 E3 00 
056c9     20 18 00 00 | 	byte	$ff, $d5, $aa, $00, $ff, $e3, $c6, $00, $ff, $f1, $e3, $00, $20, $18, $00, $00
056cd     40 30 00 00 
056d1     60 48 00 00 
056d5     80 60 00 00 
056d9     9F 78 00 00 | 	byte	$40, $30, $00, $00, $60, $48, $00, $00, $80, $60, $00, $00, $9f, $78, $00, $00
056dd     BF 90 00 00 
056e1     DF A8 00 00 
056e5     FF C0 00 00 
056e9     FF C7 1C 00 | 	byte	$bf, $90, $00, $00, $df, $a8, $00, $00, $ff, $c0, $00, $00, $ff, $c7, $1c, $00
056ed     FF CE 39 00 
056f1     FF D5 55 00 
056f5     FF DC 71 00 
056f9     FF E3 8E 00 | 	byte	$ff, $ce, $39, $00, $ff, $d5, $55, $00, $ff, $dc, $71, $00, $ff, $e3, $8e, $00
056fd     FF EA AA 00 
05701     FF F1 C6 00 
05705     FF F8 E3 00 
05709     18 20 00 00 | 	byte	$ff, $ea, $aa, $00, $ff, $f1, $c6, $00, $ff, $f8, $e3, $00, $18, $20, $00, $00
0570d     30 40 00 00 
05711     48 60 00 00 
05715     60 80 00 00 
05719     78 9F 00 00 | 	byte	$30, $40, $00, $00, $48, $60, $00, $00, $60, $80, $00, $00, $78, $9f, $00, $00
0571d     90 BF 00 00 
05721     A8 DF 00 00 
05725     C0 FF 00 00 
05729     C7 FF 1C 00 | 	byte	$90, $bf, $00, $00, $a8, $df, $00, $00, $c0, $ff, $00, $00, $c7, $ff, $1c, $00
0572d     CE FF 39 00 
05731     D5 FF 55 00 
05735     DC FF 71 00 
05739     E3 FF 8E 00 | 	byte	$ce, $ff, $39, $00, $d5, $ff, $55, $00, $dc, $ff, $71, $00, $e3, $ff, $8e, $00
0573d     EA FF AA 00 
05741     F1 FF C6 00 
05745     F8 FF E3 00 
05749     00 20 00 00 | 	byte	$ea, $ff, $aa, $00, $f1, $ff, $c6, $00, $f8, $ff, $e3, $00, $00, $20, $00, $00
0574d     00 40 00 00 
05751     00 60 00 00 
05755     00 80 00 00 
05759     00 9F 00 00 | 	byte	$00, $40, $00, $00, $00, $60, $00, $00, $00, $80, $00, $00, $00, $9f, $00, $00
0575d     00 BF 00 00 
05761     00 DF 00 00 
05765     00 FF 00 00 
05769     1C FF 1C 00 | 	byte	$00, $bf, $00, $00, $00, $df, $00, $00, $00, $ff, $00, $00, $1c, $ff, $1c, $00
0576d     39 FF 39 00 
05771     55 FF 55 00 
05775     71 FF 71 00 
05779     8E FF 8E 00 | 	byte	$39, $ff, $39, $00, $55, $ff, $55, $00, $71, $ff, $71, $00, $8e, $ff, $8e, $00
0577d     AA FF AA 00 
05781     C6 FF C6 00 
05785     E3 FF E3 00 
05789     00 20 0A 00 | 	byte	$aa, $ff, $aa, $00, $c6, $ff, $c6, $00, $e3, $ff, $e3, $00, $00, $20, $0a, $00
0578d     00 40 14 00 
05791     00 60 1E 00 
05795     00 80 28 00 
05799     00 9F 32 00 | 	byte	$00, $40, $14, $00, $00, $60, $1e, $00, $00, $80, $28, $00, $00, $9f, $32, $00
0579d     00 BF 3C 00 
057a1     00 DF 46 00 
057a5     00 FF 50 00 
057a9     1C FF 63 00 | 	byte	$00, $bf, $3c, $00, $00, $df, $46, $00, $00, $ff, $50, $00, $1c, $ff, $63, $00
057ad     39 FF 77 00 
057b1     55 FF 8A 00 
057b5     71 FF 9E 00 
057b9     8E FF B1 00 | 	byte	$39, $ff, $77, $00, $55, $ff, $8a, $00, $71, $ff, $9e, $00, $8e, $ff, $b1, $00
057bd     AA FF C5 00 
057c1     C6 FF D8 00 
057c5     E3 FF EC 00 
057c9     00 20 14 00 | 	byte	$aa, $ff, $c5, $00, $c6, $ff, $d8, $00, $e3, $ff, $ec, $00, $00, $20, $14, $00
057cd     00 40 28 00 
057d1     00 60 3C 00 
057d5     00 80 50 00 
057d9     00 9F 64 00 | 	byte	$00, $40, $28, $00, $00, $60, $3c, $00, $00, $80, $50, $00, $00, $9f, $64, $00
057dd     00 BF 78 00 
057e1     00 DF 8C 00 
057e5     00 FF A0 00 
057e9     1C FF AB 00 | 	byte	$00, $bf, $78, $00, $00, $df, $8c, $00, $00, $ff, $a0, $00, $1c, $ff, $ab, $00
057ed     39 FF B5 00 
057f1     55 FF C0 00 
057f5     71 FF CA 00 
057f9     8E FF D5 00 | 	byte	$39, $ff, $b5, $00, $55, $ff, $c0, $00, $71, $ff, $ca, $00, $8e, $ff, $d5, $00
057fd     AA FF DF 00 
05801     C6 FF EA 00 
05805     E3 FF F4 00 
05809     00 20 20 00 | 	byte	$aa, $ff, $df, $00, $c6, $ff, $ea, $00, $e3, $ff, $f4, $00, $00, $20, $20, $00
0580d     00 40 40 00 
05811     00 60 60 00 
05815     00 80 80 00 
05819     00 9F 9F 00 | 	byte	$00, $40, $40, $00, $00, $60, $60, $00, $00, $80, $80, $00, $00, $9f, $9f, $00
0581d     00 BF BF 00 
05821     00 DF DF 00 
05825     00 FF FF 00 
05829     1C FF FF 00 | 	byte	$00, $bf, $bf, $00, $00, $df, $df, $00, $00, $ff, $ff, $00, $1c, $ff, $ff, $00
0582d     39 FF FF 00 
05831     55 FF FF 00 
05835     71 FF FF 00 
05839     8E FF FF 00 | 	byte	$39, $ff, $ff, $00, $55, $ff, $ff, $00, $71, $ff, $ff, $00, $8e, $ff, $ff, $00
0583d     AA FF FF 00 
05841     C6 FF FF 00 
05845     E3 FF FF 00 
05849     00 14 20 00 | 	byte	$aa, $ff, $ff, $00, $c6, $ff, $ff, $00, $e3, $ff, $ff, $00, $00, $14, $20, $00
0584d     00 28 40 00 
05851     00 3C 60 00 
05855     00 50 80 00 
05859     00 64 9F 00 | 	byte	$00, $28, $40, $00, $00, $3c, $60, $00, $00, $50, $80, $00, $00, $64, $9f, $00
0585d     00 78 BF 00 
05861     00 8C DF 00 
05865     00 A0 FF 00 
05869     1C AB FF 00 | 	byte	$00, $78, $bf, $00, $00, $8c, $df, $00, $00, $a0, $ff, $00, $1c, $ab, $ff, $00
0586d     39 B5 FF 00 
05871     55 C0 FF 00 
05875     71 CA FF 00 
05879     8E D5 FF 00 | 	byte	$39, $b5, $ff, $00, $55, $c0, $ff, $00, $71, $ca, $ff, $00, $8e, $d5, $ff, $00
0587d     AA DF FF 00 
05881     C6 EA FF 00 
05885     E3 F4 FF    | 	byte	$aa, $df, $ff, $00, $c6, $ea, $ff, $00, $e3, $f4, $ff
05888                 | 
05888                 | '**********************************************************************************
05888                 | '
05888                 | '        Timings and colors definitions
05888                 | '
05888                 | '**********************************************************************************
05888                 | 
05888     00 00 81 70 
0588c     00 00 81 70 
05890     00 00 81 70 
05894     00 00 81 70 | timingsxxt      long $70810000, $70810000, $70810000, $70810000, $70810000, $20880000 'streamer sets for text mode, to add to timings[0..5]
05898     00 00 81 70 
0589c     00 00 88 20 | 	byte	$00, $00, $81, $70, $00, $00, $88, $20
058a0                 | 
058a0                 | '                     bf.hs, hs,  bf.vis  visible, lr bord, pixel, ud bord,  up p., vsync, down p., mode, cpl, scanlines,  clock,                  hubset                  reserved
058a0     10 00 00 00 
058a4     50 00 00 00 
058a8     14 00 00 00 
058ac     00 04 00 00 | timings000      long   16,   80,    20,    1024,    112,     8,     48,      16,      16,    16,      0,  100,   480,     354693878,   %1_110000__11_0110_1100__1111_1011,   0
058b0     70 00 00 00 
058b4     08 00 00 00 
058b8     30 00 00 00 
058bc     10 00 00 00 | 	byte	$70, $00, $00, $00, $08, $00, $00, $00, $30, $00, $00, $00, $10, $00, $00, $00
058c0     10 00 00 00 
058c4     10 00 00 00 
058c8     00 00 00 00 
058cc     64 00 00 00 | 	byte	$10, $00, $00, $00, $10, $00, $00, $00, $00, $00, $00, $00, $64, $00, $00, $00
058d0     E0 01 00 00 
058d4     F6 32 24 15 
058d8     FB 6C C3 01 
058dc     00 00 00 00 | 	byte	$e0, $01, $00, $00, $f6, $32, $24, $15, $fb, $6c, $c3, $01, $00, $00, $00, $00
058e0     12 00 00 00 
058e4     40 00 00 00 
058e8     10 00 00 00 
058ec     A0 03 00 00 | timings064      long   18,   64,    16,     928,     24,     8,     24,      24,      32,    24,     64,  110,   496,     319215686,   %1_110010__11_0010_1101__1111_1011,   0
058f0     18 00 00 00 
058f4     08 00 00 00 
058f8     18 00 00 00 
058fc     18 00 00 00 | 	byte	$18, $00, $00, $00, $08, $00, $00, $00, $18, $00, $00, $00, $18, $00, $00, $00
05900     20 00 00 00 
05904     18 00 00 00 
05908     40 00 00 00 
0590c     6E 00 00 00 | 	byte	$20, $00, $00, $00, $18, $00, $00, $00, $40, $00, $00, $00, $6e, $00, $00, $00
05910     F0 01 00 00 
05914     46 D8 06 13 
05918     FB 2D CB 01 
0591c     00 00 00 00 | 	byte	$f0, $01, $00, $00, $46, $d8, $06, $13, $fb, $2d, $cb, $01, $00, $00, $00, $00
05920     10 00 00 00 
05924     40 00 00 00 
05928     10 00 00 00 
0592c     30 03 00 00 | timings128      long   16,   64,    16,     816,      8,     8,     8,       32,      64,    32,    128,  100,   480,     283750000,   %1_111111__11_1000_1011__1111_1011,   0
05930     08 00 00 00 
05934     08 00 00 00 
05938     08 00 00 00 
0593c     20 00 00 00 | 	byte	$08, $00, $00, $00, $08, $00, $00, $00, $08, $00, $00, $00, $20, $00, $00, $00
05940     40 00 00 00 
05944     20 00 00 00 
05948     80 00 00 00 
0594c     64 00 00 00 | 	byte	$40, $00, $00, $00, $20, $00, $00, $00, $80, $00, $00, $00, $64, $00, $00, $00
05950     E0 01 00 00 
05954     70 AE E9 10 
05958     FB 8B FF 01 
0595c     00 00 00 00 | 	byte	$e0, $01, $00, $00, $70, $ae, $e9, $10, $fb, $8b, $ff, $01, $00, $00, $00, $00
05960     10 00 00 00 
05964     50 00 00 00 
05968     14 00 00 00 
0596c     00 04 00 00 | timings192      long   16,   80,    20,    1024,      0,     8,     0,       16,      16,    16,    192,  128,   576,     354693878,   %1_110000__11_0110_1100__1111_1011,   0
05970     00 00 00 00 
05974     08 00 00 00 
05978     00 00 00 00 
0597c     10 00 00 00 | 	byte	$00, $00, $00, $00, $08, $00, $00, $00, $00, $00, $00, $00, $10, $00, $00, $00
05980     10 00 00 00 
05984     10 00 00 00 
05988     C0 00 00 00 
0598c     80 00 00 00 | 	byte	$10, $00, $00, $00, $10, $00, $00, $00, $c0, $00, $00, $00, $80, $00, $00, $00
05990     40 02 00 00 
05994     F6 32 24 15 
05998     FB 6C C3 01 
0599c     00 00 00 00 | 	byte	$40, $02, $00, $00, $f6, $32, $24, $15, $fb, $6c, $c3, $01, $00, $00, $00, $00
059a0     50 00 00 00 
059a4     A0 00 00 00 
059a8     54 00 00 00 
059ac     30 03 00 00 | timings256      long   80,  160,    84,     816,      8,     8,     8,        8,      12,     8,    256,  100,   480,     357959184,   %1_110000__11_0110_0100__1111_1011,   0
059b0     08 00 00 00 
059b4     08 00 00 00 
059b8     08 00 00 00 
059bc     08 00 00 00 | 	byte	$08, $00, $00, $00, $08, $00, $00, $00, $08, $00, $00, $00, $08, $00, $00, $00
059c0     0C 00 00 00 
059c4     08 00 00 00 
059c8     00 01 00 00 
059cc     64 00 00 00 | 	byte	$0c, $00, $00, $00, $08, $00, $00, $00, $00, $01, $00, $00, $64, $00, $00, $00
059d0     E0 01 00 00 
059d4     10 06 56 15 
059d8     FB 64 C3 01 
059dc     00 00 00 00 | 	byte	$e0, $01, $00, $00, $10, $06, $56, $15, $fb, $64, $c3, $01, $00, $00, $00, $00
059e0     50 00 00 00 
059e4     32 00 00 00 
059e8     50 00 00 00 
059ec     30 03 00 00 | timings320      long   80,   50,    80,     816,      8,     8,     8,        8,      12,     8,    320,  100,   480,     322162162,   %1_100100__10_0101_0011__1111_1011,   0
059f0     08 00 00 00 
059f4     08 00 00 00 
059f8     08 00 00 00 
059fc     08 00 00 00 | 	byte	$08, $00, $00, $00, $08, $00, $00, $00, $08, $00, $00, $00, $08, $00, $00, $00
05a00     0C 00 00 00 
05a04     08 00 00 00 
05a08     40 01 00 00 
05a0c     64 00 00 00 | 	byte	$0c, $00, $00, $00, $08, $00, $00, $00, $40, $01, $00, $00, $64, $00, $00, $00
05a10     E0 01 00 00 
05a14     F2 CD 33 13 
05a18     FB 53 92 01 
05a1c     00 00 00 00 | 	byte	$e0, $01, $00, $00, $f2, $cd, $33, $13, $fb, $53, $92, $01, $00, $00, $00, $00
05a20     18 00 00 00 
05a24     30 00 00 00 
05a28     18 00 00 00 
05a2c     30 03 00 00 | timings384      long   24,   48,    24,     816,      8,     8,     8,        8,      12,     8,    384,  100,   480,     286363636,   %1_010101__01_0011_1010__1111_1011,   0
05a30     08 00 00 00 
05a34     08 00 00 00 
05a38     08 00 00 00 
05a3c     08 00 00 00 | 	byte	$08, $00, $00, $00, $08, $00, $00, $00, $08, $00, $00, $00, $08, $00, $00, $00
05a40     0C 00 00 00 
05a44     08 00 00 00 
05a48     80 01 00 00 
05a4c     64 00 00 00 | 	byte	$0c, $00, $00, $00, $08, $00, $00, $00, $80, $01, $00, $00, $64, $00, $00, $00
05a50     E0 01 00 00 
05a54     F4 8F 11 11 
05a58     FB 3A 55 01 
05a5c     00 00 00 00 | 	byte	$e0, $01, $00, $00, $f4, $8f, $11, $11, $fb, $3a, $55, $01, $00, $00, $00, $00
05a60     28 00 00 00 
05a64     40 00 00 00 
05a68     2A 00 00 00 
05a6c     70 03 00 00 | timings448      long   40,   64,    42,     880,      0,     8,     0,        8,      12,     8,    448,  110,   480,     322162162,   %1_100100__10_0101_0011__1111_1011,   0
05a70     00 00 00 00 
05a74     08 00 00 00 
05a78     00 00 00 00 
05a7c     08 00 00 00 | 	byte	$00, $00, $00, $00, $08, $00, $00, $00, $00, $00, $00, $00, $08, $00, $00, $00
05a80     0C 00 00 00 
05a84     08 00 00 00 
05a88     C0 01 00 00 
05a8c     6E 00 00 00 | 	byte	$0c, $00, $00, $00, $08, $00, $00, $00, $c0, $01, $00, $00, $6e, $00, $00, $00
05a90     E0 01 00 00 
05a94     F2 CD 33 13 
05a98     FB 53 92 01 
05a9c     00 00 00 00 | 	byte	$e0, $01, $00, $00, $f2, $cd, $33, $13, $fb, $53, $92, $01, $00, $00, $00, $00
05aa0                 | 
05aa0     00 75 C7 97 
05aa4     27 47 F6 0A 
05aa8     05 7B CB 9B 
05aac     2B 4B EA 0F | vgacolors       byte   0, 117, 199, 151, 39, 71, 246, 10, 5, 123, 203, 155, 43, 75, 234, 15
05ab0                 | 
05ab0     28 12 64 FD | hdmi            setq    #9
05ab4     00 2F 05 FB |                 rdlong  framebuf,  ptra                 'read pointers
05ab8                 | 
05ab8     29 FE 65 FD |                 setq2   #255
05abc     9D 00 00 FB |                 rdlong  $000, paletteptr                'read palette
05ac0                 | 
05ac0     00 5A 6D FC |                 wrlong  #aend,#0                         'write driver length to hub#0: DEBUG/demo
05ac4     3C 00 66 FD |                 setcmod #$100                           'enable HDMI mode
05ac8     07 44 05 F6 |                 mov     ii,#7
05acc     06 44 65 F0 |                 shl     ii,#6
05ad0     A0 44 01 F1 |                 add     ii,hbase
05ad4     58 44 61 FD |                 drvl    ii                                 '#7<<6 + hdmi_base      ' enable HDMI pins
05ad8     7B 0B 80 FF 
05adc     A2 00 0B FC |                 wrpin   ##%10110_1111_0111_10_00000_0, ii  '#7<<6 + hdmi_base      ' a '123 ohm BITDAC for pins
05ae0                 | 
05ae0     66 66 86 FF 
05ae4     1D 9A 65 FD |                 setxfrq ##$0CCCCCCC+1                   'set streamer freq to 1/10th clk
05ae8                 | 
05ae8                 | 
05ae8                 | 'Start the frame rendering loop
05ae8                 | 
05ae8     28 18 64 FD | p101            setq    #12
05aec     9C 00 01 FB |                 rdlong  m_bs,modeptr                     ' read timings
05af0     00 2F 05 FB |                 rdlong framebuf,ptra                     ' if mode changed, the framebuffer will change,too
05af4     09 14 15 F4 |                 testb   i_modenum,#9 wc                  ' bit #8 set = graphics modes, not yet implemented
05af8     84 01 90 CD |          if_c   jmp #p200                                                                ' jump to graphics mode: TODO, now it will return to p901
05afc                 | 
05afc     01 22 05 F1 | p901            add     frames,#1
05b00     9F 2C 01 FB |                 rdlong  fontstart,fontnumptr             ' TODO: free byte in char buf = font select
05b04     98 2C 01 F1 |                 add     fontstart,fontbuf
05b08     9B 24 01 FB |                 rdlong  cursorx, cursorptr               ' read cursor position
05b0c     92 26 E9 F8 |                 getbyte cursory, cursorx,#1              ' y position at byte #1
05b10     92 20 F1 F8 |                 getbyte cursorsh,cursorx,#2              ' shape at byte #2
05b14     FF 24 05 F5 |                 and     cursorx,#255                     ' clear the cursor x varioble from y and shape
05b18                 | 
05b18     99 42 01 F6 |                 mov     borderptr2,borderptr             ' borderptr points to border colors table start
05b1c     A1 FE 00 FB |                 rdlong  border,borderptr2                ' borderptr2 will change at every char line pointing to the individual border color
05b20     04 42 05 F1 |                 add     borderptr2,#4
05b24     08 FE 64 F0 |                 shl     border,#8                        ' HDMI driver needs rgb0 format
05b28                 | 
05b28     9E 4E 01 FB |                 rdlong  t1,commandptr                    ' A mailbox interface, read the command
05b2c     04 3C 05 F1 |                 add     commandptr,#4
05b30     9E 50 01 FB |                 rdlong  t2,commandptr                    ' read the argument
05b34     04 3C 85 F1 |                 sub     commandptr,#4                    ' restore the pionter
05b38     00 4F 1D F2 |                 cmp     t1,#256  wcz                     '
05b3c     A7 50 31 CC |          if_lt  wrlut   t2,t1                            ' command 0..255-> set the color in LUT
05b40     01 4F 05 F6 |                 mov     t1, #257                         ' 257=idle
05b44                 | 
05b44     9E 4E 61 FC |                 wrlong  t1,commandptr                    ' write 257 to hub variable so the program can test if command was done
05b48                 |  '' up porch
05b48                 | 
05b48     7B 48 01 F6 |                 mov     hsync0,sync_000                  '
05b4c     7C 4A 01 F6 |                 mov     hsync1,sync_001
05b50     4C 0E 45 FB |                 callpa  i_upporch ,#blank
05b54     9A 00 48 FC |                 wrbyte  #0,vblankptr
05b58                 | 
05b58                 | '' cursor blinking
05b58                 | 
05b58     04 22 0D F4 |                 testb   frames,#4 wz                     ' cursor blinks at framerate/16, todo: define
05b5c     81 24 05 A6 |          if_z   mov     cursorx,#129                     ' to switch the cursor off, move it out of the screen
05b60                 | 
05b60     86 44 09 F6 |                 mov     ii, i_vborder wz                 ' read upper border parameter
05b64     0C 00 90 AD |                 if_z jmp #p111                           ' if zero, don't make a border
05b68                 | 
05b68                 | '' border, if exists
05b68                 | 
05b68     24 01 B0 FD | up_border       call    #hsync                           ' make a border
05b6c     7F 06 C1 FC |                 xcont   m_vi,border
05b70     FD 45 6D FB |                 djnz    ii,#up_border
05b74                 | 
05b74                 | '' active lines
05b74                 | 
05b74     8C 44 01 F6 | p111            mov     ii,i_lines                      ' read active lines count
05b78     00 1C 05 F6 |                 mov     linenum,#0                      ' set line number to 0
05b7c                 | 
05b7c     92 2A 01 F6 | line1           mov     cursorpos2,cursorx              ' we need another var for cursor as this code will repeat 16x for every char line
05b80                 | 
05b80     8E 4C 41 F8 |                 getnib  fontline,linenum,#0             ' fontline is 0 to 15, a line in font def
05b84     97 46 01 F6 |                 mov     framebuf2,framebuf              ' compute a line start in the framebuffer, which is (line div 16)*cpl
05b88     8E 1A 01 F6 |                 mov     linestart,linenum               ' linestart will be used for checking cursor y and compute line start addr in the buffer
05b8c     04 1A 45 F0 |                 shr     linestart,#4                    ' scanline to char line
05b90     93 1A 09 F2 |                 cmp     linestart,cursory wz            ' if the cursor is not here
05b94     81 2A 05 56 |           if_nz mov     cursorpos2,#129                 ' move it out of the screen
05b98     8B 1A 01 FA |                 mul     linestart,i_cpl                 ' compute the address of char line in the buffer
05b9c     02 1A 65 F0 |                 shl     linestart,#2
05ba0     8D 46 01 F1 |                 add     framebuf2,linestart             ' and add it to the buffer start address
05ba4                 | 
05ba4     E8 00 B0 FD |                 call    #hsync                          ' now call hsync to gain some time between xconts
05ba8                 | 
05ba8     00 4C 0D F2 |                 cmp     fontline,#0 wz
05bac     0C 00 90 5D |           if_nz jmp     #p102                           ' if fontline =0, get a border color
05bb0                 | 
05bb0     A1 FE 00 FB |                 rdlong  border,borderptr2
05bb4     04 42 05 F1 |                 add     borderptr2,#4
05bb8     08 FE 64 F0 |                 shl     border,#8
05bbc                 | 
05bbc     84 4E 31 F9 | p102            getword t1,m_border,#0                  ' else use the same border color for all the character line
05bc0     00 4E 0D F2 |                 cmp     t1, #0 wz
05bc4     7F 08 C1 5C |           if_nz xcont   m_border,border                 ' display a left border
05bc8     90 4C 19 F2 |                 cmp     fontline,cursorsh wcz           ' if the cursor have to be not displayed due to its shape
05bcc     81 28 05 C6 |           if_c  mov     cursorpos,#129                  ' move it out of the screen
05bd0     95 28 01 36 |          if_nc  mov     cursorpos,cursorpos2
05bd4     01 28 05 F1 |                 add     cursorpos,#1                    ' we will substract #1 below so compensate this here
05bd8     96 50 01 F6 |                 mov     t2,fontstart                    ' font definition pointer
05bdc     A6 50 01 F1 |                 add     t2,fontline                     ' add a current font line
05be0     8B 28 D8 FC |                 rep     @p103,i_cpl                     ' display cpl chars
05be4                 | ''---------------------------------------------------------------------------------------
05be4     A3 52 01 FB |                         rdlong  char,framebuf2          ' read a long char                          '1
05be8     A9 54 F1 F8 |                         getbyte backcolor,char,#2       ' byte #2 - background color                '2
05bec     A9 56 F9 F8 |                         getbyte charcolor,char,#3       ' byte #3 - foreground color                '3
05bf0     A9 52 E1 F8 |                         getbyte char,char, #0           ' byte #0 - char code                       '4
05bf4     04 46 05 F1 |                         add     framebuf2,#4            ' point to the next long                    '5
05bf8     04 52 65 F0 |                         shl     char,#4                 ' 1 char=16 bytes in font def               '6
05bfc     A8 52 01 F1 |                         add     char,t2                 ' add this to font/line pointer             '7
05c00     A9 4E C1 FA |                         rdbyte  t1,char                 ' and get 8 pixels prom there               '8
05c04     01 28 8D F1 |                         sub     cursorpos,#1 wz         ' if there is a cursor                      '9
05c08     FF 4E 65 A5 |                 if_z    xor     t1, #$FF                ' reverse the colors                        '10
05c0c                 |                                                  ' prepare to sprite function, not yet implemented
05c0c     61 4E 61 FD |                         mergeb  t1                                              ' convert to 16-color mode                                      '11
05c10     A7 0A C1 FC |                         xcont   m_lut1,t1               ' and display this                          '12
05c14                 | 
05c14     AA 4E A1 FA |                         rdlut   t1,backcolor            ' read a background color from palette      '13
05c18     8F 4E 31 FC |                         wrlut   t1,lutaddr              ' and write it to LUT #0 or #32             '14
05c1c     01 1E 05 F1 |                         add     lutaddr,#1                                                          '15
05c20                 | 
05c20     AB 4E A1 FA |                         rdlut   t1,charcolor            ' the same for the foreground               '16
05c24     8F 4E 31 FC |                         wrlut   t1,lutaddr                                                          '17
05c28     01 1E 85 F1 |                         sub     lutaddr,#1                                                          '18
05c2c                 | 
05c2c     10 0A E5 F4 |                         bitnot  m_lut1,#16                                                          '19
05c30     20 1E 65 F5 |                         xor     lutaddr,#32             ' use LUT #0-1 and 32-33                    '20
05c34                 | 
05c34                 | '------------------------ only 8 nops left :(
05c34                 | 
05c34                 | '' rep end ----------------------------------------------------------------------------
05c34                 | 
05c34                 | 
05c34     84 4E 31 F9 | p103            getword t1,m_border,#0
05c38     00 4E 0D F2 |                 cmp     t1, #0 wz
05c3c     7F 08 C1 5C |                 if_nz xcont   m_border,border            'display a right border if exists
05c40                 | 
05c40     01 1C 05 F1 |                 add     linenum, #1
05c44     CD 45 6D FB |                 djnz    ii,#line1                       ' and goto next line if not all were displayed
05c48                 | 
05c48                 | '' end of active screen
05c48                 | 
05c48     9A 02 68 FC |                 wrlong  #1,vblankptr
05c4c     86 44 09 F6 |                 mov     ii,i_vborder wz                  'make a lower border if exists
05c50     18 00 90 AD |           if_z jmp #p112
05c54                 | 
05c54     A1 FE 00 FB |                  rdlong  border,borderptr2
05c58     04 42 05 F1 |                  add     borderptr2,#4
05c5c     08 FE 64 F0 |                  shl     border,#8
05c60     2C 00 B0 FD | down_border      call    #hsync
05c64     7F 06 C1 FC |                  xcont   m_vi,border
05c68     FD 45 6D FB |                  djnz    ii,#down_border
05c6c                 | 
05c6c     05 12 45 FB | p112             callpa  i_downporch ,#blank             'bottom blanks
05c70                 | 
05c70     7D 48 01 F6 |                  mov     hsync0,sync_222                 'vsync on
05c74     7E 4A 01 F6 |                  mov     hsync1,sync_223
05c78     02 10 45 FB |                  callpa  i_vsync,#blank                  'vertical sync blanks
05c7c     68 FE 9F FD |                  jmp     #p101                            'loop
05c80                 | 
05c80                 | 
05c80                 | ' The bitmap driver will start here
05c80     78 FE 9F FD | p200                     jmp    #p901
05c84                 | 
05c84                 | 
05c84                 | '--------------------------------------------------------------------------
05c84                 | 
05c84                 | 
05c84                 | 
05c84     08 00 B0 FD | blank           call    #hsync                          'blank lines
05c88     A4 06 C1 FC |                 xcont   m_vi,hsync0
05c8c     FD ED 6F 0B |         _ret_   djnz    pa,#blank
05c90                 | 
05c90     A4 00 C1 FC | hsync           xcont   m_bs,hsync0                     'horizontal sync
05c94     A5 02 B1 FC |                 xzero   m_sn,hsync1
05c98     A4 04 C1 0C |         _ret_   xcont   m_bv,hsync0
05c9c                 | 
05c9c                 | '' consts and vars
05c9c                 | 
05c9c     52 4D 35 D5 | sync_000        long    %1101010100_1101010100_1101010100_10    '
05ca0     AE 42 35 D5 | sync_001        long    %1101010100_1101010100_0010101011_10    '        hsync
05ca4     52 45 15 55 | sync_222        long    %0101010100_0101010100_0101010100_10    'vsync
05ca8     AE 4A 15 55 | sync_223        long    %0101010100_0101010100_1010101011_10    'vsync + hsync
05cac                 | 
05cac     00 2C 1A 00 | border          long    %00000000_00011010_00101100_00000000
05cb0                 | 
05cb0                 | '------ these longs will be set by setmode function
05cb0                 | 
05cb0     00 00 00 00 | m_bs            long    0        'blanks before sync
05cb4     00 00 00 00 | m_sn            long    0        'sync
05cb8     00 00 00 00 | m_bv            long    0        'blanks before visible
05cbc     00 00 00 00 | m_vi            long    0        'visible pixels #
05cc0     00 00 00 00 | m_border        long    0        'left/right borders
05cc4     00 00 00 00 | m_lut1          long    0        'characters
05cc8     00 00 00 00 | i_vborder       long    0        'up/down borders
05ccc     00 00 00 00 | i_upporch       long    0        'up porch lines
05cd0     00 00 00 00 | i_vsync         long    0        'vsync lines
05cd4     00 00 00 00 | i_downporch     long    0        'down porch lines
05cd8     00 00 00 00 | i_modenum       long    0        'mode #
05cdc     00 00 00 00 | i_cpl               long    0        'chars per line
05ce0     00 00 00 00 | i_lines         long    0        'scanlines #
05ce4                 | 
05ce4     00 00 00 00 | linestart       long    0
05ce8     00 00 00 00 | linenum         long    0
05cec     00 01 00 00 | lutaddr         long    256
05cf0                 | 
05cf0     0E 00 00 00 | cursorsh        long    14
05cf4     00 00 00 00 | frames          long    0
05cf8     00 00 00 00 | cursorx         long    0
05cfc     00 00 00 00 | cursory         long    0
05d00     00 00 00 00 | cursorpos       long    0
05d04     00 00 00 00 | cursorpos2      long    0
05d08     00 00 00 00 | fontstart       long    0
05d0c                 | 
05d0c                 | framebuf        res     1
05d0c                 | fontbuf         res     1
05d0c                 | borderptr       res     1
05d0c                 | vblankptr       res     1
05d0c                 | cursorptr       res     1
05d0c                 | modeptr         res     1
05d0c                 | paletteptr      res     1
05d0c                 | commandptr      res     1
05d0c                 | 
05d0c                 | fontnumptr      res     1
05d0c                 | hbase           res     1
05d0c                 | borderptr2      res     1
05d0c                 | 
05d0c                 | ii              res     1
05d0c                 | framebuf2       res     1
05d0c                 | hsync0          res     1
05d0c                 | hsync1          res     1
05d0c                 | fontline        res     1
05d0c                 | t1              res     1
05d0c                 | t2              res     1
05d0c                 | char            res     1
05d0c                 | backcolor       res     1
05d0c                 | charcolor       res     1
05d0c                 | repnum res 1
05d0c     00 00 00 00 | aend             long 0
05d10                 | objmem
05d10     00 00 00 00 | 	long	0[1]
05d14 07d             | 	org	COG_BSS_START
05d14 07d             | _var01
05d14 07d             | 	res	1
05d14 07e             | _var02
05d14 07e             | 	res	1
05d14 07f             | _var03
05d14 07f             | 	res	1
05d14 080             | _var04
05d14 080             | 	res	1
05d14 081             | _var05
05d14 081             | 	res	1
05d14 082             | _var06
05d14 082             | 	res	1
05d14 083             | _var07
05d14 083             | 	res	1
05d14 084             | arg01
05d14 084             | 	res	1
05d14 085             | arg02
05d14 085             | 	res	1
05d14 086             | arg03
05d14 086             | 	res	1
05d14 087             | arg04
05d14 087             | 	res	1
05d14 088             | arg05
05d14 088             | 	res	1
05d14 089             | arg06
05d14 089             | 	res	1
05d14 08a             | arg07
05d14 08a             | 	res	1
05d14 08b             | arg08
05d14 08b             | 	res	1
05d14 08c             | arg09
05d14 08c             | 	res	1
05d14 08d             | arg10
05d14 08d             | 	res	1
05d14 08e             | arg11
05d14 08e             | 	res	1
05d14 08f             | arg12
05d14 08f             | 	res	1
05d14 090             | arg13
05d14 090             | 	res	1
05d14 091             | arg14
05d14 091             | 	res	1
05d14 092             | arg15
05d14 092             | 	res	1
05d14 093             | arg16
05d14 093             | 	res	1
05d14 094             | arg17
05d14 094             | 	res	1
05d14 095             | arg18
05d14 095             | 	res	1
05d14 096             | local01
05d14 096             | 	res	1
05d14 097             | local02
05d14 097             | 	res	1
05d14 098             | local03
05d14 098             | 	res	1
05d14 099             | local04
05d14 099             | 	res	1
05d14 09a             | local05
05d14 09a             | 	res	1
05d14 09b             | local06
05d14 09b             | 	res	1
05d14 09c             | local07
05d14 09c             | 	res	1
05d14 09d             | local08
05d14 09d             | 	res	1
05d14 09e             | local09
05d14 09e             | 	res	1
05d14 09f             | local10
05d14 09f             | 	res	1
05d14 0a0             | local11
05d14 0a0             | 	res	1
05d14 0a1             | local12
05d14 0a1             | 	res	1
05d14 0a2             | local13
05d14 0a2             | 	res	1
05d14 0a3             | local14
05d14 0a3             | 	res	1
05d14 0a4             | local15
05d14 0a4             | 	res	1
05d14 0a5             | local16
05d14 0a5             | 	res	1
05d14 0a6             | local17
05d14 0a6             | 	res	1
05d14 0a7             | local18
05d14 0a7             | 	res	1
05d14 0a8             | local19
05d14 0a8             | 	res	1
05d14 0a9             | local20
05d14 0a9             | 	res	1
05d14 0aa             | local21
05d14 0aa             | 	res	1
05d14 0ab             | local22
05d14 0ab             | 	res	1
05d14 0ac             | local23
05d14 0ac             | 	res	1
05d14 0ad             | local24
05d14 0ad             | 	res	1
05d14 0ae             | local25
05d14 0ae             | 	res	1
05d14 0af             | local26
05d14 0af             | 	res	1
05d14 0b0             | local27
05d14 0b0             | 	res	1
05d14 0b1             | local28
05d14 0b1             | 	res	1
05d14 0b2             | local29
05d14 0b2             | 	res	1
05d14 0b3             | local30
05d14 0b3             | 	res	1
05d14 0b4             | local31
05d14 0b4             | 	res	1
05d14 0b5             | local32
05d14 0b5             | 	res	1
05d14 0b6             | local33
05d14 0b6             | 	res	1
05d14 0b7             | local34
05d14 0b7             | 	res	1
05d14 0b8             | local35
05d14 0b8             | 	res	1
05d14 0b9             | local36
05d14 0b9             | 	res	1
05d14 0ba             | local37
05d14 0ba             | 	res	1
05d14 0bb             | local38
05d14 0bb             | 	res	1
05d14 0bc             | local39
05d14 0bc             | 	res	1
05d14 0bd             | local40
05d14 0bd             | 	res	1
05d14 0be             | local41
05d14 0be             | 	res	1
05d14 0bf             | local42
05d14 0bf             | 	res	1
05d14 0c0             | local43
05d14 0c0             | 	res	1
05d14 0c1             | local44
05d14 0c1             | 	res	1
05d14 0c2             | local45
05d14 0c2             | 	res	1
05d14 0c3             | local46
05d14 0c3             | 	res	1
05d14 0c4             | local47
05d14 0c4             | 	res	1
05d14 0c5             | local48
05d14 0c5             | 	res	1
05d14 0c6             | local49
05d14 0c6             | 	res	1
05d14 0c7             | local50
05d14 0c7             | 	res	1
05d14 0c8             | local51
05d14 0c8             | 	res	1
05d14 0c9             | local52
05d14 0c9             | 	res	1
05d14 0ca             | local53
05d14 0ca             | 	res	1
05d14 0cb             | local54
05d14 0cb             | 	res	1
05d14 0cc             | local55
05d14 0cc             | 	res	1
05d14 0cd             | local56
05d14 0cd             | 	res	1
05d14 0ce             | local57
05d14 0ce             | 	res	1
05d14 0cf             | local58
05d14 0cf             | 	res	1
05d14 0d0             | local59
05d14 0d0             | 	res	1
05d14 0d1             | local60
05d14 0d1             | 	res	1
05d14 0d2             | local61
05d14 0d2             | 	res	1
05d14 0d3             | local62
05d14 0d3             | 	res	1
05d14 0d4             | local63
05d14 0d4             | 	res	1
05d14 0d5             | local64
05d14 0d5             | 	res	1
05d14 0d6             | local65
05d14 0d6             | 	res	1
05d14 0d7             | local66
05d14 0d7             | 	res	1
05d14 0d8             | local67
05d14 0d8             | 	res	1
05d14 0d9             | local68
05d14 0d9             | 	res	1
05d14 0da             | muldiva_
05d14 0da             | 	res	1
05d14 0db             | muldivb_
05d14 0db             | 	res	1
05d14 0dc             | 	fit	480