00000                 | 
00000                 | #line 1 "D:/Programowanie/ultibo-propeller/robuv001/hng025r3.p2asm"
00000                 | ' 
00000                 | ' 
00000                 | ' hdmi_base       = 0             'must be a multiple of 8
00000                 | con
00000                 | 	hdmi_base = 0
00000                 | ' _clkfreq        = 245_000_000    'start safe, hubset will do the rest. The clock will be changed to:
00000                 | 	_clkfreq = 245000000
00000                 | ' 
00000                 | ' ' 354_689_500   200x Atari 8-bit PAL,  50x Amiga PAL  - real settings: 49,869-> 354_693_878  - 1.0000123 - mode 0 and 192
00000                 | ' ' 357_954_500   200x Atari 8-bit NTSC, 50x Amiga NTSC - real settings: 49,877-> 357_959_184  - 1.0000131 - mode 256
00000                 | ' 
00000                 | ' ' 319_220_550   180x PAL  - real settings: 51,814-> 319_215_686 - 0.9999848 - mode 64
00000                 | ' ' 322_159_050   180x NTSC - real settings: 37,596-> 322_162_162 - 1.0000097 - mode 320 and 448
00000                 | ' 
00000                 | ' ' 283_751_600   160x PAL  - real settings: 64,908-> 283_750_000 - 0.9999944 - mode 128
00000                 | ' ' 286_363_600   160x NTSC - real settings: 22,315-> 286_363_636 - 1.0000001 - mode 384
00000                 | ' 
00000                 | ' ''--------- VGA DOS color definition constants
00000                 | ' 
00000                 | ' c_black         =    0
00000                 | 	c_black = 0
00000                 | ' c_blue          =  117
00000                 | 	c_blue = 117
00000                 | ' c_green         =  199
00000                 | 	c_green = 199
00000                 | ' c_cyan          =  149
00000                 | 	c_cyan = 149
00000                 | ' c_red           =   39
00000                 | 	c_red = 39
00000                 | ' c_magenta       =   71
00000                 | 	c_magenta = 71
00000                 | ' c_brown         =  246
00000                 | 	c_brown = 246
00000                 | ' c_lightgray     =   10
00000                 | 	c_lightgray = 10
00000                 | ' c_darkgray      =    5
00000                 | 	c_darkgray = 5
00000                 | ' c_lightblue     =  121
00000                 | 	c_lightblue = 121
00000                 | ' c_lightgreen    =  203
00000                 | 	c_lightgreen = 203
00000                 | ' c_lightcyan     =  155
00000                 | 	c_lightcyan = 155
00000                 | ' c_lightred      =   43
00000                 | 	c_lightred = 43
00000                 | ' c_lightmagenta  =   75
00000                 | 	c_lightmagenta = 75
00000                 | ' c_yellow        =  234
00000                 | 	c_yellow = 234
00000                 | ' c_white         =   15
00000                 | 	c_white = 15
00000                 | ' 
00000                 | ' timingsxxt      =  $70810000
00000                 | 	timingsxxt = 1887502336
00000                 | dat
00000 000 00 00 00 00 | 	nop
00004 001 01 EC 63 FD | 	cogid	pa
00008 002 02 00 00 FF 
0000c 003 04 EC E7 FC | 	coginit	pa,##$404
00010                 | 	orgh	$10
00010     00 00 00 00 | 	long	0	'reserved
00014     00 00 00 00 | 	long	0 ' clock frequency: will default to 245000000
00018     00 00 00 00 | 	long	0 ' clock mode: will default to $10c30fb
0001c     00 00 00 00 
      ...             
003f8     00 00 00 00 
003fc     00 00 00 00 | 	orgh	$400
00400     00 B6 05 06 |  _ret_	mov	result1, #0
00404 000             | 	org	0
00404 000             | entry
00404 000 00 F0 0F F2 | 	cmp	ptra, #0 wz
00408 001 14 02 90 5D |  if_ne	jmp	#spininit
0040c 002 D3 F0 03 F6 | 	mov	ptra, objptr
00410 003 EC F0 07 F1 | 	add	ptra, #236
00414 004 14 EC 0F FB | 	rdlong	pa, #20 wz
00418 005 E8 01 90 5D |  if_ne	jmp	#skip_clock_set_
0041c 006 00 00 64 FD | 	hubset	#0
00420 007 18 86 80 FF 
00424 008 00 F0 65 FD | 	hubset	##17576184
00428 009 86 01 80 FF 
0042c 00a 1F 80 66 FD | 	waitx	##200000
00430 00b 18 86 00 FF 
00434 00c FB EC 07 F6 | 	mov	pa, ##17576187
00438 00d 00 EC 63 FD | 	hubset	pa
0043c 00e 18 EC 67 FC | 	wrlong	pa, #24
00440 00f 33 4D 87 FF 
00444 010 14 80 6E FC | 	wrlong	##245000000, #20
00448 011 B8 01 90 FD | 	jmp	#skip_clock_set_
0044c 012 00 00 00 00 
      ...             
005fc 07e 00 00 00 00 
00600 07f 00 00 00 00 | 	orgf	128
00604 080             | skip_clock_set_
00604 080 04 A0 61 FD | 	locknew	__lockreg
00608 081 D4 A0 61 FC | 	wrlong	__lockreg, ptr___lockreg_
0060c 082 78 07 A0 FD | 	call	#_dummy
00610 083             | cogexit
00610 083 38 01 80 FF 
00614 084 1F 00 66 FD | 	waitx	##160000
00618 085 01 18 62 FD | 	cogid	arg01
0061c 086 03 18 62 FD | 	cogstop	arg01
00620 087             | spininit
00620 087 00 A7 05 FB | 	rdlong	objptr, ptra
00624 088 04 F0 07 F1 | 	add	ptra, #4
00628 089 00 B7 05 FB | 	rdlong	result1, ptra
0062c 08a 04 F0 07 F1 | 	add	ptra, #4
00630 08b 00 19 06 FB | 	rdlong	arg01, ptra
00634 08c 04 F0 07 F1 | 	add	ptra, #4
00638 08d 00 1B 06 FB | 	rdlong	arg02, ptra
0063c 08e 04 F0 07 F1 | 	add	ptra, #4
00640 08f 00 1D 06 FB | 	rdlong	arg03, ptra
00644 090 04 F0 07 F1 | 	add	ptra, #4
00648 091 00 1F 06 FB | 	rdlong	arg04, ptra
0064c 092 10 F0 87 F1 | 	sub	ptra, #16
00650 093 2D B6 61 FD | 	call	result1
00654 094 B8 FF 9F FD | 	jmp	#cogexit
00658 095             | FCACHE_LOAD_
00658 095 2B 42 61 FD |     pop	fcache_tmpb_
0065c 096 F6 43 01 F1 |     add	fcache_tmpb_, pa
00660 097 2A 42 61 FD |     push	fcache_tmpb_
00664 098 F6 43 81 F1 |     sub	fcache_tmpb_, pa
00668 099 02 EC 47 F0 |     shr	pa, #2
0066c 09a 00 EC 8F F9 |     altd	pa
00670 09b A0 00 00 F6 |     mov	 0-0, ret_instr_
00674 09c 01 EC 87 F1 |     sub	pa, #1
00678 09d 28 EC 63 FD |     setq	pa
0067c 09e A1 00 00 FB |     rdlong	$0, fcache_tmpb_
00680 09f 00 00 80 FD |     jmp	#\$0 ' jmp to cache
00684 0a0             | ret_instr_
00684 0a0 2D 00 64 FD |     ret
00688 0a1             | fcache_tmpb_
00688 0a1 00 00 00 00 |     long 0
0068c 0a2             | COUNT_
0068c 0a2 00 00 00 00 |     long 0
00690 0a3             | RETADDR_
00690 0a3 00 00 00 00 |     long 0
00694 0a4             | fp
00694 0a4 00 00 00 00 |     long 0
00698 0a5             | pushregs_
00698 0a5 2B EC 63 FD |     pop  pa
0069c 0a6 2B 46 61 FD |     pop  RETADDR_
006a0 0a7 04 44 95 FB |     tjz  COUNT_, #pushregs_done_
006a4 0a8 01 44 85 F1 |     sub  COUNT_, #1
006a8 0a9 28 44 61 FD |     setq COUNT_
006ac 0aa 00 23 66 FC |     wrlong local01, ptra
006b0 0ab 01 44 05 F1 |     add  COUNT_, #1
006b4 0ac             | pushregs_done_
006b4 0ac 02 44 65 F0 |     shl  COUNT_, #2
006b8 0ad A2 F0 03 F1 |     add  ptra, COUNT_
006bc 0ae 02 44 45 F0 |     shr  COUNT_, #2
006c0 0af 28 04 64 FD |     setq #2 ' push 3 registers starting at COUNT_
006c4 0b0 00 45 65 FC |     wrlong COUNT_, ptra
006c8 0b1 0C F0 07 F1 |     add    ptra, #12
006cc 0b2 F8 49 01 F6 |     mov    fp, ptra
006d0 0b3 2C EC 63 FD |     jmp  pa
006d4 0b4             |  popregs_
006d4 0b4 2B EC 63 FD |     pop    pa
006d8 0b5 0C F0 87 F1 |     sub    ptra, #12
006dc 0b6 28 04 64 FD |     setq   #2
006e0 0b7 00 45 05 FB |     rdlong COUNT_, ptra
006e4 0b8 06 44 95 FB |     tjz    COUNT_, #popregs__ret
006e8 0b9 02 44 65 F0 |     shl    COUNT_, #2
006ec 0ba A2 F0 83 F1 |     sub    ptra, COUNT_
006f0 0bb 02 44 45 F0 |     shr    COUNT_, #2
006f4 0bc 01 44 85 F1 |     sub    COUNT_, #1
006f8 0bd 28 44 61 FD |     setq   COUNT_
006fc 0be 00 23 06 FB |     rdlong local01, ptra
00700 0bf             | popregs__ret
00700 0bf 2A 46 61 FD |     push   RETADDR_
00704 0c0 2C EC 63 FD |     jmp    pa
00708 0c1             | 
00708 0c1             | unsdivide_
00708 0c1 28 00 64 FD |        setq    #0
0070c 0c2 3F 7D 12 FD |        qdiv    muldiva_, muldivb_
00710 0c3 18 7E 62 FD |        getqx   muldivb_
00714 0c4 19 7C 62 0D |  _ret_ getqy   muldiva_
00718 0c5             | 
00718 0c5             | divide_
00718 0c5 3E 7D 52 F6 |        abs     muldiva_,muldiva_     wc       'abs(x)
0071c 0c6 03 A4 85 F5 |        muxc    itmp2_,#%11                    'store sign of x
00720 0c7 3F 7F 5A F6 |        abs     muldivb_,muldivb_     wcz      'abs(y)
00724 0c8 02 A4 65 C5 |  if_c  xor     itmp2_,#%10                    'store sign of y
00728 0c9 2D 00 64 AD |  if_z  ret
0072c 0ca D8 FF BF FD |        call    #unsdivide_
00730 0cb 01 A4 D5 F7 |        test    itmp2_,#1        wc       'restore sign, remainder
00734 0cc 3E 7D 82 F6 |        negc    muldiva_,muldiva_ 
00738 0cd 02 A4 D5 F7 |        test    itmp2_,#%10      wc       'restore sign, division result
0073c 0ce 3F 7F 82 06 |  _ret_ negc    muldivb_,muldivb_
00740 0cf             | 
00740 0cf             | __heap_ptr
00740 0cf A0 5C 00 00 | 	long	@__heap_base
00744 0d0             | __lockreg
00744 0d0 00 00 00 00 | 	long	0
00748 0d1             | itmp1_
00748 0d1 00 00 00 00 | 	long	0
0074c 0d2             | itmp2_
0074c 0d2 00 00 00 00 | 	long	0
00750 0d3             | objptr
00750 0d3 A8 6C 00 00 | 	long	@objmem
00754 0d4             | ptr___lockreg_
00754 0d4 44 07 00 00 | 	long	@__lockreg
00758 0d5             | ptr___system__dat__
00758 0d5 90 5C 00 00 | 	long	@__system__dat_
0075c 0d6             | ptr__dat__
0075c 0d6 E8 37 00 00 | 	long	@_dat_
00760 0d7             | ptr__putpixel1_
00760 0d7 B4 1A 00 00 | 	long	@_putpixel1
00764 0d8             | ptr__putpixel2_
00764 0d8 9C 1B 00 00 | 	long	@_putpixel2
00768 0d9             | ptr__putpixel4_
00768 0d9 74 1C 00 00 | 	long	@_putpixel4
0076c 0da             | ptr__putpixel8_
0076c 0da 4C 1D 00 00 | 	long	@_putpixel8
00770 0db             | result1
00770 0db 00 00 00 00 | 	long	0
00774 0dc             | result2
00774 0dc 00 00 00 00 | 	long	0
00778 0dd             | COG_BSS_START
00778 0dd             | 	fit	480
00778                 | 	orgh
00778                 | hubentry
00778                 | 
00778                 | ' 
00778                 | ' 
00778                 | ' ''--------- timings
00778                 | ' ' 0  m_bs        - before sync,             16      80
00778                 | ' ' 1  m_sn        - sync                     80     160
00778                 | ' ' 2  m_bv        - before visible           20      84
00778                 | ' ' 3  m_vi        - visible                1024     816
00778                 | ' ' 4  m_border    - left and right borders  112       8
00778                 | ' ' 5  m_lut1      - pixels per char           8       8
00778                 | ' ' 6  i_vborder   - up and down border       48       8
00778                 | ' ' 7  i_upporch   - up non visible           16       8
00778                 | ' ' 8  i_vsync     - vsync                    16      12
00778                 | ' ' 9  i_downporch - down non visible         16       8
00778                 | ' '10  mode #
00778                 | ' '11  cpl         - character per line
00778                 | ' '12  scanlines #
00778                 | ' '13  clock
00778                 | ' '14  hubset value for clock settings
00778                 | ' 
00778                 | ' 
00778                 | ' '*************************************************************************
00778                 | ' '                                                                        *
00778                 | ' '  A dummy start function if someone runs this driver alone              *
00778                 | ' '                                                                        *
00778                 | ' '*************************************************************************
00778                 | ' 
00778                 | ' pub dummy()|i,x,y,ntsc,bbb,ccc,zzx,zzy,amode,x1,x2,y1,y2,r
00778                 | _dummy
00778     2D 44 05 F6 | 	mov	COUNT_, #45
0077c     A5 00 A0 FD | 	call	#pushregs_
00780                 | ' '' this is not a main program.
00780                 | ' 
00780                 | ' start(512+0+48,hdmi_base)
00780     01 00 00 FF 
00784     30 22 06 F6 | 	mov	local01, ##560
00788     2C A6 05 F1 | 	add	objptr, #44
0078c     D3 24 02 F6 | 	mov	local02, objptr
00790                 | ' 
00790                 | ' ' initialize pointers and variables
00790                 | ' 
00790                 | ' border_ptr:=@bordercolor
00790     24 A6 85 F1 | 	sub	objptr, #36
00794     D3 24 62 FC | 	wrlong	local02, objptr
00798     08 00 00 FF 
0079c     00 AC 05 F1 | 	add	ptr__dat__, ##4096
007a0                 | ' font_ptr:=@st_font
007a0     04 A6 85 F1 | 	sub	objptr, #4
007a4     D3 AC 61 FC | 	wrlong	ptr__dat__, objptr
007a8                 | ' hdmibase:=base
007a8     20 A6 05 F1 | 	add	objptr, #32
007ac     D3 00 68 FC | 	wrlong	#0, objptr
007b0     24 A6 85 F1 | 	sub	objptr, #36
007b4     D7 1A 02 F6 | 	mov	arg02, ptr__putpixel1_
007b8                 | ' p1:=@putpixel1
007b8     D3 18 02 F6 | 	mov	arg01, objptr
007bc     08 00 00 FF 
007c0     00 AC 85 F1 | 	sub	ptr__dat__, ##4096
007c4     10 25 B0 FD | 	call	#__system___make_methodptr
007c8     DB 26 02 F6 | 	mov	local03, result1
007cc     DC A6 05 F1 | 	add	objptr, #220
007d0     D3 26 62 FC | 	wrlong	local03, objptr
007d4     DC A6 85 F1 | 	sub	objptr, #220
007d8     D8 1A 02 F6 | 	mov	arg02, ptr__putpixel2_
007dc                 | ' p2:=@putpixel2
007dc     D3 18 02 F6 | 	mov	arg01, objptr
007e0     F4 24 B0 FD | 	call	#__system___make_methodptr
007e4     DB 26 02 F6 | 	mov	local03, result1
007e8     E0 A6 05 F1 | 	add	objptr, #224
007ec     D3 26 62 FC | 	wrlong	local03, objptr
007f0     E0 A6 85 F1 | 	sub	objptr, #224
007f4     D9 1A 02 F6 | 	mov	arg02, ptr__putpixel4_
007f8                 | ' p4:=@putpixel4
007f8     D3 18 02 F6 | 	mov	arg01, objptr
007fc     D8 24 B0 FD | 	call	#__system___make_methodptr
00800     DB 26 02 F6 | 	mov	local03, result1
00804     E4 A6 05 F1 | 	add	objptr, #228
00808     D3 26 62 FC | 	wrlong	local03, objptr
0080c     E4 A6 85 F1 | 	sub	objptr, #228
00810     DA 1A 02 F6 | 	mov	arg02, ptr__putpixel8_
00814                 | ' p8:=@putpixel8
00814     D3 18 02 F6 | 	mov	arg01, objptr
00818     BC 24 B0 FD | 	call	#__system___make_methodptr
0081c     DB 26 02 F6 | 	mov	local03, result1
00820     E8 A6 05 F1 | 	add	objptr, #232
00824     D3 26 62 FC | 	wrlong	local03, objptr
00828     E8 A6 85 F1 | 	sub	objptr, #232
0082c                 | ' 
0082c                 | ' 
0082c                 | ' ' the mode has to be set here to enable computing the buffer length
0082c                 | ' 
0082c                 | ' setmode(mode)
0082c     01 00 00 FF 
00830     30 18 06 F6 | 	mov	arg01, ##560
00834     6C 18 B0 FD | 	call	#_setmode
00838     40 A6 05 F1 | 	add	objptr, #64
0083c     D3 28 02 F6 | 	mov	local04, objptr
00840                 | ' 
00840                 | ' vblank_ptr:=@vblank
00840     34 A6 85 F1 | 	sub	objptr, #52
00844     D3 28 62 FC | 	wrlong	local04, objptr
00848     28 A6 05 F1 | 	add	objptr, #40
0084c     D3 2A 02 F6 | 	mov	local05, objptr
00850                 | ' cursor_ptr:=@cursor_x
00850     24 A6 85 F1 | 	sub	objptr, #36
00854     D3 2A 62 FC | 	wrlong	local05, objptr
00858     88 A6 05 F1 | 	add	objptr, #136
0085c     D3 2C 02 F6 | 	mov	local06, objptr
00860                 | ' 
00860                 | ' fontnum_ptr:=@fontnum
00860     78 A6 85 F1 | 	sub	objptr, #120
00864     D3 2C 62 FC | 	wrlong	local06, objptr
00868                 | ' 
00868                 | ' fontnum:=0  ' PC type font ' TODO: font# in buffer byte #1
00868     78 A6 05 F1 | 	add	objptr, #120
0086c     D3 00 68 FC | 	wrlong	#0, objptr
00870     1C A6 05 F1 | 	add	objptr, #28
00874     D3 18 02 F6 | 	mov	arg01, objptr
00878     B4 A6 85 F1 | 	sub	objptr, #180
0087c     0F 00 00 FF 
00880     98 AC 05 F1 | 	add	ptr__dat__, ##7832
00884     D6 1A 02 F6 | 	mov	arg02, ptr__dat__
00888     0F 00 00 FF 
0088c     98 AC 85 F1 | 	sub	ptr__dat__, ##7832
00890                 | ' bytemove(@colors,@vgacolors,16)
00890     10 1C 06 F6 | 	mov	arg03, #16
00894     18 23 B0 FD | 	call	#__system____builtin_memmove
00898                 | ' 
00898                 | ' ' initialize a cursor
00898                 | ' 
00898                 | ' cursor_x:=0
00898     34 A6 05 F1 | 	add	objptr, #52
0089c     D3 00 48 FC | 	wrbyte	#0, objptr
008a0                 | ' cursor_y:=0
008a0     01 A6 05 F1 | 	add	objptr, #1
008a4     D3 00 48 FC | 	wrbyte	#0, objptr
008a8                 | ' cursor_sh:=14
008a8     01 A6 05 F1 | 	add	objptr, #1
008ac     D3 1C 48 FC | 	wrbyte	#14, objptr
008b0     36 A6 85 F1 | 	sub	objptr, #54
008b4                 | ' 
008b4                 | ' 
008b4                 | ' ' start the cog
008b4                 | ' 
008b4                 | ' cog:=coginit(16,@hdmi, @buf_ptr)
008b4     0F 00 00 FF 
008b8     A8 AC 05 F1 | 	add	ptr__dat__, ##7848
008bc     D6 1A 02 F6 | 	mov	arg02, ptr__dat__
008c0     0F 00 00 FF 
008c4     A8 AC 85 F1 | 	sub	ptr__dat__, ##7848
008c8     D3 1C 02 F6 | 	mov	arg03, objptr
008cc     10 18 06 F6 | 	mov	arg01, #16
008d0     28 1C 62 FD | 	setq	arg03
008d4     0D 19 F2 FC | 	coginit	arg01, arg02 wc
008d8     01 18 66 C6 |  if_b	neg	arg01, #1
008dc     0C B7 01 F6 | 	mov	result1, arg01
008e0     DB 2E 02 F6 | 	mov	local07, result1
008e4     28 A6 05 F1 | 	add	objptr, #40
008e8     D3 2E 62 FC | 	wrlong	local07, objptr
008ec     28 A6 85 F1 | 	sub	objptr, #40
008f0                 | ' waitms(20)
008f0     14 18 06 F6 | 	mov	arg01, #20
008f4     BC 24 B0 FD | 	call	#__system___waitms
008f8                 | ' 
008f8                 | ' ' clear the screen and set the colors to green on black
008f8                 | ' 
008f8                 | ' cls(c_green,c_black)
008f8     C7 18 06 F6 | 	mov	arg01, #199
008fc     00 1A 06 F6 | 	mov	arg02, #0
00900     40 15 B0 FD | 	call	#_cls
00904                 | ' setbordercolor(0,0,128)
00904     0F 1C C6 F9 | 	decod	arg03, #15
00908                 | ' 
00908                 | ' color:=r<<24+g<<16+b<<8
00908                 | ' bordercolor:=color
00908     2C A6 05 F1 | 	add	objptr, #44
0090c     40 00 80 FF 
00910     D3 00 68 FC | 	wrlong	##32768, objptr
00914                 | ' setwritecolors(c_green,c_black)
00914                 | ' 
00914                 | ' 
00914                 | ' write_color:=ff
00914     0C A6 05 F1 | 	add	objptr, #12
00918     D3 8E 69 FC | 	wrlong	#199, objptr
0091c                 | ' write_background:=bb
0091c     04 A6 05 F1 | 	add	objptr, #4
00920     D3 00 68 FC | 	wrlong	#0, objptr
00924                 | ' 
00924                 | ' return cog
00924     14 A6 85 F1 | 	sub	objptr, #20
00928     D3 B6 01 FB | 	rdlong	result1, objptr
0092c     28 A6 85 F1 | 	sub	objptr, #40
00930                 | ' 
00930                 | ' cls(147,154)
00930     93 18 06 F6 | 	mov	arg01, #147
00934     9A 1A 06 F6 | 	mov	arg02, #154
00938     08 15 B0 FD | 	call	#_cls
0093c                 | ' setfontfamily(0)
0093c                 | ' 
0093c                 | ' font_family:=afontnum
0093c     C8 A6 05 F1 | 	add	objptr, #200
00940     D3 00 68 FC | 	wrlong	#0, objptr
00944     C8 A6 85 F1 | 	sub	objptr, #200
00948                 | ' waitvbl(100)
00948     64 18 06 F6 | 	mov	arg01, #100
0094c     80 14 B0 FD | 	call	#_waitvbl
00950                 | ' outtextxycg(0,0,inttostr(long[0]),154,147)
00950     00 30 06 F6 | 	mov	local08, #0
00954     00 32 06 F6 | 	mov	local09, #0
00958     00 18 06 FB | 	rdlong	arg01, #0
0095c     34 16 B0 FD | 	call	#_inttostr
00960     DB 1C 02 F6 | 	mov	arg03, result1
00964     18 19 02 F6 | 	mov	arg01, local08
00968     19 1B 02 F6 | 	mov	arg02, local09
0096c     9A 1E 06 F6 | 	mov	arg04, #154
00970     93 20 06 F6 | 	mov	arg05, #147
00974     9C 10 B0 FD | 	call	#_outtextxycg
00978                 | ' waitvbl(300)
00978     2C 19 06 F6 | 	mov	arg01, #300
0097c     50 14 B0 FD | 	call	#_waitvbl
00980                 | ' maketestdl(512+48)
00980     01 00 00 FF 
00984     30 18 06 F6 | 	mov	arg01, ##560
00988                 | ' 
00988                 | ' 
00988                 | ' 
00988                 | ' 
00988                 | ' if (mode &256==0)
00988     00 19 CE F7 | 	test	arg01, #256 wz
0098c     1C 00 90 5D |  if_ne	jmp	#LR__0001
00990     D3 34 02 FB | 	rdlong	local10, objptr
00994     04 00 00 FF 
00998     64 35 86 F1 | 	sub	local10, ##2404
0099c                 | '   dl_ptr:=buf_ptr-4*576-100
0099c     1C A6 05 F1 | 	add	objptr, #28
009a0     D3 34 62 FC | 	wrlong	local10, objptr
009a4     1C A6 85 F1 | 	sub	objptr, #28
009a8                 | ' else
009a8     18 00 90 FD | 	jmp	#LR__0002
009ac                 | LR__0001
009ac     D3 36 02 FB | 	rdlong	local11, objptr
009b0     04 00 00 FF 
009b4     24 36 86 F1 | 	sub	local11, ##2084
009b8                 | '   dl_ptr:=buf_ptr-4*496-100
009b8     1C A6 05 F1 | 	add	objptr, #28
009bc     D3 36 62 FC | 	wrlong	local11, objptr
009c0     1C A6 85 F1 | 	sub	objptr, #28
009c4                 | LR__0002
009c4                 | ' 
009c4                 | ' vzoom:=((mode>>2) & 3)
009c4                 | ' 
009c4                 | ' if (mode>=512)' and (mode & (%10_00_00_0000))==(%10_00_00_0000) ' graphics -> all modes TODO :mode 560+192=752 = 10_11_11_0000 impossib,e because out of memory
009c4     01 00 00 FF 
009c8     00 18 5E F2 | 	cmps	arg01, ##512 wcz
009cc     24 01 90 CD |  if_b	jmp	#LR__0008
009d0                 | ' 
009d0                 | '   if timings[6]>0 'borders
009d0     68 A6 05 F1 | 	add	objptr, #104
009d4     D3 38 02 FB | 	rdlong	local12, objptr
009d8     68 A6 85 F1 | 	sub	objptr, #104
009dc     00 38 5E F2 | 	cmps	local12, #0 wcz
009e0     10 01 90 ED |  if_be	jmp	#LR__0007
009e4                 | '     repeat i from 0 to timings[6]-1 '0 to -1
009e4     00 3A 06 F6 | 	mov	local13, #0
009e8     68 A6 05 F1 | 	add	objptr, #104
009ec     D3 3C 02 FB | 	rdlong	local14, objptr
009f0     68 A6 85 F1 | 	sub	objptr, #104
009f4     01 3C 86 F1 | 	sub	local14, #1
009f8     00 3C 5E F2 | 	cmps	local14, #0 wcz
009fc     01 3E 06 16 |  if_a	mov	local15, #1
00a00     01 3E 66 E6 |  if_be	neg	local15, #1
00a04     1F 41 02 F6 | 	mov	local16, local15
00a08     1F 3D 02 F1 | 	add	local14, local15
00a0c     18 F6 9F FE | 	loc	pa,	#(@LR__0004-@LR__0003)
00a10     95 00 A0 FD | 	call	#FCACHE_LOAD_
00a14                 | LR__0003
00a14     1D 43 02 F6 | 	mov	local17, local13
00a18     02 42 66 F0 | 	shl	local17, #2
00a1c     1C A6 05 F1 | 	add	objptr, #28
00a20     D3 44 02 FB | 	rdlong	local18, objptr
00a24     1C A6 85 F1 | 	sub	objptr, #28
00a28     21 45 02 F1 | 	add	local18, local17
00a2c                 | '       long[dl_ptr+4*i]:=$0
00a2c     22 01 68 FC | 	wrlong	#0, local18
00a30     20 3B 02 F1 | 	add	local13, local16
00a34     1E 3B 0A F2 | 	cmp	local13, local14 wz
00a38     D8 FF 9F 5D |  if_ne	jmp	#LR__0003
00a3c                 | LR__0004
00a3c                 | '     repeat i from timings[6] to timings[15]+20
00a3c     68 A6 05 F1 | 	add	objptr, #104
00a40     D3 3A 02 FB | 	rdlong	local13, objptr
00a44     24 A6 05 F1 | 	add	objptr, #36
00a48     D3 46 02 FB | 	rdlong	local19, objptr
00a4c     14 46 06 F1 | 	add	local19, #20
00a50     24 A6 85 F1 | 	sub	objptr, #36
00a54     D3 48 02 FB | 	rdlong	local20, objptr
00a58     68 A6 85 F1 | 	sub	objptr, #104
00a5c     24 47 5A F2 | 	cmps	local19, local20 wcz
00a60     01 4A 06 16 |  if_a	mov	local21, #1
00a64     01 4A 66 E6 |  if_be	neg	local21, #1
00a68     25 4D 02 F6 | 	mov	local22, local21
00a6c     25 47 02 F1 | 	add	local19, local21
00a70     B4 F5 9F FE | 	loc	pa,	#(@LR__0006-@LR__0005)
00a74     95 00 A0 FD | 	call	#FCACHE_LOAD_
00a78                 | LR__0005
00a78     1D 4F 02 F6 | 	mov	local23, local13
00a7c     02 4E 66 F0 | 	shl	local23, #2
00a80     1C A6 05 F1 | 	add	objptr, #28
00a84     D3 50 02 FB | 	rdlong	local24, objptr
00a88     1C A6 85 F1 | 	sub	objptr, #28
00a8c     27 51 02 F1 | 	add	local24, local23
00a90                 | '       long[dl_ptr+4*i]:=$0
00a90     28 01 68 FC | 	wrlong	#0, local24
00a94     26 3B 02 F1 | 	add	local13, local22
00a98     23 3B 0A F2 | 	cmp	local13, local19 wz
00a9c     D8 FF 9F 5D |  if_ne	jmp	#LR__0005
00aa0                 | LR__0006
00aa0                 | '     i:=timings[6]
00aa0     68 A6 05 F1 | 	add	objptr, #104
00aa4     D3 52 02 FB | 	rdlong	local25, objptr
00aa8     02 52 66 F0 | 	shl	local25, #2
00aac     4C A6 85 F1 | 	sub	objptr, #76
00ab0     D3 54 02 FB | 	rdlong	local26, objptr
00ab4     1C A6 85 F1 | 	sub	objptr, #28
00ab8     29 55 02 F1 | 	add	local26, local25
00abc                 | '       long[dl_ptr+4*i]:=%0001_1110_0000_0000_0011_0010_0000_0111  
00abc     19 00 8F FF 
00ac0     2A 0F 68 FC | 	wrlong	##503329287, local26
00ac4     D3 56 02 FB | 	rdlong	local27, objptr
00ac8     0C 56 66 F0 | 	shl	local27, #12
00acc     02 56 06 F1 | 	add	local27, #2
00ad0     30 18 06 F5 | 	and	arg01, #48
00ad4     02 18 46 F0 | 	shr	arg01, #2
00ad8     0C 57 02 F1 | 	add	local27, arg01
00adc     1C A6 05 F1 | 	add	objptr, #28
00ae0     D3 58 02 FB | 	rdlong	local28, objptr
00ae4     1C A6 85 F1 | 	sub	objptr, #28
00ae8     29 59 02 F1 | 	add	local28, local25
00aec     04 58 06 F1 | 	add	local28, #4
00af0                 | '       long[dl_ptr+4*i+4]:=(buf_ptr<<12)+2+(mode &48)>>2
00af0     2C 57 62 FC | 	wrlong	local27, local28
00af4                 | LR__0007
00af4                 | LR__0008
00af4                 | ' waitvbl(1200)
00af4     02 00 00 FF 
00af8     B0 18 06 F6 | 	mov	arg01, ##1200
00afc     D0 12 B0 FD | 	call	#_waitvbl
00b00                 | ' repeat i from 0 to 10000
00b00     13 00 00 FF 
00b04     11 5B 06 F6 | 	mov	local29, ##10001
00b08                 | LR__0009
00b08                 | '   ccc:=getrnd()&255
00b08     1B 5C 62 FD | 	getrnd	local30
00b0c     FF 5C 06 F5 | 	and	local30, #255
00b10                 | '   x1:=getrnd()+//896
00b10     1B B6 61 FD | 	getrnd	result1
00b14     DB 7C 02 F6 | 	mov	muldiva_, result1
00b18     01 00 00 FF 
00b1c     80 7F 06 F6 | 	mov	muldivb_, ##896
00b20     C1 00 A0 FD | 	call	#unsdivide_
00b24     3E 5F 02 F6 | 	mov	local31, muldiva_
00b28                 | '   x2:=getrnd()+//896
00b28     1B B6 61 FD | 	getrnd	result1
00b2c     DB 7C 02 F6 | 	mov	muldiva_, result1
00b30     01 00 00 FF 
00b34     80 7F 06 F6 | 	mov	muldivb_, ##896
00b38     C1 00 A0 FD | 	call	#unsdivide_
00b3c     3E 61 02 F6 | 	mov	local32, muldiva_
00b40                 | '   y1:=getrnd()+//496
00b40     1B B6 61 FD | 	getrnd	result1
00b44     DB 7C 02 F6 | 	mov	muldiva_, result1
00b48     F0 7F 06 F6 | 	mov	muldivb_, #496
00b4c     C1 00 A0 FD | 	call	#unsdivide_
00b50     3E 63 02 F6 | 	mov	local33, muldiva_
00b54                 | '   y2:=getrnd()+//496
00b54     1B B6 61 FD | 	getrnd	result1
00b58     DB 7C 02 F6 | 	mov	muldiva_, result1
00b5c     F0 7F 06 F6 | 	mov	muldivb_, #496
00b60     C1 00 A0 FD | 	call	#unsdivide_
00b64                 | ' 
00b64                 | ' 
00b64                 | '   line(x1,y1,x2,y2,ccc)
00b64     2F 19 02 F6 | 	mov	arg01, local31
00b68     31 1B 02 F6 | 	mov	arg02, local33
00b6c     30 1D 02 F6 | 	mov	arg03, local32
00b70     2E 21 02 F6 | 	mov	arg05, local30
00b74     3E 1F 02 F6 | 	mov	arg04, muldiva_
00b78     F4 0B B0 FD | 	call	#_line
00b7c     E2 5B 6E FB | 	djnz	local29, #LR__0009
00b80                 | ' 
00b80                 | ' repeat i from 0 to 1000
00b80     01 00 00 FF 
00b84     E9 5B 06 F6 | 	mov	local29, ##1001
00b88                 | LR__0010
00b88                 | ' 
00b88                 | '   x1:=getrnd()+//896
00b88     1B B6 61 FD | 	getrnd	result1
00b8c     DB 7C 02 F6 | 	mov	muldiva_, result1
00b90     01 00 00 FF 
00b94     80 7F 06 F6 | 	mov	muldivb_, ##896
00b98     C1 00 A0 FD | 	call	#unsdivide_
00b9c     3E 5F 02 F6 | 	mov	local31, muldiva_
00ba0                 | '   y1:=getrnd()+//496
00ba0     1B B6 61 FD | 	getrnd	result1
00ba4     DB 7C 02 F6 | 	mov	muldiva_, result1
00ba8     F0 7F 06 F6 | 	mov	muldivb_, #496
00bac     C1 00 A0 FD | 	call	#unsdivide_
00bb0     3E 63 02 F6 | 	mov	local33, muldiva_
00bb4                 | '   r:=getrnd()+//100
00bb4     1B B6 61 FD | 	getrnd	result1
00bb8     DB 7C 02 F6 | 	mov	muldiva_, result1
00bbc     64 7E 06 F6 | 	mov	muldivb_, #100
00bc0     C1 00 A0 FD | 	call	#unsdivide_
00bc4                 | '   ccc:=getrnd()&255
00bc4     1B B6 61 FD | 	getrnd	result1
00bc8     DB 1E 02 F6 | 	mov	arg04, result1
00bcc     FF 1E 06 F5 | 	and	arg04, #255
00bd0                 | '   fcircle(x1,y1,r,ccc)   
00bd0     2F 19 02 F6 | 	mov	arg01, local31
00bd4     31 1B 02 F6 | 	mov	arg02, local33
00bd8     3E 1D 02 F6 | 	mov	arg03, muldiva_
00bdc     5C 08 B0 FD | 	call	#_fcircle
00be0     E9 5B 6E FB | 	djnz	local29, #LR__0010
00be4                 | ' 
00be4                 | ' repeat i from 0 to 10000
00be4     13 00 00 FF 
00be8     11 5B 06 F6 | 	mov	local29, ##10001
00bec                 | LR__0011
00bec                 | '   ccc:=getrnd()&255
00bec     1B 5C 62 FD | 	getrnd	local30
00bf0     FF 5C 06 F5 | 	and	local30, #255
00bf4                 | '   x1:=getrnd()+//896
00bf4     1B B6 61 FD | 	getrnd	result1
00bf8     DB 7C 02 F6 | 	mov	muldiva_, result1
00bfc     01 00 00 FF 
00c00     80 7F 06 F6 | 	mov	muldivb_, ##896
00c04     C1 00 A0 FD | 	call	#unsdivide_
00c08     3E 5F 02 F6 | 	mov	local31, muldiva_
00c0c                 | '   x2:=getrnd()+//896
00c0c     1B B6 61 FD | 	getrnd	result1
00c10     DB 7C 02 F6 | 	mov	muldiva_, result1
00c14     01 00 00 FF 
00c18     80 7F 06 F6 | 	mov	muldivb_, ##896
00c1c     C1 00 A0 FD | 	call	#unsdivide_
00c20     3E 61 02 F6 | 	mov	local32, muldiva_
00c24                 | '   y1:=getrnd()+//496
00c24     1B B6 61 FD | 	getrnd	result1
00c28     DB 7C 02 F6 | 	mov	muldiva_, result1
00c2c     F0 7F 06 F6 | 	mov	muldivb_, #496
00c30     C1 00 A0 FD | 	call	#unsdivide_
00c34     3E 63 02 F6 | 	mov	local33, muldiva_
00c38                 | '   y2:=getrnd()+//496
00c38     1B B6 61 FD | 	getrnd	result1
00c3c     DB 7C 02 F6 | 	mov	muldiva_, result1
00c40     F0 7F 06 F6 | 	mov	muldivb_, #496
00c44     C1 00 A0 FD | 	call	#unsdivide_
00c48                 | ' 
00c48                 | ' 
00c48                 | '   frame(x1,y1,x2,y2,ccc)
00c48     2F 65 02 F6 | 	mov	local34, local31
00c4c     31 67 02 F6 | 	mov	local35, local33
00c50     30 69 02 F6 | 	mov	local36, local32
00c54     3E 6B 02 F6 | 	mov	local37, muldiva_
00c58     2E 6D 02 F6 | 	mov	local38, local30
00c5c                 | ' 
00c5c                 | ' line(x1,y1,x2,y1,c)
00c5c     32 19 02 F6 | 	mov	arg01, local34
00c60     33 1B 02 F6 | 	mov	arg02, local35
00c64     34 1D 02 F6 | 	mov	arg03, local36
00c68     33 1F 02 F6 | 	mov	arg04, local35
00c6c     36 21 02 F6 | 	mov	arg05, local38
00c70     FC 0A B0 FD | 	call	#_line
00c74                 | ' line(x1,y2,x2,y2,c)
00c74     32 19 02 F6 | 	mov	arg01, local34
00c78     35 1B 02 F6 | 	mov	arg02, local37
00c7c     34 1D 02 F6 | 	mov	arg03, local36
00c80     35 1F 02 F6 | 	mov	arg04, local37
00c84     36 21 02 F6 | 	mov	arg05, local38
00c88     E4 0A B0 FD | 	call	#_line
00c8c                 | ' line(x1,y1,x1,y2,c)
00c8c     32 19 02 F6 | 	mov	arg01, local34
00c90     33 1B 02 F6 | 	mov	arg02, local35
00c94     32 1D 02 F6 | 	mov	arg03, local34
00c98     35 1F 02 F6 | 	mov	arg04, local37
00c9c     36 21 02 F6 | 	mov	arg05, local38
00ca0     CC 0A B0 FD | 	call	#_line
00ca4                 | ' line(x2,y1,x2,y2,c)
00ca4     34 19 02 F6 | 	mov	arg01, local36
00ca8     33 1B 02 F6 | 	mov	arg02, local35
00cac     34 1D 02 F6 | 	mov	arg03, local36
00cb0     35 1F 02 F6 | 	mov	arg04, local37
00cb4     36 21 02 F6 | 	mov	arg05, local38
00cb8     B4 0A B0 FD | 	call	#_line
00cbc     CB 5B 6E FB | 	djnz	local29, #LR__0011
00cc0                 | '   
00cc0                 | ' repeat i from 0 to 10000
00cc0     13 00 00 FF 
00cc4     11 5B 06 F6 | 	mov	local29, ##10001
00cc8                 | LR__0012
00cc8                 | ' 
00cc8                 | '   x1:=getrnd()+//896
00cc8     1B B6 61 FD | 	getrnd	result1
00ccc     DB 7C 02 F6 | 	mov	muldiva_, result1
00cd0     01 00 00 FF 
00cd4     80 7F 06 F6 | 	mov	muldivb_, ##896
00cd8     C1 00 A0 FD | 	call	#unsdivide_
00cdc     3E 5F 02 F6 | 	mov	local31, muldiva_
00ce0                 | '   y1:=getrnd()+//496
00ce0     1B B6 61 FD | 	getrnd	result1
00ce4     DB 7C 02 F6 | 	mov	muldiva_, result1
00ce8     F0 7F 06 F6 | 	mov	muldivb_, #496
00cec     C1 00 A0 FD | 	call	#unsdivide_
00cf0     3E 63 02 F6 | 	mov	local33, muldiva_
00cf4                 | '   r:=getrnd()+//100
00cf4     1B B6 61 FD | 	getrnd	result1
00cf8     DB 7C 02 F6 | 	mov	muldiva_, result1
00cfc     64 7E 06 F6 | 	mov	muldivb_, #100
00d00     C1 00 A0 FD | 	call	#unsdivide_
00d04                 | '   ccc:=getrnd()&255
00d04     1B B6 61 FD | 	getrnd	result1
00d08     DB 1E 02 F6 | 	mov	arg04, result1
00d0c     FF 1E 06 F5 | 	and	arg04, #255
00d10                 | '   circle(x1,y1,r,ccc) 
00d10     2F 19 02 F6 | 	mov	arg01, local31
00d14     31 1B 02 F6 | 	mov	arg02, local33
00d18     3E 1D 02 F6 | 	mov	arg03, muldiva_
00d1c     38 08 B0 FD | 	call	#_circle
00d20     E9 5B 6E FB | 	djnz	local29, #LR__0012
00d24                 | '   
00d24                 | ' repeat i from 0 to 1000
00d24     01 00 00 FF 
00d28     E9 5B 06 F6 | 	mov	local29, ##1001
00d2c                 | LR__0013
00d2c                 | '   ccc:=getrnd()&255
00d2c     1B 5C 62 FD | 	getrnd	local30
00d30     FF 5C 06 F5 | 	and	local30, #255
00d34                 | '   x1:=getrnd()+//896
00d34     1B B6 61 FD | 	getrnd	result1
00d38     DB 7C 02 F6 | 	mov	muldiva_, result1
00d3c     01 00 00 FF 
00d40     80 7F 06 F6 | 	mov	muldivb_, ##896
00d44     C1 00 A0 FD | 	call	#unsdivide_
00d48     3E 5F 02 F6 | 	mov	local31, muldiva_
00d4c                 | '   x2:=getrnd()+//100
00d4c     1B B6 61 FD | 	getrnd	result1
00d50     DB 7C 02 F6 | 	mov	muldiva_, result1
00d54     64 7E 06 F6 | 	mov	muldivb_, #100
00d58     C1 00 A0 FD | 	call	#unsdivide_
00d5c     3E 61 02 F6 | 	mov	local32, muldiva_
00d60                 | '   y1:=getrnd()+//496
00d60     1B B6 61 FD | 	getrnd	result1
00d64     DB 7C 02 F6 | 	mov	muldiva_, result1
00d68     F0 7F 06 F6 | 	mov	muldivb_, #496
00d6c     C1 00 A0 FD | 	call	#unsdivide_
00d70     3E 63 02 F6 | 	mov	local33, muldiva_
00d74                 | '   y2:=getrnd()+//100
00d74     1B B6 61 FD | 	getrnd	result1
00d78     DB 7C 02 F6 | 	mov	muldiva_, result1
00d7c     64 7E 06 F6 | 	mov	muldivb_, #100
00d80     C1 00 A0 FD | 	call	#unsdivide_
00d84     2F 6F 02 F6 | 	mov	local39, local31
00d88     30 6F 02 F1 | 	add	local39, local32
00d8c     31 71 02 F6 | 	mov	local40, local33
00d90     3E 71 02 F1 | 	add	local40, muldiva_
00d94                 | ' 
00d94                 | ' 
00d94                 | '   box(x1,y1,x1+x2,y1+y2,ccc)  
00d94     2F 73 02 F6 | 	mov	local41, local31
00d98     31 75 02 F6 | 	mov	local42, local33
00d9c     2E 77 02 F6 | 	mov	local43, local30
00da0                 | ' 
00da0                 | ' repeat yy from y1 to y2
00da0     3A 71 5A F2 | 	cmps	local40, local42 wcz
00da4     01 78 06 16 |  if_a	mov	local44, #1
00da8     01 78 66 E6 |  if_be	neg	local44, #1
00dac     3C 71 02 F1 | 	add	local40, local44
00db0                 | LR__0014
00db0                 | '   line(x1,yy,x2,yy,c)
00db0     39 19 02 F6 | 	mov	arg01, local41
00db4     37 1D 02 F6 | 	mov	arg03, local39
00db8     3B 21 02 F6 | 	mov	arg05, local43
00dbc     3A 1B 02 F6 | 	mov	arg02, local42
00dc0     3A 1F 02 F6 | 	mov	arg04, local42
00dc4     A8 09 B0 FD | 	call	#_line
00dc8     3C 75 02 F1 | 	add	local42, local44
00dcc     38 75 0A F2 | 	cmp	local42, local40 wz
00dd0     DC FF 9F 5D |  if_ne	jmp	#LR__0014
00dd4     D5 5B 6E FB | 	djnz	local29, #LR__0013
00dd8                 | '       
00dd8                 | '   
00dd8                 | ' {
00dd8                 | ' }
00dd8                 | ' setfontfamily(4)
00dd8                 | ' 
00dd8                 | ' font_family:=afontnum
00dd8     C8 A6 05 F1 | 	add	objptr, #200
00ddc     D3 08 68 FC | 	wrlong	#4, objptr
00de0     C8 A6 85 F1 | 	sub	objptr, #200
00de4                 | ' repeat amode from 512 to 1023
00de4     09 7A C6 F9 | 	decod	local45, #9
00de8                 | LR__0015
00de8                 | '   setmode(amode)
00de8     3D 19 02 F6 | 	mov	arg01, local45
00dec     B4 12 B0 FD | 	call	#_setmode
00df0     3D 5D 02 F6 | 	mov	local30, local45
00df4     04 5C 46 F0 | 	shr	local30, #4
00df8     03 5C 0E F5 | 	and	local30, #3 wz
00dfc                 | '   ccc:=((amode>>4)&3)
00dfc                 | '   if (ccc==0)
00dfc     80 01 90 5D |  if_ne	jmp	#LR__0016
00e00                 | '     cls(0,1)
00e00     00 18 06 F6 | 	mov	arg01, #0
00e04     01 1A 06 F6 | 	mov	arg02, #1
00e08     38 10 B0 FD | 	call	#_cls
00e0c                 | '     outtextxycg(0,0,string("mode"),0,1)
00e0c     1B 00 00 FF 
00e10     6E 1D 06 F6 | 	mov	arg03, ##@LR__0214
00e14     00 18 06 F6 | 	mov	arg01, #0
00e18     00 1A 06 F6 | 	mov	arg02, #0
00e1c     00 1E 06 F6 | 	mov	arg04, #0
00e20     01 20 06 F6 | 	mov	arg05, #1
00e24     EC 0B B0 FD | 	call	#_outtextxycg
00e28                 | '     outtextxycg(0,16,string("cpl"),0,1)
00e28     1B 00 00 FF 
00e2c     73 1D 06 F6 | 	mov	arg03, ##@LR__0215
00e30     00 18 06 F6 | 	mov	arg01, #0
00e34     10 1A 06 F6 | 	mov	arg02, #16
00e38     00 1E 06 F6 | 	mov	arg04, #0
00e3c     01 20 06 F6 | 	mov	arg05, #1
00e40     D0 0B B0 FD | 	call	#_outtextxycg
00e44                 | '     outtextxycg(0,32,string("bufptr"),0,1)
00e44     1B 00 00 FF 
00e48     77 1D 06 F6 | 	mov	arg03, ##@LR__0216
00e4c     00 18 06 F6 | 	mov	arg01, #0
00e50     20 1A 06 F6 | 	mov	arg02, #32
00e54     00 1E 06 F6 | 	mov	arg04, #0
00e58     01 20 06 F6 | 	mov	arg05, #1
00e5c     B4 0B B0 FD | 	call	#_outtextxycg
00e60                 | '     outtextxycg(0,48,string("buflen"),0,1)
00e60     1B 00 00 FF 
00e64     7E 1D 06 F6 | 	mov	arg03, ##@LR__0217
00e68     00 18 06 F6 | 	mov	arg01, #0
00e6c     30 1A 06 F6 | 	mov	arg02, #48
00e70     00 1E 06 F6 | 	mov	arg04, #0
00e74     01 20 06 F6 | 	mov	arg05, #1
00e78     98 0B B0 FD | 	call	#_outtextxycg
00e7c                 | '     outtextxycg(0,64,string("lines"),0,1)
00e7c     1B 00 00 FF 
00e80     85 1D 06 F6 | 	mov	arg03, ##@LR__0218
00e84     00 18 06 F6 | 	mov	arg01, #0
00e88     40 1A 06 F6 | 	mov	arg02, #64
00e8c     00 1E 06 F6 | 	mov	arg04, #0
00e90     01 20 06 F6 | 	mov	arg05, #1
00e94     7C 0B B0 FD | 	call	#_outtextxycg
00e98                 | '     outtextxycg(64,0,inttostr(amode),0,1)
00e98     40 30 06 F6 | 	mov	local08, #64
00e9c     00 32 06 F6 | 	mov	local09, #0
00ea0     3D 19 02 F6 | 	mov	arg01, local45
00ea4     EC 10 B0 FD | 	call	#_inttostr
00ea8     DB 1C 02 F6 | 	mov	arg03, result1
00eac     18 19 02 F6 | 	mov	arg01, local08
00eb0     19 1B 02 F6 | 	mov	arg02, local09
00eb4     00 1E 06 F6 | 	mov	arg04, #0
00eb8     01 20 06 F6 | 	mov	arg05, #1
00ebc     54 0B B0 FD | 	call	#_outtextxycg
00ec0                 | '     outtextxycg(64,16,inttostr(cpl),0,1)
00ec0     40 30 06 F6 | 	mov	local08, #64
00ec4     10 32 06 F6 | 	mov	local09, #16
00ec8     90 A6 05 F1 | 	add	objptr, #144
00ecc     D3 18 02 FB | 	rdlong	arg01, objptr
00ed0     90 A6 85 F1 | 	sub	objptr, #144
00ed4     BC 10 B0 FD | 	call	#_inttostr
00ed8     DB 1C 02 F6 | 	mov	arg03, result1
00edc     18 19 02 F6 | 	mov	arg01, local08
00ee0     19 1B 02 F6 | 	mov	arg02, local09
00ee4     00 1E 06 F6 | 	mov	arg04, #0
00ee8     01 20 06 F6 | 	mov	arg05, #1
00eec     24 0B B0 FD | 	call	#_outtextxycg
00ef0                 | '     outtextxycg(64,32,inttostr(buf_ptr),0,1)
00ef0     40 30 06 F6 | 	mov	local08, #64
00ef4     20 32 06 F6 | 	mov	local09, #32
00ef8     D3 18 02 FB | 	rdlong	arg01, objptr
00efc     94 10 B0 FD | 	call	#_inttostr
00f00     DB 1C 02 F6 | 	mov	arg03, result1
00f04     18 19 02 F6 | 	mov	arg01, local08
00f08     19 1B 02 F6 | 	mov	arg02, local09
00f0c     00 1E 06 F6 | 	mov	arg04, #0
00f10     01 20 06 F6 | 	mov	arg05, #1
00f14     FC 0A B0 FD | 	call	#_outtextxycg
00f18     30 A6 05 F1 | 	add	objptr, #48
00f1c     D3 18 02 FB | 	rdlong	arg01, objptr
00f20     30 A6 85 F1 | 	sub	objptr, #48
00f24     02 18 66 F0 | 	shl	arg01, #2
00f28                 | '     outtextxycg(64,48,inttostr(buflen*4),0,1)
00f28     40 30 06 F6 | 	mov	local08, #64
00f2c     30 32 06 F6 | 	mov	local09, #48
00f30     60 10 B0 FD | 	call	#_inttostr
00f34     DB 1C 02 F6 | 	mov	arg03, result1
00f38     18 19 02 F6 | 	mov	arg01, local08
00f3c     19 1B 02 F6 | 	mov	arg02, local09
00f40     00 1E 06 F6 | 	mov	arg04, #0
00f44     01 20 06 F6 | 	mov	arg05, #1
00f48     C8 0A B0 FD | 	call	#_outtextxycg
00f4c                 | '     outtextxycg(64,64,inttostr(lines),0,1)
00f4c     40 30 06 F6 | 	mov	local08, #64
00f50     40 32 06 F6 | 	mov	local09, #64
00f54     94 A6 05 F1 | 	add	objptr, #148
00f58     D3 18 02 FB | 	rdlong	arg01, objptr
00f5c     94 A6 85 F1 | 	sub	objptr, #148
00f60     30 10 B0 FD | 	call	#_inttostr
00f64     DB 1C 02 F6 | 	mov	arg03, result1
00f68     18 19 02 F6 | 	mov	arg01, local08
00f6c     19 1B 02 F6 | 	mov	arg02, local09
00f70     00 1E 06 F6 | 	mov	arg04, #0
00f74     01 20 06 F6 | 	mov	arg05, #1
00f78     98 0A B0 FD | 	call	#_outtextxycg
00f7c     94 04 90 FD | 	jmp	#LR__0022
00f80                 | LR__0016
00f80                 | '   elseif (ccc==1)
00f80     01 5C 0E F2 | 	cmp	local30, #1 wz
00f84     80 01 90 5D |  if_ne	jmp	#LR__0017
00f88                 | '     cls(0,0)
00f88     00 18 06 F6 | 	mov	arg01, #0
00f8c     00 1A 06 F6 | 	mov	arg02, #0
00f90     B0 0E B0 FD | 	call	#_cls
00f94                 | '     outtextxycg(0,0,string("mode"),3,0)
00f94     1B 00 00 FF 
00f98     8B 1D 06 F6 | 	mov	arg03, ##@LR__0219
00f9c     00 18 06 F6 | 	mov	arg01, #0
00fa0     00 1A 06 F6 | 	mov	arg02, #0
00fa4     03 1E 06 F6 | 	mov	arg04, #3
00fa8     00 20 06 F6 | 	mov	arg05, #0
00fac     64 0A B0 FD | 	call	#_outtextxycg
00fb0                 | '     outtextxycg(0,16,string("cpl"),3,0)'
00fb0     1B 00 00 FF 
00fb4     90 1D 06 F6 | 	mov	arg03, ##@LR__0220
00fb8     00 18 06 F6 | 	mov	arg01, #0
00fbc     10 1A 06 F6 | 	mov	arg02, #16
00fc0     03 1E 06 F6 | 	mov	arg04, #3
00fc4     00 20 06 F6 | 	mov	arg05, #0
00fc8     48 0A B0 FD | 	call	#_outtextxycg
00fcc                 | '     outtextxycg(0,32,string("buf_ptr"),3,0)
00fcc     1B 00 00 FF 
00fd0     94 1D 06 F6 | 	mov	arg03, ##@LR__0221
00fd4     00 18 06 F6 | 	mov	arg01, #0
00fd8     20 1A 06 F6 | 	mov	arg02, #32
00fdc     03 1E 06 F6 | 	mov	arg04, #3
00fe0     00 20 06 F6 | 	mov	arg05, #0
00fe4     2C 0A B0 FD | 	call	#_outtextxycg
00fe8                 | '     outtextxycg(0,48,string("buflen"),3,0)
00fe8     1B 00 00 FF 
00fec     9C 1D 06 F6 | 	mov	arg03, ##@LR__0222
00ff0     00 18 06 F6 | 	mov	arg01, #0
00ff4     30 1A 06 F6 | 	mov	arg02, #48
00ff8     03 1E 06 F6 | 	mov	arg04, #3
00ffc     00 20 06 F6 | 	mov	arg05, #0
01000     10 0A B0 FD | 	call	#_outtextxycg
01004                 | '     outtextxycg(0,64,string("lines"),3,0)
01004     1B 00 00 FF 
01008     A3 1D 06 F6 | 	mov	arg03, ##@LR__0223
0100c     00 18 06 F6 | 	mov	arg01, #0
01010     40 1A 06 F6 | 	mov	arg02, #64
01014     03 1E 06 F6 | 	mov	arg04, #3
01018     00 20 06 F6 | 	mov	arg05, #0
0101c     F4 09 B0 FD | 	call	#_outtextxycg
01020                 | '     outtextxycg(64,0,inttostr(amode),2,0)
01020     40 30 06 F6 | 	mov	local08, #64
01024     00 32 06 F6 | 	mov	local09, #0
01028     3D 19 02 F6 | 	mov	arg01, local45
0102c     64 0F B0 FD | 	call	#_inttostr
01030     DB 1C 02 F6 | 	mov	arg03, result1
01034     18 19 02 F6 | 	mov	arg01, local08
01038     19 1B 02 F6 | 	mov	arg02, local09
0103c     02 1E 06 F6 | 	mov	arg04, #2
01040     00 20 06 F6 | 	mov	arg05, #0
01044     CC 09 B0 FD | 	call	#_outtextxycg
01048                 | '     outtextxycg(64,16,inttostr(cpl),2,0)
01048     40 30 06 F6 | 	mov	local08, #64
0104c     10 32 06 F6 | 	mov	local09, #16
01050     90 A6 05 F1 | 	add	objptr, #144
01054     D3 18 02 FB | 	rdlong	arg01, objptr
01058     90 A6 85 F1 | 	sub	objptr, #144
0105c     34 0F B0 FD | 	call	#_inttostr
01060     DB 1C 02 F6 | 	mov	arg03, result1
01064     18 19 02 F6 | 	mov	arg01, local08
01068     19 1B 02 F6 | 	mov	arg02, local09
0106c     02 1E 06 F6 | 	mov	arg04, #2
01070     00 20 06 F6 | 	mov	arg05, #0
01074     9C 09 B0 FD | 	call	#_outtextxycg
01078                 | '     outtextxycg(64,32,inttostr(buf_ptr),2,0)
01078     40 30 06 F6 | 	mov	local08, #64
0107c     20 32 06 F6 | 	mov	local09, #32
01080     D3 18 02 FB | 	rdlong	arg01, objptr
01084     0C 0F B0 FD | 	call	#_inttostr
01088     DB 1C 02 F6 | 	mov	arg03, result1
0108c     18 19 02 F6 | 	mov	arg01, local08
01090     19 1B 02 F6 | 	mov	arg02, local09
01094     02 1E 06 F6 | 	mov	arg04, #2
01098     00 20 06 F6 | 	mov	arg05, #0
0109c     74 09 B0 FD | 	call	#_outtextxycg
010a0     30 A6 05 F1 | 	add	objptr, #48
010a4     D3 18 02 FB | 	rdlong	arg01, objptr
010a8     30 A6 85 F1 | 	sub	objptr, #48
010ac     02 18 66 F0 | 	shl	arg01, #2
010b0                 | '     outtextxycg(64,48,inttostr(buflen*4),2,0)
010b0     40 30 06 F6 | 	mov	local08, #64
010b4     30 32 06 F6 | 	mov	local09, #48
010b8     D8 0E B0 FD | 	call	#_inttostr
010bc     DB 1C 02 F6 | 	mov	arg03, result1
010c0     18 19 02 F6 | 	mov	arg01, local08
010c4     19 1B 02 F6 | 	mov	arg02, local09
010c8     02 1E 06 F6 | 	mov	arg04, #2
010cc     00 20 06 F6 | 	mov	arg05, #0
010d0     40 09 B0 FD | 	call	#_outtextxycg
010d4                 | '     outtextxycg(64,64,inttostr(lines),2,0)
010d4     40 30 06 F6 | 	mov	local08, #64
010d8     40 32 06 F6 | 	mov	local09, #64
010dc     94 A6 05 F1 | 	add	objptr, #148
010e0     D3 18 02 FB | 	rdlong	arg01, objptr
010e4     94 A6 85 F1 | 	sub	objptr, #148
010e8     A8 0E B0 FD | 	call	#_inttostr
010ec     DB 1C 02 F6 | 	mov	arg03, result1
010f0     18 19 02 F6 | 	mov	arg01, local08
010f4     19 1B 02 F6 | 	mov	arg02, local09
010f8     02 1E 06 F6 | 	mov	arg04, #2
010fc     00 20 06 F6 | 	mov	arg05, #0
01100     10 09 B0 FD | 	call	#_outtextxycg
01104     0C 03 90 FD | 	jmp	#LR__0021
01108                 | LR__0017
01108                 | '   elseif (ccc==2)
01108     02 5C 0E F2 | 	cmp	local30, #2 wz
0110c     80 01 90 5D |  if_ne	jmp	#LR__0018
01110                 | '     cls(0,0)
01110     00 18 06 F6 | 	mov	arg01, #0
01114     00 1A 06 F6 | 	mov	arg02, #0
01118     28 0D B0 FD | 	call	#_cls
0111c                 | '     outtextxycg(0,0,string("mode"),9,0)
0111c     1B 00 00 FF 
01120     A9 1D 06 F6 | 	mov	arg03, ##@LR__0224
01124     00 18 06 F6 | 	mov	arg01, #0
01128     00 1A 06 F6 | 	mov	arg02, #0
0112c     09 1E 06 F6 | 	mov	arg04, #9
01130     00 20 06 F6 | 	mov	arg05, #0
01134     DC 08 B0 FD | 	call	#_outtextxycg
01138                 | '     outtextxycg(0,16,string("cpl"),9,0)'
01138     1B 00 00 FF 
0113c     AE 1D 06 F6 | 	mov	arg03, ##@LR__0225
01140     00 18 06 F6 | 	mov	arg01, #0
01144     10 1A 06 F6 | 	mov	arg02, #16
01148     09 1E 06 F6 | 	mov	arg04, #9
0114c     00 20 06 F6 | 	mov	arg05, #0
01150     C0 08 B0 FD | 	call	#_outtextxycg
01154                 | '     outtextxycg(0,32,string("buf_ptr"),9,0)
01154     1B 00 00 FF 
01158     B2 1D 06 F6 | 	mov	arg03, ##@LR__0226
0115c     00 18 06 F6 | 	mov	arg01, #0
01160     20 1A 06 F6 | 	mov	arg02, #32
01164     09 1E 06 F6 | 	mov	arg04, #9
01168     00 20 06 F6 | 	mov	arg05, #0
0116c     A4 08 B0 FD | 	call	#_outtextxycg
01170                 | '     outtextxycg(0,48,string("buflen"),9,0)
01170     1B 00 00 FF 
01174     BA 1D 06 F6 | 	mov	arg03, ##@LR__0227
01178     00 18 06 F6 | 	mov	arg01, #0
0117c     30 1A 06 F6 | 	mov	arg02, #48
01180     09 1E 06 F6 | 	mov	arg04, #9
01184     00 20 06 F6 | 	mov	arg05, #0
01188     88 08 B0 FD | 	call	#_outtextxycg
0118c                 | '     outtextxycg(0,64,string("lines"),9,0)
0118c     1B 00 00 FF 
01190     C1 1D 06 F6 | 	mov	arg03, ##@LR__0228
01194     00 18 06 F6 | 	mov	arg01, #0
01198     40 1A 06 F6 | 	mov	arg02, #64
0119c     09 1E 06 F6 | 	mov	arg04, #9
011a0     00 20 06 F6 | 	mov	arg05, #0
011a4     6C 08 B0 FD | 	call	#_outtextxycg
011a8                 | '     outtextxycg(64,0,inttostr(amode),4,0)
011a8     40 30 06 F6 | 	mov	local08, #64
011ac     00 32 06 F6 | 	mov	local09, #0
011b0     3D 19 02 F6 | 	mov	arg01, local45
011b4     DC 0D B0 FD | 	call	#_inttostr
011b8     DB 1C 02 F6 | 	mov	arg03, result1
011bc     18 19 02 F6 | 	mov	arg01, local08
011c0     19 1B 02 F6 | 	mov	arg02, local09
011c4     04 1E 06 F6 | 	mov	arg04, #4
011c8     00 20 06 F6 | 	mov	arg05, #0
011cc     44 08 B0 FD | 	call	#_outtextxycg
011d0                 | '     outtextxycg(64,16,inttostr(cpl),4,0)
011d0     40 30 06 F6 | 	mov	local08, #64
011d4     10 32 06 F6 | 	mov	local09, #16
011d8     90 A6 05 F1 | 	add	objptr, #144
011dc     D3 18 02 FB | 	rdlong	arg01, objptr
011e0     90 A6 85 F1 | 	sub	objptr, #144
011e4     AC 0D B0 FD | 	call	#_inttostr
011e8     DB 1C 02 F6 | 	mov	arg03, result1
011ec     18 19 02 F6 | 	mov	arg01, local08
011f0     19 1B 02 F6 | 	mov	arg02, local09
011f4     04 1E 06 F6 | 	mov	arg04, #4
011f8     00 20 06 F6 | 	mov	arg05, #0
011fc     14 08 B0 FD | 	call	#_outtextxycg
01200                 | '     outtextxycg(64,32,inttostr(buf_ptr),4,0)
01200     40 30 06 F6 | 	mov	local08, #64
01204     20 32 06 F6 | 	mov	local09, #32
01208     D3 18 02 FB | 	rdlong	arg01, objptr
0120c     84 0D B0 FD | 	call	#_inttostr
01210     DB 1C 02 F6 | 	mov	arg03, result1
01214     18 19 02 F6 | 	mov	arg01, local08
01218     19 1B 02 F6 | 	mov	arg02, local09
0121c     04 1E 06 F6 | 	mov	arg04, #4
01220     00 20 06 F6 | 	mov	arg05, #0
01224     EC 07 B0 FD | 	call	#_outtextxycg
01228     30 A6 05 F1 | 	add	objptr, #48
0122c     D3 18 02 FB | 	rdlong	arg01, objptr
01230     30 A6 85 F1 | 	sub	objptr, #48
01234     02 18 66 F0 | 	shl	arg01, #2
01238                 | '     outtextxycg(64,48,inttostr(buflen*4),4,0)
01238     40 30 06 F6 | 	mov	local08, #64
0123c     30 32 06 F6 | 	mov	local09, #48
01240     50 0D B0 FD | 	call	#_inttostr
01244     DB 1C 02 F6 | 	mov	arg03, result1
01248     18 19 02 F6 | 	mov	arg01, local08
0124c     19 1B 02 F6 | 	mov	arg02, local09
01250     04 1E 06 F6 | 	mov	arg04, #4
01254     00 20 06 F6 | 	mov	arg05, #0
01258     B8 07 B0 FD | 	call	#_outtextxycg
0125c                 | '     outtextxycg(64,64,inttostr(lines),4,0)
0125c     40 30 06 F6 | 	mov	local08, #64
01260     40 32 06 F6 | 	mov	local09, #64
01264     94 A6 05 F1 | 	add	objptr, #148
01268     D3 18 02 FB | 	rdlong	arg01, objptr
0126c     94 A6 85 F1 | 	sub	objptr, #148
01270     20 0D B0 FD | 	call	#_inttostr
01274     DB 1C 02 F6 | 	mov	arg03, result1
01278     18 19 02 F6 | 	mov	arg01, local08
0127c     19 1B 02 F6 | 	mov	arg02, local09
01280     04 1E 06 F6 | 	mov	arg04, #4
01284     00 20 06 F6 | 	mov	arg05, #0
01288     88 07 B0 FD | 	call	#_outtextxycg
0128c     84 01 90 FD | 	jmp	#LR__0020
01290                 | LR__0018
01290                 | '   elseif (ccc==3)
01290     03 5C 0E F2 | 	cmp	local30, #3 wz
01294     7C 01 90 5D |  if_ne	jmp	#LR__0019
01298                 | '     cls(0,0)
01298     00 18 06 F6 | 	mov	arg01, #0
0129c     00 1A 06 F6 | 	mov	arg02, #0
012a0     A0 0B B0 FD | 	call	#_cls
012a4                 | '     outtextxycg(0,0,string("mode"),120,0)
012a4     1B 00 00 FF 
012a8     C7 1D 06 F6 | 	mov	arg03, ##@LR__0229
012ac     00 18 06 F6 | 	mov	arg01, #0
012b0     00 1A 06 F6 | 	mov	arg02, #0
012b4     78 1E 06 F6 | 	mov	arg04, #120
012b8     00 20 06 F6 | 	mov	arg05, #0
012bc     54 07 B0 FD | 	call	#_outtextxycg
012c0                 | '     outtextxycg(0,16,string("cpl"),120,0)'
012c0     1B 00 00 FF 
012c4     CC 1D 06 F6 | 	mov	arg03, ##@LR__0230
012c8     00 18 06 F6 | 	mov	arg01, #0
012cc     10 1A 06 F6 | 	mov	arg02, #16
012d0     78 1E 06 F6 | 	mov	arg04, #120
012d4     00 20 06 F6 | 	mov	arg05, #0
012d8     38 07 B0 FD | 	call	#_outtextxycg
012dc                 | '     outtextxycg(0,32,string("buf_ptr"),120,0)
012dc     1B 00 00 FF 
012e0     D0 1D 06 F6 | 	mov	arg03, ##@LR__0231
012e4     00 18 06 F6 | 	mov	arg01, #0
012e8     20 1A 06 F6 | 	mov	arg02, #32
012ec     78 1E 06 F6 | 	mov	arg04, #120
012f0     00 20 06 F6 | 	mov	arg05, #0
012f4     1C 07 B0 FD | 	call	#_outtextxycg
012f8                 | '     outtextxycg(0,48,string("buflen"),120,0)
012f8     1B 00 00 FF 
012fc     D8 1D 06 F6 | 	mov	arg03, ##@LR__0232
01300     00 18 06 F6 | 	mov	arg01, #0
01304     30 1A 06 F6 | 	mov	arg02, #48
01308     78 1E 06 F6 | 	mov	arg04, #120
0130c     00 20 06 F6 | 	mov	arg05, #0
01310     00 07 B0 FD | 	call	#_outtextxycg
01314                 | '     outtextxycg(0,64,string("lines"),120,0)
01314     1B 00 00 FF 
01318     DF 1D 06 F6 | 	mov	arg03, ##@LR__0233
0131c     00 18 06 F6 | 	mov	arg01, #0
01320     40 1A 06 F6 | 	mov	arg02, #64
01324     78 1E 06 F6 | 	mov	arg04, #120
01328     00 20 06 F6 | 	mov	arg05, #0
0132c     E4 06 B0 FD | 	call	#_outtextxycg
01330                 | '     outtextxycg(64,0,inttostr(amode),40,0)
01330     40 30 06 F6 | 	mov	local08, #64
01334     00 32 06 F6 | 	mov	local09, #0
01338     3D 19 02 F6 | 	mov	arg01, local45
0133c     54 0C B0 FD | 	call	#_inttostr
01340     DB 1C 02 F6 | 	mov	arg03, result1
01344     18 19 02 F6 | 	mov	arg01, local08
01348     19 1B 02 F6 | 	mov	arg02, local09
0134c     28 1E 06 F6 | 	mov	arg04, #40
01350     00 20 06 F6 | 	mov	arg05, #0
01354     BC 06 B0 FD | 	call	#_outtextxycg
01358                 | '     outtextxycg(64,16,inttostr(cpl),40,0)
01358     40 30 06 F6 | 	mov	local08, #64
0135c     10 32 06 F6 | 	mov	local09, #16
01360     90 A6 05 F1 | 	add	objptr, #144
01364     D3 18 02 FB | 	rdlong	arg01, objptr
01368     90 A6 85 F1 | 	sub	objptr, #144
0136c     24 0C B0 FD | 	call	#_inttostr
01370     DB 1C 02 F6 | 	mov	arg03, result1
01374     18 19 02 F6 | 	mov	arg01, local08
01378     19 1B 02 F6 | 	mov	arg02, local09
0137c     28 1E 06 F6 | 	mov	arg04, #40
01380     00 20 06 F6 | 	mov	arg05, #0
01384     8C 06 B0 FD | 	call	#_outtextxycg
01388                 | '     outtextxycg(64,32,inttostr(buf_ptr),40,0)
01388     40 30 06 F6 | 	mov	local08, #64
0138c     20 32 06 F6 | 	mov	local09, #32
01390     D3 18 02 FB | 	rdlong	arg01, objptr
01394     FC 0B B0 FD | 	call	#_inttostr
01398     DB 1C 02 F6 | 	mov	arg03, result1
0139c     18 19 02 F6 | 	mov	arg01, local08
013a0     19 1B 02 F6 | 	mov	arg02, local09
013a4     28 1E 06 F6 | 	mov	arg04, #40
013a8     00 20 06 F6 | 	mov	arg05, #0
013ac     64 06 B0 FD | 	call	#_outtextxycg
013b0     30 A6 05 F1 | 	add	objptr, #48
013b4     D3 18 02 FB | 	rdlong	arg01, objptr
013b8     30 A6 85 F1 | 	sub	objptr, #48
013bc     02 18 66 F0 | 	shl	arg01, #2
013c0                 | '     outtextxycg(64,48,inttostr(buflen*4),40,0)
013c0     40 30 06 F6 | 	mov	local08, #64
013c4     30 32 06 F6 | 	mov	local09, #48
013c8     C8 0B B0 FD | 	call	#_inttostr
013cc     DB 1C 02 F6 | 	mov	arg03, result1
013d0     18 19 02 F6 | 	mov	arg01, local08
013d4     19 1B 02 F6 | 	mov	arg02, local09
013d8     28 1E 06 F6 | 	mov	arg04, #40
013dc     00 20 06 F6 | 	mov	arg05, #0
013e0     30 06 B0 FD | 	call	#_outtextxycg
013e4                 | '     outtextxycg(64,64,inttostr(lines),40,0)
013e4     40 30 06 F6 | 	mov	local08, #64
013e8     40 32 06 F6 | 	mov	local09, #64
013ec     94 A6 05 F1 | 	add	objptr, #148
013f0     D3 18 02 FB | 	rdlong	arg01, objptr
013f4     94 A6 85 F1 | 	sub	objptr, #148
013f8     98 0B B0 FD | 	call	#_inttostr
013fc     DB 1C 02 F6 | 	mov	arg03, result1
01400     18 19 02 F6 | 	mov	arg01, local08
01404     19 1B 02 F6 | 	mov	arg02, local09
01408     28 1E 06 F6 | 	mov	arg04, #40
0140c     00 20 06 F6 | 	mov	arg05, #0
01410     00 06 B0 FD | 	call	#_outtextxycg
01414                 | LR__0019
01414                 | LR__0020
01414                 | LR__0021
01414                 | LR__0022
01414                 | '   waitvbl(300)
01414     2C 19 06 F6 | 	mov	arg01, #300
01418     B4 09 B0 FD | 	call	#_waitvbl
0141c     01 7A 06 F1 | 	add	local45, #1
01420     02 00 00 FF 
01424     00 7A 5E F2 | 	cmps	local45, ##1024 wcz
01428     BC F9 9F CD |  if_b	jmp	#LR__0015
0142c                 | ' 
0142c                 | ' repeat
0142c                 | LR__0023
0142c     FC FF 9F FD | 	jmp	#LR__0023
01430     A4 F0 03 F6 | 	mov	ptra, fp
01434     B4 00 A0 FD | 	call	#popregs_
01438                 | _dummy_ret
01438     2D 00 64 FD | 	ret
0143c                 | 
0143c                 | ' 
0143c                 | ' '------------------------------
0143c                 | ' 
0143c                 | ' pub fcircle(x0,y0,r,c) | d,x,y,da,db
0143c                 | _fcircle
0143c     0D 44 05 F6 | 	mov	COUNT_, #13
01440     A5 00 A0 FD | 	call	#pushregs_
01444     0C 23 02 F6 | 	mov	local01, arg01
01448     0D 25 02 F6 | 	mov	local02, arg02
0144c     0E 27 02 F6 | 	mov	local03, arg03
01450     0F 29 02 F6 | 	mov	local04, arg04
01454     13 2B 02 F6 | 	mov	local05, local03
01458     02 2A 66 F0 | 	shl	local05, #2
0145c     05 2C 06 F6 | 	mov	local06, #5
01460     15 2D 82 F1 | 	sub	local06, local05
01464                 | ' 
01464                 | ' d:=5-4*r
01464                 | ' x:=0
01464     00 2E 06 F6 | 	mov	local07, #0
01468                 | ' y:=r
01468     FF FF 7F FF 
0146c     FE 27 06 FD | 	qmul	local03, ##-2
01470     18 30 62 FD | 	getqx	local08
01474     05 30 06 F1 | 	add	local08, #5
01478     02 30 66 F0 | 	shl	local08, #2
0147c                 | ' da:=(-2*r+5)*4
0147c                 | ' db:=3*4
0147c     0C 32 06 F6 | 	mov	local09, #12
01480                 | ' repeat while (x<=y) 
01480                 | LR__0024
01480     13 2F 5A F2 | 	cmps	local07, local03 wcz
01484     C4 00 90 1D |  if_a	jmp	#LR__0026
01488     11 35 02 F6 | 	mov	local10, local01
0148c     17 35 82 F1 | 	sub	local10, local07
01490     12 1F 02 F6 | 	mov	arg04, local02
01494     13 1F 82 F1 | 	sub	arg04, local03
01498     11 37 02 F6 | 	mov	local11, local01
0149c     17 37 02 F1 | 	add	local11, local07
014a0                 | '   line(x0-x,y0-y,x0+x,y0-y,c)
014a0     1A 19 02 F6 | 	mov	arg01, local10
014a4     0F 1B 02 F6 | 	mov	arg02, arg04
014a8     1B 1D 02 F6 | 	mov	arg03, local11
014ac     14 21 02 F6 | 	mov	arg05, local04
014b0     BC 02 B0 FD | 	call	#_line
014b4     12 1F 02 F6 | 	mov	arg04, local02
014b8     13 1F 02 F1 | 	add	arg04, local03
014bc                 | '   line(x0-x,y0+y,x0+x,y0+y,c)
014bc     1A 19 02 F6 | 	mov	arg01, local10
014c0     0F 1B 02 F6 | 	mov	arg02, arg04
014c4     1B 1D 02 F6 | 	mov	arg03, local11
014c8     14 21 02 F6 | 	mov	arg05, local04
014cc     A0 02 B0 FD | 	call	#_line
014d0     11 39 02 F6 | 	mov	local12, local01
014d4     13 39 82 F1 | 	sub	local12, local03
014d8     12 1F 02 F6 | 	mov	arg04, local02
014dc     17 1F 82 F1 | 	sub	arg04, local07
014e0     11 3B 02 F6 | 	mov	local13, local01
014e4     13 3B 02 F1 | 	add	local13, local03
014e8                 | '   line(x0-y,y0-x,x0+y,y0-x,c)
014e8     1C 19 02 F6 | 	mov	arg01, local12
014ec     0F 1B 02 F6 | 	mov	arg02, arg04
014f0     1D 1D 02 F6 | 	mov	arg03, local13
014f4     14 21 02 F6 | 	mov	arg05, local04
014f8     74 02 B0 FD | 	call	#_line
014fc     12 1F 02 F6 | 	mov	arg04, local02
01500     17 1F 02 F1 | 	add	arg04, local07
01504                 | '   line(x0-y,y0+x,x0+y,y0+x,c)
01504     1C 19 02 F6 | 	mov	arg01, local12
01508     0F 1B 02 F6 | 	mov	arg02, arg04
0150c     1D 1D 02 F6 | 	mov	arg03, local13
01510     14 21 02 F6 | 	mov	arg05, local04
01514     58 02 B0 FD | 	call	#_line
01518                 | '   if d>0 
01518     00 2C 5E F2 | 	cmps	local06, #0 wcz
0151c     18 00 90 ED |  if_be	jmp	#LR__0025
01520                 | '     d+=da
01520     18 2D 02 F1 | 	add	local06, local08
01524                 | '     y-=1
01524     01 26 86 F1 | 	sub	local03, #1
01528                 | '     x+=1
01528     01 2E 06 F1 | 	add	local07, #1
0152c                 | '     da+=4*4
0152c     10 30 06 F1 | 	add	local08, #16
01530                 | '     db+=2*4
01530     08 32 06 F1 | 	add	local09, #8
01534                 | '   else
01534     48 FF 9F FD | 	jmp	#LR__0024
01538                 | LR__0025
01538                 | '     d+=db
01538     19 2D 02 F1 | 	add	local06, local09
0153c                 | '     x+=1
0153c     01 2E 06 F1 | 	add	local07, #1
01540                 | '     da+=2*4
01540     08 30 06 F1 | 	add	local08, #8
01544                 | '     db+=2*4
01544     08 32 06 F1 | 	add	local09, #8
01548     34 FF 9F FD | 	jmp	#LR__0024
0154c                 | LR__0026
0154c     A4 F0 03 F6 | 	mov	ptra, fp
01550     B4 00 A0 FD | 	call	#popregs_
01554                 | _fcircle_ret
01554     2D 00 64 FD | 	ret
01558                 | 
01558                 | '  
01558                 | '  
01558                 | '  
01558                 | ' pub circle(x0,y0,r,c) | d,x,y,da,db
01558                 | _circle
01558     15 44 05 F6 | 	mov	COUNT_, #21
0155c     A5 00 A0 FD | 	call	#pushregs_
01560     0C 23 02 F6 | 	mov	local01, arg01
01564     0D 25 02 F6 | 	mov	local02, arg02
01568     0E 27 02 F6 | 	mov	local03, arg03
0156c     0F 29 02 F6 | 	mov	local04, arg04
01570     13 2B 02 F6 | 	mov	local05, local03
01574     02 2A 66 F0 | 	shl	local05, #2
01578     05 2C 06 F6 | 	mov	local06, #5
0157c     15 2D 82 F1 | 	sub	local06, local05
01580                 | ' 
01580                 | '  
01580                 | ' d:=5-4*r
01580                 | ' x:=0
01580     00 2E 06 F6 | 	mov	local07, #0
01584                 | ' y:=r
01584     FF FF 7F FF 
01588     FE 27 06 FD | 	qmul	local03, ##-2
0158c     18 30 62 FD | 	getqx	local08
01590     05 30 06 F1 | 	add	local08, #5
01594     02 30 66 F0 | 	shl	local08, #2
01598                 | ' da:=(-2*r+5)*4
01598                 | ' db:=3*4
01598     0C 32 06 F6 | 	mov	local09, #12
0159c                 | ' repeat while (x<=y) 
0159c                 | LR__0027
0159c     13 2F 5A F2 | 	cmps	local07, local03 wcz
015a0     C0 01 90 1D |  if_a	jmp	#LR__0029
015a4     11 35 02 F6 | 	mov	local10, local01
015a8     17 35 82 F1 | 	sub	local10, local07
015ac     12 37 02 F6 | 	mov	local11, local02
015b0     13 37 82 F1 | 	sub	local11, local03
015b4                 | '   putpixel(x0-x,y0-y,c)
015b4     D8 A6 05 F1 | 	add	objptr, #216
015b8     D3 38 02 FB | 	rdlong	local12, objptr
015bc     D8 A6 85 F1 | 	sub	objptr, #216
015c0     1C 3B 02 FB | 	rdlong	local13, local12
015c4     04 38 06 F1 | 	add	local12, #4
015c8     1C 3D 02 FB | 	rdlong	local14, local12
015cc     1A 19 02 F6 | 	mov	arg01, local10
015d0     1B 1B 02 F6 | 	mov	arg02, local11
015d4     14 1D 02 F6 | 	mov	arg03, local04
015d8     D3 3E 02 F6 | 	mov	local15, objptr
015dc     1D A7 01 F6 | 	mov	objptr, local13
015e0     2D 3C 62 FD | 	call	local14
015e4     12 41 02 F6 | 	mov	local16, local02
015e8     13 41 02 F1 | 	add	local16, local03
015ec                 | '   putpixel(x0-x,y0+y,c)
015ec     D8 3E 06 F1 | 	add	local15, #216
015f0     1F 39 02 FB | 	rdlong	local12, local15
015f4     D8 3E 86 F1 | 	sub	local15, #216
015f8     1C A7 01 FB | 	rdlong	objptr, local12
015fc     04 38 06 F1 | 	add	local12, #4
01600     1C 3D 02 FB | 	rdlong	local14, local12
01604     1A 19 02 F6 | 	mov	arg01, local10
01608     20 1B 02 F6 | 	mov	arg02, local16
0160c     14 1D 02 F6 | 	mov	arg03, local04
01610     2D 3C 62 FD | 	call	local14
01614     11 43 02 F6 | 	mov	local17, local01
01618     17 43 02 F1 | 	add	local17, local07
0161c                 | '   putpixel(x0+x,y0-y,c)
0161c     D8 3E 06 F1 | 	add	local15, #216
01620     1F 39 02 FB | 	rdlong	local12, local15
01624     D8 3E 86 F1 | 	sub	local15, #216
01628     1C A7 01 FB | 	rdlong	objptr, local12
0162c     04 38 06 F1 | 	add	local12, #4
01630     1C 3D 02 FB | 	rdlong	local14, local12
01634     21 19 02 F6 | 	mov	arg01, local17
01638     1B 1B 02 F6 | 	mov	arg02, local11
0163c     14 1D 02 F6 | 	mov	arg03, local04
01640     2D 3C 62 FD | 	call	local14
01644                 | '   putpixel(x0+x,y0+y,c)
01644     D8 3E 06 F1 | 	add	local15, #216
01648     1F 39 02 FB | 	rdlong	local12, local15
0164c     D8 3E 86 F1 | 	sub	local15, #216
01650     1C A7 01 FB | 	rdlong	objptr, local12
01654     04 38 06 F1 | 	add	local12, #4
01658     1C 3D 02 FB | 	rdlong	local14, local12
0165c     21 19 02 F6 | 	mov	arg01, local17
01660     20 1B 02 F6 | 	mov	arg02, local16
01664     14 1D 02 F6 | 	mov	arg03, local04
01668     2D 3C 62 FD | 	call	local14
0166c     11 45 02 F6 | 	mov	local18, local01
01670     13 45 82 F1 | 	sub	local18, local03
01674     12 47 02 F6 | 	mov	local19, local02
01678     17 47 82 F1 | 	sub	local19, local07
0167c                 | '   putpixel(x0-y,y0-x,c)
0167c     D8 3E 06 F1 | 	add	local15, #216
01680     1F 39 02 FB | 	rdlong	local12, local15
01684     D8 3E 86 F1 | 	sub	local15, #216
01688     1C A7 01 FB | 	rdlong	objptr, local12
0168c     04 38 06 F1 | 	add	local12, #4
01690     1C 3D 02 FB | 	rdlong	local14, local12
01694     22 19 02 F6 | 	mov	arg01, local18
01698     23 1B 02 F6 | 	mov	arg02, local19
0169c     14 1D 02 F6 | 	mov	arg03, local04
016a0     2D 3C 62 FD | 	call	local14
016a4     12 49 02 F6 | 	mov	local20, local02
016a8     17 49 02 F1 | 	add	local20, local07
016ac                 | '   putpixel(x0-y,y0+x,c)
016ac     D8 3E 06 F1 | 	add	local15, #216
016b0     1F 39 02 FB | 	rdlong	local12, local15
016b4     D8 3E 86 F1 | 	sub	local15, #216
016b8     1C A7 01 FB | 	rdlong	objptr, local12
016bc     04 38 06 F1 | 	add	local12, #4
016c0     1C 3D 02 FB | 	rdlong	local14, local12
016c4     22 19 02 F6 | 	mov	arg01, local18
016c8     24 1B 02 F6 | 	mov	arg02, local20
016cc     14 1D 02 F6 | 	mov	arg03, local04
016d0     2D 3C 62 FD | 	call	local14
016d4     11 4B 02 F6 | 	mov	local21, local01
016d8     13 4B 02 F1 | 	add	local21, local03
016dc                 | '   putpixel(x0+y,y0-x,c)
016dc     D8 3E 06 F1 | 	add	local15, #216
016e0     1F 39 02 FB | 	rdlong	local12, local15
016e4     D8 3E 86 F1 | 	sub	local15, #216
016e8     1C A7 01 FB | 	rdlong	objptr, local12
016ec     04 38 06 F1 | 	add	local12, #4
016f0     1C 3D 02 FB | 	rdlong	local14, local12
016f4     25 19 02 F6 | 	mov	arg01, local21
016f8     23 1B 02 F6 | 	mov	arg02, local19
016fc     14 1D 02 F6 | 	mov	arg03, local04
01700     2D 3C 62 FD | 	call	local14
01704                 | '   putpixel(x0+y,y0+x,c)
01704     D8 3E 06 F1 | 	add	local15, #216
01708     1F 39 02 FB | 	rdlong	local12, local15
0170c     D8 3E 86 F1 | 	sub	local15, #216
01710     1C A7 01 FB | 	rdlong	objptr, local12
01714     04 38 06 F1 | 	add	local12, #4
01718     1C 3D 02 FB | 	rdlong	local14, local12
0171c     25 19 02 F6 | 	mov	arg01, local21
01720     24 1B 02 F6 | 	mov	arg02, local20
01724     14 1D 02 F6 | 	mov	arg03, local04
01728     2D 3C 62 FD | 	call	local14
0172c     1F A7 01 F6 | 	mov	objptr, local15
01730                 | '   if d>0 
01730     00 2C 5E F2 | 	cmps	local06, #0 wcz
01734     18 00 90 ED |  if_be	jmp	#LR__0028
01738                 | '     d+=da
01738     18 2D 02 F1 | 	add	local06, local08
0173c                 | '     y-=1
0173c     01 26 86 F1 | 	sub	local03, #1
01740                 | '     x+=1
01740     01 2E 06 F1 | 	add	local07, #1
01744                 | '     da+=4*4
01744     10 30 06 F1 | 	add	local08, #16
01748                 | '     db+=2*4
01748     08 32 06 F1 | 	add	local09, #8
0174c                 | '   else
0174c     4C FE 9F FD | 	jmp	#LR__0027
01750                 | LR__0028
01750                 | '     d+=db
01750     19 2D 02 F1 | 	add	local06, local09
01754                 | '     x+=1
01754     01 2E 06 F1 | 	add	local07, #1
01758                 | '     da+=2*4
01758     08 30 06 F1 | 	add	local08, #8
0175c                 | '     db+=2*4
0175c     08 32 06 F1 | 	add	local09, #8
01760     38 FE 9F FD | 	jmp	#LR__0027
01764                 | LR__0029
01764     A4 F0 03 F6 | 	mov	ptra, fp
01768     B4 00 A0 FD | 	call	#popregs_
0176c                 | _circle_ret
0176c     2D 00 64 FD | 	ret
01770                 | 
01770                 | ' 
01770                 | ' 
01770                 | ' pub line(x1,y1,x2,y2,c) | d,dx,dy,ai,bi,xi,yi,x,y
01770                 | _line
01770     12 44 05 F6 | 	mov	COUNT_, #18
01774     A5 00 A0 FD | 	call	#pushregs_
01778     0C 23 02 F6 | 	mov	local01, arg01
0177c     0D 25 02 F6 | 	mov	local02, arg02
01780     0E 27 02 F6 | 	mov	local03, arg03
01784     0F 29 02 F6 | 	mov	local04, arg04
01788     10 2B 02 F6 | 	mov	local05, arg05
0178c                 | ' 
0178c                 | ' 
0178c                 | ' x:=x1
0178c     11 2D 02 F6 | 	mov	local06, local01
01790                 | ' y:=y1
01790     12 2F 02 F6 | 	mov	local07, local02
01794                 | ' 
01794                 | ' if (x1<x2) 
01794     13 23 5A F2 | 	cmps	local01, local03 wcz
01798     10 00 90 3D |  if_ae	jmp	#LR__0030
0179c                 | '   xi:=1
0179c     01 30 06 F6 | 	mov	local08, #1
017a0     13 33 02 F6 | 	mov	local09, local03
017a4     11 33 82 F1 | 	sub	local09, local01
017a8                 | '   dx:=x2-x1
017a8                 | ' else
017a8     0C 00 90 FD | 	jmp	#LR__0031
017ac                 | LR__0030
017ac                 | '   xi:=-1
017ac     01 30 66 F6 | 	neg	local08, #1
017b0     13 23 82 F1 | 	sub	local01, local03
017b4                 | '   dx:=x1-x2
017b4     11 33 02 F6 | 	mov	local09, local01
017b8                 | LR__0031
017b8                 | '   
017b8                 | ' if (y1<y2) 
017b8     14 25 5A F2 | 	cmps	local02, local04 wcz
017bc     10 00 90 3D |  if_ae	jmp	#LR__0032
017c0                 | '   yi:=1
017c0     01 34 06 F6 | 	mov	local10, #1
017c4     14 37 02 F6 | 	mov	local11, local04
017c8     12 37 82 F1 | 	sub	local11, local02
017cc                 | '   dy:=y2-y1
017cc                 | ' else
017cc     0C 00 90 FD | 	jmp	#LR__0033
017d0                 | LR__0032
017d0                 | '   yi:=-1
017d0     01 34 66 F6 | 	neg	local10, #1
017d4     14 25 82 F1 | 	sub	local02, local04
017d8                 | '   dy:=y1-y2
017d8     12 37 02 F6 | 	mov	local11, local02
017dc                 | LR__0033
017dc                 | ' 
017dc                 | ' putpixel(x,y,c)
017dc     D8 A6 05 F1 | 	add	objptr, #216
017e0     D3 38 02 FB | 	rdlong	local12, objptr
017e4     D8 A6 85 F1 | 	sub	objptr, #216
017e8     1C 3B 02 FB | 	rdlong	local13, local12
017ec     04 38 06 F1 | 	add	local12, #4
017f0     1C 3D 02 FB | 	rdlong	local14, local12
017f4     16 19 02 F6 | 	mov	arg01, local06
017f8     17 1B 02 F6 | 	mov	arg02, local07
017fc     15 1D 02 F6 | 	mov	arg03, local05
01800     D3 3E 02 F6 | 	mov	local15, objptr
01804     1D A7 01 F6 | 	mov	objptr, local13
01808     2D 3C 62 FD | 	call	local14
0180c     1F A7 01 F6 | 	mov	objptr, local15
01810                 | ' 
01810                 | ' if (dx>dy)
01810     1B 33 5A F2 | 	cmps	local09, local11 wcz
01814     7C 00 90 ED |  if_be	jmp	#LR__0037
01818     1B 41 02 F6 | 	mov	local16, local11
0181c     19 41 82 F1 | 	sub	local16, local09
01820     01 40 66 F0 | 	shl	local16, #1
01824                 | '   ai:=(dy-dx)*2
01824     01 36 66 F0 | 	shl	local11, #1
01828     1B 43 02 F6 | 	mov	local17, local11
0182c                 | '   bi:=dy*2
0182c     21 45 02 F6 | 	mov	local18, local17
01830     19 45 82 F1 | 	sub	local18, local09
01834                 | '   d:= bi-dx
01834                 | '   repeat while (x<>x2) 
01834                 | LR__0034
01834     13 2D 0A F2 | 	cmp	local06, local03 wz
01838     D4 00 90 AD |  if_e	jmp	#LR__0042
0183c                 | '     if (d>=0) 
0183c     00 44 5E F2 | 	cmps	local18, #0 wcz
01840     10 00 90 CD |  if_b	jmp	#LR__0035
01844                 | '       x+=xi
01844     18 2D 02 F1 | 	add	local06, local08
01848                 | '       y+=yi
01848     1A 2F 02 F1 | 	add	local07, local10
0184c                 | '       d+=ai
0184c     20 45 02 F1 | 	add	local18, local16
01850                 | '     else
01850     08 00 90 FD | 	jmp	#LR__0036
01854                 | LR__0035
01854                 | '       d+=bi
01854     21 45 02 F1 | 	add	local18, local17
01858                 | '       x+=xi
01858     18 2D 02 F1 | 	add	local06, local08
0185c                 | LR__0036
0185c                 | '     putpixel(x,y,c)
0185c     D8 A6 05 F1 | 	add	objptr, #216
01860     D3 38 02 FB | 	rdlong	local12, objptr
01864     D8 A6 85 F1 | 	sub	objptr, #216
01868     1C 3B 02 FB | 	rdlong	local13, local12
0186c     04 38 06 F1 | 	add	local12, #4
01870     1C 3D 02 FB | 	rdlong	local14, local12
01874     16 19 02 F6 | 	mov	arg01, local06
01878     17 1B 02 F6 | 	mov	arg02, local07
0187c     15 1D 02 F6 | 	mov	arg03, local05
01880     D3 3E 02 F6 | 	mov	local15, objptr
01884     1D A7 01 F6 | 	mov	objptr, local13
01888     2D 3C 62 FD | 	call	local14
0188c     1F A7 01 F6 | 	mov	objptr, local15
01890     A0 FF 9F FD | 	jmp	#LR__0034
01894                 | ' else
01894                 | LR__0037
01894     19 41 02 F6 | 	mov	local16, local09
01898     1B 41 82 F1 | 	sub	local16, local11
0189c     01 40 66 F0 | 	shl	local16, #1
018a0                 | '   ai:=(dx-dy)*2
018a0     01 32 66 F0 | 	shl	local09, #1
018a4     19 43 02 F6 | 	mov	local17, local09
018a8                 | '   bi:=dx*2
018a8     21 45 02 F6 | 	mov	local18, local17
018ac     1B 45 82 F1 | 	sub	local18, local11
018b0                 | '   d:=bi-dy
018b0                 | '   repeat while (y<>y2)
018b0                 | LR__0038
018b0     14 2F 0A F2 | 	cmp	local07, local04 wz
018b4     58 00 90 AD |  if_e	jmp	#LR__0041
018b8                 | '     if (d>=0)
018b8     00 44 5E F2 | 	cmps	local18, #0 wcz
018bc     10 00 90 CD |  if_b	jmp	#LR__0039
018c0                 | '       x+=xi
018c0     18 2D 02 F1 | 	add	local06, local08
018c4                 | '       y+=yi
018c4     1A 2F 02 F1 | 	add	local07, local10
018c8                 | '       d+=ai
018c8     20 45 02 F1 | 	add	local18, local16
018cc                 | '     else
018cc     08 00 90 FD | 	jmp	#LR__0040
018d0                 | LR__0039
018d0                 | '       d+=bi
018d0     21 45 02 F1 | 	add	local18, local17
018d4                 | '       y+=yi
018d4     1A 2F 02 F1 | 	add	local07, local10
018d8                 | LR__0040
018d8                 | '     putpixel(x, y,c)
018d8     D8 A6 05 F1 | 	add	objptr, #216
018dc     D3 38 02 FB | 	rdlong	local12, objptr
018e0     D8 A6 85 F1 | 	sub	objptr, #216
018e4     1C 3B 02 FB | 	rdlong	local13, local12
018e8     04 38 06 F1 | 	add	local12, #4
018ec     1C 3D 02 FB | 	rdlong	local14, local12
018f0     16 19 02 F6 | 	mov	arg01, local06
018f4     17 1B 02 F6 | 	mov	arg02, local07
018f8     15 1D 02 F6 | 	mov	arg03, local05
018fc     D3 3E 02 F6 | 	mov	local15, objptr
01900     1D A7 01 F6 | 	mov	objptr, local13
01904     2D 3C 62 FD | 	call	local14
01908     1F A7 01 F6 | 	mov	objptr, local15
0190c     A0 FF 9F FD | 	jmp	#LR__0038
01910                 | LR__0041
01910                 | LR__0042
01910     A4 F0 03 F6 | 	mov	ptra, fp
01914     B4 00 A0 FD | 	call	#popregs_
01918                 | _line_ret
01918     2D 00 64 FD | 	ret
0191c                 | 
0191c                 | ' 
0191c                 | ' pub putcharxycg(x,y,achar,f,b) |xx, yy,bb
0191c                 | _putcharxycg
0191c     0E 44 05 F6 | 	mov	COUNT_, #14
01920     A5 00 A0 FD | 	call	#pushregs_
01924     0C 23 02 F6 | 	mov	local01, arg01
01928     0D 25 02 F6 | 	mov	local02, arg02
0192c     0E 27 02 F6 | 	mov	local03, arg03
01930     0F 29 02 F6 | 	mov	local04, arg04
01934     10 2B 02 F6 | 	mov	local05, arg05
01938     04 26 66 F0 | 	shl	local03, #4
0193c     00 2C 06 F6 | 	mov	local06, #0
01940                 | LR__0043
01940     D6 2E 02 F6 | 	mov	local07, ptr__dat__
01944     C8 A6 05 F1 | 	add	objptr, #200
01948     D3 30 02 FB | 	rdlong	local08, objptr
0194c     C8 A6 85 F1 | 	sub	objptr, #200
01950     0A 30 66 F0 | 	shl	local08, #10
01954     18 2F 02 F1 | 	add	local07, local08
01958     13 2F 02 F1 | 	add	local07, local03
0195c     16 2F 02 F1 | 	add	local07, local06
01960                 | '   bb:=byte[@vga_font+font_family<<10+achar<<4+yy]
01960     17 33 C2 FA | 	rdbyte	local09, local07
01964                 | '   repeat xx from 0 to 7
01964     00 34 06 F6 | 	mov	local10, #0
01968                 | LR__0044
01968                 | '     if (bb&(1<<xx))<>0
01968     1A 37 C2 F9 | 	decod	local11, local10
0196c     1B 33 CA F7 | 	test	local09, local11 wz
01970     40 00 90 AD |  if_e	jmp	#LR__0045
01974     1A 19 02 F6 | 	mov	arg01, local10
01978     11 19 02 F1 | 	add	arg01, local01
0197c     16 1B 02 F6 | 	mov	arg02, local06
01980     12 1B 02 F1 | 	add	arg02, local02
01984                 | '       putpixel(xx+x,yy+y,f)
01984     D8 A6 05 F1 | 	add	objptr, #216
01988     D3 38 02 FB | 	rdlong	local12, objptr
0198c     D8 A6 85 F1 | 	sub	objptr, #216
01990     1C 37 02 FB | 	rdlong	local11, local12
01994     04 38 06 F1 | 	add	local12, #4
01998     1C 3B 02 FB | 	rdlong	local13, local12
0199c     14 1D 02 F6 | 	mov	arg03, local04
019a0     D3 3C 02 F6 | 	mov	local14, objptr
019a4     1B A7 01 F6 | 	mov	objptr, local11
019a8     2D 3A 62 FD | 	call	local13
019ac     1E A7 01 F6 | 	mov	objptr, local14
019b0                 | '     else
019b0     3C 00 90 FD | 	jmp	#LR__0046
019b4                 | LR__0045
019b4     1A 19 02 F6 | 	mov	arg01, local10
019b8     11 19 02 F1 | 	add	arg01, local01
019bc     16 1B 02 F6 | 	mov	arg02, local06
019c0     12 1B 02 F1 | 	add	arg02, local02
019c4                 | '       putpixel(xx+x,yy+y,b)
019c4     D8 A6 05 F1 | 	add	objptr, #216
019c8     D3 38 02 FB | 	rdlong	local12, objptr
019cc     D8 A6 85 F1 | 	sub	objptr, #216
019d0     1C 37 02 FB | 	rdlong	local11, local12
019d4     04 38 06 F1 | 	add	local12, #4
019d8     1C 3B 02 FB | 	rdlong	local13, local12
019dc     15 1D 02 F6 | 	mov	arg03, local05
019e0     D3 3C 02 F6 | 	mov	local14, objptr
019e4     1B A7 01 F6 | 	mov	objptr, local11
019e8     2D 3A 62 FD | 	call	local13
019ec     1E A7 01 F6 | 	mov	objptr, local14
019f0                 | LR__0046
019f0     01 34 06 F1 | 	add	local10, #1
019f4     08 34 5E F2 | 	cmps	local10, #8 wcz
019f8     6C FF 9F CD |  if_b	jmp	#LR__0044
019fc     01 2C 06 F1 | 	add	local06, #1
01a00     10 2C 5E F2 | 	cmps	local06, #16 wcz
01a04     38 FF 9F CD |  if_b	jmp	#LR__0043
01a08     A4 F0 03 F6 | 	mov	ptra, fp
01a0c     B4 00 A0 FD | 	call	#popregs_
01a10                 | _putcharxycg_ret
01a10     2D 00 64 FD | 	ret
01a14                 | 
01a14                 | ' 
01a14                 | ' pub outtextxycg(x,y,text,f,b) | iii,c
01a14                 | _outtextxycg
01a14     0C 44 05 F6 | 	mov	COUNT_, #12
01a18     A5 00 A0 FD | 	call	#pushregs_
01a1c     0C 23 02 F6 | 	mov	local01, arg01
01a20     0D 25 02 F6 | 	mov	local02, arg02
01a24     0E 27 02 F6 | 	mov	local03, arg03
01a28     0F 29 02 F6 | 	mov	local04, arg04
01a2c     10 2B 02 F6 | 	mov	local05, arg05
01a30                 | ' 
01a30                 | ' repeat iii from 0 to strsize(text)-1
01a30     00 2C 06 F6 | 	mov	local06, #0
01a34     13 19 02 F6 | 	mov	arg01, local03
01a38     00 2E 06 F6 | 	mov	local07, #0
01a3c     D0 E5 9F FE | 	loc	pa,	#(@LR__0048-@LR__0047)
01a40     95 00 A0 FD | 	call	#FCACHE_LOAD_
01a44                 | LR__0047
01a44     0C 31 CA FA | 	rdbyte	local08, arg01 wz
01a48     01 2E 06 51 |  if_ne	add	local07, #1
01a4c     01 18 06 51 |  if_ne	add	arg01, #1
01a50     F0 FF 9F 5D |  if_ne	jmp	#LR__0047
01a54                 | LR__0048
01a54     17 B7 01 F6 | 	mov	result1, local07
01a58     DB 32 02 F6 | 	mov	local09, result1
01a5c     01 32 86 F1 | 	sub	local09, #1
01a60     00 32 5E F2 | 	cmps	local09, #0 wcz
01a64     01 34 06 16 |  if_a	mov	local10, #1
01a68     01 34 66 E6 |  if_be	neg	local10, #1
01a6c     1A 33 02 F1 | 	add	local09, local10
01a70                 | LR__0049
01a70     16 37 02 F6 | 	mov	local11, local06
01a74     03 36 66 F0 | 	shl	local11, #3
01a78     11 19 02 F6 | 	mov	arg01, local01
01a7c     1B 19 02 F1 | 	add	arg01, local11
01a80     13 39 02 F6 | 	mov	local12, local03
01a84     16 39 02 F1 | 	add	local12, local06
01a88                 | '   putcharxycg(x+8*iii,y,byte[text+iii],f,b)
01a88     12 1B 02 F6 | 	mov	arg02, local02
01a8c     1C 1D C2 FA | 	rdbyte	arg03, local12
01a90     14 1F 02 F6 | 	mov	arg04, local04
01a94     15 21 02 F6 | 	mov	arg05, local05
01a98     80 FE BF FD | 	call	#_putcharxycg
01a9c     1A 2D 02 F1 | 	add	local06, local10
01aa0     19 2D 0A F2 | 	cmp	local06, local09 wz
01aa4     C8 FF 9F 5D |  if_ne	jmp	#LR__0049
01aa8     A4 F0 03 F6 | 	mov	ptra, fp
01aac     B4 00 A0 FD | 	call	#popregs_
01ab0                 | _outtextxycg_ret
01ab0     2D 00 64 FD | 	ret
01ab4                 | 
01ab4                 | ' 
01ab4                 | ' 
01ab4                 | ' ''---------- putpixel - put a pixel on the screen
01ab4                 | ' 
01ab4                 | ' pub putpixel1(x,y,c) |byte b
01ab4                 | _putpixel1
01ab4                 | ' 
01ab4                 | ' 
01ab4                 | ' if ((x>=0) & (x<32*cpl) & (y>=0) & (y<lines))
01ab4     00 BA 05 F6 | 	mov	_var01, #0
01ab8     00 18 5E F2 | 	cmps	arg01, #0 wcz
01abc     01 BA 65 36 |  if_ae	neg	_var01, #1
01ac0     00 BC 05 F6 | 	mov	_var02, #0
01ac4     90 A6 05 F1 | 	add	objptr, #144
01ac8     D3 BE 01 FB | 	rdlong	_var03, objptr
01acc     05 BE 65 F0 | 	shl	_var03, #5
01ad0     DF 18 5A F2 | 	cmps	arg01, _var03 wcz
01ad4     01 BC 65 C6 |  if_b	neg	_var02, #1
01ad8     DE BA 01 F5 | 	and	_var01, _var02
01adc     00 C0 05 F6 | 	mov	_var04, #0
01ae0     00 1A 5E F2 | 	cmps	arg02, #0 wcz
01ae4     01 C0 65 36 |  if_ae	neg	_var04, #1
01ae8     E0 BA 01 F5 | 	and	_var01, _var04
01aec     00 C2 05 F6 | 	mov	_var05, #0
01af0     04 A6 05 F1 | 	add	objptr, #4
01af4     D3 C4 01 FB | 	rdlong	_var06, objptr
01af8     94 A6 85 F1 | 	sub	objptr, #148
01afc     E2 1A 5A F2 | 	cmps	arg02, _var06 wcz
01b00     01 C2 65 C6 |  if_b	neg	_var05, #1
01b04     E1 BA C9 F7 | 	test	_var01, _var05 wz
01b08     8C 00 90 AD |  if_e	jmp	#LR__0052
01b0c     90 A6 05 F1 | 	add	objptr, #144
01b10     D3 C6 01 FB | 	rdlong	_var07, objptr
01b14     90 A6 85 F1 | 	sub	objptr, #144
01b18     02 C6 65 F0 | 	shl	_var07, #2
01b1c     0D C7 01 FD | 	qmul	_var07, arg02
01b20     18 C8 61 FD | 	getqx	_var08
01b24     D3 CA 01 FB | 	rdlong	_var09, objptr
01b28     E4 CA 01 F1 | 	add	_var09, _var08
01b2c     0C CD 01 F6 | 	mov	_var10, arg01
01b30     03 CC 45 F0 | 	shr	_var10, #3
01b34     E6 CA 01 F1 | 	add	_var09, _var10
01b38                 | '     b:=byte[buf_ptr+4*cpl*y+(x>>3)]
01b38     E5 CE C1 FA | 	rdbyte	_var11, _var09
01b3c                 | '     if (c==0)
01b3c     00 1C 0E F2 | 	cmp	arg03, #0 wz
01b40     18 00 90 5D |  if_ne	jmp	#LR__0050
01b44     0C BB 51 F6 | 	abs	_var01, arg01 wc
01b48     07 BA 05 F5 | 	and	_var01, #7
01b4c     DD BA 61 C6 |  if_b	neg	_var01, _var01
01b50     DD D0 C1 F9 | 	decod	_var12, _var01
01b54                 | '       b:=b & !(1<<(x//8))
01b54     E8 CE 21 F5 | 	andn	_var11, _var12
01b58                 | '     else
01b58     14 00 90 FD | 	jmp	#LR__0051
01b5c                 | LR__0050
01b5c     0C BB 51 F6 | 	abs	_var01, arg01 wc
01b60     07 BA 05 F5 | 	and	_var01, #7
01b64     DD BA 61 C6 |  if_b	neg	_var01, _var01
01b68     DD D2 C1 F9 | 	decod	_var13, _var01
01b6c                 | '       b:=b |(1<<(x//8))
01b6c     E9 CE 41 F5 | 	or	_var11, _var13
01b70                 | LR__0051
01b70     90 A6 05 F1 | 	add	objptr, #144
01b74     D3 D4 01 FB | 	rdlong	_var14, objptr
01b78     90 A6 85 F1 | 	sub	objptr, #144
01b7c     02 D4 65 F0 | 	shl	_var14, #2
01b80     0D D5 01 FD | 	qmul	_var14, arg02
01b84     18 D6 61 FD | 	getqx	_var15
01b88     D3 D8 01 FB | 	rdlong	_var16, objptr
01b8c     EB D8 01 F1 | 	add	_var16, _var15
01b90     E6 D8 01 F1 | 	add	_var16, _var10
01b94                 | '     byte[buf_ptr+4*cpl*y+(x>>3)]:=b
01b94     EC CE 41 FC | 	wrbyte	_var11, _var16
01b98                 | LR__0052
01b98                 | _putpixel1_ret
01b98     2D 00 64 FD | 	ret
01b9c                 | 
01b9c                 | ' 
01b9c                 | ' 
01b9c                 | ' pub putpixel2(x,y,c) |byte b
01b9c                 | _putpixel2
01b9c                 | ' 
01b9c                 | ' 
01b9c                 | ' if ((x>=0) & (x<16*cpl) & (y>=0) & (y<lines))
01b9c     00 BA 05 F6 | 	mov	_var01, #0
01ba0     00 18 5E F2 | 	cmps	arg01, #0 wcz
01ba4     01 BA 65 36 |  if_ae	neg	_var01, #1
01ba8     00 BC 05 F6 | 	mov	_var02, #0
01bac     90 A6 05 F1 | 	add	objptr, #144
01bb0     D3 BE 01 FB | 	rdlong	_var03, objptr
01bb4     04 BE 65 F0 | 	shl	_var03, #4
01bb8     DF 18 5A F2 | 	cmps	arg01, _var03 wcz
01bbc     01 BC 65 C6 |  if_b	neg	_var02, #1
01bc0     DE BA 01 F5 | 	and	_var01, _var02
01bc4     00 C0 05 F6 | 	mov	_var04, #0
01bc8     00 1A 5E F2 | 	cmps	arg02, #0 wcz
01bcc     01 C0 65 36 |  if_ae	neg	_var04, #1
01bd0     E0 BA 01 F5 | 	and	_var01, _var04
01bd4     00 C2 05 F6 | 	mov	_var05, #0
01bd8     04 A6 05 F1 | 	add	objptr, #4
01bdc     D3 C4 01 FB | 	rdlong	_var06, objptr
01be0     94 A6 85 F1 | 	sub	objptr, #148
01be4     E2 1A 5A F2 | 	cmps	arg02, _var06 wcz
01be8     01 C2 65 C6 |  if_b	neg	_var05, #1
01bec     E1 BA C9 F7 | 	test	_var01, _var05 wz
01bf0     7C 00 90 AD |  if_e	jmp	#LR__0053
01bf4     90 A6 05 F1 | 	add	objptr, #144
01bf8     D3 C6 01 FB | 	rdlong	_var07, objptr
01bfc     90 A6 85 F1 | 	sub	objptr, #144
01c00     02 C6 65 F0 | 	shl	_var07, #2
01c04     0D C7 01 FD | 	qmul	_var07, arg02
01c08     18 C8 61 FD | 	getqx	_var08
01c0c     D3 CA 01 FB | 	rdlong	_var09, objptr
01c10     E4 CA 01 F1 | 	add	_var09, _var08
01c14     0C CD 01 F6 | 	mov	_var10, arg01
01c18     02 CC 45 F0 | 	shr	_var10, #2
01c1c     E6 CA 01 F1 | 	add	_var09, _var10
01c20                 | '     b:=byte[buf_ptr+4*cpl*y+(x>>2)]
01c20     E5 CE C1 FA | 	rdbyte	_var11, _var09
01c24     0C BB 51 F6 | 	abs	_var01, arg01 wc
01c28     03 BA 05 F5 | 	and	_var01, #3
01c2c     DD BA 61 C6 |  if_b	neg	_var01, _var01
01c30     01 BA 65 F0 | 	shl	_var01, #1
01c34     03 D0 05 F6 | 	mov	_var12, #3
01c38     DD D0 61 F0 | 	shl	_var12, _var01
01c3c                 | '     b:=b & !(%11<<((x//4)<<1))
01c3c     E8 CE 21 F5 | 	andn	_var11, _var12
01c40     DD 1C 62 F0 | 	shl	arg03, _var01
01c44                 | '     b:=b |(c<<((x//4)<<1))
01c44     0E CF 41 F5 | 	or	_var11, arg03
01c48     90 A6 05 F1 | 	add	objptr, #144
01c4c     D3 D2 01 FB | 	rdlong	_var13, objptr
01c50     90 A6 85 F1 | 	sub	objptr, #144
01c54     02 D2 65 F0 | 	shl	_var13, #2
01c58     0D D3 01 FD | 	qmul	_var13, arg02
01c5c     18 D4 61 FD | 	getqx	_var14
01c60     D3 D6 01 FB | 	rdlong	_var15, objptr
01c64     EA D6 01 F1 | 	add	_var15, _var14
01c68     E6 D6 01 F1 | 	add	_var15, _var10
01c6c                 | '     byte[buf_ptr+4*cpl*y+(x>>2)]:=b
01c6c     EB CE 41 FC | 	wrbyte	_var11, _var15
01c70                 | LR__0053
01c70                 | _putpixel2_ret
01c70     2D 00 64 FD | 	ret
01c74                 | 
01c74                 | ' 
01c74                 | ' 
01c74                 | ' pub putpixel4(x,y,c) |byte b
01c74                 | _putpixel4
01c74                 | ' 
01c74                 | ' if ((x>=0) & (x<16*cpl) & (y>=0) & (y<lines))
01c74     00 BA 05 F6 | 	mov	_var01, #0
01c78     00 18 5E F2 | 	cmps	arg01, #0 wcz
01c7c     01 BA 65 36 |  if_ae	neg	_var01, #1
01c80     00 BC 05 F6 | 	mov	_var02, #0
01c84     90 A6 05 F1 | 	add	objptr, #144
01c88     D3 BE 01 FB | 	rdlong	_var03, objptr
01c8c     04 BE 65 F0 | 	shl	_var03, #4
01c90     DF 18 5A F2 | 	cmps	arg01, _var03 wcz
01c94     01 BC 65 C6 |  if_b	neg	_var02, #1
01c98     DE BA 01 F5 | 	and	_var01, _var02
01c9c     00 C0 05 F6 | 	mov	_var04, #0
01ca0     00 1A 5E F2 | 	cmps	arg02, #0 wcz
01ca4     01 C0 65 36 |  if_ae	neg	_var04, #1
01ca8     E0 BA 01 F5 | 	and	_var01, _var04
01cac     00 C2 05 F6 | 	mov	_var05, #0
01cb0     04 A6 05 F1 | 	add	objptr, #4
01cb4     D3 C4 01 FB | 	rdlong	_var06, objptr
01cb8     94 A6 85 F1 | 	sub	objptr, #148
01cbc     E2 1A 5A F2 | 	cmps	arg02, _var06 wcz
01cc0     01 C2 65 C6 |  if_b	neg	_var05, #1
01cc4     E1 BA C9 F7 | 	test	_var01, _var05 wz
01cc8     7C 00 90 AD |  if_e	jmp	#LR__0054
01ccc     90 A6 05 F1 | 	add	objptr, #144
01cd0     D3 C6 01 FB | 	rdlong	_var07, objptr
01cd4     90 A6 85 F1 | 	sub	objptr, #144
01cd8     02 C6 65 F0 | 	shl	_var07, #2
01cdc     0D C7 01 FD | 	qmul	_var07, arg02
01ce0     18 C8 61 FD | 	getqx	_var08
01ce4     D3 CA 01 FB | 	rdlong	_var09, objptr
01ce8     E4 CA 01 F1 | 	add	_var09, _var08
01cec     0C CD 01 F6 | 	mov	_var10, arg01
01cf0     01 CC 45 F0 | 	shr	_var10, #1
01cf4     E6 CA 01 F1 | 	add	_var09, _var10
01cf8                 | '     b:=byte[buf_ptr+4*cpl*y+(x>>1)]
01cf8     E5 CE C1 FA | 	rdbyte	_var11, _var09
01cfc     0C BB 51 F6 | 	abs	_var01, arg01 wc
01d00     01 BA 05 F5 | 	and	_var01, #1
01d04     DD BA 61 C6 |  if_b	neg	_var01, _var01
01d08     02 BA 65 F0 | 	shl	_var01, #2
01d0c     0F D0 05 F6 | 	mov	_var12, #15
01d10     DD D0 61 F0 | 	shl	_var12, _var01
01d14                 | '     b:=b & !(%1111<<((x//2)<<2))
01d14     E8 CE 21 F5 | 	andn	_var11, _var12
01d18     DD 1C 62 F0 | 	shl	arg03, _var01
01d1c                 | '     b:=b |(c<<((x//2)<<2))
01d1c     0E CF 41 F5 | 	or	_var11, arg03
01d20     90 A6 05 F1 | 	add	objptr, #144
01d24     D3 D2 01 FB | 	rdlong	_var13, objptr
01d28     90 A6 85 F1 | 	sub	objptr, #144
01d2c     02 D2 65 F0 | 	shl	_var13, #2
01d30     0D D3 01 FD | 	qmul	_var13, arg02
01d34     18 D4 61 FD | 	getqx	_var14
01d38     D3 D6 01 FB | 	rdlong	_var15, objptr
01d3c     EA D6 01 F1 | 	add	_var15, _var14
01d40     E6 D6 01 F1 | 	add	_var15, _var10
01d44                 | '     byte[buf_ptr+4*cpl*y+(x>>1)]:=b
01d44     EB CE 41 FC | 	wrbyte	_var11, _var15
01d48                 | LR__0054
01d48                 | _putpixel4_ret
01d48     2D 00 64 FD | 	ret
01d4c                 | 
01d4c                 | ' 
01d4c                 | ' 
01d4c                 | ' pub putpixel8(x,y,c)
01d4c                 | _putpixel8
01d4c                 | ' 
01d4c                 | ' if ((y>=0) & (y<4*cpl) & (x>=0) & (x<lines))
01d4c     00 BA 05 F6 | 	mov	_var01, #0
01d50     00 1A 5E F2 | 	cmps	arg02, #0 wcz
01d54     01 BA 65 36 |  if_ae	neg	_var01, #1
01d58     00 BC 05 F6 | 	mov	_var02, #0
01d5c     90 A6 05 F1 | 	add	objptr, #144
01d60     D3 BE 01 FB | 	rdlong	_var03, objptr
01d64     02 BE 65 F0 | 	shl	_var03, #2
01d68     DF 1A 5A F2 | 	cmps	arg02, _var03 wcz
01d6c     01 BC 65 C6 |  if_b	neg	_var02, #1
01d70     DE BA 01 F5 | 	and	_var01, _var02
01d74     00 C0 05 F6 | 	mov	_var04, #0
01d78     00 18 5E F2 | 	cmps	arg01, #0 wcz
01d7c     01 C0 65 36 |  if_ae	neg	_var04, #1
01d80     E0 BA 01 F5 | 	and	_var01, _var04
01d84     00 C2 05 F6 | 	mov	_var05, #0
01d88     04 A6 05 F1 | 	add	objptr, #4
01d8c     D3 C4 01 FB | 	rdlong	_var06, objptr
01d90     94 A6 85 F1 | 	sub	objptr, #148
01d94     E2 18 5A F2 | 	cmps	arg01, _var06 wcz
01d98     01 C2 65 C6 |  if_b	neg	_var05, #1
01d9c     E1 BA C9 F7 | 	test	_var01, _var05 wz
01da0     28 00 90 AD |  if_e	jmp	#LR__0055
01da4     90 A6 05 F1 | 	add	objptr, #144
01da8     D3 C6 01 FB | 	rdlong	_var07, objptr
01dac     90 A6 85 F1 | 	sub	objptr, #144
01db0     02 C6 65 F0 | 	shl	_var07, #2
01db4     0C C7 01 FD | 	qmul	_var07, arg01
01db8     18 C8 61 FD | 	getqx	_var08
01dbc     D3 CA 01 FB | 	rdlong	_var09, objptr
01dc0     E4 CA 01 F1 | 	add	_var09, _var08
01dc4     0D CB 01 F1 | 	add	_var09, arg02
01dc8                 | '     byte[buf_ptr+4*cpl*(x)+y]:=c
01dc8     E5 1C 42 FC | 	wrbyte	arg03, _var09
01dcc                 | LR__0055
01dcc                 | _putpixel8_ret
01dcc     2D 00 64 FD | 	ret
01dd0                 | 
01dd0                 | ' 
01dd0                 | ' '*************************************************************************
01dd0                 | ' '                                                                        *
01dd0                 | ' '  VBlank functions                                                      *
01dd0                 | ' '                                                                        *
01dd0                 | ' '*************************************************************************
01dd0                 | ' 
01dd0                 | ' pub waitvbl(amount) | i
01dd0                 | _waitvbl
01dd0     04 44 05 F6 | 	mov	COUNT_, #4
01dd4     A5 00 A0 FD | 	call	#pushregs_
01dd8     0C 23 02 F6 | 	mov	local01, arg01
01ddc                 | ' 
01ddc                 | ' ''---------- Wait for start of vblank. Amount=delay in frames
01ddc                 | ' 
01ddc                 | ' repeat i from 1 to amount
01ddc     01 24 06 F6 | 	mov	local02, #1
01de0     01 22 5E F2 | 	cmps	local01, #1 wcz
01de4     01 26 06 16 |  if_a	mov	local03, #1
01de8     01 26 66 E6 |  if_be	neg	local03, #1
01dec     13 23 02 F1 | 	add	local01, local03
01df0                 | LR__0056
01df0                 | '   repeat until vblank==0
01df0                 | LR__0057
01df0     40 A6 05 F1 | 	add	objptr, #64
01df4     D3 28 0A FB | 	rdlong	local04, objptr wz
01df8     40 A6 85 F1 | 	sub	objptr, #64
01dfc     0C 00 90 AD |  if_e	jmp	#LR__0058
01e00                 | '     waitus(100)
01e00     64 18 06 F6 | 	mov	arg01, #100
01e04     0C 10 B0 FD | 	call	#__system___waitus
01e08     E4 FF 9F FD | 	jmp	#LR__0057
01e0c                 | LR__0058
01e0c                 | '   repeat until vblank==1
01e0c                 | LR__0059
01e0c     40 A6 05 F1 | 	add	objptr, #64
01e10     D3 28 02 FB | 	rdlong	local04, objptr
01e14     40 A6 85 F1 | 	sub	objptr, #64
01e18     01 28 0E F2 | 	cmp	local04, #1 wz
01e1c     0C 00 90 AD |  if_e	jmp	#LR__0060
01e20                 | '     waitus(100)
01e20     64 18 06 F6 | 	mov	arg01, #100
01e24     EC 0F B0 FD | 	call	#__system___waitus
01e28     E0 FF 9F FD | 	jmp	#LR__0059
01e2c                 | LR__0060
01e2c     13 25 02 F1 | 	add	local02, local03
01e30     11 25 0A F2 | 	cmp	local02, local01 wz
01e34     B8 FF 9F 5D |  if_ne	jmp	#LR__0056
01e38     A4 F0 03 F6 | 	mov	ptra, fp
01e3c     B4 00 A0 FD | 	call	#popregs_
01e40                 | _waitvbl_ret
01e40     2D 00 64 FD | 	ret
01e44                 | 
01e44                 | ' 
01e44                 | ' 
01e44                 | ' '*************************************************************************
01e44                 | ' '                                                                        *
01e44                 | ' '  Text functions                                                        *
01e44                 | ' '                                                                        *
01e44                 | ' '*************************************************************************
01e44                 | ' 
01e44                 | ' ''---------- Clear the screen, set its foreground/background color
01e44                 | ' 
01e44                 | ' pub cls(fc,bc)   :c
01e44                 | _cls
01e44     07 44 05 F6 | 	mov	COUNT_, #7
01e48     A5 00 A0 FD | 	call	#pushregs_
01e4c     0C 23 02 F6 | 	mov	local01, arg01
01e50     0D 25 02 F6 | 	mov	local02, arg02
01e54                 | ' 
01e54                 | ' if (graphmode<512)
01e54     C4 A6 05 F1 | 	add	objptr, #196
01e58     D3 26 02 FB | 	rdlong	local03, objptr
01e5c     C4 A6 85 F1 | 	sub	objptr, #196
01e60     01 00 00 FF 
01e64     00 26 5E F2 | 	cmps	local03, ##512 wcz
01e68     48 00 90 3D |  if_ae	jmp	#LR__0065
01e6c     11 29 02 F6 | 	mov	local04, local01
01e70     18 28 66 F0 | 	shl	local04, #24
01e74     12 2B 02 F6 | 	mov	local05, local02
01e78     10 2A 66 F0 | 	shl	local05, #16
01e7c     15 29 02 F1 | 	add	local04, local05
01e80     20 28 06 F1 | 	add	local04, #32
01e84                 | '   c:=fc<<24+bc<<16+$20
01e84                 | '   longfill(buf_ptr,c,buflen)
01e84     D3 18 02 FB | 	rdlong	arg01, objptr
01e88     30 A6 05 F1 | 	add	objptr, #48
01e8c     D3 1C 0A FB | 	rdlong	arg03, objptr wz
01e90     30 A6 85 F1 | 	sub	objptr, #48
01e94     14 1B 02 F6 | 	mov	arg02, local04
01e98     C4 00 90 AD |  if_e	jmp	#LR__0071
01e9c     6C E1 9F FE | 	loc	pa,	#(@LR__0063-@LR__0061)
01ea0     95 00 A0 FD | 	call	#FCACHE_LOAD_
01ea4                 | LR__0061
01ea4     0E 05 D8 FC | 	rep	@LR__0064, arg03
01ea8                 | LR__0062
01ea8     0C 1B 62 FC | 	wrlong	arg02, arg01
01eac     04 18 06 F1 | 	add	arg01, #4
01eb0                 | LR__0063
01eb0                 | LR__0064
01eb0                 | ' else
01eb0     AC 00 90 FD | 	jmp	#LR__0071
01eb4                 | LR__0065
01eb4                 | '   if (graphmode & 48) ==48
01eb4     C4 A6 05 F1 | 	add	objptr, #196
01eb8     D3 26 02 FB | 	rdlong	local03, objptr
01ebc     C4 A6 85 F1 | 	sub	objptr, #196
01ec0     30 26 06 F5 | 	and	local03, #48
01ec4     30 26 0E F2 | 	cmp	local03, #48 wz
01ec8                 | '     c:=bc
01ec8     12 29 02 A6 |  if_e	mov	local04, local02
01ecc     74 00 90 AD |  if_e	jmp	#LR__0070
01ed0                 | '   elseif (graphmode & 48) ==32
01ed0     C4 A6 05 F1 | 	add	objptr, #196
01ed4     D3 26 02 FB | 	rdlong	local03, objptr
01ed8     C4 A6 85 F1 | 	sub	objptr, #196
01edc     30 26 06 F5 | 	and	local03, #48
01ee0     20 26 0E F2 | 	cmp	local03, #32 wz
01ee4     10 00 90 5D |  if_ne	jmp	#LR__0066
01ee8     12 29 02 F6 | 	mov	local04, local02
01eec     04 28 66 F0 | 	shl	local04, #4
01ef0     12 29 02 F1 | 	add	local04, local02
01ef4                 | '     c:=bc<<4+bc
01ef4     4C 00 90 FD | 	jmp	#LR__0069
01ef8                 | LR__0066
01ef8                 | '   elseif (graphmode & 48) ==16
01ef8     C4 A6 05 F1 | 	add	objptr, #196
01efc     D3 26 02 FB | 	rdlong	local03, objptr
01f00     C4 A6 85 F1 | 	sub	objptr, #196
01f04     30 26 06 F5 | 	and	local03, #48
01f08     10 26 0E F2 | 	cmp	local03, #16 wz
01f0c     28 00 90 5D |  if_ne	jmp	#LR__0067
01f10     12 29 02 F6 | 	mov	local04, local02
01f14     06 28 66 F0 | 	shl	local04, #6
01f18     12 2D 02 F6 | 	mov	local06, local02
01f1c     04 2C 66 F0 | 	shl	local06, #4
01f20     16 29 02 F1 | 	add	local04, local06
01f24     12 2F 02 F6 | 	mov	local07, local02
01f28     02 2E 66 F0 | 	shl	local07, #2
01f2c     17 29 02 F1 | 	add	local04, local07
01f30     12 29 02 F1 | 	add	local04, local02
01f34                 | '     c:=bc<<6+bc<<4+bc<<2+bc
01f34                 | '   else
01f34     0C 00 90 FD | 	jmp	#LR__0068
01f38                 | LR__0067
01f38                 | '     if bc==1
01f38     01 24 0E F2 | 	cmp	local02, #1 wz
01f3c                 | '       c:=255
01f3c     FF 28 06 A6 |  if_e	mov	local04, #255
01f40                 | '     else
01f40                 | '       c:=0
01f40     00 28 06 56 |  if_ne	mov	local04, #0
01f44                 | LR__0068
01f44                 | LR__0069
01f44                 | LR__0070
01f44     30 A6 05 F1 | 	add	objptr, #48
01f48     D3 1C 02 FB | 	rdlong	arg03, objptr
01f4c     30 A6 85 F1 | 	sub	objptr, #48
01f50     02 1C 66 F0 | 	shl	arg03, #2
01f54                 | '   bytefill(buf_ptr,c,buflen*4)
01f54     D3 18 02 FB | 	rdlong	arg01, objptr
01f58     14 1B 02 F6 | 	mov	arg02, local04
01f5c     F0 0B B0 FD | 	call	#__system____builtin_memset
01f60                 | LR__0071
01f60                 | ' setwritecolors(fc,bc)
01f60                 | ' 
01f60                 | ' 
01f60                 | ' write_color:=ff
01f60     38 A6 05 F1 | 	add	objptr, #56
01f64     D3 22 62 FC | 	wrlong	local01, objptr
01f68                 | ' write_background:=bb
01f68     04 A6 05 F1 | 	add	objptr, #4
01f6c     D3 24 62 FC | 	wrlong	local02, objptr
01f70                 | ' cursor_x:=0
01f70     08 A6 85 F1 | 	sub	objptr, #8
01f74     D3 00 48 FC | 	wrbyte	#0, objptr
01f78                 | ' cursor_y:=0
01f78     01 A6 05 F1 | 	add	objptr, #1
01f7c     D3 00 48 FC | 	wrbyte	#0, objptr
01f80     35 A6 85 F1 | 	sub	objptr, #53
01f84     14 B7 01 F6 | 	mov	result1, local04
01f88     A4 F0 03 F6 | 	mov	ptra, fp
01f8c     B4 00 A0 FD | 	call	#popregs_
01f90                 | _cls_ret
01f90     2D 00 64 FD | 	ret
01f94                 | 
01f94                 | ' 
01f94                 | ' 
01f94                 | ' '*************************************************************************
01f94                 | ' '                                                                        *
01f94                 | ' '  Conversions                                                           *
01f94                 | ' '                                                                        *
01f94                 | ' '*************************************************************************
01f94                 | ' 
01f94                 | ' ''---------- Convert a integer to dec string, return a pointer
01f94                 | ' 
01f94                 | ' pub inttostr(i):result |q,pos,k,j
01f94                 | _inttostr
01f94     07 44 05 F6 | 	mov	COUNT_, #7
01f98     A5 00 A0 FD | 	call	#pushregs_
01f9c     0C 23 02 F6 | 	mov	local01, arg01
01fa0                 | ' 
01fa0                 | ' j:=i
01fa0     11 25 0A F6 | 	mov	local02, local01 wz
01fa4                 | ' pos:=10
01fa4     0A 26 06 F6 | 	mov	local03, #10
01fa8                 | ' k:=0
01fa8     00 28 06 F6 | 	mov	local04, #0
01fac                 | ' 
01fac                 | ' if (j==0)
01fac     18 00 90 5D |  if_ne	jmp	#LR__0072
01fb0                 | '   n_string[0]:=48
01fb0     44 A6 05 F1 | 	add	objptr, #68
01fb4     D3 60 48 FC | 	wrbyte	#48, objptr
01fb8                 | '   n_string[1]:=0
01fb8     01 A6 05 F1 | 	add	objptr, #1
01fbc     D3 00 48 FC | 	wrbyte	#0, objptr
01fc0     45 A6 85 F1 | 	sub	objptr, #69
01fc4                 | ' 
01fc4                 | ' else
01fc4     C4 00 90 FD | 	jmp	#LR__0079
01fc8                 | LR__0072
01fc8                 | '   if (j<0)
01fc8     00 24 5E F2 | 	cmps	local02, #0 wcz
01fcc                 | '     j:=0-j
01fcc     12 25 62 C6 |  if_b	neg	local02, local02
01fd0                 | '     k:=45
01fd0     2D 28 06 C6 |  if_b	mov	local04, #45
01fd4                 | ' 
01fd4                 | '   n_string[11]:=0
01fd4     4F A6 05 F1 | 	add	objptr, #79
01fd8     D3 00 48 FC | 	wrbyte	#0, objptr
01fdc     4F A6 85 F1 | 	sub	objptr, #79
01fe0     5C E0 9F FE | 	loc	pa,	#(@LR__0074-@LR__0073)
01fe4     95 00 A0 FD | 	call	#FCACHE_LOAD_
01fe8                 | '   repeat while (pos>-1)
01fe8                 | LR__0073
01fe8     FF FF 7F FF 
01fec     FF 27 5E F2 | 	cmps	local03, ##-1 wcz
01ff0     34 00 90 ED |  if_be	jmp	#LR__0075
01ff4     12 7D 02 F6 | 	mov	muldiva_, local02
01ff8     0A 7E 06 F6 | 	mov	muldivb_, #10
01ffc     C5 00 A0 FD | 	call	#divide_
02000     3E 2B 02 F6 | 	mov	local05, muldiva_
02004                 | '     q:=j//10
02004                 | '     q:=48+q
02004     30 2A 06 F1 | 	add	local05, #48
02008     13 2D 02 F6 | 	mov	local06, local03
0200c     44 A6 05 F1 | 	add	objptr, #68
02010     D3 2C 02 F1 | 	add	local06, objptr
02014                 | '     n_string[pos]:=q
02014     16 2B 42 FC | 	wrbyte	local05, local06
02018                 | '     j:=j/10
02018     3F 25 02 F6 | 	mov	local02, muldivb_
0201c                 | '     pos-=1
0201c     01 26 86 F1 | 	sub	local03, #1
02020     44 A6 85 F1 | 	sub	objptr, #68
02024     C0 FF 9F FD | 	jmp	#LR__0073
02028                 | LR__0074
02028                 | LR__0075
02028                 | '   repeat while n_string[0]==48
02028                 | LR__0076
02028     44 A6 05 F1 | 	add	objptr, #68
0202c     D3 2E C2 FA | 	rdbyte	local07, objptr
02030     44 A6 85 F1 | 	sub	objptr, #68
02034     30 2E 0E F2 | 	cmp	local07, #48 wz
02038     20 00 90 5D |  if_ne	jmp	#LR__0077
0203c     44 A6 05 F1 | 	add	objptr, #68
02040     D3 18 02 F6 | 	mov	arg01, objptr
02044     44 A6 85 F1 | 	sub	objptr, #68
02048     0C 1B 02 F6 | 	mov	arg02, arg01
0204c     01 1A 06 F1 | 	add	arg02, #1
02050                 | '     bytemove(@n_string,@n_string+1,12)
02050     0C 1C 06 F6 | 	mov	arg03, #12
02054     58 0B B0 FD | 	call	#__system____builtin_memmove
02058     CC FF 9F FD | 	jmp	#LR__0076
0205c                 | LR__0077
0205c                 | ' 
0205c                 | '   if k==45
0205c     2D 28 0E F2 | 	cmp	local04, #45 wz
02060     28 00 90 5D |  if_ne	jmp	#LR__0078
02064     44 A6 05 F1 | 	add	objptr, #68
02068     D3 1A 02 F6 | 	mov	arg02, objptr
0206c     44 A6 85 F1 | 	sub	objptr, #68
02070     0D 19 02 F6 | 	mov	arg01, arg02
02074     01 18 06 F1 | 	add	arg01, #1
02078                 | '      bytemove(@n_string+1,@n_string,12)
02078     0C 1C 06 F6 | 	mov	arg03, #12
0207c     30 0B B0 FD | 	call	#__system____builtin_memmove
02080                 | '      n_string[0]:=k
02080     44 A6 05 F1 | 	add	objptr, #68
02084     D3 28 42 FC | 	wrbyte	local04, objptr
02088     44 A6 85 F1 | 	sub	objptr, #68
0208c                 | LR__0078
0208c                 | LR__0079
0208c     44 A6 05 F1 | 	add	objptr, #68
02090     D3 B6 01 F6 | 	mov	result1, objptr
02094     44 A6 85 F1 | 	sub	objptr, #68
02098                 | ' 
02098                 | ' q:=@n_string
02098                 | ' return q
02098     A4 F0 03 F6 | 	mov	ptra, fp
0209c     B4 00 A0 FD | 	call	#popregs_
020a0                 | _inttostr_ret
020a0     2D 00 64 FD | 	ret
020a4                 | 
020a4                 | ' 
020a4                 | ' 
020a4                 | ' 
020a4                 | ' '*************************************************************************
020a4                 | ' '                                                                        *
020a4                 | ' '  Mode setting and driver start                                                          *
020a4                 | ' '                                                                        *
020a4                 | ' '*************************************************************************
020a4                 | ' 
020a4                 | ' ''---------  Set the graphics mode
020a4                 | ' 
020a4                 | ' 
020a4                 | ' 
020a4                 | ' pub setmode(mode) | i', 'xzoom, yzoom, azoom
020a4                 | _setmode
020a4     20 44 05 F6 | 	mov	COUNT_, #32
020a8     A5 00 A0 FD | 	call	#pushregs_
020ac     0C 23 02 F6 | 	mov	local01, arg01
020b0                 | ' 
020b0                 | ' '' mode:tn_bb_cc_vv_hh
020b0                 | ' '' hh - h.zoom, vv-v.zoom, cc-c.depth,
020b0                 | ' '' bb - borders/total pixels, 00-wide/1140, 01 medium/1026, 10 narrow/912, 11 no border, 1024 px PAL, 880 px NTSC
020b0                 | ' 
020b0                 | ' if mode==(512+192+48)
020b0     01 00 00 FF 
020b4     F0 22 0E F2 | 	cmp	local01, ##752 wz
020b8                 | '   return 'no RAM
020b8     04 06 90 AD |  if_e	jmp	#LR__0101
020bc                 | ' 
020bc                 | ' case_fast (mode>>6) & 7 ' timings are the same for graphic and text
020bc     11 25 02 F6 | 	mov	local02, local01
020c0     06 24 46 F0 | 	shr	local02, #6
020c4     07 24 06 F5 | 	and	local02, #7
020c8     08 24 26 F3 | 	fle	local02, #8
020cc     12 27 02 F6 | 	mov	local03, local02
020d0     30 26 62 FD | 	jmprel	local03
020d4                 | LR__0080
020d4     20 00 90 FD | 	jmp	#LR__0081
020d8     58 00 90 FD | 	jmp	#LR__0082
020dc     90 00 90 FD | 	jmp	#LR__0083
020e0     C8 00 90 FD | 	jmp	#LR__0084
020e4     00 01 90 FD | 	jmp	#LR__0085
020e8     38 01 90 FD | 	jmp	#LR__0086
020ec     70 01 90 FD | 	jmp	#LR__0087
020f0     A8 01 90 FD | 	jmp	#LR__0088
020f4     E4 01 90 FD | 	jmp	#LR__0089
020f8                 | LR__0081
020f8                 | ' 
020f8                 | '     0:  longmove(@timings,@timings000,16)   'PAL 50 Hz signaling 1140x624, active 800x480, 100x30 text, wide border, 2 colors per pixel, 00_00_00_00_00=0, 354_693_878 Hz
020f8     50 A6 05 F1 | 	add	objptr, #80
020fc     D3 18 02 F6 | 	mov	arg01, objptr
02100     50 A6 85 F1 | 	sub	objptr, #80
02104     0E 00 00 FF 
02108     58 AC 05 F1 | 	add	ptr__dat__, ##7256
0210c     D6 28 02 F6 | 	mov	local04, ptr__dat__
02110     14 2B 02 F6 | 	mov	local05, local04
02114     10 2C 06 F6 | 	mov	local06, #16
02118     15 1B 02 F6 | 	mov	arg02, local05
0211c     10 1C 06 F6 | 	mov	arg03, #16
02120     0E 00 00 FF 
02124     58 AC 85 F1 | 	sub	ptr__dat__, ##7256
02128     14 0B B0 FD | 	call	#__system__longmove
0212c     DB 2E 02 F6 | 	mov	local07, result1
02130     A8 01 90 FD | 	jmp	#LR__0089
02134                 | LR__0082
02134                 | '     1:  longmove(@timings,@timings064,16)   'PAL 50 Hz signaling 1026x624, active 880x496, 110x31 text, medium border, 2 colors per pixel 00_01_00_00_00=64, 319_215_686 Hz
02134     50 A6 05 F1 | 	add	objptr, #80
02138     D3 18 02 F6 | 	mov	arg01, objptr
0213c     50 A6 85 F1 | 	sub	objptr, #80
02140     0E 00 00 FF 
02144     98 AC 05 F1 | 	add	ptr__dat__, ##7320
02148     D6 28 02 F6 | 	mov	local04, ptr__dat__
0214c     14 2B 02 F6 | 	mov	local05, local04
02150     10 2C 06 F6 | 	mov	local06, #16
02154     15 1B 02 F6 | 	mov	arg02, local05
02158     10 1C 06 F6 | 	mov	arg03, #16
0215c     0E 00 00 FF 
02160     98 AC 85 F1 | 	sub	ptr__dat__, ##7320
02164     D8 0A B0 FD | 	call	#__system__longmove
02168     DB 2E 02 F6 | 	mov	local07, result1
0216c     6C 01 90 FD | 	jmp	#LR__0089
02170                 | LR__0083
02170                 | '     2:  longmove(@timings,@timings128,16)   'PAL 50 Hz signaling 912x624, active 800x480, 100x30 text, medium border, 2 colors per pixel 00_10_00_00_00=64, 283750000z
02170     50 A6 05 F1 | 	add	objptr, #80
02174     D3 18 02 F6 | 	mov	arg01, objptr
02178     50 A6 85 F1 | 	sub	objptr, #80
0217c     0E 00 00 FF 
02180     D8 AC 05 F1 | 	add	ptr__dat__, ##7384
02184     D6 28 02 F6 | 	mov	local04, ptr__dat__
02188     14 2B 02 F6 | 	mov	local05, local04
0218c     10 2C 06 F6 | 	mov	local06, #16
02190     15 1B 02 F6 | 	mov	arg02, local05
02194     10 1C 06 F6 | 	mov	arg03, #16
02198     0E 00 00 FF 
0219c     D8 AC 85 F1 | 	sub	ptr__dat__, ##7384
021a0     9C 0A B0 FD | 	call	#__system__longmove
021a4     DB 2E 02 F6 | 	mov	local07, result1
021a8     30 01 90 FD | 	jmp	#LR__0089
021ac                 | LR__0084
021ac                 | '     3:  longmove(@timings,@timings192,16)   'PAL 50 Hz signaling 1140x624, active 1024x576, 128x36 text, borderless, 2 colors per pixel 00_11_00_00_00=6192, 354_693_878 Hz
021ac     50 A6 05 F1 | 	add	objptr, #80
021b0     D3 18 02 F6 | 	mov	arg01, objptr
021b4     50 A6 85 F1 | 	sub	objptr, #80
021b8     0E 00 00 FF 
021bc     18 AD 05 F1 | 	add	ptr__dat__, ##7448
021c0     D6 28 02 F6 | 	mov	local04, ptr__dat__
021c4     14 2B 02 F6 | 	mov	local05, local04
021c8     10 2C 06 F6 | 	mov	local06, #16
021cc     15 1B 02 F6 | 	mov	arg02, local05
021d0     10 1C 06 F6 | 	mov	arg03, #16
021d4     0E 00 00 FF 
021d8     18 AD 85 F1 | 	sub	ptr__dat__, ##7448
021dc     60 0A B0 FD | 	call	#__system__longmove
021e0     DB 2E 02 F6 | 	mov	local07, result1
021e4     F4 00 90 FD | 	jmp	#LR__0089
021e8                 | LR__0085
021e8                 | '     4:  longmove(@timings,@timings256,16)   'NTSC 50 Hz signaling 1140x524, active 800x480, 100x30 text, NO PLACE FOR wide border, 2 colors per pixel, 01_00_00_00_00=256, 357959184 Hz
021e8     50 A6 05 F1 | 	add	objptr, #80
021ec     D3 18 02 F6 | 	mov	arg01, objptr
021f0     50 A6 85 F1 | 	sub	objptr, #80
021f4     0E 00 00 FF 
021f8     58 AD 05 F1 | 	add	ptr__dat__, ##7512
021fc     D6 28 02 F6 | 	mov	local04, ptr__dat__
02200     14 2B 02 F6 | 	mov	local05, local04
02204     10 2C 06 F6 | 	mov	local06, #16
02208     15 1B 02 F6 | 	mov	arg02, local05
0220c     10 1C 06 F6 | 	mov	arg03, #16
02210     0E 00 00 FF 
02214     58 AD 85 F1 | 	sub	ptr__dat__, ##7512
02218     24 0A B0 FD | 	call	#__system__longmove
0221c     DB 2E 02 F6 | 	mov	local07, result1
02220     B8 00 90 FD | 	jmp	#LR__0089
02224                 | LR__0086
02224                 | '     5:  longmove(@timings,@timings320,16)   'NTSC 50 Hz signaling 1026x524, active 800x480, 100x30 text, NO PLACE FOR wide border, 2 colors per pixel, 01_01_00_00_00=320, 322162162 Hz
02224     50 A6 05 F1 | 	add	objptr, #80
02228     D3 18 02 F6 | 	mov	arg01, objptr
0222c     50 A6 85 F1 | 	sub	objptr, #80
02230     0E 00 00 FF 
02234     98 AD 05 F1 | 	add	ptr__dat__, ##7576
02238     D6 28 02 F6 | 	mov	local04, ptr__dat__
0223c     14 2B 02 F6 | 	mov	local05, local04
02240     10 2C 06 F6 | 	mov	local06, #16
02244     15 1B 02 F6 | 	mov	arg02, local05
02248     10 1C 06 F6 | 	mov	arg03, #16
0224c     0E 00 00 FF 
02250     98 AD 85 F1 | 	sub	ptr__dat__, ##7576
02254     E8 09 B0 FD | 	call	#__system__longmove
02258     DB 2E 02 F6 | 	mov	local07, result1
0225c     7C 00 90 FD | 	jmp	#LR__0089
02260                 | LR__0087
02260                 | '     6:  longmove(@timings,@timings384,16)   'NTSC 50 Hz signaling 912x524, active 800x480, 100x30 text, NO PLACE FOR wide border, 2 colors per pixel, 01_10_00_00_00=384, 286363636 Hz
02260     50 A6 05 F1 | 	add	objptr, #80
02264     D3 18 02 F6 | 	mov	arg01, objptr
02268     50 A6 85 F1 | 	sub	objptr, #80
0226c     0E 00 00 FF 
02270     D8 AD 05 F1 | 	add	ptr__dat__, ##7640
02274     D6 28 02 F6 | 	mov	local04, ptr__dat__
02278     14 2B 02 F6 | 	mov	local05, local04
0227c     10 2C 06 F6 | 	mov	local06, #16
02280     15 1B 02 F6 | 	mov	arg02, local05
02284     10 1C 06 F6 | 	mov	arg03, #16
02288     0E 00 00 FF 
0228c     D8 AD 85 F1 | 	sub	ptr__dat__, ##7640
02290     AC 09 B0 FD | 	call	#__system__longmove
02294     DB 2E 02 F6 | 	mov	local07, result1
02298     40 00 90 FD | 	jmp	#LR__0089
0229c                 | LR__0088
0229c                 | '     7:  longmove(@timings,@timings448,16)   'NTSC 50 Hz signaling 1026x524, active 880x496, 110x31 text, borderless, 2 colors per pixel, 01_11_00_00_00=496, 322162162 Hz
0229c     50 A6 05 F1 | 	add	objptr, #80
022a0     D3 30 02 F6 | 	mov	local08, objptr
022a4     18 33 02 F6 | 	mov	local09, local08
022a8     0F 00 00 FF 
022ac     18 AC 05 F1 | 	add	ptr__dat__, ##7704
022b0     D6 28 02 F6 | 	mov	local04, ptr__dat__
022b4     14 2B 02 F6 | 	mov	local05, local04
022b8     10 2C 06 F6 | 	mov	local06, #16
022bc     19 19 02 F6 | 	mov	arg01, local09
022c0     15 1B 02 F6 | 	mov	arg02, local05
022c4     10 1C 06 F6 | 	mov	arg03, #16
022c8     50 A6 85 F1 | 	sub	objptr, #80
022cc     0F 00 00 FF 
022d0     18 AC 85 F1 | 	sub	ptr__dat__, ##7704
022d4     68 09 B0 FD | 	call	#__system__longmove
022d8     DB 2E 02 F6 | 	mov	local07, result1
022dc                 | LR__0089
022dc                 | ' 
022dc                 | ' ' 4-bit graphics: do nothing with timings :)
022dc                 | ' 
022dc                 | ' if (mode & (%10_00_11_0000))==(%10_00_11_0000) ' 8bit graphics, 4 pixels per long instead of 8, cpp x2
022dc     11 25 02 F6 | 	mov	local02, local01
022e0     01 00 00 FF 
022e4     30 24 06 F5 | 	and	local02, ##560
022e8     01 00 00 FF 
022ec     30 24 0E F2 | 	cmp	local02, ##560 wz
022f0     48 00 90 5D |  if_ne	jmp	#LR__0090
022f4                 | '   timings[5]:=4
022f4     64 A6 05 F1 | 	add	objptr, #100
022f8     D3 08 68 FC | 	wrlong	#4, objptr
022fc     18 A6 05 F1 | 	add	objptr, #24
02300     D3 34 02 FB | 	rdlong	local10, objptr
02304     01 34 66 F0 | 	shl	local10, #1
02308                 | '   timings[11]:=timings[11]<<1
02308     D3 34 62 FC | 	wrlong	local10, objptr
0230c                 | '   putpixel:=p8
0230c     6C A6 05 F1 | 	add	objptr, #108
02310     D3 24 02 FB | 	rdlong	local02, objptr
02314     10 A6 85 F1 | 	sub	objptr, #16
02318     D3 24 62 FC | 	wrlong	local02, objptr
0231c     0C 00 00 FF 
02320     58 AC 05 F1 | 	add	ptr__dat__, ##6232
02324     D6 36 02 F6 | 	mov	local11, ptr__dat__
02328                 | '   palette_ptr:=@ataripalette
02328     C0 A6 85 F1 | 	sub	objptr, #192
0232c     D3 36 62 FC | 	wrlong	local11, objptr
02330     18 A6 85 F1 | 	sub	objptr, #24
02334     0C 00 00 FF 
02338     58 AC 85 F1 | 	sub	ptr__dat__, ##6232
0233c                 | LR__0090
0233c                 | ' 
0233c                 | ' if (mode & (%10_00_11_0000))==(%10_00_01_0000) ' 2bit graphics, 16 pixels per long instead of 8, cpp /2
0233c     11 25 02 F6 | 	mov	local02, local01
02340     01 00 00 FF 
02344     30 24 06 F5 | 	and	local02, ##560
02348     01 00 00 FF 
0234c     10 24 0E F2 | 	cmp	local02, ##528 wz
02350     48 00 90 5D |  if_ne	jmp	#LR__0091
02354                 | '   timings[5]:=16
02354     64 A6 05 F1 | 	add	objptr, #100
02358     D3 20 68 FC | 	wrlong	#16, objptr
0235c     18 A6 05 F1 | 	add	objptr, #24
02360     D3 38 02 FB | 	rdlong	local12, objptr
02364     01 38 46 F0 | 	shr	local12, #1
02368                 | '   timings[11]:=timings[11]>>1
02368     D3 38 62 FC | 	wrlong	local12, objptr
0236c                 | '   putpixel:=p2
0236c     64 A6 05 F1 | 	add	objptr, #100
02370     D3 24 02 FB | 	rdlong	local02, objptr
02374     08 A6 85 F1 | 	sub	objptr, #8
02378     D3 24 62 FC | 	wrlong	local02, objptr
0237c     0C 00 00 FF 
02380     08 AC 05 F1 | 	add	ptr__dat__, ##6152
02384     D6 3A 02 F6 | 	mov	local13, ptr__dat__
02388                 | '   palette_ptr:=@fourcolors
02388     C0 A6 85 F1 | 	sub	objptr, #192
0238c     D3 3A 62 FC | 	wrlong	local13, objptr
02390     18 A6 85 F1 | 	sub	objptr, #24
02394     0C 00 00 FF 
02398     08 AC 85 F1 | 	sub	ptr__dat__, ##6152
0239c                 | LR__0091
0239c                 | ' 
0239c                 | ' if (mode & (%10_00_11_0000))==(%10_00_00_0000) ' 1bit graphics, 32 pixels per long instead of 8, cpp /4
0239c     11 25 02 F6 | 	mov	local02, local01
023a0     01 00 00 FF 
023a4     30 24 06 F5 | 	and	local02, ##560
023a8     01 00 00 FF 
023ac     00 24 0E F2 | 	cmp	local02, ##512 wz
023b0     48 00 90 5D |  if_ne	jmp	#LR__0092
023b4                 | '   timings[5]:=32
023b4     64 A6 05 F1 | 	add	objptr, #100
023b8     D3 40 68 FC | 	wrlong	#32, objptr
023bc     18 A6 05 F1 | 	add	objptr, #24
023c0     D3 3C 02 FB | 	rdlong	local14, objptr
023c4     02 3C 46 F0 | 	shr	local14, #2
023c8                 | '   timings[11]:=timings[11]>>2
023c8     D3 3C 62 FC | 	wrlong	local14, objptr
023cc                 | '   putpixel:=p1
023cc     60 A6 05 F1 | 	add	objptr, #96
023d0     D3 24 02 FB | 	rdlong	local02, objptr
023d4     04 A6 85 F1 | 	sub	objptr, #4
023d8     D3 24 62 FC | 	wrlong	local02, objptr
023dc     0C 00 00 FF 
023e0     00 AC 05 F1 | 	add	ptr__dat__, ##6144
023e4     D6 3E 02 F6 | 	mov	local15, ptr__dat__
023e8                 | '   palette_ptr:=@twocolors
023e8     C0 A6 85 F1 | 	sub	objptr, #192
023ec     D3 3E 62 FC | 	wrlong	local15, objptr
023f0     18 A6 85 F1 | 	sub	objptr, #24
023f4     0C 00 00 FF 
023f8     00 AC 85 F1 | 	sub	ptr__dat__, ##6144
023fc                 | LR__0092
023fc                 | ' 
023fc                 | ' if (mode & (%10_00_11_0000))==(%10_00_10_0000) ' 4bit graphics,
023fc     11 25 02 F6 | 	mov	local02, local01
02400     01 00 00 FF 
02404     30 24 06 F5 | 	and	local02, ##560
02408     01 00 00 FF 
0240c     20 24 0E F2 | 	cmp	local02, ##544 wz
02410     30 00 90 5D |  if_ne	jmp	#LR__0093
02414                 | '   putpixel:=p4
02414     E4 A6 05 F1 | 	add	objptr, #228
02418     D3 24 02 FB | 	rdlong	local02, objptr
0241c     0C A6 85 F1 | 	sub	objptr, #12
02420     D3 24 62 FC | 	wrlong	local02, objptr
02424     0C 00 00 FF 
02428     18 AC 05 F1 | 	add	ptr__dat__, ##6168
0242c     D6 40 02 F6 | 	mov	local16, ptr__dat__
02430                 | '   palette_ptr:=@vga16
02430     C0 A6 85 F1 | 	sub	objptr, #192
02434     D3 40 62 FC | 	wrlong	local16, objptr
02438     18 A6 85 F1 | 	sub	objptr, #24
0243c     0C 00 00 FF 
02440     18 AC 85 F1 | 	sub	ptr__dat__, ##6168
02444                 | LR__0093
02444                 | ' 
02444                 | ' repeat i from 0 to 4
02444     00 42 06 F6 | 	mov	local17, #0
02448     F8 DB 9F FE | 	loc	pa,	#(@LR__0095-@LR__0094)
0244c     95 00 A0 FD | 	call	#FCACHE_LOAD_
02450                 | LR__0094
02450     21 45 02 F6 | 	mov	local18, local17
02454     02 44 66 F0 | 	shl	local18, #2
02458     50 A6 05 F1 | 	add	objptr, #80
0245c     D3 44 02 F1 | 	add	local18, objptr
02460     2C A6 85 F1 | 	sub	objptr, #44
02464     D3 46 02 FB | 	rdlong	local19, objptr
02468     24 A6 85 F1 | 	sub	objptr, #36
0246c     11 46 66 F0 | 	shl	local19, #17
02470     22 49 02 FB | 	rdlong	local20, local18
02474     23 49 02 F1 | 	add	local20, local19
02478     24 4B 02 F6 | 	mov	local21, local20
0247c     80 40 38 FF 
02480     00 4A 06 F1 | 	add	local21, ##1887502336
02484                 | '   timings[i]:=timings[i]+hdmibase<<17+ timingsxxt
02484     22 4B 62 FC | 	wrlong	local21, local18
02488     01 42 06 F1 | 	add	local17, #1
0248c     05 42 5E F2 | 	cmps	local17, #5 wcz
02490     BC FF 9F CD |  if_b	jmp	#LR__0094
02494                 | LR__0095
02494     24 A6 05 F1 | 	add	objptr, #36
02498     D3 4C 02 FB | 	rdlong	local22, objptr
0249c     11 4C 66 F0 | 	shl	local22, #17
024a0     40 A6 05 F1 | 	add	objptr, #64
024a4     D3 4E 02 FB | 	rdlong	local23, objptr
024a8     26 4F 02 F1 | 	add	local23, local22
024ac                 | ' timings[5]:=timings[5]+hdmibase<<17
024ac     D3 4E 62 FC | 	wrlong	local23, objptr
024b0                 | ' clkfreq:=timings[13]
024b0     20 A6 05 F1 | 	add	objptr, #32
024b4     D3 24 02 FB | 	rdlong	local02, objptr
024b8     14 24 66 FC | 	wrlong	local02, #20
024bc                 | ' hubset(timings[14])
024bc     04 A6 05 F1 | 	add	objptr, #4
024c0     D3 18 02 FB | 	rdlong	arg01, objptr
024c4     88 A6 85 F1 | 	sub	objptr, #136
024c8     00 18 62 FD | 	hubset	arg01
024cc                 | ' waitms(1)
024cc     01 18 06 F6 | 	mov	arg01, #1
024d0     E0 08 B0 FD | 	call	#__system___waitms
024d4     11 51 02 F6 | 	mov	local24, local01
024d8     03 50 06 F5 | 	and	local24, #3
024dc     28 53 C2 F9 | 	decod	local25, local24
024e0                 | ' 
024e0                 | ' 
024e0                 | ' xzoom:=1<<(mode & 3)
024e0     CC A6 05 F1 | 	add	objptr, #204
024e4     D3 52 62 FC | 	wrlong	local25, objptr
024e8                 | ' 
024e8                 | ' if (xzoom==8) && (((mode>>4)&3)<>3)
024e8     29 31 02 F6 | 	mov	local08, local25
024ec     CC A6 85 F1 | 	sub	objptr, #204
024f0     08 30 0E F2 | 	cmp	local08, #8 wz
024f4     24 00 90 5D |  if_ne	jmp	#LR__0096
024f8     11 33 02 F6 | 	mov	local09, local01
024fc     04 32 46 F0 | 	shr	local09, #4
02500     03 32 06 F5 | 	and	local09, #3
02504     03 32 0E F2 | 	cmp	local09, #3 wz
02508     10 00 90 AD |  if_e	jmp	#LR__0096
0250c                 | '   xzoom:=4
0250c     04 24 06 F6 | 	mov	local02, #4
02510     CC A6 05 F1 | 	add	objptr, #204
02514     D3 08 68 FC | 	wrlong	#4, objptr
02518     CC A6 85 F1 | 	sub	objptr, #204
0251c                 | LR__0096
0251c     11 55 02 F6 | 	mov	local26, local01
02520     02 54 46 F0 | 	shr	local26, #2
02524     03 54 06 F5 | 	and	local26, #3
02528     2A 57 C2 F9 | 	decod	local27, local26
0252c                 | ' 
0252c                 | ' yzoom:=1<<((mode>>2) & 3)
0252c     D0 A6 05 F1 | 	add	objptr, #208
02530     D3 56 62 FC | 	wrlong	local27, objptr
02534     04 A6 85 F1 | 	sub	objptr, #4
02538     D3 30 02 FB | 	rdlong	local08, objptr
0253c     04 A6 05 F1 | 	add	objptr, #4
02540     D3 28 02 FB | 	rdlong	local04, objptr
02544     14 31 02 FD | 	qmul	local08, local04
02548     18 58 62 FD | 	getqx	local28
0254c                 | ' azoom:=xzoom*yzoom
0254c     04 A6 05 F1 | 	add	objptr, #4
02550     D3 58 62 FC | 	wrlong	local28, objptr
02554                 | ' 
02554                 | ' cpl:=timings[11]
02554     58 A6 85 F1 | 	sub	objptr, #88
02558     D3 24 02 FB | 	rdlong	local02, objptr
0255c     14 A6 05 F1 | 	add	objptr, #20
02560     D3 24 62 FC | 	wrlong	local02, objptr
02564     90 A6 85 F1 | 	sub	objptr, #144
02568                 | ' if (mode<512)
02568     01 00 00 FF 
0256c     00 22 5E F2 | 	cmps	local01, ##512 wcz
02570     60 00 90 3D |  if_ae	jmp	#LR__0097
02574     80 A6 05 F1 | 	add	objptr, #128
02578     D3 7C 02 FB | 	rdlong	muldiva_, objptr
0257c     04 7C 46 F0 | 	shr	muldiva_, #4
02580     50 A6 05 F1 | 	add	objptr, #80
02584     D3 7E 02 FB | 	rdlong	muldivb_, objptr
02588     D0 A6 85 F1 | 	sub	objptr, #208
0258c     C1 00 A0 FD | 	call	#unsdivide_
02590                 | '   lines:=(timings[12]>>4)+/yzoom
02590     94 A6 05 F1 | 	add	objptr, #148
02594     D3 7E 62 FC | 	wrlong	muldivb_, objptr
02598                 | '   if ((timings[12]>>4)+//yzoom) <>0
02598     14 A6 85 F1 | 	sub	objptr, #20
0259c     D3 7C 02 FB | 	rdlong	muldiva_, objptr
025a0     04 7C 46 F0 | 	shr	muldiva_, #4
025a4     50 A6 05 F1 | 	add	objptr, #80
025a8     D3 7E 02 FB | 	rdlong	muldivb_, objptr
025ac     D0 A6 85 F1 | 	sub	objptr, #208
025b0     C1 00 A0 FD | 	call	#unsdivide_
025b4     00 7C 0E F2 | 	cmp	muldiva_, #0 wz
025b8     AC 00 90 AD |  if_e	jmp	#LR__0100
025bc                 | '     lines +=1
025bc     94 A6 05 F1 | 	add	objptr, #148
025c0     D3 24 02 FB | 	rdlong	local02, objptr
025c4     01 24 06 F1 | 	add	local02, #1
025c8     D3 24 62 FC | 	wrlong	local02, objptr
025cc     94 A6 85 F1 | 	sub	objptr, #148
025d0                 | ' 
025d0                 | ' else
025d0     94 00 90 FD | 	jmp	#LR__0100
025d4                 | LR__0097
025d4     80 A6 05 F1 | 	add	objptr, #128
025d8     D3 7C 02 FB | 	rdlong	muldiva_, objptr
025dc     50 A6 05 F1 | 	add	objptr, #80
025e0     D3 7E 02 FB | 	rdlong	muldivb_, objptr
025e4     D0 A6 85 F1 | 	sub	objptr, #208
025e8     C5 00 A0 FD | 	call	#divide_
025ec                 | '   lines:=timings[12]/yzoom
025ec     94 A6 05 F1 | 	add	objptr, #148
025f0     D3 7E 62 FC | 	wrlong	muldivb_, objptr
025f4                 | '   if cpl//xzoom==0
025f4     04 A6 85 F1 | 	sub	objptr, #4
025f8     D3 7C 02 FB | 	rdlong	muldiva_, objptr
025fc     3C A6 05 F1 | 	add	objptr, #60
02600     D3 7E 02 FB | 	rdlong	muldivb_, objptr
02604     CC A6 85 F1 | 	sub	objptr, #204
02608     C5 00 A0 FD | 	call	#divide_
0260c     00 7C 0E F2 | 	cmp	muldiva_, #0 wz
02610     28 00 90 5D |  if_ne	jmp	#LR__0098
02614                 | '     cpl:=cpl/xzoom
02614     90 A6 05 F1 | 	add	objptr, #144
02618     D3 7C 02 FB | 	rdlong	muldiva_, objptr
0261c     3C A6 05 F1 | 	add	objptr, #60
02620     D3 7E 02 FB | 	rdlong	muldivb_, objptr
02624     CC A6 85 F1 | 	sub	objptr, #204
02628     C5 00 A0 FD | 	call	#divide_
0262c     90 A6 05 F1 | 	add	objptr, #144
02630     D3 7E 62 FC | 	wrlong	muldivb_, objptr
02634     90 A6 85 F1 | 	sub	objptr, #144
02638                 | '   else
02638     2C 00 90 FD | 	jmp	#LR__0099
0263c                 | LR__0098
0263c     90 A6 05 F1 | 	add	objptr, #144
02640     D3 7C 02 FB | 	rdlong	muldiva_, objptr
02644     3C A6 05 F1 | 	add	objptr, #60
02648     D3 7E 02 FB | 	rdlong	muldivb_, objptr
0264c     CC A6 85 F1 | 	sub	objptr, #204
02650     C5 00 A0 FD | 	call	#divide_
02654     3F 5B 02 F6 | 	mov	local29, muldivb_
02658     01 5A 06 F1 | 	add	local29, #1
0265c                 | '     cpl:=cpl/xzoom+1
0265c     90 A6 05 F1 | 	add	objptr, #144
02660     D3 5A 62 FC | 	wrlong	local29, objptr
02664     90 A6 85 F1 | 	sub	objptr, #144
02668                 | LR__0099
02668                 | LR__0100
02668     90 A6 05 F1 | 	add	objptr, #144
0266c     D3 30 02 FB | 	rdlong	local08, objptr
02670     04 A6 05 F1 | 	add	objptr, #4
02674     D3 28 02 FB | 	rdlong	local04, objptr
02678     14 31 02 FD | 	qmul	local08, local04
0267c     18 5C 62 FD | 	getqx	local30
02680                 | ' 
02680                 | ' buflen:=(cpl*lines)
02680     64 A6 85 F1 | 	sub	objptr, #100
02684     D3 5C 62 FC | 	wrlong	local30, objptr
02688     30 A6 85 F1 | 	sub	objptr, #48
0268c     02 5C 66 F0 | 	shl	local30, #2
02690     13 5E C6 F9 | 	decod	local31, #19
02694     2E 5F 82 F1 | 	sub	local31, local30
02698                 | ' 
02698                 | ' buf_ptr:=$80000-4*buflen
02698     D3 5E 62 FC | 	wrlong	local31, objptr
0269c     50 A6 05 F1 | 	add	objptr, #80
026a0     D3 60 02 F6 | 	mov	local32, objptr
026a4                 | ' mode_ptr:=@timings
026a4     3C A6 85 F1 | 	sub	objptr, #60
026a8     D3 60 62 FC | 	wrlong	local32, objptr
026ac                 | ' graphmode:=mode
026ac     B0 A6 05 F1 | 	add	objptr, #176
026b0     D3 22 62 FC | 	wrlong	local01, objptr
026b4     C4 A6 85 F1 | 	sub	objptr, #196
026b8                 | ' makedl(mode)
026b8     11 19 02 F6 | 	mov	arg01, local01
026bc     0C 00 B0 FD | 	call	#_makedl
026c0                 | LR__0101
026c0     A4 F0 03 F6 | 	mov	ptra, fp
026c4     B4 00 A0 FD | 	call	#popregs_
026c8                 | _setmode_ret
026c8     2D 00 64 FD | 	ret
026cc                 | 
026cc                 | ' 
026cc                 | ' 
026cc                 | ' 
026cc                 | ' 
026cc                 | ' '---------- Make a display list
026cc                 | ' 
026cc                 | ' pub makedl (mode) |i, fontline2,charline,bufstart,zoom1,vzoom,lpc,hzoom
026cc                 | _makedl
026cc                 | ' 
026cc                 | ' ''--%aaaa_aaaa_aaaa_aaaa_aazz_nnnn_llll_ll_01 - txt
026cc                 | '   '' aaaa_aaaa_aaaa_aaaa_aazz_rrrr_rrrr_cc_10 - graph
026cc                 | '   '' aaaa_aaaa_aaaa-aaaa_aarr_rrrr_rrrr_rr_11 - extended, next long to read
026cc                 | ' 
026cc                 | ' '   0 - display a up/down border line
026cc                 | ' 
026cc                 | ' '  ' aaaa_aaaa_aaaa_aaaa_aazz_nnnn_llll_ll_01 - text line
026cc                 | ' '    aaaa_aaaa_aaaa_aaaa_aa00 - buffer start, has to be aligned, 1 long for char, ff_bb_rr_cc, foreground, background,reserved, charcode
026cc                 | ' '    zz - zoom, 00-x1, 01-x2, 10-x4, 11-blank line
026cc                 | ' '    nnnn - font line to display, 0..15
026cc                 | ' '    llllll - character line, determines the cursor Y position
026cc                 | ' 
026cc                 | ' 
026cc                 | ' if (mode &256==0)
026cc     00 19 CE F7 | 	test	arg01, #256 wz
026d0     1C 00 90 5D |  if_ne	jmp	#LR__0102
026d4     D3 BA 01 FB | 	rdlong	_var01, objptr
026d8     04 00 00 FF 
026dc     00 BB 85 F1 | 	sub	_var01, ##2304
026e0                 | '   dl_ptr:=buf_ptr-4*576
026e0     1C A6 05 F1 | 	add	objptr, #28
026e4     D3 BA 61 FC | 	wrlong	_var01, objptr
026e8     1C A6 85 F1 | 	sub	objptr, #28
026ec                 | ' else
026ec     18 00 90 FD | 	jmp	#LR__0103
026f0                 | LR__0102
026f0     D3 BC 01 FB | 	rdlong	_var02, objptr
026f4     03 00 00 FF 
026f8     C0 BD 85 F1 | 	sub	_var02, ##1984
026fc                 | '   dl_ptr:=buf_ptr-4*496
026fc     1C A6 05 F1 | 	add	objptr, #28
02700     D3 BC 61 FC | 	wrlong	_var02, objptr
02704     1C A6 85 F1 | 	sub	objptr, #28
02708                 | LR__0103
02708     0C BF 01 F6 | 	mov	_var03, arg01
0270c     02 BE 45 F0 | 	shr	_var03, #2
02710     03 BE 05 F5 | 	and	_var03, #3
02714                 | ' 
02714                 | ' vzoom:=((mode>>2) & 3)
02714                 | ' 
02714                 | ' 
02714                 | ' if mode<512 '' text modes
02714     01 00 00 FF 
02718     00 18 5E F2 | 	cmps	arg01, ##512 wcz
0271c     E4 01 90 3D |  if_ae	jmp	#LR__0111
02720                 | ' 
02720                 | '   if timings[6]>0 'borders
02720     68 A6 05 F1 | 	add	objptr, #104
02724     D3 C0 01 FB | 	rdlong	_var04, objptr
02728     68 A6 85 F1 | 	sub	objptr, #104
0272c     00 C0 5D F2 | 	cmps	_var04, #0 wcz
02730     D4 00 90 ED |  if_be	jmp	#LR__0108
02734                 | '     repeat i from 0 to timings[6]-1 '0 to -1
02734     00 C2 05 F6 | 	mov	_var05, #0
02738     68 A6 05 F1 | 	add	objptr, #104
0273c     D3 C4 01 FB | 	rdlong	_var06, objptr
02740     68 A6 85 F1 | 	sub	objptr, #104
02744     01 C4 85 F1 | 	sub	_var06, #1
02748     00 C4 5D F2 | 	cmps	_var06, #0 wcz
0274c     01 C6 05 16 |  if_a	mov	_var07, #1
02750     01 C6 65 E6 |  if_be	neg	_var07, #1
02754     E3 C8 01 F6 | 	mov	_var08, _var07
02758     E3 C4 01 F1 | 	add	_var06, _var07
0275c     C8 D8 9F FE | 	loc	pa,	#(@LR__0105-@LR__0104)
02760     95 00 A0 FD | 	call	#FCACHE_LOAD_
02764                 | LR__0104
02764     E1 CA 01 F6 | 	mov	_var09, _var05
02768     02 CA 65 F0 | 	shl	_var09, #2
0276c     1C A6 05 F1 | 	add	objptr, #28
02770     D3 CC 01 FB | 	rdlong	_var10, objptr
02774     1C A6 85 F1 | 	sub	objptr, #28
02778     E5 CC 01 F1 | 	add	_var10, _var09
0277c                 | '       long[dl_ptr+4*i]:=$0
0277c     E6 00 68 FC | 	wrlong	#0, _var10
02780     E4 C2 01 F1 | 	add	_var05, _var08
02784     E2 C2 09 F2 | 	cmp	_var05, _var06 wz
02788     D8 FF 9F 5D |  if_ne	jmp	#LR__0104
0278c                 | LR__0105
0278c                 | '     repeat i from timings[6]+timings[12] to timings[15]-1
0278c     68 A6 05 F1 | 	add	objptr, #104
02790     D3 C2 01 FB | 	rdlong	_var05, objptr
02794     18 A6 05 F1 | 	add	objptr, #24
02798     D3 C6 01 FB | 	rdlong	_var07, objptr
0279c     E3 C2 01 F1 | 	add	_var05, _var07
027a0     0C A6 05 F1 | 	add	objptr, #12
027a4     D3 CE 01 FB | 	rdlong	_var11, objptr
027a8     01 CE 85 F1 | 	sub	_var11, #1
027ac     24 A6 85 F1 | 	sub	objptr, #36
027b0     D3 D0 01 FB | 	rdlong	_var12, objptr
027b4     18 A6 05 F1 | 	add	objptr, #24
027b8     D3 D2 01 FB | 	rdlong	_var13, objptr
027bc     80 A6 85 F1 | 	sub	objptr, #128
027c0     E9 D0 01 F1 | 	add	_var12, _var13
027c4     E8 CE 59 F2 | 	cmps	_var11, _var12 wcz
027c8     01 D4 05 16 |  if_a	mov	_var14, #1
027cc     01 D4 65 E6 |  if_be	neg	_var14, #1
027d0     EA D6 01 F6 | 	mov	_var15, _var14
027d4     EA CE 01 F1 | 	add	_var11, _var14
027d8     4C D8 9F FE | 	loc	pa,	#(@LR__0107-@LR__0106)
027dc     95 00 A0 FD | 	call	#FCACHE_LOAD_
027e0                 | LR__0106
027e0     E1 D8 01 F6 | 	mov	_var16, _var05
027e4     02 D8 65 F0 | 	shl	_var16, #2
027e8     1C A6 05 F1 | 	add	objptr, #28
027ec     D3 DA 01 FB | 	rdlong	_var17, objptr
027f0     1C A6 85 F1 | 	sub	objptr, #28
027f4     EC DA 01 F1 | 	add	_var17, _var16
027f8                 | '       long[dl_ptr+4*i]:=$0
027f8     ED 00 68 FC | 	wrlong	#0, _var17
027fc     EB C2 01 F1 | 	add	_var05, _var15
02800     E7 C2 09 F2 | 	cmp	_var05, _var11 wz
02804     D8 FF 9F 5D |  if_ne	jmp	#LR__0106
02808                 | LR__0107
02808                 | LR__0108
02808     10 DC 05 F6 | 	mov	_var18, #16
0280c     DF DC 61 F0 | 	shl	_var18, _var03
02810                 | '   lpc:=16<<vzoom
02810                 | '   repeat i from timings[6] to timings[6]+timings[12]-1
02810     68 A6 05 F1 | 	add	objptr, #104
02814     D3 C2 01 FB | 	rdlong	_var05, objptr
02818     E1 DE 01 F6 | 	mov	_var19, _var05
0281c     18 A6 05 F1 | 	add	objptr, #24
02820     D3 E0 01 FB | 	rdlong	_var20, objptr
02824     F0 DE 01 F1 | 	add	_var19, _var20
02828     01 DE 85 F1 | 	sub	_var19, #1
0282c     18 A6 85 F1 | 	sub	objptr, #24
02830     D3 D4 01 FB | 	rdlong	_var14, objptr
02834     68 A6 85 F1 | 	sub	objptr, #104
02838     EA DE 59 F2 | 	cmps	_var19, _var14 wcz
0283c     01 E2 05 16 |  if_a	mov	_var21, #1
02840     01 E2 65 E6 |  if_be	neg	_var21, #1
02844     F1 E4 01 F6 | 	mov	_var22, _var21
02848     F1 DE 01 F1 | 	add	_var19, _var21
0284c     60 D8 9F FE | 	loc	pa,	#(@LR__0110-@LR__0109)
02850     95 00 A0 FD | 	call	#FCACHE_LOAD_
02854                 | LR__0109
02854     E1 7C 02 F6 | 	mov	muldiva_, _var05
02858     68 A6 05 F1 | 	add	objptr, #104
0285c     D3 E6 01 FB | 	rdlong	_var23, objptr
02860     68 A6 85 F1 | 	sub	objptr, #104
02864     F3 7C 82 F1 | 	sub	muldiva_, _var23
02868     EE 7E 02 F6 | 	mov	muldivb_, _var18
0286c     C1 00 A0 FD | 	call	#unsdivide_
02870     DF 7C 42 F0 | 	shr	muldiva_, _var03
02874                 | '     fontline2:=((i-timings[6])+//lpc)>>vzoom
02874     3E E9 01 F6 | 	mov	_var24, muldiva_
02878     E1 7C 02 F6 | 	mov	muldiva_, _var05
0287c     68 A6 05 F1 | 	add	objptr, #104
02880     D3 E6 01 FB | 	rdlong	_var23, objptr
02884     68 A6 85 F1 | 	sub	objptr, #104
02888     F3 7C 82 F1 | 	sub	muldiva_, _var23
0288c     EE 7E 02 F6 | 	mov	muldivb_, _var18
02890     C1 00 A0 FD | 	call	#unsdivide_
02894     3F EB 01 F6 | 	mov	_var25, muldivb_
02898                 | '     charline:=(i-timings[6])+/lpc
02898     90 A6 05 F1 | 	add	objptr, #144
0289c     D3 E6 01 FB | 	rdlong	_var23, objptr
028a0     90 A6 85 F1 | 	sub	objptr, #144
028a4     F5 E6 01 FD | 	qmul	_var23, _var25
028a8     18 EC 61 FD | 	getqx	_var26
028ac     02 EC 65 F0 | 	shl	_var26, #2
028b0     D3 EE 01 FB | 	rdlong	_var27, objptr
028b4     F6 EE 01 F1 | 	add	_var27, _var26
028b8     0C F1 01 F6 | 	mov	_var28, arg01
028bc     03 F0 05 F5 | 	and	_var28, #3
028c0     F8 EE 01 F1 | 	add	_var27, _var28
028c4                 | '     bufstart:=buf_ptr+4*((cpl)*charline)+(mode&3)
028c4     0C EE 65 F0 | 	shl	_var27, #12
028c8     08 E8 65 F0 | 	shl	_var24, #8
028cc     F4 EE 01 F1 | 	add	_var27, _var24
028d0     02 EA 65 F0 | 	shl	_var25, #2
028d4     F5 EE 01 F1 | 	add	_var27, _var25
028d8     01 EE 05 F1 | 	add	_var27, #1
028dc     E1 F2 01 F6 | 	mov	_var29, _var05
028e0     02 F2 65 F0 | 	shl	_var29, #2
028e4     1C A6 05 F1 | 	add	objptr, #28
028e8     D3 F4 01 FB | 	rdlong	_var30, objptr
028ec     1C A6 85 F1 | 	sub	objptr, #28
028f0     F9 F4 01 F1 | 	add	_var30, _var29
028f4                 | '     long[dl_ptr+4*i]:=(bufstart<<12)+(fontline2<<8)+(charline<<2)+1
028f4     FA EE 61 FC | 	wrlong	_var27, _var30
028f8     F2 C2 01 F1 | 	add	_var05, _var22
028fc     EF C2 09 F2 | 	cmp	_var05, _var19 wz
02900     50 FF 9F 5D |  if_ne	jmp	#LR__0109
02904                 | LR__0110
02904                 | LR__0111
02904                 | ' 
02904                 | ' 
02904                 | ' 
02904                 | ' if (mode>=512)' and (mode & (%10_00_00_0000))==(%10_00_00_0000) ' graphics -> all modes TODO :mode 560+192=752 = 10_11_11_0000 impossib,e because out of memory
02904     01 00 00 FF 
02908     00 18 5E F2 | 	cmps	arg01, ##512 wcz
0290c     AC 01 90 CD |  if_b	jmp	#LR__0119
02910                 | ' 
02910                 | '   if timings[6]>0 'borders
02910     68 A6 05 F1 | 	add	objptr, #104
02914     D3 C0 01 FB | 	rdlong	_var04, objptr
02918     68 A6 85 F1 | 	sub	objptr, #104
0291c     00 C0 5D F2 | 	cmps	_var04, #0 wcz
02920     D4 00 90 ED |  if_be	jmp	#LR__0116
02924                 | '     repeat i from 0 to timings[6]-1 '0 to -1
02924     00 C2 05 F6 | 	mov	_var05, #0
02928     68 A6 05 F1 | 	add	objptr, #104
0292c     D3 F6 01 FB | 	rdlong	_var31, objptr
02930     68 A6 85 F1 | 	sub	objptr, #104
02934     01 F6 85 F1 | 	sub	_var31, #1
02938     00 F6 5D F2 | 	cmps	_var31, #0 wcz
0293c     01 C6 05 16 |  if_a	mov	_var07, #1
02940     01 C6 65 E6 |  if_be	neg	_var07, #1
02944     E3 F8 01 F6 | 	mov	_var32, _var07
02948     E3 F6 01 F1 | 	add	_var31, _var07
0294c     D8 D6 9F FE | 	loc	pa,	#(@LR__0113-@LR__0112)
02950     95 00 A0 FD | 	call	#FCACHE_LOAD_
02954                 | LR__0112
02954     E1 FA 01 F6 | 	mov	_var33, _var05
02958     02 FA 65 F0 | 	shl	_var33, #2
0295c     1C A6 05 F1 | 	add	objptr, #28
02960     D3 FC 01 FB | 	rdlong	_var34, objptr
02964     1C A6 85 F1 | 	sub	objptr, #28
02968     FD FC 01 F1 | 	add	_var34, _var33
0296c                 | '       long[dl_ptr+4*i]:=$0
0296c     FE 00 68 FC | 	wrlong	#0, _var34
02970     FC C2 01 F1 | 	add	_var05, _var32
02974     FB C2 09 F2 | 	cmp	_var05, _var31 wz
02978     D8 FF 9F 5D |  if_ne	jmp	#LR__0112
0297c                 | LR__0113
0297c                 | '     repeat i from timings[6]+timings[12] to timings[15]-1
0297c     68 A6 05 F1 | 	add	objptr, #104
02980     D3 C2 01 FB | 	rdlong	_var05, objptr
02984     18 A6 05 F1 | 	add	objptr, #24
02988     D3 C6 01 FB | 	rdlong	_var07, objptr
0298c     E3 C2 01 F1 | 	add	_var05, _var07
02990     0C A6 05 F1 | 	add	objptr, #12
02994     D3 FE 01 FB | 	rdlong	_var35, objptr
02998     01 FE 85 F1 | 	sub	_var35, #1
0299c     24 A6 85 F1 | 	sub	objptr, #36
029a0     D3 D0 01 FB | 	rdlong	_var12, objptr
029a4     18 A6 05 F1 | 	add	objptr, #24
029a8     D3 D2 01 FB | 	rdlong	_var13, objptr
029ac     80 A6 85 F1 | 	sub	objptr, #128
029b0     E9 D0 01 F1 | 	add	_var12, _var13
029b4     E8 FE 59 F2 | 	cmps	_var35, _var12 wcz
029b8     01 D4 05 16 |  if_a	mov	_var14, #1
029bc     01 D4 65 E6 |  if_be	neg	_var14, #1
029c0     EA 00 02 F6 | 	mov	_var36, _var14
029c4     EA FE 01 F1 | 	add	_var35, _var14
029c8     5C D6 9F FE | 	loc	pa,	#(@LR__0115-@LR__0114)
029cc     95 00 A0 FD | 	call	#FCACHE_LOAD_
029d0                 | LR__0114
029d0     E1 02 02 F6 | 	mov	_var37, _var05
029d4     02 02 66 F0 | 	shl	_var37, #2
029d8     1C A6 05 F1 | 	add	objptr, #28
029dc     D3 04 02 FB | 	rdlong	_var38, objptr
029e0     1C A6 85 F1 | 	sub	objptr, #28
029e4     01 05 02 F1 | 	add	_var38, _var37
029e8                 | '       long[dl_ptr+4*i]:=$0
029e8     02 01 68 FC | 	wrlong	#0, _var38
029ec     00 C3 01 F1 | 	add	_var05, _var36
029f0     FF C2 09 F2 | 	cmp	_var05, _var35 wz
029f4     D8 FF 9F 5D |  if_ne	jmp	#LR__0114
029f8                 | LR__0115
029f8                 | LR__0116
029f8                 | '   repeat i from timings[6] to timings[6]+timings[12]-1
029f8     68 A6 05 F1 | 	add	objptr, #104
029fc     D3 C2 01 FB | 	rdlong	_var05, objptr
02a00     E1 06 02 F6 | 	mov	_var39, _var05
02a04     18 A6 05 F1 | 	add	objptr, #24
02a08     D3 E0 01 FB | 	rdlong	_var20, objptr
02a0c     F0 06 02 F1 | 	add	_var39, _var20
02a10     01 06 86 F1 | 	sub	_var39, #1
02a14     18 A6 85 F1 | 	sub	objptr, #24
02a18     D3 D4 01 FB | 	rdlong	_var14, objptr
02a1c     68 A6 85 F1 | 	sub	objptr, #104
02a20     EA 06 5A F2 | 	cmps	_var39, _var14 wcz
02a24     01 E2 05 16 |  if_a	mov	_var21, #1
02a28     01 E2 65 E6 |  if_be	neg	_var21, #1
02a2c     F1 08 02 F6 | 	mov	_var40, _var21
02a30     F1 06 02 F1 | 	add	_var39, _var21
02a34     48 D6 9F FE | 	loc	pa,	#(@LR__0118-@LR__0117)
02a38     95 00 A0 FD | 	call	#FCACHE_LOAD_
02a3c                 | LR__0117
02a3c     E1 0A 02 F6 | 	mov	_var41, _var05
02a40     68 A6 05 F1 | 	add	objptr, #104
02a44     D3 E6 01 FB | 	rdlong	_var23, objptr
02a48     F3 0A 82 F1 | 	sub	_var41, _var23
02a4c     DF 0A 42 F0 | 	shr	_var41, _var03
02a50     28 A6 05 F1 | 	add	objptr, #40
02a54     D3 E6 01 FB | 	rdlong	_var23, objptr
02a58     90 A6 85 F1 | 	sub	objptr, #144
02a5c     05 E7 01 FD | 	qmul	_var23, _var41
02a60     18 0C 62 FD | 	getqx	_var42
02a64     02 0C 66 F0 | 	shl	_var42, #2
02a68     D3 0E 02 FB | 	rdlong	_var43, objptr
02a6c     06 0F 02 F1 | 	add	_var43, _var42
02a70     0C 11 02 F6 | 	mov	_var44, arg01
02a74     03 10 06 F5 | 	and	_var44, #3
02a78     08 0F 02 F1 | 	add	_var43, _var44
02a7c                 | '     bufstart:=buf_ptr+4*(cpl*((i-timings[6])>>vzoom))+(mode&3)
02a7c     0C 0E 66 F0 | 	shl	_var43, #12
02a80     02 0E 06 F1 | 	add	_var43, #2
02a84     0C 13 02 F6 | 	mov	_var45, arg01
02a88     30 12 06 F5 | 	and	_var45, #48
02a8c     02 12 46 F0 | 	shr	_var45, #2
02a90     09 0F 02 F1 | 	add	_var43, _var45
02a94     E1 14 02 F6 | 	mov	_var46, _var05
02a98     02 14 66 F0 | 	shl	_var46, #2
02a9c     1C A6 05 F1 | 	add	objptr, #28
02aa0     D3 16 02 FB | 	rdlong	_var47, objptr
02aa4     1C A6 85 F1 | 	sub	objptr, #28
02aa8     0A 17 02 F1 | 	add	_var47, _var46
02aac                 | '     long[dl_ptr+4*i]:=(bufstart<<12)+2+(mode &48)>>2
02aac     0B 0F 62 FC | 	wrlong	_var43, _var47
02ab0     04 C3 01 F1 | 	add	_var05, _var40
02ab4     03 C3 09 F2 | 	cmp	_var05, _var39 wz
02ab8     80 FF 9F 5D |  if_ne	jmp	#LR__0117
02abc                 | LR__0118
02abc                 | LR__0119
02abc                 | _makedl_ret
02abc     2D 00 64 FD | 	ret
02ac0                 | hubexit
02ac0     83 00 80 FD | 	jmp	#cogexit
02ac4                 | 
02ac4                 | __system___setbaud
02ac4     14 7C 06 FB | 	rdlong	muldiva_, #20
02ac8     0C 7F 02 F6 | 	mov	muldivb_, arg01
02acc     C5 00 A0 FD | 	call	#divide_
02ad0     40 7C 64 FD | 	dirl	#62
02ad4     40 7E 64 FD | 	dirl	#63
02ad8     D5 7E 62 FC | 	wrlong	muldivb_, ptr___system__dat__
02adc     10 7E 66 F0 | 	shl	muldivb_, #16
02ae0     07 1A 06 F6 | 	mov	arg02, #7
02ae4     3F 1B 02 F1 | 	add	arg02, muldivb_
02ae8     3E F8 0C FC | 	wrpin	#124, #62
02aec     3E 1A 16 FC | 	wxpin	arg02, #62
02af0     3F 7C 0C FC | 	wrpin	#62, #63
02af4     14 1A 06 F1 | 	add	arg02, #20
02af8     3F 1A 16 FC | 	wxpin	arg02, #63
02afc     41 7C 64 FD | 	dirh	#62
02b00     41 7E 64 FD | 	dirh	#63
02b04                 | __system___setbaud_ret
02b04     2D 00 64 FD | 	ret
02b08                 | 
02b08                 | __system___txraw
02b08     02 44 05 F6 | 	mov	COUNT_, #2
02b0c     A5 00 A0 FD | 	call	#pushregs_
02b10     0C 23 02 F6 | 	mov	local01, arg01
02b14     D5 24 0A FB | 	rdlong	local02, ptr___system__dat__ wz
02b18     0C 00 90 5D |  if_ne	jmp	#LR__0120
02b1c     42 0F 00 FF 
02b20     80 18 06 F6 | 	mov	arg01, ##2000000
02b24     9C FF BF FD | 	call	#__system___setbaud
02b28                 | LR__0120
02b28     3E 22 26 FC | 	wypin	local01, #62
02b2c     1F 02 64 FD | 	waitx	#1
02b30     D4 D4 9F FE | 	loc	pa,	#(@LR__0122-@LR__0121)
02b34     95 00 A0 FD | 	call	#FCACHE_LOAD_
02b38                 | LR__0121
02b38     40 7C 74 FD | 	testp	#62 wc
02b3c     F8 FF 9F 3D |  if_nc	jmp	#LR__0121
02b40                 | LR__0122
02b40     01 B6 05 F6 | 	mov	result1, #1
02b44     A4 F0 03 F6 | 	mov	ptra, fp
02b48     B4 00 A0 FD | 	call	#popregs_
02b4c                 | __system___txraw_ret
02b4c     2D 00 64 FD | 	ret
02b50                 | 
02b50                 | __system____builtin_memset
02b50     0C BB 01 F6 | 	mov	_var01, arg01
02b54     0D BD 01 F6 | 	mov	_var02, arg02
02b58     08 BC 65 F0 | 	shl	_var02, #8
02b5c     0D BD 41 F5 | 	or	_var02, arg02
02b60     DE BE 01 F6 | 	mov	_var03, _var02
02b64     10 BE 65 F0 | 	shl	_var03, #16
02b68     DE BE 41 F5 | 	or	_var03, _var02
02b6c     A8 D4 9F FE | 	loc	pa,	#(@LR__0124-@LR__0123)
02b70     95 00 A0 FD | 	call	#FCACHE_LOAD_
02b74                 | LR__0123
02b74     03 1C 5E F2 | 	cmps	arg03, #3 wcz
02b78     10 00 90 ED |  if_be	jmp	#LR__0125
02b7c     0C BF 61 FC | 	wrlong	_var03, arg01
02b80     04 18 06 F1 | 	add	arg01, #4
02b84     04 1C 86 F1 | 	sub	arg03, #4
02b88     E8 FF 9F FD | 	jmp	#LR__0123
02b8c                 | LR__0124
02b8c                 | LR__0125
02b8c     00 1C 0E F2 | 	cmp	arg03, #0 wz
02b90     14 00 90 AD |  if_e	jmp	#LR__0130
02b94     74 D4 9F FE | 	loc	pa,	#(@LR__0128-@LR__0126)
02b98     95 00 A0 FD | 	call	#FCACHE_LOAD_
02b9c                 | LR__0126
02b9c     0E 05 D8 FC | 	rep	@LR__0129, arg03
02ba0                 | LR__0127
02ba0     0C 1B 42 FC | 	wrbyte	arg02, arg01
02ba4     01 18 06 F1 | 	add	arg01, #1
02ba8                 | LR__0128
02ba8                 | LR__0129
02ba8                 | LR__0130
02ba8     DD B6 01 F6 | 	mov	result1, _var01
02bac                 | __system____builtin_memset_ret
02bac     2D 00 64 FD | 	ret
02bb0                 | 
02bb0                 | __system____builtin_memmove
02bb0     0C BB 01 F6 | 	mov	_var01, arg01
02bb4     0D 19 5A F2 | 	cmps	arg01, arg02 wcz
02bb8     50 00 90 3D |  if_ae	jmp	#LR__0138
02bbc     60 D4 9F FE | 	loc	pa,	#(@LR__0132-@LR__0131)
02bc0     95 00 A0 FD | 	call	#FCACHE_LOAD_
02bc4                 | LR__0131
02bc4     03 1C 5E F2 | 	cmps	arg03, #3 wcz
02bc8     18 00 90 ED |  if_be	jmp	#LR__0133
02bcc     0D BD 01 FB | 	rdlong	_var02, arg02
02bd0     0C BD 61 FC | 	wrlong	_var02, arg01
02bd4     04 18 06 F1 | 	add	arg01, #4
02bd8     04 1A 06 F1 | 	add	arg02, #4
02bdc     04 1C 86 F1 | 	sub	arg03, #4
02be0     E0 FF 9F FD | 	jmp	#LR__0131
02be4                 | LR__0132
02be4                 | LR__0133
02be4     0E BF 09 F6 | 	mov	_var03, arg03 wz
02be8     4C 00 90 AD |  if_e	jmp	#LR__0144
02bec     24 D4 9F FE | 	loc	pa,	#(@LR__0136-@LR__0134)
02bf0     95 00 A0 FD | 	call	#FCACHE_LOAD_
02bf4                 | LR__0134
02bf4     DF 08 D8 FC | 	rep	@LR__0137, _var03
02bf8                 | LR__0135
02bf8     0D BD C1 FA | 	rdbyte	_var02, arg02
02bfc     0C BD 41 FC | 	wrbyte	_var02, arg01
02c00     01 18 06 F1 | 	add	arg01, #1
02c04     01 1A 06 F1 | 	add	arg02, #1
02c08                 | LR__0136
02c08                 | LR__0137
02c08     2C 00 90 FD | 	jmp	#LR__0144
02c0c                 | LR__0138
02c0c     0E 19 02 F1 | 	add	arg01, arg03
02c10     0E 1B 02 F1 | 	add	arg02, arg03
02c14     0E C1 09 F6 | 	mov	_var04, arg03 wz
02c18     1C 00 90 AD |  if_e	jmp	#LR__0143
02c1c     F4 D3 9F FE | 	loc	pa,	#(@LR__0141-@LR__0139)
02c20     95 00 A0 FD | 	call	#FCACHE_LOAD_
02c24                 | LR__0139
02c24     E0 08 D8 FC | 	rep	@LR__0142, _var04
02c28                 | LR__0140
02c28     01 18 86 F1 | 	sub	arg01, #1
02c2c     01 1A 86 F1 | 	sub	arg02, #1
02c30     0D BD C1 FA | 	rdbyte	_var02, arg02
02c34     0C BD 41 FC | 	wrbyte	_var02, arg01
02c38                 | LR__0141
02c38                 | LR__0142
02c38                 | LR__0143
02c38                 | LR__0144
02c38     DD B6 01 F6 | 	mov	result1, _var01
02c3c                 | __system____builtin_memmove_ret
02c3c     2D 00 64 FD | 	ret
02c40                 | 
02c40                 | __system__longmove
02c40     0C BB 01 F6 | 	mov	_var01, arg01
02c44     0D 19 5A F2 | 	cmps	arg01, arg02 wcz
02c48     28 00 90 3D |  if_ae	jmp	#LR__0149
02c4c     0E BD 09 F6 | 	mov	_var02, arg03 wz
02c50     54 00 90 AD |  if_e	jmp	#LR__0155
02c54     BC D3 9F FE | 	loc	pa,	#(@LR__0147-@LR__0145)
02c58     95 00 A0 FD | 	call	#FCACHE_LOAD_
02c5c                 | LR__0145
02c5c     DE 08 D8 FC | 	rep	@LR__0148, _var02
02c60                 | LR__0146
02c60     0D BF 01 FB | 	rdlong	_var03, arg02
02c64     0C BF 61 FC | 	wrlong	_var03, arg01
02c68     04 18 06 F1 | 	add	arg01, #4
02c6c     04 1A 06 F1 | 	add	arg02, #4
02c70                 | LR__0147
02c70                 | LR__0148
02c70     34 00 90 FD | 	jmp	#LR__0155
02c74                 | LR__0149
02c74     0E C1 01 F6 | 	mov	_var04, arg03
02c78     02 C0 65 F0 | 	shl	_var04, #2
02c7c     E0 18 02 F1 | 	add	arg01, _var04
02c80     E0 1A 02 F1 | 	add	arg02, _var04
02c84     0E C3 09 F6 | 	mov	_var05, arg03 wz
02c88     1C 00 90 AD |  if_e	jmp	#LR__0154
02c8c     84 D3 9F FE | 	loc	pa,	#(@LR__0152-@LR__0150)
02c90     95 00 A0 FD | 	call	#FCACHE_LOAD_
02c94                 | LR__0150
02c94     E1 08 D8 FC | 	rep	@LR__0153, _var05
02c98                 | LR__0151
02c98     04 18 86 F1 | 	sub	arg01, #4
02c9c     04 1A 86 F1 | 	sub	arg02, #4
02ca0     0D BF 01 FB | 	rdlong	_var03, arg02
02ca4     0C BF 61 FC | 	wrlong	_var03, arg01
02ca8                 | LR__0152
02ca8                 | LR__0153
02ca8                 | LR__0154
02ca8                 | LR__0155
02ca8     DD B6 01 F6 | 	mov	result1, _var01
02cac                 | __system__longmove_ret
02cac     2D 00 64 FD | 	ret
02cb0                 | 
02cb0                 | __system____topofstack
02cb0     00 44 05 F6 | 	mov	COUNT_, #0
02cb4     A5 00 A0 FD | 	call	#pushregs_
02cb8     0C F0 07 F1 | 	add	ptra, #12
02cbc     04 48 05 F1 | 	add	fp, #4
02cc0     A4 18 62 FC | 	wrlong	arg01, fp
02cc4     A4 B6 01 F6 | 	mov	result1, fp
02cc8     04 48 85 F1 | 	sub	fp, #4
02ccc     A4 F0 03 F6 | 	mov	ptra, fp
02cd0     B4 00 A0 FD | 	call	#popregs_
02cd4                 | __system____topofstack_ret
02cd4     2D 00 64 FD | 	ret
02cd8                 | 
02cd8                 | __system___make_methodptr
02cd8     04 44 05 F6 | 	mov	COUNT_, #4
02cdc     A5 00 A0 FD | 	call	#pushregs_
02ce0     0C 23 02 F6 | 	mov	local01, arg01
02ce4     0D 25 02 F6 | 	mov	local02, arg02
02ce8     08 18 06 F6 | 	mov	arg01, #8
02cec     78 04 B0 FD | 	call	#__system___gc_alloc_managed
02cf0     DB 26 0A F6 | 	mov	local03, result1 wz
02cf4     10 00 90 AD |  if_e	jmp	#LR__0156
02cf8     13 23 62 FC | 	wrlong	local01, local03
02cfc     13 29 02 F6 | 	mov	local04, local03
02d00     04 28 06 F1 | 	add	local04, #4
02d04     14 25 62 FC | 	wrlong	local02, local04
02d08                 | LR__0156
02d08     13 B7 01 F6 | 	mov	result1, local03
02d0c     A4 F0 03 F6 | 	mov	ptra, fp
02d10     B4 00 A0 FD | 	call	#popregs_
02d14                 | __system___make_methodptr_ret
02d14     2D 00 64 FD | 	ret
02d18                 | 
02d18                 | __system___tx
02d18     02 44 05 F6 | 	mov	COUNT_, #2
02d1c     A5 00 A0 FD | 	call	#pushregs_
02d20     0C 23 02 F6 | 	mov	local01, arg01
02d24     0A 22 0E F2 | 	cmp	local01, #10 wz
02d28     20 00 90 5D |  if_ne	jmp	#LR__0157
02d2c     08 AA 05 F1 | 	add	ptr___system__dat__, #8
02d30     D5 24 02 FB | 	rdlong	local02, ptr___system__dat__
02d34     08 AA 85 F1 | 	sub	ptr___system__dat__, #8
02d38     02 24 CE F7 | 	test	local02, #2 wz
02d3c     0C 00 90 AD |  if_e	jmp	#LR__0157
02d40     0D 24 06 F6 | 	mov	local02, #13
02d44     0D 18 06 F6 | 	mov	arg01, #13
02d48     BC FD BF FD | 	call	#__system___txraw
02d4c                 | LR__0157
02d4c     11 19 02 F6 | 	mov	arg01, local01
02d50     B4 FD BF FD | 	call	#__system___txraw
02d54     A4 F0 03 F6 | 	mov	ptra, fp
02d58     B4 00 A0 FD | 	call	#popregs_
02d5c                 | __system___tx_ret
02d5c     2D 00 64 FD | 	ret
02d60                 | 
02d60                 | __system___lockmem
02d60     02 44 05 F6 | 	mov	COUNT_, #2
02d64     A5 00 A0 FD | 	call	#pushregs_
02d68     D0 B6 01 F6 | 	mov	result1, __lockreg
02d6c     DB 22 02 F6 | 	mov	local01, result1
02d70     BC D2 9F FE | 	loc	pa,	#(@LR__0160-@LR__0158)
02d74     95 00 A0 FD | 	call	#FCACHE_LOAD_
02d78                 | LR__0158
02d78                 | LR__0159
02d78     06 22 72 FD | 	locktry	local01 wc
02d7c     FF FF 7F FF 
02d80     FF B7 A5 F5 | 	muxnc	result1, ##-1
02d84     00 B6 0D F2 | 	cmp	result1, #0 wz
02d88     EC FF 9F 5D |  if_ne	jmp	#LR__0159
02d8c     0C 25 CA FA | 	rdbyte	local02, arg01 wz
02d90     0C 03 48 AC |  if_e	wrbyte	#1, arg01
02d94     07 22 72 FD | 	lockrel	local01 wc
02d98     FF FF 7F FF 
02d9c     FF B7 85 F5 | 	muxc	result1, ##-1
02da0     00 24 0E F2 | 	cmp	local02, #0 wz
02da4     D0 FF 9F 5D |  if_ne	jmp	#LR__0158
02da8                 | LR__0160
02da8     A4 F0 03 F6 | 	mov	ptra, fp
02dac     B4 00 A0 FD | 	call	#popregs_
02db0                 | __system___lockmem_ret
02db0     2D 00 64 FD | 	ret
02db4                 | 
02db4                 | __system___waitms
02db4     02 44 05 F6 | 	mov	COUNT_, #2
02db8     A5 00 A0 FD | 	call	#pushregs_
02dbc     0C 23 02 F6 | 	mov	local01, arg01
02dc0     14 24 06 FB | 	rdlong	local02, #20
02dc4     50 D2 9F FE | 	loc	pa,	#(@LR__0162-@LR__0161)
02dc8     95 00 A0 FD | 	call	#FCACHE_LOAD_
02dcc                 | LR__0161
02dcc     01 00 00 FF 
02dd0     E8 23 5E F2 | 	cmps	local01, ##1000 wcz
02dd4     1F 24 62 1D |  if_a	waitx	local02
02dd8     01 00 00 1F 
02ddc     E8 23 86 11 |  if_a	sub	local01, ##1000
02de0     E8 FF 9F 1D |  if_a	jmp	#LR__0161
02de4                 | LR__0162
02de4     00 22 5E F2 | 	cmps	local01, #0 wcz
02de8     1C 00 90 ED |  if_be	jmp	#LR__0163
02dec     12 7D 02 F6 | 	mov	muldiva_, local02
02df0     01 00 00 FF 
02df4     E8 7F 06 F6 | 	mov	muldivb_, ##1000
02df8     C5 00 A0 FD | 	call	#divide_
02dfc     3F 23 02 FD | 	qmul	local01, muldivb_
02e00     18 18 62 FD | 	getqx	arg01
02e04     1F 18 62 FD | 	waitx	arg01
02e08                 | LR__0163
02e08     A4 F0 03 F6 | 	mov	ptra, fp
02e0c     B4 00 A0 FD | 	call	#popregs_
02e10                 | __system___waitms_ret
02e10     2D 00 64 FD | 	ret
02e14                 | 
02e14                 | __system___waitus
02e14     02 44 05 F6 | 	mov	COUNT_, #2
02e18     A5 00 A0 FD | 	call	#pushregs_
02e1c     0C 23 02 F6 | 	mov	local01, arg01
02e20     14 24 06 FB | 	rdlong	local02, #20
02e24     F0 D1 9F FE | 	loc	pa,	#(@LR__0165-@LR__0164)
02e28     95 00 A0 FD | 	call	#FCACHE_LOAD_
02e2c                 | LR__0164
02e2c     A1 07 00 FF 
02e30     40 22 5E F2 | 	cmps	local01, ##1000000 wcz
02e34     1F 24 62 1D |  if_a	waitx	local02
02e38     A1 07 00 1F 
02e3c     40 22 86 11 |  if_a	sub	local01, ##1000000
02e40     E8 FF 9F 1D |  if_a	jmp	#LR__0164
02e44                 | LR__0165
02e44     00 22 5E F2 | 	cmps	local01, #0 wcz
02e48     1C 00 90 ED |  if_be	jmp	#LR__0166
02e4c     12 7D 02 F6 | 	mov	muldiva_, local02
02e50     A1 07 00 FF 
02e54     40 7E 06 F6 | 	mov	muldivb_, ##1000000
02e58     C5 00 A0 FD | 	call	#divide_
02e5c     3F 23 02 FD | 	qmul	local01, muldivb_
02e60     18 18 62 FD | 	getqx	arg01
02e64     1F 18 62 FD | 	waitx	arg01
02e68                 | LR__0166
02e68     A4 F0 03 F6 | 	mov	ptra, fp
02e6c     B4 00 A0 FD | 	call	#popregs_
02e70                 | __system___waitus_ret
02e70     2D 00 64 FD | 	ret
02e74                 | 
02e74                 | __system___gc_ptrs
02e74     0A 44 05 F6 | 	mov	COUNT_, #10
02e78     A5 00 A0 FD | 	call	#pushregs_
02e7c     CF 22 02 F6 | 	mov	local01, __heap_ptr
02e80     11 25 02 F6 | 	mov	local02, local01
02e84     07 00 00 FF 
02e88     F8 25 06 F1 | 	add	local02, ##4088
02e8c     11 27 0A FB | 	rdlong	local03, local01 wz
02e90     74 00 90 5D |  if_ne	jmp	#LR__0167
02e94     12 29 02 F6 | 	mov	local04, local02
02e98     11 29 82 F1 | 	sub	local04, local01
02e9c     11 03 58 FC | 	wrword	#1, local01
02ea0     11 2B 02 F6 | 	mov	local05, local01
02ea4     02 2A 06 F1 | 	add	local05, #2
02ea8     36 00 80 FF 
02eac     15 21 59 FC | 	wrword	##27792, local05
02eb0     11 2D 02 F6 | 	mov	local06, local01
02eb4     04 2C 06 F1 | 	add	local06, #4
02eb8     16 01 58 FC | 	wrword	#0, local06
02ebc     11 2F 02 F6 | 	mov	local07, local01
02ec0     06 2E 06 F1 | 	add	local07, #6
02ec4     17 03 58 FC | 	wrword	#1, local07
02ec8     10 22 06 F1 | 	add	local01, #16
02ecc     14 27 52 F6 | 	abs	local03, local04 wc
02ed0     04 26 46 F0 | 	shr	local03, #4
02ed4     13 27 62 C6 |  if_b	neg	local03, local03
02ed8     11 27 52 FC | 	wrword	local03, local01
02edc     11 31 02 F6 | 	mov	local08, local01
02ee0     02 30 06 F1 | 	add	local08, #2
02ee4     36 00 80 FF 
02ee8     18 1F 59 FC | 	wrword	##27791, local08
02eec     11 33 02 F6 | 	mov	local09, local01
02ef0     04 32 06 F1 | 	add	local09, #4
02ef4     19 01 58 FC | 	wrword	#0, local09
02ef8     11 35 02 F6 | 	mov	local10, local01
02efc     06 34 06 F1 | 	add	local10, #6
02f00     1A 01 58 FC | 	wrword	#0, local10
02f04     10 22 86 F1 | 	sub	local01, #16
02f08                 | LR__0167
02f08     12 B9 01 F6 | 	mov	result2, local02
02f0c     11 B7 01 F6 | 	mov	result1, local01
02f10     A4 F0 03 F6 | 	mov	ptra, fp
02f14     B4 00 A0 FD | 	call	#popregs_
02f18                 | __system___gc_ptrs_ret
02f18     2D 00 64 FD | 	ret
02f1c                 | 
02f1c                 | __system___gc_nextBlockPtr
02f1c     02 44 05 F6 | 	mov	COUNT_, #2
02f20     A5 00 A0 FD | 	call	#pushregs_
02f24     0C 23 02 F6 | 	mov	local01, arg01
02f28     11 25 EA FA | 	rdword	local02, local01 wz
02f2c     10 00 90 5D |  if_ne	jmp	#LR__0168
02f30     1B 00 00 FF 
02f34     1C 19 06 F6 | 	mov	arg01, ##@LR__0211
02f38     F8 01 B0 FD | 	call	#__system___gc_errmsg
02f3c     0C 00 90 FD | 	jmp	#LR__0169
02f40                 | LR__0168
02f40     04 24 66 F0 | 	shl	local02, #4
02f44     11 B7 01 F6 | 	mov	result1, local01
02f48     12 B7 01 F1 | 	add	result1, local02
02f4c                 | LR__0169
02f4c     A4 F0 03 F6 | 	mov	ptra, fp
02f50     B4 00 A0 FD | 	call	#popregs_
02f54                 | __system___gc_nextBlockPtr_ret
02f54     2D 00 64 FD | 	ret
02f58                 | 
02f58                 | __system___gc_tryalloc
02f58     1B 44 05 F6 | 	mov	COUNT_, #27
02f5c     A5 00 A0 FD | 	call	#pushregs_
02f60     0C 23 02 F6 | 	mov	local01, arg01
02f64     0D 25 02 F6 | 	mov	local02, arg02
02f68     08 FF BF FD | 	call	#__system___gc_ptrs
02f6c     DB 26 02 F6 | 	mov	local03, result1
02f70     DC 28 02 F6 | 	mov	local04, result2
02f74     13 2B 02 F6 | 	mov	local05, local03
02f78     00 2C 06 F6 | 	mov	local06, #0
02f7c     D8 D0 9F FE | 	loc	pa,	#(@LR__0171-@LR__0170)
02f80     95 00 A0 FD | 	call	#FCACHE_LOAD_
02f84                 | LR__0170
02f84     15 2F 02 F6 | 	mov	local07, local05
02f88     06 2A 06 F1 | 	add	local05, #6
02f8c     15 31 02 F6 | 	mov	local08, local05
02f90     13 33 02 F6 | 	mov	local09, local03
02f94     18 35 E2 FA | 	rdword	local10, local08
02f98     19 19 02 F6 | 	mov	arg01, local09
02f9c     1A 1B 0A F6 | 	mov	arg02, local10 wz
02fa0     00 B6 05 A6 |  if_e	mov	result1, #0
02fa4     04 1A 66 50 |  if_ne	shl	arg02, #4
02fa8     0D 19 02 51 |  if_ne	add	arg01, arg02
02fac     0C B7 01 56 |  if_ne	mov	result1, arg01
02fb0     DB 36 02 F6 | 	mov	local11, result1
02fb4     1B 2B 0A F6 | 	mov	local05, local11 wz
02fb8     15 33 02 56 |  if_ne	mov	local09, local05
02fbc     19 39 02 56 |  if_ne	mov	local12, local09
02fc0     1C 2D E2 5A |  if_ne	rdword	local06, local12
02fc4     00 2A 0E F2 | 	cmp	local05, #0 wz
02fc8     10 00 90 AD |  if_e	jmp	#LR__0172
02fcc     14 2B 5A F2 | 	cmps	local05, local04 wcz
02fd0     08 00 90 3D |  if_ae	jmp	#LR__0172
02fd4     16 23 5A F2 | 	cmps	local01, local06 wcz
02fd8     A8 FF 9F 1D |  if_a	jmp	#LR__0170
02fdc                 | LR__0171
02fdc                 | LR__0172
02fdc     00 2A 0E F2 | 	cmp	local05, #0 wz
02fe0     15 B7 01 A6 |  if_e	mov	result1, local05
02fe4     40 01 90 AD |  if_e	jmp	#LR__0175
02fe8     15 3B 02 F6 | 	mov	local13, local05
02fec     06 3A 06 F1 | 	add	local13, #6
02ff0     1D 3D E2 FA | 	rdword	local14, local13
02ff4     16 23 5A F2 | 	cmps	local01, local06 wcz
02ff8     CC 00 90 3D |  if_ae	jmp	#LR__0174
02ffc     15 3F 02 F6 | 	mov	local15, local05
03000     1F 23 52 FC | 	wrword	local01, local15
03004     11 41 02 F6 | 	mov	local16, local01
03008     04 40 66 F0 | 	shl	local16, #4
0300c     15 43 02 F6 | 	mov	local17, local05
03010     20 43 02 F1 | 	add	local17, local16
03014     16 45 02 F6 | 	mov	local18, local06
03018     11 45 82 F1 | 	sub	local18, local01
0301c     21 47 02 F6 | 	mov	local19, local17
03020     23 45 52 FC | 	wrword	local18, local19
03024     21 49 02 F6 | 	mov	local20, local17
03028     02 48 06 F1 | 	add	local20, #2
0302c     36 00 80 FF 
03030     24 1F 59 FC | 	wrword	##27791, local20
03034     21 4B 02 F6 | 	mov	local21, local17
03038     04 4A 06 F1 | 	add	local21, #4
0303c     15 1B 0A F6 | 	mov	arg02, local05 wz
03040     00 B6 05 A6 |  if_e	mov	result1, #0
03044     13 1B 82 51 |  if_ne	sub	arg02, local03
03048     04 1A 46 50 |  if_ne	shr	arg02, #4
0304c     0D B7 01 56 |  if_ne	mov	result1, arg02
03050     25 B7 51 FC | 	wrword	result1, local21
03054     21 4D 02 F6 | 	mov	local22, local17
03058     1D 33 E2 FA | 	rdword	local09, local13
0305c     06 4C 06 F1 | 	add	local22, #6
03060     26 33 52 FC | 	wrword	local09, local22
03064     21 4F 02 F6 | 	mov	local23, local17
03068     27 1B 0A F6 | 	mov	arg02, local23 wz
0306c     00 B6 05 A6 |  if_e	mov	result1, #0
03070     13 1B 82 51 |  if_ne	sub	arg02, local03
03074     04 1A 46 50 |  if_ne	shr	arg02, #4
03078     0D B7 01 56 |  if_ne	mov	result1, arg02
0307c     DB 3C 02 F6 | 	mov	local14, result1
03080     21 19 02 F6 | 	mov	arg01, local17
03084     94 FE BF FD | 	call	#__system___gc_nextBlockPtr
03088     DB 50 0A F6 | 	mov	local24, result1 wz
0308c     38 00 90 AD |  if_e	jmp	#LR__0173
03090     14 51 5A F2 | 	cmps	local24, local04 wcz
03094     30 00 90 3D |  if_ae	jmp	#LR__0173
03098     28 53 02 F6 | 	mov	local25, local24
0309c     04 52 06 F1 | 	add	local25, #4
030a0     13 33 02 F6 | 	mov	local09, local03
030a4     27 35 02 F6 | 	mov	local10, local23
030a8     19 19 02 F6 | 	mov	arg01, local09
030ac     1A 1B 0A F6 | 	mov	arg02, local10 wz
030b0     00 B6 05 A6 |  if_e	mov	result1, #0
030b4     0C 1B 82 51 |  if_ne	sub	arg02, arg01
030b8     04 1A 46 50 |  if_ne	shr	arg02, #4
030bc     0D B7 01 56 |  if_ne	mov	result1, arg02
030c0     DB 36 02 F6 | 	mov	local11, result1
030c4     29 37 52 FC | 	wrword	local11, local25
030c8                 | LR__0173
030c8                 | LR__0174
030c8     06 2E 06 F1 | 	add	local07, #6
030cc     17 3D 52 FC | 	wrword	local14, local07
030d0     36 00 00 FF 
030d4     80 32 06 F6 | 	mov	local09, ##27776
030d8     12 33 42 F5 | 	or	local09, local02
030dc     15 55 02 F6 | 	mov	local26, local05
030e0     02 54 06 F1 | 	add	local26, #2
030e4     01 B6 61 FD | 	cogid	result1
030e8     DB 32 42 F5 | 	or	local09, result1
030ec     2A 33 52 FC | 	wrword	local09, local26
030f0     13 57 02 F6 | 	mov	local27, local03
030f4     08 56 06 F1 | 	add	local27, #8
030f8     2B 33 E2 FA | 	rdword	local09, local27
030fc     1D 33 52 FC | 	wrword	local09, local13
03100     15 1B 0A F6 | 	mov	arg02, local05 wz
03104     00 B6 05 A6 |  if_e	mov	result1, #0
03108     13 1B 82 51 |  if_ne	sub	arg02, local03
0310c     04 1A 46 50 |  if_ne	shr	arg02, #4
03110     0D B7 01 56 |  if_ne	mov	result1, arg02
03114     2B B7 51 FC | 	wrword	result1, local27
03118     08 2A 06 F1 | 	add	local05, #8
0311c     15 B7 01 F6 | 	mov	result1, local05
03120     00 C0 31 FF 
03124     00 B6 45 F5 | 	or	result1, ##1669332992
03128                 | LR__0175
03128     A4 F0 03 F6 | 	mov	ptra, fp
0312c     B4 00 A0 FD | 	call	#popregs_
03130                 | __system___gc_tryalloc_ret
03130     2D 00 64 FD | 	ret
03134                 | 
03134                 | __system___gc_errmsg
03134     02 44 05 F6 | 	mov	COUNT_, #2
03138     A5 00 A0 FD | 	call	#pushregs_
0313c     0C 23 02 F6 | 	mov	local01, arg01
03140                 | LR__0176
03140     11 25 CA FA | 	rdbyte	local02, local01 wz
03144     01 22 06 F1 | 	add	local01, #1
03148     0C 00 90 AD |  if_e	jmp	#LR__0177
0314c     12 19 02 F6 | 	mov	arg01, local02
03150     C4 FB BF FD | 	call	#__system___tx
03154     E8 FF 9F FD | 	jmp	#LR__0176
03158                 | LR__0177
03158     00 B6 05 F6 | 	mov	result1, #0
0315c     A4 F0 03 F6 | 	mov	ptra, fp
03160     B4 00 A0 FD | 	call	#popregs_
03164                 | __system___gc_errmsg_ret
03164     2D 00 64 FD | 	ret
03168                 | 
03168                 | __system___gc_alloc_managed
03168     02 44 05 F6 | 	mov	COUNT_, #2
0316c     A5 00 A0 FD | 	call	#pushregs_
03170     0C 23 02 F6 | 	mov	local01, arg01
03174     00 1A 06 F6 | 	mov	arg02, #0
03178     30 00 B0 FD | 	call	#__system___gc_doalloc
0317c     DB 24 0A F6 | 	mov	local02, result1 wz
03180     18 00 90 5D |  if_ne	jmp	#LR__0178
03184     00 22 5E F2 | 	cmps	local01, #0 wcz
03188     10 00 90 ED |  if_be	jmp	#LR__0178
0318c     1B 00 00 FF 
03190     38 19 06 F6 | 	mov	arg01, ##@LR__0212
03194     9C FF BF FD | 	call	#__system___gc_errmsg
03198     04 00 90 FD | 	jmp	#LR__0179
0319c                 | LR__0178
0319c     12 B7 01 F6 | 	mov	result1, local02
031a0                 | LR__0179
031a0     A4 F0 03 F6 | 	mov	ptra, fp
031a4     B4 00 A0 FD | 	call	#popregs_
031a8                 | __system___gc_alloc_managed_ret
031a8     2D 00 64 FD | 	ret
031ac                 | 
031ac                 | __system___gc_doalloc
031ac     07 44 05 F6 | 	mov	COUNT_, #7
031b0     A5 00 A0 FD | 	call	#pushregs_
031b4     0C 23 0A F6 | 	mov	local01, arg01 wz
031b8     0D 25 02 F6 | 	mov	local02, arg02
031bc     00 B6 05 A6 |  if_e	mov	result1, #0
031c0     8C 00 90 AD |  if_e	jmp	#LR__0187
031c4     17 22 06 F1 | 	add	local01, #23
031c8     0F 22 26 F5 | 	andn	local01, #15
031cc     04 22 46 F0 | 	shr	local01, #4
031d0     0C AA 05 F1 | 	add	ptr___system__dat__, #12
031d4     D5 26 02 F6 | 	mov	local03, ptr___system__dat__
031d8     13 19 02 F6 | 	mov	arg01, local03
031dc     0C AA 85 F1 | 	sub	ptr___system__dat__, #12
031e0     7C FB BF FD | 	call	#__system___lockmem
031e4     11 19 02 F6 | 	mov	arg01, local01
031e8     12 1B 02 F6 | 	mov	arg02, local02
031ec     68 FD BF FD | 	call	#__system___gc_tryalloc
031f0     DB 28 0A F6 | 	mov	local04, result1 wz
031f4     14 00 90 5D |  if_ne	jmp	#LR__0180
031f8     10 03 B0 FD | 	call	#__system___gc_docollect
031fc     11 19 02 F6 | 	mov	arg01, local01
03200     12 1B 02 F6 | 	mov	arg02, local02
03204     50 FD BF FD | 	call	#__system___gc_tryalloc
03208     DB 28 02 F6 | 	mov	local04, result1
0320c                 | LR__0180
0320c     13 01 48 FC | 	wrbyte	#0, local03
03210     00 28 0E F2 | 	cmp	local04, #0 wz
03214     34 00 90 AD |  if_e	jmp	#LR__0186
03218     04 22 66 F0 | 	shl	local01, #4
0321c     08 22 86 F1 | 	sub	local01, #8
03220     11 2B 52 F6 | 	abs	local05, local01 wc
03224     02 2A 46 F0 | 	shr	local05, #2
03228     15 2B 62 C6 |  if_b	neg	local05, local05
0322c     15 2D 0A F6 | 	mov	local06, local05 wz
03230     14 2F 02 F6 | 	mov	local07, local04
03234     14 00 90 AD |  if_e	jmp	#LR__0185
03238     D0 CD 9F FE | 	loc	pa,	#(@LR__0183-@LR__0181)
0323c     95 00 A0 FD | 	call	#FCACHE_LOAD_
03240                 | LR__0181
03240     16 05 D8 FC | 	rep	@LR__0184, local06
03244                 | LR__0182
03244     17 01 68 FC | 	wrlong	#0, local07
03248     04 2E 06 F1 | 	add	local07, #4
0324c                 | LR__0183
0324c                 | LR__0184
0324c                 | LR__0185
0324c                 | LR__0186
0324c     14 B7 01 F6 | 	mov	result1, local04
03250                 | LR__0187
03250     A4 F0 03 F6 | 	mov	ptra, fp
03254     B4 00 A0 FD | 	call	#popregs_
03258                 | __system___gc_doalloc_ret
03258     2D 00 64 FD | 	ret
0325c                 | 
0325c                 | __system___gc_isvalidptr
0325c     0E BB 01 F6 | 	mov	_var01, arg03
03260     DD BC 01 F6 | 	mov	_var02, _var01
03264     00 F8 7F FF 
03268     00 BC 05 F5 | 	and	_var02, ##-1048576
0326c     00 C0 31 FF 
03270     00 BC 0D F2 | 	cmp	_var02, ##1669332992 wz
03274     00 B6 05 56 |  if_ne	mov	result1, #0
03278     60 00 90 5D |  if_ne	jmp	#__system___gc_isvalidptr_ret
0327c     08 BA 85 F1 | 	sub	_var01, #8
03280     DD BE 01 F6 | 	mov	_var03, _var01
03284     00 F8 7F FF 
03288     00 BE 25 F5 | 	andn	_var03, ##-1048576
0328c     0C BF 59 F2 | 	cmps	_var03, arg01 wcz
03290     08 00 90 CD |  if_b	jmp	#LR__0188
03294     0D BF 59 F2 | 	cmps	_var03, arg02 wcz
03298     08 00 90 CD |  if_b	jmp	#LR__0189
0329c                 | LR__0188
0329c     00 B6 05 F6 | 	mov	result1, #0
032a0     38 00 90 FD | 	jmp	#__system___gc_isvalidptr_ret
032a4                 | LR__0189
032a4     DF BC 01 F6 | 	mov	_var02, _var03
032a8     0C BD 61 F5 | 	xor	_var02, arg01
032ac     0F BC 0D F5 | 	and	_var02, #15 wz
032b0     00 B6 05 56 |  if_ne	mov	result1, #0
032b4     24 00 90 5D |  if_ne	jmp	#__system___gc_isvalidptr_ret
032b8     DF C0 01 F6 | 	mov	_var04, _var03
032bc     02 C0 05 F1 | 	add	_var04, #2
032c0     E0 BC E1 FA | 	rdword	_var02, _var04
032c4     7F 00 00 FF 
032c8     C0 BD 05 F5 | 	and	_var02, ##65472
032cc     36 00 00 FF 
032d0     80 BC 0D F2 | 	cmp	_var02, ##27776 wz
032d4     00 B6 05 56 |  if_ne	mov	result1, #0
032d8     DF B6 01 A6 |  if_e	mov	result1, _var03
032dc                 | __system___gc_isvalidptr_ret
032dc     2D 00 64 FD | 	ret
032e0                 | 
032e0                 | __system___gc_dofree
032e0     1A 44 05 F6 | 	mov	COUNT_, #26
032e4     A5 00 A0 FD | 	call	#pushregs_
032e8     0C 23 02 F6 | 	mov	local01, arg01
032ec     84 FB BF FD | 	call	#__system___gc_ptrs
032f0     DC 24 02 F6 | 	mov	local02, result2
032f4     DB 26 02 F6 | 	mov	local03, result1
032f8     11 29 02 F6 | 	mov	local04, local01
032fc     02 28 06 F1 | 	add	local04, #2
03300     36 00 80 FF 
03304     14 1F 59 FC | 	wrword	##27791, local04
03308     11 2B 02 F6 | 	mov	local05, local01
0330c     11 19 02 F6 | 	mov	arg01, local01
03310     08 FC BF FD | 	call	#__system___gc_nextBlockPtr
03314     DB 2C 02 F6 | 	mov	local06, result1
03318     34 CD 9F FE | 	loc	pa,	#(@LR__0191-@LR__0190)
0331c     95 00 A0 FD | 	call	#FCACHE_LOAD_
03320                 | LR__0190
03320     04 2A 06 F1 | 	add	local05, #4
03324     15 2F 02 F6 | 	mov	local07, local05
03328     17 1B EA FA | 	rdword	arg02, local07 wz
0332c     13 19 02 F6 | 	mov	arg01, local03
03330     00 B6 05 A6 |  if_e	mov	result1, #0
03334     04 1A 66 50 |  if_ne	shl	arg02, #4
03338     0D 19 02 51 |  if_ne	add	arg01, arg02
0333c     0C B7 01 56 |  if_ne	mov	result1, arg01
03340     DB 2A 0A F6 | 	mov	local05, result1 wz
03344     28 00 90 AD |  if_e	jmp	#LR__0192
03348     15 19 02 F6 | 	mov	arg01, local05
0334c     00 30 06 F6 | 	mov	local08, #0
03350     02 18 06 F1 | 	add	arg01, #2
03354     0C 33 E2 FA | 	rdword	local09, arg01
03358     36 00 00 FF 
0335c     8F 32 0E F2 | 	cmp	local09, ##27791 wz
03360     01 30 66 A6 |  if_e	neg	local08, #1
03364     18 B7 01 F6 | 	mov	result1, local08
03368     DB 34 0A F6 | 	mov	local10, result1 wz
0336c     B0 FF 9F AD |  if_e	jmp	#LR__0190
03370                 | LR__0191
03370                 | LR__0192
03370     00 2A 0E F2 | 	cmp	local05, #0 wz
03374     13 2B 02 A6 |  if_e	mov	local05, local03
03378     15 37 02 F6 | 	mov	local11, local05
0337c     06 36 06 F1 | 	add	local11, #6
03380     11 39 02 F6 | 	mov	local12, local01
03384     1B 3B E2 FA | 	rdword	local13, local11
03388     06 38 06 F1 | 	add	local12, #6
0338c     1C 3B 52 FC | 	wrword	local13, local12
03390     11 1B 0A F6 | 	mov	arg02, local01 wz
03394     00 B6 05 A6 |  if_e	mov	result1, #0
03398     13 1B 82 51 |  if_ne	sub	arg02, local03
0339c     04 1A 46 50 |  if_ne	shr	arg02, #4
033a0     0D B7 01 56 |  if_ne	mov	result1, arg02
033a4     DB 3C 02 F6 | 	mov	local14, result1
033a8     1B 3D 52 FC | 	wrword	local14, local11
033ac     13 2B 0A F2 | 	cmp	local05, local03 wz
033b0     74 00 90 AD |  if_e	jmp	#LR__0195
033b4     15 19 02 F6 | 	mov	arg01, local05
033b8     60 FB BF FD | 	call	#__system___gc_nextBlockPtr
033bc     11 B7 09 F2 | 	cmp	result1, local01 wz
033c0     64 00 90 5D |  if_ne	jmp	#LR__0194
033c4     15 3F 02 F6 | 	mov	local15, local05
033c8     1F 41 E2 FA | 	rdword	local16, local15
033cc     11 43 02 F6 | 	mov	local17, local01
033d0     21 35 E2 FA | 	rdword	local10, local17
033d4     1A 41 02 F1 | 	add	local16, local10
033d8     1F 41 52 FC | 	wrword	local16, local15
033dc     14 01 58 FC | 	wrword	#0, local04
033e0     11 19 02 F6 | 	mov	arg01, local01
033e4     34 FB BF FD | 	call	#__system___gc_nextBlockPtr
033e8     DB 2C 02 F6 | 	mov	local06, result1
033ec     12 2D 5A F2 | 	cmps	local06, local02 wcz
033f0     24 00 90 3D |  if_ae	jmp	#LR__0193
033f4     16 45 02 F6 | 	mov	local18, local06
033f8     04 44 06 F1 | 	add	local18, #4
033fc     15 1B 0A F6 | 	mov	arg02, local05 wz
03400     00 B6 05 A6 |  if_e	mov	result1, #0
03404     13 1B 82 51 |  if_ne	sub	arg02, local03
03408     04 1A 46 50 |  if_ne	shr	arg02, #4
0340c     0D B7 01 56 |  if_ne	mov	result1, arg02
03410     DB 3C 02 F6 | 	mov	local14, result1
03414     22 3D 52 FC | 	wrword	local14, local18
03418                 | LR__0193
03418     1C 3B E2 FA | 	rdword	local13, local12
0341c     1B 3B 52 FC | 	wrword	local13, local11
03420     1C 01 58 FC | 	wrword	#0, local12
03424     15 23 02 F6 | 	mov	local01, local05
03428                 | LR__0194
03428                 | LR__0195
03428     11 19 02 F6 | 	mov	arg01, local01
0342c     EC FA BF FD | 	call	#__system___gc_nextBlockPtr
03430     DB 46 0A F6 | 	mov	local19, result1 wz
03434     C4 00 90 AD |  if_e	jmp	#LR__0197
03438     12 47 5A F2 | 	cmps	local19, local02 wcz
0343c     BC 00 90 3D |  if_ae	jmp	#LR__0197
03440     23 19 02 F6 | 	mov	arg01, local19
03444     00 30 06 F6 | 	mov	local08, #0
03448     02 18 06 F1 | 	add	arg01, #2
0344c     0C 33 E2 FA | 	rdword	local09, arg01
03450     36 00 00 FF 
03454     8F 32 0E F2 | 	cmp	local09, ##27791 wz
03458     01 30 66 A6 |  if_e	neg	local08, #1
0345c     18 B7 09 F6 | 	mov	result1, local08 wz
03460     98 00 90 AD |  if_e	jmp	#LR__0197
03464     11 2B 02 F6 | 	mov	local05, local01
03468     23 23 02 F6 | 	mov	local01, local19
0346c     15 49 02 F6 | 	mov	local20, local05
03470     24 4B E2 FA | 	rdword	local21, local20
03474     11 4D 02 F6 | 	mov	local22, local01
03478     26 35 E2 FA | 	rdword	local10, local22
0347c     1A 4B 02 F1 | 	add	local21, local10
03480     24 4B 52 FC | 	wrword	local21, local20
03484     11 4F 02 F6 | 	mov	local23, local01
03488     06 4E 06 F1 | 	add	local23, #6
0348c     15 51 02 F6 | 	mov	local24, local05
03490     27 3B E2 FA | 	rdword	local13, local23
03494     06 50 06 F1 | 	add	local24, #6
03498     28 3B 52 FC | 	wrword	local13, local24
0349c     11 53 02 F6 | 	mov	local25, local01
034a0     02 52 06 F1 | 	add	local25, #2
034a4     29 55 59 FC | 	wrword	#170, local25
034a8     27 01 58 FC | 	wrword	#0, local23
034ac     11 3B 02 F6 | 	mov	local13, local01
034b0     1D 19 02 F6 | 	mov	arg01, local13
034b4     64 FA BF FD | 	call	#__system___gc_nextBlockPtr
034b8     DB 34 02 F6 | 	mov	local10, result1
034bc     1A 2D 0A F6 | 	mov	local06, local10 wz
034c0     38 00 90 AD |  if_e	jmp	#LR__0196
034c4     12 2D 5A F2 | 	cmps	local06, local02 wcz
034c8     30 00 90 3D |  if_ae	jmp	#LR__0196
034cc     16 55 02 F6 | 	mov	local26, local06
034d0     04 54 06 F1 | 	add	local26, #4
034d4     13 3B 02 F6 | 	mov	local13, local03
034d8     15 35 02 F6 | 	mov	local10, local05
034dc     1D 19 02 F6 | 	mov	arg01, local13
034e0     1A 1B 0A F6 | 	mov	arg02, local10 wz
034e4     00 B6 05 A6 |  if_e	mov	result1, #0
034e8     0C 1B 82 51 |  if_ne	sub	arg02, arg01
034ec     04 1A 46 50 |  if_ne	shr	arg02, #4
034f0     0D B7 01 56 |  if_ne	mov	result1, arg02
034f4     DB 3C 02 F6 | 	mov	local14, result1
034f8     2A 3D 52 FC | 	wrword	local14, local26
034fc                 | LR__0196
034fc                 | LR__0197
034fc     16 B7 01 F6 | 	mov	result1, local06
03500     A4 F0 03 F6 | 	mov	ptra, fp
03504     B4 00 A0 FD | 	call	#popregs_
03508                 | __system___gc_dofree_ret
03508     2D 00 64 FD | 	ret
0350c                 | 
0350c                 | __system___gc_docollect
0350c     0C 44 05 F6 | 	mov	COUNT_, #12
03510     A5 00 A0 FD | 	call	#pushregs_
03514     5C F9 BF FD | 	call	#__system___gc_ptrs
03518     DC 22 02 F6 | 	mov	local01, result2
0351c     DB 24 02 F6 | 	mov	local02, result1
03520     12 19 02 F6 | 	mov	arg01, local02
03524     F4 F9 BF FD | 	call	#__system___gc_nextBlockPtr
03528     DB 26 0A F6 | 	mov	local03, result1 wz
0352c     01 B6 61 FD | 	cogid	result1
03530     DB 28 02 F6 | 	mov	local04, result1
03534     2C 00 90 AD |  if_e	jmp	#LR__0199
03538                 | LR__0198
03538     11 27 5A F2 | 	cmps	local03, local01 wcz
0353c     24 00 90 3D |  if_ae	jmp	#LR__0199
03540     13 2B 02 F6 | 	mov	local05, local03
03544     02 2A 06 F1 | 	add	local05, #2
03548     15 2D E2 FA | 	rdword	local06, local05
0354c     20 2C 26 F5 | 	andn	local06, #32
03550     15 2D 52 FC | 	wrword	local06, local05
03554     13 19 02 F6 | 	mov	arg01, local03
03558     C0 F9 BF FD | 	call	#__system___gc_nextBlockPtr
0355c     DB 26 0A F6 | 	mov	local03, result1 wz
03560     D4 FF 9F 5D |  if_ne	jmp	#LR__0198
03564                 | LR__0199
03564     00 2E 06 F6 | 	mov	local07, #0
03568     00 18 06 F6 | 	mov	arg01, #0
0356c     40 F7 BF FD | 	call	#__system____topofstack
03570     DB 30 02 F6 | 	mov	local08, result1
03574     17 19 02 F6 | 	mov	arg01, local07
03578     18 1B 02 F6 | 	mov	arg02, local08
0357c     A0 00 B0 FD | 	call	#__system___gc_markhub
03580     2C 01 B0 FD | 	call	#__system___gc_markcog
03584     12 19 02 F6 | 	mov	arg01, local02
03588     90 F9 BF FD | 	call	#__system___gc_nextBlockPtr
0358c     DB 32 0A F6 | 	mov	local09, result1 wz
03590     10 00 90 5D |  if_ne	jmp	#LR__0200
03594     1B 00 00 FF 
03598     55 19 06 F6 | 	mov	arg01, ##@LR__0213
0359c     94 FB BF FD | 	call	#__system___gc_errmsg
035a0     70 00 90 FD | 	jmp	#LR__0206
035a4                 | LR__0200
035a4                 | LR__0201
035a4     19 27 02 F6 | 	mov	local03, local09
035a8     13 19 02 F6 | 	mov	arg01, local03
035ac     6C F9 BF FD | 	call	#__system___gc_nextBlockPtr
035b0     DB 32 02 F6 | 	mov	local09, result1
035b4     13 35 02 F6 | 	mov	local10, local03
035b8     02 34 06 F1 | 	add	local10, #2
035bc     1A 37 E2 FA | 	rdword	local11, local10
035c0     20 36 CE F7 | 	test	local11, #32 wz
035c4     3C 00 90 5D |  if_ne	jmp	#LR__0204
035c8     1B 39 02 F6 | 	mov	local12, local11
035cc     10 38 0E F5 | 	and	local12, #16 wz
035d0     30 00 90 5D |  if_ne	jmp	#LR__0204
035d4     1B 2F 02 F6 | 	mov	local07, local11
035d8     0F 2E 06 F5 | 	and	local07, #15
035dc     17 37 02 F6 | 	mov	local11, local07
035e0     14 37 0A F2 | 	cmp	local11, local04 wz
035e4     08 00 90 AD |  if_e	jmp	#LR__0202
035e8     0E 36 0E F2 | 	cmp	local11, #14 wz
035ec     14 00 90 5D |  if_ne	jmp	#LR__0203
035f0                 | LR__0202
035f0     13 2F 02 F6 | 	mov	local07, local03
035f4     17 19 02 F6 | 	mov	arg01, local07
035f8     E4 FC BF FD | 	call	#__system___gc_dofree
035fc     DB 38 02 F6 | 	mov	local12, result1
03600     1C 33 02 F6 | 	mov	local09, local12
03604                 | LR__0203
03604                 | LR__0204
03604     00 32 0E F2 | 	cmp	local09, #0 wz
03608     08 00 90 AD |  if_e	jmp	#LR__0205
0360c     11 33 5A F2 | 	cmps	local09, local01 wcz
03610     90 FF 9F CD |  if_b	jmp	#LR__0201
03614                 | LR__0205
03614                 | LR__0206
03614     A4 F0 03 F6 | 	mov	ptra, fp
03618     B4 00 A0 FD | 	call	#popregs_
0361c                 | __system___gc_docollect_ret
0361c     2D 00 64 FD | 	ret
03620                 | 
03620                 | __system___gc_markhub
03620     0A 44 05 F6 | 	mov	COUNT_, #10
03624     A5 00 A0 FD | 	call	#pushregs_
03628     0C 23 02 F6 | 	mov	local01, arg01
0362c     0D 25 02 F6 | 	mov	local02, arg02
03630     40 F8 BF FD | 	call	#__system___gc_ptrs
03634     DB 26 02 F6 | 	mov	local03, result1
03638     DC 28 02 F6 | 	mov	local04, result2
0363c                 | LR__0207
0363c     12 23 5A F2 | 	cmps	local01, local02 wcz
03640     60 00 90 3D |  if_ae	jmp	#LR__0208
03644     11 1D 02 FB | 	rdlong	arg03, local01
03648     04 22 06 F1 | 	add	local01, #4
0364c     13 19 02 F6 | 	mov	arg01, local03
03650     14 1B 02 F6 | 	mov	arg02, local04
03654     04 FC BF FD | 	call	#__system___gc_isvalidptr
03658     DB 2A 0A F6 | 	mov	local05, result1 wz
0365c     DC FF 9F AD |  if_e	jmp	#LR__0207
03660     15 19 02 F6 | 	mov	arg01, local05
03664     00 2C 06 F6 | 	mov	local06, #0
03668     02 18 06 F1 | 	add	arg01, #2
0366c     0C 2F E2 FA | 	rdword	local07, arg01
03670     36 00 00 FF 
03674     8F 2E 0E F2 | 	cmp	local07, ##27791 wz
03678     01 2C 66 A6 |  if_e	neg	local06, #1
0367c     16 B7 01 F6 | 	mov	result1, local06
03680     DB 30 0A F6 | 	mov	local08, result1 wz
03684     B4 FF 9F 5D |  if_ne	jmp	#LR__0207
03688     15 33 02 F6 | 	mov	local09, local05
0368c     02 32 06 F1 | 	add	local09, #2
03690     19 35 E2 FA | 	rdword	local10, local09
03694     0F 34 26 F5 | 	andn	local10, #15
03698     2E 34 46 F5 | 	or	local10, #46
0369c     19 35 52 FC | 	wrword	local10, local09
036a0     98 FF 9F FD | 	jmp	#LR__0207
036a4                 | LR__0208
036a4     A4 F0 03 F6 | 	mov	ptra, fp
036a8     B4 00 A0 FD | 	call	#popregs_
036ac                 | __system___gc_markhub_ret
036ac     2D 00 64 FD | 	ret
036b0                 | 
036b0                 | __system___gc_markcog
036b0     06 44 05 F6 | 	mov	COUNT_, #6
036b4     A5 00 A0 FD | 	call	#pushregs_
036b8     B8 F7 BF FD | 	call	#__system___gc_ptrs
036bc     DB 22 02 F6 | 	mov	local01, result1
036c0     DC 24 02 F6 | 	mov	local02, result2
036c4     00 26 06 F6 | 	mov	local03, #0
036c8                 | LR__0209
036c8     F0 29 06 F6 | 	mov	local04, #496
036cc     13 29 82 F1 | 	sub	local04, local03
036d0     F0 29 06 F1 | 	add	local04, #496
036d4                 | 	'.live	local04
036d4     00 28 96 F9 | 	alts	local04, #0
036d8     14 2B 02 F6 | 	mov	local05, local04
036dc     12 1B 02 F6 | 	mov	arg02, local02
036e0     11 19 02 F6 | 	mov	arg01, local01
036e4     15 1D 02 F6 | 	mov	arg03, local05
036e8     70 FB BF FD | 	call	#__system___gc_isvalidptr
036ec     DB 2A 0A F6 | 	mov	local05, result1 wz
036f0     10 00 90 AD |  if_e	jmp	#LR__0210
036f4     02 2A 06 F1 | 	add	local05, #2
036f8     15 2D E2 FA | 	rdword	local06, local05
036fc     20 2C 46 F5 | 	or	local06, #32
03700     15 2D 52 FC | 	wrword	local06, local05
03704                 | LR__0210
03704     01 26 06 F1 | 	add	local03, #1
03708     F0 27 5E F2 | 	cmps	local03, #496 wcz
0370c     B8 FF 9F CD |  if_b	jmp	#LR__0209
03710     A4 F0 03 F6 | 	mov	ptra, fp
03714     B4 00 A0 FD | 	call	#popregs_
03718                 | __system___gc_markcog_ret
03718     2D 00 64 FD | 	ret
0371c                 | 
0371c                 | LR__0211
0371c     20 21 21 21 
03720     20 63 6F 72 
03724     72 75 70 74 
03728     65 64 20 68 
0372c     65 61 70 3F 
03730     3F 3F 20 21 
03734     21 21 20    | 	byte	" !!! corrupted heap??? !!! "
03737     00          | 	byte	0
03738                 | LR__0212
03738     20 21 21 21 
0373c     20 6F 75 74 
03740     20 6F 66 20 
03744     68 65 61 70 
03748     20 6D 65 6D 
0374c     6F 72 79 20 
03750     21 21 21 20 | 	byte	" !!! out of heap memory !!! "
03754     00          | 	byte	0
03755                 | LR__0213
03755     20 21 21 21 
03759     20 63 6F 72 
0375d     72 75 70 74 
03761     65 64 20 68 
03765     65 61 70 20 
03769     21 21 21 20 | 	byte	" !!! corrupted heap !!! "
0376d     00          | 	byte	0
0376e                 | LR__0214
0376e     6D 6F 64 65 | 	byte	"mode"
03772     00          | 	byte	0
03773                 | LR__0215
03773     63 70 6C    | 	byte	"cpl"
03776     00          | 	byte	0
03777                 | LR__0216
03777     62 75 66 70 
0377b     74 72       | 	byte	"bufptr"
0377d     00          | 	byte	0
0377e                 | LR__0217
0377e     62 75 66 6C 
03782     65 6E       | 	byte	"buflen"
03784     00          | 	byte	0
03785                 | LR__0218
03785     6C 69 6E 65 
03789     73          | 	byte	"lines"
0378a     00          | 	byte	0
0378b                 | LR__0219
0378b     6D 6F 64 65 | 	byte	"mode"
0378f     00          | 	byte	0
03790                 | LR__0220
03790     63 70 6C    | 	byte	"cpl"
03793     00          | 	byte	0
03794                 | LR__0221
03794     62 75 66 5F 
03798     70 74 72    | 	byte	"buf_ptr"
0379b     00          | 	byte	0
0379c                 | LR__0222
0379c     62 75 66 6C 
037a0     65 6E       | 	byte	"buflen"
037a2     00          | 	byte	0
037a3                 | LR__0223
037a3     6C 69 6E 65 
037a7     73          | 	byte	"lines"
037a8     00          | 	byte	0
037a9                 | LR__0224
037a9     6D 6F 64 65 | 	byte	"mode"
037ad     00          | 	byte	0
037ae                 | LR__0225
037ae     63 70 6C    | 	byte	"cpl"
037b1     00          | 	byte	0
037b2                 | LR__0226
037b2     62 75 66 5F 
037b6     70 74 72    | 	byte	"buf_ptr"
037b9     00          | 	byte	0
037ba                 | LR__0227
037ba     62 75 66 6C 
037be     65 6E       | 	byte	"buflen"
037c0     00          | 	byte	0
037c1                 | LR__0228
037c1     6C 69 6E 65 
037c5     73          | 	byte	"lines"
037c6     00          | 	byte	0
037c7                 | LR__0229
037c7     6D 6F 64 65 | 	byte	"mode"
037cb     00          | 	byte	0
037cc                 | LR__0230
037cc     63 70 6C    | 	byte	"cpl"
037cf     00          | 	byte	0
037d0                 | LR__0231
037d0     62 75 66 5F 
037d4     70 74 72    | 	byte	"buf_ptr"
037d7     00          | 	byte	0
037d8                 | LR__0232
037d8     62 75 66 6C 
037dc     65 6E       | 	byte	"buflen"
037de     00          | 	byte	0
037df                 | LR__0233
037df     6C 69 6E 65 
037e3     73          | 	byte	"lines"
037e4     00          | 	byte	0
037e5     00 00 00    | 	alignl
037e8                 | _dat_
037e8     00 00 00 00 
037ec     00 00 00 00 
037f0     00 00 00 00 
037f4     00 00 00 00 
037f8     00 00 00    | vga_font       file "vgafont.def"
037fb     7E 81 A5 81 
037ff     81 BD 99 81 
03803     81 7E 00 00 
03807     00 00 00 00 | 	byte	$7e, $81, $a5, $81, $81, $bd, $99, $81, $81, $7e, $00, $00, $00, $00, $00, $00
0380b     7E FF DB FF 
0380f     FF C3 E7 FF 
03813     FF 7E 00 00 
03817     00 00 00 00 | 	byte	$7e, $ff, $db, $ff, $ff, $c3, $e7, $ff, $ff, $7e, $00, $00, $00, $00, $00, $00
0381b     00 36 7F 7F 
0381f     7F 7F 3E 1C 
03823     08 00 00 00 
03827     00 00 00 00 | 	byte	$00, $36, $7f, $7f, $7f, $7f, $3e, $1c, $08, $00, $00, $00, $00, $00, $00, $00
0382b     00 08 1C 3E 
0382f     7F 3E 1C 08 
03833     00 00 00 00 
03837     00 00 00 00 | 	byte	$00, $08, $1c, $3e, $7f, $3e, $1c, $08, $00, $00, $00, $00, $00, $00, $00, $00
0383b     18 3C 3C E7 
0383f     E7 E7 18 18 
03843     3C 00 00 00 
03847     00 00 00 00 | 	byte	$18, $3c, $3c, $e7, $e7, $e7, $18, $18, $3c, $00, $00, $00, $00, $00, $00, $00
0384b     18 3C 7E FF 
0384f     FF 7E 18 18 
03853     3C 00 00 00 
03857     00 00 00 00 | 	byte	$18, $3c, $7e, $ff, $ff, $7e, $18, $18, $3c, $00, $00, $00, $00, $00, $00, $00
0385b     00 00 00 18 
0385f     3C 3C 18 00 
03863     00 00 00 00 
03867     00 FF FF FF | 	byte	$00, $00, $00, $18, $3c, $3c, $18, $00, $00, $00, $00, $00, $00, $ff, $ff, $ff
0386b     FF FF FF E7 
0386f     C3 C3 E7 FF 
03873     FF FF FF FF 
03877     FF 00 00 00 | 	byte	$ff, $ff, $ff, $e7, $c3, $c3, $e7, $ff, $ff, $ff, $ff, $ff, $ff, $00, $00, $00
0387b     00 00 3C 66 
0387f     42 42 66 3C 
03883     00 00 00 00 
03887     00 FF FF FF | 	byte	$00, $00, $3c, $66, $42, $42, $66, $3c, $00, $00, $00, $00, $00, $ff, $ff, $ff
0388b     FF FF C3 99 
0388f     BD BD 99 C3 
03893     FF FF FF FF 
03897     FF 00 00 00 | 	byte	$ff, $ff, $c3, $99, $bd, $bd, $99, $c3, $ff, $ff, $ff, $ff, $ff, $00, $00, $00
0389b     78 70 58 4C 
0389f     1E 33 33 33 
038a3     33 1E 00 00 
038a7     00 00 00 00 | 	byte	$78, $70, $58, $4c, $1e, $33, $33, $33, $33, $1e, $00, $00, $00, $00, $00, $00
038ab     3C 66 66 66 
038af     66 3C 18 7E 
038b3     18 18 00 00 
038b7     00 00 00 00 | 	byte	$3c, $66, $66, $66, $66, $3c, $18, $7e, $18, $18, $00, $00, $00, $00, $00, $00
038bb     FC CC FC 0C 
038bf     0C 0C 0C 0E 
038c3     0F 07 00 00 
038c7     00 00 00 00 | 	byte	$fc, $cc, $fc, $0c, $0c, $0c, $0c, $0e, $0f, $07, $00, $00, $00, $00, $00, $00
038cb     FE C6 FE C6 
038cf     C6 C6 C6 E6 
038d3     E7 67 03 00 
038d7     00 00 00 00 | 	byte	$fe, $c6, $fe, $c6, $c6, $c6, $c6, $e6, $e7, $67, $03, $00, $00, $00, $00, $00
038db     18 18 DB 3C 
038df     E7 3C DB 18 
038e3     18 00 00 00 
038e7     00 00 00 01 | 	byte	$18, $18, $db, $3c, $e7, $3c, $db, $18, $18, $00, $00, $00, $00, $00, $00, $01
038eb     03 07 0F 1F 
038ef     7F 1F 0F 07 
038f3     03 01 00 00 
038f7     00 00 00 40 | 	byte	$03, $07, $0f, $1f, $7f, $1f, $0f, $07, $03, $01, $00, $00, $00, $00, $00, $40
038fb     60 70 78 7C 
038ff     7F 7C 78 70 
03903     60 40 00 00 
03907     00 00 00 00 | 	byte	$60, $70, $78, $7c, $7f, $7c, $78, $70, $60, $40, $00, $00, $00, $00, $00, $00
0390b     18 3C 7E 18 
0390f     18 18 7E 3C 
03913     18 00 00 00 
03917     00 00 00 00 | 	byte	$18, $3c, $7e, $18, $18, $18, $7e, $3c, $18, $00, $00, $00, $00, $00, $00, $00
0391b     66 66 66 66 
0391f     66 66 66    | 	byte	$66[7]
03922     00 66 66 00 
03926     00 00 00 00 
0392a     00 FE DB DB 
0392e     DB DE D8 D8 | 	byte	$00, $66, $66, $00, $00, $00, $00, $00, $00, $fe, $db, $db, $db, $de, $d8, $d8
03932     D8 D8 D8 00 
03936     00 00 00 3E 
0393a     63 06 1C 36 
0393e     63 63 36 1C | 	byte	$d8, $d8, $d8, $00, $00, $00, $00, $3e, $63, $06, $1c, $36, $63, $63, $36, $1c
03942     30 63 3E 00 
03946     00 00 00 00 
0394a     00 00 00 00 
0394e     00 00 00 7F | 	byte	$30, $63, $3e, $00, $00, $00, $00, $00, $00, $00, $00, $00, $00, $00, $00, $7f
03952     7F 7F 7F 00 
03956     00 00 00 00 
0395a     00 18 3C 7E 
0395e     18 18 18 7E | 	byte	$7f, $7f, $7f, $00, $00, $00, $00, $00, $00, $18, $3c, $7e, $18, $18, $18, $7e
03962     3C 18 7E 00 
03966     00 00 00 00 
0396a     00 18 3C 7E 
0396e     18 18 18 18 | 	byte	$3c, $18, $7e, $00, $00, $00, $00, $00, $00, $18, $3c, $7e, $18, $18, $18, $18
03972     18 18 18 00 
03976     00 00 00 00 
0397a     00 18 18 18 
0397e     18 18 18 18 | 	byte	$18, $18, $18, $00, $00, $00, $00, $00, $00, $18, $18, $18, $18, $18, $18, $18
03982     7E 3C 18 00 
03986     00 00 00 00 
0398a     00 00 00 18 
0398e     30 7F 30 18 | 	byte	$7e, $3c, $18, $00, $00, $00, $00, $00, $00, $00, $00, $18, $30, $7f, $30, $18
03992     00 00 00 00 
03996     00 00 00 00 
0399a     00 00 00    | 	byte	$00[11]
0399d     0C 06 7F 06 
039a1     0C 00 00 00 
039a5     00 00 00 00 
039a9     00 00 00 00 | 	byte	$0c, $06, $7f, $06, $0c, $00, $00, $00, $00, $00, $00, $00, $00, $00, $00, $00
039ad     00 03 03 03 
039b1     7F 00 00 00 
039b5     00 00 00 00 
039b9     00 00 00 00 | 	byte	$00, $03, $03, $03, $7f, $00, $00, $00, $00, $00, $00, $00, $00, $00, $00, $00
039bd     14 36 7F 36 
039c1     14 00 00 00 
039c5     00 00 00 00 
039c9     00 00 00 08 | 	byte	$14, $36, $7f, $36, $14, $00, $00, $00, $00, $00, $00, $00, $00, $00, $00, $08
039cd     1C 1C 3E 3E 
039d1     7F 7F 00 00 
039d5     00 00 00 00 
039d9     00 00 00 7F | 	byte	$1c, $1c, $3e, $3e, $7f, $7f, $00, $00, $00, $00, $00, $00, $00, $00, $00, $7f
039dd     7F 3E 3E 1C 
039e1     1C 08 00 00 
039e5     00 00 00 00 
039e9     00 00 00 00 | 	byte	$7f, $3e, $3e, $1c, $1c, $08, $00, $00, $00, $00, $00, $00, $00, $00, $00, $00
039ed     00 00 00 00 
039f1     00 00 00 00 
039f5     00 00 00 00 
039f9     00 00       | 	byte	$00[14]
039fb     18 3C 3C 3C 
039ff     18 18 18 00 
03a03     18 18 00 00 
03a07     00 00 66 66 | 	byte	$18, $3c, $3c, $3c, $18, $18, $18, $00, $18, $18, $00, $00, $00, $00, $66, $66
03a0b     66 24 00 00 
03a0f     00 00 00 00 
03a13     00 00 00 00 
03a17     00 00 00 00 | 	byte	$66, $24, $00, $00, $00, $00, $00, $00, $00, $00, $00, $00, $00, $00, $00, $00
03a1b     00 36 36 7F 
03a1f     36 36 36 7F 
03a23     36 36 00 00 
03a27     00 00 18 18 | 	byte	$00, $36, $36, $7f, $36, $36, $36, $7f, $36, $36, $00, $00, $00, $00, $18, $18
03a2b     3E 63 43 03 
03a2f     3E 60 60 61 
03a33     63 3E 18 18 
03a37     00 00 00 00 | 	byte	$3e, $63, $43, $03, $3e, $60, $60, $61, $63, $3e, $18, $18, $00, $00, $00, $00
03a3b     00 00 43 63 
03a3f     30 18 0C 06 
03a43     63 61 00 00 
03a47     00 00 00 00 | 	byte	$00, $00, $43, $63, $30, $18, $0c, $06, $63, $61, $00, $00, $00, $00, $00, $00
03a4b     1C 36 36 1C 
03a4f     6E 3B 33 33 
03a53     33 6E 00 00 
03a57     00 00 00 00 | 	byte	$1c, $36, $36, $1c, $6e, $3b, $33, $33, $33, $6e, $00, $00, $00, $00, $00, $00
03a5b     0C 0C 0C 06 
03a5f     00 00 00 00 
03a63     00 00 00 00 
03a67     00 00 00 00 | 	byte	$0c, $0c, $0c, $06, $00, $00, $00, $00, $00, $00, $00, $00, $00, $00, $00, $00
03a6b     30 18 0C 0C 
03a6f     0C 0C 0C 0C 
03a73     18 30 00 00 
03a77     00 00 00 00 | 	byte	$30, $18, $0c, $0c, $0c, $0c, $0c, $0c, $18, $30, $00, $00, $00, $00, $00, $00
03a7b     0C 18 30 30 
03a7f     30 30 30 30 
03a83     18 0C 00 00 
03a87     00 00 00 00 | 	byte	$0c, $18, $30, $30, $30, $30, $30, $30, $18, $0c, $00, $00, $00, $00, $00, $00
03a8b     00 00 00 66 
03a8f     3C FF 3C 66 
03a93     00 00 00 00 
03a97     00 00 00 00 | 	byte	$00, $00, $00, $66, $3c, $ff, $3c, $66, $00, $00, $00, $00, $00, $00, $00, $00
03a9b     00 00 00 18 
03a9f     18 7E 18 18 
03aa3     00 00 00 00 
03aa7     00 00 00 00 | 	byte	$00, $00, $00, $18, $18, $7e, $18, $18, $00, $00, $00, $00, $00, $00, $00, $00
03aab     00 00 00 00 
03aaf     00 00 00 00 | 	byte	$00[8]
03ab3     18 18 18 0C 
03ab7     00 00 00 00 
03abb     00 00 00 00 
03abf     00 7F 00 00 | 	byte	$18, $18, $18, $0c, $00, $00, $00, $00, $00, $00, $00, $00, $00, $7f, $00, $00
03ac3     00 00 00 00 
03ac7     00 00 00 00 
03acb     00 00 00 00 
03acf     00 00 00 00 | 	byte	$00[16]
03ad3     18 18 00 00 
03ad7     00 00 00 00 
03adb     00 00 40 60 
03adf     30 18 0C 06 | 	byte	$18, $18, $00, $00, $00, $00, $00, $00, $00, $00, $40, $60, $30, $18, $0c, $06
03ae3     03 01 00 00 
03ae7     00 00 00 00 
03aeb     1C 36 63 63 
03aef     6B 6B 63 63 | 	byte	$03, $01, $00, $00, $00, $00, $00, $00, $1c, $36, $63, $63, $6b, $6b, $63, $63
03af3     36 1C 00 00 
03af7     00 00 00 00 
03afb     18 1C 1E 18 
03aff     18 18 18 18 | 	byte	$36, $1c, $00, $00, $00, $00, $00, $00, $18, $1c, $1e, $18, $18, $18, $18, $18
03b03     18 7E 00 00 
03b07     00 00 00 00 
03b0b     3E 63 60 30 
03b0f     18 0C 06 03 | 	byte	$18, $7e, $00, $00, $00, $00, $00, $00, $3e, $63, $60, $30, $18, $0c, $06, $03
03b13     63 7F 00 00 
03b17     00 00 00 00 
03b1b     3E 63 60 60 
03b1f     3C 60 60 60 | 	byte	$63, $7f, $00, $00, $00, $00, $00, $00, $3e, $63, $60, $60, $3c, $60, $60, $60
03b23     63 3E 00 00 
03b27     00 00 00 00 
03b2b     30 38 3C 36 
03b2f     33 7F 30 30 | 	byte	$63, $3e, $00, $00, $00, $00, $00, $00, $30, $38, $3c, $36, $33, $7f, $30, $30
03b33     30 78 00 00 
03b37     00 00 00 00 
03b3b     7F 03 03 03 
03b3f     3F 60 60 60 | 	byte	$30, $78, $00, $00, $00, $00, $00, $00, $7f, $03, $03, $03, $3f, $60, $60, $60
03b43     63 3E 00 00 
03b47     00 00 00 00 
03b4b     1C 06 03 03 
03b4f     3F 63 63 63 | 	byte	$63, $3e, $00, $00, $00, $00, $00, $00, $1c, $06, $03, $03, $3f, $63, $63, $63
03b53     63 3E 00 00 
03b57     00 00 00 00 
03b5b     7F 63 60 60 
03b5f     30 18 0C 0C | 	byte	$63, $3e, $00, $00, $00, $00, $00, $00, $7f, $63, $60, $60, $30, $18, $0c, $0c
03b63     0C 0C 00 00 
03b67     00 00 00 00 
03b6b     3E 63 63 63 
03b6f     3E 63 63 63 | 	byte	$0c, $0c, $00, $00, $00, $00, $00, $00, $3e, $63, $63, $63, $3e, $63, $63, $63
03b73     63 3E 00 00 
03b77     00 00 00 00 
03b7b     3E 63 63 63 
03b7f     7E 60 60 60 | 	byte	$63, $3e, $00, $00, $00, $00, $00, $00, $3e, $63, $63, $63, $7e, $60, $60, $60
03b83     30 1E 00 00 
03b87     00 00 00 00 
03b8b     00 00 00 18 
03b8f     18 00 00 00 | 	byte	$30, $1e, $00, $00, $00, $00, $00, $00, $00, $00, $00, $18, $18, $00, $00, $00
03b93     18 18 00 00 
03b97     00 00 00 00 
03b9b     00 00 00 18 
03b9f     18 00 00 00 | 	byte	$18, $18, $00, $00, $00, $00, $00, $00, $00, $00, $00, $18, $18, $00, $00, $00
03ba3     18 18 0C 00 
03ba7     00 00 00 00 
03bab     00 60 30 18 
03baf     0C 06 0C 18 | 	byte	$18, $18, $0c, $00, $00, $00, $00, $00, $00, $60, $30, $18, $0c, $06, $0c, $18
03bb3     30 60 00 00 
03bb7     00 00 00 00 
03bbb     00 00 00 7E 
03bbf     00 00 7E 00 | 	byte	$30, $60, $00, $00, $00, $00, $00, $00, $00, $00, $00, $7e, $00, $00, $7e, $00
03bc3     00 00 00 00 
03bc7     00 00 00 00 
03bcb     00          | 	byte	$00[9]
03bcc     06 0C 18 30 
03bd0     60 30 18 0C 
03bd4     06 00 00 00 
03bd8     00 00 00 3E | 	byte	$06, $0c, $18, $30, $60, $30, $18, $0c, $06, $00, $00, $00, $00, $00, $00, $3e
03bdc     63 63 30 18 
03be0     18 18 00 18 
03be4     18 00 00 00 
03be8     00 00 00 00 | 	byte	$63, $63, $30, $18, $18, $18, $00, $18, $18, $00, $00, $00, $00, $00, $00, $00
03bec     3E 63 63 7B 
03bf0     7B 7B 3B 03 
03bf4     3E 00 00 00 
03bf8     00 00 00 08 | 	byte	$3e, $63, $63, $7b, $7b, $7b, $3b, $03, $3e, $00, $00, $00, $00, $00, $00, $08
03bfc     1C 36 63 63 
03c00     7F 63 63 63 
03c04     63 00 00 00 
03c08     00 00 00 3F | 	byte	$1c, $36, $63, $63, $7f, $63, $63, $63, $63, $00, $00, $00, $00, $00, $00, $3f
03c0c     66 66 66 3E 
03c10     66 66 66 66 
03c14     3F 00 00 00 
03c18     00 00 00 3C | 	byte	$66, $66, $66, $3e, $66, $66, $66, $66, $3f, $00, $00, $00, $00, $00, $00, $3c
03c1c     66 43 03 03 
03c20     03 03 43 66 
03c24     3C 00 00 00 
03c28     00 00 00 1F | 	byte	$66, $43, $03, $03, $03, $03, $43, $66, $3c, $00, $00, $00, $00, $00, $00, $1f
03c2c     36 66 66 66 
03c30     66 66 66 36 
03c34     1F 00 00 00 
03c38     00 00 00 7F | 	byte	$36, $66, $66, $66, $66, $66, $66, $36, $1f, $00, $00, $00, $00, $00, $00, $7f
03c3c     66 46 16 1E 
03c40     16 06 46 66 
03c44     7F 00 00 00 
03c48     00 00 00 7F | 	byte	$66, $46, $16, $1e, $16, $06, $46, $66, $7f, $00, $00, $00, $00, $00, $00, $7f
03c4c     66 46 16 1E 
03c50     16 06 06 06 
03c54     0F 00 00 00 
03c58     00 00 00 3C | 	byte	$66, $46, $16, $1e, $16, $06, $06, $06, $0f, $00, $00, $00, $00, $00, $00, $3c
03c5c     66 43 03 03 
03c60     7B 63 63 66 
03c64     5C 00 00 00 
03c68     00 00 00 63 | 	byte	$66, $43, $03, $03, $7b, $63, $63, $66, $5c, $00, $00, $00, $00, $00, $00, $63
03c6c     63 63 63 7F 
03c70     63 63 63 63 
03c74     63 00 00 00 
03c78     00 00 00 3C | 	byte	$63, $63, $63, $7f, $63, $63, $63, $63, $63, $00, $00, $00, $00, $00, $00, $3c
03c7c     18 18 18 18 
03c80     18 18 18 18 | 	byte	$18[8]
03c84     3C 00 00 00 
03c88     00 00 00 78 
03c8c     30 30 30 30 
03c90     30 33 33 33 | 	byte	$3c, $00, $00, $00, $00, $00, $00, $78, $30, $30, $30, $30, $30, $33, $33, $33
03c94     1E 00 00 00 
03c98     00 00 00 67 
03c9c     66 66 36 1E 
03ca0     1E 36 66 66 | 	byte	$1e, $00, $00, $00, $00, $00, $00, $67, $66, $66, $36, $1e, $1e, $36, $66, $66
03ca4     67 00 00 00 
03ca8     00 00 00 0F 
03cac     06 06 06 06 
03cb0     06 06 46 66 | 	byte	$67, $00, $00, $00, $00, $00, $00, $0f, $06, $06, $06, $06, $06, $06, $46, $66
03cb4     7F 00 00 00 
03cb8     00 00 00 63 
03cbc     77 7F 7F 6B 
03cc0     63 63 63 63 | 	byte	$7f, $00, $00, $00, $00, $00, $00, $63, $77, $7f, $7f, $6b, $63, $63, $63, $63
03cc4     63 00 00 00 
03cc8     00 00 00 63 
03ccc     67 6F 7F 7B 
03cd0     73 63 63 63 | 	byte	$63, $00, $00, $00, $00, $00, $00, $63, $67, $6f, $7f, $7b, $73, $63, $63, $63
03cd4     63 00 00 00 
03cd8     00 00 00 3E 
03cdc     63 63 63 63 
03ce0     63 63 63 63 | 	byte	$63, $00, $00, $00, $00, $00, $00, $3e, $63, $63, $63, $63, $63, $63, $63, $63
03ce4     3E 00 00 00 
03ce8     00 00 00 3F 
03cec     66 66 66 3E 
03cf0     06 06 06 06 | 	byte	$3e, $00, $00, $00, $00, $00, $00, $3f, $66, $66, $66, $3e, $06, $06, $06, $06
03cf4     0F 00 00 00 
03cf8     00 00 00 3E 
03cfc     63 63 63 63 
03d00     63 63 6B 7B | 	byte	$0f, $00, $00, $00, $00, $00, $00, $3e, $63, $63, $63, $63, $63, $63, $6b, $7b
03d04     3E 30 70 00 
03d08     00 00 00 3F 
03d0c     66 66 66 3E 
03d10     36 66 66 66 | 	byte	$3e, $30, $70, $00, $00, $00, $00, $3f, $66, $66, $66, $3e, $36, $66, $66, $66
03d14     67 00 00 00 
03d18     00 00 00 3E 
03d1c     63 63 06 1C 
03d20     30 60 63 63 | 	byte	$67, $00, $00, $00, $00, $00, $00, $3e, $63, $63, $06, $1c, $30, $60, $63, $63
03d24     3E 00 00 00 
03d28     00 00 00 7E 
03d2c     7E 5A 18 18 
03d30     18 18 18 18 | 	byte	$3e, $00, $00, $00, $00, $00, $00, $7e, $7e, $5a, $18, $18, $18, $18, $18, $18
03d34     3C 00 00 00 
03d38     00 00 00 63 
03d3c     63 63 63 63 
03d40     63 63 63 63 | 	byte	$3c, $00, $00, $00, $00, $00, $00, $63, $63, $63, $63, $63, $63, $63, $63, $63
03d44     3E 00 00 00 
03d48     00 00 00 63 
03d4c     63 63 63 63 
03d50     63 63 36 1C | 	byte	$3e, $00, $00, $00, $00, $00, $00, $63, $63, $63, $63, $63, $63, $63, $36, $1c
03d54     08 00 00 00 
03d58     00 00 00 63 
03d5c     63 63 63 6B 
03d60     6B 6B 7F 77 | 	byte	$08, $00, $00, $00, $00, $00, $00, $63, $63, $63, $63, $6b, $6b, $6b, $7f, $77
03d64     36 00 00 00 
03d68     00 00 00 63 
03d6c     63 36 3E 1C 
03d70     1C 3E 36 63 | 	byte	$36, $00, $00, $00, $00, $00, $00, $63, $63, $36, $3e, $1c, $1c, $3e, $36, $63
03d74     63 00 00 00 
03d78     00 00 00 66 
03d7c     66 66 66 3C 
03d80     18 18 18 18 | 	byte	$63, $00, $00, $00, $00, $00, $00, $66, $66, $66, $66, $3c, $18, $18, $18, $18
03d84     3C 00 00 00 
03d88     00 00 00 7F 
03d8c     63 61 30 18 
03d90     0C 06 43 63 | 	byte	$3c, $00, $00, $00, $00, $00, $00, $7f, $63, $61, $30, $18, $0c, $06, $43, $63
03d94     7F 00 00 00 
03d98     00 00 00 3C 
03d9c     0C 0C 0C 0C 
03da0     0C 0C 0C 0C | 	byte	$7f, $00, $00, $00, $00, $00, $00, $3c, $0c, $0c, $0c, $0c, $0c, $0c, $0c, $0c
03da4     3C 00 00 00 
03da8     00 00 00 00 
03dac     01 03 07 0E 
03db0     1C 38 70 60 | 	byte	$3c, $00, $00, $00, $00, $00, $00, $00, $01, $03, $07, $0e, $1c, $38, $70, $60
03db4     40 00 00 00 
03db8     00 00 00 3C 
03dbc     30 30 30 30 
03dc0     30 30 30 30 | 	byte	$40, $00, $00, $00, $00, $00, $00, $3c, $30, $30, $30, $30, $30, $30, $30, $30
03dc4     3C 00 00 00 
03dc8     1C 36 00 00 
03dcc     00 00 00 00 
03dd0     00 00 00 00 | 	byte	$3c, $00, $00, $00, $1c, $36, $00, $00, $00, $00, $00, $00, $00, $00, $00, $00
03dd4     00 00 00 00 
03dd8     00 00 00 00 
03ddc     00 00 00 00 
03de0     00 00 00 00 
03de4     00          | 	byte	$00[17]
03de5     FF 00 00 0C 
03de9     18 00 00 00 
03ded     00 00 00 00 
03df1     00 00 00 00 | 	byte	$ff, $00, $00, $0c, $18, $00, $00, $00, $00, $00, $00, $00, $00, $00, $00, $00
03df5     00 00 00 00 
03df9     00 00 00 00 
03dfd     00          | 	byte	$00[9]
03dfe     1E 30 3E 33 
03e02     33 33 6E 00 
03e06     00 00 00 00 
03e0a     00 07 06 06 | 	byte	$1e, $30, $3e, $33, $33, $33, $6e, $00, $00, $00, $00, $00, $00, $07, $06, $06
03e0e     1E 36 66 66 
03e12     66 66 3E 00 
03e16     00 00 00 00 
03e1a     00 00 00 00 | 	byte	$1e, $36, $66, $66, $66, $66, $3e, $00, $00, $00, $00, $00, $00, $00, $00, $00
03e1e     3E 63 03 03 
03e22     03 63 3E 00 
03e26     00 00 00 00 
03e2a     00 38 30 30 | 	byte	$3e, $63, $03, $03, $03, $63, $3e, $00, $00, $00, $00, $00, $00, $38, $30, $30
03e2e     3C 36 33 33 
03e32     33 33 6E 00 
03e36     00 00 00 00 
03e3a     00 00 00 00 | 	byte	$3c, $36, $33, $33, $33, $33, $6e, $00, $00, $00, $00, $00, $00, $00, $00, $00
03e3e     3E 63 7F 03 
03e42     03 63 3E 00 
03e46     00 00 00 00 
03e4a     00 38 6C 4C | 	byte	$3e, $63, $7f, $03, $03, $63, $3e, $00, $00, $00, $00, $00, $00, $38, $6c, $4c
03e4e     0C 1E 0C 0C 
03e52     0C 0C 1E 00 
03e56     00 00 00 00 
03e5a     00 00 00 00 | 	byte	$0c, $1e, $0c, $0c, $0c, $0c, $1e, $00, $00, $00, $00, $00, $00, $00, $00, $00
03e5e     6E 33 33 33 
03e62     33 33 3E 30 
03e66     33 1E 00 00 
03e6a     00 07 06 06 | 	byte	$6e, $33, $33, $33, $33, $33, $3e, $30, $33, $1e, $00, $00, $00, $07, $06, $06
03e6e     36 6E 66 66 
03e72     66 66 67 00 
03e76     00 00 00 00 
03e7a     00 18 18 00 | 	byte	$36, $6e, $66, $66, $66, $66, $67, $00, $00, $00, $00, $00, $00, $18, $18, $00
03e7e     1C 18 18 18 
03e82     18 18 3C 00 
03e86     00 00 00 00 
03e8a     00 60 60 00 | 	byte	$1c, $18, $18, $18, $18, $18, $3c, $00, $00, $00, $00, $00, $00, $60, $60, $00
03e8e     70 60 60 60 
03e92     60 60 60 66 
03e96     66 3C 00 00 
03e9a     00 07 06 06 | 	byte	$70, $60, $60, $60, $60, $60, $60, $66, $66, $3c, $00, $00, $00, $07, $06, $06
03e9e     66 36 1E 1E 
03ea2     36 66 67 00 
03ea6     00 00 00 00 
03eaa     00 1C 18 18 | 	byte	$66, $36, $1e, $1e, $36, $66, $67, $00, $00, $00, $00, $00, $00, $1c, $18, $18
03eae     18 18 18 18 
03eb2     18 18       | 	byte	$18[6]
03eb4     3C 00 00 00 
03eb8     00 00 00 00 
03ebc     00 00 37 7F 
03ec0     6B 6B 6B 6B | 	byte	$3c, $00, $00, $00, $00, $00, $00, $00, $00, $00, $37, $7f, $6b, $6b, $6b, $6b
03ec4     63 00 00 00 
03ec8     00 00 00 00 
03ecc     00 00 3B 66 
03ed0     66 66 66 66 | 	byte	$63, $00, $00, $00, $00, $00, $00, $00, $00, $00, $3b, $66, $66, $66, $66, $66
03ed4     66 00 00 00 
03ed8     00 00 00 00 
03edc     00 00 3E 63 
03ee0     63 63 63 63 | 	byte	$66, $00, $00, $00, $00, $00, $00, $00, $00, $00, $3e, $63, $63, $63, $63, $63
03ee4     3E 00 00 00 
03ee8     00 00 00 00 
03eec     00 00 3B 66 
03ef0     66 66 66 66 | 	byte	$3e, $00, $00, $00, $00, $00, $00, $00, $00, $00, $3b, $66, $66, $66, $66, $66
03ef4     3E 06 06 0F 
03ef8     00 00 00 00 
03efc     00 00 6E 33 
03f00     33 33 33 33 | 	byte	$3e, $06, $06, $0f, $00, $00, $00, $00, $00, $00, $6e, $33, $33, $33, $33, $33
03f04     3E 30 30 78 
03f08     00 00 00 00 
03f0c     00 00 3B 6E 
03f10     66 06 06 06 | 	byte	$3e, $30, $30, $78, $00, $00, $00, $00, $00, $00, $3b, $6e, $66, $06, $06, $06
03f14     0F 00 00 00 
03f18     00 00 00 00 
03f1c     00 00 3E 63 
03f20     06 1C 30 63 | 	byte	$0f, $00, $00, $00, $00, $00, $00, $00, $00, $00, $3e, $63, $06, $1c, $30, $63
03f24     3E 00 00 00 
03f28     00 00 00 08 
03f2c     0C 0C 3F 0C 
03f30     0C 0C 0C 6C | 	byte	$3e, $00, $00, $00, $00, $00, $00, $08, $0c, $0c, $3f, $0c, $0c, $0c, $0c, $6c
03f34     38 00 00 00 
03f38     00 00 00 00 
03f3c     00 00 33 33 
03f40     33 33 33 33 | 	byte	$38, $00, $00, $00, $00, $00, $00, $00, $00, $00, $33, $33, $33, $33, $33, $33
03f44     6E 00 00 00 
03f48     00 00 00 00 
03f4c     00 00 63 63 
03f50     63 63 63 36 | 	byte	$6e, $00, $00, $00, $00, $00, $00, $00, $00, $00, $63, $63, $63, $63, $63, $36
03f54     1C 00 00 00 
03f58     00 00 00 00 
03f5c     00 00 63 63 
03f60     6B 6B 6B 7F | 	byte	$1c, $00, $00, $00, $00, $00, $00, $00, $00, $00, $63, $63, $6b, $6b, $6b, $7f
03f64     36 00 00 00 
03f68     00 00 00 00 
03f6c     00 00 63 36 
03f70     1C 1C 1C 36 | 	byte	$36, $00, $00, $00, $00, $00, $00, $00, $00, $00, $63, $36, $1c, $1c, $1c, $36
03f74     63 00 00 00 
03f78     00 00 00 00 
03f7c     00 00 63 63 
03f80     63 63 63 63 | 	byte	$63, $00, $00, $00, $00, $00, $00, $00, $00, $00, $63, $63, $63, $63, $63, $63
03f84     7E 60 30 1F 
03f88     00 00 00 00 
03f8c     00 00 7F 33 
03f90     18 0C 06 63 | 	byte	$7e, $60, $30, $1f, $00, $00, $00, $00, $00, $00, $7f, $33, $18, $0c, $06, $63
03f94     7F 00 00 00 
03f98     00 00 00 70 
03f9c     18 18 18 0E 
03fa0     18 18 18 18 | 	byte	$7f, $00, $00, $00, $00, $00, $00, $70, $18, $18, $18, $0e, $18, $18, $18, $18
03fa4     70 00 00 00 
03fa8     00 00 00 18 
03fac     18 18 18 18 
03fb0     18 18 18 18 | 	byte	$70, $00, $00, $00, $00, $00, $00, $18, $18, $18, $18, $18, $18, $18, $18, $18
03fb4     18 00 00 00 
03fb8     00 00 00 0E 
03fbc     18 18 18 70 
03fc0     18 18 18 18 | 	byte	$18, $00, $00, $00, $00, $00, $00, $0e, $18, $18, $18, $70, $18, $18, $18, $18
03fc4     0E 00 00 00 
03fc8     6E 3B 00 00 
03fcc     00 00 00 00 
03fd0     00 00 00 00 | 	byte	$0e, $00, $00, $00, $6e, $3b, $00, $00, $00, $00, $00, $00, $00, $00, $00, $00
03fd4     00 00 00 00 
03fd8     00 00 00 00 
03fdc     00 00       | 	byte	$00[10]
03fde     08 1C 36 63 
03fe2     63 63 7F 00 
03fe6     00 00 00 00 
03fea     00 3C 66 43 | 	byte	$08, $1c, $36, $63, $63, $63, $7f, $00, $00, $00, $00, $00, $00, $3c, $66, $43
03fee     03 03 03 03 
03ff2     43 66 3C 18 
03ff6     30 1E 00 00 
03ffa     00 00 33 00 | 	byte	$03, $03, $03, $03, $43, $66, $3c, $18, $30, $1e, $00, $00, $00, $00, $33, $00
03ffe     33 33 33 33 
04002     33 33       | 	byte	$33[6]
04004     6E 00 00 00 
04008     00 00 60 30 
0400c     18 00 3E 63 
04010     7F 03 03 63 | 	byte	$6e, $00, $00, $00, $00, $00, $60, $30, $18, $00, $3e, $63, $7f, $03, $03, $63
04014     3E 00 00 00 
04018     00 00 08 1C 
0401c     36 00 1E 30 
04020     3E 33 33 33 | 	byte	$3e, $00, $00, $00, $00, $00, $08, $1c, $36, $00, $1e, $30, $3e, $33, $33, $33
04024     6E 00 00 00 
04028     00 00 00 00 
0402c     33 00 1E 30 
04030     3E 33 33 33 | 	byte	$6e, $00, $00, $00, $00, $00, $00, $00, $33, $00, $1e, $30, $3e, $33, $33, $33
04034     6E 00 00 00 
04038     00 00 1C 36 
0403c     1C 00 33 33 
04040     33 33 33 33 | 	byte	$6e, $00, $00, $00, $00, $00, $1c, $36, $1c, $00, $33, $33, $33, $33, $33, $33
04044     6E 00 00 00 
04048     00 00 60 30 
0404c     18 00 3E 63 
04050     03 03 03 63 | 	byte	$6e, $00, $00, $00, $00, $00, $60, $30, $18, $00, $3e, $63, $03, $03, $03, $63
04054     3E 00 00 00 
04058     00 00 00 00 
0405c     00 00 3E 63 
04060     03 03 03 63 | 	byte	$3e, $00, $00, $00, $00, $00, $00, $00, $00, $00, $3e, $63, $03, $03, $03, $63
04064     3E 18 30 1E 
04068     00 00 00 1C 
0406c     58 78 38 18 
04070     1C 1E 1A 18 | 	byte	$3e, $18, $30, $1e, $00, $00, $00, $1c, $58, $78, $38, $18, $1c, $1e, $1a, $18
04074     3C 00 00 00 
04078     00 00 00 00 
0407c     63 00 3E 63 
04080     7F 03 03 63 | 	byte	$3c, $00, $00, $00, $00, $00, $00, $00, $63, $00, $3e, $63, $7f, $03, $03, $63
04084     3E 00 00 00 
04088     66 33 00 3E 
0408c     63 63 63 63 
04090     63 63 63 63 | 	byte	$3e, $00, $00, $00, $66, $33, $00, $3e, $63, $63, $63, $63, $63, $63, $63, $63
04094     3E 00 00 00 
04098     00 00 CC 66 
0409c     33 00 3E 63 
040a0     63 63 63 63 | 	byte	$3e, $00, $00, $00, $00, $00, $cc, $66, $33, $00, $3e, $63, $63, $63, $63, $63
040a4     3E 00 00 00 
040a8     00 00 18 3C 
040ac     66 00 1C 18 
040b0     18 18 18 18 | 	byte	$3e, $00, $00, $00, $00, $00, $18, $3c, $66, $00, $1c, $18, $18, $18, $18, $18
040b4     3C 00 00 00 
040b8     30 18 00 7F 
040bc     63 61 30 18 
040c0     0C 06 43 63 | 	byte	$3c, $00, $00, $00, $30, $18, $00, $7f, $63, $61, $30, $18, $0c, $06, $43, $63
040c4     7F 00 00 00 
040c8     00 63 00 08 
040cc     1C 36 63 63 
040d0     7F 63 63 63 | 	byte	$7f, $00, $00, $00, $00, $63, $00, $08, $1c, $36, $63, $63, $7f, $63, $63, $63
040d4     63 00 00 00 
040d8     30 18 00 3C 
040dc     66 43 03 03 
040e0     03 03 43 66 | 	byte	$63, $00, $00, $00, $30, $18, $00, $3c, $66, $43, $03, $03, $03, $03, $43, $66
040e4     3C 00 00 00 
040e8     30 18 00 7F 
040ec     66 46 16 1E 
040f0     16 06 46 66 | 	byte	$3c, $00, $00, $00, $30, $18, $00, $7f, $66, $46, $16, $1e, $16, $06, $46, $66
040f4     7F 00 00 00 
040f8     0C 06 00 0F 
040fc     06 06 06 06 
04100     06 06 46 66 | 	byte	$7f, $00, $00, $00, $0c, $06, $00, $0f, $06, $06, $06, $06, $06, $06, $46, $66
04104     7F 00 00 00 
04108     30 18 00 1C 
0410c     18 18 18 18 
04110     18 18 18 18 | 	byte	$7f, $00, $00, $00, $30, $18, $00, $1c, $18, $18, $18, $18, $18, $18, $18, $18
04114     3C 00 00 00 
04118     00 00 08 1C 
0411c     36 00 3E 63 
04120     63 63 63 63 | 	byte	$3c, $00, $00, $00, $00, $00, $08, $1c, $36, $00, $3e, $63, $63, $63, $63, $63
04124     3E 00 00 00 
04128     00 00 00 00 
0412c     63 00 3E 63 
04130     63 63 63 63 | 	byte	$3e, $00, $00, $00, $00, $00, $00, $00, $63, $00, $3e, $63, $63, $63, $63, $63
04134     3E 00 00 00 
04138     00 00 00 6F 
0413c     46 26 06 06 
04140     06 06 46 66 | 	byte	$3e, $00, $00, $00, $00, $00, $00, $6f, $46, $26, $06, $06, $06, $06, $46, $66
04144     7F 00 00 00 
04148     00 00 00 6E 
0414c     4C 2C 0C 0C 
04150     0C 0C 0C 0C | 	byte	$7f, $00, $00, $00, $00, $00, $00, $6e, $4c, $2c, $0c, $0c, $0c, $0c, $0c, $0c
04154     1E 00 00 00 
04158     30 18 00 3E 
0415c     63 63 06 1C 
04160     30 60 63 63 | 	byte	$1e, $00, $00, $00, $30, $18, $00, $3e, $63, $63, $06, $1c, $30, $60, $63, $63
04164     3E 00 00 00 
04168     00 00 60 30 
0416c     18 00 3E 63 
04170     06 1C 30 63 | 	byte	$3e, $00, $00, $00, $00, $00, $60, $30, $18, $00, $3e, $63, $06, $1c, $30, $63
04174     3E 00 00 00 
04178     00 63 00 3E 
0417c     63 63 63 63 
04180     63 63 63 63 | 	byte	$3e, $00, $00, $00, $00, $63, $00, $3e, $63, $63, $63, $63, $63, $63, $63, $63
04184     3E 00 00 00 
04188     00 63 00 63 
0418c     63 63 63 63 
04190     63 63 63 63 | 	byte	$3e, $00, $00, $00, $00, $63, $00, $63, $63, $63, $63, $63, $63, $63, $63, $63
04194     3E 00 00 00 
04198     6C 38 00 7E 
0419c     7E 5A 18 18 
041a0     18 18 18 18 | 	byte	$3e, $00, $00, $00, $6c, $38, $00, $7e, $7e, $5a, $18, $18, $18, $18, $18, $18
041a4     3C 00 00 00 
041a8     00 00 60 48 
041ac     2C 0C 3F 0C 
041b0     0C 0C 0C 6C | 	byte	$3c, $00, $00, $00, $00, $00, $60, $48, $2c, $0c, $3f, $0c, $0c, $0c, $0c, $6c
041b4     38 00 00 00 
041b8     00 00 00 0F 
041bc     26 36 1E 0E 
041c0     07 07 46 66 | 	byte	$38, $00, $00, $00, $00, $00, $00, $0f, $26, $36, $1e, $0e, $07, $07, $46, $66
041c4     7F 00 00 00 
041c8     00 00 00 00 
041cc     00 63 36 1C 
041d0     1C 36 63 00 | 	byte	$7f, $00, $00, $00, $00, $00, $00, $00, $00, $63, $36, $1c, $1c, $36, $63, $00
041d4     00 00 00 00 
041d8     00 00       | 	byte	$00[6]
041da     36 1C 08 00 
041de     3E 63 03 03 
041e2     03 63 3E 00 
041e6     00 00 00 00 | 	byte	$36, $1c, $08, $00, $3e, $63, $03, $03, $03, $63, $3e, $00, $00, $00, $00, $00
041ea     30 18 0C 00 
041ee     1E 30 3E 33 
041f2     33 33 6E 00 
041f6     00 00 00 00 | 	byte	$30, $18, $0c, $00, $1e, $30, $3e, $33, $33, $33, $6e, $00, $00, $00, $00, $00
041fa     60 30 18 00 
041fe     1C 18 18 18 
04202     18 18 3C 00 
04206     00 00 00 00 | 	byte	$60, $30, $18, $00, $1c, $18, $18, $18, $18, $18, $3c, $00, $00, $00, $00, $00
0420a     60 30 18 00 
0420e     3E 63 63 63 
04212     63 63 3E 00 
04216     00 00 00 00 | 	byte	$60, $30, $18, $00, $3e, $63, $63, $63, $63, $63, $3e, $00, $00, $00, $00, $00
0421a     30 18 0C 00 
0421e     33 33 33 33 
04222     33 33 6E 00 
04226     00 00 00 00 | 	byte	$30, $18, $0c, $00, $33, $33, $33, $33, $33, $33, $6e, $00, $00, $00, $00, $00
0422a     00 08 1C 36 
0422e     63 63 7F 63 
04232     63 63 63 18 
04236     0C 78 00 00 | 	byte	$00, $08, $1c, $36, $63, $63, $7f, $63, $63, $63, $63, $18, $0c, $78, $00, $00
0423a     00 00 00 00 
0423e     1E 30 3E 33 
04242     33 33 6E 18 
04246     0C 78 36 1C | 	byte	$00, $00, $00, $00, $1e, $30, $3e, $33, $33, $33, $6e, $18, $0c, $78, $36, $1c
0424a     00 7F 63 61 
0424e     30 18 0C 06 
04252     43 63 7F 00 
04256     00 00 00 00 | 	byte	$00, $7f, $63, $61, $30, $18, $0c, $06, $43, $63, $7f, $00, $00, $00, $00, $00
0425a     36 1C 08 00 
0425e     7F 33 18 0C 
04262     06 63 7F 00 
04266     00 00 00 00 | 	byte	$36, $1c, $08, $00, $7f, $33, $18, $0c, $06, $63, $7f, $00, $00, $00, $00, $00
0426a     00 7F 66 46 
0426e     16 1E 16 06 
04272     46 66 7F 18 
04276     0C 78 00 00 | 	byte	$00, $7f, $66, $46, $16, $1e, $16, $06, $46, $66, $7f, $18, $0c, $78, $00, $00
0427a     00 00 00 00 
0427e     3E 63 7F 03 
04282     03 63 3E 18 
04286     0C 78 00 00 | 	byte	$00, $00, $00, $00, $3e, $63, $7f, $03, $03, $63, $3e, $18, $0c, $78, $00, $00
0428a     00 3C 66 03 
0428e     1F 03 0F 03 
04292     03 66 3C 00 
04296     00 00 00 00 | 	byte	$00, $3c, $66, $03, $1f, $03, $0f, $03, $03, $66, $3c, $00, $00, $00, $00, $00
0429a     60 30 18 00 
0429e     7F 33 18 0C 
042a2     06 63 7F 00 
042a6     00 00 6C 38 | 	byte	$60, $30, $18, $00, $7f, $33, $18, $0c, $06, $63, $7f, $00, $00, $00, $6c, $38
042aa     00 3C 66 43 
042ae     03 03 03 03 
042b2     43 66 3C 00 
042b6     00 00 00 00 | 	byte	$00, $3c, $66, $43, $03, $03, $03, $03, $43, $66, $3c, $00, $00, $00, $00, $00
042ba     00 00 00 00 
042be     3E 63 06 1C 
042c2     30 63 3E 18 
042c6     30 1E 00 00 | 	byte	$00, $00, $00, $00, $3e, $63, $06, $1c, $30, $63, $3e, $18, $30, $1e, $00, $00
042ca     00 00 00 00 
042ce     00 00       | 	byte	$00[6]
042d0     6C 36 1B 36 
042d4     6C 00 00 00 
042d8     00 00 00 00 
042dc     00 00 00 00 | 	byte	$6c, $36, $1b, $36, $6c, $00, $00, $00, $00, $00, $00, $00, $00, $00, $00, $00
042e0     1B 36 6C 36 
042e4     1B 00 00 00 
042e8     88 22 88 22 
042ec     88 22 88 22 | 	byte	$1b, $36, $6c, $36, $1b, $00, $00, $00, $88, $22, $88, $22, $88, $22, $88, $22
042f0     88 22 88 22 
042f4     88 22 88 22 
042f8     AA 55 AA 55 
042fc     AA 55 AA 55 | 	byte	$88, $22, $88, $22, $88, $22, $88, $22, $aa, $55, $aa, $55, $aa, $55, $aa, $55
04300     AA 55 AA 55 
04304     AA 55 AA 55 
04308     BB EE BB EE 
0430c     BB EE BB EE | 	byte	$aa, $55, $aa, $55, $aa, $55, $aa, $55, $bb, $ee, $bb, $ee, $bb, $ee, $bb, $ee
04310     BB EE BB EE 
04314     BB EE BB EE 
04318     18 18 18 18 
0431c     18 18 18 18 | 	byte	$bb, $ee, $bb, $ee, $bb, $ee, $bb, $ee, $18, $18, $18, $18, $18, $18, $18, $18
04320     18 18 18 18 
04324     18 18 18 18 
04328     18 18 18 18 
0432c     18 18 18    | 	byte	$18[15]
0432f     1F 18 18 18 
04333     18 18 18 18 
04337     18 30 18 00 
0433b     08 1C 36 63 | 	byte	$1f, $18, $18, $18, $18, $18, $18, $18, $18, $30, $18, $00, $08, $1c, $36, $63
0433f     63 7F 63 63 
04343     63 63 00 00 
04347     00 1C 36 00 
0434b     08 1C 36 63 | 	byte	$63, $7f, $63, $63, $63, $63, $00, $00, $00, $1c, $36, $00, $08, $1c, $36, $63
0434f     63 7F 63 63 
04353     63 63 00 00 
04357     00 36 1C 00 
0435b     7F 66 46 16 | 	byte	$63, $7f, $63, $63, $63, $63, $00, $00, $00, $36, $1c, $00, $7f, $66, $46, $16
0435f     1E 16 06 46 
04363     66 7F 00 00 
04367     00 00 00 00 
0436b     3E 63 63 06 | 	byte	$1e, $16, $06, $46, $66, $7f, $00, $00, $00, $00, $00, $00, $3e, $63, $63, $06
0436f     1C 30 60 63 
04373     63 3E 18 30 
04377     1E 6C 6C 6C 
0437b     6C 6C 6F 60 | 	byte	$1c, $30, $60, $63, $63, $3e, $18, $30, $1e, $6c, $6c, $6c, $6c, $6c, $6f, $60
0437f     6F 6C 6C 6C 
04383     6C 6C 6C 6C 
04387     6C 6C 6C 6C 
0438b     6C 6C 6C 6C | 	byte	$6f, $6c, $6c, $6c, $6c, $6c, $6c, $6c, $6c, $6c, $6c, $6c, $6c, $6c, $6c, $6c
0438f     6C 6C 6C 6C 
04393     6C 6C 6C 6C 
04397     6C          | 	byte	$6c[9]
04398     00 00 00 00 
0439c     00          | 	byte	$00[5]
0439d     7F 60 6F 6C 
043a1     6C 6C 6C 6C 
043a5     6C 6C 6C 6C 
043a9     6C 6C 6C 6C | 	byte	$7f, $60, $6f, $6c, $6c, $6c, $6c, $6c, $6c, $6c, $6c, $6c, $6c, $6c, $6c, $6c
043ad     6F 60 7F 00 
043b1     00 00 00 00 
043b5     00 00 00 18 
043b9     18 00 7F 63 | 	byte	$6f, $60, $7f, $00, $00, $00, $00, $00, $00, $00, $00, $18, $18, $00, $7f, $63
043bd     61 30 18 0C 
043c1     06 43 63 7F 
043c5     00 00 00 00 
043c9     00 00 18 18 | 	byte	$61, $30, $18, $0c, $06, $43, $63, $7f, $00, $00, $00, $00, $00, $00, $18, $18
043cd     00 7F 33 18 
043d1     0C 06 63 7F 
043d5     00 00 00 00 
043d9     00 00 00 00 | 	byte	$00, $7f, $33, $18, $0c, $06, $63, $7f, $00, $00, $00, $00, $00, $00, $00, $00
043dd     00 00 1F 18 
043e1     18 18 18 18 
043e5     18 18 18 18 
043e9     18 18 18 18 | 	byte	$00, $00, $1f, $18, $18, $18, $18, $18, $18, $18, $18, $18, $18, $18, $18, $18
043ed     18 18 F8 00 
043f1     00 00 00 00 
043f5     00 00 00 18 
043f9     18 18 18 18 | 	byte	$18, $18, $f8, $00, $00, $00, $00, $00, $00, $00, $00, $18, $18, $18, $18, $18
043fd     18 18 FF 00 
04401     00 00 00 00 
04405     00 00 00 00 
04409     00 00 00 00 | 	byte	$18, $18, $ff, $00, $00, $00, $00, $00, $00, $00, $00, $00, $00, $00, $00, $00
0440d     00 00 FF 18 
04411     18 18 18 18 
04415     18 18 18 18 
04419     18 18 18 18 | 	byte	$00, $00, $ff, $18, $18, $18, $18, $18, $18, $18, $18, $18, $18, $18, $18, $18
0441d     18 18 F8 18 
04421     18 18 18 18 
04425     18 18 18 00 
04429     00 00 00 00 | 	byte	$18, $18, $f8, $18, $18, $18, $18, $18, $18, $18, $18, $00, $00, $00, $00, $00
0442d     00 00 FF 00 
04431     00 00 00 00 
04435     00 00 00 18 
04439     18 18 18 18 | 	byte	$00, $00, $ff, $00, $00, $00, $00, $00, $00, $00, $00, $18, $18, $18, $18, $18
0443d     18 18 FF 18 
04441     18 18 18 18 
04445     18 18 18 63 
04449     3E 00 08 1C | 	byte	$18, $18, $ff, $18, $18, $18, $18, $18, $18, $18, $18, $63, $3e, $00, $08, $1c
0444d     36 63 63 7F 
04451     63 63 63 63 
04455     00 00 00 00 
04459     00 00 63 3E | 	byte	$36, $63, $63, $7f, $63, $63, $63, $63, $00, $00, $00, $00, $00, $00, $63, $3e
0445d     00 1E 30 3E 
04461     33 33 33 6E 
04465     00 00 00 6C 
04469     6C 6C 6C 6C | 	byte	$00, $1e, $30, $3e, $33, $33, $33, $6e, $00, $00, $00, $6c, $6c, $6c, $6c, $6c
0446d     EC 0C FC 00 
04471     00 00 00 00 
04475     00 00 00 00 
04479     00 00 00 00 | 	byte	$ec, $0c, $fc, $00, $00, $00, $00, $00, $00, $00, $00, $00, $00, $00, $00, $00
0447d     FC 0C EC 6C 
04481     6C 6C 6C 6C 
04485     6C 6C 6C 6C 
04489     6C 6C 6C 6C | 	byte	$fc, $0c, $ec, $6c, $6c, $6c, $6c, $6c, $6c, $6c, $6c, $6c, $6c, $6c, $6c, $6c
0448d     EF 00 FF 00 
04491     00 00 00 00 
04495     00 00 00 00 
04499     00 00 00 00 | 	byte	$ef, $00, $ff, $00, $00, $00, $00, $00, $00, $00, $00, $00, $00, $00, $00, $00
0449d     FF 00 EF 6C 
044a1     6C 6C 6C 6C 
044a5     6C 6C 6C 6C 
044a9     6C 6C 6C 6C | 	byte	$ff, $00, $ef, $6c, $6c, $6c, $6c, $6c, $6c, $6c, $6c, $6c, $6c, $6c, $6c, $6c
044ad     EC 0C EC 6C 
044b1     6C 6C 6C 6C 
044b5     6C 6C 6C 00 
044b9     00 00 00 00 | 	byte	$ec, $0c, $ec, $6c, $6c, $6c, $6c, $6c, $6c, $6c, $6c, $00, $00, $00, $00, $00
044bd     FF 00 FF 00 
044c1     00 00 00 00 
044c5     00 00 00 6C 
044c9     6C 6C 6C 6C | 	byte	$ff, $00, $ff, $00, $00, $00, $00, $00, $00, $00, $00, $6c, $6c, $6c, $6c, $6c
044cd     EF 00 EF 6C 
044d1     6C 6C 6C 6C 
044d5     6C 6C 6C 00 
044d9     00 00 00 00 | 	byte	$ef, $00, $ef, $6c, $6c, $6c, $6c, $6c, $6c, $6c, $6c, $00, $00, $00, $00, $00
044dd     63 3E 63 63 
044e1     63 63 3E 63 
044e5     00 00 00 00 
044e9     00 00 30 7E | 	byte	$63, $3e, $63, $63, $63, $63, $3e, $63, $00, $00, $00, $00, $00, $00, $30, $7e
044ed     30 3C 36 33 
044f1     33 33 33 6E 
044f5     00 00 00 00 
044f9     00 00 1F 36 | 	byte	$30, $3c, $36, $33, $33, $33, $33, $6e, $00, $00, $00, $00, $00, $00, $1f, $36
044fd     66 66 6F 66 
04501     66 66 36 1F 
04505     00 00 00 36 
04509     1C 00 1F 36 | 	byte	$66, $66, $6f, $66, $66, $66, $36, $1f, $00, $00, $00, $36, $1c, $00, $1f, $36
0450d     66 66 66 66 
04511     66 66       | 	byte	$66[6]
04513     36 1F 00 00 
04517     00 00 63 00 
0451b     7F 66 46 16 
0451f     1E 16 06 46 | 	byte	$36, $1f, $00, $00, $00, $00, $63, $00, $7f, $66, $46, $16, $1e, $16, $06, $46
04523     66 7F 00 00 
04527     00 6C 38 00 
0452b     38 30 30 3C 
0452f     36 33 33 33 | 	byte	$66, $7f, $00, $00, $00, $6c, $38, $00, $38, $30, $30, $3c, $36, $33, $33, $33
04533     33 6E 00 00 
04537     00 36 1C 00 
0453b     63 67 6F 7F 
0453f     7B 73 63 63 | 	byte	$33, $6e, $00, $00, $00, $36, $1c, $00, $63, $67, $6f, $7f, $7b, $73, $63, $63
04543     63 63 00 00 
04547     00 30 18 00 
0454b     3C 18 18 18 
0454f     18 18 18 18 | 	byte	$63, $63, $00, $00, $00, $30, $18, $00, $3c, $18, $18, $18, $18, $18, $18, $18
04553     18 3C 00 00 
04557     00 3C 66 00 
0455b     3C 18 18 18 
0455f     18 18 18 18 | 	byte	$18, $3c, $00, $00, $00, $3c, $66, $00, $3c, $18, $18, $18, $18, $18, $18, $18
04563     18 3C 00 00 
04567     00 00 00 36 
0456b     1C 08 00 3E 
0456f     63 7F 03 03 | 	byte	$18, $3c, $00, $00, $00, $00, $00, $36, $1c, $08, $00, $3e, $63, $7f, $03, $03
04573     63 3E 00 00 
04577     00 18 18 18 
0457b     18 18 18 18 
0457f     1F 00 00 00 | 	byte	$63, $3e, $00, $00, $00, $18, $18, $18, $18, $18, $18, $18, $1f, $00, $00, $00
04583     00 00 00 00 
04587     00 00 00 00 
0458b     00 00 00 00 | 	byte	$00[12]
0458f     F8 18 18 18 
04593     18 18 18 18 
04597     18 FF FF FF 
0459b     FF FF FF FF | 	byte	$f8, $18, $18, $18, $18, $18, $18, $18, $18, $ff, $ff, $ff, $ff, $ff, $ff, $ff
0459f     FF FF FF FF 
045a3     FF FF FF FF 
045a7     FF          | 	byte	$ff[9]
045a8     00 00 00 00 
045ac     00 00 00    | 	byte	$00[7]
045af     FF FF FF FF 
045b3     FF FF FF FF 
045b7     FF          | 	byte	$ff[9]
045b8     00 00 00 7E 
045bc     7E 5A 18 18 
045c0     18 18 18 18 
045c4     3C 18 30 1E | 	byte	$00, $00, $00, $7e, $7e, $5a, $18, $18, $18, $18, $18, $18, $3c, $18, $30, $1e
045c8     1C 36 1C 63 
045cc     63 63 63 63 
045d0     63 63 63 63 
045d4     3E 00 00 00 | 	byte	$1c, $36, $1c, $63, $63, $63, $63, $63, $63, $63, $63, $63, $3e, $00, $00, $00
045d8     FF FF FF FF 
045dc     FF FF FF    | 	byte	$ff[7]
045df     00 00 00 00 
045e3     00 00 00 00 
045e7     00          | 	byte	$00[9]
045e8     30 18 00 3E 
045ec     63 63 63 63 
045f0     63 63 63 63 
045f4     3E 00 00 00 | 	byte	$30, $18, $00, $3e, $63, $63, $63, $63, $63, $63, $63, $63, $3e, $00, $00, $00
045f8     00 00 00 1E 
045fc     33 33 33 1B 
04600     33 63 63 63 
04604     33 00 00 00 | 	byte	$00, $00, $00, $1e, $33, $33, $33, $1b, $33, $63, $63, $63, $33, $00, $00, $00
04608     1C 36 00 3E 
0460c     63 63 63 63 
04610     63 63 63 63 
04614     3E 00 00 00 | 	byte	$1c, $36, $00, $3e, $63, $63, $63, $63, $63, $63, $63, $63, $3e, $00, $00, $00
04618     30 18 00 63 
0461c     67 6F 7F 7B 
04620     73 63 63 63 
04624     63 00 00 00 | 	byte	$30, $18, $00, $63, $67, $6f, $7f, $7b, $73, $63, $63, $63, $63, $00, $00, $00
04628     00 00 60 30 
0462c     18 00 3B 66 
04630     66 66 66 66 
04634     66 00 00 00 | 	byte	$00, $00, $60, $30, $18, $00, $3b, $66, $66, $66, $66, $66, $66, $00, $00, $00
04638     00 00 36 1C 
0463c     08 00 3B 66 
04640     66 66 66 66 
04644     66 00 00 00 | 	byte	$00, $00, $36, $1c, $08, $00, $3b, $66, $66, $66, $66, $66, $66, $00, $00, $00
04648     36 1C 00 3E 
0464c     63 63 06 1C 
04650     30 60 63 63 
04654     3E 00 00 00 | 	byte	$36, $1c, $00, $3e, $63, $63, $06, $1c, $30, $60, $63, $63, $3e, $00, $00, $00
04658     00 00 36 1C 
0465c     08 00 3E 63 
04660     06 1C 30 63 
04664     3E 00 00 00 | 	byte	$00, $00, $36, $1c, $08, $00, $3e, $63, $06, $1c, $30, $63, $3e, $00, $00, $00
04668     30 18 00 3F 
0466c     66 66 66 3E 
04670     36 66 66 66 
04674     6F 00 00 00 | 	byte	$30, $18, $00, $3f, $66, $66, $66, $3e, $36, $66, $66, $66, $6f, $00, $00, $00
04678     30 18 00 63 
0467c     63 63 63 63 
04680     63 63 63 63 
04684     3E 00 00 00 | 	byte	$30, $18, $00, $63, $63, $63, $63, $63, $63, $63, $63, $63, $3e, $00, $00, $00
04688     00 00 60 30 
0468c     18 00 3B 6E 
04690     66 06 06 06 
04694     0F 00 00 00 | 	byte	$00, $00, $60, $30, $18, $00, $3b, $6e, $66, $06, $06, $06, $0f, $00, $00, $00
04698     66 33 00 63 
0469c     63 63 63 63 
046a0     63 63 63 63 
046a4     3E 00 00 00 | 	byte	$66, $33, $00, $63, $63, $63, $63, $63, $63, $63, $63, $63, $3e, $00, $00, $00
046a8     00 00 60 30 
046ac     18 00 63 63 
046b0     63 63 63 63 
046b4     7E 60 30 1F | 	byte	$00, $00, $60, $30, $18, $00, $63, $63, $63, $63, $63, $63, $7e, $60, $30, $1f
046b8     30 18 00 66 
046bc     66 66 66 3C 
046c0     18 18 18 18 
046c4     3C 00 00 00 | 	byte	$30, $18, $00, $66, $66, $66, $66, $3c, $18, $18, $18, $18, $3c, $00, $00, $00
046c8     00 00 00 08 
046cc     0C 0C 3F 0C 
046d0     0C 0C 0C 6C 
046d4     38 18 30 1E | 	byte	$00, $00, $00, $08, $0c, $0c, $3f, $0c, $0c, $0c, $0c, $6c, $38, $18, $30, $1e
046d8     30 18 00 00 
046dc     00 00 00 00 
046e0     00 00 00 00 
046e4     00 00 00 00 | 	byte	$30, $18, $00, $00, $00, $00, $00, $00, $00, $00, $00, $00, $00, $00, $00, $00
046e8     00 00 00 00 
046ec     00 00 00 00 | 	byte	$00[8]
046f0     7F 00 00 00 
046f4     00 00 00 00 
046f8     66 33 00 00 
046fc     00 00 00 00 | 	byte	$7f, $00, $00, $00, $00, $00, $00, $00, $66, $33, $00, $00, $00, $00, $00, $00
04700     00 00 00 00 
04704     00 00 00 00 
04708     00 00 00 00 
0470c     00 00 00 00 
04710     00 00 00 00 
04714     00          | 	byte	$00[21]
04715     0C 06 3C 36 
04719     1C 00 00 00 
0471d     00 00 00 00 
04721     00 00 00 00 | 	byte	$0c, $06, $3c, $36, $1c, $00, $00, $00, $00, $00, $00, $00, $00, $00, $00, $00
04725     00 00 00 63 
04729     3E 00 00 00 
0472d     00 00 00 00 
04731     00 00 00 00 | 	byte	$00, $00, $00, $63, $3e, $00, $00, $00, $00, $00, $00, $00, $00, $00, $00, $00
04735     00 00 00 00 
04739     3E 63 06 1C 
0473d     36 63 63 36 
04741     1C 30 63 3E | 	byte	$00, $00, $00, $00, $3e, $63, $06, $1c, $36, $63, $63, $36, $1c, $30, $63, $3e
04745     00 00 00 00 
04749     00 00 00 00 | 	byte	$00[8]
0474d     18 00 7E 00 
04751     18 00 00 00 
04755     00 00 00 00 
04759     00 00 00 00 | 	byte	$18, $00, $7e, $00, $18, $00, $00, $00, $00, $00, $00, $00, $00, $00, $00, $00
0475d     00 00 00 00 
04761     00 00 00 00 | 	byte	$00[8]
04765     18 30 1E 00 
04769     00 00 1C 36 
0476d     36 1C 00 00 
04771     00 00 00 00 | 	byte	$18, $30, $1e, $00, $00, $00, $1c, $36, $36, $1c, $00, $00, $00, $00, $00, $00
04775     00 00 00 00 
04779     63 00 00 00 
0477d     00 00 00 00 
04781     00 00 00 00 | 	byte	$00, $00, $00, $00, $63, $00, $00, $00, $00, $00, $00, $00, $00, $00, $00, $00
04785     00 00 00 18 
04789     18 00 00 00 
0478d     00 00 00 00 
04791     00 00 00 00 | 	byte	$00, $00, $00, $18, $18, $00, $00, $00, $00, $00, $00, $00, $00, $00, $00, $00
04795     00 00 00 00 
04799     00          | 	byte	$00[5]
0479a     CC 66 33 00 
0479e     33 33 33 33 
047a2     33 33 6E 00 
047a6     00 00 36 1C | 	byte	$cc, $66, $33, $00, $33, $33, $33, $33, $33, $33, $6e, $00, $00, $00, $36, $1c
047aa     00 3F 66 66 
047ae     66 3E 36 66 
047b2     66 66 6F 00 
047b6     00 00 00 00 | 	byte	$00, $3f, $66, $66, $66, $3e, $36, $66, $66, $66, $6f, $00, $00, $00, $00, $00
047ba     36 1C 08 00 
047be     3B 6E 66 06 
047c2     06 06 0F 00 
047c6     00 00 00 00 | 	byte	$36, $1c, $08, $00, $3b, $6e, $66, $06, $06, $06, $0f, $00, $00, $00, $00, $00
047ca     00 00 00 7E 
047ce     7E 7E 7E 7E 
047d2     7E 7E 00 00 
047d6     00 00 00 00 | 	byte	$00, $00, $00, $7e, $7e, $7e, $7e, $7e, $7e, $7e, $00, $00, $00, $00, $00, $00
047da     00 00 00 00 
047de     00 00 00 00 
047e2     00 00 00 00 
047e6     00 00       | 	byte	$00, $00, $00, $00, $00, $00, $00, $00, $00, $00, $00, $00, $00, $00
047e8     00 00 00 00 
      ...             
04818     00 00 00 00 
0481c     00 00 00    | st_font        file "st4font.def"
0481f     FF FF 00 00 
04823     00 00 00 00 
04827     00 18 18 18 
0482b     18 18 18 18 | 	byte	$ff, $ff, $00, $00, $00, $00, $00, $00, $00, $18, $18, $18, $18, $18, $18, $18
0482f     18 18 18 18 
04833     18 18 18 18 
04837     18          | 	byte	$18[9]
04838     00 00 00 00 
0483c     00 00 00    | 	byte	$00[7]
0483f     FF FF 18 18 
04843     18 18 18 18 
04847     18 18 18 18 
0484b     18 18 18 18 | 	byte	$ff, $ff, $18, $18, $18, $18, $18, $18, $18, $18, $18, $18, $18, $18, $18, $18
0484f     FF FF 00 00 
04853     00 00 00 00 
04857     00 18 18 18 
0485b     18 18 18 18 | 	byte	$ff, $ff, $00, $00, $00, $00, $00, $00, $00, $18, $18, $18, $18, $18, $18, $18
0485f     1F 1F 18 18 
04863     18 18 18 18 
04867     18 18 18 18 
0486b     18 18 18 18 | 	byte	$1f, $1f, $18, $18, $18, $18, $18, $18, $18, $18, $18, $18, $18, $18, $18, $18
0486f     F8 F8 18 18 
04873     18 18 18 18 
04877     18 00 00 00 
0487b     00 00 00 00 | 	byte	$f8, $f8, $18, $18, $18, $18, $18, $18, $18, $00, $00, $00, $00, $00, $00, $00
0487f     1F 1F 18 18 
04883     18 18 18 18 
04887     18 00 00 00 
0488b     00 00 00 00 | 	byte	$1f, $1f, $18, $18, $18, $18, $18, $18, $18, $00, $00, $00, $00, $00, $00, $00
0488f     F8 F8 18 18 
04893     18 18 18 18 
04897     18 18 18 18 
0489b     18 18 18 18 | 	byte	$f8, $f8, $18, $18, $18, $18, $18, $18, $18, $18, $18, $18, $18, $18, $18, $18
0489f     1F 1F 00 00 
048a3     00 00 00 00 
048a7     00 18 18 18 
048ab     18 18 18 18 | 	byte	$1f, $1f, $00, $00, $00, $00, $00, $00, $00, $18, $18, $18, $18, $18, $18, $18
048af     F8 F8 00 00 
048b3     00 00 00 00 
048b7     00 18 18 18 
048bb     18 18 18 18 | 	byte	$f8, $f8, $00, $00, $00, $00, $00, $00, $00, $18, $18, $18, $18, $18, $18, $18
048bf     FF FF 18 18 
048c3     18 18 18 18 
048c7     18 00 00 18 
048cb     3C 7E 66 66 | 	byte	$ff, $ff, $18, $18, $18, $18, $18, $18, $18, $00, $00, $18, $3c, $7e, $66, $66
048cf     66 7E 7E 66 
048d3     66 66 66 30 
048d7     18 00 00 7E 
048db     7E 06 06 3E | 	byte	$66, $7e, $7e, $66, $66, $66, $66, $30, $18, $00, $00, $7e, $7e, $06, $06, $3e
048df     3E 06 06 06 
048e3     06 7E 7E 18 
048e7     0C 30 18 3C 
048eb     7E 66 66 06 | 	byte	$3e, $06, $06, $06, $06, $7e, $7e, $18, $0c, $30, $18, $3c, $7e, $66, $66, $06
048ef     06 06 06 66 
048f3     66 7E 3C 00 
048f7     00 30 18 66 
048fb     66 66 6E 6E | 	byte	$06, $06, $06, $66, $66, $7e, $3c, $00, $00, $30, $18, $66, $66, $66, $6e, $6e
048ff     7E 7E 76 76 
04903     66 66 66 00 
04907     00 30 18 7C 
0490b     7E 06 06 0E | 	byte	$7e, $7e, $76, $76, $66, $66, $66, $00, $00, $30, $18, $7c, $7e, $06, $06, $0e
0490f     1C 38 70 60 
04913     60 7E 3E 00 
04917     00 30 18 7E 
0491b     7E 30 30 18 | 	byte	$1c, $38, $70, $60, $60, $7e, $3e, $00, $00, $30, $18, $7e, $7e, $30, $30, $18
0491f     18 0C 0C 06 
04923     06 7E 7E 00 
04927     00 18 18 00 
0492b     7E 7E 30 30 | 	byte	$18, $0c, $0c, $06, $06, $7e, $7e, $00, $00, $18, $18, $00, $7e, $7e, $30, $30
0492f     18 18 0C 0C 
04933     06 7E 7E 00 
04937     00 30 18 3C 
0493b     7E 66 66 66 | 	byte	$18, $18, $0c, $0c, $06, $7e, $7e, $00, $00, $30, $18, $3c, $7e, $66, $66, $66
0493f     66 66 66 66 
04943     66          | 	byte	$66[5]
04944     7E 3C 00 00 
04948     00 00 06 06 
0494c     06 06 16 1E 
04950     0E 06 06 06 | 	byte	$7e, $3c, $00, $00, $00, $00, $06, $06, $06, $06, $16, $1e, $0e, $06, $06, $06
04954     7E 7E 00 00 
04958     00 00 00 00 
0495c     00 3C 7C 60 
04960     7C 7E 66 66 | 	byte	$7e, $7e, $00, $00, $00, $00, $00, $00, $00, $3c, $7c, $60, $7c, $7e, $66, $66
04964     7E 7C 30 18 
04968     00 00 00 00 
0496c     00 3C 7E 66 
04970     66 7E 06 06 | 	byte	$7e, $7c, $30, $18, $00, $00, $00, $00, $00, $3c, $7e, $66, $66, $7e, $06, $06
04974     7E 7C 18 0C 
04978     00 00 30 18 
0497c     00 3C 3E 06 
04980     06 06 06 06 | 	byte	$7e, $7c, $18, $0c, $00, $00, $30, $18, $00, $3c, $3e, $06, $06, $06, $06, $06
04984     7E 7C 00 00 
04988     00 00 30 18 
0498c     00 3E 7E 66 
04990     66 66 66 66 | 	byte	$7e, $7c, $00, $00, $00, $00, $30, $18, $00, $3e, $7e, $66, $66, $66, $66, $66
04994     66 66 00 00 
04998     00 00 30 18 
0499c     00 7C 7E 06 
049a0     0E 3C 70 60 | 	byte	$66, $66, $00, $00, $00, $00, $30, $18, $00, $7c, $7e, $06, $0e, $3c, $70, $60
049a4     7E 3E 00 00 
049a8     00 00 30 18 
049ac     00 7E 7E 30 
049b0     18 18 0C 0C | 	byte	$7e, $3e, $00, $00, $00, $00, $30, $18, $00, $7e, $7e, $30, $18, $18, $0c, $0c
049b4     7E 7E 00 00 
049b8     00 00 18 18 
049bc     00 7E 7E 30 
049c0     18 18 0C 0C | 	byte	$7e, $7e, $00, $00, $00, $00, $18, $18, $00, $7e, $7e, $30, $18, $18, $0c, $0c
049c4     7E 7E 00 00 
049c8     00 00 30 18 
049cc     00 3C 7E 66 
049d0     66 66 66 66 | 	byte	$7e, $7e, $00, $00, $00, $00, $30, $18, $00, $3c, $7e, $66, $66, $66, $66, $66
049d4     7E 3C 00 00 
049d8     00 00 1C 1C 
049dc     18 18 38 3C 
049e0     1C 18 18 18 | 	byte	$7e, $3c, $00, $00, $00, $00, $1c, $1c, $18, $18, $38, $3c, $1c, $18, $18, $18
049e4     3C 3C 00 00 
049e8     00 00 00 00 
049ec     00 00 00 00 
049f0     00 00 00 00 | 	byte	$3c, $3c, $00, $00, $00, $00, $00, $00, $00, $00, $00, $00, $00, $00, $00, $00
049f4     00 00 00 00 
049f8     00 00       | 	byte	$00[6]
049fa     18 18 18 18 
049fe     18 18 18 18 | 	byte	$18[8]
04a02     00 00 18 18 
04a06     00 00 00 00 
04a0a     66 66 66 66 
04a0e     00 00 00 00 | 	byte	$00, $00, $18, $18, $00, $00, $00, $00, $66, $66, $66, $66, $00, $00, $00, $00
04a12     00 00 00 00 
04a16     00 00 00 00 
04a1a     00          | 	byte	$00[9]
04a1b     66 66 FF FF 
04a1f     66 66 FF FF 
04a23     66 66 00 00 
04a27     00 00 18 18 | 	byte	$66, $66, $ff, $ff, $66, $66, $ff, $ff, $66, $66, $00, $00, $00, $00, $18, $18
04a2b     7C 7E 06 06 
04a2f     3E 7C 60 60 
04a33     7E 3E 18 18 
04a37     00 00 00 66 | 	byte	$7c, $7e, $06, $06, $3e, $7c, $60, $60, $7e, $3e, $18, $18, $00, $00, $00, $66
04a3b     66 30 30 18 
04a3f     18 0C 0C 66 
04a43     66 00 00 00 
04a47     00 00 3C 7E | 	byte	$66, $30, $30, $18, $18, $0c, $0c, $66, $66, $00, $00, $00, $00, $00, $3c, $7e
04a4b     66 66 3C 1C 
04a4f     1C FC FE 66 
04a53     66 FE FC 00 
04a57     00 00 00 18 | 	byte	$66, $66, $3c, $1c, $1c, $fc, $fe, $66, $66, $fe, $fc, $00, $00, $00, $00, $18
04a5b     18 18 18 18 
04a5f     00 00 00 00 
04a63     00 00 00 00 
04a67     00 00 00 30 | 	byte	$18, $18, $18, $18, $00, $00, $00, $00, $00, $00, $00, $00, $00, $00, $00, $30
04a6b     18 1C 0C 0C 
04a6f     0C 0C 0C 0C 
04a73     1C 18 30 00 
04a77     00 00 00 0C | 	byte	$18, $1c, $0c, $0c, $0c, $0c, $0c, $0c, $1c, $18, $30, $00, $00, $00, $00, $0c
04a7b     18 38 30 30 
04a7f     30 30 30 30 
04a83     38 18 0C 00 
04a87     00 00 00 00 | 	byte	$18, $38, $30, $30, $30, $30, $30, $30, $38, $18, $0c, $00, $00, $00, $00, $00
04a8b     66 66 3C 3C 
04a8f     FF FF 3C 3C 
04a93     66 66 00 00 
04a97     00 00 00 00 | 	byte	$66, $66, $3c, $3c, $ff, $ff, $3c, $3c, $66, $66, $00, $00, $00, $00, $00, $00
04a9b     00 18 18 18 
04a9f     7E 7E 18 18 
04aa3     18 00 00 00 
04aa7     00 00 00 00 | 	byte	$00, $18, $18, $18, $7e, $7e, $18, $18, $18, $00, $00, $00, $00, $00, $00, $00
04aab     00 00 00 00 
04aaf     00 00       | 	byte	$00[6]
04ab1     18 18 18 18 
04ab5     18          | 	byte	$18[5]
04ab6     0C 04 00 00 
04aba     00 00 00 00 
04abe     7E 7E 00 00 
04ac2     00 00 00 00 | 	byte	$0c, $04, $00, $00, $00, $00, $00, $00, $7e, $7e, $00, $00, $00, $00, $00, $00
04ac6     00 00 00 00 
04aca     00 00 00 00 
04ace     00 00 00 00 
04ad2     00          | 	byte	$00[13]
04ad3     18 18 18 00 
04ad7     00 00 00 60 
04adb     60 60 30 30 
04adf     18 18 0C 0C | 	byte	$18, $18, $18, $00, $00, $00, $00, $60, $60, $60, $30, $30, $18, $18, $0c, $0c
04ae3     06 06 06 00 
04ae7     00 00 00 3C 
04aeb     7E 66 66 66 
04aef     76 6E 66 66 | 	byte	$06, $06, $06, $00, $00, $00, $00, $3c, $7e, $66, $66, $66, $76, $6e, $66, $66
04af3     66 7E 3C 00 
04af7     00 00 00 18 
04afb     18 1C 1C 18 
04aff     18 18 18 18 | 	byte	$66, $7e, $3c, $00, $00, $00, $00, $18, $18, $1c, $1c, $18, $18, $18, $18, $18
04b03     18 7E 7E 00 
04b07     00 00 00 3C 
04b0b     7E 66 66 30 
04b0f     30 18 18 0C | 	byte	$18, $7e, $7e, $00, $00, $00, $00, $3c, $7e, $66, $66, $30, $30, $18, $18, $0c
04b13     0C 7E 7E 00 
04b17     00 00 00 7E 
04b1b     7E 30 30 18 
04b1f     18 30 30 66 | 	byte	$0c, $7e, $7e, $00, $00, $00, $00, $7e, $7e, $30, $30, $18, $18, $30, $30, $66
04b23     66 7E 3C 00 
04b27     00 00 00 30 
04b2b     30 38 38 3C 
04b2f     3C 36 36 7E | 	byte	$66, $7e, $3c, $00, $00, $00, $00, $30, $30, $38, $38, $3c, $3c, $36, $36, $7e
04b33     7E 30 30 00 
04b37     00 00 00 7E 
04b3b     7E 06 06 3E 
04b3f     7E 60 60 60 | 	byte	$7e, $30, $30, $00, $00, $00, $00, $7e, $7e, $06, $06, $3e, $7e, $60, $60, $60
04b43     66 7E 3C 00 
04b47     00 00 00 38 
04b4b     3C 0E 06 06 
04b4f     3E 7E 66 66 | 	byte	$66, $7e, $3c, $00, $00, $00, $00, $38, $3c, $0e, $06, $06, $3e, $7e, $66, $66
04b53     66 7E 3C 00 
04b57     00 00 00 7E 
04b5b     7E 60 60 30 
04b5f     30 18 18 0C | 	byte	$66, $7e, $3c, $00, $00, $00, $00, $7e, $7e, $60, $60, $30, $30, $18, $18, $0c
04b63     0C 0C 0C 00 
04b67     00 00 00 3C 
04b6b     7E 66 66 3C 
04b6f     3C 66 66 66 | 	byte	$0c, $0c, $0c, $00, $00, $00, $00, $3c, $7e, $66, $66, $3c, $3c, $66, $66, $66
04b73     66 7E 3C 00 
04b77     00 00 00 3C 
04b7b     7E 66 66 7E 
04b7f     7C 60 60 60 | 	byte	$66, $7e, $3c, $00, $00, $00, $00, $3c, $7e, $66, $66, $7e, $7c, $60, $60, $60
04b83     70 3C 1C 00 
04b87     00 00 00 00 
04b8b     00 00 18 18 
04b8f     18 00 00 00 | 	byte	$70, $3c, $1c, $00, $00, $00, $00, $00, $00, $00, $18, $18, $18, $00, $00, $00
04b93     18 18 18 00 
04b97     00 00 00 00 
04b9b     00 00 18 18 
04b9f     18 00 00 18 | 	byte	$18, $18, $18, $00, $00, $00, $00, $00, $00, $00, $18, $18, $18, $00, $00, $18
04ba3     18 18 18 0C 
04ba7     04 00 00 00 
04bab     70 38 1C 0E 
04baf     07 0E 1C 38 | 	byte	$18, $18, $18, $0c, $04, $00, $00, $00, $70, $38, $1c, $0e, $07, $0e, $1c, $38
04bb3     70 00 00 00 
04bb7     00 00 00 00 
04bbb     00 00 7E 7E 
04bbf     00 00 7E 7E | 	byte	$70, $00, $00, $00, $00, $00, $00, $00, $00, $00, $7e, $7e, $00, $00, $7e, $7e
04bc3     00 00 00 00 
04bc7     00 00 00 00 | 	byte	$00[8]
04bcb     0E 1C 38 70 
04bcf     E0 70 38 1C 
04bd3     0E 00 00 00 
04bd7     00 00 00 3C | 	byte	$0e, $1c, $38, $70, $e0, $70, $38, $1c, $0e, $00, $00, $00, $00, $00, $00, $3c
04bdb     7E 66 66 30 
04bdf     30 18 18 18 
04be3     00 18 18 00 
04be7     00 00 00 3C | 	byte	$7e, $66, $66, $30, $30, $18, $18, $18, $00, $18, $18, $00, $00, $00, $00, $3c
04beb     7E 66 66 66 
04bef     66 36 06 66 
04bf3     66 7E 3C 00 
04bf7     00 00 00 18 | 	byte	$7e, $66, $66, $66, $66, $36, $06, $66, $66, $7e, $3c, $00, $00, $00, $00, $18
04bfb     3C 7E 66 66 
04bff     66 7E 7E 66 
04c03     66 66 66 00 
04c07     00 00 00 3E | 	byte	$3c, $7e, $66, $66, $66, $7e, $7e, $66, $66, $66, $66, $00, $00, $00, $00, $3e
04c0b     7E 66 66 7E 
04c0f     3E 66 66 66 
04c13     66 7E 3E 00 
04c17     00 00 00 3C | 	byte	$7e, $66, $66, $7e, $3e, $66, $66, $66, $66, $7e, $3e, $00, $00, $00, $00, $3c
04c1b     7E 66 66 06 
04c1f     06 06 06 66 
04c23     66 7E 3C 00 
04c27     00 00 00 3E | 	byte	$7e, $66, $66, $06, $06, $06, $06, $66, $66, $7e, $3c, $00, $00, $00, $00, $3e
04c2b     7E 66 66 66 
04c2f     66 66 66 66 
04c33     66 7E 3E 00 
04c37     00 00 00 7E | 	byte	$7e, $66, $66, $66, $66, $66, $66, $66, $66, $7e, $3e, $00, $00, $00, $00, $7e
04c3b     7E 06 06 3E 
04c3f     3E 06 06 06 
04c43     06 7E 7E 00 
04c47     00 00 00 7E | 	byte	$7e, $06, $06, $3e, $3e, $06, $06, $06, $06, $7e, $7e, $00, $00, $00, $00, $7e
04c4b     7E 06 06 3E 
04c4f     3E 06 06 06 
04c53     06 06 06 00 
04c57     00 00 00 7C | 	byte	$7e, $06, $06, $3e, $3e, $06, $06, $06, $06, $06, $06, $00, $00, $00, $00, $7c
04c5b     7E 06 06 76 
04c5f     76 66 66 66 
04c63     66 7E 3C 00 
04c67     00 00 00 66 | 	byte	$7e, $06, $06, $76, $76, $66, $66, $66, $66, $7e, $3c, $00, $00, $00, $00, $66
04c6b     66 66 66 7E 
04c6f     7E 66 66 66 
04c73     66 66 66 00 
04c77     00 00 00 7E | 	byte	$66, $66, $66, $7e, $7e, $66, $66, $66, $66, $66, $66, $00, $00, $00, $00, $7e
04c7b     7E 18 18 18 
04c7f     18 18 18 18 
04c83     18 7E 7E 00 
04c87     00 00 00 60 | 	byte	$7e, $18, $18, $18, $18, $18, $18, $18, $18, $7e, $7e, $00, $00, $00, $00, $60
04c8b     60 60 60 60 
04c8f     60 60 60    | 	byte	$60[7]
04c92     66 66 7E 3C 
04c96     00 00 00 00 
04c9a     66 66 36 36 
04c9e     1E 1E 36 36 | 	byte	$66, $66, $7e, $3c, $00, $00, $00, $00, $66, $66, $36, $36, $1e, $1e, $36, $36
04ca2     66 66 C6 C6 
04ca6     00 00 00 00 
04caa     06 06 06 06 
04cae     06 06 06 06 | 	byte	$66, $66, $c6, $c6, $00, $00, $00, $00, $06, $06, $06, $06, $06, $06, $06, $06
04cb2     06 06 7E 7E 
04cb6     00 00 00 00 
04cba     C6 C6 EE EE 
04cbe     FE D6 D6 C6 | 	byte	$06, $06, $7e, $7e, $00, $00, $00, $00, $c6, $c6, $ee, $ee, $fe, $d6, $d6, $c6
04cc2     C6 C6 C6 C6 
04cc6     00 00 00 00 
04cca     66 66 66 6E 
04cce     6E 7E 7E 76 | 	byte	$c6, $c6, $c6, $c6, $00, $00, $00, $00, $66, $66, $66, $6e, $6e, $7e, $7e, $76
04cd2     76 66 66 66 
04cd6     00 00 00 00 
04cda     3C 7E 66 66 
04cde     66 66 66 66 | 	byte	$76, $66, $66, $66, $00, $00, $00, $00, $3c, $7e, $66, $66, $66, $66, $66, $66
04ce2     66 66 7E 3C 
04ce6     00 00 00 00 
04cea     3E 7E 66 66 
04cee     66 66 7E 3E | 	byte	$66, $66, $7e, $3c, $00, $00, $00, $00, $3e, $7e, $66, $66, $66, $66, $7e, $3e
04cf2     06 06 06 06 
04cf6     00 00 00 00 
04cfa     3C 7E 66 66 
04cfe     66 66 66 66 | 	byte	$06, $06, $06, $06, $00, $00, $00, $00, $3c, $7e, $66, $66, $66, $66, $66, $66
04d02     66 56 3E 6C 
04d06     00 00 00 00 
04d0a     3E 7E 66 66 
04d0e     66 7E 3E 36 | 	byte	$66, $56, $3e, $6c, $00, $00, $00, $00, $3e, $7e, $66, $66, $66, $7e, $3e, $36
04d12     66 66 C6 C6 
04d16     00 00 00 00 
04d1a     7C 7E 06 06 
04d1e     0E 1C 38 70 | 	byte	$66, $66, $c6, $c6, $00, $00, $00, $00, $7c, $7e, $06, $06, $0e, $1c, $38, $70
04d22     60 60 7E 3E 
04d26     00 00 00 00 
04d2a     7E 7E 18 18 
04d2e     18 18 18 18 | 	byte	$60, $60, $7e, $3e, $00, $00, $00, $00, $7e, $7e, $18, $18, $18, $18, $18, $18
04d32     18 18 18 18 
04d36     00 00 00 00 
04d3a     66 66 66 66 
04d3e     66 66 66 66 | 	byte	$18, $18, $18, $18, $00, $00, $00, $00, $66, $66, $66, $66, $66, $66, $66, $66
04d42     66 66 7E 3C 
04d46     00 00 00 00 
04d4a     66 66 66 66 
04d4e     66 66 66 66 | 	byte	$66, $66, $7e, $3c, $00, $00, $00, $00, $66, $66, $66, $66, $66, $66, $66, $66
04d52     3C 3C 18 18 
04d56     00 00 00 00 
04d5a     C6 C6 C6 C6 
04d5e     C6 D6 D6 FE | 	byte	$3c, $3c, $18, $18, $00, $00, $00, $00, $c6, $c6, $c6, $c6, $c6, $d6, $d6, $fe
04d62     FE EE C6 82 
04d66     00 00 00 00 
04d6a     66 66 66 3C 
04d6e     3C 18 18 3C | 	byte	$fe, $ee, $c6, $82, $00, $00, $00, $00, $66, $66, $66, $3c, $3c, $18, $18, $3c
04d72     3C 66 66 66 
04d76     00 00 00 00 
04d7a     66 66 66 66 
04d7e     66 3C 3C 18 | 	byte	$3c, $66, $66, $66, $00, $00, $00, $00, $66, $66, $66, $66, $66, $3c, $3c, $18
04d82     18 18 18 18 
04d86     00 00 00 00 
04d8a     7E 7E 30 30 
04d8e     18 18 0C 0C | 	byte	$18, $18, $18, $18, $00, $00, $00, $00, $7e, $7e, $30, $30, $18, $18, $0c, $0c
04d92     06 06 7E 7E 
04d96     00 00 00 00 
04d9a     3C 3C 0C 0C 
04d9e     0C 0C 0C 0C | 	byte	$06, $06, $7e, $7e, $00, $00, $00, $00, $3c, $3c, $0c, $0c, $0c, $0c, $0c, $0c
04da2     0C 0C 3C 3C 
04da6     00 00 00 00 
04daa     06 06 0C 0C 
04dae     18 18 30 30 | 	byte	$0c, $0c, $3c, $3c, $00, $00, $00, $00, $06, $06, $0c, $0c, $18, $18, $30, $30
04db2     60 60 C0 C0 
04db6     00 00 00 00 
04dba     3C 3C 30 30 
04dbe     30 30 30 30 | 	byte	$60, $60, $c0, $c0, $00, $00, $00, $00, $3c, $3c, $30, $30, $30, $30, $30, $30
04dc2     30 30 3C 3C 
04dc6     00 00 00 00 
04dca     18 18 3C 3C 
04dce     66 66 00 00 | 	byte	$30, $30, $3c, $3c, $00, $00, $00, $00, $18, $18, $3c, $3c, $66, $66, $00, $00
04dd2     00 00 00 00 
04dd6     00 00 00 00 
04dda     00 00 00 00 
04dde     00 00 00 00 
04de2     00 00       | 	byte	$00[18]
04de4     FE FE 00 00 
04de8     00 00 0C 0C 
04dec     18 18 00 00 
04df0     00 00 00 00 | 	byte	$fe, $fe, $00, $00, $00, $00, $0c, $0c, $18, $18, $00, $00, $00, $00, $00, $00
04df4     00 00 00 00 
04df8     00 00 00 00 
04dfc     00          | 	byte	$00[9]
04dfd     3C 7C 60 7C 
04e01     7E 66 66 7E 
04e05     7C 00 00 00 
04e09     00 06 06 06 | 	byte	$3c, $7c, $60, $7c, $7e, $66, $66, $7e, $7c, $00, $00, $00, $00, $06, $06, $06
04e0d     3E 7E 66 66 
04e11     66 66 66 7E 
04e15     3E 00 00 00 
04e19     00 00 00 00 | 	byte	$3e, $7e, $66, $66, $66, $66, $66, $7e, $3e, $00, $00, $00, $00, $00, $00, $00
04e1d     3C 3E 06 06 
04e21     06 06 06 7E 
04e25     7C 00 00 00 
04e29     00 60 60 60 | 	byte	$3c, $3e, $06, $06, $06, $06, $06, $7e, $7c, $00, $00, $00, $00, $60, $60, $60
04e2d     7C 7E 66 66 
04e31     66 66 66 7E 
04e35     7C 00 00 00 
04e39     00 00 00 00 | 	byte	$7c, $7e, $66, $66, $66, $66, $66, $7e, $7c, $00, $00, $00, $00, $00, $00, $00
04e3d     3C 7E 66 66 
04e41     7E 06 06 7E 
04e45     7C 00 00 00 
04e49     00 70 78 18 | 	byte	$3c, $7e, $66, $66, $7e, $06, $06, $7e, $7c, $00, $00, $00, $00, $70, $78, $18
04e4d     18 7E 7E 18 
04e51     18 18 18 18 
04e55     18 00 00 00 
04e59     00 00 00 00 | 	byte	$18, $7e, $7e, $18, $18, $18, $18, $18, $18, $00, $00, $00, $00, $00, $00, $00
04e5d     7C 7E 66 66 
04e61     66 66 7E 7C 
04e65     60 7E 3E 00 
04e69     00 06 06 06 | 	byte	$7c, $7e, $66, $66, $66, $66, $7e, $7c, $60, $7e, $3e, $00, $00, $06, $06, $06
04e6d     3E 7E 66 66 
04e71     66 66 66 66 
04e75     66 00 00 00 
04e79     00 18 18 00 | 	byte	$3e, $7e, $66, $66, $66, $66, $66, $66, $66, $00, $00, $00, $00, $18, $18, $00
04e7d     1C 1C 18 18 
04e81     18 18 18 3C 
04e85     3C 00 00 00 
04e89     00 30 30 00 | 	byte	$1c, $1c, $18, $18, $18, $18, $18, $3c, $3c, $00, $00, $00, $00, $30, $30, $00
04e8d     30 30 30 30 
04e91     30 30 30 30 
04e95     30          | 	byte	$30[9]
04e96     3E 1E 00 00 
04e9a     06 06 06 36 
04e9e     36 1E 1E 1E 
04ea2     36 36 66 66 | 	byte	$3e, $1e, $00, $00, $06, $06, $06, $36, $36, $1e, $1e, $1e, $36, $36, $66, $66
04ea6     00 00 00 00 
04eaa     1C 1C 18 18 
04eae     18 18 18 18 
04eb2     18 18 3C 3C | 	byte	$00, $00, $00, $00, $1c, $1c, $18, $18, $18, $18, $18, $18, $18, $18, $3c, $3c
04eb6     00 00 00 00 
04eba     00 00 00    | 	byte	$00[7]
04ebd     6C FE FE D6 
04ec1     D6 C6 C6 C6 
04ec5     C6 00 00 00 
04ec9     00 00 00 00 | 	byte	$6c, $fe, $fe, $d6, $d6, $c6, $c6, $c6, $c6, $00, $00, $00, $00, $00, $00, $00
04ecd     3E 7E 66 66 
04ed1     66 66 66 66 
04ed5     66 00 00 00 
04ed9     00 00 00 00 | 	byte	$3e, $7e, $66, $66, $66, $66, $66, $66, $66, $00, $00, $00, $00, $00, $00, $00
04edd     3C 7E 66 66 
04ee1     66 66 66 7E 
04ee5     3C 00 00 00 
04ee9     00 00 00 00 | 	byte	$3c, $7e, $66, $66, $66, $66, $66, $7e, $3c, $00, $00, $00, $00, $00, $00, $00
04eed     3E 7E 66 66 
04ef1     66 66 66 7E 
04ef5     3E 06 06 00 
04ef9     00 00 00 00 | 	byte	$3e, $7e, $66, $66, $66, $66, $66, $7e, $3e, $06, $06, $00, $00, $00, $00, $00
04efd     7C 7E 66 66 
04f01     66 66 66 7E 
04f05     7C 60 60 00 
04f09     00 00 00 00 | 	byte	$7c, $7e, $66, $66, $66, $66, $66, $7e, $7c, $60, $60, $00, $00, $00, $00, $00
04f0d     3E 7E 66 06 
04f11     06 06 06 06 
04f15     06 00 00 00 
04f19     00 00 00 00 | 	byte	$3e, $7e, $66, $06, $06, $06, $06, $06, $06, $00, $00, $00, $00, $00, $00, $00
04f1d     7C 7E 06 0E 
04f21     3C 70 60 7E 
04f25     3E 00 00 00 
04f29     00 00 18 18 | 	byte	$7c, $7e, $06, $0e, $3c, $70, $60, $7e, $3e, $00, $00, $00, $00, $00, $18, $18
04f2d     7E 7E 18 18 
04f31     18 18 18 78 
04f35     70 00 00 00 
04f39     00 00 00 00 | 	byte	$7e, $7e, $18, $18, $18, $18, $18, $78, $70, $00, $00, $00, $00, $00, $00, $00
04f3d     66 66 66 66 
04f41     66 66 66    | 	byte	$66[7]
04f44     7E 7C 00 00 
04f48     00 00 00 00 
04f4c     00 66 66 66 
04f50     66 66 3C 3C | 	byte	$7e, $7c, $00, $00, $00, $00, $00, $00, $00, $66, $66, $66, $66, $66, $3c, $3c
04f54     18 18 00 00 
04f58     00 00 00 00 
04f5c     00 C6 C6 D6 
04f60     D6 FE FE EE | 	byte	$18, $18, $00, $00, $00, $00, $00, $00, $00, $c6, $c6, $d6, $d6, $fe, $fe, $ee
04f64     C6 82 00 00 
04f68     00 00 00 00 
04f6c     00 66 66 3C 
04f70     3C 18 3C 3C | 	byte	$c6, $82, $00, $00, $00, $00, $00, $00, $00, $66, $66, $3c, $3c, $18, $3c, $3c
04f74     66 66 00 00 
04f78     00 00 00 00 
04f7c     00 66 66 66 
04f80     66 66 66 7E | 	byte	$66, $66, $00, $00, $00, $00, $00, $00, $00, $66, $66, $66, $66, $66, $66, $7e
04f84     7C 60 7E 3E 
04f88     00 00 00 00 
04f8c     00 7E 7E 30 
04f90     18 18 0C 0C | 	byte	$7c, $60, $7e, $3e, $00, $00, $00, $00, $00, $7e, $7e, $30, $18, $18, $0c, $0c
04f94     7E 7E 00 00 
04f98     00 00 30 18 
04f9c     18 18 18 0C 
04fa0     0C 18 18 18 | 	byte	$7e, $7e, $00, $00, $00, $00, $30, $18, $18, $18, $18, $0c, $0c, $18, $18, $18
04fa4     18 30 00 00 
04fa8     00 00 18 18 
04fac     18 18 18 18 
04fb0     18 18 18 18 | 	byte	$18, $30, $00, $00, $00, $00, $18, $18, $18, $18, $18, $18, $18, $18, $18, $18
04fb4     18 18 00 00 
04fb8     00 00 0C 18 
04fbc     18 18 18 30 
04fc0     30 18 18 18 | 	byte	$18, $18, $00, $00, $00, $00, $0c, $18, $18, $18, $18, $30, $30, $18, $18, $18
04fc4     18 0C 00 00 
04fc8     00 00 6C 7E 
04fcc     36 00 00 00 
04fd0     00 00 00 00 | 	byte	$18, $0c, $00, $00, $00, $00, $6c, $7e, $36, $00, $00, $00, $00, $00, $00, $00
04fd4     00 00 00 00 
04fd8     00 00 00 00 
04fdc     00          | 	byte	$00[9]
04fdd     18 18 18 18 
04fe1     18 18 00 00 
04fe5     00 00 00    | 	byte	$18, $18, $18, $18, $18, $18, $00, $00, $00, $00, $00
04fe8     00 00 00 00 
04fec     00 FF FF FF | twocolors      long  $00000000,$FFFFFF00
04ff0     00 00 00 00 
04ff4     00 80 80 80 
04ff8     00 00 00 FF 
04ffc     00 FF FF FF | fourcolors     long  $00000000,$80808000,$FF000000,$FFFFFF00 'black,red,gray,white
05000     00 00 00 00 
05004     00          | vga16          long  $00000000,$00008000,$00800000,$00808000,$80000000,$80008000,$80400000,$AAAAAA00,$55555500,$0000FF00,$00FF0000,$00FFFF00,$FF000000,$FF00FF00,$FFFF0000,$FFFFFF00
05005     80 00 00 00 
05009     00 80 00 00 
0500d     80 80 00 00 
05011     00 00 80 00 | 	byte	$80, $00, $00, $00, $00, $80, $00, $00, $80, $80, $00, $00, $00, $00, $80, $00
05015     80 00 80 00 
05019     00 40 80 00 
0501d     AA AA AA 00 
05021     55 55 55 00 | 	byte	$80, $00, $80, $00, $00, $40, $80, $00, $aa, $aa, $aa, $00, $55, $55, $55, $00
05025     FF 00 00 00 
05029     00 FF 00 00 
0502d     FF FF 00 00 
05031     00 00 FF 00 | 	byte	$ff, $00, $00, $00, $00, $ff, $00, $00, $ff, $ff, $00, $00, $00, $00, $ff, $00
05035     FF 00 FF 00 
05039     00 FF FF 00 
0503d     FF FF FF    | 	byte	$ff, $00, $ff, $00, $00, $ff, $ff, $00, $ff, $ff, $ff
05040     00 00 00 00 
05044     00          | ataripalette   file "ataripalettep2.def"
05045     11 11 11 00 
05049     22 22 22 00 
0504d     33 33 33 00 
05051     44 44 44 00 | 	byte	$11, $11, $11, $00, $22, $22, $22, $00, $33, $33, $33, $00, $44, $44, $44, $00
05055     55 55 55 00 
05059     66 66 66 00 
0505d     77 77 77 00 
05061     88 88 88 00 | 	byte	$55, $55, $55, $00, $66, $66, $66, $00, $77, $77, $77, $00, $88, $88, $88, $00
05065     99 99 99 00 
05069     AA AA AA 00 
0506d     BB BB BB 00 
05071     CC CC CC 00 | 	byte	$99, $99, $99, $00, $aa, $aa, $aa, $00, $bb, $bb, $bb, $00, $cc, $cc, $cc, $00
05075     DD DD DD 00 
05079     EE EE EE 00 
0507d     FF FF FF 00 
05081     00 0A 20 00 | 	byte	$dd, $dd, $dd, $00, $ee, $ee, $ee, $00, $ff, $ff, $ff, $00, $00, $0a, $20, $00
05085     00 14 40 00 
05089     00 1E 60 00 
0508d     00 28 80 00 
05091     00 32 9F 00 | 	byte	$00, $14, $40, $00, $00, $1e, $60, $00, $00, $28, $80, $00, $00, $32, $9f, $00
05095     00 3C BF 00 
05099     00 46 DF 00 
0509d     00 50 FF 00 
050a1     1C 63 FF 00 | 	byte	$00, $3c, $bf, $00, $00, $46, $df, $00, $00, $50, $ff, $00, $1c, $63, $ff, $00
050a5     39 77 FF 00 
050a9     55 8A FF 00 
050ad     71 9E FF 00 
050b1     8E B1 FF 00 | 	byte	$39, $77, $ff, $00, $55, $8a, $ff, $00, $71, $9e, $ff, $00, $8e, $b1, $ff, $00
050b5     AA C5 FF 00 
050b9     C6 D8 FF 00 
050bd     E3 EC FF 00 
050c1     00 00 20 00 | 	byte	$aa, $c5, $ff, $00, $c6, $d8, $ff, $00, $e3, $ec, $ff, $00, $00, $00, $20, $00
050c5     00 00 40 00 
050c9     00 00 60 00 
050cd     00 00 80 00 
050d1     00 00 9F 00 | 	byte	$00, $00, $40, $00, $00, $00, $60, $00, $00, $00, $80, $00, $00, $00, $9f, $00
050d5     00 00 BF 00 
050d9     00 00 DF 00 
050dd     00 00 FF 00 
050e1     1C 1C FF 00 | 	byte	$00, $00, $bf, $00, $00, $00, $df, $00, $00, $00, $ff, $00, $1c, $1c, $ff, $00
050e5     39 39 FF 00 
050e9     55 55 FF 00 
050ed     71 71 FF 00 
050f1     8E 8E FF 00 | 	byte	$39, $39, $ff, $00, $55, $55, $ff, $00, $71, $71, $ff, $00, $8e, $8e, $ff, $00
050f5     AA AA FF 00 
050f9     C6 C6 FF 00 
050fd     E3 E3 FF 00 
05101     10 00 20 00 | 	byte	$aa, $aa, $ff, $00, $c6, $c6, $ff, $00, $e3, $e3, $ff, $00, $10, $00, $20, $00
05105     20 00 40 00 
05109     30 00 60 00 
0510d     40 00 80 00 
05111     50 00 9F 00 | 	byte	$20, $00, $40, $00, $30, $00, $60, $00, $40, $00, $80, $00, $50, $00, $9f, $00
05115     60 00 BF 00 
05119     70 00 DF 00 
0511d     80 00 FF 00 
05121     8E 1C FF 00 | 	byte	$60, $00, $bf, $00, $70, $00, $df, $00, $80, $00, $ff, $00, $8e, $1c, $ff, $00
05125     9C 39 FF 00 
05129     AA 55 FF 00 
0512d     B8 71 FF 00 
05131     C7 8E FF 00 | 	byte	$9c, $39, $ff, $00, $aa, $55, $ff, $00, $b8, $71, $ff, $00, $c7, $8e, $ff, $00
05135     D5 AA FF 00 
05139     E3 C6 FF 00 
0513d     F1 E3 FF 00 
05141     20 00 20 00 | 	byte	$d5, $aa, $ff, $00, $e3, $c6, $ff, $00, $f1, $e3, $ff, $00, $20, $00, $20, $00
05145     40 00 40 00 
05149     60 00 60 00 
0514d     80 00 80 00 
05151     9F 00 9F 00 | 	byte	$40, $00, $40, $00, $60, $00, $60, $00, $80, $00, $80, $00, $9f, $00, $9f, $00
05155     BF 00 BF 00 
05159     DF 00 DF 00 
0515d     FF 00 FF 00 
05161     FF 1C FF 00 | 	byte	$bf, $00, $bf, $00, $df, $00, $df, $00, $ff, $00, $ff, $00, $ff, $1c, $ff, $00
05165     FF 39 FF 00 
05169     FF 55 FF 00 
0516d     FF 71 FF 00 
05171     FF 8E FF 00 | 	byte	$ff, $39, $ff, $00, $ff, $55, $ff, $00, $ff, $71, $ff, $00, $ff, $8e, $ff, $00
05175     FF AA FF 00 
05179     FF C6 FF 00 
0517d     FF E3 FF 00 
05181     20 00 10 00 | 	byte	$ff, $aa, $ff, $00, $ff, $c6, $ff, $00, $ff, $e3, $ff, $00, $20, $00, $10, $00
05185     40 00 20 00 
05189     60 00 30 00 
0518d     80 00 40 00 
05191     9F 00 50 00 | 	byte	$40, $00, $20, $00, $60, $00, $30, $00, $80, $00, $40, $00, $9f, $00, $50, $00
05195     BF 00 60 00 
05199     DF 00 70 00 
0519d     FF 00 80 00 
051a1     FF 1C 8E 00 | 	byte	$bf, $00, $60, $00, $df, $00, $70, $00, $ff, $00, $80, $00, $ff, $1c, $8e, $00
051a5     FF 39 9C 00 
051a9     FF 55 AA 00 
051ad     FF 71 B8 00 
051b1     FF 8E C7 00 | 	byte	$ff, $39, $9c, $00, $ff, $55, $aa, $00, $ff, $71, $b8, $00, $ff, $8e, $c7, $00
051b5     FF AA D5 00 
051b9     FF C6 E3 00 
051bd     FF E3 F1 00 
051c1     20 00 00 00 | 	byte	$ff, $aa, $d5, $00, $ff, $c6, $e3, $00, $ff, $e3, $f1, $00, $20, $00, $00, $00
051c5     40 00 00 00 
051c9     60 00 00 00 
051cd     80 00 00 00 
051d1     9F 00 00 00 | 	byte	$40, $00, $00, $00, $60, $00, $00, $00, $80, $00, $00, $00, $9f, $00, $00, $00
051d5     BF 00 00 00 
051d9     DF 00 00 00 
051dd     FF 00 00 00 
051e1     FF 1C 1C 00 | 	byte	$bf, $00, $00, $00, $df, $00, $00, $00, $ff, $00, $00, $00, $ff, $1c, $1c, $00
051e5     FF 39 39 00 
051e9     FF 55 55 00 
051ed     FF 71 71 00 
051f1     FF 8E 8E 00 | 	byte	$ff, $39, $39, $00, $ff, $55, $55, $00, $ff, $71, $71, $00, $ff, $8e, $8e, $00
051f5     FF AA AA 00 
051f9     FF C6 C6 00 
051fd     FF E3 E3 00 
05201     20 08 00 00 | 	byte	$ff, $aa, $aa, $00, $ff, $c6, $c6, $00, $ff, $e3, $e3, $00, $20, $08, $00, $00
05205     40 10 00 00 
05209     60 18 00 00 
0520d     80 20 00 00 
05211     9F 28 00 00 | 	byte	$40, $10, $00, $00, $60, $18, $00, $00, $80, $20, $00, $00, $9f, $28, $00, $00
05215     BF 30 00 00 
05219     DF 38 00 00 
0521d     FF 40 00 00 
05221     FF 55 1C 00 | 	byte	$bf, $30, $00, $00, $df, $38, $00, $00, $ff, $40, $00, $00, $ff, $55, $1c, $00
05225     FF 6A 39 00 
05229     FF 80 55 00 
0522d     FF 95 71 00 
05231     FF AA 8E 00 | 	byte	$ff, $6a, $39, $00, $ff, $80, $55, $00, $ff, $95, $71, $00, $ff, $aa, $8e, $00
05235     FF BF AA 00 
05239     FF D5 C6 00 
0523d     FF EA E3 00 
05241     20 10 00 00 | 	byte	$ff, $bf, $aa, $00, $ff, $d5, $c6, $00, $ff, $ea, $e3, $00, $20, $10, $00, $00
05245     40 20 00 00 
05249     60 30 00 00 
0524d     80 40 00 00 
05251     9F 50 00 00 | 	byte	$40, $20, $00, $00, $60, $30, $00, $00, $80, $40, $00, $00, $9f, $50, $00, $00
05255     BF 60 00 00 
05259     DF 70 00 00 
0525d     FF 80 00 00 
05261     FF 8E 1C 00 | 	byte	$bf, $60, $00, $00, $df, $70, $00, $00, $ff, $80, $00, $00, $ff, $8e, $1c, $00
05265     FF 9C 39 00 
05269     FF AA 55 00 
0526d     FF B8 71 00 
05271     FF C7 8E 00 | 	byte	$ff, $9c, $39, $00, $ff, $aa, $55, $00, $ff, $b8, $71, $00, $ff, $c7, $8e, $00
05275     FF D5 AA 00 
05279     FF E3 C6 00 
0527d     FF F1 E3 00 
05281     20 18 00 00 | 	byte	$ff, $d5, $aa, $00, $ff, $e3, $c6, $00, $ff, $f1, $e3, $00, $20, $18, $00, $00
05285     40 30 00 00 
05289     60 48 00 00 
0528d     80 60 00 00 
05291     9F 78 00 00 | 	byte	$40, $30, $00, $00, $60, $48, $00, $00, $80, $60, $00, $00, $9f, $78, $00, $00
05295     BF 90 00 00 
05299     DF A8 00 00 
0529d     FF C0 00 00 
052a1     FF C7 1C 00 | 	byte	$bf, $90, $00, $00, $df, $a8, $00, $00, $ff, $c0, $00, $00, $ff, $c7, $1c, $00
052a5     FF CE 39 00 
052a9     FF D5 55 00 
052ad     FF DC 71 00 
052b1     FF E3 8E 00 | 	byte	$ff, $ce, $39, $00, $ff, $d5, $55, $00, $ff, $dc, $71, $00, $ff, $e3, $8e, $00
052b5     FF EA AA 00 
052b9     FF F1 C6 00 
052bd     FF F8 E3 00 
052c1     18 20 00 00 | 	byte	$ff, $ea, $aa, $00, $ff, $f1, $c6, $00, $ff, $f8, $e3, $00, $18, $20, $00, $00
052c5     30 40 00 00 
052c9     48 60 00 00 
052cd     60 80 00 00 
052d1     78 9F 00 00 | 	byte	$30, $40, $00, $00, $48, $60, $00, $00, $60, $80, $00, $00, $78, $9f, $00, $00
052d5     90 BF 00 00 
052d9     A8 DF 00 00 
052dd     C0 FF 00 00 
052e1     C7 FF 1C 00 | 	byte	$90, $bf, $00, $00, $a8, $df, $00, $00, $c0, $ff, $00, $00, $c7, $ff, $1c, $00
052e5     CE FF 39 00 
052e9     D5 FF 55 00 
052ed     DC FF 71 00 
052f1     E3 FF 8E 00 | 	byte	$ce, $ff, $39, $00, $d5, $ff, $55, $00, $dc, $ff, $71, $00, $e3, $ff, $8e, $00
052f5     EA FF AA 00 
052f9     F1 FF C6 00 
052fd     F8 FF E3 00 
05301     00 20 00 00 | 	byte	$ea, $ff, $aa, $00, $f1, $ff, $c6, $00, $f8, $ff, $e3, $00, $00, $20, $00, $00
05305     00 40 00 00 
05309     00 60 00 00 
0530d     00 80 00 00 
05311     00 9F 00 00 | 	byte	$00, $40, $00, $00, $00, $60, $00, $00, $00, $80, $00, $00, $00, $9f, $00, $00
05315     00 BF 00 00 
05319     00 DF 00 00 
0531d     00 FF 00 00 
05321     1C FF 1C 00 | 	byte	$00, $bf, $00, $00, $00, $df, $00, $00, $00, $ff, $00, $00, $1c, $ff, $1c, $00
05325     39 FF 39 00 
05329     55 FF 55 00 
0532d     71 FF 71 00 
05331     8E FF 8E 00 | 	byte	$39, $ff, $39, $00, $55, $ff, $55, $00, $71, $ff, $71, $00, $8e, $ff, $8e, $00
05335     AA FF AA 00 
05339     C6 FF C6 00 
0533d     E3 FF E3 00 
05341     00 20 0A 00 | 	byte	$aa, $ff, $aa, $00, $c6, $ff, $c6, $00, $e3, $ff, $e3, $00, $00, $20, $0a, $00
05345     00 40 14 00 
05349     00 60 1E 00 
0534d     00 80 28 00 
05351     00 9F 32 00 | 	byte	$00, $40, $14, $00, $00, $60, $1e, $00, $00, $80, $28, $00, $00, $9f, $32, $00
05355     00 BF 3C 00 
05359     00 DF 46 00 
0535d     00 FF 50 00 
05361     1C FF 63 00 | 	byte	$00, $bf, $3c, $00, $00, $df, $46, $00, $00, $ff, $50, $00, $1c, $ff, $63, $00
05365     39 FF 77 00 
05369     55 FF 8A 00 
0536d     71 FF 9E 00 
05371     8E FF B1 00 | 	byte	$39, $ff, $77, $00, $55, $ff, $8a, $00, $71, $ff, $9e, $00, $8e, $ff, $b1, $00
05375     AA FF C5 00 
05379     C6 FF D8 00 
0537d     E3 FF EC 00 
05381     00 20 14 00 | 	byte	$aa, $ff, $c5, $00, $c6, $ff, $d8, $00, $e3, $ff, $ec, $00, $00, $20, $14, $00
05385     00 40 28 00 
05389     00 60 3C 00 
0538d     00 80 50 00 
05391     00 9F 64 00 | 	byte	$00, $40, $28, $00, $00, $60, $3c, $00, $00, $80, $50, $00, $00, $9f, $64, $00
05395     00 BF 78 00 
05399     00 DF 8C 00 
0539d     00 FF A0 00 
053a1     1C FF AB 00 | 	byte	$00, $bf, $78, $00, $00, $df, $8c, $00, $00, $ff, $a0, $00, $1c, $ff, $ab, $00
053a5     39 FF B5 00 
053a9     55 FF C0 00 
053ad     71 FF CA 00 
053b1     8E FF D5 00 | 	byte	$39, $ff, $b5, $00, $55, $ff, $c0, $00, $71, $ff, $ca, $00, $8e, $ff, $d5, $00
053b5     AA FF DF 00 
053b9     C6 FF EA 00 
053bd     E3 FF F4 00 
053c1     00 20 20 00 | 	byte	$aa, $ff, $df, $00, $c6, $ff, $ea, $00, $e3, $ff, $f4, $00, $00, $20, $20, $00
053c5     00 40 40 00 
053c9     00 60 60 00 
053cd     00 80 80 00 
053d1     00 9F 9F 00 | 	byte	$00, $40, $40, $00, $00, $60, $60, $00, $00, $80, $80, $00, $00, $9f, $9f, $00
053d5     00 BF BF 00 
053d9     00 DF DF 00 
053dd     00 FF FF 00 
053e1     1C FF FF 00 | 	byte	$00, $bf, $bf, $00, $00, $df, $df, $00, $00, $ff, $ff, $00, $1c, $ff, $ff, $00
053e5     39 FF FF 00 
053e9     55 FF FF 00 
053ed     71 FF FF 00 
053f1     8E FF FF 00 | 	byte	$39, $ff, $ff, $00, $55, $ff, $ff, $00, $71, $ff, $ff, $00, $8e, $ff, $ff, $00
053f5     AA FF FF 00 
053f9     C6 FF FF 00 
053fd     E3 FF FF 00 
05401     00 14 20 00 | 	byte	$aa, $ff, $ff, $00, $c6, $ff, $ff, $00, $e3, $ff, $ff, $00, $00, $14, $20, $00
05405     00 28 40 00 
05409     00 3C 60 00 
0540d     00 50 80 00 
05411     00 64 9F 00 | 	byte	$00, $28, $40, $00, $00, $3c, $60, $00, $00, $50, $80, $00, $00, $64, $9f, $00
05415     00 78 BF 00 
05419     00 8C DF 00 
0541d     00 A0 FF 00 
05421     1C AB FF 00 | 	byte	$00, $78, $bf, $00, $00, $8c, $df, $00, $00, $a0, $ff, $00, $1c, $ab, $ff, $00
05425     39 B5 FF 00 
05429     55 C0 FF 00 
0542d     71 CA FF 00 
05431     8E D5 FF 00 | 	byte	$39, $b5, $ff, $00, $55, $c0, $ff, $00, $71, $ca, $ff, $00, $8e, $d5, $ff, $00
05435     AA DF FF 00 
05439     C6 EA FF 00 
0543d     E3 F4 FF    | 	byte	$aa, $df, $ff, $00, $c6, $ea, $ff, $00, $e3, $f4, $ff
05440                 | '**********************************************************************************
05440                 | '
05440                 | '        Timings and colors definitions
05440                 | '
05440                 | '**********************************************************************************
05440                 | 
05440                 |    'streamer sets for text mode, to add to timings[0..5]
05440                 | 
05440                 | 
05440                 | '                     bf.hs, hs,  bf.vis  visible, lr bord, pixel, ud bord,  up p., vsync, down p., mode, cpl, scanlines,  clock,                  hubset                  total vis lines
05440     10 00 00 00 
05444     50 00 00 00 
05448     14 00 00 00 
0544c     00 04 00 00 | timings000      long   16,   80,    20,    1024,    112,     8,     48,      16,      16,    16,      0,  100,   480,     354693878,   %1_110000__11_0110_1100__1111_1011,   576
05450     70 00 00 00 
05454     08 00 00 00 
05458     30 00 00 00 
0545c     10 00 00 00 | 	byte	$70, $00, $00, $00, $08, $00, $00, $00, $30, $00, $00, $00, $10, $00, $00, $00
05460     10 00 00 00 
05464     10 00 00 00 
05468     00 00 00 00 
0546c     64 00 00 00 | 	byte	$10, $00, $00, $00, $10, $00, $00, $00, $00, $00, $00, $00, $64, $00, $00, $00
05470     E0 01 00 00 
05474     F6 32 24 15 
05478     FB 6C C3 01 
0547c     40 02 00 00 | 	byte	$e0, $01, $00, $00, $f6, $32, $24, $15, $fb, $6c, $c3, $01, $40, $02, $00, $00
05480     12 00 00 00 
05484     30 00 00 00 
05488     10 00 00 00 
0548c     B0 03 00 00 | timings064      long   18,   48,    16,     944,     24,     8,     24,      24,      32,    24,     64,  112,   496,     319215686,   %1_110010__11_0010_1101__1111_1011,   544
05490     18 00 00 00 
05494     08 00 00 00 
05498     18 00 00 00 
0549c     18 00 00 00 | 	byte	$18, $00, $00, $00, $08, $00, $00, $00, $18, $00, $00, $00, $18, $00, $00, $00
054a0     20 00 00 00 
054a4     18 00 00 00 
054a8     40 00 00 00 
054ac     70 00 00 00 | 	byte	$20, $00, $00, $00, $18, $00, $00, $00, $40, $00, $00, $00, $70, $00, $00, $00
054b0     F0 01 00 00 
054b4     46 D8 06 13 
054b8     FB 2D CB 01 
054bc     20 02 00 00 | 	byte	$f0, $01, $00, $00, $46, $d8, $06, $13, $fb, $2d, $cb, $01, $20, $02, $00, $00
054c0     10 00 00 00 
054c4     40 00 00 00 
054c8     10 00 00 00 
054cc     30 03 00 00 | timings128      long   16,   64,    16,     816,      8,     8,     8,       32,      64,    32,    128,  100,   480,     283750000,   %1_111111__11_1000_1011__1111_1011,   496
054d0     08 00 00 00 
054d4     08 00 00 00 
054d8     08 00 00 00 
054dc     20 00 00 00 | 	byte	$08, $00, $00, $00, $08, $00, $00, $00, $08, $00, $00, $00, $20, $00, $00, $00
054e0     40 00 00 00 
054e4     20 00 00 00 
054e8     80 00 00 00 
054ec     64 00 00 00 | 	byte	$40, $00, $00, $00, $20, $00, $00, $00, $80, $00, $00, $00, $64, $00, $00, $00
054f0     E0 01 00 00 
054f4     70 AE E9 10 
054f8     FB 8B FF 01 
054fc     F0 01 00 00 | 	byte	$e0, $01, $00, $00, $70, $ae, $e9, $10, $fb, $8b, $ff, $01, $f0, $01, $00, $00
05500     10 00 00 00 
05504     50 00 00 00 
05508     14 00 00 00 
0550c     00 04 00 00 | timings192      long   16,   80,    20,    1024,      0,     8,     0,       16,      16,    16,    192,  128,   576,     354693878,   %1_110000__11_0110_1100__1111_1011,   576
05510     00 00 00 00 
05514     08 00 00 00 
05518     00 00 00 00 
0551c     10 00 00 00 | 	byte	$00, $00, $00, $00, $08, $00, $00, $00, $00, $00, $00, $00, $10, $00, $00, $00
05520     10 00 00 00 
05524     10 00 00 00 
05528     C0 00 00 00 
0552c     80 00 00 00 | 	byte	$10, $00, $00, $00, $10, $00, $00, $00, $c0, $00, $00, $00, $80, $00, $00, $00
05530     40 02 00 00 
05534     F6 32 24 15 
05538     FB 6C C3 01 
0553c     40 02 00 00 | 	byte	$40, $02, $00, $00, $f6, $32, $24, $15, $fb, $6c, $c3, $01, $40, $02, $00, $00
05540     50 00 00 00 
05544     A0 00 00 00 
05548     54 00 00 00 
0554c     30 03 00 00 | timings256      long   80,  160,    84,     816,      8,     8,     8,        8,      12,     8,    256,  100,   480,     357959184,   %1_110000__11_0110_0100__1111_1011,   496
05550     08 00 00 00 
05554     08 00 00 00 
05558     08 00 00 00 
0555c     08 00 00 00 | 	byte	$08, $00, $00, $00, $08, $00, $00, $00, $08, $00, $00, $00, $08, $00, $00, $00
05560     0C 00 00 00 
05564     08 00 00 00 
05568     00 01 00 00 
0556c     64 00 00 00 | 	byte	$0c, $00, $00, $00, $08, $00, $00, $00, $00, $01, $00, $00, $64, $00, $00, $00
05570     E0 01 00 00 
05574     10 06 56 15 
05578     FB 64 C3 01 
0557c     F0 01 00 00 | 	byte	$e0, $01, $00, $00, $10, $06, $56, $15, $fb, $64, $c3, $01, $f0, $01, $00, $00
05580     50 00 00 00 
05584     32 00 00 00 
05588     50 00 00 00 
0558c     30 03 00 00 | timings320      long   80,   50,    80,     816,      8,     8,     8,        8,      12,     8,    320,  100,   480,     322162162,   %1_100100__10_0101_0011__1111_1011,   496
05590     08 00 00 00 
05594     08 00 00 00 
05598     08 00 00 00 
0559c     08 00 00 00 | 	byte	$08, $00, $00, $00, $08, $00, $00, $00, $08, $00, $00, $00, $08, $00, $00, $00
055a0     0C 00 00 00 
055a4     08 00 00 00 
055a8     40 01 00 00 
055ac     64 00 00 00 | 	byte	$0c, $00, $00, $00, $08, $00, $00, $00, $40, $01, $00, $00, $64, $00, $00, $00
055b0     E0 01 00 00 
055b4     F2 CD 33 13 
055b8     FB 53 92 01 
055bc     F0 01 00 00 | 	byte	$e0, $01, $00, $00, $f2, $cd, $33, $13, $fb, $53, $92, $01, $f0, $01, $00, $00
055c0     18 00 00 00 
055c4     30 00 00 00 
055c8     18 00 00 00 
055cc     30 03 00 00 | timings384      long   24,   48,    24,     816,      8,     8,     8,        8,      12,     8,    384,  100,   480,     286363636,   %1_010101__01_0011_1010__1111_1011,   496
055d0     08 00 00 00 
055d4     08 00 00 00 
055d8     08 00 00 00 
055dc     08 00 00 00 | 	byte	$08, $00, $00, $00, $08, $00, $00, $00, $08, $00, $00, $00, $08, $00, $00, $00
055e0     0C 00 00 00 
055e4     08 00 00 00 
055e8     80 01 00 00 
055ec     64 00 00 00 | 	byte	$0c, $00, $00, $00, $08, $00, $00, $00, $80, $01, $00, $00, $64, $00, $00, $00
055f0     E0 01 00 00 
055f4     F4 8F 11 11 
055f8     FB 3A 55 01 
055fc     F0 01 00 00 | 	byte	$e0, $01, $00, $00, $f4, $8f, $11, $11, $fb, $3a, $55, $01, $f0, $01, $00, $00
05600     20 00 00 00 
05604     40 00 00 00 
05608     22 00 00 00 
0560c     80 03 00 00 | timings448      long   32,   64,    34,     896,      0,     8,     0,        8,      12,     8,    448,  112,   496,     322162162,   %1_100100__10_0101_0011__1111_1011,   496
05610     00 00 00 00 
05614     08 00 00 00 
05618     00 00 00 00 
0561c     08 00 00 00 | 	byte	$00, $00, $00, $00, $08, $00, $00, $00, $00, $00, $00, $00, $08, $00, $00, $00
05620     0C 00 00 00 
05624     08 00 00 00 
05628     C0 01 00 00 
0562c     70 00 00 00 | 	byte	$0c, $00, $00, $00, $08, $00, $00, $00, $c0, $01, $00, $00, $70, $00, $00, $00
05630     F0 01 00 00 
05634     F2 CD 33 13 
05638     FB 53 92 01 
0563c     F0 01 00 00 | 	byte	$f0, $01, $00, $00, $f2, $cd, $33, $13, $fb, $53, $92, $01, $f0, $01, $00, $00
05640     58 00 00 00 
05644     32 00 00 00 
05648     58 00 00 00 
0564c     20 03 00 00 | timings999      long   88,   50,    88,     800,      0,     8,     8,        12,     20,    12,    999,  100,   480,     322162162,   %1_100100__10_0101_0011__1111_1011,   480
05650     00 00 00 00 
05654     08 00 00 00 
05658     08 00 00 00 
0565c     0C 00 00 00 | 	byte	$00, $00, $00, $00, $08, $00, $00, $00, $08, $00, $00, $00, $0c, $00, $00, $00
05660     14 00 00 00 
05664     0C 00 00 00 
05668     E7 03 00 00 
0566c     64 00 00 00 | 	byte	$14, $00, $00, $00, $0c, $00, $00, $00, $e7, $03, $00, $00, $64, $00, $00, $00
05670     E0 01 00 00 
05674     F2 CD 33 13 
05678     FB 53 92 01 
0567c     E0 01 00 00 | 	byte	$e0, $01, $00, $00, $f2, $cd, $33, $13, $fb, $53, $92, $01, $e0, $01, $00, $00
05680                 |                                  
05680     00 75 C7 97 
05684     27 47 F6 0A 
05688     05 79 CB 9B 
0568c     2B 4B EA 0F | vgacolors       byte   0, 117, 199, 151, 39, 71, 246, 10, 5, 121, 203, 155, 43, 75, 234, 15
05690                 | 
05690     28 12 64 FD | hdmi            setq    #9
05694     00 E1 06 FB |                 rdlong  framebuf,  ptra                  'read pointers
05698                 | 
05698     00 28 6F FC |                 wrlong  #aend,#0                         'write driver length to hub#0: DEBUG/demo
0569c     3C 00 66 FD |                 setcmod #$100                            'enable HDMI mode
056a0     C0 FB 06 F6 |                 mov     ii,#448                          '7 << 6          
056a4     79 FB 02 F1 |                 add     ii,hbase
056a8     58 FA 62 FD |                 drvl    ii                                 '#7<<6 + hdmi_base      ' enable HDMI pins
056ac     7B 0B 80 FF 
056b0     7D 01 0B FC |                 wrpin   ##%10110_1111_0111_10_00000_0, ii  '#7<<6 + hdmi_base      ' a '123 ohm BITDAC for pins
056b4                 | 
056b4     66 66 86 FF 
056b8     1D 9A 65 FD |                 setxfrq ##$0CCCCCCC+1                   'set streamer freq to 1/10th clk
056bc                 | 
056bc                 | 
056bc                 | ''--------  frame rendering main loop  ---------------------------------------------------
056bc                 | 
056bc                 | p101
056bc     28 14 64 FD |                 setq    #10
056c0     00 E1 06 FB |                 rdlong  framebuf,  ptra
056c4     28 1E 64 FD |                 setq    #15
056c8     75 9D 02 FB |                 rdlong  m_bs,modeptr                     ' read timings
056cc     72 9B 02 FB |                 rdlong  border,borderptr
056d0                 | 
056d0     01 C6 06 F1 |                 add     frames,#1
056d4     77 F7 02 F6 |                 mov     dlptr2,dlptr
056d8                 | 
056d8     74 C9 02 FB |                 rdlong  cursorx, cursorptr               ' read cursor position
056dc     64 CB EA F8 |                 getbyte cursory, cursorx,#1              ' y position at byte #1
056e0     64 C5 F2 F8 |                 getbyte cursorsh,cursorx,#2              ' shape at byte #2
056e4     FF C8 06 F5 |                 and     cursorx,#255                     ' clear the cursor x varioble from y and shape
056e8                 |  '' up porch
056e8                 | 
056e8     49 FF 02 F6 |                 mov     hsync0,sync_000                  '
056ec     4A 01 03 F6 |                 mov     hsync1,sync_001
056f0     37 AA 46 FB |                 callpa  i_upporch ,#blank
056f4     73 01 68 FC |                 wrlong  #0,vblankptr
056f8                 |                 
056f8     1F EC 16 F4 |                 testb   paletteptr,#31 wc
056fc     29 FE 65 3D |          if_nc  setq2   #255
05700     76 01 00 3B |          if_nc  rdlong  $000, paletteptr                'read palette
05704                 | 
05704                 | '' cursor blinking
05704                 | 
05704     04 C6 0E F4 |                 testb   frames,#4 wz                     ' cursor blinks at framerate/16, todo: define
05708     81 C8 06 A6 |          if_z   mov     cursorx,#129                     ' to switch the cursor off, move it out of the screen
0570c                 | 
0570c                 | '' main screen
0570c                 | 
0570c     00 C0 06 F6 |                 mov linenum,#0
05710     00 1A 07 F6 |                 mov rcnt,#0
05714     00 1E 07 F6 |                 mov rcnt2a,#0
05718                 | 
05718                 | 
05718     00 1A 0F F2 | p301            cmp rcnt,#0 wz
0571c     18 00 90 AD |         if_z    jmp #p306
05720     01 1A 87 F1 |                 sub rcnt,#1
05724     91 F9 02 F6 |                 mov dl,rdl
05728     8E 1F 0B F7 |                incmod rcnt2a,rcnt2 wz
0572c     90 F9 02 A1 |    if_z        add dl,roffset  
05730     7C 23 03 F6 |                 mov rdl,dl
05734     04 00 90 FD |                 jmp #p307          
05738                 |           
05738                 |                 
05738     7B F9 02 FB | p306            rdlong  dl,dlptr2
0573c     7C FD 1A F6 | p307            mov     framebuf2,dl wcz                  'read a line start in the framebuffer from DL entry
05740     6A FC 7A FD |                 rczr    framebuf2 wcz                     'but only if not %11 at lowest bits which means special DL entry
05744     34 00 90 7D |    if_nz_or_nc  jmp     #p303                        
05748                 | 
05748                 | '' Special entry:
05748                 | '' - repeat                 %nnnn_nnnn_nnnn_qqqq_mmmm_mmmm_mmmm_0111    repeat the next dl line n times, after q lines add offset m
05748                 | '' - reload palette         %mmmm_mmmm_nnnn_nnnn_qqqq_qqqq_qqqq_1011    reload n palette entries from m color from palette_ptr+q
05748                 | '' - set border color       %rrrr_rrrr_gggg_gggg_bbbb_bbbb_0001_0011    set border to rgb
05748                 | '' - set border color       %0000_0000_0000_0000_pppp_pppp_0001_1011    set border color to palette entry #p
05748                 | '' todo: set horizontal scroll (if needed)
05748                 | 
05748     02 FC 66 F0 |                 shl framebuf2,#2
0574c     7E 25 43 F8 |                 getnib dlc,framebuf2,#0
05750     04 24 0F F2 |                 cmp dlc,#%100 wz
05754                 |   
05754                 |                 
05754     04 F6 06 F1 |                 add dlptr2,#4
05758     BC FF 9F 5D |                              if_nz  jmp #p301  '' now ignore unknown instruction 
0575c     7B 23 03 FB |                  rdlong rdl,dlptr2
05760     7E 1B 3B F9 |                  getword rcnt,framebuf2,#1 
05764     04 1A 47 F0 |                  shr rcnt,#4
05768                 |              
05768     7E 1D 63 F8 |                  getnib rcnt2,framebuf2,#4
0576c     7E 21 33 F9 |                  getword roffset,framebuf2,#0
05770                 |                 
05770     04 20 47 F0 |                  shr roffset,#4
05774     0C 20 67 F0 |                  shl roffset,#12
05778                 |   
05778     9C FF 9F FD |                  jmp #p301
0577c                 |                  
0577c                 |                  
0577c                 | p303           ' mov     framebuf2,dl                    ' read a line start in the framebuffer from DL entry
0577c     0C FC 46 F0 |                 shr     framebuf2,#12
05780     02 FC 66 F0 |                 shl     framebuf2,#2
05784                 | 
05784     7C 05 E3 F8 |                 getbyte t1,dl,#0
05788     00 04 0F F2 |                 cmp     t1,#0 wz
0578c     34 00 90 AD |     if_z        jmp     #borderline
05790                 | 
05790     00 F8 16 F4 |                  testb   dl,#0  wc     ' bit 0 set = text OR extended:TODO
05794     50 00 90 CD |           if_c   jmp     #textline
05798     50 02 90 3D |           if_nc  jmp     #graphline
0579c                 | '
0579c     01 C0 06 F1 | p302            add     linenum,#1
057a0     04 F6 06 F1 |                 add     dlptr2,#4
057a4     5D C1 0A F2 |                 cmp     linenum,i_totalvis  wz
057a8     6C FF 9F 5D |          if_nz  jmp     #p301
057ac                 | 
057ac     73 03 68 FC | p112            wrlong  #1,vblankptr
057b0     07 AE 46 FB |                 callpa  i_downporch ,#blank             'bottom blanks
057b4                 | 
057b4     4B FF 02 F6 |                 mov     hsync0,sync_222                 'vsync on
057b8     4C 01 03 F6 |                 mov     hsync1,sync_223
057bc     04 AC 46 FB |                 callpa  i_vsync,#blank                  'vertical sync blanks
057c0     F8 FE 9F FD |                 jmp     #p101
057c4                 | 
057c4                 | '' ---------------  END of frame rendering loop -------------------------------------------
057c4                 | 
057c4                 | 
057c4     14 00 B0 FD | borderline      call    #hsync                      ' make a border
057c8     4D A3 C2 FC |                 xcont   m_vi,border
057cc     CC FF 9F FD |                 jmp     #p302
057d0                 | 
057d0                 | 
057d0     08 00 B0 FD | blank           call    #hsync                          'blank lines
057d4     7F A3 C2 FC |                 xcont   m_vi,hsync0
057d8     FD ED 6F 0B |         _ret_   djnz    pa,#blank
057dc                 | 
057dc     7F 9D C2 FC | hsync           xcont   m_bs,hsync0                     'horizontal sync
057e0     80 9F B2 FC |                 xzero   m_sn,hsync1
057e4     7F A1 C2 0C |         _ret_   xcont   m_bv,hsync0
057e8                 | 
057e8                 | 
057e8                 | 
057e8                 | ''--%aaaa_aaaa_aaaa_aaaa_aazz_nnnn_llll_ll_01 - txt
057e8                 |   '' aaaa_aaaa_aaaa_aaaa_aazz_rrrr_rrrr_cc_10 - graph
057e8                 |   '' aaaa_aaaa_aaaa-aaaa_aarr_rrrr_rrrr_rr_11 - extended, next long to read
057e8                 | 
057e8                 | '' Display a text line DL[31..12]=addr, nibble #1=textline, zoom: todo
057e8                 | 
057e8     64 CF 02 F6 | textline        mov     cursorpos2,cursorx              ' we need another var for cursor as this code will repeat 16x for every char line
057ec                 | 
057ec     7C 03 53 F8 |                 getnib  fontline,dl,#2                 ' fontline is 0 to 15, a line in font def
057f0     7C 19 5B F8 |                 getnib  zoom, dl,#3
057f4     03 18 07 F5 |                 and             zoom, #3
057f8                 | 
057f8                 | 
057f8                 | 
057f8     7C BF 02 F6 |                 mov     linestart,dl                    ' linestart will be used for checking cursor y and compute line start addr in the buffer
057fc     02 BE 46 F0 |                 shr     linestart,#2                    ' scanline to char line
05800     3F BE 06 F5 |                 and     linestart,#63
05804     65 BF 0A F2 |                 cmp     linestart,cursory wz            ' if the cursor is not here
05808     81 CE 06 56 |           if_nz mov     cursorpos2,#129                 ' move it out of the screen
0580c                 | 
0580c     CC FF BF FD |                 call    #hsync                          ' now call hsync to gain some time between xconts
05810                 | 
05810                 |                        ' if fontline =0, get a border color
05810                 | 
05810     52 05 33 F9 | p102            getword t1,m_border,#0
05814     00 04 0F F2 |                 cmp     t1, #0 wz
05818     4D A5 C2 5C |           if_nz xcont   m_border,border                 ' display a left border if exists
0581c                 | 
0581c     62 03 1B F2 |                 cmp     fontline,cursorsh wcz           ' if the cursor have to be not displayed due to its shape
05820     81 CC 06 C6 |           if_c  mov     cursorpos,#129                  ' move it out of the screen
05824     67 CD 02 36 |          if_nc  mov     cursorpos,cursorpos2
05828     01 CC 06 F1 |                 add     cursorpos,#1                    ' we will substract #1 below so compensate this here
0582c     71 07 03 F6 |                 mov     t2,fontbuf                      ' font definition pointer
05830     81 07 03 F1 |                 add     t2,fontline                     ' add a current font line
05834     53 BD 02 F6 |                 mov m_lut2, m_lut1
05838     6B BD 02 F1 |                 add m_lut2, lutt1
0583c     59 11 03 F6 |                 mov cpl2,i_cpl
05840                 | 
05840     02 18 0F F2 |                cmp zoom,#2 wz
05844     E4 00 90 AD |           if_z jmp #p420
05848     01 18 0F F2 |                cmp zoom,#1 wz
0584c     64 00 90 AD |           if_z jmp #p410
05850     00 18 0F F2 |                 cmp zoom,#0 wz
05854     04 00 90 AD |           if_z jmp #p400
05858     50 01 90 FD |                jmp #p430
0585c                 | 
0585c                 |                    '
0585c                 |  ''---------------------------------------------------------------------------------------------------------
0585c     7E 13 03 FB |  p400                   rdlong  char,framebuf2          ' read a long char                          '1
05860     89 15 F3 F8 |                         getbyte backcolor,char,#2       ' byte #2 - background color                '2
05864     89 17 FB F8 |                         getbyte charcolor,char,#3       ' byte #3 - foreground color                '3
05868     89 13 E3 F8 |                         getbyte char,char, #0           ' word #0 - char code                       '4
0586c     04 FC 06 F1 |                         add     framebuf2,#4            ' point to the next long                    '5
05870     04 12 67 F0 |                         shl     char,#4                 ' 1 char=16 bytes in font def               '6
05874     83 13 03 F1 |                         add     char,t2                 ' add this to font/line pointer             '7
05878     89 05 C3 FA |                         rdbyte  t1,char                 ' and get 8 pixels prom there               '8
0587c     01 CC 8E F1 |                         sub     cursorpos,#1 wz         ' if there is a cursor                      '9
05880     FF 04 67 A5 |                   if_z  xor     t1, #$FF                ' reverse the colors                        '10
05884                 | 
05884     82 BD C2 FC |                         xcont m_lut2,t1
05888                 | 
05888     8A 0D A3 FA |                         rdlut   t5,backcolor            ' read a background color from palette      '13
0588c     61 0D 33 FC |                         wrlut   t5,lutaddr              ' and write it to LUT #0 or #32             '14
05890     01 C2 06 F1 |                         add     lutaddr,#1                                                          '15
05894     8B 0D A3 FA |                         rdlut   t5,charcolor            ' the same for the foreground               '16
05898     61 0D 33 FC |                         wrlut   t5,lutaddr                                                          '17
0589c     01 C2 86 F1 |                         sub     lutaddr,#1
058a0                 | 
058a0     10 BC E6 F4 |                         bitnot  m_lut2,#16                                                          '19
058a4     10 A6 E6 F4 |                         bitnot  m_lut1,#16                                                          '19
058a8     20 C2 66 F5 |                         xor     lutaddr,#32             ' use LUT #0-1 and 32-33                    '20
058ac                 | 
058ac     EB 11 6F FB |                         djnz   cpl2,#p400
058b0     28 01 90 FD |  p401                   jmp    #p103
058b4                 | 
058b4                 | ''------------------------------------------------------------------------------------------------------------
058b4                 | 
058b4     01 10 47 F0 |  p410                   shr cpl2,#1
058b8                 | 
058b8                 | ''---------------------------------------------------------------------------------------------------------
058b8     7E 13 03 FB |  p412                   rdlong  char,framebuf2          ' read a long char                          '1
058bc     89 15 F3 F8 |                         getbyte backcolor,char,#2       ' byte #2 - background color                '2
058c0     89 17 FB F8 |                         getbyte charcolor,char,#3       ' byte #3 - foreground color                '3
058c4     89 13 E3 F8 |                         getbyte char,char, #0           ' word #0 - char code                       '4
058c8     04 FC 06 F1 |                         add     framebuf2,#4            ' point to the next long                    '5
058cc     04 12 67 F0 |                         shl     char,#4                 ' 1 char=16 bytes in font def               '6
058d0     83 13 03 F1 |                         add     char,t2                 ' add this to font/line pointer             '7
058d4     89 05 C3 FA |                         rdbyte  t1,char                 ' and get 8 pixels prom there               '8
058d8     01 CC 8E F1 |                         sub     cursorpos,#1 wz         ' if there is a cursor                      '9
058dc     FF 04 67 A5 |                   if_z  xor     t1, #$FF                ' reverse the colors                        '10
058e0                 | 
058e0                 | 
058e0     82 09 4B F8 |                         getnib t3,t1,#1                   ' 4 pixels to t3                                              '1  - +
058e4     82 05 43 F8 |                         getnib t1,t1,#0                   ' 4 pixels to t1                                                      '2  - +
058e8     63 04 63 FD |                         mergew t1                         ' make 01010101 from 1111                                     '3  - +
058ec     03 04 07 FA |                         mul t1,#3
058f0     82 BD C2 FC |                         xcont m_lut2,t1
058f4     8A 0D A3 FA |                         rdlut   t5,backcolor            ' read a background color from palette      '13
058f8     61 0D 33 FC |                         wrlut   t5,lutaddr              ' and write it to LUT #0 or #32             '14
058fc     01 C2 06 F1 |                         add     lutaddr,#1                                                          '15
05900     8B 0D A3 FA |                         rdlut   t5,charcolor            ' the same for the foreground               '16
05904     61 0D 33 FC |                         wrlut   t5,lutaddr                                                          '17
05908     01 C2 86 F1 |                         sub     lutaddr,#1
0590c     63 08 63 FD |                         mergew t3
05910     03 08 07 FA |                         mul t3,#3
05914     84 BD C2 FC |                         xcont m_lut2,t3
05918                 | 
05918     10 BC E6 F4 |                         bitnot  m_lut2,#16                                                          '19
0591c     10 A6 E6 F4 |                         bitnot  m_lut1,#16                                                          '19
05920                 | 
05920     20 C2 66 F5 |                         xor     lutaddr,#32             ' use LUT #0-1 and 32-33                    '20
05924                 | 
05924     E4 11 6F FB |                         djnz   cpl2,#p412
05928     B0 00 90 FD |  p411                   jmp    #p103
0592c                 | 
0592c                 | ''------------------------------------------------------------------------------------------------------------
0592c                 | 
0592c     02 10 47 F0 |  p420                   shr cpl2,#2
05930                 | 
05930                 | ''---------------------------------------------------------------------------------------
05930     7E 13 03 FB |  p422                   rdlong  char,framebuf2          ' read a long char                          '1
05934     89 15 F3 F8 |                         getbyte backcolor,char,#2       ' byte #2 - background color                '2
05938     89 17 FB F8 |                         getbyte charcolor,char,#3       ' byte #3 - foreground color                '3
0593c     89 13 E3 F8 |                         getbyte char,char, #0           ' word #0 - char code                       '4
05940     04 FC 06 F1 |                         add     framebuf2,#4            ' point to the next long                    '5
05944     04 12 67 F0 |                         shl     char,#4                 ' 1 char=16 bytes in font def               '6
05948     83 13 03 F1 |                         add     char,t2                 ' add this to font/line pointer             '7
0594c     89 05 C3 FA |                         rdbyte  t1,char                 ' and get 8 pixels prom there               '8
05950     01 CC 8E F1 |                         sub     cursorpos,#1 wz         ' if there is a cursor                      '9
05954     FF 04 67 A5 |                   if_z  xor     t1, #$FF                ' reverse the colors                        '10
05958                 | 
05958     61 04 63 FD |                         mergeb t1
0595c     82 09 3B F9 |                         getword t3,t1,#1
05960     0F 04 07 FA |                         mul t1,#15
05964     82 BD C2 FC |                         xcont m_lut2,t1
05968                 | 
05968     8A 0D A3 FA |                         rdlut   t5,backcolor            ' read a background color from palette      '13
0596c     61 0D 33 FC |                         wrlut   t5,lutaddr              ' and write it to LUT #0 or #32             '14
05970     01 C2 06 F1 |                         add     lutaddr,#1                                                          '15
05974     8B 0D A3 FA |                         rdlut   t5,charcolor            ' the same for the foreground               '16
05978     61 0D 33 FC |                         wrlut   t5,lutaddr                                                          '17
0597c     01 C2 86 F1 |                         sub     lutaddr,#1
05980                 | 
05980     82 0B EB F8 |                         getbyte t4,t1,#1        '
05984     85 BD C2 FC |                         xcont m_lut2,t4                                                                                                           '
05988                 | 
05988     0F 08 07 FA |                         mul t3,#15
0598c     84 BD C2 FC |                         xcont m_lut2,t3
05990                 | 
05990     84 0D EB F8 |                         getbyte t5,t3,#1
05994     86 BD C2 FC |                         xcont m_lut2, t5
05998     10 BC E6 F4 |                         bitnot  m_lut2,#16                                                          '19
0599c     10 A6 E6 F4 |                         bitnot  m_lut1,#16                                                          '19
059a0                 | 
059a0     20 C2 66 F5 |                         xor     lutaddr,#32             ' use LUT #0-1 and 32-33                    '20
059a4                 | 
059a4     E2 11 6F FB |                         djnz   cpl2,#p422
059a8     30 00 90 FD |  p421                   jmp    #p103
059ac                 | 
059ac                 | '--------------------------------------------------------------------------------------------------------------
059ac                 | 
059ac     7E 13 03 FB |  p430                   rdlong  char,framebuf2          ' read a long char                          '1
059b0     89 15 F3 F8 |                         getbyte backcolor,char,#2       ' byte #2 - background color                '2
059b4     89 17 FB F8 |                         getbyte charcolor,char,#3       ' byte #3 - foreground color                '3
059b8                 | 
059b8     00 BC C6 FC |                         xcont m_lut2,#0
059bc                 | 
059bc     8A 0D A3 FA |                         rdlut   t5,backcolor            ' read a background color from palette      '13
059c0     61 0D 33 FC |                         wrlut   t5,lutaddr              ' and write it to LUT #0 or #32             '14
059c4     01 C2 06 F1 |                         add     lutaddr,#1                                                          '15
059c8     8B 0D A3 FA |                         rdlut   t5,charcolor            ' the same for the foreground               '16
059cc     61 0D 33 FC |                         wrlut   t5,lutaddr                                                          '17
059d0     01 C2 86 F1 |                         sub     lutaddr,#1
059d4                 | 
059d4     F5 11 6F FB |                         djnz   cpl2,#p430
059d8     00 00 90 FD |  p431                   jmp    #p103
059dc                 | 
059dc                 | ''------------------------------------------------------------------------------------------------------------
059dc                 | 
059dc                 | 
059dc                 | 
059dc     52 27 33 F9 | p103            getword  mb2,m_border,#0
059e0     00 26 0F F2 |                 cmp      mb2, #0 wz
059e4     4D A5 C2 5C |                 if_nz    xcont   m_border,border            'display a right border if exists
059e8                 | 
059e8     B0 FD 9F FD |                 jmp #p302
059ec                 | 
059ec                 | '' -------------------------------------- END of text line ---------------------------------
059ec                 | 
059ec                 |   '' aaaa_aaaa_aaaa_aaaa_aazz_rrrr_rrrr_cc_10 - graph - display a graphics line
059ec                 | 
059ec     EC FD BF FD | graphline       call    #hsync                          ' now call hsync to gain some time between xconts
059f0                 | 
059f0                 | 
059f0     52 27 33 F9 | p202            getword mb2,m_border,#0
059f4     00 26 0F F2 |                 cmp     mb2, #0 wz
059f8     4D A5 C2 5C |           if_nz xcont   m_border,border                 ' display a left border if exists
059fc                 | 
059fc                 | '----------------------------------------- display pixels
059fc                 | 
059fc     53 BD 02 F6 |                 mov     m_lut2,m_lut1                   ' m_lut1 loaded from hub timing block, pixel per long
05a00     59 11 03 F6 |                 mov     cpl2,i_cpl                      ' i_cpl in graphic modes is longs per line
05a04                 | 
05a04     7C 19 5B F8 |                 getnib  zoom, dl,#3
05a08     03 18 07 F5 |                 and             zoom, #3                        ' get a horizontal zoom for the line
05a0c                 | 
05a0c     7C BF 02 F6 |                 mov     colordepth,dl                   ' get a color depth, reuse linestart var f         '
05a10     0C BE 06 F5 |                 and     colordepth,#12
05a14                 | 
05a14     00 BE 0E F2 |                 cmp     colordepth,#%0000 wz            ' 1 bpp modes
05a18     6C BD 02 A1 |           if_z  add     m_lut2,lutg1
05a1c     68 00 90 AD |           if_z  jmp     #p240
05a20                 | 
05a20     04 BE 0E F2 |                 cmp     colordepth,#%0100 wz            ' 2 bpp modes
05a24     6D BD 02 A1 |           if_z  add     m_lut2,lutg2
05a28     9C 00 90 AD |           if_z  jmp     #p250
05a2c                 | 
05a2c     08 BE 0E F2 |                 cmp     colordepth,#%1000 wz            ' 4 bpp modes
05a30     6E BD 02 A1 |           if_z  add     m_lut2,lutg4
05a34     00 01 90 AD |           if_z  jmp     #p260
05a38                 | 
05a38     6F BD 02 F1 |                 add m_lut2,lutg8                        ' 8 bpp modes
05a3c                 | 
05a3c                 | '' --- 8 bit color modes
05a3c                 | 
05a3c     00 18 0F F2 |                 cmp zoom, #%00 wz   '256 colors, zoom x1
05a40     54 01 90 AD |                 if_z jmp #p251      'there is an universal loop for 1x zoom at p251, saves one long of skip pattern
05a44                 | 
05a44     01 18 0F F2 |                 cmp zoom, #%01 wz   '256 colors, zoom x2
05a48     2A 0E 07 A6 |                 if_z mov skippattern,#%101010
05a4c     10 00 90 AD |                 if_z jmp #p235
05a50                 |  '  
05a50     02 18 0F F2 |                 cmp zoom, #%10 wz   '256 colors, zoom x4
05a54     25 0E 07 A6 |                 if_z mov skippattern,#%100101
05a58                 |     
05a58                 |  
05a58     05 0E 07 56 |                 if_nz mov skippattern,#%000101
05a5c     01 10 47 50 |                 if_nz shr cpl2,#1         ' if 8x zoom, 2 xconts used in one loop, so divide loop count by 2
05a60                 |         
05a60                 | 
05a60                 |         
05a60     7E 13 03 FB | p235               rdlong  char,framebuf2
05a64     32 0E 63 FD |                    skipf skippattern
05a68     02 FC 06 F1 |                    add     framebuf2,#2             '0 1 1
05a6c     01 FC 06 F1 |                    add     framebuf2,#1             '1 0 0
05a70     50 12 FF F9 |                    movbyts char,#%01010000          '0 1 1
05a74     00 12 FF F9 |                    movbyts char,#%00000000          '1 0 0
05a78     89 BD C2 FC |                    xcont   m_lut2,char              '0 0 0
05a7c     89 BD C2 FC |                    xcont   m_lut2,char              '1 1 0
05a80     F7 11 6F FB |                    djnz    cpl2,#p235
05a84                 | 
05a84     20 01 90 FD |                jmp    #p203
05a88                 |                   
05a88                 | 
05a88                 | 
05a88                 | '' --- 1 bit color modes
05a88                 | 
05a88     00 18 0F F2 | p240          cmp zoom, #%00 wz     '2 colors, zoom x1
05a8c     08 01 90 AD |        if_z   jmp #p251              'there is an universal loop for 1x zoom at p251, saves one long of skip pattern
05a90                 | 
05a90     01 18 0F F2 |               cmp zoom, #%01 wz     '2 colors, zoom x2
05a94     13 0E 07 A6 |        if_z   mov skippattern,#%10011
05a98     08 0E 07 56 |        if_nz  mov skippattern,#%01000
05a9c                 | 
05a9c                 | 
05a9c     7E 13 E3 FA | p241               rdword  char,framebuf2
05aa0     44 12 FF F9 |                    movbyts char,#%01000100
05aa4     63 12 63 FD |                    mergew  char
05aa8     32 0E 63 FD |                    skipf skippattern
05aac     44 12 FF F9 |                    movbyts char,#%01000100         ' 1 0
05ab0     63 12 63 FD |                    mergew  char                    ' 1 0
05ab4     89 BD C2 FC |                    xcont   m_lut2,char             ' 0 0
05ab8     02 FC 06 F1 |                    add     framebuf2,#2                    ' 0 1
05abc     01 FC 06 F1 |                    add     framebuf2,#1                ' 1 0
05ac0     F6 11 6F FB |                    djnz   cpl2,#p241
05ac4                 | 
05ac4                 | 
05ac4     E0 00 90 FD |                jmp    #p203
05ac8                 | 
05ac8                 | '' --- 2 bit color modes
05ac8                 | 
05ac8     00 18 0F F2 | p250          cmp zoom, #%00 wz     '4 colors, zoom x1
05acc     C8 00 90 AD |        if_z   jmp #p251
05ad0                 | 
05ad0     01 18 0F F2 |               cmp zoom, #%01 wz     '4 colors, zoom x2
05ad4     30 00 90 AD |        if_z   jmp #p252
05ad8                 | 
05ad8                 | 
05ad8     7E 13 C3 FA | p254               rdbyte char,framebuf2
05adc     04 0C 07 F6 |                    mov  t5,#4
05ae0     02 12 67 F0 | p255               shl  char,#2
05ae4     89 05 53 F8 |                    getnib  t1,char,#2
05ae8     03 04 07 F5 |                    and     t1,#3
05aec     55 04 07 FA |                    mul     t1,#$55
05af0     82 07 03 F9 |                    rolbyte  t2,t1,#0
05af4     FA 0D 6F FB |                    djnz    t5,#p255
05af8     83 BD C2 FC |                    xcont   m_lut2,t2
05afc     01 FC 06 F1 |                    add     framebuf2,#1
05b00     F5 11 6F FB |                    djnz    cpl2,#p254
05b04     A0 00 90 FD |                    jmp     #p203
05b08                 | 
05b08     7E 13 E3 FA | p252               rdword char,framebuf2
05b0c     08 0C 07 F6 |                    mov  t5,#8
05b10     02 12 67 F0 | p253               shl  char,#2
05b14     89 05 63 F8 |                    getnib  t1,char,#4
05b18     03 04 07 F5 |                    and     t1,#3
05b1c     05 04 07 FA |                    mul     t1,#5
05b20     82 07 83 F8 |                    rolnib  t2,t1,#0
05b24     FA 0D 6F FB |                    djnz    t5,#p253
05b28     83 BD C2 FC |                    xcont   m_lut2,t2
05b2c     02 FC 06 F1 |                    add     framebuf2,#2
05b30     F5 11 6F FB |                    djnz    cpl2,#p252
05b34     70 00 90 FD |                    jmp     #p203
05b38                 | 
05b38                 | '' ------ 4 bit color modes
05b38                 | 
05b38     00 18 0F F2 | p260          cmp zoom, #%00 wz     '4 colors, zoom x1, the same loop as 2bpp
05b3c     58 00 90 AD |        if_z   jmp #p251
05b40                 | 
05b40     01 18 0F F2 |               cmp zoom, #%01 wz     '4 colors, zoom x2
05b44     2C 00 90 AD |        if_z   jmp #p262
05b48                 | 
05b48                 | 
05b48     7E 13 C3 FA | p263               rdbyte char,framebuf2
05b4c     02 0A DC FC |                            rep #5,#2
05b50     89 07 8B F8 |                              rolnib t2,char,#1
05b54     89 07 8B F8 |                                  rolnib t2,char,#1
05b58     89 07 8B F8 |                              rolnib t2,char,#1
05b5c     89 07 8B F8 |                                  rolnib t2,char,#1
05b60     04 12 67 F0 |                              shl char,#4
05b64     83 BD C2 FC |                    xcont   m_lut2,t2
05b68     01 FC 06 F1 |                    add     framebuf2,#1
05b6c     F6 11 6F FB |                    djnz    cpl2,#p263
05b70     34 00 90 FD |                    jmp     #p203
05b74                 | 
05b74     7E 13 E3 FA | p262               rdword  char,framebuf2
05b78     04 06 DC FC |                            rep #3,#4
05b7c     89 07 9B F8 |                              rolnib t2,char,#3
05b80     89 07 9B F8 |                                  rolnib t2,char,#3
05b84     04 12 67 F0 |                              shl char,#4
05b88     83 BD C2 FC |                    xcont   m_lut2,t2
05b8c     02 FC 06 F1 |                    add     framebuf2,#2
05b90     F8 11 6F FB |                    djnz    cpl2,#p262
05b94     10 00 90 FD |                    jmp     #p203
05b98                 | 
05b98                 | ''---------- all color modes without zoom
05b98                 | 
05b98     88 07 D8 FC | p251               rep  #3,cpl2
05b9c     7E 13 03 FB |                    rdlong  char,framebuf2
05ba0     04 FC 06 F1 |                    add     framebuf2,#4
05ba4     89 BD C2 FC |                    xcont   m_lut2,char
05ba8                 |           
05ba8                 |  ''-----------------------------------------------------------------------------------------
05ba8                 | p203           ' getword  mb2,m_border,#0
05ba8     00 26 0F F2 |                 cmp      mb2, #0 wz
05bac     4D A5 C2 5C |                 if_nz    xcont   m_border,border            'display a right border if exists
05bb0                 | 
05bb0     E8 FB 9F FD |                 jmp #p302
05bb4                 | 
05bb4                 | '' -------------------------------------- END of graph  line ---------------------------------
05bb4                 | 
05bb4                 | '' consts and vars
05bb4                 | 
05bb4     52 4D 35 D5 | sync_000        long    %1101010100_1101010100_1101010100_10    '
05bb8     AE 42 35 D5 | sync_001        long    %1101010100_1101010100_0010101011_10    '        hsync
05bbc     52 45 15 55 | sync_222        long    %0101010100_0101010100_0101010100_10    'vsync
05bc0     AE 4A 15 55 | sync_223        long    %0101010100_0101010100_1010101011_10    'vsync + hsync
05bc4                 | 
05bc4     00 2C 1A 00 | border          long    %00000000_00011010_00101100_00000000
05bc8                 | 
05bc8                 | '------ these longs will be set by setmode function
05bc8                 | 
05bc8     00 00 00 00 | m_bs            long    0        'blanks before sync
05bcc     00 00 00 00 | m_sn            long    0        'sync
05bd0     00 00 00 00 | m_bv            long    0        'blanks before visible
05bd4     00 00 00 00 | m_vi            long    0        'visible pixels #
05bd8     00 00 00 00 | m_border        long    0        'left/right borders
05bdc     00 00 00 00 | m_lut1          long    0        'characters
05be0     00 00 00 00 | i_vborder       long    0        'up/down borders
05be4     00 00 00 00 | i_upporch       long    0        'up porch lines
05be8     00 00 00 00 | i_vsync         long    0        'vsync lines
05bec     00 00 00 00 | i_downporch     long    0        'down porch lines
05bf0     00 00 00 00 | i_modenum       long    0        'mode #
05bf4     00 00 00 00 | i_cpl           long    0        'chars/longs per line
05bf8     00 00 00 00 | i_lines         long    0        'scanlines #
05bfc     00 00 00 00 | i_clock         long    0
05c00     00 00 00 00 | i_hubset        long    0
05c04     00 00 00 00 | i_totalvis      long    0
05c08                 | 
05c08                 | '-------------------------------------
05c08                 | 
05c08     00 00 00 00 | m_lut2          long    0
05c0c                 | 
05c0c                 | colordepth
05c0c     00 00 00 00 | linestart       long    0
05c10     00 00 00 00 | linenum         long    0
05c14     00 01 00 00 | lutaddr         long    256
05c18                 | 
05c18     0E 00 00 00 | cursorsh        long    14
05c1c     00 00 00 00 | frames          long    0
05c20     00 00 00 00 | cursorx         long    0
05c24     00 00 00 00 | cursory         long    0
05c28     00 00 00 00 | cursorpos       long    0
05c2c     00 00 00 00 | cursorpos2      long    0
05c30     00 00 00 00 | fontstart       long    0
05c34     00 00 00 00 | border2         long 0
05c38     00 00 81 70 | lutiv           long $70810000
05c3c     00 00 88 00 | lutt1           long $00880000
05c40     00 00 80 00 | lutg1           long $00800000
05c44     00 00 80 10 | lutg2           long $10800000
05c48     00 00 80 20 | lutg4           long $20800000
05c4c     00 00 80 30 | lutg8           long $30800000
05c50     00 00 00 00 | framebuf        long 0
05c54     00 00 00 00 | fontbuf         long 0
05c58     00 00 00 00 | borderptr       long 0
05c5c     00 00 00 00 | vblankptr       long 0
05c60     00 00 00 00 | cursorptr       long 0
05c64     00 00 00 00 | modeptr         long 0
05c68     00 00 00 00 | paletteptr      long 0
05c6c     00 00 00 00 | dlptr           long 0
05c70                 | fontnumptr      res     1
05c70                 | fontnumptr      res     1
05c70                 | hbase           res     1
05c70                 | hbase           res     1
05c70                 | borderptr2      res     1
05c70                 | borderptr2      res     1
05c70                 | dlptr2 res 1
05c70                 | dlptr2 res 1
05c70                 | dl              res 1
05c70                 | dl              res 1
05c70                 | ii              res     1
05c70                 | ii              res     1
05c70                 | framebuf2       res     1
05c70                 | framebuf2       res     1
05c70                 | hsync0          res     1
05c70                 | hsync0          res     1
05c70                 | hsync1          res     1
05c70                 | hsync1          res     1
05c70                 | fontline        res     1
05c70                 | fontline        res     1
05c70                 | t1              res     1
05c70                 | t1              res     1
05c70                 | t2              res     1
05c70                 | t2              res     1
05c70                 | t3 res 1
05c70                 | t3 res 1
05c70                 | t4 res 1
05c70                 | t4 res 1
05c70                 | t5 res 1
05c70                 | t5 res 1
05c70                 | skippattern res 1
05c70                 | skippattern res 1
05c70                 | cpl2 res 1
05c70                 | cpl2 res 1
05c70                 | char            res     1
05c70                 | char            res     1
05c70                 | backcolor       res     1
05c70                 | backcolor       res     1
05c70                 | charcolor       res     1
05c70                 | charcolor       res     1
05c70                 | zoom res 1
05c70                 | zoom res 1
05c70     00 00 00 00 | rcnt long 0 'dl repeat count
05c74     00 00 00 00 | rcnt2 long 0
05c78     00 00 00 00 | rcnt2a long 0
05c7c     00 00 00 00 | roffset long 0
05c80     00 00 00 00 | rdl long 0  'dl repeat line
05c84     00 00 00 00 | dlc long 0 'dl command
05c88     00 00 00 00 | mb2 long 0
05c8c     00 00 00 00 | aend             long 0
05c90                 |                 fit     496                     '
05c90                 | __system__dat_
05c90     00 00 00 00 
05c94     00 00 00 00 
05c98     03 00 00 00 
05c9c     00 00 00 00 | 	byte	$00, $00, $00, $00, $00, $00, $00, $00, $03, $00, $00, $00, $00, $00, $00, $00
05ca0                 | __heap_base
05ca0     00 00 00 00 
      ...             
06ca0     00 00 00 00 
06ca4     00 00 00 00 | 	long	0[1026]
06ca8                 | objmem
06ca8     00 00 00 00 | 	long	0[1]
06cac 0dd             | 	org	COG_BSS_START
06cac 0dd             | _var01
06cac 0dd             | 	res	1
06cac 0de             | _var02
06cac 0de             | 	res	1
06cac 0df             | _var03
06cac 0df             | 	res	1
06cac 0e0             | _var04
06cac 0e0             | 	res	1
06cac 0e1             | _var05
06cac 0e1             | 	res	1
06cac 0e2             | _var06
06cac 0e2             | 	res	1
06cac 0e3             | _var07
06cac 0e3             | 	res	1
06cac 0e4             | _var08
06cac 0e4             | 	res	1
06cac 0e5             | _var09
06cac 0e5             | 	res	1
06cac 0e6             | _var10
06cac 0e6             | 	res	1
06cac 0e7             | _var11
06cac 0e7             | 	res	1
06cac 0e8             | _var12
06cac 0e8             | 	res	1
06cac 0e9             | _var13
06cac 0e9             | 	res	1
06cac 0ea             | _var14
06cac 0ea             | 	res	1
06cac 0eb             | _var15
06cac 0eb             | 	res	1
06cac 0ec             | _var16
06cac 0ec             | 	res	1
06cac 0ed             | _var17
06cac 0ed             | 	res	1
06cac 0ee             | _var18
06cac 0ee             | 	res	1
06cac 0ef             | _var19
06cac 0ef             | 	res	1
06cac 0f0             | _var20
06cac 0f0             | 	res	1
06cac 0f1             | _var21
06cac 0f1             | 	res	1
06cac 0f2             | _var22
06cac 0f2             | 	res	1
06cac 0f3             | _var23
06cac 0f3             | 	res	1
06cac 0f4             | _var24
06cac 0f4             | 	res	1
06cac 0f5             | _var25
06cac 0f5             | 	res	1
06cac 0f6             | _var26
06cac 0f6             | 	res	1
06cac 0f7             | _var27
06cac 0f7             | 	res	1
06cac 0f8             | _var28
06cac 0f8             | 	res	1
06cac 0f9             | _var29
06cac 0f9             | 	res	1
06cac 0fa             | _var30
06cac 0fa             | 	res	1
06cac 0fb             | _var31
06cac 0fb             | 	res	1
06cac 0fc             | _var32
06cac 0fc             | 	res	1
06cac 0fd             | _var33
06cac 0fd             | 	res	1
06cac 0fe             | _var34
06cac 0fe             | 	res	1
06cac 0ff             | _var35
06cac 0ff             | 	res	1
06cac 100             | _var36
06cac 100             | 	res	1
06cac 101             | _var37
06cac 101             | 	res	1
06cac 102             | _var38
06cac 102             | 	res	1
06cac 103             | _var39
06cac 103             | 	res	1
06cac 104             | _var40
06cac 104             | 	res	1
06cac 105             | _var41
06cac 105             | 	res	1
06cac 106             | _var42
06cac 106             | 	res	1
06cac 107             | _var43
06cac 107             | 	res	1
06cac 108             | _var44
06cac 108             | 	res	1
06cac 109             | _var45
06cac 109             | 	res	1
06cac 10a             | _var46
06cac 10a             | 	res	1
06cac 10b             | _var47
06cac 10b             | 	res	1
06cac 10c             | arg01
06cac 10c             | 	res	1
06cac 10d             | arg02
06cac 10d             | 	res	1
06cac 10e             | arg03
06cac 10e             | 	res	1
06cac 10f             | arg04
06cac 10f             | 	res	1
06cac 110             | arg05
06cac 110             | 	res	1
06cac 111             | local01
06cac 111             | 	res	1
06cac 112             | local02
06cac 112             | 	res	1
06cac 113             | local03
06cac 113             | 	res	1
06cac 114             | local04
06cac 114             | 	res	1
06cac 115             | local05
06cac 115             | 	res	1
06cac 116             | local06
06cac 116             | 	res	1
06cac 117             | local07
06cac 117             | 	res	1
06cac 118             | local08
06cac 118             | 	res	1
06cac 119             | local09
06cac 119             | 	res	1
06cac 11a             | local10
06cac 11a             | 	res	1
06cac 11b             | local11
06cac 11b             | 	res	1
06cac 11c             | local12
06cac 11c             | 	res	1
06cac 11d             | local13
06cac 11d             | 	res	1
06cac 11e             | local14
06cac 11e             | 	res	1
06cac 11f             | local15
06cac 11f             | 	res	1
06cac 120             | local16
06cac 120             | 	res	1
06cac 121             | local17
06cac 121             | 	res	1
06cac 122             | local18
06cac 122             | 	res	1
06cac 123             | local19
06cac 123             | 	res	1
06cac 124             | local20
06cac 124             | 	res	1
06cac 125             | local21
06cac 125             | 	res	1
06cac 126             | local22
06cac 126             | 	res	1
06cac 127             | local23
06cac 127             | 	res	1
06cac 128             | local24
06cac 128             | 	res	1
06cac 129             | local25
06cac 129             | 	res	1
06cac 12a             | local26
06cac 12a             | 	res	1
06cac 12b             | local27
06cac 12b             | 	res	1
06cac 12c             | local28
06cac 12c             | 	res	1
06cac 12d             | local29
06cac 12d             | 	res	1
06cac 12e             | local30
06cac 12e             | 	res	1
06cac 12f             | local31
06cac 12f             | 	res	1
06cac 130             | local32
06cac 130             | 	res	1
06cac 131             | local33
06cac 131             | 	res	1
06cac 132             | local34
06cac 132             | 	res	1
06cac 133             | local35
06cac 133             | 	res	1
06cac 134             | local36
06cac 134             | 	res	1
06cac 135             | local37
06cac 135             | 	res	1
06cac 136             | local38
06cac 136             | 	res	1
06cac 137             | local39
06cac 137             | 	res	1
06cac 138             | local40
06cac 138             | 	res	1
06cac 139             | local41
06cac 139             | 	res	1
06cac 13a             | local42
06cac 13a             | 	res	1
06cac 13b             | local43
06cac 13b             | 	res	1
06cac 13c             | local44
06cac 13c             | 	res	1
06cac 13d             | local45
06cac 13d             | 	res	1
06cac 13e             | muldiva_
06cac 13e             | 	res	1
06cac 13f             | muldivb_
06cac 13f             | 	res	1
06cac 140             | 	fit	480
06cac 140             | 
