00000                 | 
00000                 | #line 1 "D:/programowanie/20210307-ultibo-propeller/ultibo-propeller/robuv001/hng025r2.p2asm"
00000                 | ' 
00000                 | ' 
00000                 | ' hdmi_base       = 48             'must be a multiple of 8
00000                 | con
00000                 | 	hdmi_base = 48
00000                 | ' _clkfreq        = 245_000_000    'start safe, hubset will do the rest. The clock will be changed to:
00000                 | 	_clkfreq = 245000000
00000                 | ' 
00000                 | ' ' 354_689_500   200x Atari 8-bit PAL,  50x Amiga PAL  - real settings: 49,869-> 354_693_878  - 1.0000123 - mode 0 and 192
00000                 | ' ' 357_954_500   200x Atari 8-bit NTSC, 50x Amiga NTSC - real settings: 49,877-> 357_959_184  - 1.0000131 - mode 256
00000                 | ' 
00000                 | ' ' 319_220_550   180x PAL  - real settings: 51,814-> 319_215_686 - 0.9999848 - mode 64
00000                 | ' ' 322_159_050   180x NTSC - real settings: 37,596-> 322_162_162 - 1.0000097 - mode 320 and 448
00000                 | ' 
00000                 | ' ' 283_751_600   160x PAL  - real settings: 64,908-> 283_750_000 - 0.9999944 - mode 128
00000                 | ' ' 286_363_600   160x NTSC - real settings: 22,315-> 286_363_636 - 1.0000001 - mode 384
00000                 | ' 
00000                 | ' ''--------- VGA DOS color definition constants
00000                 | ' 
00000                 | ' c_black         =    0
00000                 | 	c_black = 0
00000                 | ' c_blue          =  117
00000                 | 	c_blue = 117
00000                 | ' c_green         =  199
00000                 | 	c_green = 199
00000                 | ' c_cyan          =  149
00000                 | 	c_cyan = 149
00000                 | ' c_red           =   39
00000                 | 	c_red = 39
00000                 | ' c_magenta       =   71
00000                 | 	c_magenta = 71
00000                 | ' c_brown         =  246
00000                 | 	c_brown = 246
00000                 | ' c_lightgray     =   10
00000                 | 	c_lightgray = 10
00000                 | ' c_darkgray      =    5
00000                 | 	c_darkgray = 5
00000                 | ' c_lightblue     =  121
00000                 | 	c_lightblue = 121
00000                 | ' c_lightgreen    =  203
00000                 | 	c_lightgreen = 203
00000                 | ' c_lightcyan     =  155
00000                 | 	c_lightcyan = 155
00000                 | ' c_lightred      =   43
00000                 | 	c_lightred = 43
00000                 | ' c_lightmagenta  =   75
00000                 | 	c_lightmagenta = 75
00000                 | ' c_yellow        =  234
00000                 | 	c_yellow = 234
00000                 | ' c_white         =   15
00000                 | 	c_white = 15
00000                 | ' 
00000                 | ' timingsxxt      =  $70810000
00000                 | 	timingsxxt = 1887502336
00000                 | dat
00000 000 00 00 00 00 | 	nop
00004 001 01 EC 63 FD | 	cogid	pa
00008 002 02 00 00 FF 
0000c 003 04 EC E7 FC | 	coginit	pa,##$404
00010                 | 	orgh	$10
00010     00 00 00 00 | 	long	0	'reserved
00014     00 00 00 00 | 	long	0 ' clock frequency: will default to 245000000
00018     00 00 00 00 | 	long	0 ' clock mode: will default to $10c30fb
0001c     00 00 00 00 
      ...             
003f8     00 00 00 00 
003fc     00 00 00 00 | 	orgh	$400
00400     00 A2 05 06 |  _ret_	mov	result1, #0
00404 000             | 	org	0
00404 000             | entry
00404 000 00 F0 0F F2 | 	cmp	ptra, #0 wz
00408 001 0C 02 90 5D |  if_ne	jmp	#spininit
0040c 002 CF F0 03 F6 | 	mov	ptra, objptr
00410 003 E8 F0 07 F1 | 	add	ptra, #232
00414 004 14 EC 0F FB | 	rdlong	pa, #20 wz
00418 005 E8 01 90 5D |  if_ne	jmp	#skip_clock_set_
0041c 006 00 00 64 FD | 	hubset	#0
00420 007 18 86 80 FF 
00424 008 00 F0 65 FD | 	hubset	##17576184
00428 009 86 01 80 FF 
0042c 00a 1F 80 66 FD | 	waitx	##200000
00430 00b 18 86 00 FF 
00434 00c FB EC 07 F6 | 	mov	pa, ##17576187
00438 00d 00 EC 63 FD | 	hubset	pa
0043c 00e 18 EC 67 FC | 	wrlong	pa, #24
00440 00f 33 4D 87 FF 
00444 010 14 80 6E FC | 	wrlong	##245000000, #20
00448 011 B8 01 90 FD | 	jmp	#skip_clock_set_
0044c 012 00 00 00 00 
      ...             
005fc 07e 00 00 00 00 
00600 07f 00 00 00 00 | 	orgf	128
00604 080             | skip_clock_set_
00604 080 4C 07 A0 FD | 	call	#_dummy
00608 081             | cogexit
00608 081 38 01 80 FF 
0060c 082 1F 00 66 FD | 	waitx	##160000
00610 083 01 60 62 FD | 	cogid	arg01
00614 084 03 60 62 FD | 	cogstop	arg01
00618 085             | spininit
00618 085 00 9F 05 FB | 	rdlong	objptr, ptra
0061c 086 04 F0 07 F1 | 	add	ptra, #4
00620 087 00 A3 05 FB | 	rdlong	result1, ptra
00624 088 04 F0 07 F1 | 	add	ptra, #4
00628 089 00 61 06 FB | 	rdlong	arg01, ptra
0062c 08a 04 F0 07 F1 | 	add	ptra, #4
00630 08b 00 63 06 FB | 	rdlong	arg02, ptra
00634 08c 04 F0 07 F1 | 	add	ptra, #4
00638 08d 00 65 06 FB | 	rdlong	arg03, ptra
0063c 08e 04 F0 07 F1 | 	add	ptra, #4
00640 08f 00 67 06 FB | 	rdlong	arg04, ptra
00644 090 10 F0 87 F1 | 	sub	ptra, #16
00648 091 2D A2 61 FD | 	call	result1
0064c 092 B8 FF 9F FD | 	jmp	#cogexit
00650 093             | FCACHE_LOAD_
00650 093 2B 3E 61 FD |     pop	fcache_tmpb_
00654 094 F6 3F 01 F1 |     add	fcache_tmpb_, pa
00658 095 2A 3E 61 FD |     push	fcache_tmpb_
0065c 096 F6 3F 81 F1 |     sub	fcache_tmpb_, pa
00660 097 02 EC 47 F0 |     shr	pa, #2
00664 098 00 EC 8F F9 |     altd	pa
00668 099 9E 00 00 F6 |     mov	 0-0, ret_instr_
0066c 09a 01 EC 87 F1 |     sub	pa, #1
00670 09b 28 EC 63 FD |     setq	pa
00674 09c 9F 00 00 FB |     rdlong	$0, fcache_tmpb_
00678 09d 00 00 80 FD |     jmp	#\$0 ' jmp to cache
0067c 09e             | ret_instr_
0067c 09e 2D 00 64 FD |     ret
00680 09f             | fcache_tmpb_
00680 09f 00 00 00 00 |     long 0
00684 0a0             | COUNT_
00684 0a0 00 00 00 00 |     long 0
00688 0a1             | RETADDR_
00688 0a1 00 00 00 00 |     long 0
0068c 0a2             | fp
0068c 0a2 00 00 00 00 |     long 0
00690 0a3             | pushregs_
00690 0a3 2B EC 63 FD |     pop  pa
00694 0a4 2B 42 61 FD |     pop  RETADDR_
00698 0a5 04 40 95 FB |     tjz  COUNT_, #pushregs_done_
0069c 0a6 01 40 85 F1 |     sub  COUNT_, #1
006a0 0a7 28 40 61 FD |     setq COUNT_
006a4 0a8 00 6B 66 FC |     wrlong local01, ptra
006a8 0a9 01 40 05 F1 |     add  COUNT_, #1
006ac 0aa             | pushregs_done_
006ac 0aa 02 40 65 F0 |     shl  COUNT_, #2
006b0 0ab A0 F0 03 F1 |     add  ptra, COUNT_
006b4 0ac 02 40 45 F0 |     shr  COUNT_, #2
006b8 0ad 28 04 64 FD |     setq #2 ' push 3 registers starting at COUNT_
006bc 0ae 00 41 65 FC |     wrlong COUNT_, ptra
006c0 0af 0C F0 07 F1 |     add    ptra, #12
006c4 0b0 F8 45 01 F6 |     mov    fp, ptra
006c8 0b1 2C EC 63 FD |     jmp  pa
006cc 0b2             |  popregs_
006cc 0b2 2B EC 63 FD |     pop    pa
006d0 0b3 0C F0 87 F1 |     sub    ptra, #12
006d4 0b4 28 04 64 FD |     setq   #2
006d8 0b5 00 41 05 FB |     rdlong COUNT_, ptra
006dc 0b6 06 40 95 FB |     tjz    COUNT_, #popregs__ret
006e0 0b7 02 40 65 F0 |     shl    COUNT_, #2
006e4 0b8 A0 F0 83 F1 |     sub    ptra, COUNT_
006e8 0b9 02 40 45 F0 |     shr    COUNT_, #2
006ec 0ba 01 40 85 F1 |     sub    COUNT_, #1
006f0 0bb 28 40 61 FD |     setq   COUNT_
006f4 0bc 00 6B 06 FB |     rdlong local01, ptra
006f8 0bd             | popregs__ret
006f8 0bd 2A 42 61 FD |     push   RETADDR_
006fc 0be 2C EC 63 FD |     jmp    pa
00700 0bf             | 
00700 0bf             | unsdivide_
00700 0bf 28 00 64 FD |        setq    #0
00704 0c0 4E 9B 12 FD |        qdiv    muldiva_, muldivb_
00708 0c1 18 9C 62 FD |        getqx   muldivb_
0070c 0c2 19 9A 62 0D |  _ret_ getqy   muldiva_
00710 0c3             | 
00710 0c3             | divide_
00710 0c3 4D 9B 52 F6 |        abs     muldiva_,muldiva_     wc       'abs(x)
00714 0c4 03 9C 85 F5 |        muxc    itmp2_,#%11                    'store sign of x
00718 0c5 4E 9D 5A F6 |        abs     muldivb_,muldivb_     wcz      'abs(y)
0071c 0c6 02 9C 65 C5 |  if_c  xor     itmp2_,#%10                    'store sign of y
00720 0c7 2D 00 64 AD |  if_z  ret
00724 0c8 D8 FF BF FD |        call    #unsdivide_
00728 0c9 01 9C D5 F7 |        test    itmp2_,#1        wc       'restore sign, remainder
0072c 0ca 4D 9B 82 F6 |        negc    muldiva_,muldiva_ 
00730 0cb 02 9C D5 F7 |        test    itmp2_,#%10      wc       'restore sign, division result
00734 0cc 4E 9D 82 06 |  _ret_ negc    muldivb_,muldivb_
00738 0cd             | 
00738 0cd             | itmp1_
00738 0cd 00 00 00 00 | 	long	0
0073c 0ce             | itmp2_
0073c 0ce 00 00 00 00 | 	long	0
00740 0cf             | objptr
00740 0cf F0 48 00 00 | 	long	@objmem
00744 0d0             | ptr__dat__
00744 0d0 48 24 00 00 | 	long	@_dat_
00748 0d1             | result1
00748 0d1 00 00 00 00 | 	long	0
0074c 0d2             | COG_BSS_START
0074c 0d2             | 	fit	480
0074c                 | 	orgh
0074c                 | hubentry
0074c                 | 
0074c                 | ' 
0074c                 | ' 
0074c                 | ' ''--------- timings
0074c                 | ' ' 0  m_bs        - before sync,             16      80
0074c                 | ' ' 1  m_sn        - sync                     80     160
0074c                 | ' ' 2  m_bv        - before visible           20      84
0074c                 | ' ' 3  m_vi        - visible                1024     816
0074c                 | ' ' 4  m_border    - left and right borders  112       8
0074c                 | ' ' 5  m_lut1      - pixels per char           8       8
0074c                 | ' ' 6  i_vborder   - up and down border       48       8
0074c                 | ' ' 7  i_upporch   - up non visible           16       8
0074c                 | ' ' 8  i_vsync     - vsync                    16      12
0074c                 | ' ' 9  i_downporch - down non visible         16       8
0074c                 | ' '10  mode #
0074c                 | ' '11  cpl         - character per line
0074c                 | ' '12  scanlines #
0074c                 | ' '13  clock
0074c                 | ' '14  hubset value for clock settings
0074c                 | ' 
0074c                 | ' 
0074c                 | ' '*************************************************************************
0074c                 | ' '                                                                        *
0074c                 | ' '  A dummy start function if someone runs this driver alone              *
0074c                 | ' '                                                                        *
0074c                 | ' '*************************************************************************
0074c                 | ' 
0074c                 | ' pub dummy()|i,x,y,ntsc,bbb,ccc,zzx,zzy,amode,x1,x2,y1,y2,r
0074c                 | _dummy
0074c     18 40 05 F6 | 	mov	COUNT_, #24
00750     A3 00 A0 FD | 	call	#pushregs_
00754                 | ' '' this is not a main program.
00754                 | ' 
00754                 | ' start(4096,hdmi_base)
00754     0C 60 C6 F9 | 	decod	arg01, #12
00758     30 62 06 F6 | 	mov	arg02, #48
0075c     2C 9E 05 F1 | 	add	objptr, #44
00760     CF 6A 02 F6 | 	mov	local01, objptr
00764                 | ' 
00764                 | ' ' initialize pointers and variables
00764                 | ' 
00764                 | ' border_ptr:=@bordercolor
00764     24 9E 85 F1 | 	sub	objptr, #36
00768     CF 6A 62 FC | 	wrlong	local01, objptr
0076c     08 00 00 FF 
00770     00 A0 05 F1 | 	add	ptr__dat__, ##4096
00774                 | ' font_ptr:=@st_font
00774     04 9E 85 F1 | 	sub	objptr, #4
00778     CF A0 61 FC | 	wrlong	ptr__dat__, objptr
0077c                 | ' hdmibase:=base
0077c     20 9E 05 F1 | 	add	objptr, #32
00780     CF 60 68 FC | 	wrlong	#48, objptr
00784     24 9E 85 F1 | 	sub	objptr, #36
00788                 | ' 
00788                 | ' ' the mode has to be set here to enable computing the buffer length
00788                 | ' 
00788                 | ' setmode(mode)
00788     08 00 00 FF 
0078c     00 A0 85 F1 | 	sub	ptr__dat__, ##4096
00790     50 12 B0 FD | 	call	#_setmode
00794     40 9E 05 F1 | 	add	objptr, #64
00798     CF 6C 02 F6 | 	mov	local02, objptr
0079c                 | ' 
0079c                 | ' vblank_ptr:=@vblank
0079c     34 9E 85 F1 | 	sub	objptr, #52
007a0     CF 6C 62 FC | 	wrlong	local02, objptr
007a4     28 9E 05 F1 | 	add	objptr, #40
007a8     CF 6E 02 F6 | 	mov	local03, objptr
007ac                 | ' cursor_ptr:=@cursor_x
007ac     24 9E 85 F1 | 	sub	objptr, #36
007b0     CF 6E 62 FC | 	wrlong	local03, objptr
007b4     88 9E 05 F1 | 	add	objptr, #136
007b8     CF 70 02 F6 | 	mov	local04, objptr
007bc                 | ' 
007bc                 | ' fontnum_ptr:=@fontnum
007bc     78 9E 85 F1 | 	sub	objptr, #120
007c0     CF 70 62 FC | 	wrlong	local04, objptr
007c4                 | ' 
007c4                 | ' fontnum:=0  ' PC type font ' TODO: font# in buffer byte #1
007c4     78 9E 05 F1 | 	add	objptr, #120
007c8     CF 00 68 FC | 	wrlong	#0, objptr
007cc     1C 9E 05 F1 | 	add	objptr, #28
007d0     CF 60 02 F6 | 	mov	arg01, objptr
007d4     B4 9E 85 F1 | 	sub	objptr, #180
007d8     0F 00 00 FF 
007dc     98 A0 05 F1 | 	add	ptr__dat__, ##7832
007e0     D0 62 02 F6 | 	mov	arg02, ptr__dat__
007e4     0F 00 00 FF 
007e8     98 A0 85 F1 | 	sub	ptr__dat__, ##7832
007ec                 | ' bytemove(@colors,@vgacolors,16)
007ec     10 64 06 F6 | 	mov	arg03, #16
007f0     1C 1A B0 FD | 	call	#__system____builtin_memmove
007f4                 | ' 
007f4                 | ' ' initialize a cursor
007f4                 | ' 
007f4                 | ' cursor_x:=0
007f4     34 9E 05 F1 | 	add	objptr, #52
007f8     CF 00 48 FC | 	wrbyte	#0, objptr
007fc                 | ' cursor_y:=0
007fc     01 9E 05 F1 | 	add	objptr, #1
00800     CF 00 48 FC | 	wrbyte	#0, objptr
00804                 | ' cursor_sh:=14
00804     01 9E 05 F1 | 	add	objptr, #1
00808     CF 1C 48 FC | 	wrbyte	#14, objptr
0080c     36 9E 85 F1 | 	sub	objptr, #54
00810                 | ' 
00810                 | ' 
00810                 | ' ' start the cog
00810                 | ' 
00810                 | ' cog:=coginit(16,@hdmi, @buf_ptr)
00810     0F 00 00 FF 
00814     A8 A0 05 F1 | 	add	ptr__dat__, ##7848
00818     D0 62 02 F6 | 	mov	arg02, ptr__dat__
0081c     0F 00 00 FF 
00820     A8 A0 85 F1 | 	sub	ptr__dat__, ##7848
00824     CF 64 02 F6 | 	mov	arg03, objptr
00828     10 60 06 F6 | 	mov	arg01, #16
0082c     28 64 62 FD | 	setq	arg03
00830     31 61 F2 FC | 	coginit	arg01, arg02 wc
00834     01 60 66 C6 |  if_b	neg	arg01, #1
00838     30 A3 01 F6 | 	mov	result1, arg01
0083c     D1 72 02 F6 | 	mov	local05, result1
00840     28 9E 05 F1 | 	add	objptr, #40
00844     CF 72 62 FC | 	wrlong	local05, objptr
00848     28 9E 85 F1 | 	sub	objptr, #40
0084c                 | ' waitms(20)
0084c     14 60 06 F6 | 	mov	arg01, #20
00850     BC 1A B0 FD | 	call	#__system___waitms
00854                 | ' 
00854                 | ' ' clear the screen and set the colors to green on black
00854                 | ' 
00854                 | ' cls(c_green,c_black)
00854     C7 60 06 F6 | 	mov	arg01, #199
00858     00 62 06 F6 | 	mov	arg02, #0
0085c     08 10 B0 FD | 	call	#_cls
00860                 | ' setbordercolor(0,0,128)
00860     0F 64 C6 F9 | 	decod	arg03, #15
00864                 | ' 
00864                 | ' color:=r<<24+g<<16+b<<8
00864                 | ' bordercolor:=color
00864     2C 9E 05 F1 | 	add	objptr, #44
00868     40 00 80 FF 
0086c     CF 00 68 FC | 	wrlong	##32768, objptr
00870                 | ' setwritecolors(c_green,c_black)
00870                 | ' 
00870                 | ' 
00870                 | ' write_color:=ff
00870     0C 9E 05 F1 | 	add	objptr, #12
00874     CF 8E 69 FC | 	wrlong	#199, objptr
00878                 | ' write_background:=bb
00878     04 9E 05 F1 | 	add	objptr, #4
0087c     CF 00 68 FC | 	wrlong	#0, objptr
00880                 | ' 
00880                 | ' return cog
00880     14 9E 85 F1 | 	sub	objptr, #20
00884     CF A2 01 FB | 	rdlong	result1, objptr
00888     28 9E 85 F1 | 	sub	objptr, #40
0088c                 | ' 
0088c                 | ' cls(11,3)
0088c     0B 60 06 F6 | 	mov	arg01, #11
00890     03 62 06 F6 | 	mov	arg02, #3
00894     D0 0F B0 FD | 	call	#_cls
00898                 | ' setfontfamily(0)
00898                 | ' 
00898                 | ' font_family:=afontnum
00898     C8 9E 05 F1 | 	add	objptr, #200
0089c     CF 00 68 FC | 	wrlong	#0, objptr
008a0     C8 9E 85 F1 | 	sub	objptr, #200
008a4                 | ' waitvbl(100)
008a4     64 60 06 F6 | 	mov	arg01, #100
008a8     48 0F B0 FD | 	call	#_waitvbl
008ac                 | ' outtextxycg(0,0,inttostr(long[0]),11,3)
008ac     00 74 06 F6 | 	mov	local06, #0
008b0     00 76 06 F6 | 	mov	local07, #0
008b4     00 60 06 FB | 	rdlong	arg01, #0
008b8     18 10 B0 FD | 	call	#_inttostr
008bc     D1 64 02 F6 | 	mov	arg03, result1
008c0     3A 61 02 F6 | 	mov	arg01, local06
008c4     3B 63 02 F6 | 	mov	arg02, local07
008c8     0B 66 06 F6 | 	mov	arg04, #11
008cc     03 68 06 F6 | 	mov	arg05, #3
008d0     9C 0D B0 FD | 	call	#_outtextxycg
008d4                 | ' waitvbl(100)
008d4     64 60 06 F6 | 	mov	arg01, #100
008d8     18 0F B0 FD | 	call	#_waitvbl
008dc                 | ' 
008dc                 | ' repeat i from 1 to 200
008dc     01 78 06 F6 | 	mov	local08, #1
008e0                 | LR__0001
008e0                 | '   putpixel(i,i,14)
008e0     3C 61 02 F6 | 	mov	arg01, local08
008e4     3C 63 02 F6 | 	mov	arg02, local08
008e8     0E 64 06 F6 | 	mov	arg03, #14
008ec     20 0E B0 FD | 	call	#_putpixel
008f0     01 78 06 F1 | 	add	local08, #1
008f4     C9 78 5E F2 | 	cmps	local08, #201 wcz
008f8     E4 FF 9F CD |  if_b	jmp	#LR__0001
008fc                 | ' fcircle(200,200,100,14)
008fc     C8 60 06 F6 | 	mov	arg01, #200
00900     C8 62 06 F6 | 	mov	arg02, #200
00904     64 64 06 F6 | 	mov	arg03, #100
00908     0E 66 06 F6 | 	mov	arg04, #14
0090c     08 09 B0 FD | 	call	#_fcircle
00910                 | ' line(300,300,400,200,13)
00910     2C 61 06 F6 | 	mov	arg01, #300
00914     2C 63 06 F6 | 	mov	arg02, #300
00918     90 65 06 F6 | 	mov	arg03, #400
0091c     C8 66 06 F6 | 	mov	arg04, #200
00920     0D 68 06 F6 | 	mov	arg05, #13
00924     58 0B B0 FD | 	call	#_line
00928                 | ' waitvbl(100) 
00928     64 60 06 F6 | 	mov	arg01, #100
0092c     C4 0E B0 FD | 	call	#_waitvbl
00930                 | ' 
00930                 | ' repeat i from 0 to 479
00930     00 78 06 F6 | 	mov	local08, #0
00934                 | LR__0002
00934     3C 69 02 F6 | 	mov	arg05, local08
00938     0F 68 06 F5 | 	and	arg05, #15
0093c                 | '   ccc:=i&15
0093c                 | '   line(0,i,399,i,ccc)
0093c     00 60 06 F6 | 	mov	arg01, #0
00940     3C 63 02 F6 | 	mov	arg02, local08
00944     8F 65 06 F6 | 	mov	arg03, #399
00948     3C 67 02 F6 | 	mov	arg04, local08
0094c     30 0B B0 FD | 	call	#_line
00950     01 78 06 F1 | 	add	local08, #1
00954     E0 79 5E F2 | 	cmps	local08, #480 wcz
00958     D8 FF 9F CD |  if_b	jmp	#LR__0002
0095c                 | '   
0095c                 | ' 
0095c                 | ' 
0095c                 | ' repeat i from 0 to 1000
0095c     01 00 00 FF 
00960     E9 79 06 F6 | 	mov	local08, ##1001
00964                 | LR__0003
00964                 | ' 
00964                 | '   x1:=getrnd()+//800
00964     1B A2 61 FD | 	getrnd	result1
00968     D1 9A 02 F6 | 	mov	muldiva_, result1
0096c     01 00 00 FF 
00970     20 9D 06 F6 | 	mov	muldivb_, ##800
00974     BF 00 A0 FD | 	call	#unsdivide_
00978     4D 7B 02 F6 | 	mov	local09, muldiva_
0097c                 | '   y1:=getrnd()+//480
0097c     1B A2 61 FD | 	getrnd	result1
00980     D1 9A 02 F6 | 	mov	muldiva_, result1
00984     E0 9D 06 F6 | 	mov	muldivb_, #480
00988     BF 00 A0 FD | 	call	#unsdivide_
0098c     4D 7D 02 F6 | 	mov	local10, muldiva_
00990                 | '   r:=getrnd()+//100
00990     1B A2 61 FD | 	getrnd	result1
00994     D1 9A 02 F6 | 	mov	muldiva_, result1
00998     64 9C 06 F6 | 	mov	muldivb_, #100
0099c     BF 00 A0 FD | 	call	#unsdivide_
009a0                 | '   ccc:=getrnd()&15
009a0     1B A2 61 FD | 	getrnd	result1
009a4     D1 66 02 F6 | 	mov	arg04, result1
009a8     0F 66 06 F5 | 	and	arg04, #15
009ac                 | '   fcircle(x1,y1,r,ccc)   
009ac     3D 61 02 F6 | 	mov	arg01, local09
009b0     3E 63 02 F6 | 	mov	arg02, local10
009b4     4D 65 02 F6 | 	mov	arg03, muldiva_
009b8     5C 08 B0 FD | 	call	#_fcircle
009bc     E9 79 6E FB | 	djnz	local08, #LR__0003
009c0                 | ' 
009c0                 | ' repeat i from 0 to 10000
009c0     13 00 00 FF 
009c4     11 79 06 F6 | 	mov	local08, ##10001
009c8                 | LR__0004
009c8                 | '   ccc:=getrnd()&15
009c8     1B 7E 62 FD | 	getrnd	local11
009cc     0F 7E 06 F5 | 	and	local11, #15
009d0                 | '   x1:=getrnd()+//800
009d0     1B A2 61 FD | 	getrnd	result1
009d4     D1 9A 02 F6 | 	mov	muldiva_, result1
009d8     01 00 00 FF 
009dc     20 9D 06 F6 | 	mov	muldivb_, ##800
009e0     BF 00 A0 FD | 	call	#unsdivide_
009e4     4D 7B 02 F6 | 	mov	local09, muldiva_
009e8                 | '   x2:=getrnd()+//800
009e8     1B A2 61 FD | 	getrnd	result1
009ec     D1 9A 02 F6 | 	mov	muldiva_, result1
009f0     01 00 00 FF 
009f4     20 9D 06 F6 | 	mov	muldivb_, ##800
009f8     BF 00 A0 FD | 	call	#unsdivide_
009fc     4D 81 02 F6 | 	mov	local12, muldiva_
00a00                 | '   y1:=getrnd()+//480
00a00     1B A2 61 FD | 	getrnd	result1
00a04     D1 9A 02 F6 | 	mov	muldiva_, result1
00a08     E0 9D 06 F6 | 	mov	muldivb_, #480
00a0c     BF 00 A0 FD | 	call	#unsdivide_
00a10     4D 7D 02 F6 | 	mov	local10, muldiva_
00a14                 | '   y2:=getrnd()+//480
00a14     1B A2 61 FD | 	getrnd	result1
00a18     D1 9A 02 F6 | 	mov	muldiva_, result1
00a1c     E0 9D 06 F6 | 	mov	muldivb_, #480
00a20     BF 00 A0 FD | 	call	#unsdivide_
00a24                 | ' 
00a24                 | ' 
00a24                 | '   frame(x1,y1,x2,y2,ccc)
00a24     3D 83 02 F6 | 	mov	local13, local09
00a28     3E 85 02 F6 | 	mov	local14, local10
00a2c     40 87 02 F6 | 	mov	local15, local12
00a30     4D 89 02 F6 | 	mov	local16, muldiva_
00a34     3F 8B 02 F6 | 	mov	local17, local11
00a38                 | ' 
00a38                 | ' line(x1,y1,x2,y1,c)
00a38     41 61 02 F6 | 	mov	arg01, local13
00a3c     42 63 02 F6 | 	mov	arg02, local14
00a40     43 65 02 F6 | 	mov	arg03, local15
00a44     42 67 02 F6 | 	mov	arg04, local14
00a48     45 69 02 F6 | 	mov	arg05, local17
00a4c     30 0A B0 FD | 	call	#_line
00a50                 | ' line(x1,y2,x2,y2,c)
00a50     41 61 02 F6 | 	mov	arg01, local13
00a54     44 63 02 F6 | 	mov	arg02, local16
00a58     43 65 02 F6 | 	mov	arg03, local15
00a5c     44 67 02 F6 | 	mov	arg04, local16
00a60     45 69 02 F6 | 	mov	arg05, local17
00a64     18 0A B0 FD | 	call	#_line
00a68                 | ' line(x1,y1,x1,y2,c)
00a68     41 61 02 F6 | 	mov	arg01, local13
00a6c     42 63 02 F6 | 	mov	arg02, local14
00a70     41 65 02 F6 | 	mov	arg03, local13
00a74     44 67 02 F6 | 	mov	arg04, local16
00a78     45 69 02 F6 | 	mov	arg05, local17
00a7c     00 0A B0 FD | 	call	#_line
00a80                 | ' line(x2,y1,x2,y2,c)
00a80     43 61 02 F6 | 	mov	arg01, local15
00a84     42 63 02 F6 | 	mov	arg02, local14
00a88     43 65 02 F6 | 	mov	arg03, local15
00a8c     44 67 02 F6 | 	mov	arg04, local16
00a90     45 69 02 F6 | 	mov	arg05, local17
00a94     E8 09 B0 FD | 	call	#_line
00a98     CB 79 6E FB | 	djnz	local08, #LR__0004
00a9c                 | '   
00a9c                 | ' repeat i from 0 to 10000
00a9c     13 00 00 FF 
00aa0     11 79 06 F6 | 	mov	local08, ##10001
00aa4                 | LR__0005
00aa4                 | ' 
00aa4                 | '   x1:=getrnd()+//896
00aa4     1B A2 61 FD | 	getrnd	result1
00aa8     D1 9A 02 F6 | 	mov	muldiva_, result1
00aac     01 00 00 FF 
00ab0     80 9D 06 F6 | 	mov	muldivb_, ##896
00ab4     BF 00 A0 FD | 	call	#unsdivide_
00ab8     4D 7B 02 F6 | 	mov	local09, muldiva_
00abc                 | '   y1:=getrnd()+//496
00abc     1B A2 61 FD | 	getrnd	result1
00ac0     D1 9A 02 F6 | 	mov	muldiva_, result1
00ac4     F0 9D 06 F6 | 	mov	muldivb_, #496
00ac8     BF 00 A0 FD | 	call	#unsdivide_
00acc     4D 7D 02 F6 | 	mov	local10, muldiva_
00ad0                 | '   r:=getrnd()+//100
00ad0     1B A2 61 FD | 	getrnd	result1
00ad4     D1 9A 02 F6 | 	mov	muldiva_, result1
00ad8     64 9C 06 F6 | 	mov	muldivb_, #100
00adc     BF 00 A0 FD | 	call	#unsdivide_
00ae0                 | '   ccc:=getrnd()&15
00ae0     1B A2 61 FD | 	getrnd	result1
00ae4     D1 66 02 F6 | 	mov	arg04, result1
00ae8     0F 66 06 F5 | 	and	arg04, #15
00aec                 | '   circle(x1,y1,r,ccc) 
00aec     3D 61 02 F6 | 	mov	arg01, local09
00af0     3E 63 02 F6 | 	mov	arg02, local10
00af4     4D 65 02 F6 | 	mov	arg03, muldiva_
00af8     38 08 B0 FD | 	call	#_circle
00afc     E9 79 6E FB | 	djnz	local08, #LR__0005
00b00                 | '   
00b00                 | ' repeat i from 0 to 1000
00b00     01 00 00 FF 
00b04     E9 79 06 F6 | 	mov	local08, ##1001
00b08                 | LR__0006
00b08                 | '   ccc:=getrnd()&15
00b08     1B 7E 62 FD | 	getrnd	local11
00b0c     0F 7E 06 F5 | 	and	local11, #15
00b10                 | '   x1:=getrnd()+//896
00b10     1B A2 61 FD | 	getrnd	result1
00b14     D1 9A 02 F6 | 	mov	muldiva_, result1
00b18     01 00 00 FF 
00b1c     80 9D 06 F6 | 	mov	muldivb_, ##896
00b20     BF 00 A0 FD | 	call	#unsdivide_
00b24     4D 7B 02 F6 | 	mov	local09, muldiva_
00b28                 | '   x2:=getrnd()+//100
00b28     1B A2 61 FD | 	getrnd	result1
00b2c     D1 9A 02 F6 | 	mov	muldiva_, result1
00b30     64 9C 06 F6 | 	mov	muldivb_, #100
00b34     BF 00 A0 FD | 	call	#unsdivide_
00b38     4D 81 02 F6 | 	mov	local12, muldiva_
00b3c                 | '   y1:=getrnd()+//496
00b3c     1B A2 61 FD | 	getrnd	result1
00b40     D1 9A 02 F6 | 	mov	muldiva_, result1
00b44     F0 9D 06 F6 | 	mov	muldivb_, #496
00b48     BF 00 A0 FD | 	call	#unsdivide_
00b4c     4D 7D 02 F6 | 	mov	local10, muldiva_
00b50                 | '   y2:=getrnd()+//100
00b50     1B A2 61 FD | 	getrnd	result1
00b54     D1 9A 02 F6 | 	mov	muldiva_, result1
00b58     64 9C 06 F6 | 	mov	muldivb_, #100
00b5c     BF 00 A0 FD | 	call	#unsdivide_
00b60     3D 8D 02 F6 | 	mov	local18, local09
00b64     40 8D 02 F1 | 	add	local18, local12
00b68     3E 8F 02 F6 | 	mov	local19, local10
00b6c     4D 8F 02 F1 | 	add	local19, muldiva_
00b70                 | ' 
00b70                 | ' 
00b70                 | '   box(x1,y1,x1+x2,y1+y2,ccc)  
00b70     3D 91 02 F6 | 	mov	local20, local09
00b74     3E 93 02 F6 | 	mov	local21, local10
00b78     3F 95 02 F6 | 	mov	local22, local11
00b7c                 | ' 
00b7c                 | ' repeat yy from y1 to y2
00b7c     49 8F 5A F2 | 	cmps	local19, local21 wcz
00b80     01 96 06 16 |  if_a	mov	local23, #1
00b84     01 96 66 E6 |  if_be	neg	local23, #1
00b88     4B 8F 02 F1 | 	add	local19, local23
00b8c                 | LR__0007
00b8c                 | '   line(x1,yy,x2,yy,c)
00b8c     48 61 02 F6 | 	mov	arg01, local20
00b90     46 65 02 F6 | 	mov	arg03, local18
00b94     4A 69 02 F6 | 	mov	arg05, local22
00b98     49 63 02 F6 | 	mov	arg02, local21
00b9c     49 67 02 F6 | 	mov	arg04, local21
00ba0     DC 08 B0 FD | 	call	#_line
00ba4     4B 93 02 F1 | 	add	local21, local23
00ba8     47 93 0A F2 | 	cmp	local21, local19 wz
00bac     DC FF 9F 5D |  if_ne	jmp	#LR__0007
00bb0     D5 79 6E FB | 	djnz	local08, #LR__0006
00bb4                 | '       
00bb4                 | '   
00bb4                 | ' {
00bb4                 | ' }
00bb4                 | ' setfontfamily(4)
00bb4                 | ' 
00bb4                 | ' font_family:=afontnum
00bb4     C8 9E 05 F1 | 	add	objptr, #200
00bb8     CF 08 68 FC | 	wrlong	#4, objptr
00bbc     C8 9E 85 F1 | 	sub	objptr, #200
00bc0                 | ' repeat amode from 512 to 1023
00bc0     09 98 C6 F9 | 	decod	local24, #9
00bc4                 | LR__0008
00bc4                 | '   setmode(amode)
00bc4     4C 61 02 F6 | 	mov	arg01, local24
00bc8     18 0E B0 FD | 	call	#_setmode
00bcc     4C 7F 02 F6 | 	mov	local11, local24
00bd0     04 7E 46 F0 | 	shr	local11, #4
00bd4     03 7E 0E F5 | 	and	local11, #3 wz
00bd8                 | '   ccc:=((amode>>4)&3)
00bd8                 | '   if (ccc==0)
00bd8     80 01 90 5D |  if_ne	jmp	#LR__0009
00bdc                 | '     cls(0,1)
00bdc     00 60 06 F6 | 	mov	arg01, #0
00be0     01 62 06 F6 | 	mov	arg02, #1
00be4     80 0C B0 FD | 	call	#_cls
00be8                 | '     outtextxycg(0,0,string("mode"),0,1)
00be8     11 00 00 FF 
00bec     D0 65 06 F6 | 	mov	arg03, ##@LR__0126
00bf0     00 60 06 F6 | 	mov	arg01, #0
00bf4     00 62 06 F6 | 	mov	arg02, #0
00bf8     00 66 06 F6 | 	mov	arg04, #0
00bfc     01 68 06 F6 | 	mov	arg05, #1
00c00     6C 0A B0 FD | 	call	#_outtextxycg
00c04                 | '     outtextxycg(0,16,string("cpl"),0,1)
00c04     11 00 00 FF 
00c08     D5 65 06 F6 | 	mov	arg03, ##@LR__0127
00c0c     00 60 06 F6 | 	mov	arg01, #0
00c10     10 62 06 F6 | 	mov	arg02, #16
00c14     00 66 06 F6 | 	mov	arg04, #0
00c18     01 68 06 F6 | 	mov	arg05, #1
00c1c     50 0A B0 FD | 	call	#_outtextxycg
00c20                 | '     outtextxycg(0,32,string("bufptr"),0,1)
00c20     11 00 00 FF 
00c24     D9 65 06 F6 | 	mov	arg03, ##@LR__0128
00c28     00 60 06 F6 | 	mov	arg01, #0
00c2c     20 62 06 F6 | 	mov	arg02, #32
00c30     00 66 06 F6 | 	mov	arg04, #0
00c34     01 68 06 F6 | 	mov	arg05, #1
00c38     34 0A B0 FD | 	call	#_outtextxycg
00c3c                 | '     outtextxycg(0,48,string("buflen"),0,1)
00c3c     11 00 00 FF 
00c40     E0 65 06 F6 | 	mov	arg03, ##@LR__0129
00c44     00 60 06 F6 | 	mov	arg01, #0
00c48     30 62 06 F6 | 	mov	arg02, #48
00c4c     00 66 06 F6 | 	mov	arg04, #0
00c50     01 68 06 F6 | 	mov	arg05, #1
00c54     18 0A B0 FD | 	call	#_outtextxycg
00c58                 | '     outtextxycg(0,64,string("lines"),0,1)
00c58     11 00 00 FF 
00c5c     E7 65 06 F6 | 	mov	arg03, ##@LR__0130
00c60     00 60 06 F6 | 	mov	arg01, #0
00c64     40 62 06 F6 | 	mov	arg02, #64
00c68     00 66 06 F6 | 	mov	arg04, #0
00c6c     01 68 06 F6 | 	mov	arg05, #1
00c70     FC 09 B0 FD | 	call	#_outtextxycg
00c74                 | '     outtextxycg(64,0,inttostr(amode),0,1)
00c74     40 74 06 F6 | 	mov	local06, #64
00c78     00 76 06 F6 | 	mov	local07, #0
00c7c     4C 61 02 F6 | 	mov	arg01, local24
00c80     50 0C B0 FD | 	call	#_inttostr
00c84     D1 64 02 F6 | 	mov	arg03, result1
00c88     3A 61 02 F6 | 	mov	arg01, local06
00c8c     3B 63 02 F6 | 	mov	arg02, local07
00c90     00 66 06 F6 | 	mov	arg04, #0
00c94     01 68 06 F6 | 	mov	arg05, #1
00c98     D4 09 B0 FD | 	call	#_outtextxycg
00c9c                 | '     outtextxycg(64,16,inttostr(cpl),0,1)
00c9c     40 74 06 F6 | 	mov	local06, #64
00ca0     10 76 06 F6 | 	mov	local07, #16
00ca4     90 9E 05 F1 | 	add	objptr, #144
00ca8     CF 60 02 FB | 	rdlong	arg01, objptr
00cac     90 9E 85 F1 | 	sub	objptr, #144
00cb0     20 0C B0 FD | 	call	#_inttostr
00cb4     D1 64 02 F6 | 	mov	arg03, result1
00cb8     3A 61 02 F6 | 	mov	arg01, local06
00cbc     3B 63 02 F6 | 	mov	arg02, local07
00cc0     00 66 06 F6 | 	mov	arg04, #0
00cc4     01 68 06 F6 | 	mov	arg05, #1
00cc8     A4 09 B0 FD | 	call	#_outtextxycg
00ccc                 | '     outtextxycg(64,32,inttostr(buf_ptr),0,1)
00ccc     40 74 06 F6 | 	mov	local06, #64
00cd0     20 76 06 F6 | 	mov	local07, #32
00cd4     CF 60 02 FB | 	rdlong	arg01, objptr
00cd8     F8 0B B0 FD | 	call	#_inttostr
00cdc     D1 64 02 F6 | 	mov	arg03, result1
00ce0     3A 61 02 F6 | 	mov	arg01, local06
00ce4     3B 63 02 F6 | 	mov	arg02, local07
00ce8     00 66 06 F6 | 	mov	arg04, #0
00cec     01 68 06 F6 | 	mov	arg05, #1
00cf0     7C 09 B0 FD | 	call	#_outtextxycg
00cf4     30 9E 05 F1 | 	add	objptr, #48
00cf8     CF 60 02 FB | 	rdlong	arg01, objptr
00cfc     30 9E 85 F1 | 	sub	objptr, #48
00d00     02 60 66 F0 | 	shl	arg01, #2
00d04                 | '     outtextxycg(64,48,inttostr(buflen*4),0,1)
00d04     40 74 06 F6 | 	mov	local06, #64
00d08     30 76 06 F6 | 	mov	local07, #48
00d0c     C4 0B B0 FD | 	call	#_inttostr
00d10     D1 64 02 F6 | 	mov	arg03, result1
00d14     3A 61 02 F6 | 	mov	arg01, local06
00d18     3B 63 02 F6 | 	mov	arg02, local07
00d1c     00 66 06 F6 | 	mov	arg04, #0
00d20     01 68 06 F6 | 	mov	arg05, #1
00d24     48 09 B0 FD | 	call	#_outtextxycg
00d28                 | '     outtextxycg(64,64,inttostr(lines),0,1)
00d28     40 74 06 F6 | 	mov	local06, #64
00d2c     40 76 06 F6 | 	mov	local07, #64
00d30     94 9E 05 F1 | 	add	objptr, #148
00d34     CF 60 02 FB | 	rdlong	arg01, objptr
00d38     94 9E 85 F1 | 	sub	objptr, #148
00d3c     94 0B B0 FD | 	call	#_inttostr
00d40     D1 64 02 F6 | 	mov	arg03, result1
00d44     3A 61 02 F6 | 	mov	arg01, local06
00d48     3B 63 02 F6 | 	mov	arg02, local07
00d4c     00 66 06 F6 | 	mov	arg04, #0
00d50     01 68 06 F6 | 	mov	arg05, #1
00d54     18 09 B0 FD | 	call	#_outtextxycg
00d58     94 04 90 FD | 	jmp	#LR__0015
00d5c                 | LR__0009
00d5c                 | '   elseif (ccc==1)
00d5c     01 7E 0E F2 | 	cmp	local11, #1 wz
00d60     80 01 90 5D |  if_ne	jmp	#LR__0010
00d64                 | '     cls(0,0)
00d64     00 60 06 F6 | 	mov	arg01, #0
00d68     00 62 06 F6 | 	mov	arg02, #0
00d6c     F8 0A B0 FD | 	call	#_cls
00d70                 | '     outtextxycg(0,0,string("mode"),3,0)
00d70     11 00 00 FF 
00d74     ED 65 06 F6 | 	mov	arg03, ##@LR__0131
00d78     00 60 06 F6 | 	mov	arg01, #0
00d7c     00 62 06 F6 | 	mov	arg02, #0
00d80     03 66 06 F6 | 	mov	arg04, #3
00d84     00 68 06 F6 | 	mov	arg05, #0
00d88     E4 08 B0 FD | 	call	#_outtextxycg
00d8c                 | '     outtextxycg(0,16,string("cpl"),3,0)'
00d8c     11 00 00 FF 
00d90     F2 65 06 F6 | 	mov	arg03, ##@LR__0132
00d94     00 60 06 F6 | 	mov	arg01, #0
00d98     10 62 06 F6 | 	mov	arg02, #16
00d9c     03 66 06 F6 | 	mov	arg04, #3
00da0     00 68 06 F6 | 	mov	arg05, #0
00da4     C8 08 B0 FD | 	call	#_outtextxycg
00da8                 | '     outtextxycg(0,32,string("buf_ptr"),3,0)
00da8     11 00 00 FF 
00dac     F6 65 06 F6 | 	mov	arg03, ##@LR__0133
00db0     00 60 06 F6 | 	mov	arg01, #0
00db4     20 62 06 F6 | 	mov	arg02, #32
00db8     03 66 06 F6 | 	mov	arg04, #3
00dbc     00 68 06 F6 | 	mov	arg05, #0
00dc0     AC 08 B0 FD | 	call	#_outtextxycg
00dc4                 | '     outtextxycg(0,48,string("buflen"),3,0)
00dc4     11 00 00 FF 
00dc8     FE 65 06 F6 | 	mov	arg03, ##@LR__0134
00dcc     00 60 06 F6 | 	mov	arg01, #0
00dd0     30 62 06 F6 | 	mov	arg02, #48
00dd4     03 66 06 F6 | 	mov	arg04, #3
00dd8     00 68 06 F6 | 	mov	arg05, #0
00ddc     90 08 B0 FD | 	call	#_outtextxycg
00de0                 | '     outtextxycg(0,64,string("lines"),3,0)
00de0     12 00 00 FF 
00de4     05 64 06 F6 | 	mov	arg03, ##@LR__0135
00de8     00 60 06 F6 | 	mov	arg01, #0
00dec     40 62 06 F6 | 	mov	arg02, #64
00df0     03 66 06 F6 | 	mov	arg04, #3
00df4     00 68 06 F6 | 	mov	arg05, #0
00df8     74 08 B0 FD | 	call	#_outtextxycg
00dfc                 | '     outtextxycg(64,0,inttostr(amode),2,0)
00dfc     40 74 06 F6 | 	mov	local06, #64
00e00     00 76 06 F6 | 	mov	local07, #0
00e04     4C 61 02 F6 | 	mov	arg01, local24
00e08     C8 0A B0 FD | 	call	#_inttostr
00e0c     D1 64 02 F6 | 	mov	arg03, result1
00e10     3A 61 02 F6 | 	mov	arg01, local06
00e14     3B 63 02 F6 | 	mov	arg02, local07
00e18     02 66 06 F6 | 	mov	arg04, #2
00e1c     00 68 06 F6 | 	mov	arg05, #0
00e20     4C 08 B0 FD | 	call	#_outtextxycg
00e24                 | '     outtextxycg(64,16,inttostr(cpl),2,0)
00e24     40 74 06 F6 | 	mov	local06, #64
00e28     10 76 06 F6 | 	mov	local07, #16
00e2c     90 9E 05 F1 | 	add	objptr, #144
00e30     CF 60 02 FB | 	rdlong	arg01, objptr
00e34     90 9E 85 F1 | 	sub	objptr, #144
00e38     98 0A B0 FD | 	call	#_inttostr
00e3c     D1 64 02 F6 | 	mov	arg03, result1
00e40     3A 61 02 F6 | 	mov	arg01, local06
00e44     3B 63 02 F6 | 	mov	arg02, local07
00e48     02 66 06 F6 | 	mov	arg04, #2
00e4c     00 68 06 F6 | 	mov	arg05, #0
00e50     1C 08 B0 FD | 	call	#_outtextxycg
00e54                 | '     outtextxycg(64,32,inttostr(buf_ptr),2,0)
00e54     40 74 06 F6 | 	mov	local06, #64
00e58     20 76 06 F6 | 	mov	local07, #32
00e5c     CF 60 02 FB | 	rdlong	arg01, objptr
00e60     70 0A B0 FD | 	call	#_inttostr
00e64     D1 64 02 F6 | 	mov	arg03, result1
00e68     3A 61 02 F6 | 	mov	arg01, local06
00e6c     3B 63 02 F6 | 	mov	arg02, local07
00e70     02 66 06 F6 | 	mov	arg04, #2
00e74     00 68 06 F6 | 	mov	arg05, #0
00e78     F4 07 B0 FD | 	call	#_outtextxycg
00e7c     30 9E 05 F1 | 	add	objptr, #48
00e80     CF 60 02 FB | 	rdlong	arg01, objptr
00e84     30 9E 85 F1 | 	sub	objptr, #48
00e88     02 60 66 F0 | 	shl	arg01, #2
00e8c                 | '     outtextxycg(64,48,inttostr(buflen*4),2,0)
00e8c     40 74 06 F6 | 	mov	local06, #64
00e90     30 76 06 F6 | 	mov	local07, #48
00e94     3C 0A B0 FD | 	call	#_inttostr
00e98     D1 64 02 F6 | 	mov	arg03, result1
00e9c     3A 61 02 F6 | 	mov	arg01, local06
00ea0     3B 63 02 F6 | 	mov	arg02, local07
00ea4     02 66 06 F6 | 	mov	arg04, #2
00ea8     00 68 06 F6 | 	mov	arg05, #0
00eac     C0 07 B0 FD | 	call	#_outtextxycg
00eb0                 | '     outtextxycg(64,64,inttostr(lines),2,0)
00eb0     40 74 06 F6 | 	mov	local06, #64
00eb4     40 76 06 F6 | 	mov	local07, #64
00eb8     94 9E 05 F1 | 	add	objptr, #148
00ebc     CF 60 02 FB | 	rdlong	arg01, objptr
00ec0     94 9E 85 F1 | 	sub	objptr, #148
00ec4     0C 0A B0 FD | 	call	#_inttostr
00ec8     D1 64 02 F6 | 	mov	arg03, result1
00ecc     3A 61 02 F6 | 	mov	arg01, local06
00ed0     3B 63 02 F6 | 	mov	arg02, local07
00ed4     02 66 06 F6 | 	mov	arg04, #2
00ed8     00 68 06 F6 | 	mov	arg05, #0
00edc     90 07 B0 FD | 	call	#_outtextxycg
00ee0     0C 03 90 FD | 	jmp	#LR__0014
00ee4                 | LR__0010
00ee4                 | '   elseif (ccc==2)
00ee4     02 7E 0E F2 | 	cmp	local11, #2 wz
00ee8     80 01 90 5D |  if_ne	jmp	#LR__0011
00eec                 | '     cls(0,0)
00eec     00 60 06 F6 | 	mov	arg01, #0
00ef0     00 62 06 F6 | 	mov	arg02, #0
00ef4     70 09 B0 FD | 	call	#_cls
00ef8                 | '     outtextxycg(0,0,string("mode"),9,0)
00ef8     12 00 00 FF 
00efc     0B 64 06 F6 | 	mov	arg03, ##@LR__0136
00f00     00 60 06 F6 | 	mov	arg01, #0
00f04     00 62 06 F6 | 	mov	arg02, #0
00f08     09 66 06 F6 | 	mov	arg04, #9
00f0c     00 68 06 F6 | 	mov	arg05, #0
00f10     5C 07 B0 FD | 	call	#_outtextxycg
00f14                 | '     outtextxycg(0,16,string("cpl"),9,0)'
00f14     12 00 00 FF 
00f18     10 64 06 F6 | 	mov	arg03, ##@LR__0137
00f1c     00 60 06 F6 | 	mov	arg01, #0
00f20     10 62 06 F6 | 	mov	arg02, #16
00f24     09 66 06 F6 | 	mov	arg04, #9
00f28     00 68 06 F6 | 	mov	arg05, #0
00f2c     40 07 B0 FD | 	call	#_outtextxycg
00f30                 | '     outtextxycg(0,32,string("buf_ptr"),9,0)
00f30     12 00 00 FF 
00f34     14 64 06 F6 | 	mov	arg03, ##@LR__0138
00f38     00 60 06 F6 | 	mov	arg01, #0
00f3c     20 62 06 F6 | 	mov	arg02, #32
00f40     09 66 06 F6 | 	mov	arg04, #9
00f44     00 68 06 F6 | 	mov	arg05, #0
00f48     24 07 B0 FD | 	call	#_outtextxycg
00f4c                 | '     outtextxycg(0,48,string("buflen"),9,0)
00f4c     12 00 00 FF 
00f50     1C 64 06 F6 | 	mov	arg03, ##@LR__0139
00f54     00 60 06 F6 | 	mov	arg01, #0
00f58     30 62 06 F6 | 	mov	arg02, #48
00f5c     09 66 06 F6 | 	mov	arg04, #9
00f60     00 68 06 F6 | 	mov	arg05, #0
00f64     08 07 B0 FD | 	call	#_outtextxycg
00f68                 | '     outtextxycg(0,64,string("lines"),9,0)
00f68     12 00 00 FF 
00f6c     23 64 06 F6 | 	mov	arg03, ##@LR__0140
00f70     00 60 06 F6 | 	mov	arg01, #0
00f74     40 62 06 F6 | 	mov	arg02, #64
00f78     09 66 06 F6 | 	mov	arg04, #9
00f7c     00 68 06 F6 | 	mov	arg05, #0
00f80     EC 06 B0 FD | 	call	#_outtextxycg
00f84                 | '     outtextxycg(64,0,inttostr(amode),4,0)
00f84     40 74 06 F6 | 	mov	local06, #64
00f88     00 76 06 F6 | 	mov	local07, #0
00f8c     4C 61 02 F6 | 	mov	arg01, local24
00f90     40 09 B0 FD | 	call	#_inttostr
00f94     D1 64 02 F6 | 	mov	arg03, result1
00f98     3A 61 02 F6 | 	mov	arg01, local06
00f9c     3B 63 02 F6 | 	mov	arg02, local07
00fa0     04 66 06 F6 | 	mov	arg04, #4
00fa4     00 68 06 F6 | 	mov	arg05, #0
00fa8     C4 06 B0 FD | 	call	#_outtextxycg
00fac                 | '     outtextxycg(64,16,inttostr(cpl),4,0)
00fac     40 74 06 F6 | 	mov	local06, #64
00fb0     10 76 06 F6 | 	mov	local07, #16
00fb4     90 9E 05 F1 | 	add	objptr, #144
00fb8     CF 60 02 FB | 	rdlong	arg01, objptr
00fbc     90 9E 85 F1 | 	sub	objptr, #144
00fc0     10 09 B0 FD | 	call	#_inttostr
00fc4     D1 64 02 F6 | 	mov	arg03, result1
00fc8     3A 61 02 F6 | 	mov	arg01, local06
00fcc     3B 63 02 F6 | 	mov	arg02, local07
00fd0     04 66 06 F6 | 	mov	arg04, #4
00fd4     00 68 06 F6 | 	mov	arg05, #0
00fd8     94 06 B0 FD | 	call	#_outtextxycg
00fdc                 | '     outtextxycg(64,32,inttostr(buf_ptr),4,0)
00fdc     40 74 06 F6 | 	mov	local06, #64
00fe0     20 76 06 F6 | 	mov	local07, #32
00fe4     CF 60 02 FB | 	rdlong	arg01, objptr
00fe8     E8 08 B0 FD | 	call	#_inttostr
00fec     D1 64 02 F6 | 	mov	arg03, result1
00ff0     3A 61 02 F6 | 	mov	arg01, local06
00ff4     3B 63 02 F6 | 	mov	arg02, local07
00ff8     04 66 06 F6 | 	mov	arg04, #4
00ffc     00 68 06 F6 | 	mov	arg05, #0
01000     6C 06 B0 FD | 	call	#_outtextxycg
01004     30 9E 05 F1 | 	add	objptr, #48
01008     CF 60 02 FB | 	rdlong	arg01, objptr
0100c     30 9E 85 F1 | 	sub	objptr, #48
01010     02 60 66 F0 | 	shl	arg01, #2
01014                 | '     outtextxycg(64,48,inttostr(buflen*4),4,0)
01014     40 74 06 F6 | 	mov	local06, #64
01018     30 76 06 F6 | 	mov	local07, #48
0101c     B4 08 B0 FD | 	call	#_inttostr
01020     D1 64 02 F6 | 	mov	arg03, result1
01024     3A 61 02 F6 | 	mov	arg01, local06
01028     3B 63 02 F6 | 	mov	arg02, local07
0102c     04 66 06 F6 | 	mov	arg04, #4
01030     00 68 06 F6 | 	mov	arg05, #0
01034     38 06 B0 FD | 	call	#_outtextxycg
01038                 | '     outtextxycg(64,64,inttostr(lines),4,0)
01038     40 74 06 F6 | 	mov	local06, #64
0103c     40 76 06 F6 | 	mov	local07, #64
01040     94 9E 05 F1 | 	add	objptr, #148
01044     CF 60 02 FB | 	rdlong	arg01, objptr
01048     94 9E 85 F1 | 	sub	objptr, #148
0104c     84 08 B0 FD | 	call	#_inttostr
01050     D1 64 02 F6 | 	mov	arg03, result1
01054     3A 61 02 F6 | 	mov	arg01, local06
01058     3B 63 02 F6 | 	mov	arg02, local07
0105c     04 66 06 F6 | 	mov	arg04, #4
01060     00 68 06 F6 | 	mov	arg05, #0
01064     08 06 B0 FD | 	call	#_outtextxycg
01068     84 01 90 FD | 	jmp	#LR__0013
0106c                 | LR__0011
0106c                 | '   elseif (ccc==3)
0106c     03 7E 0E F2 | 	cmp	local11, #3 wz
01070     7C 01 90 5D |  if_ne	jmp	#LR__0012
01074                 | '     cls(0,0)
01074     00 60 06 F6 | 	mov	arg01, #0
01078     00 62 06 F6 | 	mov	arg02, #0
0107c     E8 07 B0 FD | 	call	#_cls
01080                 | '     outtextxycg(0,0,string("mode"),120,0)
01080     12 00 00 FF 
01084     29 64 06 F6 | 	mov	arg03, ##@LR__0141
01088     00 60 06 F6 | 	mov	arg01, #0
0108c     00 62 06 F6 | 	mov	arg02, #0
01090     78 66 06 F6 | 	mov	arg04, #120
01094     00 68 06 F6 | 	mov	arg05, #0
01098     D4 05 B0 FD | 	call	#_outtextxycg
0109c                 | '     outtextxycg(0,16,string("cpl"),120,0)'
0109c     12 00 00 FF 
010a0     2E 64 06 F6 | 	mov	arg03, ##@LR__0142
010a4     00 60 06 F6 | 	mov	arg01, #0
010a8     10 62 06 F6 | 	mov	arg02, #16
010ac     78 66 06 F6 | 	mov	arg04, #120
010b0     00 68 06 F6 | 	mov	arg05, #0
010b4     B8 05 B0 FD | 	call	#_outtextxycg
010b8                 | '     outtextxycg(0,32,string("buf_ptr"),120,0)
010b8     12 00 00 FF 
010bc     32 64 06 F6 | 	mov	arg03, ##@LR__0143
010c0     00 60 06 F6 | 	mov	arg01, #0
010c4     20 62 06 F6 | 	mov	arg02, #32
010c8     78 66 06 F6 | 	mov	arg04, #120
010cc     00 68 06 F6 | 	mov	arg05, #0
010d0     9C 05 B0 FD | 	call	#_outtextxycg
010d4                 | '     outtextxycg(0,48,string("buflen"),120,0)
010d4     12 00 00 FF 
010d8     3A 64 06 F6 | 	mov	arg03, ##@LR__0144
010dc     00 60 06 F6 | 	mov	arg01, #0
010e0     30 62 06 F6 | 	mov	arg02, #48
010e4     78 66 06 F6 | 	mov	arg04, #120
010e8     00 68 06 F6 | 	mov	arg05, #0
010ec     80 05 B0 FD | 	call	#_outtextxycg
010f0                 | '     outtextxycg(0,64,string("lines"),120,0)
010f0     12 00 00 FF 
010f4     41 64 06 F6 | 	mov	arg03, ##@LR__0145
010f8     00 60 06 F6 | 	mov	arg01, #0
010fc     40 62 06 F6 | 	mov	arg02, #64
01100     78 66 06 F6 | 	mov	arg04, #120
01104     00 68 06 F6 | 	mov	arg05, #0
01108     64 05 B0 FD | 	call	#_outtextxycg
0110c                 | '     outtextxycg(64,0,inttostr(amode),40,0)
0110c     40 74 06 F6 | 	mov	local06, #64
01110     00 76 06 F6 | 	mov	local07, #0
01114     4C 61 02 F6 | 	mov	arg01, local24
01118     B8 07 B0 FD | 	call	#_inttostr
0111c     D1 64 02 F6 | 	mov	arg03, result1
01120     3A 61 02 F6 | 	mov	arg01, local06
01124     3B 63 02 F6 | 	mov	arg02, local07
01128     28 66 06 F6 | 	mov	arg04, #40
0112c     00 68 06 F6 | 	mov	arg05, #0
01130     3C 05 B0 FD | 	call	#_outtextxycg
01134                 | '     outtextxycg(64,16,inttostr(cpl),40,0)
01134     40 74 06 F6 | 	mov	local06, #64
01138     10 76 06 F6 | 	mov	local07, #16
0113c     90 9E 05 F1 | 	add	objptr, #144
01140     CF 60 02 FB | 	rdlong	arg01, objptr
01144     90 9E 85 F1 | 	sub	objptr, #144
01148     88 07 B0 FD | 	call	#_inttostr
0114c     D1 64 02 F6 | 	mov	arg03, result1
01150     3A 61 02 F6 | 	mov	arg01, local06
01154     3B 63 02 F6 | 	mov	arg02, local07
01158     28 66 06 F6 | 	mov	arg04, #40
0115c     00 68 06 F6 | 	mov	arg05, #0
01160     0C 05 B0 FD | 	call	#_outtextxycg
01164                 | '     outtextxycg(64,32,inttostr(buf_ptr),40,0)
01164     40 74 06 F6 | 	mov	local06, #64
01168     20 76 06 F6 | 	mov	local07, #32
0116c     CF 60 02 FB | 	rdlong	arg01, objptr
01170     60 07 B0 FD | 	call	#_inttostr
01174     D1 64 02 F6 | 	mov	arg03, result1
01178     3A 61 02 F6 | 	mov	arg01, local06
0117c     3B 63 02 F6 | 	mov	arg02, local07
01180     28 66 06 F6 | 	mov	arg04, #40
01184     00 68 06 F6 | 	mov	arg05, #0
01188     E4 04 B0 FD | 	call	#_outtextxycg
0118c     30 9E 05 F1 | 	add	objptr, #48
01190     CF 60 02 FB | 	rdlong	arg01, objptr
01194     30 9E 85 F1 | 	sub	objptr, #48
01198     02 60 66 F0 | 	shl	arg01, #2
0119c                 | '     outtextxycg(64,48,inttostr(buflen*4),40,0)
0119c     40 74 06 F6 | 	mov	local06, #64
011a0     30 76 06 F6 | 	mov	local07, #48
011a4     2C 07 B0 FD | 	call	#_inttostr
011a8     D1 64 02 F6 | 	mov	arg03, result1
011ac     3A 61 02 F6 | 	mov	arg01, local06
011b0     3B 63 02 F6 | 	mov	arg02, local07
011b4     28 66 06 F6 | 	mov	arg04, #40
011b8     00 68 06 F6 | 	mov	arg05, #0
011bc     B0 04 B0 FD | 	call	#_outtextxycg
011c0                 | '     outtextxycg(64,64,inttostr(lines),40,0)
011c0     40 74 06 F6 | 	mov	local06, #64
011c4     40 76 06 F6 | 	mov	local07, #64
011c8     94 9E 05 F1 | 	add	objptr, #148
011cc     CF 60 02 FB | 	rdlong	arg01, objptr
011d0     94 9E 85 F1 | 	sub	objptr, #148
011d4     FC 06 B0 FD | 	call	#_inttostr
011d8     D1 64 02 F6 | 	mov	arg03, result1
011dc     3A 61 02 F6 | 	mov	arg01, local06
011e0     3B 63 02 F6 | 	mov	arg02, local07
011e4     28 66 06 F6 | 	mov	arg04, #40
011e8     00 68 06 F6 | 	mov	arg05, #0
011ec     80 04 B0 FD | 	call	#_outtextxycg
011f0                 | LR__0012
011f0                 | LR__0013
011f0                 | LR__0014
011f0                 | LR__0015
011f0                 | '   waitvbl(300)
011f0     2C 61 06 F6 | 	mov	arg01, #300
011f4     FC 05 B0 FD | 	call	#_waitvbl
011f8     01 98 06 F1 | 	add	local24, #1
011fc     02 00 00 FF 
01200     00 98 5E F2 | 	cmps	local24, ##1024 wcz
01204     BC F9 9F CD |  if_b	jmp	#LR__0008
01208                 | ' 
01208                 | ' repeat
01208                 | LR__0016
01208     FC FF 9F FD | 	jmp	#LR__0016
0120c     A2 F0 03 F6 | 	mov	ptra, fp
01210     B2 00 A0 FD | 	call	#popregs_
01214                 | _dummy_ret
01214     2D 00 64 FD | 	ret
01218                 | 
01218                 | ' 
01218                 | ' '------------------------------
01218                 | ' 
01218                 | ' pub fcircle(x0,y0,r,c) | d,x,y,da,db
01218                 | _fcircle
01218     0D 40 05 F6 | 	mov	COUNT_, #13
0121c     A3 00 A0 FD | 	call	#pushregs_
01220     30 6B 02 F6 | 	mov	local01, arg01
01224     31 6D 02 F6 | 	mov	local02, arg02
01228     32 6F 02 F6 | 	mov	local03, arg03
0122c     33 71 02 F6 | 	mov	local04, arg04
01230     37 73 02 F6 | 	mov	local05, local03
01234     02 72 66 F0 | 	shl	local05, #2
01238     05 74 06 F6 | 	mov	local06, #5
0123c     39 75 82 F1 | 	sub	local06, local05
01240                 | ' 
01240                 | ' d:=5-4*r
01240                 | ' x:=0
01240     00 76 06 F6 | 	mov	local07, #0
01244                 | ' y:=r
01244     FF FF 7F FF 
01248     FE 6F 06 FD | 	qmul	local03, ##-2
0124c     18 78 62 FD | 	getqx	local08
01250     05 78 06 F1 | 	add	local08, #5
01254     02 78 66 F0 | 	shl	local08, #2
01258                 | ' da:=(-2*r+5)*4
01258                 | ' db:=3*4
01258     0C 7A 06 F6 | 	mov	local09, #12
0125c                 | ' repeat while (x<=y) 
0125c                 | LR__0017
0125c     37 77 5A F2 | 	cmps	local07, local03 wcz
01260     C4 00 90 1D |  if_a	jmp	#LR__0019
01264     35 7D 02 F6 | 	mov	local10, local01
01268     3B 7D 82 F1 | 	sub	local10, local07
0126c     36 67 02 F6 | 	mov	arg04, local02
01270     37 67 82 F1 | 	sub	arg04, local03
01274     35 7F 02 F6 | 	mov	local11, local01
01278     3B 7F 02 F1 | 	add	local11, local07
0127c                 | '   line(x0-x,y0-y,x0+x,y0-y,c)
0127c     3E 61 02 F6 | 	mov	arg01, local10
01280     33 63 02 F6 | 	mov	arg02, arg04
01284     3F 65 02 F6 | 	mov	arg03, local11
01288     38 69 02 F6 | 	mov	arg05, local04
0128c     F0 01 B0 FD | 	call	#_line
01290     36 67 02 F6 | 	mov	arg04, local02
01294     37 67 02 F1 | 	add	arg04, local03
01298                 | '   line(x0-x,y0+y,x0+x,y0+y,c)
01298     3E 61 02 F6 | 	mov	arg01, local10
0129c     33 63 02 F6 | 	mov	arg02, arg04
012a0     3F 65 02 F6 | 	mov	arg03, local11
012a4     38 69 02 F6 | 	mov	arg05, local04
012a8     D4 01 B0 FD | 	call	#_line
012ac     35 81 02 F6 | 	mov	local12, local01
012b0     37 81 82 F1 | 	sub	local12, local03
012b4     36 67 02 F6 | 	mov	arg04, local02
012b8     3B 67 82 F1 | 	sub	arg04, local07
012bc     35 83 02 F6 | 	mov	local13, local01
012c0     37 83 02 F1 | 	add	local13, local03
012c4                 | '   line(x0-y,y0-x,x0+y,y0-x,c)
012c4     40 61 02 F6 | 	mov	arg01, local12
012c8     33 63 02 F6 | 	mov	arg02, arg04
012cc     41 65 02 F6 | 	mov	arg03, local13
012d0     38 69 02 F6 | 	mov	arg05, local04
012d4     A8 01 B0 FD | 	call	#_line
012d8     36 67 02 F6 | 	mov	arg04, local02
012dc     3B 67 02 F1 | 	add	arg04, local07
012e0                 | '   line(x0-y,y0+x,x0+y,y0+x,c)
012e0     40 61 02 F6 | 	mov	arg01, local12
012e4     33 63 02 F6 | 	mov	arg02, arg04
012e8     41 65 02 F6 | 	mov	arg03, local13
012ec     38 69 02 F6 | 	mov	arg05, local04
012f0     8C 01 B0 FD | 	call	#_line
012f4                 | '   if d>0 
012f4     00 74 5E F2 | 	cmps	local06, #0 wcz
012f8     18 00 90 ED |  if_be	jmp	#LR__0018
012fc                 | '     d+=da
012fc     3C 75 02 F1 | 	add	local06, local08
01300                 | '     y-=1
01300     01 6E 86 F1 | 	sub	local03, #1
01304                 | '     x+=1
01304     01 76 06 F1 | 	add	local07, #1
01308                 | '     da+=4*4
01308     10 78 06 F1 | 	add	local08, #16
0130c                 | '     db+=2*4
0130c     08 7A 06 F1 | 	add	local09, #8
01310                 | '   else
01310     48 FF 9F FD | 	jmp	#LR__0017
01314                 | LR__0018
01314                 | '     d+=db
01314     3D 75 02 F1 | 	add	local06, local09
01318                 | '     x+=1
01318     01 76 06 F1 | 	add	local07, #1
0131c                 | '     da+=2*4
0131c     08 78 06 F1 | 	add	local08, #8
01320                 | '     db+=2*4
01320     08 7A 06 F1 | 	add	local09, #8
01324     34 FF 9F FD | 	jmp	#LR__0017
01328                 | LR__0019
01328     A2 F0 03 F6 | 	mov	ptra, fp
0132c     B2 00 A0 FD | 	call	#popregs_
01330                 | _fcircle_ret
01330     2D 00 64 FD | 	ret
01334                 | 
01334                 | '  
01334                 | '  
01334                 | '  
01334                 | ' pub circle(x0,y0,r,c) | d,x,y,da,db
01334                 | _circle
01334     11 40 05 F6 | 	mov	COUNT_, #17
01338     A3 00 A0 FD | 	call	#pushregs_
0133c     30 6B 02 F6 | 	mov	local01, arg01
01340     31 6D 02 F6 | 	mov	local02, arg02
01344     32 6F 02 F6 | 	mov	local03, arg03
01348     33 71 02 F6 | 	mov	local04, arg04
0134c     37 73 02 F6 | 	mov	local05, local03
01350     02 72 66 F0 | 	shl	local05, #2
01354     05 74 06 F6 | 	mov	local06, #5
01358     39 75 82 F1 | 	sub	local06, local05
0135c                 | ' 
0135c                 | '  
0135c                 | ' d:=5-4*r
0135c                 | ' x:=0
0135c     00 76 06 F6 | 	mov	local07, #0
01360                 | ' y:=r
01360     FF FF 7F FF 
01364     FE 6F 06 FD | 	qmul	local03, ##-2
01368     18 78 62 FD | 	getqx	local08
0136c     05 78 06 F1 | 	add	local08, #5
01370     02 78 66 F0 | 	shl	local08, #2
01374                 | ' da:=(-2*r+5)*4
01374                 | ' db:=3*4
01374     0C 7A 06 F6 | 	mov	local09, #12
01378                 | ' repeat while (x<=y) 
01378                 | LR__0020
01378     37 77 5A F2 | 	cmps	local07, local03 wcz
0137c     F4 00 90 1D |  if_a	jmp	#LR__0022
01380     35 7D 02 F6 | 	mov	local10, local01
01384     3B 7D 82 F1 | 	sub	local10, local07
01388     36 7F 02 F6 | 	mov	local11, local02
0138c     37 7F 82 F1 | 	sub	local11, local03
01390                 | '   putpixel(x0-x,y0-y,c)
01390     3E 61 02 F6 | 	mov	arg01, local10
01394     3F 63 02 F6 | 	mov	arg02, local11
01398     38 65 02 F6 | 	mov	arg03, local04
0139c     70 03 B0 FD | 	call	#_putpixel
013a0     36 81 02 F6 | 	mov	local12, local02
013a4     37 81 02 F1 | 	add	local12, local03
013a8                 | '   putpixel(x0-x,y0+y,c)
013a8     3E 61 02 F6 | 	mov	arg01, local10
013ac     40 63 02 F6 | 	mov	arg02, local12
013b0     38 65 02 F6 | 	mov	arg03, local04
013b4     58 03 B0 FD | 	call	#_putpixel
013b8     35 83 02 F6 | 	mov	local13, local01
013bc     3B 83 02 F1 | 	add	local13, local07
013c0                 | '   putpixel(x0+x,y0-y,c)
013c0     41 61 02 F6 | 	mov	arg01, local13
013c4     3F 63 02 F6 | 	mov	arg02, local11
013c8     38 65 02 F6 | 	mov	arg03, local04
013cc     40 03 B0 FD | 	call	#_putpixel
013d0                 | '   putpixel(x0+x,y0+y,c)
013d0     41 61 02 F6 | 	mov	arg01, local13
013d4     40 63 02 F6 | 	mov	arg02, local12
013d8     38 65 02 F6 | 	mov	arg03, local04
013dc     30 03 B0 FD | 	call	#_putpixel
013e0     35 85 02 F6 | 	mov	local14, local01
013e4     37 85 82 F1 | 	sub	local14, local03
013e8     36 87 02 F6 | 	mov	local15, local02
013ec     3B 87 82 F1 | 	sub	local15, local07
013f0                 | '   putpixel(x0-y,y0-x,c)
013f0     42 61 02 F6 | 	mov	arg01, local14
013f4     43 63 02 F6 | 	mov	arg02, local15
013f8     38 65 02 F6 | 	mov	arg03, local04
013fc     10 03 B0 FD | 	call	#_putpixel
01400     36 89 02 F6 | 	mov	local16, local02
01404     3B 89 02 F1 | 	add	local16, local07
01408                 | '   putpixel(x0-y,y0+x,c)
01408     42 61 02 F6 | 	mov	arg01, local14
0140c     44 63 02 F6 | 	mov	arg02, local16
01410     38 65 02 F6 | 	mov	arg03, local04
01414     F8 02 B0 FD | 	call	#_putpixel
01418     35 8B 02 F6 | 	mov	local17, local01
0141c     37 8B 02 F1 | 	add	local17, local03
01420                 | '   putpixel(x0+y,y0-x,c)
01420     45 61 02 F6 | 	mov	arg01, local17
01424     43 63 02 F6 | 	mov	arg02, local15
01428     38 65 02 F6 | 	mov	arg03, local04
0142c     E0 02 B0 FD | 	call	#_putpixel
01430                 | '   putpixel(x0+y,y0+x,c)
01430     45 61 02 F6 | 	mov	arg01, local17
01434     44 63 02 F6 | 	mov	arg02, local16
01438     38 65 02 F6 | 	mov	arg03, local04
0143c     D0 02 B0 FD | 	call	#_putpixel
01440                 | '   if d>0 
01440     00 74 5E F2 | 	cmps	local06, #0 wcz
01444     18 00 90 ED |  if_be	jmp	#LR__0021
01448                 | '     d+=da
01448     3C 75 02 F1 | 	add	local06, local08
0144c                 | '     y-=1
0144c     01 6E 86 F1 | 	sub	local03, #1
01450                 | '     x+=1
01450     01 76 06 F1 | 	add	local07, #1
01454                 | '     da+=4*4
01454     10 78 06 F1 | 	add	local08, #16
01458                 | '     db+=2*4
01458     08 7A 06 F1 | 	add	local09, #8
0145c                 | '   else
0145c     18 FF 9F FD | 	jmp	#LR__0020
01460                 | LR__0021
01460                 | '     d+=db
01460     3D 75 02 F1 | 	add	local06, local09
01464                 | '     x+=1
01464     01 76 06 F1 | 	add	local07, #1
01468                 | '     da+=2*4
01468     08 78 06 F1 | 	add	local08, #8
0146c                 | '     db+=2*4
0146c     08 7A 06 F1 | 	add	local09, #8
01470     04 FF 9F FD | 	jmp	#LR__0020
01474                 | LR__0022
01474     A2 F0 03 F6 | 	mov	ptra, fp
01478     B2 00 A0 FD | 	call	#popregs_
0147c                 | _circle_ret
0147c     2D 00 64 FD | 	ret
01480                 | 
01480                 | ' 
01480                 | ' 
01480                 | ' pub line(x1,y1,x2,y2,c) | d,dx,dy,ai,bi,xi,yi,x,y
01480                 | _line
01480     0E 40 05 F6 | 	mov	COUNT_, #14
01484     A3 00 A0 FD | 	call	#pushregs_
01488     30 6B 02 F6 | 	mov	local01, arg01
0148c     31 6D 02 F6 | 	mov	local02, arg02
01490     32 6F 02 F6 | 	mov	local03, arg03
01494     33 71 02 F6 | 	mov	local04, arg04
01498     34 73 02 F6 | 	mov	local05, arg05
0149c                 | ' 
0149c                 | ' 
0149c                 | ' x:=x1
0149c     35 75 02 F6 | 	mov	local06, local01
014a0                 | ' y:=y1
014a0     36 77 02 F6 | 	mov	local07, local02
014a4                 | ' 
014a4                 | ' if (x1<x2) 
014a4     37 6B 5A F2 | 	cmps	local01, local03 wcz
014a8     10 00 90 3D |  if_ae	jmp	#LR__0023
014ac                 | '   xi:=1
014ac     01 78 06 F6 | 	mov	local08, #1
014b0     37 7B 02 F6 | 	mov	local09, local03
014b4     35 7B 82 F1 | 	sub	local09, local01
014b8                 | '   dx:=x2-x1
014b8                 | ' else
014b8     0C 00 90 FD | 	jmp	#LR__0024
014bc                 | LR__0023
014bc                 | '   xi:=-1
014bc     01 78 66 F6 | 	neg	local08, #1
014c0     37 6B 82 F1 | 	sub	local01, local03
014c4                 | '   dx:=x1-x2
014c4     35 7B 02 F6 | 	mov	local09, local01
014c8                 | LR__0024
014c8                 | '   
014c8                 | ' if (y1<y2) 
014c8     38 6D 5A F2 | 	cmps	local02, local04 wcz
014cc     10 00 90 3D |  if_ae	jmp	#LR__0025
014d0                 | '   yi:=1
014d0     01 7C 06 F6 | 	mov	local10, #1
014d4     38 7F 02 F6 | 	mov	local11, local04
014d8     36 7F 82 F1 | 	sub	local11, local02
014dc                 | '   dy:=y2-y1
014dc                 | ' else
014dc     0C 00 90 FD | 	jmp	#LR__0026
014e0                 | LR__0025
014e0                 | '   yi:=-1
014e0     01 7C 66 F6 | 	neg	local10, #1
014e4     38 6D 82 F1 | 	sub	local02, local04
014e8                 | '   dy:=y1-y2
014e8     36 7F 02 F6 | 	mov	local11, local02
014ec                 | LR__0026
014ec                 | ' 
014ec                 | ' putpixel(x,y,c)
014ec     3B 63 02 F6 | 	mov	arg02, local07
014f0     39 65 02 F6 | 	mov	arg03, local05
014f4     3A 61 02 F6 | 	mov	arg01, local06
014f8     14 02 B0 FD | 	call	#_putpixel
014fc                 | ' 
014fc                 | ' if (dx>dy)
014fc     3F 7B 5A F2 | 	cmps	local09, local11 wcz
01500     58 00 90 ED |  if_be	jmp	#LR__0030
01504     3F 81 02 F6 | 	mov	local12, local11
01508     3D 81 82 F1 | 	sub	local12, local09
0150c     01 80 66 F0 | 	shl	local12, #1
01510                 | '   ai:=(dy-dx)*2
01510     01 7E 66 F0 | 	shl	local11, #1
01514     3F 83 02 F6 | 	mov	local13, local11
01518                 | '   bi:=dy*2
01518     41 85 02 F6 | 	mov	local14, local13
0151c     3D 85 82 F1 | 	sub	local14, local09
01520                 | '   d:= bi-dx
01520                 | '   repeat while (x<>x2) 
01520                 | LR__0027
01520     37 75 0A F2 | 	cmp	local06, local03 wz
01524     8C 00 90 AD |  if_e	jmp	#LR__0035
01528                 | '     if (d>=0) 
01528     00 84 5E F2 | 	cmps	local14, #0 wcz
0152c     10 00 90 CD |  if_b	jmp	#LR__0028
01530                 | '       x+=xi
01530     3C 75 02 F1 | 	add	local06, local08
01534                 | '       y+=yi
01534     3E 77 02 F1 | 	add	local07, local10
01538                 | '       d+=ai
01538     40 85 02 F1 | 	add	local14, local12
0153c                 | '     else
0153c     08 00 90 FD | 	jmp	#LR__0029
01540                 | LR__0028
01540                 | '       d+=bi
01540     41 85 02 F1 | 	add	local14, local13
01544                 | '       x+=xi
01544     3C 75 02 F1 | 	add	local06, local08
01548                 | LR__0029
01548                 | '     putpixel(x,y,c)
01548     3A 61 02 F6 | 	mov	arg01, local06
0154c     3B 63 02 F6 | 	mov	arg02, local07
01550     39 65 02 F6 | 	mov	arg03, local05
01554     B8 01 B0 FD | 	call	#_putpixel
01558     C4 FF 9F FD | 	jmp	#LR__0027
0155c                 | ' else
0155c                 | LR__0030
0155c     3D 81 02 F6 | 	mov	local12, local09
01560     3F 81 82 F1 | 	sub	local12, local11
01564     01 80 66 F0 | 	shl	local12, #1
01568                 | '   ai:=(dx-dy)*2
01568     01 7A 66 F0 | 	shl	local09, #1
0156c     3D 83 02 F6 | 	mov	local13, local09
01570                 | '   bi:=dx*2
01570     41 85 02 F6 | 	mov	local14, local13
01574     3F 85 82 F1 | 	sub	local14, local11
01578                 | '   d:=bi-dy
01578                 | '   repeat while (y<>y2)
01578                 | LR__0031
01578     38 77 0A F2 | 	cmp	local07, local04 wz
0157c     34 00 90 AD |  if_e	jmp	#LR__0034
01580                 | '     if (d>=0)
01580     00 84 5E F2 | 	cmps	local14, #0 wcz
01584     10 00 90 CD |  if_b	jmp	#LR__0032
01588                 | '       x+=xi
01588     3C 75 02 F1 | 	add	local06, local08
0158c                 | '       y+=yi
0158c     3E 77 02 F1 | 	add	local07, local10
01590                 | '       d+=ai
01590     40 85 02 F1 | 	add	local14, local12
01594                 | '     else
01594     08 00 90 FD | 	jmp	#LR__0033
01598                 | LR__0032
01598                 | '       d+=bi
01598     41 85 02 F1 | 	add	local14, local13
0159c                 | '       y+=yi
0159c     3E 77 02 F1 | 	add	local07, local10
015a0                 | LR__0033
015a0                 | '     putpixel(x, y,c)
015a0     3A 61 02 F6 | 	mov	arg01, local06
015a4     3B 63 02 F6 | 	mov	arg02, local07
015a8     39 65 02 F6 | 	mov	arg03, local05
015ac     60 01 B0 FD | 	call	#_putpixel
015b0     C4 FF 9F FD | 	jmp	#LR__0031
015b4                 | LR__0034
015b4                 | LR__0035
015b4     A2 F0 03 F6 | 	mov	ptra, fp
015b8     B2 00 A0 FD | 	call	#popregs_
015bc                 | _line_ret
015bc     2D 00 64 FD | 	ret
015c0                 | 
015c0                 | ' 
015c0                 | ' pub putcharxycg(x,y,achar,f,b) |xx, yy,bb
015c0                 | _putcharxycg
015c0     0B 40 05 F6 | 	mov	COUNT_, #11
015c4     A3 00 A0 FD | 	call	#pushregs_
015c8     30 6B 02 F6 | 	mov	local01, arg01
015cc     31 6D 02 F6 | 	mov	local02, arg02
015d0     32 6F 02 F6 | 	mov	local03, arg03
015d4     33 71 02 F6 | 	mov	local04, arg04
015d8     34 73 02 F6 | 	mov	local05, arg05
015dc     04 6E 66 F0 | 	shl	local03, #4
015e0     00 74 06 F6 | 	mov	local06, #0
015e4                 | LR__0036
015e4     D0 76 02 F6 | 	mov	local07, ptr__dat__
015e8     C8 9E 05 F1 | 	add	objptr, #200
015ec     CF 78 02 FB | 	rdlong	local08, objptr
015f0     C8 9E 85 F1 | 	sub	objptr, #200
015f4     0A 78 66 F0 | 	shl	local08, #10
015f8     3C 77 02 F1 | 	add	local07, local08
015fc     37 77 02 F1 | 	add	local07, local03
01600     3A 77 02 F1 | 	add	local07, local06
01604                 | '   bb:=byte[@vga_font+font_family<<10+achar<<4+yy]
01604     3B 7B C2 FA | 	rdbyte	local09, local07
01608                 | '   repeat xx from 0 to 7
01608     00 7C 06 F6 | 	mov	local10, #0
0160c                 | LR__0037
0160c                 | '     if (bb&(1<<xx))<>0
0160c     3E 7F C2 F9 | 	decod	local11, local10
01610     3F 7B CA F7 | 	test	local09, local11 wz
01614     1C 00 90 AD |  if_e	jmp	#LR__0038
01618     3E 61 02 F6 | 	mov	arg01, local10
0161c     35 61 02 F1 | 	add	arg01, local01
01620     3A 63 02 F6 | 	mov	arg02, local06
01624     36 63 02 F1 | 	add	arg02, local02
01628                 | '       putpixel(xx+x,yy+y,f)
01628     38 65 02 F6 | 	mov	arg03, local04
0162c     E0 00 B0 FD | 	call	#_putpixel
01630                 | '     else
01630     18 00 90 FD | 	jmp	#LR__0039
01634                 | LR__0038
01634     3E 61 02 F6 | 	mov	arg01, local10
01638     35 61 02 F1 | 	add	arg01, local01
0163c     3A 63 02 F6 | 	mov	arg02, local06
01640     36 63 02 F1 | 	add	arg02, local02
01644                 | '       putpixel(xx+x,yy+y,b)
01644     39 65 02 F6 | 	mov	arg03, local05
01648     C4 00 B0 FD | 	call	#_putpixel
0164c                 | LR__0039
0164c     01 7C 06 F1 | 	add	local10, #1
01650     08 7C 5E F2 | 	cmps	local10, #8 wcz
01654     B4 FF 9F CD |  if_b	jmp	#LR__0037
01658     01 74 06 F1 | 	add	local06, #1
0165c     10 74 5E F2 | 	cmps	local06, #16 wcz
01660     80 FF 9F CD |  if_b	jmp	#LR__0036
01664     A2 F0 03 F6 | 	mov	ptra, fp
01668     B2 00 A0 FD | 	call	#popregs_
0166c                 | _putcharxycg_ret
0166c     2D 00 64 FD | 	ret
01670                 | 
01670                 | ' 
01670                 | ' pub outtextxycg(x,y,text,f,b) | iii,c
01670                 | _outtextxycg
01670     0C 40 05 F6 | 	mov	COUNT_, #12
01674     A3 00 A0 FD | 	call	#pushregs_
01678     30 6B 02 F6 | 	mov	local01, arg01
0167c     31 6D 02 F6 | 	mov	local02, arg02
01680     32 6F 02 F6 | 	mov	local03, arg03
01684     33 71 02 F6 | 	mov	local04, arg04
01688     34 73 02 F6 | 	mov	local05, arg05
0168c                 | ' 
0168c                 | ' repeat iii from 0 to strsize(text)-1
0168c     00 74 06 F6 | 	mov	local06, #0
01690     37 61 02 F6 | 	mov	arg01, local03
01694     00 76 06 F6 | 	mov	local07, #0
01698     74 E9 9F FE | 	loc	pa,	#(@LR__0041-@LR__0040)
0169c     93 00 A0 FD | 	call	#FCACHE_LOAD_
016a0                 | LR__0040
016a0     30 79 CA FA | 	rdbyte	local08, arg01 wz
016a4     01 76 06 51 |  if_ne	add	local07, #1
016a8     01 60 06 51 |  if_ne	add	arg01, #1
016ac     F0 FF 9F 5D |  if_ne	jmp	#LR__0040
016b0                 | LR__0041
016b0     3B A3 01 F6 | 	mov	result1, local07
016b4     D1 7A 02 F6 | 	mov	local09, result1
016b8     01 7A 86 F1 | 	sub	local09, #1
016bc     00 7A 5E F2 | 	cmps	local09, #0 wcz
016c0     01 7C 06 16 |  if_a	mov	local10, #1
016c4     01 7C 66 E6 |  if_be	neg	local10, #1
016c8     3E 7B 02 F1 | 	add	local09, local10
016cc                 | LR__0042
016cc     3A 7F 02 F6 | 	mov	local11, local06
016d0     03 7E 66 F0 | 	shl	local11, #3
016d4     35 61 02 F6 | 	mov	arg01, local01
016d8     3F 61 02 F1 | 	add	arg01, local11
016dc     37 81 02 F6 | 	mov	local12, local03
016e0     3A 81 02 F1 | 	add	local12, local06
016e4                 | '   putcharxycg(x+8*iii,y,byte[text+iii],f,b)
016e4     36 63 02 F6 | 	mov	arg02, local02
016e8     40 65 C2 FA | 	rdbyte	arg03, local12
016ec     38 67 02 F6 | 	mov	arg04, local04
016f0     39 69 02 F6 | 	mov	arg05, local05
016f4     C8 FE BF FD | 	call	#_putcharxycg
016f8     3E 75 02 F1 | 	add	local06, local10
016fc     3D 75 0A F2 | 	cmp	local06, local09 wz
01700     C8 FF 9F 5D |  if_ne	jmp	#LR__0042
01704     A2 F0 03 F6 | 	mov	ptra, fp
01708     B2 00 A0 FD | 	call	#popregs_
0170c                 | _outtextxycg_ret
0170c     2D 00 64 FD | 	ret
01710                 | 
01710                 | ' 
01710                 | ' 
01710                 | ' pub putpixel(x,y,c) |byte b
01710                 | _putpixel
01710                 | ' 
01710                 | ' x:=lines-x
01710     94 9E 05 F1 | 	add	objptr, #148
01714     CF A4 01 FB | 	rdlong	_var01, objptr
01718     30 A5 81 F1 | 	sub	_var01, arg01
0171c                 | ' if ((y>=0) & (y<16*cpl) & (x>=0) & (x<lines))
0171c     00 A6 05 F6 | 	mov	_var02, #0
01720     00 62 5E F2 | 	cmps	arg02, #0 wcz
01724     01 A6 65 36 |  if_ae	neg	_var02, #1
01728     00 A8 05 F6 | 	mov	_var03, #0
0172c     04 9E 85 F1 | 	sub	objptr, #4
01730     CF AA 01 FB | 	rdlong	_var04, objptr
01734     04 AA 65 F0 | 	shl	_var04, #4
01738     D5 62 5A F2 | 	cmps	arg02, _var04 wcz
0173c     01 A8 65 C6 |  if_b	neg	_var03, #1
01740     D4 A6 01 F5 | 	and	_var02, _var03
01744     00 AC 05 F6 | 	mov	_var05, #0
01748     00 A4 5D F2 | 	cmps	_var01, #0 wcz
0174c     01 AC 65 36 |  if_ae	neg	_var05, #1
01750     D6 A6 01 F5 | 	and	_var02, _var05
01754     00 AE 05 F6 | 	mov	_var06, #0
01758     04 9E 05 F1 | 	add	objptr, #4
0175c     CF B0 01 FB | 	rdlong	_var07, objptr
01760     94 9E 85 F1 | 	sub	objptr, #148
01764     D8 A4 59 F2 | 	cmps	_var01, _var07 wcz
01768     01 AE 65 C6 |  if_b	neg	_var06, #1
0176c     D7 A6 C9 F7 | 	test	_var02, _var06 wz
01770     7C 00 90 AD |  if_e	jmp	#LR__0043
01774     90 9E 05 F1 | 	add	objptr, #144
01778     CF B2 01 FB | 	rdlong	_var08, objptr
0177c     90 9E 85 F1 | 	sub	objptr, #144
01780     02 B2 65 F0 | 	shl	_var08, #2
01784     D2 B2 01 FD | 	qmul	_var08, _var01
01788     18 B4 61 FD | 	getqx	_var09
0178c     CF B6 01 FB | 	rdlong	_var10, objptr
01790     DA B6 01 F1 | 	add	_var10, _var09
01794     31 B9 01 F6 | 	mov	_var11, arg02
01798     01 B8 45 F0 | 	shr	_var11, #1
0179c     DC B6 01 F1 | 	add	_var10, _var11
017a0                 | '     b:=byte[buf_ptr+4*cpl*x+(y>>1)]
017a0     DB BA C1 FA | 	rdbyte	_var12, _var10
017a4     31 A7 51 F6 | 	abs	_var02, arg02 wc
017a8     01 A6 05 F5 | 	and	_var02, #1
017ac     D3 A6 61 C6 |  if_b	neg	_var02, _var02
017b0     02 A6 65 F0 | 	shl	_var02, #2
017b4     0F BC 05 F6 | 	mov	_var13, #15
017b8     D3 BC 61 F0 | 	shl	_var13, _var02
017bc                 | '     
017bc                 | '     b:=b & !(%1111<<((y//2)<<2))
017bc     DE BA 21 F5 | 	andn	_var12, _var13
017c0     D3 64 62 F0 | 	shl	arg03, _var02
017c4                 | '     
017c4                 | '     b:=b |(c<<((y//2)<<2))
017c4     32 BB 41 F5 | 	or	_var12, arg03
017c8     90 9E 05 F1 | 	add	objptr, #144
017cc     CF BE 01 FB | 	rdlong	_var14, objptr
017d0     90 9E 85 F1 | 	sub	objptr, #144
017d4     02 BE 65 F0 | 	shl	_var14, #2
017d8     D2 BE 01 FD | 	qmul	_var14, _var01
017dc     18 C0 61 FD | 	getqx	_var15
017e0     CF C2 01 FB | 	rdlong	_var16, objptr
017e4     E0 C2 01 F1 | 	add	_var16, _var15
017e8     DC C2 01 F1 | 	add	_var16, _var11
017ec                 | '     byte[buf_ptr+4*cpl*x+(y>>1)]:=b
017ec     E1 BA 41 FC | 	wrbyte	_var12, _var16
017f0                 | LR__0043
017f0                 | _putpixel_ret
017f0     2D 00 64 FD | 	ret
017f4                 | 
017f4                 | ' 
017f4                 | ' '*************************************************************************
017f4                 | ' '                                                                        *
017f4                 | ' '  VBlank functions                                                      *
017f4                 | ' '                                                                        *
017f4                 | ' '*************************************************************************
017f4                 | ' 
017f4                 | ' pub waitvbl(amount) | i
017f4                 | _waitvbl
017f4     04 40 05 F6 | 	mov	COUNT_, #4
017f8     A3 00 A0 FD | 	call	#pushregs_
017fc     30 6B 02 F6 | 	mov	local01, arg01
01800                 | ' 
01800                 | ' ''---------- Wait for start of vblank. Amount=delay in frames
01800                 | ' 
01800                 | ' repeat i from 1 to amount
01800     01 6C 06 F6 | 	mov	local02, #1
01804     01 6A 5E F2 | 	cmps	local01, #1 wcz
01808     01 6E 06 16 |  if_a	mov	local03, #1
0180c     01 6E 66 E6 |  if_be	neg	local03, #1
01810     37 6B 02 F1 | 	add	local01, local03
01814                 | LR__0044
01814                 | '   repeat until vblank==0
01814                 | LR__0045
01814     40 9E 05 F1 | 	add	objptr, #64
01818     CF 70 0A FB | 	rdlong	local04, objptr wz
0181c     40 9E 85 F1 | 	sub	objptr, #64
01820     0C 00 90 AD |  if_e	jmp	#LR__0046
01824                 | '     waitus(100)
01824     64 60 06 F6 | 	mov	arg01, #100
01828     44 0B B0 FD | 	call	#__system___waitus
0182c     E4 FF 9F FD | 	jmp	#LR__0045
01830                 | LR__0046
01830                 | '   repeat until vblank==1
01830                 | LR__0047
01830     40 9E 05 F1 | 	add	objptr, #64
01834     CF 70 02 FB | 	rdlong	local04, objptr
01838     40 9E 85 F1 | 	sub	objptr, #64
0183c     01 70 0E F2 | 	cmp	local04, #1 wz
01840     0C 00 90 AD |  if_e	jmp	#LR__0048
01844                 | '     waitus(100)
01844     64 60 06 F6 | 	mov	arg01, #100
01848     24 0B B0 FD | 	call	#__system___waitus
0184c     E0 FF 9F FD | 	jmp	#LR__0047
01850                 | LR__0048
01850     37 6D 02 F1 | 	add	local02, local03
01854     35 6D 0A F2 | 	cmp	local02, local01 wz
01858     B8 FF 9F 5D |  if_ne	jmp	#LR__0044
0185c     A2 F0 03 F6 | 	mov	ptra, fp
01860     B2 00 A0 FD | 	call	#popregs_
01864                 | _waitvbl_ret
01864     2D 00 64 FD | 	ret
01868                 | 
01868                 | ' 
01868                 | ' 
01868                 | ' '*************************************************************************
01868                 | ' '                                                                        *
01868                 | ' '  Text functions                                                        *
01868                 | ' '                                                                        *
01868                 | ' '*************************************************************************
01868                 | ' 
01868                 | ' ''---------- Clear the screen, set its foreground/background color
01868                 | ' 
01868                 | ' pub cls(fc,bc)   :c
01868                 | _cls
01868     03 40 05 F6 | 	mov	COUNT_, #3
0186c     A3 00 A0 FD | 	call	#pushregs_
01870     30 6B 02 F6 | 	mov	local01, arg01
01874     31 6D 02 F6 | 	mov	local02, arg02
01878     36 6F 02 F6 | 	mov	local03, local02
0187c     04 6E 66 F0 | 	shl	local03, #4
01880     36 6F 02 F1 | 	add	local03, local02
01884                 | ' 
01884                 | ' c:=bc<<4+bc
01884     30 9E 05 F1 | 	add	objptr, #48
01888     CF 64 02 FB | 	rdlong	arg03, objptr
0188c     30 9E 85 F1 | 	sub	objptr, #48
01890     02 64 66 F0 | 	shl	arg03, #2
01894                 | ' bytefill(buf_ptr,c,buflen*4)
01894     CF 60 02 FB | 	rdlong	arg01, objptr
01898     37 63 02 F6 | 	mov	arg02, local03
0189c     10 09 B0 FD | 	call	#__system____builtin_memset
018a0                 | ' setwritecolors(fc,bc)
018a0                 | ' 
018a0                 | ' 
018a0                 | ' write_color:=ff
018a0     38 9E 05 F1 | 	add	objptr, #56
018a4     CF 6A 62 FC | 	wrlong	local01, objptr
018a8                 | ' write_background:=bb
018a8     04 9E 05 F1 | 	add	objptr, #4
018ac     CF 6C 62 FC | 	wrlong	local02, objptr
018b0                 | ' cursor_x:=0
018b0     08 9E 85 F1 | 	sub	objptr, #8
018b4     CF 00 48 FC | 	wrbyte	#0, objptr
018b8                 | ' cursor_y:=0
018b8     01 9E 05 F1 | 	add	objptr, #1
018bc     CF 00 48 FC | 	wrbyte	#0, objptr
018c0     35 9E 85 F1 | 	sub	objptr, #53
018c4     37 A3 01 F6 | 	mov	result1, local03
018c8     A2 F0 03 F6 | 	mov	ptra, fp
018cc     B2 00 A0 FD | 	call	#popregs_
018d0                 | _cls_ret
018d0     2D 00 64 FD | 	ret
018d4                 | 
018d4                 | ' 
018d4                 | ' 
018d4                 | ' '*************************************************************************
018d4                 | ' '                                                                        *
018d4                 | ' '  Conversions                                                           *
018d4                 | ' '                                                                        *
018d4                 | ' '*************************************************************************
018d4                 | ' 
018d4                 | ' ''---------- Convert a integer to dec string, return a pointer
018d4                 | ' 
018d4                 | ' pub inttostr(i):result |q,pos,k,j
018d4                 | _inttostr
018d4     07 40 05 F6 | 	mov	COUNT_, #7
018d8     A3 00 A0 FD | 	call	#pushregs_
018dc     30 6B 02 F6 | 	mov	local01, arg01
018e0                 | ' 
018e0                 | ' j:=i
018e0     35 6D 0A F6 | 	mov	local02, local01 wz
018e4                 | ' pos:=10
018e4     0A 6E 06 F6 | 	mov	local03, #10
018e8                 | ' k:=0
018e8     00 70 06 F6 | 	mov	local04, #0
018ec                 | ' 
018ec                 | ' if (j==0)
018ec     18 00 90 5D |  if_ne	jmp	#LR__0049
018f0                 | '   n_string[0]:=48
018f0     44 9E 05 F1 | 	add	objptr, #68
018f4     CF 60 48 FC | 	wrbyte	#48, objptr
018f8                 | '   n_string[1]:=0
018f8     01 9E 05 F1 | 	add	objptr, #1
018fc     CF 00 48 FC | 	wrbyte	#0, objptr
01900     45 9E 85 F1 | 	sub	objptr, #69
01904                 | ' 
01904                 | ' else
01904     C4 00 90 FD | 	jmp	#LR__0056
01908                 | LR__0049
01908                 | '   if (j<0)
01908     00 6C 5E F2 | 	cmps	local02, #0 wcz
0190c                 | '     j:=0-j
0190c     36 6D 62 C6 |  if_b	neg	local02, local02
01910                 | '     k:=45
01910     2D 70 06 C6 |  if_b	mov	local04, #45
01914                 | ' 
01914                 | '   n_string[11]:=0
01914     4F 9E 05 F1 | 	add	objptr, #79
01918     CF 00 48 FC | 	wrbyte	#0, objptr
0191c     4F 9E 85 F1 | 	sub	objptr, #79
01920     1C E7 9F FE | 	loc	pa,	#(@LR__0051-@LR__0050)
01924     93 00 A0 FD | 	call	#FCACHE_LOAD_
01928                 | '   repeat while (pos>-1)
01928                 | LR__0050
01928     FF FF 7F FF 
0192c     FF 6F 5E F2 | 	cmps	local03, ##-1 wcz
01930     34 00 90 ED |  if_be	jmp	#LR__0052
01934     36 9B 02 F6 | 	mov	muldiva_, local02
01938     0A 9C 06 F6 | 	mov	muldivb_, #10
0193c     C3 00 A0 FD | 	call	#divide_
01940     4D 73 02 F6 | 	mov	local05, muldiva_
01944                 | '     q:=j//10
01944                 | '     q:=48+q
01944     30 72 06 F1 | 	add	local05, #48
01948     37 75 02 F6 | 	mov	local06, local03
0194c     44 9E 05 F1 | 	add	objptr, #68
01950     CF 74 02 F1 | 	add	local06, objptr
01954                 | '     n_string[pos]:=q
01954     3A 73 42 FC | 	wrbyte	local05, local06
01958                 | '     j:=j/10
01958     4E 6D 02 F6 | 	mov	local02, muldivb_
0195c                 | '     pos-=1
0195c     01 6E 86 F1 | 	sub	local03, #1
01960     44 9E 85 F1 | 	sub	objptr, #68
01964     C0 FF 9F FD | 	jmp	#LR__0050
01968                 | LR__0051
01968                 | LR__0052
01968                 | '   repeat while n_string[0]==48
01968                 | LR__0053
01968     44 9E 05 F1 | 	add	objptr, #68
0196c     CF 76 C2 FA | 	rdbyte	local07, objptr
01970     44 9E 85 F1 | 	sub	objptr, #68
01974     30 76 0E F2 | 	cmp	local07, #48 wz
01978     20 00 90 5D |  if_ne	jmp	#LR__0054
0197c     44 9E 05 F1 | 	add	objptr, #68
01980     CF 60 02 F6 | 	mov	arg01, objptr
01984     44 9E 85 F1 | 	sub	objptr, #68
01988     30 63 02 F6 | 	mov	arg02, arg01
0198c     01 62 06 F1 | 	add	arg02, #1
01990                 | '     bytemove(@n_string,@n_string+1,12)
01990     0C 64 06 F6 | 	mov	arg03, #12
01994     78 08 B0 FD | 	call	#__system____builtin_memmove
01998     CC FF 9F FD | 	jmp	#LR__0053
0199c                 | LR__0054
0199c                 | ' 
0199c                 | '   if k==45
0199c     2D 70 0E F2 | 	cmp	local04, #45 wz
019a0     28 00 90 5D |  if_ne	jmp	#LR__0055
019a4     44 9E 05 F1 | 	add	objptr, #68
019a8     CF 62 02 F6 | 	mov	arg02, objptr
019ac     44 9E 85 F1 | 	sub	objptr, #68
019b0     31 61 02 F6 | 	mov	arg01, arg02
019b4     01 60 06 F1 | 	add	arg01, #1
019b8                 | '      bytemove(@n_string+1,@n_string,12)
019b8     0C 64 06 F6 | 	mov	arg03, #12
019bc     50 08 B0 FD | 	call	#__system____builtin_memmove
019c0                 | '      n_string[0]:=k
019c0     44 9E 05 F1 | 	add	objptr, #68
019c4     CF 70 42 FC | 	wrbyte	local04, objptr
019c8     44 9E 85 F1 | 	sub	objptr, #68
019cc                 | LR__0055
019cc                 | LR__0056
019cc     44 9E 05 F1 | 	add	objptr, #68
019d0     CF A2 01 F6 | 	mov	result1, objptr
019d4     44 9E 85 F1 | 	sub	objptr, #68
019d8                 | ' 
019d8                 | ' q:=@n_string
019d8                 | ' return q
019d8     A2 F0 03 F6 | 	mov	ptra, fp
019dc     B2 00 A0 FD | 	call	#popregs_
019e0                 | _inttostr_ret
019e0     2D 00 64 FD | 	ret
019e4                 | 
019e4                 | ' 
019e4                 | ' 
019e4                 | ' 
019e4                 | ' '*************************************************************************
019e4                 | ' '                                                                        *
019e4                 | ' '  Mode setting and driver start                                                          *
019e4                 | ' '                                                                        *
019e4                 | ' '*************************************************************************
019e4                 | ' 
019e4                 | ' ''---------  Set the graphics mode
019e4                 | ' 
019e4                 | ' 
019e4                 | ' 
019e4                 | ' pub setmode(mode) | i', 'xzoom, yzoom, azoom
019e4                 | _setmode
019e4     0D 40 05 F6 | 	mov	COUNT_, #13
019e8     A3 00 A0 FD | 	call	#pushregs_
019ec     30 6B 02 F6 | 	mov	local01, arg01
019f0     50 9E 05 F1 | 	add	objptr, #80
019f4     CF 60 02 F6 | 	mov	arg01, objptr
019f8     50 9E 85 F1 | 	sub	objptr, #80
019fc     0F 00 00 FF 
01a00     58 A0 05 F1 | 	add	ptr__dat__, ##7768
01a04     D0 62 02 F6 | 	mov	arg02, ptr__dat__
01a08     0F 00 00 FF 
01a0c     58 A0 85 F1 | 	sub	ptr__dat__, ##7768
01a10                 | ' 
01a10                 | ' longmove(@timings,@timings4096,16)
01a10     10 64 06 F6 | 	mov	arg03, #16
01a14     88 08 B0 FD | 	call	#__system__longmove
01a18     0C 00 00 FF 
01a1c     18 A0 05 F1 | 	add	ptr__dat__, ##6168
01a20                 | ' palette_ptr:=@vga16
01a20     18 9E 05 F1 | 	add	objptr, #24
01a24     CF A0 61 FC | 	wrlong	ptr__dat__, objptr
01a28     38 9E 05 F1 | 	add	objptr, #56
01a2c     CF 6C 02 F6 | 	mov	local02, objptr
01a30     0C 00 00 FF 
01a34     18 A0 85 F1 | 	sub	ptr__dat__, ##6168
01a38     50 9E 85 F1 | 	sub	objptr, #80
01a3c     EC E5 9F FE | 	loc	pa,	#(@LR__0059-@LR__0057)
01a40     93 00 A0 FD | 	call	#FCACHE_LOAD_
01a44                 | LR__0057
01a44     05 14 DC FC | 	rep	@LR__0060, #5
01a48                 | LR__0058
01a48     24 9E 05 F1 | 	add	objptr, #36
01a4c     CF 6E 02 FB | 	rdlong	local03, objptr
01a50     24 9E 85 F1 | 	sub	objptr, #36
01a54     11 6E 66 F0 | 	shl	local03, #17
01a58     36 71 02 FB | 	rdlong	local04, local02
01a5c     37 71 02 F1 | 	add	local04, local03
01a60     80 40 38 FF 
01a64     00 70 06 F1 | 	add	local04, ##1887502336
01a68                 | '   timings[i]:=timings[i]+hdmibase<<17+ timingsxxt
01a68     36 71 62 FC | 	wrlong	local04, local02
01a6c     04 6C 06 F1 | 	add	local02, #4
01a70                 | LR__0059
01a70                 | LR__0060
01a70     24 9E 05 F1 | 	add	objptr, #36
01a74     CF 72 02 FB | 	rdlong	local05, objptr
01a78     11 72 66 F0 | 	shl	local05, #17
01a7c     40 9E 05 F1 | 	add	objptr, #64
01a80     CF 74 02 FB | 	rdlong	local06, objptr
01a84     39 75 02 F1 | 	add	local06, local05
01a88                 | ' timings[5]:=timings[5]+hdmibase<<17
01a88     CF 74 62 FC | 	wrlong	local06, objptr
01a8c                 | ' clkfreq:=timings[13]
01a8c     20 9E 05 F1 | 	add	objptr, #32
01a90     CF 76 02 FB | 	rdlong	local07, objptr
01a94     14 76 66 FC | 	wrlong	local07, #20
01a98                 | ' hubset(timings[14])
01a98     04 9E 05 F1 | 	add	objptr, #4
01a9c     CF 60 02 FB | 	rdlong	arg01, objptr
01aa0     88 9E 85 F1 | 	sub	objptr, #136
01aa4     00 60 62 FD | 	hubset	arg01
01aa8                 | ' waitms(1)
01aa8     01 60 06 F6 | 	mov	arg01, #1
01aac     60 08 B0 FD | 	call	#__system___waitms
01ab0                 | ' 
01ab0                 | ' 
01ab0                 | ' xzoom:=2
01ab0     CC 9E 05 F1 | 	add	objptr, #204
01ab4     CF 04 68 FC | 	wrlong	#2, objptr
01ab8                 | ' 
01ab8                 | ' 
01ab8                 | ' yzoom:=2
01ab8     04 9E 05 F1 | 	add	objptr, #4
01abc     CF 04 68 FC | 	wrlong	#2, objptr
01ac0     04 9E 85 F1 | 	sub	objptr, #4
01ac4     CF 78 02 FB | 	rdlong	local08, objptr
01ac8     04 9E 05 F1 | 	add	objptr, #4
01acc     CF 7A 02 FB | 	rdlong	local09, objptr
01ad0     3D 79 02 FD | 	qmul	local08, local09
01ad4     18 7C 62 FD | 	getqx	local10
01ad8                 | ' azoom:=xzoom*yzoom
01ad8     04 9E 05 F1 | 	add	objptr, #4
01adc     CF 7C 62 FC | 	wrlong	local10, objptr
01ae0                 | ' 
01ae0                 | ' cpl:=timings[11]
01ae0     58 9E 85 F1 | 	sub	objptr, #88
01ae4     CF 76 02 FB | 	rdlong	local07, objptr
01ae8     14 9E 05 F1 | 	add	objptr, #20
01aec     CF 76 62 FC | 	wrlong	local07, objptr
01af0                 | ' lines:=timings[12]
01af0     10 9E 85 F1 | 	sub	objptr, #16
01af4     CF 76 02 FB | 	rdlong	local07, objptr
01af8     14 9E 05 F1 | 	add	objptr, #20
01afc     CF 76 62 FC | 	wrlong	local07, objptr
01b00     04 9E 85 F1 | 	sub	objptr, #4
01b04     CF 78 02 FB | 	rdlong	local08, objptr
01b08     04 9E 05 F1 | 	add	objptr, #4
01b0c     CF 7A 02 FB | 	rdlong	local09, objptr
01b10     3D 79 02 FD | 	qmul	local08, local09
01b14     18 7E 62 FD | 	getqx	local11
01b18                 | ' 
01b18                 | ' buflen:=(cpl*lines)
01b18     64 9E 85 F1 | 	sub	objptr, #100
01b1c     CF 7E 62 FC | 	wrlong	local11, objptr
01b20     30 9E 85 F1 | 	sub	objptr, #48
01b24     02 7E 66 F0 | 	shl	local11, #2
01b28     13 80 C6 F9 | 	decod	local12, #19
01b2c     3F 81 82 F1 | 	sub	local12, local11
01b30                 | ' 
01b30                 | ' buf_ptr:=$80000-4*buflen
01b30     CF 80 62 FC | 	wrlong	local12, objptr
01b34     50 9E 05 F1 | 	add	objptr, #80
01b38     CF 82 02 F6 | 	mov	local13, objptr
01b3c                 | ' mode_ptr:=@timings
01b3c     3C 9E 85 F1 | 	sub	objptr, #60
01b40     CF 82 62 FC | 	wrlong	local13, objptr
01b44                 | ' graphmode:=mode
01b44     B0 9E 05 F1 | 	add	objptr, #176
01b48     CF 6A 62 FC | 	wrlong	local01, objptr
01b4c     C4 9E 85 F1 | 	sub	objptr, #196
01b50                 | ' makedl(mode)
01b50     35 61 02 F6 | 	mov	arg01, local01
01b54     0C 00 B0 FD | 	call	#_makedl
01b58     A2 F0 03 F6 | 	mov	ptra, fp
01b5c     B2 00 A0 FD | 	call	#popregs_
01b60                 | _setmode_ret
01b60     2D 00 64 FD | 	ret
01b64                 | 
01b64                 | ' 
01b64                 | ' 
01b64                 | ' 
01b64                 | ' 
01b64                 | ' '---------- Make a display list
01b64                 | ' 
01b64                 | ' pub makedl (mode) |i, fontline2,charline,bufstart,zoom1,vzoom,lpc,hzoom
01b64                 | _makedl
01b64     30 A5 01 F6 | 	mov	_var01, arg01
01b68                 | ' 
01b68                 | ' ''--%aaaa_aaaa_aaaa_aaaa_aazz_nnnn_llll_ll_01 - txt
01b68                 | '   '' aaaa_aaaa_aaaa_aaaa_aazz_rrrr_rrrr_cc_10 - graph
01b68                 | '   '' aaaa_aaaa_aaaa-aaaa_aarr_rrrr_rrrr_rr_11 - extended, next long to read
01b68                 | ' 
01b68                 | ' '   0 - display a up/down border line
01b68                 | ' 
01b68                 | ' '  ' aaaa_aaaa_aaaa_aaaa_aazz_nnnn_llll_ll_01 - text line
01b68                 | ' '    aaaa_aaaa_aaaa_aaaa_aa00 - buffer start, has to be aligned, 1 long for char, ff_bb_rr_cc, foreground, background,reserved, charcode
01b68                 | ' '    zz - zoom, 00-x1, 01-x2, 10-x4, 11-blank line
01b68                 | ' '    nnnn - font line to display, 0..15
01b68                 | ' '    llllll - character line, determines the cursor Y position
01b68                 | ' 
01b68                 | '  
01b68                 | ' if (mode &256==0)
01b68     00 A5 CD F7 | 	test	_var01, #256 wz
01b6c     1C 00 90 5D |  if_ne	jmp	#LR__0061
01b70     CF A6 01 FB | 	rdlong	_var02, objptr
01b74     04 00 00 FF 
01b78     00 A7 85 F1 | 	sub	_var02, ##2304
01b7c                 | '   dl_ptr:=buf_ptr-4*576
01b7c     1C 9E 05 F1 | 	add	objptr, #28
01b80     CF A6 61 FC | 	wrlong	_var02, objptr
01b84     1C 9E 85 F1 | 	sub	objptr, #28
01b88                 | ' else
01b88     18 00 90 FD | 	jmp	#LR__0062
01b8c                 | LR__0061
01b8c     CF A8 01 FB | 	rdlong	_var03, objptr
01b90     03 00 00 FF 
01b94     C0 A9 85 F1 | 	sub	_var03, ##1984
01b98                 | '   dl_ptr:=buf_ptr-4*496
01b98     1C 9E 05 F1 | 	add	objptr, #28
01b9c     CF A8 61 FC | 	wrlong	_var03, objptr
01ba0     1C 9E 85 F1 | 	sub	objptr, #28
01ba4                 | LR__0062
01ba4     D2 AA 01 F6 | 	mov	_var04, _var01
01ba8     02 AA 45 F0 | 	shr	_var04, #2
01bac     D5 AC 01 F6 | 	mov	_var05, _var04
01bb0     03 AC 05 F5 | 	and	_var05, #3
01bb4                 | ' 
01bb4                 | ' vzoom:=((mode>>2) & 3)
01bb4     D6 AE 01 F6 | 	mov	_var06, _var05
01bb8                 | ' 
01bb8                 | ' 
01bb8                 | ' if mode<512 '' text modes
01bb8     01 00 00 FF 
01bbc     00 A4 5D F2 | 	cmps	_var01, ##512 wcz
01bc0     28 02 90 3D |  if_ae	jmp	#LR__0070
01bc4                 | ' 
01bc4                 | '   if timings[6]>0 'borders
01bc4     68 9E 05 F1 | 	add	objptr, #104
01bc8     CF B0 01 FB | 	rdlong	_var07, objptr
01bcc     68 9E 85 F1 | 	sub	objptr, #104
01bd0     00 B0 5D F2 | 	cmps	_var07, #0 wcz
01bd4     E0 00 90 ED |  if_be	jmp	#LR__0067
01bd8                 | '     repeat i from 0 to timings[6]-1 '0 to -1
01bd8     00 B2 05 F6 | 	mov	_var08, #0
01bdc     68 9E 05 F1 | 	add	objptr, #104
01be0     CF B4 01 FB | 	rdlong	_var09, objptr
01be4     68 9E 85 F1 | 	sub	objptr, #104
01be8     01 B4 85 F1 | 	sub	_var09, #1
01bec     00 B4 5D F2 | 	cmps	_var09, #0 wcz
01bf0     01 B6 05 16 |  if_a	mov	_var10, #1
01bf4     01 B6 65 E6 |  if_be	neg	_var10, #1
01bf8     DB B8 01 F6 | 	mov	_var11, _var10
01bfc     DB B4 01 F1 | 	add	_var09, _var10
01c00     24 E4 9F FE | 	loc	pa,	#(@LR__0064-@LR__0063)
01c04     93 00 A0 FD | 	call	#FCACHE_LOAD_
01c08                 | LR__0063
01c08     D9 BA 01 F6 | 	mov	_var12, _var08
01c0c     02 BA 65 F0 | 	shl	_var12, #2
01c10     1C 9E 05 F1 | 	add	objptr, #28
01c14     CF BC 01 FB | 	rdlong	_var13, objptr
01c18     1C 9E 85 F1 | 	sub	objptr, #28
01c1c     DD BC 01 F1 | 	add	_var13, _var12
01c20                 | '       long[dl_ptr+4*i]:=$0
01c20     DE 00 68 FC | 	wrlong	#0, _var13
01c24     DC B2 01 F1 | 	add	_var08, _var11
01c28     DA B2 09 F2 | 	cmp	_var08, _var09 wz
01c2c     D8 FF 9F 5D |  if_ne	jmp	#LR__0063
01c30                 | LR__0064
01c30                 | '     repeat i from timings[6]+timings[12] to timings[15]-1
01c30     68 9E 05 F1 | 	add	objptr, #104
01c34     CF B2 01 FB | 	rdlong	_var08, objptr
01c38     18 9E 05 F1 | 	add	objptr, #24
01c3c     CF B6 01 FB | 	rdlong	_var10, objptr
01c40     DB B2 01 F1 | 	add	_var08, _var10
01c44     0C 9E 05 F1 | 	add	objptr, #12
01c48     CF BE 01 FB | 	rdlong	_var14, objptr
01c4c     01 BE 85 F1 | 	sub	_var14, #1
01c50     24 9E 85 F1 | 	sub	objptr, #36
01c54     CF C0 01 FB | 	rdlong	_var15, objptr
01c58     18 9E 05 F1 | 	add	objptr, #24
01c5c     CF C2 01 FB | 	rdlong	_var16, objptr
01c60     80 9E 85 F1 | 	sub	objptr, #128
01c64     E1 C0 01 F1 | 	add	_var15, _var16
01c68     E0 BE 59 F2 | 	cmps	_var14, _var15 wcz
01c6c     01 C4 05 16 |  if_a	mov	_var17, #1
01c70     01 C4 65 E6 |  if_be	neg	_var17, #1
01c74     E2 C6 01 F6 | 	mov	_var18, _var17
01c78     E2 BE 01 F1 | 	add	_var14, _var17
01c7c     B4 E3 9F FE | 	loc	pa,	#(@LR__0066-@LR__0065)
01c80     93 00 A0 FD | 	call	#FCACHE_LOAD_
01c84                 | LR__0065
01c84     D9 C8 01 F6 | 	mov	_var19, _var08
01c88     02 C8 65 F0 | 	shl	_var19, #2
01c8c     1C 9E 05 F1 | 	add	objptr, #28
01c90     CF CA 01 FB | 	rdlong	_var20, objptr
01c94     1C 9E 85 F1 | 	sub	objptr, #28
01c98     E5 CC 01 F6 | 	mov	_var21, _var20
01c9c     E4 CC 01 F1 | 	add	_var21, _var19
01ca0                 | '       long[dl_ptr+4*i]:=$0
01ca0     E6 00 68 FC | 	wrlong	#0, _var21
01ca4     D9 CE 01 F6 | 	mov	_var22, _var08
01ca8     E3 CE 01 F1 | 	add	_var22, _var18
01cac     E7 B2 01 F6 | 	mov	_var08, _var22
01cb0     DF B2 09 F2 | 	cmp	_var08, _var14 wz
01cb4     CC FF 9F 5D |  if_ne	jmp	#LR__0065
01cb8                 | LR__0066
01cb8                 | LR__0067
01cb8     10 D0 05 F6 | 	mov	_var23, #16
01cbc     D7 D0 61 F0 | 	shl	_var23, _var06
01cc0                 | '   lpc:=16<<vzoom
01cc0     E8 D2 01 F6 | 	mov	_var24, _var23
01cc4                 | '   repeat i from timings[6] to timings[6]+timings[12]-1
01cc4     68 9E 05 F1 | 	add	objptr, #104
01cc8     CF B2 01 FB | 	rdlong	_var08, objptr
01ccc     D9 D4 01 F6 | 	mov	_var25, _var08
01cd0     18 9E 05 F1 | 	add	objptr, #24
01cd4     CF D6 01 FB | 	rdlong	_var26, objptr
01cd8     EB D4 01 F1 | 	add	_var25, _var26
01cdc     01 D4 85 F1 | 	sub	_var25, #1
01ce0     18 9E 85 F1 | 	sub	objptr, #24
01ce4     CF C4 01 FB | 	rdlong	_var17, objptr
01ce8     68 9E 85 F1 | 	sub	objptr, #104
01cec     E2 D4 59 F2 | 	cmps	_var25, _var17 wcz
01cf0     01 D8 05 16 |  if_a	mov	_var27, #1
01cf4     01 D8 65 E6 |  if_be	neg	_var27, #1
01cf8     EC DA 01 F6 | 	mov	_var28, _var27
01cfc     EC D4 01 F1 | 	add	_var25, _var27
01d00     E0 E3 9F FE | 	loc	pa,	#(@LR__0069-@LR__0068)
01d04     93 00 A0 FD | 	call	#FCACHE_LOAD_
01d08                 | LR__0068
01d08     D9 DC 01 F6 | 	mov	_var29, _var08
01d0c     68 9E 05 F1 | 	add	objptr, #104
01d10     CF DE 01 FB | 	rdlong	_var30, objptr
01d14     68 9E 85 F1 | 	sub	objptr, #104
01d18     EF DC 81 F1 | 	sub	_var29, _var30
01d1c     EE 9A 02 F6 | 	mov	muldiva_, _var29
01d20     E9 9C 02 F6 | 	mov	muldivb_, _var24
01d24     BF 00 A0 FD | 	call	#unsdivide_
01d28     4D E1 01 F6 | 	mov	_var31, muldiva_
01d2c     F0 E2 01 F6 | 	mov	_var32, _var31
01d30     D7 E2 41 F0 | 	shr	_var32, _var06
01d34                 | '     fontline2:=((i-timings[6])+//lpc)>>vzoom
01d34     F1 E4 01 F6 | 	mov	_var33, _var32
01d38     D9 E6 01 F6 | 	mov	_var34, _var08
01d3c     68 9E 05 F1 | 	add	objptr, #104
01d40     CF DE 01 FB | 	rdlong	_var30, objptr
01d44     68 9E 85 F1 | 	sub	objptr, #104
01d48     EF E6 81 F1 | 	sub	_var34, _var30
01d4c     F3 9A 02 F6 | 	mov	muldiva_, _var34
01d50     E9 9C 02 F6 | 	mov	muldivb_, _var24
01d54     BF 00 A0 FD | 	call	#unsdivide_
01d58     4E E9 01 F6 | 	mov	_var35, muldivb_
01d5c                 | '     charline:=(i-timings[6])+/lpc
01d5c     F4 EA 01 F6 | 	mov	_var36, _var35
01d60     90 9E 05 F1 | 	add	objptr, #144
01d64     CF DE 01 FB | 	rdlong	_var30, objptr
01d68     90 9E 85 F1 | 	sub	objptr, #144
01d6c     F5 DE 01 FD | 	qmul	_var30, _var36
01d70     18 EC 61 FD | 	getqx	_var37
01d74     F6 EE 01 F6 | 	mov	_var38, _var37
01d78     02 EE 65 F0 | 	shl	_var38, #2
01d7c     CF F0 01 FB | 	rdlong	_var39, objptr
01d80     F7 F0 01 F1 | 	add	_var39, _var38
01d84     D2 F2 01 F6 | 	mov	_var40, _var01
01d88     03 F2 05 F5 | 	and	_var40, #3
01d8c     F8 F4 01 F6 | 	mov	_var41, _var39
01d90     F9 F4 01 F1 | 	add	_var41, _var40
01d94                 | '     bufstart:=buf_ptr+4*((cpl)*charline)+(mode&3)
01d94     FA F6 01 F6 | 	mov	_var42, _var41
01d98     0C F6 65 F0 | 	shl	_var42, #12
01d9c     F2 F8 01 F6 | 	mov	_var43, _var33
01da0     08 F8 65 F0 | 	shl	_var43, #8
01da4     FB FA 01 F6 | 	mov	_var44, _var42
01da8     FC FA 01 F1 | 	add	_var44, _var43
01dac     F5 FC 01 F6 | 	mov	_var45, _var36
01db0     02 FC 65 F0 | 	shl	_var45, #2
01db4     FD FE 01 F6 | 	mov	_var46, _var44
01db8     FE FE 01 F1 | 	add	_var46, _var45
01dbc     FF 00 02 F6 | 	mov	_var47, _var46
01dc0     01 00 06 F1 | 	add	_var47, #1
01dc4     D9 02 02 F6 | 	mov	_var48, _var08
01dc8     02 02 66 F0 | 	shl	_var48, #2
01dcc     1C 9E 05 F1 | 	add	objptr, #28
01dd0     CF 04 02 FB | 	rdlong	_var49, objptr
01dd4     1C 9E 85 F1 | 	sub	objptr, #28
01dd8     01 05 02 F1 | 	add	_var49, _var48
01ddc                 | '     long[dl_ptr+4*i]:=(bufstart<<12)+(fontline2<<8)+(charline<<2)+1
01ddc     02 01 62 FC | 	wrlong	_var47, _var49
01de0     ED B2 01 F1 | 	add	_var08, _var28
01de4     EA B2 09 F2 | 	cmp	_var08, _var25 wz
01de8     1C FF 9F 5D |  if_ne	jmp	#LR__0068
01dec                 | LR__0069
01dec                 | LR__0070
01dec                 | ' 
01dec                 | ' 
01dec                 | ' 
01dec                 | ' if (mode>=512) and (mode<4096)' and (mode & (%10_00_00_0000))==(%10_00_00_0000) ' graphics -> all modes TODO :mode 560+192=752 = 10_11_11_0000 impossib,e because out of memory
01dec     01 00 00 FF 
01df0     00 A4 5D F2 | 	cmps	_var01, ##512 wcz
01df4     08 02 90 CD |  if_b	jmp	#LR__0078
01df8     08 00 00 FF 
01dfc     00 A4 5D F2 | 	cmps	_var01, ##4096 wcz
01e00     FC 01 90 3D |  if_ae	jmp	#LR__0078
01e04                 | ' 
01e04                 | '   if timings[6]>0 'borders
01e04     68 9E 05 F1 | 	add	objptr, #104
01e08     CF B0 01 FB | 	rdlong	_var07, objptr
01e0c     68 9E 85 F1 | 	sub	objptr, #104
01e10     00 B0 5D F2 | 	cmps	_var07, #0 wcz
01e14     E0 00 90 ED |  if_be	jmp	#LR__0075
01e18                 | '     repeat i from 0 to timings[6]-1 '0 to -1
01e18     00 B2 05 F6 | 	mov	_var08, #0
01e1c     68 9E 05 F1 | 	add	objptr, #104
01e20     CF 06 02 FB | 	rdlong	_var50, objptr
01e24     68 9E 85 F1 | 	sub	objptr, #104
01e28     01 06 86 F1 | 	sub	_var50, #1
01e2c     00 06 5E F2 | 	cmps	_var50, #0 wcz
01e30     01 B6 05 16 |  if_a	mov	_var10, #1
01e34     01 B6 65 E6 |  if_be	neg	_var10, #1
01e38     DB 08 02 F6 | 	mov	_var51, _var10
01e3c     DB 06 02 F1 | 	add	_var50, _var10
01e40     E4 E1 9F FE | 	loc	pa,	#(@LR__0072-@LR__0071)
01e44     93 00 A0 FD | 	call	#FCACHE_LOAD_
01e48                 | LR__0071
01e48     D9 0A 02 F6 | 	mov	_var52, _var08
01e4c     02 0A 66 F0 | 	shl	_var52, #2
01e50     1C 9E 05 F1 | 	add	objptr, #28
01e54     CF 0C 02 FB | 	rdlong	_var53, objptr
01e58     1C 9E 85 F1 | 	sub	objptr, #28
01e5c     05 0D 02 F1 | 	add	_var53, _var52
01e60                 | '       long[dl_ptr+4*i]:=$0
01e60     06 01 68 FC | 	wrlong	#0, _var53
01e64     04 B3 01 F1 | 	add	_var08, _var51
01e68     03 B3 09 F2 | 	cmp	_var08, _var50 wz
01e6c     D8 FF 9F 5D |  if_ne	jmp	#LR__0071
01e70                 | LR__0072
01e70                 | '     repeat i from timings[6]+timings[12] to timings[15]-1
01e70     68 9E 05 F1 | 	add	objptr, #104
01e74     CF B2 01 FB | 	rdlong	_var08, objptr
01e78     18 9E 05 F1 | 	add	objptr, #24
01e7c     CF B6 01 FB | 	rdlong	_var10, objptr
01e80     DB B2 01 F1 | 	add	_var08, _var10
01e84     0C 9E 05 F1 | 	add	objptr, #12
01e88     CF 0E 02 FB | 	rdlong	_var54, objptr
01e8c     01 0E 86 F1 | 	sub	_var54, #1
01e90     24 9E 85 F1 | 	sub	objptr, #36
01e94     CF C0 01 FB | 	rdlong	_var15, objptr
01e98     18 9E 05 F1 | 	add	objptr, #24
01e9c     CF C2 01 FB | 	rdlong	_var16, objptr
01ea0     80 9E 85 F1 | 	sub	objptr, #128
01ea4     E1 C0 01 F1 | 	add	_var15, _var16
01ea8     E0 0E 5A F2 | 	cmps	_var54, _var15 wcz
01eac     01 C4 05 16 |  if_a	mov	_var17, #1
01eb0     01 C4 65 E6 |  if_be	neg	_var17, #1
01eb4     E2 10 02 F6 | 	mov	_var55, _var17
01eb8     E2 0E 02 F1 | 	add	_var54, _var17
01ebc     74 E1 9F FE | 	loc	pa,	#(@LR__0074-@LR__0073)
01ec0     93 00 A0 FD | 	call	#FCACHE_LOAD_
01ec4                 | LR__0073
01ec4     D9 12 02 F6 | 	mov	_var56, _var08
01ec8     02 12 66 F0 | 	shl	_var56, #2
01ecc     1C 9E 05 F1 | 	add	objptr, #28
01ed0     CF CA 01 FB | 	rdlong	_var20, objptr
01ed4     1C 9E 85 F1 | 	sub	objptr, #28
01ed8     E5 14 02 F6 | 	mov	_var57, _var20
01edc     09 15 02 F1 | 	add	_var57, _var56
01ee0                 | '       long[dl_ptr+4*i]:=$0
01ee0     0A 01 68 FC | 	wrlong	#0, _var57
01ee4     D9 CE 01 F6 | 	mov	_var22, _var08
01ee8     08 CF 01 F1 | 	add	_var22, _var55
01eec     E7 B2 01 F6 | 	mov	_var08, _var22
01ef0     07 B3 09 F2 | 	cmp	_var08, _var54 wz
01ef4     CC FF 9F 5D |  if_ne	jmp	#LR__0073
01ef8                 | LR__0074
01ef8                 | LR__0075
01ef8                 | '   repeat i from timings[6] to timings[6]+timings[12]-1
01ef8     68 9E 05 F1 | 	add	objptr, #104
01efc     CF B0 01 FB | 	rdlong	_var07, objptr
01f00     D8 B2 01 F6 | 	mov	_var08, _var07
01f04     D8 B6 01 F6 | 	mov	_var10, _var07
01f08     DB 16 02 F6 | 	mov	_var58, _var10
01f0c     18 9E 05 F1 | 	add	objptr, #24
01f10     CF 18 02 FB | 	rdlong	_var59, objptr
01f14     0C D7 01 F6 | 	mov	_var26, _var59
01f18     0C 17 02 F1 | 	add	_var58, _var59
01f1c     01 16 86 F1 | 	sub	_var58, #1
01f20     18 9E 85 F1 | 	sub	objptr, #24
01f24     CF C0 01 FB | 	rdlong	_var15, objptr
01f28     68 9E 85 F1 | 	sub	objptr, #104
01f2c     E0 C4 01 F6 | 	mov	_var17, _var15
01f30     E2 16 5A F2 | 	cmps	_var58, _var17 wcz
01f34     01 D8 05 16 |  if_a	mov	_var27, #1
01f38     01 D8 65 E6 |  if_be	neg	_var27, #1
01f3c     EC 1A 02 F6 | 	mov	_var60, _var27
01f40     0B 1D 02 F6 | 	mov	_var61, _var58
01f44     0D 1D 02 F1 | 	add	_var61, _var60
01f48     0E 1F 02 F6 | 	mov	_var62, _var61
01f4c     5C E1 9F FE | 	loc	pa,	#(@LR__0077-@LR__0076)
01f50     93 00 A0 FD | 	call	#FCACHE_LOAD_
01f54                 | LR__0076
01f54     D9 20 02 F6 | 	mov	_var63, _var08
01f58     68 9E 05 F1 | 	add	objptr, #104
01f5c     CF DE 01 FB | 	rdlong	_var30, objptr
01f60     EF 20 82 F1 | 	sub	_var63, _var30
01f64     10 23 02 F6 | 	mov	_var64, _var63
01f68     D7 22 42 F0 | 	shr	_var64, _var06
01f6c     28 9E 05 F1 | 	add	objptr, #40
01f70     CF 24 02 FB | 	rdlong	_var65, objptr
01f74     90 9E 85 F1 | 	sub	objptr, #144
01f78     11 25 02 FD | 	qmul	_var65, _var64
01f7c     18 26 62 FD | 	getqx	_var66
01f80     13 29 02 F6 | 	mov	_var67, _var66
01f84     02 28 66 F0 | 	shl	_var67, #2
01f88     CF 2A 02 FB | 	rdlong	_var68, objptr
01f8c     14 2B 02 F1 | 	add	_var68, _var67
01f90     D2 2C 02 F6 | 	mov	_var69, _var01
01f94     03 2C 06 F5 | 	and	_var69, #3
01f98     15 2F 02 F6 | 	mov	_var70, _var68
01f9c     16 2F 02 F1 | 	add	_var70, _var69
01fa0                 | '     bufstart:=buf_ptr+4*(cpl*((i-timings[6])>>vzoom))+(mode&3)
01fa0     17 31 02 F6 | 	mov	_var71, _var70
01fa4     18 33 02 F6 | 	mov	_var72, _var71
01fa8     0C 32 66 F0 | 	shl	_var72, #12
01fac     19 35 02 F6 | 	mov	_var73, _var72
01fb0     02 34 06 F1 | 	add	_var73, #2
01fb4     D2 36 02 F6 | 	mov	_var74, _var01
01fb8     30 36 06 F5 | 	and	_var74, #48
01fbc     1B 39 02 F6 | 	mov	_var75, _var74
01fc0     02 38 46 F0 | 	shr	_var75, #2
01fc4     1A 3B 02 F6 | 	mov	_var76, _var73
01fc8     1C 3B 02 F1 | 	add	_var76, _var75
01fcc     D9 3C 02 F6 | 	mov	_var77, _var08
01fd0     02 3C 66 F0 | 	shl	_var77, #2
01fd4     1C 9E 05 F1 | 	add	objptr, #28
01fd8     CF DE 01 FB | 	rdlong	_var30, objptr
01fdc     1C 9E 85 F1 | 	sub	objptr, #28
01fe0     EF 3E 02 F6 | 	mov	_var78, _var30
01fe4     1E 3F 02 F1 | 	add	_var78, _var77
01fe8                 | '     long[dl_ptr+4*i]:=(bufstart<<12)+2+(mode &48)>>2
01fe8     1F 3B 62 FC | 	wrlong	_var76, _var78
01fec     D9 C2 01 F6 | 	mov	_var16, _var08
01ff0     0D C3 01 F1 | 	add	_var16, _var60
01ff4     E1 B2 01 F6 | 	mov	_var08, _var16
01ff8     0F B3 09 F2 | 	cmp	_var08, _var62 wz
01ffc     54 FF 9F 5D |  if_ne	jmp	#LR__0076
02000                 | LR__0077
02000                 | LR__0078
02000                 | ' 
02000                 | ' 
02000                 | ' if (mode==4096) ' graphics -> all modes TODO :mode 560+192=752 = 10_11_11_0000 impossib,e because out of memory
02000     08 00 00 FF 
02004     00 A4 0D F2 | 	cmp	_var01, ##4096 wz
02008     9C 01 90 5D |  if_ne	jmp	#LR__0086
0200c                 | ' 
0200c                 | ' 
0200c                 | ' 
0200c                 | '   if timings[6]>0 'borders
0200c     68 9E 05 F1 | 	add	objptr, #104
02010     CF B0 01 FB | 	rdlong	_var07, objptr
02014     68 9E 85 F1 | 	sub	objptr, #104
02018     00 B0 5D F2 | 	cmps	_var07, #0 wcz
0201c     D4 00 90 ED |  if_be	jmp	#LR__0083
02020                 | '     repeat i from 0 to timings[6]-1 '0 to -1
02020     00 B2 05 F6 | 	mov	_var08, #0
02024     68 9E 05 F1 | 	add	objptr, #104
02028     CF 40 02 FB | 	rdlong	_var79, objptr
0202c     68 9E 85 F1 | 	sub	objptr, #104
02030     01 40 86 F1 | 	sub	_var79, #1
02034     00 40 5E F2 | 	cmps	_var79, #0 wcz
02038     01 B6 05 16 |  if_a	mov	_var10, #1
0203c     01 B6 65 E6 |  if_be	neg	_var10, #1
02040     DB 42 02 F6 | 	mov	_var80, _var10
02044     DB 40 02 F1 | 	add	_var79, _var10
02048     DC DF 9F FE | 	loc	pa,	#(@LR__0080-@LR__0079)
0204c     93 00 A0 FD | 	call	#FCACHE_LOAD_
02050                 | LR__0079
02050     D9 44 02 F6 | 	mov	_var81, _var08
02054     02 44 66 F0 | 	shl	_var81, #2
02058     1C 9E 05 F1 | 	add	objptr, #28
0205c     CF 46 02 FB | 	rdlong	_var82, objptr
02060     1C 9E 85 F1 | 	sub	objptr, #28
02064     22 47 02 F1 | 	add	_var82, _var81
02068                 | '       long[dl_ptr+4*i]:=$0
02068     23 01 68 FC | 	wrlong	#0, _var82
0206c     21 B3 01 F1 | 	add	_var08, _var80
02070     20 B3 09 F2 | 	cmp	_var08, _var79 wz
02074     D8 FF 9F 5D |  if_ne	jmp	#LR__0079
02078                 | LR__0080
02078                 | '     repeat i from timings[6]+timings[12] to timings[15]-1
02078     68 9E 05 F1 | 	add	objptr, #104
0207c     CF B2 01 FB | 	rdlong	_var08, objptr
02080     18 9E 05 F1 | 	add	objptr, #24
02084     CF B6 01 FB | 	rdlong	_var10, objptr
02088     DB B2 01 F1 | 	add	_var08, _var10
0208c     0C 9E 05 F1 | 	add	objptr, #12
02090     CF 48 02 FB | 	rdlong	_var83, objptr
02094     01 48 86 F1 | 	sub	_var83, #1
02098     24 9E 85 F1 | 	sub	objptr, #36
0209c     CF C0 01 FB | 	rdlong	_var15, objptr
020a0     18 9E 05 F1 | 	add	objptr, #24
020a4     CF C2 01 FB | 	rdlong	_var16, objptr
020a8     80 9E 85 F1 | 	sub	objptr, #128
020ac     E1 C0 01 F1 | 	add	_var15, _var16
020b0     E0 48 5A F2 | 	cmps	_var83, _var15 wcz
020b4     01 C4 05 16 |  if_a	mov	_var17, #1
020b8     01 C4 65 E6 |  if_be	neg	_var17, #1
020bc     E2 4A 02 F6 | 	mov	_var84, _var17
020c0     E2 48 02 F1 | 	add	_var83, _var17
020c4     60 DF 9F FE | 	loc	pa,	#(@LR__0082-@LR__0081)
020c8     93 00 A0 FD | 	call	#FCACHE_LOAD_
020cc                 | LR__0081
020cc     D9 4C 02 F6 | 	mov	_var85, _var08
020d0     02 4C 66 F0 | 	shl	_var85, #2
020d4     1C 9E 05 F1 | 	add	objptr, #28
020d8     CF 4E 02 FB | 	rdlong	_var86, objptr
020dc     1C 9E 85 F1 | 	sub	objptr, #28
020e0     26 4F 02 F1 | 	add	_var86, _var85
020e4                 | '       long[dl_ptr+4*i]:=$0
020e4     27 01 68 FC | 	wrlong	#0, _var86
020e8     25 B3 01 F1 | 	add	_var08, _var84
020ec     24 B3 09 F2 | 	cmp	_var08, _var83 wz
020f0     D8 FF 9F 5D |  if_ne	jmp	#LR__0081
020f4                 | LR__0082
020f4                 | LR__0083
020f4                 | '   repeat i from timings[6] to timings[6]+timings[12]-1
020f4     68 9E 05 F1 | 	add	objptr, #104
020f8     CF B2 01 FB | 	rdlong	_var08, objptr
020fc     D9 50 02 F6 | 	mov	_var87, _var08
02100     18 9E 05 F1 | 	add	objptr, #24
02104     CF D6 01 FB | 	rdlong	_var26, objptr
02108     EB 50 02 F1 | 	add	_var87, _var26
0210c     01 50 86 F1 | 	sub	_var87, #1
02110     18 9E 85 F1 | 	sub	objptr, #24
02114     CF C4 01 FB | 	rdlong	_var17, objptr
02118     68 9E 85 F1 | 	sub	objptr, #104
0211c     E2 50 5A F2 | 	cmps	_var87, _var17 wcz
02120     01 D8 05 16 |  if_a	mov	_var27, #1
02124     01 D8 65 E6 |  if_be	neg	_var27, #1
02128     EC 52 02 F6 | 	mov	_var88, _var27
0212c     EC 50 02 F1 | 	add	_var87, _var27
02130     3C DF 9F FE | 	loc	pa,	#(@LR__0085-@LR__0084)
02134     93 00 A0 FD | 	call	#FCACHE_LOAD_
02138                 | LR__0084
02138     D9 54 02 F6 | 	mov	_var89, _var08
0213c     68 9E 05 F1 | 	add	objptr, #104
02140     CF DE 01 FB | 	rdlong	_var30, objptr
02144     EF 54 82 F1 | 	sub	_var89, _var30
02148     D7 54 42 F0 | 	shr	_var89, _var06
0214c     28 9E 05 F1 | 	add	objptr, #40
02150     CF DE 01 FB | 	rdlong	_var30, objptr
02154     90 9E 85 F1 | 	sub	objptr, #144
02158     2A DF 01 FD | 	qmul	_var30, _var89
0215c     18 56 62 FD | 	getqx	_var90
02160     02 56 66 F0 | 	shl	_var90, #2
02164     CF 58 02 FB | 	rdlong	_var91, objptr
02168     2B 59 02 F1 | 	add	_var91, _var90
0216c     D2 5A 02 F6 | 	mov	_var92, _var01
02170     03 5A 06 F5 | 	and	_var92, #3
02174     2D 59 02 F1 | 	add	_var91, _var92
02178                 | '     bufstart:=buf_ptr+4*(cpl*((i-timings[6])>>vzoom))+(mode&3)
02178     0C 58 66 F0 | 	shl	_var91, #12
0217c     0A 58 06 F1 | 	add	_var91, #10
02180     D9 5C 02 F6 | 	mov	_var93, _var08
02184     02 5C 66 F0 | 	shl	_var93, #2
02188     1C 9E 05 F1 | 	add	objptr, #28
0218c     CF 5E 02 FB | 	rdlong	_var94, objptr
02190     1C 9E 85 F1 | 	sub	objptr, #28
02194     2E 5F 02 F1 | 	add	_var94, _var93
02198                 | '     long[dl_ptr+4*i]:=(bufstart<<12)+2+(32)>>2
02198     2F 59 62 FC | 	wrlong	_var91, _var94
0219c     29 B3 01 F1 | 	add	_var08, _var88
021a0     28 B3 09 F2 | 	cmp	_var08, _var87 wz
021a4     90 FF 9F 5D |  if_ne	jmp	#LR__0084
021a8                 | LR__0085
021a8                 | LR__0086
021a8                 | _makedl_ret
021a8     2D 00 64 FD | 	ret
021ac                 | hubexit
021ac     81 00 80 FD | 	jmp	#cogexit
021b0                 | 
021b0                 | __system____builtin_memset
021b0     30 A5 01 F6 | 	mov	_var01, arg01
021b4     31 A7 01 F6 | 	mov	_var02, arg02
021b8     08 A6 65 F0 | 	shl	_var02, #8
021bc     31 A7 41 F5 | 	or	_var02, arg02
021c0     D3 A8 01 F6 | 	mov	_var03, _var02
021c4     10 A8 65 F0 | 	shl	_var03, #16
021c8     D3 A8 41 F5 | 	or	_var03, _var02
021cc     48 DE 9F FE | 	loc	pa,	#(@LR__0088-@LR__0087)
021d0     93 00 A0 FD | 	call	#FCACHE_LOAD_
021d4                 | LR__0087
021d4     03 64 5E F2 | 	cmps	arg03, #3 wcz
021d8     10 00 90 ED |  if_be	jmp	#LR__0089
021dc     30 A9 61 FC | 	wrlong	_var03, arg01
021e0     04 60 06 F1 | 	add	arg01, #4
021e4     04 64 86 F1 | 	sub	arg03, #4
021e8     E8 FF 9F FD | 	jmp	#LR__0087
021ec                 | LR__0088
021ec                 | LR__0089
021ec     00 64 0E F2 | 	cmp	arg03, #0 wz
021f0     14 00 90 AD |  if_e	jmp	#LR__0094
021f4     14 DE 9F FE | 	loc	pa,	#(@LR__0092-@LR__0090)
021f8     93 00 A0 FD | 	call	#FCACHE_LOAD_
021fc                 | LR__0090
021fc     32 05 D8 FC | 	rep	@LR__0093, arg03
02200                 | LR__0091
02200     30 63 42 FC | 	wrbyte	arg02, arg01
02204     01 60 06 F1 | 	add	arg01, #1
02208                 | LR__0092
02208                 | LR__0093
02208                 | LR__0094
02208     D2 A2 01 F6 | 	mov	result1, _var01
0220c                 | __system____builtin_memset_ret
0220c     2D 00 64 FD | 	ret
02210                 | 
02210                 | __system____builtin_memmove
02210     30 A5 01 F6 | 	mov	_var01, arg01
02214     31 61 5A F2 | 	cmps	arg01, arg02 wcz
02218     50 00 90 3D |  if_ae	jmp	#LR__0102
0221c     00 DE 9F FE | 	loc	pa,	#(@LR__0096-@LR__0095)
02220     93 00 A0 FD | 	call	#FCACHE_LOAD_
02224                 | LR__0095
02224     03 64 5E F2 | 	cmps	arg03, #3 wcz
02228     18 00 90 ED |  if_be	jmp	#LR__0097
0222c     31 A7 01 FB | 	rdlong	_var02, arg02
02230     30 A7 61 FC | 	wrlong	_var02, arg01
02234     04 60 06 F1 | 	add	arg01, #4
02238     04 62 06 F1 | 	add	arg02, #4
0223c     04 64 86 F1 | 	sub	arg03, #4
02240     E0 FF 9F FD | 	jmp	#LR__0095
02244                 | LR__0096
02244                 | LR__0097
02244     32 A9 09 F6 | 	mov	_var03, arg03 wz
02248     4C 00 90 AD |  if_e	jmp	#LR__0108
0224c     C4 DD 9F FE | 	loc	pa,	#(@LR__0100-@LR__0098)
02250     93 00 A0 FD | 	call	#FCACHE_LOAD_
02254                 | LR__0098
02254     D4 08 D8 FC | 	rep	@LR__0101, _var03
02258                 | LR__0099
02258     31 A7 C1 FA | 	rdbyte	_var02, arg02
0225c     30 A7 41 FC | 	wrbyte	_var02, arg01
02260     01 60 06 F1 | 	add	arg01, #1
02264     01 62 06 F1 | 	add	arg02, #1
02268                 | LR__0100
02268                 | LR__0101
02268     2C 00 90 FD | 	jmp	#LR__0108
0226c                 | LR__0102
0226c     32 61 02 F1 | 	add	arg01, arg03
02270     32 63 02 F1 | 	add	arg02, arg03
02274     32 AB 09 F6 | 	mov	_var04, arg03 wz
02278     1C 00 90 AD |  if_e	jmp	#LR__0107
0227c     94 DD 9F FE | 	loc	pa,	#(@LR__0105-@LR__0103)
02280     93 00 A0 FD | 	call	#FCACHE_LOAD_
02284                 | LR__0103
02284     D5 08 D8 FC | 	rep	@LR__0106, _var04
02288                 | LR__0104
02288     01 60 86 F1 | 	sub	arg01, #1
0228c     01 62 86 F1 | 	sub	arg02, #1
02290     31 A7 C1 FA | 	rdbyte	_var02, arg02
02294     30 A7 41 FC | 	wrbyte	_var02, arg01
02298                 | LR__0105
02298                 | LR__0106
02298                 | LR__0107
02298                 | LR__0108
02298     D2 A2 01 F6 | 	mov	result1, _var01
0229c                 | __system____builtin_memmove_ret
0229c     2D 00 64 FD | 	ret
022a0                 | 
022a0                 | __system__longmove
022a0     30 A5 01 F6 | 	mov	_var01, arg01
022a4     31 61 5A F2 | 	cmps	arg01, arg02 wcz
022a8     28 00 90 3D |  if_ae	jmp	#LR__0113
022ac     32 A7 09 F6 | 	mov	_var02, arg03 wz
022b0     54 00 90 AD |  if_e	jmp	#LR__0119
022b4     5C DD 9F FE | 	loc	pa,	#(@LR__0111-@LR__0109)
022b8     93 00 A0 FD | 	call	#FCACHE_LOAD_
022bc                 | LR__0109
022bc     D3 08 D8 FC | 	rep	@LR__0112, _var02
022c0                 | LR__0110
022c0     31 A9 01 FB | 	rdlong	_var03, arg02
022c4     30 A9 61 FC | 	wrlong	_var03, arg01
022c8     04 60 06 F1 | 	add	arg01, #4
022cc     04 62 06 F1 | 	add	arg02, #4
022d0                 | LR__0111
022d0                 | LR__0112
022d0     34 00 90 FD | 	jmp	#LR__0119
022d4                 | LR__0113
022d4     32 AB 01 F6 | 	mov	_var04, arg03
022d8     02 AA 65 F0 | 	shl	_var04, #2
022dc     D5 60 02 F1 | 	add	arg01, _var04
022e0     D5 62 02 F1 | 	add	arg02, _var04
022e4     32 AD 09 F6 | 	mov	_var05, arg03 wz
022e8     1C 00 90 AD |  if_e	jmp	#LR__0118
022ec     24 DD 9F FE | 	loc	pa,	#(@LR__0116-@LR__0114)
022f0     93 00 A0 FD | 	call	#FCACHE_LOAD_
022f4                 | LR__0114
022f4     D6 08 D8 FC | 	rep	@LR__0117, _var05
022f8                 | LR__0115
022f8     04 60 86 F1 | 	sub	arg01, #4
022fc     04 62 86 F1 | 	sub	arg02, #4
02300     31 A9 01 FB | 	rdlong	_var03, arg02
02304     30 A9 61 FC | 	wrlong	_var03, arg01
02308                 | LR__0116
02308                 | LR__0117
02308                 | LR__0118
02308                 | LR__0119
02308     D2 A2 01 F6 | 	mov	result1, _var01
0230c                 | __system__longmove_ret
0230c     2D 00 64 FD | 	ret
02310                 | 
02310                 | __system___waitms
02310     02 40 05 F6 | 	mov	COUNT_, #2
02314     A3 00 A0 FD | 	call	#pushregs_
02318     30 6B 02 F6 | 	mov	local01, arg01
0231c     14 6C 06 FB | 	rdlong	local02, #20
02320     F4 DC 9F FE | 	loc	pa,	#(@LR__0121-@LR__0120)
02324     93 00 A0 FD | 	call	#FCACHE_LOAD_
02328                 | LR__0120
02328     01 00 00 FF 
0232c     E8 6B 5E F2 | 	cmps	local01, ##1000 wcz
02330     1F 6C 62 1D |  if_a	waitx	local02
02334     01 00 00 1F 
02338     E8 6B 86 11 |  if_a	sub	local01, ##1000
0233c     E8 FF 9F 1D |  if_a	jmp	#LR__0120
02340                 | LR__0121
02340     00 6A 5E F2 | 	cmps	local01, #0 wcz
02344     1C 00 90 ED |  if_be	jmp	#LR__0122
02348     36 9B 02 F6 | 	mov	muldiva_, local02
0234c     01 00 00 FF 
02350     E8 9D 06 F6 | 	mov	muldivb_, ##1000
02354     C3 00 A0 FD | 	call	#divide_
02358     4E 6B 02 FD | 	qmul	local01, muldivb_
0235c     18 60 62 FD | 	getqx	arg01
02360     1F 60 62 FD | 	waitx	arg01
02364                 | LR__0122
02364     A2 F0 03 F6 | 	mov	ptra, fp
02368     B2 00 A0 FD | 	call	#popregs_
0236c                 | __system___waitms_ret
0236c     2D 00 64 FD | 	ret
02370                 | 
02370                 | __system___waitus
02370     02 40 05 F6 | 	mov	COUNT_, #2
02374     A3 00 A0 FD | 	call	#pushregs_
02378     30 6B 02 F6 | 	mov	local01, arg01
0237c     14 6C 06 FB | 	rdlong	local02, #20
02380     94 DC 9F FE | 	loc	pa,	#(@LR__0124-@LR__0123)
02384     93 00 A0 FD | 	call	#FCACHE_LOAD_
02388                 | LR__0123
02388     A1 07 00 FF 
0238c     40 6A 5E F2 | 	cmps	local01, ##1000000 wcz
02390     1F 6C 62 1D |  if_a	waitx	local02
02394     A1 07 00 1F 
02398     40 6A 86 11 |  if_a	sub	local01, ##1000000
0239c     E8 FF 9F 1D |  if_a	jmp	#LR__0123
023a0                 | LR__0124
023a0     00 6A 5E F2 | 	cmps	local01, #0 wcz
023a4     1C 00 90 ED |  if_be	jmp	#LR__0125
023a8     36 9B 02 F6 | 	mov	muldiva_, local02
023ac     A1 07 00 FF 
023b0     40 9C 06 F6 | 	mov	muldivb_, ##1000000
023b4     C3 00 A0 FD | 	call	#divide_
023b8     4E 6B 02 FD | 	qmul	local01, muldivb_
023bc     18 60 62 FD | 	getqx	arg01
023c0     1F 60 62 FD | 	waitx	arg01
023c4                 | LR__0125
023c4     A2 F0 03 F6 | 	mov	ptra, fp
023c8     B2 00 A0 FD | 	call	#popregs_
023cc                 | __system___waitus_ret
023cc     2D 00 64 FD | 	ret
023d0                 | 
023d0                 | LR__0126
023d0     6D 6F 64 65 | 	byte	"mode"
023d4     00          | 	byte	0
023d5                 | LR__0127
023d5     63 70 6C    | 	byte	"cpl"
023d8     00          | 	byte	0
023d9                 | LR__0128
023d9     62 75 66 70 
023dd     74 72       | 	byte	"bufptr"
023df     00          | 	byte	0
023e0                 | LR__0129
023e0     62 75 66 6C 
023e4     65 6E       | 	byte	"buflen"
023e6     00          | 	byte	0
023e7                 | LR__0130
023e7     6C 69 6E 65 
023eb     73          | 	byte	"lines"
023ec     00          | 	byte	0
023ed                 | LR__0131
023ed     6D 6F 64 65 | 	byte	"mode"
023f1     00          | 	byte	0
023f2                 | LR__0132
023f2     63 70 6C    | 	byte	"cpl"
023f5     00          | 	byte	0
023f6                 | LR__0133
023f6     62 75 66 5F 
023fa     70 74 72    | 	byte	"buf_ptr"
023fd     00          | 	byte	0
023fe                 | LR__0134
023fe     62 75 66 6C 
02402     65 6E       | 	byte	"buflen"
02404     00          | 	byte	0
02405                 | LR__0135
02405     6C 69 6E 65 
02409     73          | 	byte	"lines"
0240a     00          | 	byte	0
0240b                 | LR__0136
0240b     6D 6F 64 65 | 	byte	"mode"
0240f     00          | 	byte	0
02410                 | LR__0137
02410     63 70 6C    | 	byte	"cpl"
02413     00          | 	byte	0
02414                 | LR__0138
02414     62 75 66 5F 
02418     70 74 72    | 	byte	"buf_ptr"
0241b     00          | 	byte	0
0241c                 | LR__0139
0241c     62 75 66 6C 
02420     65 6E       | 	byte	"buflen"
02422     00          | 	byte	0
02423                 | LR__0140
02423     6C 69 6E 65 
02427     73          | 	byte	"lines"
02428     00          | 	byte	0
02429                 | LR__0141
02429     6D 6F 64 65 | 	byte	"mode"
0242d     00          | 	byte	0
0242e                 | LR__0142
0242e     63 70 6C    | 	byte	"cpl"
02431     00          | 	byte	0
02432                 | LR__0143
02432     62 75 66 5F 
02436     70 74 72    | 	byte	"buf_ptr"
02439     00          | 	byte	0
0243a                 | LR__0144
0243a     62 75 66 6C 
0243e     65 6E       | 	byte	"buflen"
02440     00          | 	byte	0
02441                 | LR__0145
02441     6C 69 6E 65 
02445     73          | 	byte	"lines"
02446     00          | 	byte	0
02447     00          | 	alignl
02448                 | _dat_
02448     00 00 00 00 
0244c     00 00 00 00 
02450     00 00 00 00 
02454     00 00 00 00 
02458     00 00 00    | vga_font       file "vgafont.def"
0245b     7E 81 A5 81 
0245f     81 BD 99 81 
02463     81 7E 00 00 
02467     00 00 00 00 | 	byte	$7e, $81, $a5, $81, $81, $bd, $99, $81, $81, $7e, $00, $00, $00, $00, $00, $00
0246b     7E FF DB FF 
0246f     FF C3 E7 FF 
02473     FF 7E 00 00 
02477     00 00 00 00 | 	byte	$7e, $ff, $db, $ff, $ff, $c3, $e7, $ff, $ff, $7e, $00, $00, $00, $00, $00, $00
0247b     00 36 7F 7F 
0247f     7F 7F 3E 1C 
02483     08 00 00 00 
02487     00 00 00 00 | 	byte	$00, $36, $7f, $7f, $7f, $7f, $3e, $1c, $08, $00, $00, $00, $00, $00, $00, $00
0248b     00 08 1C 3E 
0248f     7F 3E 1C 08 
02493     00 00 00 00 
02497     00 00 00 00 | 	byte	$00, $08, $1c, $3e, $7f, $3e, $1c, $08, $00, $00, $00, $00, $00, $00, $00, $00
0249b     18 3C 3C E7 
0249f     E7 E7 18 18 
024a3     3C 00 00 00 
024a7     00 00 00 00 | 	byte	$18, $3c, $3c, $e7, $e7, $e7, $18, $18, $3c, $00, $00, $00, $00, $00, $00, $00
024ab     18 3C 7E FF 
024af     FF 7E 18 18 
024b3     3C 00 00 00 
024b7     00 00 00 00 | 	byte	$18, $3c, $7e, $ff, $ff, $7e, $18, $18, $3c, $00, $00, $00, $00, $00, $00, $00
024bb     00 00 00 18 
024bf     3C 3C 18 00 
024c3     00 00 00 00 
024c7     00 FF FF FF | 	byte	$00, $00, $00, $18, $3c, $3c, $18, $00, $00, $00, $00, $00, $00, $ff, $ff, $ff
024cb     FF FF FF E7 
024cf     C3 C3 E7 FF 
024d3     FF FF FF FF 
024d7     FF 00 00 00 | 	byte	$ff, $ff, $ff, $e7, $c3, $c3, $e7, $ff, $ff, $ff, $ff, $ff, $ff, $00, $00, $00
024db     00 00 3C 66 
024df     42 42 66 3C 
024e3     00 00 00 00 
024e7     00 FF FF FF | 	byte	$00, $00, $3c, $66, $42, $42, $66, $3c, $00, $00, $00, $00, $00, $ff, $ff, $ff
024eb     FF FF C3 99 
024ef     BD BD 99 C3 
024f3     FF FF FF FF 
024f7     FF 00 00 00 | 	byte	$ff, $ff, $c3, $99, $bd, $bd, $99, $c3, $ff, $ff, $ff, $ff, $ff, $00, $00, $00
024fb     78 70 58 4C 
024ff     1E 33 33 33 
02503     33 1E 00 00 
02507     00 00 00 00 | 	byte	$78, $70, $58, $4c, $1e, $33, $33, $33, $33, $1e, $00, $00, $00, $00, $00, $00
0250b     3C 66 66 66 
0250f     66 3C 18 7E 
02513     18 18 00 00 
02517     00 00 00 00 | 	byte	$3c, $66, $66, $66, $66, $3c, $18, $7e, $18, $18, $00, $00, $00, $00, $00, $00
0251b     FC CC FC 0C 
0251f     0C 0C 0C 0E 
02523     0F 07 00 00 
02527     00 00 00 00 | 	byte	$fc, $cc, $fc, $0c, $0c, $0c, $0c, $0e, $0f, $07, $00, $00, $00, $00, $00, $00
0252b     FE C6 FE C6 
0252f     C6 C6 C6 E6 
02533     E7 67 03 00 
02537     00 00 00 00 | 	byte	$fe, $c6, $fe, $c6, $c6, $c6, $c6, $e6, $e7, $67, $03, $00, $00, $00, $00, $00
0253b     18 18 DB 3C 
0253f     E7 3C DB 18 
02543     18 00 00 00 
02547     00 00 00 01 | 	byte	$18, $18, $db, $3c, $e7, $3c, $db, $18, $18, $00, $00, $00, $00, $00, $00, $01
0254b     03 07 0F 1F 
0254f     7F 1F 0F 07 
02553     03 01 00 00 
02557     00 00 00 40 | 	byte	$03, $07, $0f, $1f, $7f, $1f, $0f, $07, $03, $01, $00, $00, $00, $00, $00, $40
0255b     60 70 78 7C 
0255f     7F 7C 78 70 
02563     60 40 00 00 
02567     00 00 00 00 | 	byte	$60, $70, $78, $7c, $7f, $7c, $78, $70, $60, $40, $00, $00, $00, $00, $00, $00
0256b     18 3C 7E 18 
0256f     18 18 7E 3C 
02573     18 00 00 00 
02577     00 00 00 00 | 	byte	$18, $3c, $7e, $18, $18, $18, $7e, $3c, $18, $00, $00, $00, $00, $00, $00, $00
0257b     66 66 66 66 
0257f     66 66 66    | 	byte	$66[7]
02582     00 66 66 00 
02586     00 00 00 00 
0258a     00 FE DB DB 
0258e     DB DE D8 D8 | 	byte	$00, $66, $66, $00, $00, $00, $00, $00, $00, $fe, $db, $db, $db, $de, $d8, $d8
02592     D8 D8 D8 00 
02596     00 00 00 3E 
0259a     63 06 1C 36 
0259e     63 63 36 1C | 	byte	$d8, $d8, $d8, $00, $00, $00, $00, $3e, $63, $06, $1c, $36, $63, $63, $36, $1c
025a2     30 63 3E 00 
025a6     00 00 00 00 
025aa     00 00 00 00 
025ae     00 00 00 7F | 	byte	$30, $63, $3e, $00, $00, $00, $00, $00, $00, $00, $00, $00, $00, $00, $00, $7f
025b2     7F 7F 7F 00 
025b6     00 00 00 00 
025ba     00 18 3C 7E 
025be     18 18 18 7E | 	byte	$7f, $7f, $7f, $00, $00, $00, $00, $00, $00, $18, $3c, $7e, $18, $18, $18, $7e
025c2     3C 18 7E 00 
025c6     00 00 00 00 
025ca     00 18 3C 7E 
025ce     18 18 18 18 | 	byte	$3c, $18, $7e, $00, $00, $00, $00, $00, $00, $18, $3c, $7e, $18, $18, $18, $18
025d2     18 18 18 00 
025d6     00 00 00 00 
025da     00 18 18 18 
025de     18 18 18 18 | 	byte	$18, $18, $18, $00, $00, $00, $00, $00, $00, $18, $18, $18, $18, $18, $18, $18
025e2     7E 3C 18 00 
025e6     00 00 00 00 
025ea     00 00 00 18 
025ee     30 7F 30 18 | 	byte	$7e, $3c, $18, $00, $00, $00, $00, $00, $00, $00, $00, $18, $30, $7f, $30, $18
025f2     00 00 00 00 
025f6     00 00 00 00 
025fa     00 00 00    | 	byte	$00[11]
025fd     0C 06 7F 06 
02601     0C 00 00 00 
02605     00 00 00 00 
02609     00 00 00 00 | 	byte	$0c, $06, $7f, $06, $0c, $00, $00, $00, $00, $00, $00, $00, $00, $00, $00, $00
0260d     00 03 03 03 
02611     7F 00 00 00 
02615     00 00 00 00 
02619     00 00 00 00 | 	byte	$00, $03, $03, $03, $7f, $00, $00, $00, $00, $00, $00, $00, $00, $00, $00, $00
0261d     14 36 7F 36 
02621     14 00 00 00 
02625     00 00 00 00 
02629     00 00 00 08 | 	byte	$14, $36, $7f, $36, $14, $00, $00, $00, $00, $00, $00, $00, $00, $00, $00, $08
0262d     1C 1C 3E 3E 
02631     7F 7F 00 00 
02635     00 00 00 00 
02639     00 00 00 7F | 	byte	$1c, $1c, $3e, $3e, $7f, $7f, $00, $00, $00, $00, $00, $00, $00, $00, $00, $7f
0263d     7F 3E 3E 1C 
02641     1C 08 00 00 
02645     00 00 00 00 
02649     00 00 00 00 | 	byte	$7f, $3e, $3e, $1c, $1c, $08, $00, $00, $00, $00, $00, $00, $00, $00, $00, $00
0264d     00 00 00 00 
02651     00 00 00 00 
02655     00 00 00 00 
02659     00 00       | 	byte	$00[14]
0265b     18 3C 3C 3C 
0265f     18 18 18 00 
02663     18 18 00 00 
02667     00 00 66 66 | 	byte	$18, $3c, $3c, $3c, $18, $18, $18, $00, $18, $18, $00, $00, $00, $00, $66, $66
0266b     66 24 00 00 
0266f     00 00 00 00 
02673     00 00 00 00 
02677     00 00 00 00 | 	byte	$66, $24, $00, $00, $00, $00, $00, $00, $00, $00, $00, $00, $00, $00, $00, $00
0267b     00 36 36 7F 
0267f     36 36 36 7F 
02683     36 36 00 00 
02687     00 00 18 18 | 	byte	$00, $36, $36, $7f, $36, $36, $36, $7f, $36, $36, $00, $00, $00, $00, $18, $18
0268b     3E 63 43 03 
0268f     3E 60 60 61 
02693     63 3E 18 18 
02697     00 00 00 00 | 	byte	$3e, $63, $43, $03, $3e, $60, $60, $61, $63, $3e, $18, $18, $00, $00, $00, $00
0269b     00 00 43 63 
0269f     30 18 0C 06 
026a3     63 61 00 00 
026a7     00 00 00 00 | 	byte	$00, $00, $43, $63, $30, $18, $0c, $06, $63, $61, $00, $00, $00, $00, $00, $00
026ab     1C 36 36 1C 
026af     6E 3B 33 33 
026b3     33 6E 00 00 
026b7     00 00 00 00 | 	byte	$1c, $36, $36, $1c, $6e, $3b, $33, $33, $33, $6e, $00, $00, $00, $00, $00, $00
026bb     0C 0C 0C 06 
026bf     00 00 00 00 
026c3     00 00 00 00 
026c7     00 00 00 00 | 	byte	$0c, $0c, $0c, $06, $00, $00, $00, $00, $00, $00, $00, $00, $00, $00, $00, $00
026cb     30 18 0C 0C 
026cf     0C 0C 0C 0C 
026d3     18 30 00 00 
026d7     00 00 00 00 | 	byte	$30, $18, $0c, $0c, $0c, $0c, $0c, $0c, $18, $30, $00, $00, $00, $00, $00, $00
026db     0C 18 30 30 
026df     30 30 30 30 
026e3     18 0C 00 00 
026e7     00 00 00 00 | 	byte	$0c, $18, $30, $30, $30, $30, $30, $30, $18, $0c, $00, $00, $00, $00, $00, $00
026eb     00 00 00 66 
026ef     3C FF 3C 66 
026f3     00 00 00 00 
026f7     00 00 00 00 | 	byte	$00, $00, $00, $66, $3c, $ff, $3c, $66, $00, $00, $00, $00, $00, $00, $00, $00
026fb     00 00 00 18 
026ff     18 7E 18 18 
02703     00 00 00 00 
02707     00 00 00 00 | 	byte	$00, $00, $00, $18, $18, $7e, $18, $18, $00, $00, $00, $00, $00, $00, $00, $00
0270b     00 00 00 00 
0270f     00 00 00 00 | 	byte	$00[8]
02713     18 18 18 0C 
02717     00 00 00 00 
0271b     00 00 00 00 
0271f     00 7F 00 00 | 	byte	$18, $18, $18, $0c, $00, $00, $00, $00, $00, $00, $00, $00, $00, $7f, $00, $00
02723     00 00 00 00 
02727     00 00 00 00 
0272b     00 00 00 00 
0272f     00 00 00 00 | 	byte	$00[16]
02733     18 18 00 00 
02737     00 00 00 00 
0273b     00 00 40 60 
0273f     30 18 0C 06 | 	byte	$18, $18, $00, $00, $00, $00, $00, $00, $00, $00, $40, $60, $30, $18, $0c, $06
02743     03 01 00 00 
02747     00 00 00 00 
0274b     1C 36 63 63 
0274f     6B 6B 63 63 | 	byte	$03, $01, $00, $00, $00, $00, $00, $00, $1c, $36, $63, $63, $6b, $6b, $63, $63
02753     36 1C 00 00 
02757     00 00 00 00 
0275b     18 1C 1E 18 
0275f     18 18 18 18 | 	byte	$36, $1c, $00, $00, $00, $00, $00, $00, $18, $1c, $1e, $18, $18, $18, $18, $18
02763     18 7E 00 00 
02767     00 00 00 00 
0276b     3E 63 60 30 
0276f     18 0C 06 03 | 	byte	$18, $7e, $00, $00, $00, $00, $00, $00, $3e, $63, $60, $30, $18, $0c, $06, $03
02773     63 7F 00 00 
02777     00 00 00 00 
0277b     3E 63 60 60 
0277f     3C 60 60 60 | 	byte	$63, $7f, $00, $00, $00, $00, $00, $00, $3e, $63, $60, $60, $3c, $60, $60, $60
02783     63 3E 00 00 
02787     00 00 00 00 
0278b     30 38 3C 36 
0278f     33 7F 30 30 | 	byte	$63, $3e, $00, $00, $00, $00, $00, $00, $30, $38, $3c, $36, $33, $7f, $30, $30
02793     30 78 00 00 
02797     00 00 00 00 
0279b     7F 03 03 03 
0279f     3F 60 60 60 | 	byte	$30, $78, $00, $00, $00, $00, $00, $00, $7f, $03, $03, $03, $3f, $60, $60, $60
027a3     63 3E 00 00 
027a7     00 00 00 00 
027ab     1C 06 03 03 
027af     3F 63 63 63 | 	byte	$63, $3e, $00, $00, $00, $00, $00, $00, $1c, $06, $03, $03, $3f, $63, $63, $63
027b3     63 3E 00 00 
027b7     00 00 00 00 
027bb     7F 63 60 60 
027bf     30 18 0C 0C | 	byte	$63, $3e, $00, $00, $00, $00, $00, $00, $7f, $63, $60, $60, $30, $18, $0c, $0c
027c3     0C 0C 00 00 
027c7     00 00 00 00 
027cb     3E 63 63 63 
027cf     3E 63 63 63 | 	byte	$0c, $0c, $00, $00, $00, $00, $00, $00, $3e, $63, $63, $63, $3e, $63, $63, $63
027d3     63 3E 00 00 
027d7     00 00 00 00 
027db     3E 63 63 63 
027df     7E 60 60 60 | 	byte	$63, $3e, $00, $00, $00, $00, $00, $00, $3e, $63, $63, $63, $7e, $60, $60, $60
027e3     30 1E 00 00 
027e7     00 00 00 00 
027eb     00 00 00 18 
027ef     18 00 00 00 | 	byte	$30, $1e, $00, $00, $00, $00, $00, $00, $00, $00, $00, $18, $18, $00, $00, $00
027f3     18 18 00 00 
027f7     00 00 00 00 
027fb     00 00 00 18 
027ff     18 00 00 00 | 	byte	$18, $18, $00, $00, $00, $00, $00, $00, $00, $00, $00, $18, $18, $00, $00, $00
02803     18 18 0C 00 
02807     00 00 00 00 
0280b     00 60 30 18 
0280f     0C 06 0C 18 | 	byte	$18, $18, $0c, $00, $00, $00, $00, $00, $00, $60, $30, $18, $0c, $06, $0c, $18
02813     30 60 00 00 
02817     00 00 00 00 
0281b     00 00 00 7E 
0281f     00 00 7E 00 | 	byte	$30, $60, $00, $00, $00, $00, $00, $00, $00, $00, $00, $7e, $00, $00, $7e, $00
02823     00 00 00 00 
02827     00 00 00 00 
0282b     00          | 	byte	$00[9]
0282c     06 0C 18 30 
02830     60 30 18 0C 
02834     06 00 00 00 
02838     00 00 00 3E | 	byte	$06, $0c, $18, $30, $60, $30, $18, $0c, $06, $00, $00, $00, $00, $00, $00, $3e
0283c     63 63 30 18 
02840     18 18 00 18 
02844     18 00 00 00 
02848     00 00 00 00 | 	byte	$63, $63, $30, $18, $18, $18, $00, $18, $18, $00, $00, $00, $00, $00, $00, $00
0284c     3E 63 63 7B 
02850     7B 7B 3B 03 
02854     3E 00 00 00 
02858     00 00 00 08 | 	byte	$3e, $63, $63, $7b, $7b, $7b, $3b, $03, $3e, $00, $00, $00, $00, $00, $00, $08
0285c     1C 36 63 63 
02860     7F 63 63 63 
02864     63 00 00 00 
02868     00 00 00 3F | 	byte	$1c, $36, $63, $63, $7f, $63, $63, $63, $63, $00, $00, $00, $00, $00, $00, $3f
0286c     66 66 66 3E 
02870     66 66 66 66 
02874     3F 00 00 00 
02878     00 00 00 3C | 	byte	$66, $66, $66, $3e, $66, $66, $66, $66, $3f, $00, $00, $00, $00, $00, $00, $3c
0287c     66 43 03 03 
02880     03 03 43 66 
02884     3C 00 00 00 
02888     00 00 00 1F | 	byte	$66, $43, $03, $03, $03, $03, $43, $66, $3c, $00, $00, $00, $00, $00, $00, $1f
0288c     36 66 66 66 
02890     66 66 66 36 
02894     1F 00 00 00 
02898     00 00 00 7F | 	byte	$36, $66, $66, $66, $66, $66, $66, $36, $1f, $00, $00, $00, $00, $00, $00, $7f
0289c     66 46 16 1E 
028a0     16 06 46 66 
028a4     7F 00 00 00 
028a8     00 00 00 7F | 	byte	$66, $46, $16, $1e, $16, $06, $46, $66, $7f, $00, $00, $00, $00, $00, $00, $7f
028ac     66 46 16 1E 
028b0     16 06 06 06 
028b4     0F 00 00 00 
028b8     00 00 00 3C | 	byte	$66, $46, $16, $1e, $16, $06, $06, $06, $0f, $00, $00, $00, $00, $00, $00, $3c
028bc     66 43 03 03 
028c0     7B 63 63 66 
028c4     5C 00 00 00 
028c8     00 00 00 63 | 	byte	$66, $43, $03, $03, $7b, $63, $63, $66, $5c, $00, $00, $00, $00, $00, $00, $63
028cc     63 63 63 7F 
028d0     63 63 63 63 
028d4     63 00 00 00 
028d8     00 00 00 3C | 	byte	$63, $63, $63, $7f, $63, $63, $63, $63, $63, $00, $00, $00, $00, $00, $00, $3c
028dc     18 18 18 18 
028e0     18 18 18 18 | 	byte	$18[8]
028e4     3C 00 00 00 
028e8     00 00 00 78 
028ec     30 30 30 30 
028f0     30 33 33 33 | 	byte	$3c, $00, $00, $00, $00, $00, $00, $78, $30, $30, $30, $30, $30, $33, $33, $33
028f4     1E 00 00 00 
028f8     00 00 00 67 
028fc     66 66 36 1E 
02900     1E 36 66 66 | 	byte	$1e, $00, $00, $00, $00, $00, $00, $67, $66, $66, $36, $1e, $1e, $36, $66, $66
02904     67 00 00 00 
02908     00 00 00 0F 
0290c     06 06 06 06 
02910     06 06 46 66 | 	byte	$67, $00, $00, $00, $00, $00, $00, $0f, $06, $06, $06, $06, $06, $06, $46, $66
02914     7F 00 00 00 
02918     00 00 00 63 
0291c     77 7F 7F 6B 
02920     63 63 63 63 | 	byte	$7f, $00, $00, $00, $00, $00, $00, $63, $77, $7f, $7f, $6b, $63, $63, $63, $63
02924     63 00 00 00 
02928     00 00 00 63 
0292c     67 6F 7F 7B 
02930     73 63 63 63 | 	byte	$63, $00, $00, $00, $00, $00, $00, $63, $67, $6f, $7f, $7b, $73, $63, $63, $63
02934     63 00 00 00 
02938     00 00 00 3E 
0293c     63 63 63 63 
02940     63 63 63 63 | 	byte	$63, $00, $00, $00, $00, $00, $00, $3e, $63, $63, $63, $63, $63, $63, $63, $63
02944     3E 00 00 00 
02948     00 00 00 3F 
0294c     66 66 66 3E 
02950     06 06 06 06 | 	byte	$3e, $00, $00, $00, $00, $00, $00, $3f, $66, $66, $66, $3e, $06, $06, $06, $06
02954     0F 00 00 00 
02958     00 00 00 3E 
0295c     63 63 63 63 
02960     63 63 6B 7B | 	byte	$0f, $00, $00, $00, $00, $00, $00, $3e, $63, $63, $63, $63, $63, $63, $6b, $7b
02964     3E 30 70 00 
02968     00 00 00 3F 
0296c     66 66 66 3E 
02970     36 66 66 66 | 	byte	$3e, $30, $70, $00, $00, $00, $00, $3f, $66, $66, $66, $3e, $36, $66, $66, $66
02974     67 00 00 00 
02978     00 00 00 3E 
0297c     63 63 06 1C 
02980     30 60 63 63 | 	byte	$67, $00, $00, $00, $00, $00, $00, $3e, $63, $63, $06, $1c, $30, $60, $63, $63
02984     3E 00 00 00 
02988     00 00 00 7E 
0298c     7E 5A 18 18 
02990     18 18 18 18 | 	byte	$3e, $00, $00, $00, $00, $00, $00, $7e, $7e, $5a, $18, $18, $18, $18, $18, $18
02994     3C 00 00 00 
02998     00 00 00 63 
0299c     63 63 63 63 
029a0     63 63 63 63 | 	byte	$3c, $00, $00, $00, $00, $00, $00, $63, $63, $63, $63, $63, $63, $63, $63, $63
029a4     3E 00 00 00 
029a8     00 00 00 63 
029ac     63 63 63 63 
029b0     63 63 36 1C | 	byte	$3e, $00, $00, $00, $00, $00, $00, $63, $63, $63, $63, $63, $63, $63, $36, $1c
029b4     08 00 00 00 
029b8     00 00 00 63 
029bc     63 63 63 6B 
029c0     6B 6B 7F 77 | 	byte	$08, $00, $00, $00, $00, $00, $00, $63, $63, $63, $63, $6b, $6b, $6b, $7f, $77
029c4     36 00 00 00 
029c8     00 00 00 63 
029cc     63 36 3E 1C 
029d0     1C 3E 36 63 | 	byte	$36, $00, $00, $00, $00, $00, $00, $63, $63, $36, $3e, $1c, $1c, $3e, $36, $63
029d4     63 00 00 00 
029d8     00 00 00 66 
029dc     66 66 66 3C 
029e0     18 18 18 18 | 	byte	$63, $00, $00, $00, $00, $00, $00, $66, $66, $66, $66, $3c, $18, $18, $18, $18
029e4     3C 00 00 00 
029e8     00 00 00 7F 
029ec     63 61 30 18 
029f0     0C 06 43 63 | 	byte	$3c, $00, $00, $00, $00, $00, $00, $7f, $63, $61, $30, $18, $0c, $06, $43, $63
029f4     7F 00 00 00 
029f8     00 00 00 3C 
029fc     0C 0C 0C 0C 
02a00     0C 0C 0C 0C | 	byte	$7f, $00, $00, $00, $00, $00, $00, $3c, $0c, $0c, $0c, $0c, $0c, $0c, $0c, $0c
02a04     3C 00 00 00 
02a08     00 00 00 00 
02a0c     01 03 07 0E 
02a10     1C 38 70 60 | 	byte	$3c, $00, $00, $00, $00, $00, $00, $00, $01, $03, $07, $0e, $1c, $38, $70, $60
02a14     40 00 00 00 
02a18     00 00 00 3C 
02a1c     30 30 30 30 
02a20     30 30 30 30 | 	byte	$40, $00, $00, $00, $00, $00, $00, $3c, $30, $30, $30, $30, $30, $30, $30, $30
02a24     3C 00 00 00 
02a28     1C 36 00 00 
02a2c     00 00 00 00 
02a30     00 00 00 00 | 	byte	$3c, $00, $00, $00, $1c, $36, $00, $00, $00, $00, $00, $00, $00, $00, $00, $00
02a34     00 00 00 00 
02a38     00 00 00 00 
02a3c     00 00 00 00 
02a40     00 00 00 00 
02a44     00          | 	byte	$00[17]
02a45     FF 00 00 0C 
02a49     18 00 00 00 
02a4d     00 00 00 00 
02a51     00 00 00 00 | 	byte	$ff, $00, $00, $0c, $18, $00, $00, $00, $00, $00, $00, $00, $00, $00, $00, $00
02a55     00 00 00 00 
02a59     00 00 00 00 
02a5d     00          | 	byte	$00[9]
02a5e     1E 30 3E 33 
02a62     33 33 6E 00 
02a66     00 00 00 00 
02a6a     00 07 06 06 | 	byte	$1e, $30, $3e, $33, $33, $33, $6e, $00, $00, $00, $00, $00, $00, $07, $06, $06
02a6e     1E 36 66 66 
02a72     66 66 3E 00 
02a76     00 00 00 00 
02a7a     00 00 00 00 | 	byte	$1e, $36, $66, $66, $66, $66, $3e, $00, $00, $00, $00, $00, $00, $00, $00, $00
02a7e     3E 63 03 03 
02a82     03 63 3E 00 
02a86     00 00 00 00 
02a8a     00 38 30 30 | 	byte	$3e, $63, $03, $03, $03, $63, $3e, $00, $00, $00, $00, $00, $00, $38, $30, $30
02a8e     3C 36 33 33 
02a92     33 33 6E 00 
02a96     00 00 00 00 
02a9a     00 00 00 00 | 	byte	$3c, $36, $33, $33, $33, $33, $6e, $00, $00, $00, $00, $00, $00, $00, $00, $00
02a9e     3E 63 7F 03 
02aa2     03 63 3E 00 
02aa6     00 00 00 00 
02aaa     00 38 6C 4C | 	byte	$3e, $63, $7f, $03, $03, $63, $3e, $00, $00, $00, $00, $00, $00, $38, $6c, $4c
02aae     0C 1E 0C 0C 
02ab2     0C 0C 1E 00 
02ab6     00 00 00 00 
02aba     00 00 00 00 | 	byte	$0c, $1e, $0c, $0c, $0c, $0c, $1e, $00, $00, $00, $00, $00, $00, $00, $00, $00
02abe     6E 33 33 33 
02ac2     33 33 3E 30 
02ac6     33 1E 00 00 
02aca     00 07 06 06 | 	byte	$6e, $33, $33, $33, $33, $33, $3e, $30, $33, $1e, $00, $00, $00, $07, $06, $06
02ace     36 6E 66 66 
02ad2     66 66 67 00 
02ad6     00 00 00 00 
02ada     00 18 18 00 | 	byte	$36, $6e, $66, $66, $66, $66, $67, $00, $00, $00, $00, $00, $00, $18, $18, $00
02ade     1C 18 18 18 
02ae2     18 18 3C 00 
02ae6     00 00 00 00 
02aea     00 60 60 00 | 	byte	$1c, $18, $18, $18, $18, $18, $3c, $00, $00, $00, $00, $00, $00, $60, $60, $00
02aee     70 60 60 60 
02af2     60 60 60 66 
02af6     66 3C 00 00 
02afa     00 07 06 06 | 	byte	$70, $60, $60, $60, $60, $60, $60, $66, $66, $3c, $00, $00, $00, $07, $06, $06
02afe     66 36 1E 1E 
02b02     36 66 67 00 
02b06     00 00 00 00 
02b0a     00 1C 18 18 | 	byte	$66, $36, $1e, $1e, $36, $66, $67, $00, $00, $00, $00, $00, $00, $1c, $18, $18
02b0e     18 18 18 18 
02b12     18 18       | 	byte	$18[6]
02b14     3C 00 00 00 
02b18     00 00 00 00 
02b1c     00 00 37 7F 
02b20     6B 6B 6B 6B | 	byte	$3c, $00, $00, $00, $00, $00, $00, $00, $00, $00, $37, $7f, $6b, $6b, $6b, $6b
02b24     63 00 00 00 
02b28     00 00 00 00 
02b2c     00 00 3B 66 
02b30     66 66 66 66 | 	byte	$63, $00, $00, $00, $00, $00, $00, $00, $00, $00, $3b, $66, $66, $66, $66, $66
02b34     66 00 00 00 
02b38     00 00 00 00 
02b3c     00 00 3E 63 
02b40     63 63 63 63 | 	byte	$66, $00, $00, $00, $00, $00, $00, $00, $00, $00, $3e, $63, $63, $63, $63, $63
02b44     3E 00 00 00 
02b48     00 00 00 00 
02b4c     00 00 3B 66 
02b50     66 66 66 66 | 	byte	$3e, $00, $00, $00, $00, $00, $00, $00, $00, $00, $3b, $66, $66, $66, $66, $66
02b54     3E 06 06 0F 
02b58     00 00 00 00 
02b5c     00 00 6E 33 
02b60     33 33 33 33 | 	byte	$3e, $06, $06, $0f, $00, $00, $00, $00, $00, $00, $6e, $33, $33, $33, $33, $33
02b64     3E 30 30 78 
02b68     00 00 00 00 
02b6c     00 00 3B 6E 
02b70     66 06 06 06 | 	byte	$3e, $30, $30, $78, $00, $00, $00, $00, $00, $00, $3b, $6e, $66, $06, $06, $06
02b74     0F 00 00 00 
02b78     00 00 00 00 
02b7c     00 00 3E 63 
02b80     06 1C 30 63 | 	byte	$0f, $00, $00, $00, $00, $00, $00, $00, $00, $00, $3e, $63, $06, $1c, $30, $63
02b84     3E 00 00 00 
02b88     00 00 00 08 
02b8c     0C 0C 3F 0C 
02b90     0C 0C 0C 6C | 	byte	$3e, $00, $00, $00, $00, $00, $00, $08, $0c, $0c, $3f, $0c, $0c, $0c, $0c, $6c
02b94     38 00 00 00 
02b98     00 00 00 00 
02b9c     00 00 33 33 
02ba0     33 33 33 33 | 	byte	$38, $00, $00, $00, $00, $00, $00, $00, $00, $00, $33, $33, $33, $33, $33, $33
02ba4     6E 00 00 00 
02ba8     00 00 00 00 
02bac     00 00 63 63 
02bb0     63 63 63 36 | 	byte	$6e, $00, $00, $00, $00, $00, $00, $00, $00, $00, $63, $63, $63, $63, $63, $36
02bb4     1C 00 00 00 
02bb8     00 00 00 00 
02bbc     00 00 63 63 
02bc0     6B 6B 6B 7F | 	byte	$1c, $00, $00, $00, $00, $00, $00, $00, $00, $00, $63, $63, $6b, $6b, $6b, $7f
02bc4     36 00 00 00 
02bc8     00 00 00 00 
02bcc     00 00 63 36 
02bd0     1C 1C 1C 36 | 	byte	$36, $00, $00, $00, $00, $00, $00, $00, $00, $00, $63, $36, $1c, $1c, $1c, $36
02bd4     63 00 00 00 
02bd8     00 00 00 00 
02bdc     00 00 63 63 
02be0     63 63 63 63 | 	byte	$63, $00, $00, $00, $00, $00, $00, $00, $00, $00, $63, $63, $63, $63, $63, $63
02be4     7E 60 30 1F 
02be8     00 00 00 00 
02bec     00 00 7F 33 
02bf0     18 0C 06 63 | 	byte	$7e, $60, $30, $1f, $00, $00, $00, $00, $00, $00, $7f, $33, $18, $0c, $06, $63
02bf4     7F 00 00 00 
02bf8     00 00 00 70 
02bfc     18 18 18 0E 
02c00     18 18 18 18 | 	byte	$7f, $00, $00, $00, $00, $00, $00, $70, $18, $18, $18, $0e, $18, $18, $18, $18
02c04     70 00 00 00 
02c08     00 00 00 18 
02c0c     18 18 18 18 
02c10     18 18 18 18 | 	byte	$70, $00, $00, $00, $00, $00, $00, $18, $18, $18, $18, $18, $18, $18, $18, $18
02c14     18 00 00 00 
02c18     00 00 00 0E 
02c1c     18 18 18 70 
02c20     18 18 18 18 | 	byte	$18, $00, $00, $00, $00, $00, $00, $0e, $18, $18, $18, $70, $18, $18, $18, $18
02c24     0E 00 00 00 
02c28     6E 3B 00 00 
02c2c     00 00 00 00 
02c30     00 00 00 00 | 	byte	$0e, $00, $00, $00, $6e, $3b, $00, $00, $00, $00, $00, $00, $00, $00, $00, $00
02c34     00 00 00 00 
02c38     00 00 00 00 
02c3c     00 00       | 	byte	$00[10]
02c3e     08 1C 36 63 
02c42     63 63 7F 00 
02c46     00 00 00 00 
02c4a     00 3C 66 43 | 	byte	$08, $1c, $36, $63, $63, $63, $7f, $00, $00, $00, $00, $00, $00, $3c, $66, $43
02c4e     03 03 03 03 
02c52     43 66 3C 18 
02c56     30 1E 00 00 
02c5a     00 00 33 00 | 	byte	$03, $03, $03, $03, $43, $66, $3c, $18, $30, $1e, $00, $00, $00, $00, $33, $00
02c5e     33 33 33 33 
02c62     33 33       | 	byte	$33[6]
02c64     6E 00 00 00 
02c68     00 00 60 30 
02c6c     18 00 3E 63 
02c70     7F 03 03 63 | 	byte	$6e, $00, $00, $00, $00, $00, $60, $30, $18, $00, $3e, $63, $7f, $03, $03, $63
02c74     3E 00 00 00 
02c78     00 00 08 1C 
02c7c     36 00 1E 30 
02c80     3E 33 33 33 | 	byte	$3e, $00, $00, $00, $00, $00, $08, $1c, $36, $00, $1e, $30, $3e, $33, $33, $33
02c84     6E 00 00 00 
02c88     00 00 00 00 
02c8c     33 00 1E 30 
02c90     3E 33 33 33 | 	byte	$6e, $00, $00, $00, $00, $00, $00, $00, $33, $00, $1e, $30, $3e, $33, $33, $33
02c94     6E 00 00 00 
02c98     00 00 1C 36 
02c9c     1C 00 33 33 
02ca0     33 33 33 33 | 	byte	$6e, $00, $00, $00, $00, $00, $1c, $36, $1c, $00, $33, $33, $33, $33, $33, $33
02ca4     6E 00 00 00 
02ca8     00 00 60 30 
02cac     18 00 3E 63 
02cb0     03 03 03 63 | 	byte	$6e, $00, $00, $00, $00, $00, $60, $30, $18, $00, $3e, $63, $03, $03, $03, $63
02cb4     3E 00 00 00 
02cb8     00 00 00 00 
02cbc     00 00 3E 63 
02cc0     03 03 03 63 | 	byte	$3e, $00, $00, $00, $00, $00, $00, $00, $00, $00, $3e, $63, $03, $03, $03, $63
02cc4     3E 18 30 1E 
02cc8     00 00 00 1C 
02ccc     58 78 38 18 
02cd0     1C 1E 1A 18 | 	byte	$3e, $18, $30, $1e, $00, $00, $00, $1c, $58, $78, $38, $18, $1c, $1e, $1a, $18
02cd4     3C 00 00 00 
02cd8     00 00 00 00 
02cdc     63 00 3E 63 
02ce0     7F 03 03 63 | 	byte	$3c, $00, $00, $00, $00, $00, $00, $00, $63, $00, $3e, $63, $7f, $03, $03, $63
02ce4     3E 00 00 00 
02ce8     66 33 00 3E 
02cec     63 63 63 63 
02cf0     63 63 63 63 | 	byte	$3e, $00, $00, $00, $66, $33, $00, $3e, $63, $63, $63, $63, $63, $63, $63, $63
02cf4     3E 00 00 00 
02cf8     00 00 CC 66 
02cfc     33 00 3E 63 
02d00     63 63 63 63 | 	byte	$3e, $00, $00, $00, $00, $00, $cc, $66, $33, $00, $3e, $63, $63, $63, $63, $63
02d04     3E 00 00 00 
02d08     00 00 18 3C 
02d0c     66 00 1C 18 
02d10     18 18 18 18 | 	byte	$3e, $00, $00, $00, $00, $00, $18, $3c, $66, $00, $1c, $18, $18, $18, $18, $18
02d14     3C 00 00 00 
02d18     30 18 00 7F 
02d1c     63 61 30 18 
02d20     0C 06 43 63 | 	byte	$3c, $00, $00, $00, $30, $18, $00, $7f, $63, $61, $30, $18, $0c, $06, $43, $63
02d24     7F 00 00 00 
02d28     00 63 00 08 
02d2c     1C 36 63 63 
02d30     7F 63 63 63 | 	byte	$7f, $00, $00, $00, $00, $63, $00, $08, $1c, $36, $63, $63, $7f, $63, $63, $63
02d34     63 00 00 00 
02d38     30 18 00 3C 
02d3c     66 43 03 03 
02d40     03 03 43 66 | 	byte	$63, $00, $00, $00, $30, $18, $00, $3c, $66, $43, $03, $03, $03, $03, $43, $66
02d44     3C 00 00 00 
02d48     30 18 00 7F 
02d4c     66 46 16 1E 
02d50     16 06 46 66 | 	byte	$3c, $00, $00, $00, $30, $18, $00, $7f, $66, $46, $16, $1e, $16, $06, $46, $66
02d54     7F 00 00 00 
02d58     0C 06 00 0F 
02d5c     06 06 06 06 
02d60     06 06 46 66 | 	byte	$7f, $00, $00, $00, $0c, $06, $00, $0f, $06, $06, $06, $06, $06, $06, $46, $66
02d64     7F 00 00 00 
02d68     30 18 00 1C 
02d6c     18 18 18 18 
02d70     18 18 18 18 | 	byte	$7f, $00, $00, $00, $30, $18, $00, $1c, $18, $18, $18, $18, $18, $18, $18, $18
02d74     3C 00 00 00 
02d78     00 00 08 1C 
02d7c     36 00 3E 63 
02d80     63 63 63 63 | 	byte	$3c, $00, $00, $00, $00, $00, $08, $1c, $36, $00, $3e, $63, $63, $63, $63, $63
02d84     3E 00 00 00 
02d88     00 00 00 00 
02d8c     63 00 3E 63 
02d90     63 63 63 63 | 	byte	$3e, $00, $00, $00, $00, $00, $00, $00, $63, $00, $3e, $63, $63, $63, $63, $63
02d94     3E 00 00 00 
02d98     00 00 00 6F 
02d9c     46 26 06 06 
02da0     06 06 46 66 | 	byte	$3e, $00, $00, $00, $00, $00, $00, $6f, $46, $26, $06, $06, $06, $06, $46, $66
02da4     7F 00 00 00 
02da8     00 00 00 6E 
02dac     4C 2C 0C 0C 
02db0     0C 0C 0C 0C | 	byte	$7f, $00, $00, $00, $00, $00, $00, $6e, $4c, $2c, $0c, $0c, $0c, $0c, $0c, $0c
02db4     1E 00 00 00 
02db8     30 18 00 3E 
02dbc     63 63 06 1C 
02dc0     30 60 63 63 | 	byte	$1e, $00, $00, $00, $30, $18, $00, $3e, $63, $63, $06, $1c, $30, $60, $63, $63
02dc4     3E 00 00 00 
02dc8     00 00 60 30 
02dcc     18 00 3E 63 
02dd0     06 1C 30 63 | 	byte	$3e, $00, $00, $00, $00, $00, $60, $30, $18, $00, $3e, $63, $06, $1c, $30, $63
02dd4     3E 00 00 00 
02dd8     00 63 00 3E 
02ddc     63 63 63 63 
02de0     63 63 63 63 | 	byte	$3e, $00, $00, $00, $00, $63, $00, $3e, $63, $63, $63, $63, $63, $63, $63, $63
02de4     3E 00 00 00 
02de8     00 63 00 63 
02dec     63 63 63 63 
02df0     63 63 63 63 | 	byte	$3e, $00, $00, $00, $00, $63, $00, $63, $63, $63, $63, $63, $63, $63, $63, $63
02df4     3E 00 00 00 
02df8     6C 38 00 7E 
02dfc     7E 5A 18 18 
02e00     18 18 18 18 | 	byte	$3e, $00, $00, $00, $6c, $38, $00, $7e, $7e, $5a, $18, $18, $18, $18, $18, $18
02e04     3C 00 00 00 
02e08     00 00 60 48 
02e0c     2C 0C 3F 0C 
02e10     0C 0C 0C 6C | 	byte	$3c, $00, $00, $00, $00, $00, $60, $48, $2c, $0c, $3f, $0c, $0c, $0c, $0c, $6c
02e14     38 00 00 00 
02e18     00 00 00 0F 
02e1c     26 36 1E 0E 
02e20     07 07 46 66 | 	byte	$38, $00, $00, $00, $00, $00, $00, $0f, $26, $36, $1e, $0e, $07, $07, $46, $66
02e24     7F 00 00 00 
02e28     00 00 00 00 
02e2c     00 63 36 1C 
02e30     1C 36 63 00 | 	byte	$7f, $00, $00, $00, $00, $00, $00, $00, $00, $63, $36, $1c, $1c, $36, $63, $00
02e34     00 00 00 00 
02e38     00 00       | 	byte	$00[6]
02e3a     36 1C 08 00 
02e3e     3E 63 03 03 
02e42     03 63 3E 00 
02e46     00 00 00 00 | 	byte	$36, $1c, $08, $00, $3e, $63, $03, $03, $03, $63, $3e, $00, $00, $00, $00, $00
02e4a     30 18 0C 00 
02e4e     1E 30 3E 33 
02e52     33 33 6E 00 
02e56     00 00 00 00 | 	byte	$30, $18, $0c, $00, $1e, $30, $3e, $33, $33, $33, $6e, $00, $00, $00, $00, $00
02e5a     60 30 18 00 
02e5e     1C 18 18 18 
02e62     18 18 3C 00 
02e66     00 00 00 00 | 	byte	$60, $30, $18, $00, $1c, $18, $18, $18, $18, $18, $3c, $00, $00, $00, $00, $00
02e6a     60 30 18 00 
02e6e     3E 63 63 63 
02e72     63 63 3E 00 
02e76     00 00 00 00 | 	byte	$60, $30, $18, $00, $3e, $63, $63, $63, $63, $63, $3e, $00, $00, $00, $00, $00
02e7a     30 18 0C 00 
02e7e     33 33 33 33 
02e82     33 33 6E 00 
02e86     00 00 00 00 | 	byte	$30, $18, $0c, $00, $33, $33, $33, $33, $33, $33, $6e, $00, $00, $00, $00, $00
02e8a     00 08 1C 36 
02e8e     63 63 7F 63 
02e92     63 63 63 18 
02e96     0C 78 00 00 | 	byte	$00, $08, $1c, $36, $63, $63, $7f, $63, $63, $63, $63, $18, $0c, $78, $00, $00
02e9a     00 00 00 00 
02e9e     1E 30 3E 33 
02ea2     33 33 6E 18 
02ea6     0C 78 36 1C | 	byte	$00, $00, $00, $00, $1e, $30, $3e, $33, $33, $33, $6e, $18, $0c, $78, $36, $1c
02eaa     00 7F 63 61 
02eae     30 18 0C 06 
02eb2     43 63 7F 00 
02eb6     00 00 00 00 | 	byte	$00, $7f, $63, $61, $30, $18, $0c, $06, $43, $63, $7f, $00, $00, $00, $00, $00
02eba     36 1C 08 00 
02ebe     7F 33 18 0C 
02ec2     06 63 7F 00 
02ec6     00 00 00 00 | 	byte	$36, $1c, $08, $00, $7f, $33, $18, $0c, $06, $63, $7f, $00, $00, $00, $00, $00
02eca     00 7F 66 46 
02ece     16 1E 16 06 
02ed2     46 66 7F 18 
02ed6     0C 78 00 00 | 	byte	$00, $7f, $66, $46, $16, $1e, $16, $06, $46, $66, $7f, $18, $0c, $78, $00, $00
02eda     00 00 00 00 
02ede     3E 63 7F 03 
02ee2     03 63 3E 18 
02ee6     0C 78 00 00 | 	byte	$00, $00, $00, $00, $3e, $63, $7f, $03, $03, $63, $3e, $18, $0c, $78, $00, $00
02eea     00 3C 66 03 
02eee     1F 03 0F 03 
02ef2     03 66 3C 00 
02ef6     00 00 00 00 | 	byte	$00, $3c, $66, $03, $1f, $03, $0f, $03, $03, $66, $3c, $00, $00, $00, $00, $00
02efa     60 30 18 00 
02efe     7F 33 18 0C 
02f02     06 63 7F 00 
02f06     00 00 6C 38 | 	byte	$60, $30, $18, $00, $7f, $33, $18, $0c, $06, $63, $7f, $00, $00, $00, $6c, $38
02f0a     00 3C 66 43 
02f0e     03 03 03 03 
02f12     43 66 3C 00 
02f16     00 00 00 00 | 	byte	$00, $3c, $66, $43, $03, $03, $03, $03, $43, $66, $3c, $00, $00, $00, $00, $00
02f1a     00 00 00 00 
02f1e     3E 63 06 1C 
02f22     30 63 3E 18 
02f26     30 1E 00 00 | 	byte	$00, $00, $00, $00, $3e, $63, $06, $1c, $30, $63, $3e, $18, $30, $1e, $00, $00
02f2a     00 00 00 00 
02f2e     00 00       | 	byte	$00[6]
02f30     6C 36 1B 36 
02f34     6C 00 00 00 
02f38     00 00 00 00 
02f3c     00 00 00 00 | 	byte	$6c, $36, $1b, $36, $6c, $00, $00, $00, $00, $00, $00, $00, $00, $00, $00, $00
02f40     1B 36 6C 36 
02f44     1B 00 00 00 
02f48     88 22 88 22 
02f4c     88 22 88 22 | 	byte	$1b, $36, $6c, $36, $1b, $00, $00, $00, $88, $22, $88, $22, $88, $22, $88, $22
02f50     88 22 88 22 
02f54     88 22 88 22 
02f58     AA 55 AA 55 
02f5c     AA 55 AA 55 | 	byte	$88, $22, $88, $22, $88, $22, $88, $22, $aa, $55, $aa, $55, $aa, $55, $aa, $55
02f60     AA 55 AA 55 
02f64     AA 55 AA 55 
02f68     BB EE BB EE 
02f6c     BB EE BB EE | 	byte	$aa, $55, $aa, $55, $aa, $55, $aa, $55, $bb, $ee, $bb, $ee, $bb, $ee, $bb, $ee
02f70     BB EE BB EE 
02f74     BB EE BB EE 
02f78     18 18 18 18 
02f7c     18 18 18 18 | 	byte	$bb, $ee, $bb, $ee, $bb, $ee, $bb, $ee, $18, $18, $18, $18, $18, $18, $18, $18
02f80     18 18 18 18 
02f84     18 18 18 18 
02f88     18 18 18 18 
02f8c     18 18 18    | 	byte	$18[15]
02f8f     1F 18 18 18 
02f93     18 18 18 18 
02f97     18 30 18 00 
02f9b     08 1C 36 63 | 	byte	$1f, $18, $18, $18, $18, $18, $18, $18, $18, $30, $18, $00, $08, $1c, $36, $63
02f9f     63 7F 63 63 
02fa3     63 63 00 00 
02fa7     00 1C 36 00 
02fab     08 1C 36 63 | 	byte	$63, $7f, $63, $63, $63, $63, $00, $00, $00, $1c, $36, $00, $08, $1c, $36, $63
02faf     63 7F 63 63 
02fb3     63 63 00 00 
02fb7     00 36 1C 00 
02fbb     7F 66 46 16 | 	byte	$63, $7f, $63, $63, $63, $63, $00, $00, $00, $36, $1c, $00, $7f, $66, $46, $16
02fbf     1E 16 06 46 
02fc3     66 7F 00 00 
02fc7     00 00 00 00 
02fcb     3E 63 63 06 | 	byte	$1e, $16, $06, $46, $66, $7f, $00, $00, $00, $00, $00, $00, $3e, $63, $63, $06
02fcf     1C 30 60 63 
02fd3     63 3E 18 30 
02fd7     1E 6C 6C 6C 
02fdb     6C 6C 6F 60 | 	byte	$1c, $30, $60, $63, $63, $3e, $18, $30, $1e, $6c, $6c, $6c, $6c, $6c, $6f, $60
02fdf     6F 6C 6C 6C 
02fe3     6C 6C 6C 6C 
02fe7     6C 6C 6C 6C 
02feb     6C 6C 6C 6C | 	byte	$6f, $6c, $6c, $6c, $6c, $6c, $6c, $6c, $6c, $6c, $6c, $6c, $6c, $6c, $6c, $6c
02fef     6C 6C 6C 6C 
02ff3     6C 6C 6C 6C 
02ff7     6C          | 	byte	$6c[9]
02ff8     00 00 00 00 
02ffc     00          | 	byte	$00[5]
02ffd     7F 60 6F 6C 
03001     6C 6C 6C 6C 
03005     6C 6C 6C 6C 
03009     6C 6C 6C 6C | 	byte	$7f, $60, $6f, $6c, $6c, $6c, $6c, $6c, $6c, $6c, $6c, $6c, $6c, $6c, $6c, $6c
0300d     6F 60 7F 00 
03011     00 00 00 00 
03015     00 00 00 18 
03019     18 00 7F 63 | 	byte	$6f, $60, $7f, $00, $00, $00, $00, $00, $00, $00, $00, $18, $18, $00, $7f, $63
0301d     61 30 18 0C 
03021     06 43 63 7F 
03025     00 00 00 00 
03029     00 00 18 18 | 	byte	$61, $30, $18, $0c, $06, $43, $63, $7f, $00, $00, $00, $00, $00, $00, $18, $18
0302d     00 7F 33 18 
03031     0C 06 63 7F 
03035     00 00 00 00 
03039     00 00 00 00 | 	byte	$00, $7f, $33, $18, $0c, $06, $63, $7f, $00, $00, $00, $00, $00, $00, $00, $00
0303d     00 00 1F 18 
03041     18 18 18 18 
03045     18 18 18 18 
03049     18 18 18 18 | 	byte	$00, $00, $1f, $18, $18, $18, $18, $18, $18, $18, $18, $18, $18, $18, $18, $18
0304d     18 18 F8 00 
03051     00 00 00 00 
03055     00 00 00 18 
03059     18 18 18 18 | 	byte	$18, $18, $f8, $00, $00, $00, $00, $00, $00, $00, $00, $18, $18, $18, $18, $18
0305d     18 18 FF 00 
03061     00 00 00 00 
03065     00 00 00 00 
03069     00 00 00 00 | 	byte	$18, $18, $ff, $00, $00, $00, $00, $00, $00, $00, $00, $00, $00, $00, $00, $00
0306d     00 00 FF 18 
03071     18 18 18 18 
03075     18 18 18 18 
03079     18 18 18 18 | 	byte	$00, $00, $ff, $18, $18, $18, $18, $18, $18, $18, $18, $18, $18, $18, $18, $18
0307d     18 18 F8 18 
03081     18 18 18 18 
03085     18 18 18 00 
03089     00 00 00 00 | 	byte	$18, $18, $f8, $18, $18, $18, $18, $18, $18, $18, $18, $00, $00, $00, $00, $00
0308d     00 00 FF 00 
03091     00 00 00 00 
03095     00 00 00 18 
03099     18 18 18 18 | 	byte	$00, $00, $ff, $00, $00, $00, $00, $00, $00, $00, $00, $18, $18, $18, $18, $18
0309d     18 18 FF 18 
030a1     18 18 18 18 
030a5     18 18 18 63 
030a9     3E 00 08 1C | 	byte	$18, $18, $ff, $18, $18, $18, $18, $18, $18, $18, $18, $63, $3e, $00, $08, $1c
030ad     36 63 63 7F 
030b1     63 63 63 63 
030b5     00 00 00 00 
030b9     00 00 63 3E | 	byte	$36, $63, $63, $7f, $63, $63, $63, $63, $00, $00, $00, $00, $00, $00, $63, $3e
030bd     00 1E 30 3E 
030c1     33 33 33 6E 
030c5     00 00 00 6C 
030c9     6C 6C 6C 6C | 	byte	$00, $1e, $30, $3e, $33, $33, $33, $6e, $00, $00, $00, $6c, $6c, $6c, $6c, $6c
030cd     EC 0C FC 00 
030d1     00 00 00 00 
030d5     00 00 00 00 
030d9     00 00 00 00 | 	byte	$ec, $0c, $fc, $00, $00, $00, $00, $00, $00, $00, $00, $00, $00, $00, $00, $00
030dd     FC 0C EC 6C 
030e1     6C 6C 6C 6C 
030e5     6C 6C 6C 6C 
030e9     6C 6C 6C 6C | 	byte	$fc, $0c, $ec, $6c, $6c, $6c, $6c, $6c, $6c, $6c, $6c, $6c, $6c, $6c, $6c, $6c
030ed     EF 00 FF 00 
030f1     00 00 00 00 
030f5     00 00 00 00 
030f9     00 00 00 00 | 	byte	$ef, $00, $ff, $00, $00, $00, $00, $00, $00, $00, $00, $00, $00, $00, $00, $00
030fd     FF 00 EF 6C 
03101     6C 6C 6C 6C 
03105     6C 6C 6C 6C 
03109     6C 6C 6C 6C | 	byte	$ff, $00, $ef, $6c, $6c, $6c, $6c, $6c, $6c, $6c, $6c, $6c, $6c, $6c, $6c, $6c
0310d     EC 0C EC 6C 
03111     6C 6C 6C 6C 
03115     6C 6C 6C 00 
03119     00 00 00 00 | 	byte	$ec, $0c, $ec, $6c, $6c, $6c, $6c, $6c, $6c, $6c, $6c, $00, $00, $00, $00, $00
0311d     FF 00 FF 00 
03121     00 00 00 00 
03125     00 00 00 6C 
03129     6C 6C 6C 6C | 	byte	$ff, $00, $ff, $00, $00, $00, $00, $00, $00, $00, $00, $6c, $6c, $6c, $6c, $6c
0312d     EF 00 EF 6C 
03131     6C 6C 6C 6C 
03135     6C 6C 6C 00 
03139     00 00 00 00 | 	byte	$ef, $00, $ef, $6c, $6c, $6c, $6c, $6c, $6c, $6c, $6c, $00, $00, $00, $00, $00
0313d     63 3E 63 63 
03141     63 63 3E 63 
03145     00 00 00 00 
03149     00 00 30 7E | 	byte	$63, $3e, $63, $63, $63, $63, $3e, $63, $00, $00, $00, $00, $00, $00, $30, $7e
0314d     30 3C 36 33 
03151     33 33 33 6E 
03155     00 00 00 00 
03159     00 00 1F 36 | 	byte	$30, $3c, $36, $33, $33, $33, $33, $6e, $00, $00, $00, $00, $00, $00, $1f, $36
0315d     66 66 6F 66 
03161     66 66 36 1F 
03165     00 00 00 36 
03169     1C 00 1F 36 | 	byte	$66, $66, $6f, $66, $66, $66, $36, $1f, $00, $00, $00, $36, $1c, $00, $1f, $36
0316d     66 66 66 66 
03171     66 66       | 	byte	$66[6]
03173     36 1F 00 00 
03177     00 00 63 00 
0317b     7F 66 46 16 
0317f     1E 16 06 46 | 	byte	$36, $1f, $00, $00, $00, $00, $63, $00, $7f, $66, $46, $16, $1e, $16, $06, $46
03183     66 7F 00 00 
03187     00 6C 38 00 
0318b     38 30 30 3C 
0318f     36 33 33 33 | 	byte	$66, $7f, $00, $00, $00, $6c, $38, $00, $38, $30, $30, $3c, $36, $33, $33, $33
03193     33 6E 00 00 
03197     00 36 1C 00 
0319b     63 67 6F 7F 
0319f     7B 73 63 63 | 	byte	$33, $6e, $00, $00, $00, $36, $1c, $00, $63, $67, $6f, $7f, $7b, $73, $63, $63
031a3     63 63 00 00 
031a7     00 30 18 00 
031ab     3C 18 18 18 
031af     18 18 18 18 | 	byte	$63, $63, $00, $00, $00, $30, $18, $00, $3c, $18, $18, $18, $18, $18, $18, $18
031b3     18 3C 00 00 
031b7     00 3C 66 00 
031bb     3C 18 18 18 
031bf     18 18 18 18 | 	byte	$18, $3c, $00, $00, $00, $3c, $66, $00, $3c, $18, $18, $18, $18, $18, $18, $18
031c3     18 3C 00 00 
031c7     00 00 00 36 
031cb     1C 08 00 3E 
031cf     63 7F 03 03 | 	byte	$18, $3c, $00, $00, $00, $00, $00, $36, $1c, $08, $00, $3e, $63, $7f, $03, $03
031d3     63 3E 00 00 
031d7     00 18 18 18 
031db     18 18 18 18 
031df     1F 00 00 00 | 	byte	$63, $3e, $00, $00, $00, $18, $18, $18, $18, $18, $18, $18, $1f, $00, $00, $00
031e3     00 00 00 00 
031e7     00 00 00 00 
031eb     00 00 00 00 | 	byte	$00[12]
031ef     F8 18 18 18 
031f3     18 18 18 18 
031f7     18 FF FF FF 
031fb     FF FF FF FF | 	byte	$f8, $18, $18, $18, $18, $18, $18, $18, $18, $ff, $ff, $ff, $ff, $ff, $ff, $ff
031ff     FF FF FF FF 
03203     FF FF FF FF 
03207     FF          | 	byte	$ff[9]
03208     00 00 00 00 
0320c     00 00 00    | 	byte	$00[7]
0320f     FF FF FF FF 
03213     FF FF FF FF 
03217     FF          | 	byte	$ff[9]
03218     00 00 00 7E 
0321c     7E 5A 18 18 
03220     18 18 18 18 
03224     3C 18 30 1E | 	byte	$00, $00, $00, $7e, $7e, $5a, $18, $18, $18, $18, $18, $18, $3c, $18, $30, $1e
03228     1C 36 1C 63 
0322c     63 63 63 63 
03230     63 63 63 63 
03234     3E 00 00 00 | 	byte	$1c, $36, $1c, $63, $63, $63, $63, $63, $63, $63, $63, $63, $3e, $00, $00, $00
03238     FF FF FF FF 
0323c     FF FF FF    | 	byte	$ff[7]
0323f     00 00 00 00 
03243     00 00 00 00 
03247     00          | 	byte	$00[9]
03248     30 18 00 3E 
0324c     63 63 63 63 
03250     63 63 63 63 
03254     3E 00 00 00 | 	byte	$30, $18, $00, $3e, $63, $63, $63, $63, $63, $63, $63, $63, $3e, $00, $00, $00
03258     00 00 00 1E 
0325c     33 33 33 1B 
03260     33 63 63 63 
03264     33 00 00 00 | 	byte	$00, $00, $00, $1e, $33, $33, $33, $1b, $33, $63, $63, $63, $33, $00, $00, $00
03268     1C 36 00 3E 
0326c     63 63 63 63 
03270     63 63 63 63 
03274     3E 00 00 00 | 	byte	$1c, $36, $00, $3e, $63, $63, $63, $63, $63, $63, $63, $63, $3e, $00, $00, $00
03278     30 18 00 63 
0327c     67 6F 7F 7B 
03280     73 63 63 63 
03284     63 00 00 00 | 	byte	$30, $18, $00, $63, $67, $6f, $7f, $7b, $73, $63, $63, $63, $63, $00, $00, $00
03288     00 00 60 30 
0328c     18 00 3B 66 
03290     66 66 66 66 
03294     66 00 00 00 | 	byte	$00, $00, $60, $30, $18, $00, $3b, $66, $66, $66, $66, $66, $66, $00, $00, $00
03298     00 00 36 1C 
0329c     08 00 3B 66 
032a0     66 66 66 66 
032a4     66 00 00 00 | 	byte	$00, $00, $36, $1c, $08, $00, $3b, $66, $66, $66, $66, $66, $66, $00, $00, $00
032a8     36 1C 00 3E 
032ac     63 63 06 1C 
032b0     30 60 63 63 
032b4     3E 00 00 00 | 	byte	$36, $1c, $00, $3e, $63, $63, $06, $1c, $30, $60, $63, $63, $3e, $00, $00, $00
032b8     00 00 36 1C 
032bc     08 00 3E 63 
032c0     06 1C 30 63 
032c4     3E 00 00 00 | 	byte	$00, $00, $36, $1c, $08, $00, $3e, $63, $06, $1c, $30, $63, $3e, $00, $00, $00
032c8     30 18 00 3F 
032cc     66 66 66 3E 
032d0     36 66 66 66 
032d4     6F 00 00 00 | 	byte	$30, $18, $00, $3f, $66, $66, $66, $3e, $36, $66, $66, $66, $6f, $00, $00, $00
032d8     30 18 00 63 
032dc     63 63 63 63 
032e0     63 63 63 63 
032e4     3E 00 00 00 | 	byte	$30, $18, $00, $63, $63, $63, $63, $63, $63, $63, $63, $63, $3e, $00, $00, $00
032e8     00 00 60 30 
032ec     18 00 3B 6E 
032f0     66 06 06 06 
032f4     0F 00 00 00 | 	byte	$00, $00, $60, $30, $18, $00, $3b, $6e, $66, $06, $06, $06, $0f, $00, $00, $00
032f8     66 33 00 63 
032fc     63 63 63 63 
03300     63 63 63 63 
03304     3E 00 00 00 | 	byte	$66, $33, $00, $63, $63, $63, $63, $63, $63, $63, $63, $63, $3e, $00, $00, $00
03308     00 00 60 30 
0330c     18 00 63 63 
03310     63 63 63 63 
03314     7E 60 30 1F | 	byte	$00, $00, $60, $30, $18, $00, $63, $63, $63, $63, $63, $63, $7e, $60, $30, $1f
03318     30 18 00 66 
0331c     66 66 66 3C 
03320     18 18 18 18 
03324     3C 00 00 00 | 	byte	$30, $18, $00, $66, $66, $66, $66, $3c, $18, $18, $18, $18, $3c, $00, $00, $00
03328     00 00 00 08 
0332c     0C 0C 3F 0C 
03330     0C 0C 0C 6C 
03334     38 18 30 1E | 	byte	$00, $00, $00, $08, $0c, $0c, $3f, $0c, $0c, $0c, $0c, $6c, $38, $18, $30, $1e
03338     30 18 00 00 
0333c     00 00 00 00 
03340     00 00 00 00 
03344     00 00 00 00 | 	byte	$30, $18, $00, $00, $00, $00, $00, $00, $00, $00, $00, $00, $00, $00, $00, $00
03348     00 00 00 00 
0334c     00 00 00 00 | 	byte	$00[8]
03350     7F 00 00 00 
03354     00 00 00 00 
03358     66 33 00 00 
0335c     00 00 00 00 | 	byte	$7f, $00, $00, $00, $00, $00, $00, $00, $66, $33, $00, $00, $00, $00, $00, $00
03360     00 00 00 00 
03364     00 00 00 00 
03368     00 00 00 00 
0336c     00 00 00 00 
03370     00 00 00 00 
03374     00          | 	byte	$00[21]
03375     0C 06 3C 36 
03379     1C 00 00 00 
0337d     00 00 00 00 
03381     00 00 00 00 | 	byte	$0c, $06, $3c, $36, $1c, $00, $00, $00, $00, $00, $00, $00, $00, $00, $00, $00
03385     00 00 00 63 
03389     3E 00 00 00 
0338d     00 00 00 00 
03391     00 00 00 00 | 	byte	$00, $00, $00, $63, $3e, $00, $00, $00, $00, $00, $00, $00, $00, $00, $00, $00
03395     00 00 00 00 
03399     3E 63 06 1C 
0339d     36 63 63 36 
033a1     1C 30 63 3E | 	byte	$00, $00, $00, $00, $3e, $63, $06, $1c, $36, $63, $63, $36, $1c, $30, $63, $3e
033a5     00 00 00 00 
033a9     00 00 00 00 | 	byte	$00[8]
033ad     18 00 7E 00 
033b1     18 00 00 00 
033b5     00 00 00 00 
033b9     00 00 00 00 | 	byte	$18, $00, $7e, $00, $18, $00, $00, $00, $00, $00, $00, $00, $00, $00, $00, $00
033bd     00 00 00 00 
033c1     00 00 00 00 | 	byte	$00[8]
033c5     18 30 1E 00 
033c9     00 00 1C 36 
033cd     36 1C 00 00 
033d1     00 00 00 00 | 	byte	$18, $30, $1e, $00, $00, $00, $1c, $36, $36, $1c, $00, $00, $00, $00, $00, $00
033d5     00 00 00 00 
033d9     63 00 00 00 
033dd     00 00 00 00 
033e1     00 00 00 00 | 	byte	$00, $00, $00, $00, $63, $00, $00, $00, $00, $00, $00, $00, $00, $00, $00, $00
033e5     00 00 00 18 
033e9     18 00 00 00 
033ed     00 00 00 00 
033f1     00 00 00 00 | 	byte	$00, $00, $00, $18, $18, $00, $00, $00, $00, $00, $00, $00, $00, $00, $00, $00
033f5     00 00 00 00 
033f9     00          | 	byte	$00[5]
033fa     CC 66 33 00 
033fe     33 33 33 33 
03402     33 33 6E 00 
03406     00 00 36 1C | 	byte	$cc, $66, $33, $00, $33, $33, $33, $33, $33, $33, $6e, $00, $00, $00, $36, $1c
0340a     00 3F 66 66 
0340e     66 3E 36 66 
03412     66 66 6F 00 
03416     00 00 00 00 | 	byte	$00, $3f, $66, $66, $66, $3e, $36, $66, $66, $66, $6f, $00, $00, $00, $00, $00
0341a     36 1C 08 00 
0341e     3B 6E 66 06 
03422     06 06 0F 00 
03426     00 00 00 00 | 	byte	$36, $1c, $08, $00, $3b, $6e, $66, $06, $06, $06, $0f, $00, $00, $00, $00, $00
0342a     00 00 00 7E 
0342e     7E 7E 7E 7E 
03432     7E 7E 00 00 
03436     00 00 00 00 | 	byte	$00, $00, $00, $7e, $7e, $7e, $7e, $7e, $7e, $7e, $00, $00, $00, $00, $00, $00
0343a     00 00 00 00 
0343e     00 00 00 00 
03442     00 00 00 00 
03446     00 00       | 	byte	$00, $00, $00, $00, $00, $00, $00, $00, $00, $00, $00, $00, $00, $00
03448     00 00 00 00 
      ...             
03478     00 00 00 00 
0347c     00 00 00    | st_font        file "st4font.def"
0347f     FF FF 00 00 
03483     00 00 00 00 
03487     00 18 18 18 
0348b     18 18 18 18 | 	byte	$ff, $ff, $00, $00, $00, $00, $00, $00, $00, $18, $18, $18, $18, $18, $18, $18
0348f     18 18 18 18 
03493     18 18 18 18 
03497     18          | 	byte	$18[9]
03498     00 00 00 00 
0349c     00 00 00    | 	byte	$00[7]
0349f     FF FF 18 18 
034a3     18 18 18 18 
034a7     18 18 18 18 
034ab     18 18 18 18 | 	byte	$ff, $ff, $18, $18, $18, $18, $18, $18, $18, $18, $18, $18, $18, $18, $18, $18
034af     FF FF 00 00 
034b3     00 00 00 00 
034b7     00 18 18 18 
034bb     18 18 18 18 | 	byte	$ff, $ff, $00, $00, $00, $00, $00, $00, $00, $18, $18, $18, $18, $18, $18, $18
034bf     1F 1F 18 18 
034c3     18 18 18 18 
034c7     18 18 18 18 
034cb     18 18 18 18 | 	byte	$1f, $1f, $18, $18, $18, $18, $18, $18, $18, $18, $18, $18, $18, $18, $18, $18
034cf     F8 F8 18 18 
034d3     18 18 18 18 
034d7     18 00 00 00 
034db     00 00 00 00 | 	byte	$f8, $f8, $18, $18, $18, $18, $18, $18, $18, $00, $00, $00, $00, $00, $00, $00
034df     1F 1F 18 18 
034e3     18 18 18 18 
034e7     18 00 00 00 
034eb     00 00 00 00 | 	byte	$1f, $1f, $18, $18, $18, $18, $18, $18, $18, $00, $00, $00, $00, $00, $00, $00
034ef     F8 F8 18 18 
034f3     18 18 18 18 
034f7     18 18 18 18 
034fb     18 18 18 18 | 	byte	$f8, $f8, $18, $18, $18, $18, $18, $18, $18, $18, $18, $18, $18, $18, $18, $18
034ff     1F 1F 00 00 
03503     00 00 00 00 
03507     00 18 18 18 
0350b     18 18 18 18 | 	byte	$1f, $1f, $00, $00, $00, $00, $00, $00, $00, $18, $18, $18, $18, $18, $18, $18
0350f     F8 F8 00 00 
03513     00 00 00 00 
03517     00 18 18 18 
0351b     18 18 18 18 | 	byte	$f8, $f8, $00, $00, $00, $00, $00, $00, $00, $18, $18, $18, $18, $18, $18, $18
0351f     FF FF 18 18 
03523     18 18 18 18 
03527     18 00 00 18 
0352b     3C 7E 66 66 | 	byte	$ff, $ff, $18, $18, $18, $18, $18, $18, $18, $00, $00, $18, $3c, $7e, $66, $66
0352f     66 7E 7E 66 
03533     66 66 66 30 
03537     18 00 00 7E 
0353b     7E 06 06 3E | 	byte	$66, $7e, $7e, $66, $66, $66, $66, $30, $18, $00, $00, $7e, $7e, $06, $06, $3e
0353f     3E 06 06 06 
03543     06 7E 7E 18 
03547     0C 30 18 3C 
0354b     7E 66 66 06 | 	byte	$3e, $06, $06, $06, $06, $7e, $7e, $18, $0c, $30, $18, $3c, $7e, $66, $66, $06
0354f     06 06 06 66 
03553     66 7E 3C 00 
03557     00 30 18 66 
0355b     66 66 6E 6E | 	byte	$06, $06, $06, $66, $66, $7e, $3c, $00, $00, $30, $18, $66, $66, $66, $6e, $6e
0355f     7E 7E 76 76 
03563     66 66 66 00 
03567     00 30 18 7C 
0356b     7E 06 06 0E | 	byte	$7e, $7e, $76, $76, $66, $66, $66, $00, $00, $30, $18, $7c, $7e, $06, $06, $0e
0356f     1C 38 70 60 
03573     60 7E 3E 00 
03577     00 30 18 7E 
0357b     7E 30 30 18 | 	byte	$1c, $38, $70, $60, $60, $7e, $3e, $00, $00, $30, $18, $7e, $7e, $30, $30, $18
0357f     18 0C 0C 06 
03583     06 7E 7E 00 
03587     00 18 18 00 
0358b     7E 7E 30 30 | 	byte	$18, $0c, $0c, $06, $06, $7e, $7e, $00, $00, $18, $18, $00, $7e, $7e, $30, $30
0358f     18 18 0C 0C 
03593     06 7E 7E 00 
03597     00 30 18 3C 
0359b     7E 66 66 66 | 	byte	$18, $18, $0c, $0c, $06, $7e, $7e, $00, $00, $30, $18, $3c, $7e, $66, $66, $66
0359f     66 66 66 66 
035a3     66          | 	byte	$66[5]
035a4     7E 3C 00 00 
035a8     00 00 06 06 
035ac     06 06 16 1E 
035b0     0E 06 06 06 | 	byte	$7e, $3c, $00, $00, $00, $00, $06, $06, $06, $06, $16, $1e, $0e, $06, $06, $06
035b4     7E 7E 00 00 
035b8     00 00 00 00 
035bc     00 3C 7C 60 
035c0     7C 7E 66 66 | 	byte	$7e, $7e, $00, $00, $00, $00, $00, $00, $00, $3c, $7c, $60, $7c, $7e, $66, $66
035c4     7E 7C 30 18 
035c8     00 00 00 00 
035cc     00 3C 7E 66 
035d0     66 7E 06 06 | 	byte	$7e, $7c, $30, $18, $00, $00, $00, $00, $00, $3c, $7e, $66, $66, $7e, $06, $06
035d4     7E 7C 18 0C 
035d8     00 00 30 18 
035dc     00 3C 3E 06 
035e0     06 06 06 06 | 	byte	$7e, $7c, $18, $0c, $00, $00, $30, $18, $00, $3c, $3e, $06, $06, $06, $06, $06
035e4     7E 7C 00 00 
035e8     00 00 30 18 
035ec     00 3E 7E 66 
035f0     66 66 66 66 | 	byte	$7e, $7c, $00, $00, $00, $00, $30, $18, $00, $3e, $7e, $66, $66, $66, $66, $66
035f4     66 66 00 00 
035f8     00 00 30 18 
035fc     00 7C 7E 06 
03600     0E 3C 70 60 | 	byte	$66, $66, $00, $00, $00, $00, $30, $18, $00, $7c, $7e, $06, $0e, $3c, $70, $60
03604     7E 3E 00 00 
03608     00 00 30 18 
0360c     00 7E 7E 30 
03610     18 18 0C 0C | 	byte	$7e, $3e, $00, $00, $00, $00, $30, $18, $00, $7e, $7e, $30, $18, $18, $0c, $0c
03614     7E 7E 00 00 
03618     00 00 18 18 
0361c     00 7E 7E 30 
03620     18 18 0C 0C | 	byte	$7e, $7e, $00, $00, $00, $00, $18, $18, $00, $7e, $7e, $30, $18, $18, $0c, $0c
03624     7E 7E 00 00 
03628     00 00 30 18 
0362c     00 3C 7E 66 
03630     66 66 66 66 | 	byte	$7e, $7e, $00, $00, $00, $00, $30, $18, $00, $3c, $7e, $66, $66, $66, $66, $66
03634     7E 3C 00 00 
03638     00 00 1C 1C 
0363c     18 18 38 3C 
03640     1C 18 18 18 | 	byte	$7e, $3c, $00, $00, $00, $00, $1c, $1c, $18, $18, $38, $3c, $1c, $18, $18, $18
03644     3C 3C 00 00 
03648     00 00 00 00 
0364c     00 00 00 00 
03650     00 00 00 00 | 	byte	$3c, $3c, $00, $00, $00, $00, $00, $00, $00, $00, $00, $00, $00, $00, $00, $00
03654     00 00 00 00 
03658     00 00       | 	byte	$00[6]
0365a     18 18 18 18 
0365e     18 18 18 18 | 	byte	$18[8]
03662     00 00 18 18 
03666     00 00 00 00 
0366a     66 66 66 66 
0366e     00 00 00 00 | 	byte	$00, $00, $18, $18, $00, $00, $00, $00, $66, $66, $66, $66, $00, $00, $00, $00
03672     00 00 00 00 
03676     00 00 00 00 
0367a     00          | 	byte	$00[9]
0367b     66 66 FF FF 
0367f     66 66 FF FF 
03683     66 66 00 00 
03687     00 00 18 18 | 	byte	$66, $66, $ff, $ff, $66, $66, $ff, $ff, $66, $66, $00, $00, $00, $00, $18, $18
0368b     7C 7E 06 06 
0368f     3E 7C 60 60 
03693     7E 3E 18 18 
03697     00 00 00 66 | 	byte	$7c, $7e, $06, $06, $3e, $7c, $60, $60, $7e, $3e, $18, $18, $00, $00, $00, $66
0369b     66 30 30 18 
0369f     18 0C 0C 66 
036a3     66 00 00 00 
036a7     00 00 3C 7E | 	byte	$66, $30, $30, $18, $18, $0c, $0c, $66, $66, $00, $00, $00, $00, $00, $3c, $7e
036ab     66 66 3C 1C 
036af     1C FC FE 66 
036b3     66 FE FC 00 
036b7     00 00 00 18 | 	byte	$66, $66, $3c, $1c, $1c, $fc, $fe, $66, $66, $fe, $fc, $00, $00, $00, $00, $18
036bb     18 18 18 18 
036bf     00 00 00 00 
036c3     00 00 00 00 
036c7     00 00 00 30 | 	byte	$18, $18, $18, $18, $00, $00, $00, $00, $00, $00, $00, $00, $00, $00, $00, $30
036cb     18 1C 0C 0C 
036cf     0C 0C 0C 0C 
036d3     1C 18 30 00 
036d7     00 00 00 0C | 	byte	$18, $1c, $0c, $0c, $0c, $0c, $0c, $0c, $1c, $18, $30, $00, $00, $00, $00, $0c
036db     18 38 30 30 
036df     30 30 30 30 
036e3     38 18 0C 00 
036e7     00 00 00 00 | 	byte	$18, $38, $30, $30, $30, $30, $30, $30, $38, $18, $0c, $00, $00, $00, $00, $00
036eb     66 66 3C 3C 
036ef     FF FF 3C 3C 
036f3     66 66 00 00 
036f7     00 00 00 00 | 	byte	$66, $66, $3c, $3c, $ff, $ff, $3c, $3c, $66, $66, $00, $00, $00, $00, $00, $00
036fb     00 18 18 18 
036ff     7E 7E 18 18 
03703     18 00 00 00 
03707     00 00 00 00 | 	byte	$00, $18, $18, $18, $7e, $7e, $18, $18, $18, $00, $00, $00, $00, $00, $00, $00
0370b     00 00 00 00 
0370f     00 00       | 	byte	$00[6]
03711     18 18 18 18 
03715     18          | 	byte	$18[5]
03716     0C 04 00 00 
0371a     00 00 00 00 
0371e     7E 7E 00 00 
03722     00 00 00 00 | 	byte	$0c, $04, $00, $00, $00, $00, $00, $00, $7e, $7e, $00, $00, $00, $00, $00, $00
03726     00 00 00 00 
0372a     00 00 00 00 
0372e     00 00 00 00 
03732     00          | 	byte	$00[13]
03733     18 18 18 00 
03737     00 00 00 60 
0373b     60 60 30 30 
0373f     18 18 0C 0C | 	byte	$18, $18, $18, $00, $00, $00, $00, $60, $60, $60, $30, $30, $18, $18, $0c, $0c
03743     06 06 06 00 
03747     00 00 00 3C 
0374b     7E 66 66 66 
0374f     76 6E 66 66 | 	byte	$06, $06, $06, $00, $00, $00, $00, $3c, $7e, $66, $66, $66, $76, $6e, $66, $66
03753     66 7E 3C 00 
03757     00 00 00 18 
0375b     18 1C 1C 18 
0375f     18 18 18 18 | 	byte	$66, $7e, $3c, $00, $00, $00, $00, $18, $18, $1c, $1c, $18, $18, $18, $18, $18
03763     18 7E 7E 00 
03767     00 00 00 3C 
0376b     7E 66 66 30 
0376f     30 18 18 0C | 	byte	$18, $7e, $7e, $00, $00, $00, $00, $3c, $7e, $66, $66, $30, $30, $18, $18, $0c
03773     0C 7E 7E 00 
03777     00 00 00 7E 
0377b     7E 30 30 18 
0377f     18 30 30 66 | 	byte	$0c, $7e, $7e, $00, $00, $00, $00, $7e, $7e, $30, $30, $18, $18, $30, $30, $66
03783     66 7E 3C 00 
03787     00 00 00 30 
0378b     30 38 38 3C 
0378f     3C 36 36 7E | 	byte	$66, $7e, $3c, $00, $00, $00, $00, $30, $30, $38, $38, $3c, $3c, $36, $36, $7e
03793     7E 30 30 00 
03797     00 00 00 7E 
0379b     7E 06 06 3E 
0379f     7E 60 60 60 | 	byte	$7e, $30, $30, $00, $00, $00, $00, $7e, $7e, $06, $06, $3e, $7e, $60, $60, $60
037a3     66 7E 3C 00 
037a7     00 00 00 38 
037ab     3C 0E 06 06 
037af     3E 7E 66 66 | 	byte	$66, $7e, $3c, $00, $00, $00, $00, $38, $3c, $0e, $06, $06, $3e, $7e, $66, $66
037b3     66 7E 3C 00 
037b7     00 00 00 7E 
037bb     7E 60 60 30 
037bf     30 18 18 0C | 	byte	$66, $7e, $3c, $00, $00, $00, $00, $7e, $7e, $60, $60, $30, $30, $18, $18, $0c
037c3     0C 0C 0C 00 
037c7     00 00 00 3C 
037cb     7E 66 66 3C 
037cf     3C 66 66 66 | 	byte	$0c, $0c, $0c, $00, $00, $00, $00, $3c, $7e, $66, $66, $3c, $3c, $66, $66, $66
037d3     66 7E 3C 00 
037d7     00 00 00 3C 
037db     7E 66 66 7E 
037df     7C 60 60 60 | 	byte	$66, $7e, $3c, $00, $00, $00, $00, $3c, $7e, $66, $66, $7e, $7c, $60, $60, $60
037e3     70 3C 1C 00 
037e7     00 00 00 00 
037eb     00 00 18 18 
037ef     18 00 00 00 | 	byte	$70, $3c, $1c, $00, $00, $00, $00, $00, $00, $00, $18, $18, $18, $00, $00, $00
037f3     18 18 18 00 
037f7     00 00 00 00 
037fb     00 00 18 18 
037ff     18 00 00 18 | 	byte	$18, $18, $18, $00, $00, $00, $00, $00, $00, $00, $18, $18, $18, $00, $00, $18
03803     18 18 18 0C 
03807     04 00 00 00 
0380b     70 38 1C 0E 
0380f     07 0E 1C 38 | 	byte	$18, $18, $18, $0c, $04, $00, $00, $00, $70, $38, $1c, $0e, $07, $0e, $1c, $38
03813     70 00 00 00 
03817     00 00 00 00 
0381b     00 00 7E 7E 
0381f     00 00 7E 7E | 	byte	$70, $00, $00, $00, $00, $00, $00, $00, $00, $00, $7e, $7e, $00, $00, $7e, $7e
03823     00 00 00 00 
03827     00 00 00 00 | 	byte	$00[8]
0382b     0E 1C 38 70 
0382f     E0 70 38 1C 
03833     0E 00 00 00 
03837     00 00 00 3C | 	byte	$0e, $1c, $38, $70, $e0, $70, $38, $1c, $0e, $00, $00, $00, $00, $00, $00, $3c
0383b     7E 66 66 30 
0383f     30 18 18 18 
03843     00 18 18 00 
03847     00 00 00 3C | 	byte	$7e, $66, $66, $30, $30, $18, $18, $18, $00, $18, $18, $00, $00, $00, $00, $3c
0384b     7E 66 66 66 
0384f     66 36 06 66 
03853     66 7E 3C 00 
03857     00 00 00 18 | 	byte	$7e, $66, $66, $66, $66, $36, $06, $66, $66, $7e, $3c, $00, $00, $00, $00, $18
0385b     3C 7E 66 66 
0385f     66 7E 7E 66 
03863     66 66 66 00 
03867     00 00 00 3E | 	byte	$3c, $7e, $66, $66, $66, $7e, $7e, $66, $66, $66, $66, $00, $00, $00, $00, $3e
0386b     7E 66 66 7E 
0386f     3E 66 66 66 
03873     66 7E 3E 00 
03877     00 00 00 3C | 	byte	$7e, $66, $66, $7e, $3e, $66, $66, $66, $66, $7e, $3e, $00, $00, $00, $00, $3c
0387b     7E 66 66 06 
0387f     06 06 06 66 
03883     66 7E 3C 00 
03887     00 00 00 3E | 	byte	$7e, $66, $66, $06, $06, $06, $06, $66, $66, $7e, $3c, $00, $00, $00, $00, $3e
0388b     7E 66 66 66 
0388f     66 66 66 66 
03893     66 7E 3E 00 
03897     00 00 00 7E | 	byte	$7e, $66, $66, $66, $66, $66, $66, $66, $66, $7e, $3e, $00, $00, $00, $00, $7e
0389b     7E 06 06 3E 
0389f     3E 06 06 06 
038a3     06 7E 7E 00 
038a7     00 00 00 7E | 	byte	$7e, $06, $06, $3e, $3e, $06, $06, $06, $06, $7e, $7e, $00, $00, $00, $00, $7e
038ab     7E 06 06 3E 
038af     3E 06 06 06 
038b3     06 06 06 00 
038b7     00 00 00 7C | 	byte	$7e, $06, $06, $3e, $3e, $06, $06, $06, $06, $06, $06, $00, $00, $00, $00, $7c
038bb     7E 06 06 76 
038bf     76 66 66 66 
038c3     66 7E 3C 00 
038c7     00 00 00 66 | 	byte	$7e, $06, $06, $76, $76, $66, $66, $66, $66, $7e, $3c, $00, $00, $00, $00, $66
038cb     66 66 66 7E 
038cf     7E 66 66 66 
038d3     66 66 66 00 
038d7     00 00 00 7E | 	byte	$66, $66, $66, $7e, $7e, $66, $66, $66, $66, $66, $66, $00, $00, $00, $00, $7e
038db     7E 18 18 18 
038df     18 18 18 18 
038e3     18 7E 7E 00 
038e7     00 00 00 60 | 	byte	$7e, $18, $18, $18, $18, $18, $18, $18, $18, $7e, $7e, $00, $00, $00, $00, $60
038eb     60 60 60 60 
038ef     60 60 60    | 	byte	$60[7]
038f2     66 66 7E 3C 
038f6     00 00 00 00 
038fa     66 66 36 36 
038fe     1E 1E 36 36 | 	byte	$66, $66, $7e, $3c, $00, $00, $00, $00, $66, $66, $36, $36, $1e, $1e, $36, $36
03902     66 66 C6 C6 
03906     00 00 00 00 
0390a     06 06 06 06 
0390e     06 06 06 06 | 	byte	$66, $66, $c6, $c6, $00, $00, $00, $00, $06, $06, $06, $06, $06, $06, $06, $06
03912     06 06 7E 7E 
03916     00 00 00 00 
0391a     C6 C6 EE EE 
0391e     FE D6 D6 C6 | 	byte	$06, $06, $7e, $7e, $00, $00, $00, $00, $c6, $c6, $ee, $ee, $fe, $d6, $d6, $c6
03922     C6 C6 C6 C6 
03926     00 00 00 00 
0392a     66 66 66 6E 
0392e     6E 7E 7E 76 | 	byte	$c6, $c6, $c6, $c6, $00, $00, $00, $00, $66, $66, $66, $6e, $6e, $7e, $7e, $76
03932     76 66 66 66 
03936     00 00 00 00 
0393a     3C 7E 66 66 
0393e     66 66 66 66 | 	byte	$76, $66, $66, $66, $00, $00, $00, $00, $3c, $7e, $66, $66, $66, $66, $66, $66
03942     66 66 7E 3C 
03946     00 00 00 00 
0394a     3E 7E 66 66 
0394e     66 66 7E 3E | 	byte	$66, $66, $7e, $3c, $00, $00, $00, $00, $3e, $7e, $66, $66, $66, $66, $7e, $3e
03952     06 06 06 06 
03956     00 00 00 00 
0395a     3C 7E 66 66 
0395e     66 66 66 66 | 	byte	$06, $06, $06, $06, $00, $00, $00, $00, $3c, $7e, $66, $66, $66, $66, $66, $66
03962     66 56 3E 6C 
03966     00 00 00 00 
0396a     3E 7E 66 66 
0396e     66 7E 3E 36 | 	byte	$66, $56, $3e, $6c, $00, $00, $00, $00, $3e, $7e, $66, $66, $66, $7e, $3e, $36
03972     66 66 C6 C6 
03976     00 00 00 00 
0397a     7C 7E 06 06 
0397e     0E 1C 38 70 | 	byte	$66, $66, $c6, $c6, $00, $00, $00, $00, $7c, $7e, $06, $06, $0e, $1c, $38, $70
03982     60 60 7E 3E 
03986     00 00 00 00 
0398a     7E 7E 18 18 
0398e     18 18 18 18 | 	byte	$60, $60, $7e, $3e, $00, $00, $00, $00, $7e, $7e, $18, $18, $18, $18, $18, $18
03992     18 18 18 18 
03996     00 00 00 00 
0399a     66 66 66 66 
0399e     66 66 66 66 | 	byte	$18, $18, $18, $18, $00, $00, $00, $00, $66, $66, $66, $66, $66, $66, $66, $66
039a2     66 66 7E 3C 
039a6     00 00 00 00 
039aa     66 66 66 66 
039ae     66 66 66 66 | 	byte	$66, $66, $7e, $3c, $00, $00, $00, $00, $66, $66, $66, $66, $66, $66, $66, $66
039b2     3C 3C 18 18 
039b6     00 00 00 00 
039ba     C6 C6 C6 C6 
039be     C6 D6 D6 FE | 	byte	$3c, $3c, $18, $18, $00, $00, $00, $00, $c6, $c6, $c6, $c6, $c6, $d6, $d6, $fe
039c2     FE EE C6 82 
039c6     00 00 00 00 
039ca     66 66 66 3C 
039ce     3C 18 18 3C | 	byte	$fe, $ee, $c6, $82, $00, $00, $00, $00, $66, $66, $66, $3c, $3c, $18, $18, $3c
039d2     3C 66 66 66 
039d6     00 00 00 00 
039da     66 66 66 66 
039de     66 3C 3C 18 | 	byte	$3c, $66, $66, $66, $00, $00, $00, $00, $66, $66, $66, $66, $66, $3c, $3c, $18
039e2     18 18 18 18 
039e6     00 00 00 00 
039ea     7E 7E 30 30 
039ee     18 18 0C 0C | 	byte	$18, $18, $18, $18, $00, $00, $00, $00, $7e, $7e, $30, $30, $18, $18, $0c, $0c
039f2     06 06 7E 7E 
039f6     00 00 00 00 
039fa     3C 3C 0C 0C 
039fe     0C 0C 0C 0C | 	byte	$06, $06, $7e, $7e, $00, $00, $00, $00, $3c, $3c, $0c, $0c, $0c, $0c, $0c, $0c
03a02     0C 0C 3C 3C 
03a06     00 00 00 00 
03a0a     06 06 0C 0C 
03a0e     18 18 30 30 | 	byte	$0c, $0c, $3c, $3c, $00, $00, $00, $00, $06, $06, $0c, $0c, $18, $18, $30, $30
03a12     60 60 C0 C0 
03a16     00 00 00 00 
03a1a     3C 3C 30 30 
03a1e     30 30 30 30 | 	byte	$60, $60, $c0, $c0, $00, $00, $00, $00, $3c, $3c, $30, $30, $30, $30, $30, $30
03a22     30 30 3C 3C 
03a26     00 00 00 00 
03a2a     18 18 3C 3C 
03a2e     66 66 00 00 | 	byte	$30, $30, $3c, $3c, $00, $00, $00, $00, $18, $18, $3c, $3c, $66, $66, $00, $00
03a32     00 00 00 00 
03a36     00 00 00 00 
03a3a     00 00 00 00 
03a3e     00 00 00 00 
03a42     00 00       | 	byte	$00[18]
03a44     FE FE 00 00 
03a48     00 00 0C 0C 
03a4c     18 18 00 00 
03a50     00 00 00 00 | 	byte	$fe, $fe, $00, $00, $00, $00, $0c, $0c, $18, $18, $00, $00, $00, $00, $00, $00
03a54     00 00 00 00 
03a58     00 00 00 00 
03a5c     00          | 	byte	$00[9]
03a5d     3C 7C 60 7C 
03a61     7E 66 66 7E 
03a65     7C 00 00 00 
03a69     00 06 06 06 | 	byte	$3c, $7c, $60, $7c, $7e, $66, $66, $7e, $7c, $00, $00, $00, $00, $06, $06, $06
03a6d     3E 7E 66 66 
03a71     66 66 66 7E 
03a75     3E 00 00 00 
03a79     00 00 00 00 | 	byte	$3e, $7e, $66, $66, $66, $66, $66, $7e, $3e, $00, $00, $00, $00, $00, $00, $00
03a7d     3C 3E 06 06 
03a81     06 06 06 7E 
03a85     7C 00 00 00 
03a89     00 60 60 60 | 	byte	$3c, $3e, $06, $06, $06, $06, $06, $7e, $7c, $00, $00, $00, $00, $60, $60, $60
03a8d     7C 7E 66 66 
03a91     66 66 66 7E 
03a95     7C 00 00 00 
03a99     00 00 00 00 | 	byte	$7c, $7e, $66, $66, $66, $66, $66, $7e, $7c, $00, $00, $00, $00, $00, $00, $00
03a9d     3C 7E 66 66 
03aa1     7E 06 06 7E 
03aa5     7C 00 00 00 
03aa9     00 70 78 18 | 	byte	$3c, $7e, $66, $66, $7e, $06, $06, $7e, $7c, $00, $00, $00, $00, $70, $78, $18
03aad     18 7E 7E 18 
03ab1     18 18 18 18 
03ab5     18 00 00 00 
03ab9     00 00 00 00 | 	byte	$18, $7e, $7e, $18, $18, $18, $18, $18, $18, $00, $00, $00, $00, $00, $00, $00
03abd     7C 7E 66 66 
03ac1     66 66 7E 7C 
03ac5     60 7E 3E 00 
03ac9     00 06 06 06 | 	byte	$7c, $7e, $66, $66, $66, $66, $7e, $7c, $60, $7e, $3e, $00, $00, $06, $06, $06
03acd     3E 7E 66 66 
03ad1     66 66 66 66 
03ad5     66 00 00 00 
03ad9     00 18 18 00 | 	byte	$3e, $7e, $66, $66, $66, $66, $66, $66, $66, $00, $00, $00, $00, $18, $18, $00
03add     1C 1C 18 18 
03ae1     18 18 18 3C 
03ae5     3C 00 00 00 
03ae9     00 30 30 00 | 	byte	$1c, $1c, $18, $18, $18, $18, $18, $3c, $3c, $00, $00, $00, $00, $30, $30, $00
03aed     30 30 30 30 
03af1     30 30 30 30 
03af5     30          | 	byte	$30[9]
03af6     3E 1E 00 00 
03afa     06 06 06 36 
03afe     36 1E 1E 1E 
03b02     36 36 66 66 | 	byte	$3e, $1e, $00, $00, $06, $06, $06, $36, $36, $1e, $1e, $1e, $36, $36, $66, $66
03b06     00 00 00 00 
03b0a     1C 1C 18 18 
03b0e     18 18 18 18 
03b12     18 18 3C 3C | 	byte	$00, $00, $00, $00, $1c, $1c, $18, $18, $18, $18, $18, $18, $18, $18, $3c, $3c
03b16     00 00 00 00 
03b1a     00 00 00    | 	byte	$00[7]
03b1d     6C FE FE D6 
03b21     D6 C6 C6 C6 
03b25     C6 00 00 00 
03b29     00 00 00 00 | 	byte	$6c, $fe, $fe, $d6, $d6, $c6, $c6, $c6, $c6, $00, $00, $00, $00, $00, $00, $00
03b2d     3E 7E 66 66 
03b31     66 66 66 66 
03b35     66 00 00 00 
03b39     00 00 00 00 | 	byte	$3e, $7e, $66, $66, $66, $66, $66, $66, $66, $00, $00, $00, $00, $00, $00, $00
03b3d     3C 7E 66 66 
03b41     66 66 66 7E 
03b45     3C 00 00 00 
03b49     00 00 00 00 | 	byte	$3c, $7e, $66, $66, $66, $66, $66, $7e, $3c, $00, $00, $00, $00, $00, $00, $00
03b4d     3E 7E 66 66 
03b51     66 66 66 7E 
03b55     3E 06 06 00 
03b59     00 00 00 00 | 	byte	$3e, $7e, $66, $66, $66, $66, $66, $7e, $3e, $06, $06, $00, $00, $00, $00, $00
03b5d     7C 7E 66 66 
03b61     66 66 66 7E 
03b65     7C 60 60 00 
03b69     00 00 00 00 | 	byte	$7c, $7e, $66, $66, $66, $66, $66, $7e, $7c, $60, $60, $00, $00, $00, $00, $00
03b6d     3E 7E 66 06 
03b71     06 06 06 06 
03b75     06 00 00 00 
03b79     00 00 00 00 | 	byte	$3e, $7e, $66, $06, $06, $06, $06, $06, $06, $00, $00, $00, $00, $00, $00, $00
03b7d     7C 7E 06 0E 
03b81     3C 70 60 7E 
03b85     3E 00 00 00 
03b89     00 00 18 18 | 	byte	$7c, $7e, $06, $0e, $3c, $70, $60, $7e, $3e, $00, $00, $00, $00, $00, $18, $18
03b8d     7E 7E 18 18 
03b91     18 18 18 78 
03b95     70 00 00 00 
03b99     00 00 00 00 | 	byte	$7e, $7e, $18, $18, $18, $18, $18, $78, $70, $00, $00, $00, $00, $00, $00, $00
03b9d     66 66 66 66 
03ba1     66 66 66    | 	byte	$66[7]
03ba4     7E 7C 00 00 
03ba8     00 00 00 00 
03bac     00 66 66 66 
03bb0     66 66 3C 3C | 	byte	$7e, $7c, $00, $00, $00, $00, $00, $00, $00, $66, $66, $66, $66, $66, $3c, $3c
03bb4     18 18 00 00 
03bb8     00 00 00 00 
03bbc     00 C6 C6 D6 
03bc0     D6 FE FE EE | 	byte	$18, $18, $00, $00, $00, $00, $00, $00, $00, $c6, $c6, $d6, $d6, $fe, $fe, $ee
03bc4     C6 82 00 00 
03bc8     00 00 00 00 
03bcc     00 66 66 3C 
03bd0     3C 18 3C 3C | 	byte	$c6, $82, $00, $00, $00, $00, $00, $00, $00, $66, $66, $3c, $3c, $18, $3c, $3c
03bd4     66 66 00 00 
03bd8     00 00 00 00 
03bdc     00 66 66 66 
03be0     66 66 66 7E | 	byte	$66, $66, $00, $00, $00, $00, $00, $00, $00, $66, $66, $66, $66, $66, $66, $7e
03be4     7C 60 7E 3E 
03be8     00 00 00 00 
03bec     00 7E 7E 30 
03bf0     18 18 0C 0C | 	byte	$7c, $60, $7e, $3e, $00, $00, $00, $00, $00, $7e, $7e, $30, $18, $18, $0c, $0c
03bf4     7E 7E 00 00 
03bf8     00 00 30 18 
03bfc     18 18 18 0C 
03c00     0C 18 18 18 | 	byte	$7e, $7e, $00, $00, $00, $00, $30, $18, $18, $18, $18, $0c, $0c, $18, $18, $18
03c04     18 30 00 00 
03c08     00 00 18 18 
03c0c     18 18 18 18 
03c10     18 18 18 18 | 	byte	$18, $30, $00, $00, $00, $00, $18, $18, $18, $18, $18, $18, $18, $18, $18, $18
03c14     18 18 00 00 
03c18     00 00 0C 18 
03c1c     18 18 18 30 
03c20     30 18 18 18 | 	byte	$18, $18, $00, $00, $00, $00, $0c, $18, $18, $18, $18, $30, $30, $18, $18, $18
03c24     18 0C 00 00 
03c28     00 00 6C 7E 
03c2c     36 00 00 00 
03c30     00 00 00 00 | 	byte	$18, $0c, $00, $00, $00, $00, $6c, $7e, $36, $00, $00, $00, $00, $00, $00, $00
03c34     00 00 00 00 
03c38     00 00 00 00 
03c3c     00          | 	byte	$00[9]
03c3d     18 18 18 18 
03c41     18 18 00 00 
03c45     00 00 00    | 	byte	$18, $18, $18, $18, $18, $18, $00, $00, $00, $00, $00
03c48     00 00 00 00 
03c4c     00 FF FF FF | twocolors      long  $00000000,$FFFFFF00
03c50     00 00 00 00 
03c54     00 80 80 80 
03c58     00 00 00 FF 
03c5c     00 FF FF FF | fourcolors     long  $00000000,$80808000,$FF000000,$FFFFFF00 'black,red,gray,white
03c60     00 00 00 00 
03c64     00          | vga16          long  $00000000,$00008000,$00800000,$00808000,$80000000,$80008000,$80400000,$AAAAAA00,$55555500,$0000FF00,$00FF0000,$00FFFF00,$FF000000,$FF00FF00,$FFFF0000,$FFFFFF00
03c65     80 00 00 00 
03c69     00 80 00 00 
03c6d     80 80 00 00 
03c71     00 00 80 00 | 	byte	$80, $00, $00, $00, $00, $80, $00, $00, $80, $80, $00, $00, $00, $00, $80, $00
03c75     80 00 80 00 
03c79     00 40 80 00 
03c7d     AA AA AA 00 
03c81     55 55 55 00 | 	byte	$80, $00, $80, $00, $00, $40, $80, $00, $aa, $aa, $aa, $00, $55, $55, $55, $00
03c85     FF 00 00 00 
03c89     00 FF 00 00 
03c8d     FF FF 00 00 
03c91     00 00 FF 00 | 	byte	$ff, $00, $00, $00, $00, $ff, $00, $00, $ff, $ff, $00, $00, $00, $00, $ff, $00
03c95     FF 00 FF 00 
03c99     00 FF FF 00 
03c9d     FF FF FF    | 	byte	$ff, $00, $ff, $00, $00, $ff, $ff, $00, $ff, $ff, $ff
03ca0     00 00 00 00 
03ca4     00          | ataripalette   file "ataripalettep2.def"
03ca5     11 11 11 00 
03ca9     22 22 22 00 
03cad     33 33 33 00 
03cb1     44 44 44 00 | 	byte	$11, $11, $11, $00, $22, $22, $22, $00, $33, $33, $33, $00, $44, $44, $44, $00
03cb5     55 55 55 00 
03cb9     66 66 66 00 
03cbd     77 77 77 00 
03cc1     88 88 88 00 | 	byte	$55, $55, $55, $00, $66, $66, $66, $00, $77, $77, $77, $00, $88, $88, $88, $00
03cc5     99 99 99 00 
03cc9     AA AA AA 00 
03ccd     BB BB BB 00 
03cd1     CC CC CC 00 | 	byte	$99, $99, $99, $00, $aa, $aa, $aa, $00, $bb, $bb, $bb, $00, $cc, $cc, $cc, $00
03cd5     DD DD DD 00 
03cd9     EE EE EE 00 
03cdd     FF FF FF 00 
03ce1     00 0A 20 00 | 	byte	$dd, $dd, $dd, $00, $ee, $ee, $ee, $00, $ff, $ff, $ff, $00, $00, $0a, $20, $00
03ce5     00 14 40 00 
03ce9     00 1E 60 00 
03ced     00 28 80 00 
03cf1     00 32 9F 00 | 	byte	$00, $14, $40, $00, $00, $1e, $60, $00, $00, $28, $80, $00, $00, $32, $9f, $00
03cf5     00 3C BF 00 
03cf9     00 46 DF 00 
03cfd     00 50 FF 00 
03d01     1C 63 FF 00 | 	byte	$00, $3c, $bf, $00, $00, $46, $df, $00, $00, $50, $ff, $00, $1c, $63, $ff, $00
03d05     39 77 FF 00 
03d09     55 8A FF 00 
03d0d     71 9E FF 00 
03d11     8E B1 FF 00 | 	byte	$39, $77, $ff, $00, $55, $8a, $ff, $00, $71, $9e, $ff, $00, $8e, $b1, $ff, $00
03d15     AA C5 FF 00 
03d19     C6 D8 FF 00 
03d1d     E3 EC FF 00 
03d21     00 00 20 00 | 	byte	$aa, $c5, $ff, $00, $c6, $d8, $ff, $00, $e3, $ec, $ff, $00, $00, $00, $20, $00
03d25     00 00 40 00 
03d29     00 00 60 00 
03d2d     00 00 80 00 
03d31     00 00 9F 00 | 	byte	$00, $00, $40, $00, $00, $00, $60, $00, $00, $00, $80, $00, $00, $00, $9f, $00
03d35     00 00 BF 00 
03d39     00 00 DF 00 
03d3d     00 00 FF 00 
03d41     1C 1C FF 00 | 	byte	$00, $00, $bf, $00, $00, $00, $df, $00, $00, $00, $ff, $00, $1c, $1c, $ff, $00
03d45     39 39 FF 00 
03d49     55 55 FF 00 
03d4d     71 71 FF 00 
03d51     8E 8E FF 00 | 	byte	$39, $39, $ff, $00, $55, $55, $ff, $00, $71, $71, $ff, $00, $8e, $8e, $ff, $00
03d55     AA AA FF 00 
03d59     C6 C6 FF 00 
03d5d     E3 E3 FF 00 
03d61     10 00 20 00 | 	byte	$aa, $aa, $ff, $00, $c6, $c6, $ff, $00, $e3, $e3, $ff, $00, $10, $00, $20, $00
03d65     20 00 40 00 
03d69     30 00 60 00 
03d6d     40 00 80 00 
03d71     50 00 9F 00 | 	byte	$20, $00, $40, $00, $30, $00, $60, $00, $40, $00, $80, $00, $50, $00, $9f, $00
03d75     60 00 BF 00 
03d79     70 00 DF 00 
03d7d     80 00 FF 00 
03d81     8E 1C FF 00 | 	byte	$60, $00, $bf, $00, $70, $00, $df, $00, $80, $00, $ff, $00, $8e, $1c, $ff, $00
03d85     9C 39 FF 00 
03d89     AA 55 FF 00 
03d8d     B8 71 FF 00 
03d91     C7 8E FF 00 | 	byte	$9c, $39, $ff, $00, $aa, $55, $ff, $00, $b8, $71, $ff, $00, $c7, $8e, $ff, $00
03d95     D5 AA FF 00 
03d99     E3 C6 FF 00 
03d9d     F1 E3 FF 00 
03da1     20 00 20 00 | 	byte	$d5, $aa, $ff, $00, $e3, $c6, $ff, $00, $f1, $e3, $ff, $00, $20, $00, $20, $00
03da5     40 00 40 00 
03da9     60 00 60 00 
03dad     80 00 80 00 
03db1     9F 00 9F 00 | 	byte	$40, $00, $40, $00, $60, $00, $60, $00, $80, $00, $80, $00, $9f, $00, $9f, $00
03db5     BF 00 BF 00 
03db9     DF 00 DF 00 
03dbd     FF 00 FF 00 
03dc1     FF 1C FF 00 | 	byte	$bf, $00, $bf, $00, $df, $00, $df, $00, $ff, $00, $ff, $00, $ff, $1c, $ff, $00
03dc5     FF 39 FF 00 
03dc9     FF 55 FF 00 
03dcd     FF 71 FF 00 
03dd1     FF 8E FF 00 | 	byte	$ff, $39, $ff, $00, $ff, $55, $ff, $00, $ff, $71, $ff, $00, $ff, $8e, $ff, $00
03dd5     FF AA FF 00 
03dd9     FF C6 FF 00 
03ddd     FF E3 FF 00 
03de1     20 00 10 00 | 	byte	$ff, $aa, $ff, $00, $ff, $c6, $ff, $00, $ff, $e3, $ff, $00, $20, $00, $10, $00
03de5     40 00 20 00 
03de9     60 00 30 00 
03ded     80 00 40 00 
03df1     9F 00 50 00 | 	byte	$40, $00, $20, $00, $60, $00, $30, $00, $80, $00, $40, $00, $9f, $00, $50, $00
03df5     BF 00 60 00 
03df9     DF 00 70 00 
03dfd     FF 00 80 00 
03e01     FF 1C 8E 00 | 	byte	$bf, $00, $60, $00, $df, $00, $70, $00, $ff, $00, $80, $00, $ff, $1c, $8e, $00
03e05     FF 39 9C 00 
03e09     FF 55 AA 00 
03e0d     FF 71 B8 00 
03e11     FF 8E C7 00 | 	byte	$ff, $39, $9c, $00, $ff, $55, $aa, $00, $ff, $71, $b8, $00, $ff, $8e, $c7, $00
03e15     FF AA D5 00 
03e19     FF C6 E3 00 
03e1d     FF E3 F1 00 
03e21     20 00 00 00 | 	byte	$ff, $aa, $d5, $00, $ff, $c6, $e3, $00, $ff, $e3, $f1, $00, $20, $00, $00, $00
03e25     40 00 00 00 
03e29     60 00 00 00 
03e2d     80 00 00 00 
03e31     9F 00 00 00 | 	byte	$40, $00, $00, $00, $60, $00, $00, $00, $80, $00, $00, $00, $9f, $00, $00, $00
03e35     BF 00 00 00 
03e39     DF 00 00 00 
03e3d     FF 00 00 00 
03e41     FF 1C 1C 00 | 	byte	$bf, $00, $00, $00, $df, $00, $00, $00, $ff, $00, $00, $00, $ff, $1c, $1c, $00
03e45     FF 39 39 00 
03e49     FF 55 55 00 
03e4d     FF 71 71 00 
03e51     FF 8E 8E 00 | 	byte	$ff, $39, $39, $00, $ff, $55, $55, $00, $ff, $71, $71, $00, $ff, $8e, $8e, $00
03e55     FF AA AA 00 
03e59     FF C6 C6 00 
03e5d     FF E3 E3 00 
03e61     20 08 00 00 | 	byte	$ff, $aa, $aa, $00, $ff, $c6, $c6, $00, $ff, $e3, $e3, $00, $20, $08, $00, $00
03e65     40 10 00 00 
03e69     60 18 00 00 
03e6d     80 20 00 00 
03e71     9F 28 00 00 | 	byte	$40, $10, $00, $00, $60, $18, $00, $00, $80, $20, $00, $00, $9f, $28, $00, $00
03e75     BF 30 00 00 
03e79     DF 38 00 00 
03e7d     FF 40 00 00 
03e81     FF 55 1C 00 | 	byte	$bf, $30, $00, $00, $df, $38, $00, $00, $ff, $40, $00, $00, $ff, $55, $1c, $00
03e85     FF 6A 39 00 
03e89     FF 80 55 00 
03e8d     FF 95 71 00 
03e91     FF AA 8E 00 | 	byte	$ff, $6a, $39, $00, $ff, $80, $55, $00, $ff, $95, $71, $00, $ff, $aa, $8e, $00
03e95     FF BF AA 00 
03e99     FF D5 C6 00 
03e9d     FF EA E3 00 
03ea1     20 10 00 00 | 	byte	$ff, $bf, $aa, $00, $ff, $d5, $c6, $00, $ff, $ea, $e3, $00, $20, $10, $00, $00
03ea5     40 20 00 00 
03ea9     60 30 00 00 
03ead     80 40 00 00 
03eb1     9F 50 00 00 | 	byte	$40, $20, $00, $00, $60, $30, $00, $00, $80, $40, $00, $00, $9f, $50, $00, $00
03eb5     BF 60 00 00 
03eb9     DF 70 00 00 
03ebd     FF 80 00 00 
03ec1     FF 8E 1C 00 | 	byte	$bf, $60, $00, $00, $df, $70, $00, $00, $ff, $80, $00, $00, $ff, $8e, $1c, $00
03ec5     FF 9C 39 00 
03ec9     FF AA 55 00 
03ecd     FF B8 71 00 
03ed1     FF C7 8E 00 | 	byte	$ff, $9c, $39, $00, $ff, $aa, $55, $00, $ff, $b8, $71, $00, $ff, $c7, $8e, $00
03ed5     FF D5 AA 00 
03ed9     FF E3 C6 00 
03edd     FF F1 E3 00 
03ee1     20 18 00 00 | 	byte	$ff, $d5, $aa, $00, $ff, $e3, $c6, $00, $ff, $f1, $e3, $00, $20, $18, $00, $00
03ee5     40 30 00 00 
03ee9     60 48 00 00 
03eed     80 60 00 00 
03ef1     9F 78 00 00 | 	byte	$40, $30, $00, $00, $60, $48, $00, $00, $80, $60, $00, $00, $9f, $78, $00, $00
03ef5     BF 90 00 00 
03ef9     DF A8 00 00 
03efd     FF C0 00 00 
03f01     FF C7 1C 00 | 	byte	$bf, $90, $00, $00, $df, $a8, $00, $00, $ff, $c0, $00, $00, $ff, $c7, $1c, $00
03f05     FF CE 39 00 
03f09     FF D5 55 00 
03f0d     FF DC 71 00 
03f11     FF E3 8E 00 | 	byte	$ff, $ce, $39, $00, $ff, $d5, $55, $00, $ff, $dc, $71, $00, $ff, $e3, $8e, $00
03f15     FF EA AA 00 
03f19     FF F1 C6 00 
03f1d     FF F8 E3 00 
03f21     18 20 00 00 | 	byte	$ff, $ea, $aa, $00, $ff, $f1, $c6, $00, $ff, $f8, $e3, $00, $18, $20, $00, $00
03f25     30 40 00 00 
03f29     48 60 00 00 
03f2d     60 80 00 00 
03f31     78 9F 00 00 | 	byte	$30, $40, $00, $00, $48, $60, $00, $00, $60, $80, $00, $00, $78, $9f, $00, $00
03f35     90 BF 00 00 
03f39     A8 DF 00 00 
03f3d     C0 FF 00 00 
03f41     C7 FF 1C 00 | 	byte	$90, $bf, $00, $00, $a8, $df, $00, $00, $c0, $ff, $00, $00, $c7, $ff, $1c, $00
03f45     CE FF 39 00 
03f49     D5 FF 55 00 
03f4d     DC FF 71 00 
03f51     E3 FF 8E 00 | 	byte	$ce, $ff, $39, $00, $d5, $ff, $55, $00, $dc, $ff, $71, $00, $e3, $ff, $8e, $00
03f55     EA FF AA 00 
03f59     F1 FF C6 00 
03f5d     F8 FF E3 00 
03f61     00 20 00 00 | 	byte	$ea, $ff, $aa, $00, $f1, $ff, $c6, $00, $f8, $ff, $e3, $00, $00, $20, $00, $00
03f65     00 40 00 00 
03f69     00 60 00 00 
03f6d     00 80 00 00 
03f71     00 9F 00 00 | 	byte	$00, $40, $00, $00, $00, $60, $00, $00, $00, $80, $00, $00, $00, $9f, $00, $00
03f75     00 BF 00 00 
03f79     00 DF 00 00 
03f7d     00 FF 00 00 
03f81     1C FF 1C 00 | 	byte	$00, $bf, $00, $00, $00, $df, $00, $00, $00, $ff, $00, $00, $1c, $ff, $1c, $00
03f85     39 FF 39 00 
03f89     55 FF 55 00 
03f8d     71 FF 71 00 
03f91     8E FF 8E 00 | 	byte	$39, $ff, $39, $00, $55, $ff, $55, $00, $71, $ff, $71, $00, $8e, $ff, $8e, $00
03f95     AA FF AA 00 
03f99     C6 FF C6 00 
03f9d     E3 FF E3 00 
03fa1     00 20 0A 00 | 	byte	$aa, $ff, $aa, $00, $c6, $ff, $c6, $00, $e3, $ff, $e3, $00, $00, $20, $0a, $00
03fa5     00 40 14 00 
03fa9     00 60 1E 00 
03fad     00 80 28 00 
03fb1     00 9F 32 00 | 	byte	$00, $40, $14, $00, $00, $60, $1e, $00, $00, $80, $28, $00, $00, $9f, $32, $00
03fb5     00 BF 3C 00 
03fb9     00 DF 46 00 
03fbd     00 FF 50 00 
03fc1     1C FF 63 00 | 	byte	$00, $bf, $3c, $00, $00, $df, $46, $00, $00, $ff, $50, $00, $1c, $ff, $63, $00
03fc5     39 FF 77 00 
03fc9     55 FF 8A 00 
03fcd     71 FF 9E 00 
03fd1     8E FF B1 00 | 	byte	$39, $ff, $77, $00, $55, $ff, $8a, $00, $71, $ff, $9e, $00, $8e, $ff, $b1, $00
03fd5     AA FF C5 00 
03fd9     C6 FF D8 00 
03fdd     E3 FF EC 00 
03fe1     00 20 14 00 | 	byte	$aa, $ff, $c5, $00, $c6, $ff, $d8, $00, $e3, $ff, $ec, $00, $00, $20, $14, $00
03fe5     00 40 28 00 
03fe9     00 60 3C 00 
03fed     00 80 50 00 
03ff1     00 9F 64 00 | 	byte	$00, $40, $28, $00, $00, $60, $3c, $00, $00, $80, $50, $00, $00, $9f, $64, $00
03ff5     00 BF 78 00 
03ff9     00 DF 8C 00 
03ffd     00 FF A0 00 
04001     1C FF AB 00 | 	byte	$00, $bf, $78, $00, $00, $df, $8c, $00, $00, $ff, $a0, $00, $1c, $ff, $ab, $00
04005     39 FF B5 00 
04009     55 FF C0 00 
0400d     71 FF CA 00 
04011     8E FF D5 00 | 	byte	$39, $ff, $b5, $00, $55, $ff, $c0, $00, $71, $ff, $ca, $00, $8e, $ff, $d5, $00
04015     AA FF DF 00 
04019     C6 FF EA 00 
0401d     E3 FF F4 00 
04021     00 20 20 00 | 	byte	$aa, $ff, $df, $00, $c6, $ff, $ea, $00, $e3, $ff, $f4, $00, $00, $20, $20, $00
04025     00 40 40 00 
04029     00 60 60 00 
0402d     00 80 80 00 
04031     00 9F 9F 00 | 	byte	$00, $40, $40, $00, $00, $60, $60, $00, $00, $80, $80, $00, $00, $9f, $9f, $00
04035     00 BF BF 00 
04039     00 DF DF 00 
0403d     00 FF FF 00 
04041     1C FF FF 00 | 	byte	$00, $bf, $bf, $00, $00, $df, $df, $00, $00, $ff, $ff, $00, $1c, $ff, $ff, $00
04045     39 FF FF 00 
04049     55 FF FF 00 
0404d     71 FF FF 00 
04051     8E FF FF 00 | 	byte	$39, $ff, $ff, $00, $55, $ff, $ff, $00, $71, $ff, $ff, $00, $8e, $ff, $ff, $00
04055     AA FF FF 00 
04059     C6 FF FF 00 
0405d     E3 FF FF 00 
04061     00 14 20 00 | 	byte	$aa, $ff, $ff, $00, $c6, $ff, $ff, $00, $e3, $ff, $ff, $00, $00, $14, $20, $00
04065     00 28 40 00 
04069     00 3C 60 00 
0406d     00 50 80 00 
04071     00 64 9F 00 | 	byte	$00, $28, $40, $00, $00, $3c, $60, $00, $00, $50, $80, $00, $00, $64, $9f, $00
04075     00 78 BF 00 
04079     00 8C DF 00 
0407d     00 A0 FF 00 
04081     1C AB FF 00 | 	byte	$00, $78, $bf, $00, $00, $8c, $df, $00, $00, $a0, $ff, $00, $1c, $ab, $ff, $00
04085     39 B5 FF 00 
04089     55 C0 FF 00 
0408d     71 CA FF 00 
04091     8E D5 FF 00 | 	byte	$39, $b5, $ff, $00, $55, $c0, $ff, $00, $71, $ca, $ff, $00, $8e, $d5, $ff, $00
04095     AA DF FF 00 
04099     C6 EA FF 00 
0409d     E3 F4 FF    | 	byte	$aa, $df, $ff, $00, $c6, $ea, $ff, $00, $e3, $f4, $ff
040a0                 | '**********************************************************************************
040a0                 | '
040a0                 | '        Timings and colors definitions
040a0                 | '
040a0                 | '**********************************************************************************
040a0                 | 
040a0                 |    'streamer sets for text mode, to add to timings[0..5]
040a0                 | 
040a0                 | 
040a0                 | '                     bf.hs, hs,  bf.vis  visible, lr bord, pixel, ud bord,  up p., vsync, down p., mode, cpl, scanlines,  clock,                  hubset                  total vis lines
040a0     10 00 00 00 
040a4     50 00 00 00 
040a8     14 00 00 00 
040ac     00 04 00 00 | timings000      long   16,   80,    20,    1024,    112,     8,     48,      16,      16,    16,      0,  100,   480,     354693878,   %1_110000__11_0110_1100__1111_1011,   576
040b0     70 00 00 00 
040b4     08 00 00 00 
040b8     30 00 00 00 
040bc     10 00 00 00 | 	byte	$70, $00, $00, $00, $08, $00, $00, $00, $30, $00, $00, $00, $10, $00, $00, $00
040c0     10 00 00 00 
040c4     10 00 00 00 
040c8     00 00 00 00 
040cc     64 00 00 00 | 	byte	$10, $00, $00, $00, $10, $00, $00, $00, $00, $00, $00, $00, $64, $00, $00, $00
040d0     E0 01 00 00 
040d4     F6 32 24 15 
040d8     FB 6C C3 01 
040dc     40 02 00 00 | 	byte	$e0, $01, $00, $00, $f6, $32, $24, $15, $fb, $6c, $c3, $01, $40, $02, $00, $00
040e0     12 00 00 00 
040e4     30 00 00 00 
040e8     10 00 00 00 
040ec     B0 03 00 00 | timings064      long   18,   48,    16,     944,     24,     8,     24,      24,      32,    24,     64,  112,   496,     319215686,   %1_110010__11_0010_1101__1111_1011,   544
040f0     18 00 00 00 
040f4     08 00 00 00 
040f8     18 00 00 00 
040fc     18 00 00 00 | 	byte	$18, $00, $00, $00, $08, $00, $00, $00, $18, $00, $00, $00, $18, $00, $00, $00
04100     20 00 00 00 
04104     18 00 00 00 
04108     40 00 00 00 
0410c     70 00 00 00 | 	byte	$20, $00, $00, $00, $18, $00, $00, $00, $40, $00, $00, $00, $70, $00, $00, $00
04110     F0 01 00 00 
04114     46 D8 06 13 
04118     FB 2D CB 01 
0411c     20 02 00 00 | 	byte	$f0, $01, $00, $00, $46, $d8, $06, $13, $fb, $2d, $cb, $01, $20, $02, $00, $00
04120     10 00 00 00 
04124     40 00 00 00 
04128     10 00 00 00 
0412c     30 03 00 00 | timings128      long   16,   64,    16,     816,      8,     8,     8,       32,      64,    32,    128,  100,   480,     283750000,   %1_111111__11_1000_1011__1111_1011,   496
04130     08 00 00 00 
04134     08 00 00 00 
04138     08 00 00 00 
0413c     20 00 00 00 | 	byte	$08, $00, $00, $00, $08, $00, $00, $00, $08, $00, $00, $00, $20, $00, $00, $00
04140     40 00 00 00 
04144     20 00 00 00 
04148     80 00 00 00 
0414c     64 00 00 00 | 	byte	$40, $00, $00, $00, $20, $00, $00, $00, $80, $00, $00, $00, $64, $00, $00, $00
04150     E0 01 00 00 
04154     70 AE E9 10 
04158     FB 8B FF 01 
0415c     F0 01 00 00 | 	byte	$e0, $01, $00, $00, $70, $ae, $e9, $10, $fb, $8b, $ff, $01, $f0, $01, $00, $00
04160     10 00 00 00 
04164     50 00 00 00 
04168     14 00 00 00 
0416c     00 04 00 00 | timings192      long   16,   80,    20,    1024,      0,     8,     0,       16,      16,    16,    192,  128,   576,     354693878,   %1_110000__11_0110_1100__1111_1011,   576
04170     00 00 00 00 
04174     08 00 00 00 
04178     00 00 00 00 
0417c     10 00 00 00 | 	byte	$00, $00, $00, $00, $08, $00, $00, $00, $00, $00, $00, $00, $10, $00, $00, $00
04180     10 00 00 00 
04184     10 00 00 00 
04188     C0 00 00 00 
0418c     80 00 00 00 | 	byte	$10, $00, $00, $00, $10, $00, $00, $00, $c0, $00, $00, $00, $80, $00, $00, $00
04190     40 02 00 00 
04194     F6 32 24 15 
04198     FB 6C C3 01 
0419c     40 02 00 00 | 	byte	$40, $02, $00, $00, $f6, $32, $24, $15, $fb, $6c, $c3, $01, $40, $02, $00, $00
041a0     50 00 00 00 
041a4     A0 00 00 00 
041a8     54 00 00 00 
041ac     30 03 00 00 | timings256      long   80,  160,    84,     816,      8,     8,     8,        8,      12,     8,    256,  100,   480,     357959184,   %1_110000__11_0110_0100__1111_1011,   496
041b0     08 00 00 00 
041b4     08 00 00 00 
041b8     08 00 00 00 
041bc     08 00 00 00 | 	byte	$08, $00, $00, $00, $08, $00, $00, $00, $08, $00, $00, $00, $08, $00, $00, $00
041c0     0C 00 00 00 
041c4     08 00 00 00 
041c8     00 01 00 00 
041cc     64 00 00 00 | 	byte	$0c, $00, $00, $00, $08, $00, $00, $00, $00, $01, $00, $00, $64, $00, $00, $00
041d0     E0 01 00 00 
041d4     10 06 56 15 
041d8     FB 64 C3 01 
041dc     F0 01 00 00 | 	byte	$e0, $01, $00, $00, $10, $06, $56, $15, $fb, $64, $c3, $01, $f0, $01, $00, $00
041e0     50 00 00 00 
041e4     32 00 00 00 
041e8     50 00 00 00 
041ec     30 03 00 00 | timings320      long   80,   50,    80,     816,      8,     8,     8,        8,      12,     8,    320,  100,   480,     322162162,   %1_100100__10_0101_0011__1111_1011,   496
041f0     08 00 00 00 
041f4     08 00 00 00 
041f8     08 00 00 00 
041fc     08 00 00 00 | 	byte	$08, $00, $00, $00, $08, $00, $00, $00, $08, $00, $00, $00, $08, $00, $00, $00
04200     0C 00 00 00 
04204     08 00 00 00 
04208     40 01 00 00 
0420c     64 00 00 00 | 	byte	$0c, $00, $00, $00, $08, $00, $00, $00, $40, $01, $00, $00, $64, $00, $00, $00
04210     E0 01 00 00 
04214     F2 CD 33 13 
04218     FB 53 92 01 
0421c     F0 01 00 00 | 	byte	$e0, $01, $00, $00, $f2, $cd, $33, $13, $fb, $53, $92, $01, $f0, $01, $00, $00
04220     18 00 00 00 
04224     30 00 00 00 
04228     18 00 00 00 
0422c     30 03 00 00 | timings384      long   24,   48,    24,     816,      8,     8,     8,        8,      12,     8,    384,  100,   480,     286363636,   %1_010101__01_0011_1010__1111_1011,   496
04230     08 00 00 00 
04234     08 00 00 00 
04238     08 00 00 00 
0423c     08 00 00 00 | 	byte	$08, $00, $00, $00, $08, $00, $00, $00, $08, $00, $00, $00, $08, $00, $00, $00
04240     0C 00 00 00 
04244     08 00 00 00 
04248     80 01 00 00 
0424c     64 00 00 00 | 	byte	$0c, $00, $00, $00, $08, $00, $00, $00, $80, $01, $00, $00, $64, $00, $00, $00
04250     E0 01 00 00 
04254     F4 8F 11 11 
04258     FB 3A 55 01 
0425c     F0 01 00 00 | 	byte	$e0, $01, $00, $00, $f4, $8f, $11, $11, $fb, $3a, $55, $01, $f0, $01, $00, $00
04260     20 00 00 00 
04264     40 00 00 00 
04268     22 00 00 00 
0426c     80 03 00 00 | timings448      long   32,   64,    34,     896,      0,     8,     0,        8,      12,     8,    448,  112,   496,     322162162,   %1_100100__10_0101_0011__1111_1011,   496
04270     00 00 00 00 
04274     08 00 00 00 
04278     00 00 00 00 
0427c     08 00 00 00 | 	byte	$00, $00, $00, $00, $08, $00, $00, $00, $00, $00, $00, $00, $08, $00, $00, $00
04280     0C 00 00 00 
04284     08 00 00 00 
04288     C0 01 00 00 
0428c     70 00 00 00 | 	byte	$0c, $00, $00, $00, $08, $00, $00, $00, $c0, $01, $00, $00, $70, $00, $00, $00
04290     F0 01 00 00 
04294     F2 CD 33 13 
04298     FB 53 92 01 
0429c     F0 01 00 00 | 	byte	$f0, $01, $00, $00, $f2, $cd, $33, $13, $fb, $53, $92, $01, $f0, $01, $00, $00
042a0     58 00 00 00 
042a4     32 00 00 00 
042a8     58 00 00 00 
042ac     20 03 00 00 | timings4096     long   88,   50,    88,     800,      0,     8,     0,        12,     20,    12,   4096,  100,   480,     322162162,   %1_100100__10_0101_0011__1111_1011,   480
042b0     00 00 00 00 
042b4     08 00 00 00 
042b8     00 00 00 00 
042bc     0C 00 00 00 | 	byte	$00, $00, $00, $00, $08, $00, $00, $00, $00, $00, $00, $00, $0c, $00, $00, $00
042c0     14 00 00 00 
042c4     0C 00 00 00 
042c8     00 10 00 00 
042cc     64 00 00 00 | 	byte	$14, $00, $00, $00, $0c, $00, $00, $00, $00, $10, $00, $00, $64, $00, $00, $00
042d0     E0 01 00 00 
042d4     F2 CD 33 13 
042d8     FB 53 92 01 
042dc     E0 01 00 00 | 	byte	$e0, $01, $00, $00, $f2, $cd, $33, $13, $fb, $53, $92, $01, $e0, $01, $00, $00
042e0                 |                                  
042e0     00 75 C7 97 
042e4     27 47 F6 0A 
042e8     05 79 CB 9B 
042ec     2B 4B EA 0F | vgacolors       byte   0, 117, 199, 151, 39, 71, 246, 10, 5, 121, 203, 155, 43, 75, 234, 15
042f0                 | 
042f0     28 12 64 FD | hdmi            setq    #9
042f4     00 E1 06 FB |                 rdlong  framebuf,  ptra                  'read pointers
042f8                 | 
042f8     00 28 6F FC |                 wrlong  #aend,#0                         'write driver length to hub#0: DEBUG/demo
042fc     3C 00 66 FD |                 setcmod #$100                            'enable HDMI mode
04300     C0 FB 06 F6 |                 mov     ii,#448                          '7 << 6          
04304     79 FB 02 F1 |                 add     ii,hbase
04308     58 FA 62 FD |                 drvl    ii                                 '#7<<6 + hdmi_base      ' enable HDMI pins
0430c                 |        '         wrpin   ##%0000_0000_000_10110_1111_0111_10_00000_0, ii  '#7<<6 + hdmi_base      ' a '123 ohm BITDAC for pins
0430c     00 00 80 FF 
04310     7D 01 08 FC |                  wrpin   ##%0000_0000_000_00000_0000_0000_00_00000_0, ii  '#7<<6 + hdmi_base      full levels as there is 100 Ohm
04314                 |                           'aaaa_bbbb_fff_mmmmm_mmmm_mmmm_tt_sssss_h 
04314     66 66 86 FF 
04318     1D 9A 65 FD |                 setxfrq ##$0CCCCCCC+1                   'set streamer freq to 1/10th clk
0431c                 | 
0431c                 | 
0431c                 | ''--------  frame rendering main loop  ---------------------------------------------------
0431c                 | 
0431c                 | p101
0431c     28 14 64 FD |                 setq    #10
04320     00 E1 06 FB |                 rdlong  framebuf,  ptra
04324     28 1E 64 FD |                 setq    #15
04328     75 9D 02 FB |                 rdlong  m_bs,modeptr                     ' read timings
0432c     72 9B 02 FB |                 rdlong  border,borderptr
04330                 | 
04330     01 C6 06 F1 |                 add     frames,#1
04334     77 F7 02 F6 |                 mov     dlptr2,dlptr
04338                 | 
04338     74 C9 02 FB |                 rdlong  cursorx, cursorptr               ' read cursor position
0433c     64 CB EA F8 |                 getbyte cursory, cursorx,#1              ' y position at byte #1
04340     64 C5 F2 F8 |                 getbyte cursorsh,cursorx,#2              ' shape at byte #2
04344     FF C8 06 F5 |                 and     cursorx,#255                     ' clear the cursor x varioble from y and shape
04348                 |  '' up porch
04348                 | 
04348     49 FF 02 F6 |                 mov     hsync0,sync_000                  '
0434c     4A 01 03 F6 |                 mov     hsync1,sync_001
04350     37 AA 46 FB |                 callpa  i_upporch ,#blank
04354     73 01 68 FC |                 wrlong  #0,vblankptr
04358                 |                 
04358     1F EC 16 F4 |                 testb   paletteptr,#31 wc
0435c     29 FE 65 3D |          if_nc  setq2   #255
04360     76 01 00 3B |          if_nc  rdlong  $000, paletteptr                'read palette
04364                 | 
04364                 | '' cursor blinking
04364                 | 
04364     04 C6 0E F4 |                 testb   frames,#4 wz                     ' cursor blinks at framerate/16, todo: define
04368     81 C8 06 A6 |          if_z   mov     cursorx,#129                     ' to switch the cursor off, move it out of the screen
0436c                 | 
0436c                 | '' main screen
0436c                 | 
0436c     00 C0 06 F6 |                 mov linenum,#0
04370     00 1A 07 F6 |                 mov rcnt,#0
04374     00 1E 07 F6 |                 mov rcnt2a,#0
04378                 | 
04378                 | 
04378     00 1A 0F F2 | p301            cmp rcnt,#0 wz
0437c     18 00 90 AD |         if_z    jmp #p306
04380     01 1A 87 F1 |                 sub rcnt,#1
04384     91 F9 02 F6 |                 mov dl,rdl
04388     8E 1F 0B F7 |                incmod rcnt2a,rcnt2 wz
0438c     90 F9 02 A1 |    if_z        add dl,roffset  
04390     7C 23 03 F6 |                 mov rdl,dl
04394     04 00 90 FD |                 jmp #p307          
04398                 |           
04398                 |                 
04398     7B F9 02 FB | p306            rdlong  dl,dlptr2
0439c     7C FD 1A F6 | p307            mov     framebuf2,dl wcz                  'read a line start in the framebuffer from DL entry
043a0     6A FC 7A FD |                 rczr    framebuf2 wcz                     'but only if not %11 at lowest bits which means special DL entry
043a4     34 00 90 7D |    if_nz_or_nc  jmp     #p303                        
043a8                 | 
043a8                 | '' Special entry:
043a8                 | '' - repeat                 %nnnn_nnnn_nnnn_qqqq_mmmm_mmmm_mmmm_0111    repeat the next dl line n times, after q lines add offset m
043a8                 | '' - reload palette         %mmmm_mmmm_nnnn_nnnn_qqqq_qqqq_qqqq_1011    reload n palette entries from m color from palette_ptr+q
043a8                 | '' - set border color       %rrrr_rrrr_gggg_gggg_bbbb_bbbb_0001_0011    set border to rgb
043a8                 | '' - set border color       %0000_0000_0000_0000_pppp_pppp_0001_1011    set border color to palette entry #p
043a8                 | '' todo: set horizontal scroll (if needed)
043a8                 | 
043a8     02 FC 66 F0 |                 shl framebuf2,#2
043ac     7E 25 43 F8 |                 getnib dlc,framebuf2,#0
043b0     04 24 0F F2 |                 cmp dlc,#%100 wz
043b4                 |   
043b4                 |                 
043b4     04 F6 06 F1 |                 add dlptr2,#4
043b8     BC FF 9F 5D |                              if_nz  jmp #p301  '' now ignore unknown instruction 
043bc     7B 23 03 FB |                  rdlong rdl,dlptr2
043c0     7E 1B 3B F9 |                  getword rcnt,framebuf2,#1 
043c4     04 1A 47 F0 |                  shr rcnt,#4
043c8                 |              
043c8     7E 1D 63 F8 |                  getnib rcnt2,framebuf2,#4
043cc     7E 21 33 F9 |                  getword roffset,framebuf2,#0
043d0                 |                 
043d0     04 20 47 F0 |                  shr roffset,#4
043d4     0C 20 67 F0 |                  shl roffset,#12
043d8                 |   
043d8     9C FF 9F FD |                  jmp #p301
043dc                 |                  
043dc                 |                  
043dc                 | p303           ' mov     framebuf2,dl                    ' read a line start in the framebuffer from DL entry
043dc     0C FC 46 F0 |                 shr     framebuf2,#12
043e0     02 FC 66 F0 |                 shl     framebuf2,#2
043e4                 | 
043e4     7C 05 E3 F8 |                 getbyte t1,dl,#0
043e8     00 04 0F F2 |                 cmp     t1,#0 wz
043ec     34 00 90 AD |     if_z        jmp     #borderline
043f0                 | 
043f0     00 F8 16 F4 |                  testb   dl,#0  wc     ' bit 0 set = text OR extended:TODO
043f4     50 00 90 CD |           if_c   jmp     #textline
043f8     50 02 90 3D |           if_nc  jmp     #graphline
043fc                 | '
043fc     01 C0 06 F1 | p302            add     linenum,#1
04400     04 F6 06 F1 |                 add     dlptr2,#4
04404     5D C1 0A F2 |                 cmp     linenum,i_totalvis  wz
04408     6C FF 9F 5D |          if_nz  jmp     #p301
0440c                 | 
0440c     73 03 68 FC | p112            wrlong  #1,vblankptr
04410     07 AE 46 FB |                 callpa  i_downporch ,#blank             'bottom blanks
04414                 | 
04414     4B FF 02 F6 |                 mov     hsync0,sync_222                 'vsync on
04418     4C 01 03 F6 |                 mov     hsync1,sync_223
0441c     04 AC 46 FB |                 callpa  i_vsync,#blank                  'vertical sync blanks
04420     F8 FE 9F FD |                 jmp     #p101
04424                 | 
04424                 | '' ---------------  END of frame rendering loop -------------------------------------------
04424                 | 
04424                 | 
04424     14 00 B0 FD | borderline      call    #hsync                      ' make a border
04428     4D A3 C2 FC |                 xcont   m_vi,border
0442c     CC FF 9F FD |                 jmp     #p302
04430                 | 
04430                 | 
04430     08 00 B0 FD | blank           call    #hsync                          'blank lines
04434     7F A3 C2 FC |                 xcont   m_vi,hsync0
04438     FD ED 6F 0B |         _ret_   djnz    pa,#blank
0443c                 | 
0443c     7F 9D C2 FC | hsync           xcont   m_bs,hsync0                     'horizontal sync
04440     80 9F B2 FC |                 xzero   m_sn,hsync1
04444     7F A1 C2 0C |         _ret_   xcont   m_bv,hsync0
04448                 | 
04448                 | 
04448                 | 
04448                 | ''--%aaaa_aaaa_aaaa_aaaa_aazz_nnnn_llll_ll_01 - txt
04448                 |   '' aaaa_aaaa_aaaa_aaaa_aazz_rrrr_rrrr_cc_10 - graph
04448                 |   '' aaaa_aaaa_aaaa-aaaa_aarr_rrrr_rrrr_rr_11 - extended, next long to read
04448                 | 
04448                 | '' Display a text line DL[31..12]=addr, nibble #1=textline, zoom: todo
04448                 | 
04448     64 CF 02 F6 | textline        mov     cursorpos2,cursorx              ' we need another var for cursor as this code will repeat 16x for every char line
0444c                 | 
0444c     7C 03 53 F8 |                 getnib  fontline,dl,#2                 ' fontline is 0 to 15, a line in font def
04450     7C 19 5B F8 |                 getnib  zoom, dl,#3
04454     03 18 07 F5 |                 and             zoom, #3
04458                 | 
04458                 | 
04458                 | 
04458     7C BF 02 F6 |                 mov     linestart,dl                    ' linestart will be used for checking cursor y and compute line start addr in the buffer
0445c     02 BE 46 F0 |                 shr     linestart,#2                    ' scanline to char line
04460     3F BE 06 F5 |                 and     linestart,#63
04464     65 BF 0A F2 |                 cmp     linestart,cursory wz            ' if the cursor is not here
04468     81 CE 06 56 |           if_nz mov     cursorpos2,#129                 ' move it out of the screen
0446c                 | 
0446c     CC FF BF FD |                 call    #hsync                          ' now call hsync to gain some time between xconts
04470                 | 
04470                 |                        ' if fontline =0, get a border color
04470                 | 
04470     52 05 33 F9 | p102            getword t1,m_border,#0
04474     00 04 0F F2 |                 cmp     t1, #0 wz
04478     4D A5 C2 5C |           if_nz xcont   m_border,border                 ' display a left border if exists
0447c                 | 
0447c     62 03 1B F2 |                 cmp     fontline,cursorsh wcz           ' if the cursor have to be not displayed due to its shape
04480     81 CC 06 C6 |           if_c  mov     cursorpos,#129                  ' move it out of the screen
04484     67 CD 02 36 |          if_nc  mov     cursorpos,cursorpos2
04488     01 CC 06 F1 |                 add     cursorpos,#1                    ' we will substract #1 below so compensate this here
0448c     71 07 03 F6 |                 mov     t2,fontbuf                      ' font definition pointer
04490     81 07 03 F1 |                 add     t2,fontline                     ' add a current font line
04494     53 BD 02 F6 |                 mov m_lut2, m_lut1
04498     6B BD 02 F1 |                 add m_lut2, lutt1
0449c     59 11 03 F6 |                 mov cpl2,i_cpl
044a0                 | 
044a0     02 18 0F F2 |                cmp zoom,#2 wz
044a4     E4 00 90 AD |           if_z jmp #p420
044a8     01 18 0F F2 |                cmp zoom,#1 wz
044ac     64 00 90 AD |           if_z jmp #p410
044b0     00 18 0F F2 |                 cmp zoom,#0 wz
044b4     04 00 90 AD |           if_z jmp #p400
044b8     50 01 90 FD |                jmp #p430
044bc                 | 
044bc                 |                    '
044bc                 |  ''---------------------------------------------------------------------------------------------------------
044bc     7E 13 03 FB |  p400                   rdlong  char,framebuf2          ' read a long char                          '1
044c0     89 15 F3 F8 |                         getbyte backcolor,char,#2       ' byte #2 - background color                '2
044c4     89 17 FB F8 |                         getbyte charcolor,char,#3       ' byte #3 - foreground color                '3
044c8     89 13 E3 F8 |                         getbyte char,char, #0           ' word #0 - char code                       '4
044cc     04 FC 06 F1 |                         add     framebuf2,#4            ' point to the next long                    '5
044d0     04 12 67 F0 |                         shl     char,#4                 ' 1 char=16 bytes in font def               '6
044d4     83 13 03 F1 |                         add     char,t2                 ' add this to font/line pointer             '7
044d8     89 05 C3 FA |                         rdbyte  t1,char                 ' and get 8 pixels prom there               '8
044dc     01 CC 8E F1 |                         sub     cursorpos,#1 wz         ' if there is a cursor                      '9
044e0     FF 04 67 A5 |                   if_z  xor     t1, #$FF                ' reverse the colors                        '10
044e4                 | 
044e4     82 BD C2 FC |                         xcont m_lut2,t1
044e8                 | 
044e8     8A 0D A3 FA |                         rdlut   t5,backcolor            ' read a background color from palette      '13
044ec     61 0D 33 FC |                         wrlut   t5,lutaddr              ' and write it to LUT #0 or #32             '14
044f0     01 C2 06 F1 |                         add     lutaddr,#1                                                          '15
044f4     8B 0D A3 FA |                         rdlut   t5,charcolor            ' the same for the foreground               '16
044f8     61 0D 33 FC |                         wrlut   t5,lutaddr                                                          '17
044fc     01 C2 86 F1 |                         sub     lutaddr,#1
04500                 | 
04500     10 BC E6 F4 |                         bitnot  m_lut2,#16                                                          '19
04504     10 A6 E6 F4 |                         bitnot  m_lut1,#16                                                          '19
04508     20 C2 66 F5 |                         xor     lutaddr,#32             ' use LUT #0-1 and 32-33                    '20
0450c                 | 
0450c     EB 11 6F FB |                         djnz   cpl2,#p400
04510     28 01 90 FD |  p401                   jmp    #p103
04514                 | 
04514                 | ''------------------------------------------------------------------------------------------------------------
04514                 | 
04514     01 10 47 F0 |  p410                   shr cpl2,#1
04518                 | 
04518                 | ''---------------------------------------------------------------------------------------------------------
04518     7E 13 03 FB |  p412                   rdlong  char,framebuf2          ' read a long char                          '1
0451c     89 15 F3 F8 |                         getbyte backcolor,char,#2       ' byte #2 - background color                '2
04520     89 17 FB F8 |                         getbyte charcolor,char,#3       ' byte #3 - foreground color                '3
04524     89 13 E3 F8 |                         getbyte char,char, #0           ' word #0 - char code                       '4
04528     04 FC 06 F1 |                         add     framebuf2,#4            ' point to the next long                    '5
0452c     04 12 67 F0 |                         shl     char,#4                 ' 1 char=16 bytes in font def               '6
04530     83 13 03 F1 |                         add     char,t2                 ' add this to font/line pointer             '7
04534     89 05 C3 FA |                         rdbyte  t1,char                 ' and get 8 pixels prom there               '8
04538     01 CC 8E F1 |                         sub     cursorpos,#1 wz         ' if there is a cursor                      '9
0453c     FF 04 67 A5 |                   if_z  xor     t1, #$FF                ' reverse the colors                        '10
04540                 | 
04540                 | 
04540     82 09 4B F8 |                         getnib t3,t1,#1                   ' 4 pixels to t3                                              '1  - +
04544     82 05 43 F8 |                         getnib t1,t1,#0                   ' 4 pixels to t1                                                      '2  - +
04548     63 04 63 FD |                         mergew t1                         ' make 01010101 from 1111                                     '3  - +
0454c     03 04 07 FA |                         mul t1,#3
04550     82 BD C2 FC |                         xcont m_lut2,t1
04554     8A 0D A3 FA |                         rdlut   t5,backcolor            ' read a background color from palette      '13
04558     61 0D 33 FC |                         wrlut   t5,lutaddr              ' and write it to LUT #0 or #32             '14
0455c     01 C2 06 F1 |                         add     lutaddr,#1                                                          '15
04560     8B 0D A3 FA |                         rdlut   t5,charcolor            ' the same for the foreground               '16
04564     61 0D 33 FC |                         wrlut   t5,lutaddr                                                          '17
04568     01 C2 86 F1 |                         sub     lutaddr,#1
0456c     63 08 63 FD |                         mergew t3
04570     03 08 07 FA |                         mul t3,#3
04574     84 BD C2 FC |                         xcont m_lut2,t3
04578                 | 
04578     10 BC E6 F4 |                         bitnot  m_lut2,#16                                                          '19
0457c     10 A6 E6 F4 |                         bitnot  m_lut1,#16                                                          '19
04580                 | 
04580     20 C2 66 F5 |                         xor     lutaddr,#32             ' use LUT #0-1 and 32-33                    '20
04584                 | 
04584     E4 11 6F FB |                         djnz   cpl2,#p412
04588     B0 00 90 FD |  p411                   jmp    #p103
0458c                 | 
0458c                 | ''------------------------------------------------------------------------------------------------------------
0458c                 | 
0458c     02 10 47 F0 |  p420                   shr cpl2,#2
04590                 | 
04590                 | ''---------------------------------------------------------------------------------------
04590     7E 13 03 FB |  p422                   rdlong  char,framebuf2          ' read a long char                          '1
04594     89 15 F3 F8 |                         getbyte backcolor,char,#2       ' byte #2 - background color                '2
04598     89 17 FB F8 |                         getbyte charcolor,char,#3       ' byte #3 - foreground color                '3
0459c     89 13 E3 F8 |                         getbyte char,char, #0           ' word #0 - char code                       '4
045a0     04 FC 06 F1 |                         add     framebuf2,#4            ' point to the next long                    '5
045a4     04 12 67 F0 |                         shl     char,#4                 ' 1 char=16 bytes in font def               '6
045a8     83 13 03 F1 |                         add     char,t2                 ' add this to font/line pointer             '7
045ac     89 05 C3 FA |                         rdbyte  t1,char                 ' and get 8 pixels prom there               '8
045b0     01 CC 8E F1 |                         sub     cursorpos,#1 wz         ' if there is a cursor                      '9
045b4     FF 04 67 A5 |                   if_z  xor     t1, #$FF                ' reverse the colors                        '10
045b8                 | 
045b8     61 04 63 FD |                         mergeb t1
045bc     82 09 3B F9 |                         getword t3,t1,#1
045c0     0F 04 07 FA |                         mul t1,#15
045c4     82 BD C2 FC |                         xcont m_lut2,t1
045c8                 | 
045c8     8A 0D A3 FA |                         rdlut   t5,backcolor            ' read a background color from palette      '13
045cc     61 0D 33 FC |                         wrlut   t5,lutaddr              ' and write it to LUT #0 or #32             '14
045d0     01 C2 06 F1 |                         add     lutaddr,#1                                                          '15
045d4     8B 0D A3 FA |                         rdlut   t5,charcolor            ' the same for the foreground               '16
045d8     61 0D 33 FC |                         wrlut   t5,lutaddr                                                          '17
045dc     01 C2 86 F1 |                         sub     lutaddr,#1
045e0                 | 
045e0     82 0B EB F8 |                         getbyte t4,t1,#1        '
045e4     85 BD C2 FC |                         xcont m_lut2,t4                                                                                                           '
045e8                 | 
045e8     0F 08 07 FA |                         mul t3,#15
045ec     84 BD C2 FC |                         xcont m_lut2,t3
045f0                 | 
045f0     84 0D EB F8 |                         getbyte t5,t3,#1
045f4     86 BD C2 FC |                         xcont m_lut2, t5
045f8     10 BC E6 F4 |                         bitnot  m_lut2,#16                                                          '19
045fc     10 A6 E6 F4 |                         bitnot  m_lut1,#16                                                          '19
04600                 | 
04600     20 C2 66 F5 |                         xor     lutaddr,#32             ' use LUT #0-1 and 32-33                    '20
04604                 | 
04604     E2 11 6F FB |                         djnz   cpl2,#p422
04608     30 00 90 FD |  p421                   jmp    #p103
0460c                 | 
0460c                 | '--------------------------------------------------------------------------------------------------------------
0460c                 | 
0460c     7E 13 03 FB |  p430                   rdlong  char,framebuf2          ' read a long char                          '1
04610     89 15 F3 F8 |                         getbyte backcolor,char,#2       ' byte #2 - background color                '2
04614     89 17 FB F8 |                         getbyte charcolor,char,#3       ' byte #3 - foreground color                '3
04618                 | 
04618     00 BC C6 FC |                         xcont m_lut2,#0
0461c                 | 
0461c     8A 0D A3 FA |                         rdlut   t5,backcolor            ' read a background color from palette      '13
04620     61 0D 33 FC |                         wrlut   t5,lutaddr              ' and write it to LUT #0 or #32             '14
04624     01 C2 06 F1 |                         add     lutaddr,#1                                                          '15
04628     8B 0D A3 FA |                         rdlut   t5,charcolor            ' the same for the foreground               '16
0462c     61 0D 33 FC |                         wrlut   t5,lutaddr                                                          '17
04630     01 C2 86 F1 |                         sub     lutaddr,#1
04634                 | 
04634     F5 11 6F FB |                         djnz   cpl2,#p430
04638     00 00 90 FD |  p431                   jmp    #p103
0463c                 | 
0463c                 | ''------------------------------------------------------------------------------------------------------------
0463c                 | 
0463c                 | 
0463c                 | 
0463c     52 27 33 F9 | p103            getword  mb2,m_border,#0
04640     00 26 0F F2 |                 cmp      mb2, #0 wz
04644     4D A5 C2 5C |                 if_nz    xcont   m_border,border            'display a right border if exists
04648                 | 
04648     B0 FD 9F FD |                 jmp #p302
0464c                 | 
0464c                 | '' -------------------------------------- END of text line ---------------------------------
0464c                 | 
0464c                 |   '' aaaa_aaaa_aaaa_aaaa_aazz_rrrr_rrrr_cc_10 - graph - display a graphics line
0464c                 | 
0464c     EC FD BF FD | graphline       call    #hsync                          ' now call hsync to gain some time between xconts
04650                 | 
04650                 | 
04650     52 27 33 F9 | p202            getword mb2,m_border,#0
04654     00 26 0F F2 |                 cmp     mb2, #0 wz
04658     4D A5 C2 5C |           if_nz xcont   m_border,border                 ' display a left border if exists
0465c                 | 
0465c                 | '----------------------------------------- display pixels
0465c                 | 
0465c     53 BD 02 F6 |                 mov     m_lut2,m_lut1                   ' m_lut1 loaded from hub timing block, pixel per long
04660     59 11 03 F6 |                 mov     cpl2,i_cpl                      ' i_cpl in graphic modes is longs per line
04664                 | 
04664     7C 19 5B F8 |                 getnib  zoom, dl,#3
04668     03 18 07 F5 |                 and             zoom, #3                        ' get a horizontal zoom for the line
0466c                 | 
0466c     7C BF 02 F6 |                 mov     colordepth,dl                   ' get a color depth, reuse linestart var f         '
04670     0C BE 06 F5 |                 and     colordepth,#12
04674                 | 
04674     00 BE 0E F2 |                 cmp     colordepth,#%0000 wz            ' 1 bpp modes
04678     6C BD 02 A1 |           if_z  add     m_lut2,lutg1
0467c     68 00 90 AD |           if_z  jmp     #p240
04680                 | 
04680     04 BE 0E F2 |                 cmp     colordepth,#%0100 wz            ' 2 bpp modes
04684     6D BD 02 A1 |           if_z  add     m_lut2,lutg2
04688     9C 00 90 AD |           if_z  jmp     #p250
0468c                 | 
0468c     08 BE 0E F2 |                 cmp     colordepth,#%1000 wz            ' 4 bpp modes
04690     6E BD 02 A1 |           if_z  add     m_lut2,lutg4
04694     00 01 90 AD |           if_z  jmp     #p260
04698                 | 
04698     6F BD 02 F1 |                 add m_lut2,lutg8                        ' 8 bpp modes
0469c                 | 
0469c                 | '' --- 8 bit color modes
0469c                 | 
0469c     00 18 0F F2 |                 cmp zoom, #%00 wz   '256 colors, zoom x1
046a0     54 01 90 AD |                 if_z jmp #p251      'there is an universal loop for 1x zoom at p251, saves one long of skip pattern
046a4                 | 
046a4     01 18 0F F2 |                 cmp zoom, #%01 wz   '256 colors, zoom x2
046a8     2A 0E 07 A6 |                 if_z mov skippattern,#%101010
046ac     10 00 90 AD |                 if_z jmp #p235
046b0                 |  '  
046b0     02 18 0F F2 |                 cmp zoom, #%10 wz   '256 colors, zoom x4
046b4     25 0E 07 A6 |                 if_z mov skippattern,#%100101
046b8                 |     
046b8                 |  
046b8     05 0E 07 56 |                 if_nz mov skippattern,#%000101
046bc     01 10 47 50 |                 if_nz shr cpl2,#1         ' if 8x zoom, 2 xconts used in one loop, so divide loop count by 2
046c0                 |         
046c0                 | 
046c0                 |         
046c0     7E 13 03 FB | p235               rdlong  char,framebuf2
046c4     32 0E 63 FD |                    skipf skippattern
046c8     02 FC 06 F1 |                    add     framebuf2,#2             '0 1 1
046cc     01 FC 06 F1 |                    add     framebuf2,#1             '1 0 0
046d0     50 12 FF F9 |                    movbyts char,#%01010000          '0 1 1
046d4     00 12 FF F9 |                    movbyts char,#%00000000          '1 0 0
046d8     89 BD C2 FC |                    xcont   m_lut2,char              '0 0 0
046dc     89 BD C2 FC |                    xcont   m_lut2,char              '1 1 0
046e0     F7 11 6F FB |                    djnz    cpl2,#p235
046e4                 | 
046e4     20 01 90 FD |                jmp    #p203
046e8                 |                   
046e8                 | 
046e8                 | 
046e8                 | '' --- 1 bit color modes
046e8                 | 
046e8     00 18 0F F2 | p240          cmp zoom, #%00 wz     '2 colors, zoom x1
046ec     08 01 90 AD |        if_z   jmp #p251              'there is an universal loop for 1x zoom at p251, saves one long of skip pattern
046f0                 | 
046f0     01 18 0F F2 |               cmp zoom, #%01 wz     '2 colors, zoom x2
046f4     13 0E 07 A6 |        if_z   mov skippattern,#%10011
046f8     08 0E 07 56 |        if_nz  mov skippattern,#%01000
046fc                 | 
046fc                 | 
046fc     7E 13 E3 FA | p241               rdword  char,framebuf2
04700     44 12 FF F9 |                    movbyts char,#%01000100
04704     63 12 63 FD |                    mergew  char
04708     32 0E 63 FD |                    skipf skippattern
0470c     44 12 FF F9 |                    movbyts char,#%01000100         ' 1 0
04710     63 12 63 FD |                    mergew  char                    ' 1 0
04714     89 BD C2 FC |                    xcont   m_lut2,char             ' 0 0
04718     02 FC 06 F1 |                    add     framebuf2,#2                    ' 0 1
0471c     01 FC 06 F1 |                    add     framebuf2,#1                ' 1 0
04720     F6 11 6F FB |                    djnz   cpl2,#p241
04724                 | 
04724                 | 
04724     E0 00 90 FD |                jmp    #p203
04728                 | 
04728                 | '' --- 2 bit color modes
04728                 | 
04728     00 18 0F F2 | p250          cmp zoom, #%00 wz     '4 colors, zoom x1
0472c     C8 00 90 AD |        if_z   jmp #p251
04730                 | 
04730     01 18 0F F2 |               cmp zoom, #%01 wz     '4 colors, zoom x2
04734     30 00 90 AD |        if_z   jmp #p252
04738                 | 
04738                 | 
04738     7E 13 C3 FA | p254               rdbyte char,framebuf2
0473c     04 0C 07 F6 |                    mov  t5,#4
04740     02 12 67 F0 | p255               shl  char,#2
04744     89 05 53 F8 |                    getnib  t1,char,#2
04748     03 04 07 F5 |                    and     t1,#3
0474c     55 04 07 FA |                    mul     t1,#$55
04750     82 07 03 F9 |                    rolbyte  t2,t1,#0
04754     FA 0D 6F FB |                    djnz    t5,#p255
04758     83 BD C2 FC |                    xcont   m_lut2,t2
0475c     01 FC 06 F1 |                    add     framebuf2,#1
04760     F5 11 6F FB |                    djnz    cpl2,#p254
04764     A0 00 90 FD |                    jmp     #p203
04768                 | 
04768     7E 13 E3 FA | p252               rdword char,framebuf2
0476c     08 0C 07 F6 |                    mov  t5,#8
04770     02 12 67 F0 | p253               shl  char,#2
04774     89 05 63 F8 |                    getnib  t1,char,#4
04778     03 04 07 F5 |                    and     t1,#3
0477c     05 04 07 FA |                    mul     t1,#5
04780     82 07 83 F8 |                    rolnib  t2,t1,#0
04784     FA 0D 6F FB |                    djnz    t5,#p253
04788     83 BD C2 FC |                    xcont   m_lut2,t2
0478c     02 FC 06 F1 |                    add     framebuf2,#2
04790     F5 11 6F FB |                    djnz    cpl2,#p252
04794     70 00 90 FD |                    jmp     #p203
04798                 | 
04798                 | '' ------ 4 bit color modes
04798                 | 
04798     00 18 0F F2 | p260          cmp zoom, #%00 wz     '4 colors, zoom x1, the same loop as 2bpp
0479c     58 00 90 AD |        if_z   jmp #p251
047a0                 | 
047a0     01 18 0F F2 |               cmp zoom, #%01 wz     '4 colors, zoom x2
047a4     2C 00 90 AD |        if_z   jmp #p262
047a8                 | 
047a8                 | 
047a8     7E 13 C3 FA | p263               rdbyte char,framebuf2
047ac     02 0A DC FC |                            rep #5,#2
047b0     89 07 8B F8 |                              rolnib t2,char,#1
047b4     89 07 8B F8 |                                  rolnib t2,char,#1
047b8     89 07 8B F8 |                              rolnib t2,char,#1
047bc     89 07 8B F8 |                                  rolnib t2,char,#1
047c0     04 12 67 F0 |                              shl char,#4
047c4     83 BD C2 FC |                    xcont   m_lut2,t2
047c8     01 FC 06 F1 |                    add     framebuf2,#1
047cc     F6 11 6F FB |                    djnz    cpl2,#p263
047d0     34 00 90 FD |                    jmp     #p203
047d4                 | 
047d4     7E 13 E3 FA | p262               rdword  char,framebuf2
047d8     04 06 DC FC |                            rep #3,#4
047dc     89 07 9B F8 |                              rolnib t2,char,#3
047e0     89 07 9B F8 |                                  rolnib t2,char,#3
047e4     04 12 67 F0 |                              shl char,#4
047e8     83 BD C2 FC |                    xcont   m_lut2,t2
047ec     02 FC 06 F1 |                    add     framebuf2,#2
047f0     F8 11 6F FB |                    djnz    cpl2,#p262
047f4     10 00 90 FD |                    jmp     #p203
047f8                 | 
047f8                 | ''---------- all color modes without zoom
047f8                 | 
047f8     88 07 D8 FC | p251               rep  #3,cpl2
047fc     7E 13 03 FB |                    rdlong  char,framebuf2
04800     04 FC 06 F1 |                    add     framebuf2,#4
04804     89 BD C2 FC |                    xcont   m_lut2,char
04808                 |           
04808                 |  ''-----------------------------------------------------------------------------------------
04808                 | p203           ' getword  mb2,m_border,#0
04808     00 26 0F F2 |                 cmp      mb2, #0 wz
0480c     4D A5 C2 5C |                 if_nz    xcont   m_border,border            'display a right border if exists
04810                 | 
04810     E8 FB 9F FD |                 jmp #p302
04814                 | 
04814                 | '' -------------------------------------- END of graph  line ---------------------------------
04814                 | 
04814                 | '' consts and vars
04814                 | 
04814     52 4D 35 D5 | sync_000        long    %1101010100_1101010100_1101010100_10    '
04818     AE 42 35 D5 | sync_001        long    %1101010100_1101010100_0010101011_10    '        hsync
0481c     52 45 15 55 | sync_222        long    %0101010100_0101010100_0101010100_10    'vsync
04820     AE 4A 15 55 | sync_223        long    %0101010100_0101010100_1010101011_10    'vsync + hsync
04824                 | 
04824     00 2C 1A 00 | border          long    %00000000_00011010_00101100_00000000
04828                 | 
04828                 | '------ these longs will be set by setmode function
04828                 | 
04828     00 00 00 00 | m_bs            long    0        'blanks before sync
0482c     00 00 00 00 | m_sn            long    0        'sync
04830     00 00 00 00 | m_bv            long    0        'blanks before visible
04834     00 00 00 00 | m_vi            long    0        'visible pixels #
04838     00 00 00 00 | m_border        long    0        'left/right borders
0483c     00 00 00 00 | m_lut1          long    0        'characters
04840     00 00 00 00 | i_vborder       long    0        'up/down borders
04844     00 00 00 00 | i_upporch       long    0        'up porch lines
04848     00 00 00 00 | i_vsync         long    0        'vsync lines
0484c     00 00 00 00 | i_downporch     long    0        'down porch lines
04850     00 00 00 00 | i_modenum       long    0        'mode #
04854     00 00 00 00 | i_cpl           long    0        'chars/longs per line
04858     00 00 00 00 | i_lines         long    0        'scanlines #
0485c     00 00 00 00 | i_clock         long    0
04860     00 00 00 00 | i_hubset        long    0
04864     00 00 00 00 | i_totalvis      long    0
04868                 | 
04868                 | '-------------------------------------
04868                 | 
04868     00 00 00 00 | m_lut2          long    0
0486c                 | 
0486c                 | colordepth
0486c     00 00 00 00 | linestart       long    0
04870     00 00 00 00 | linenum         long    0
04874     00 01 00 00 | lutaddr         long    256
04878                 | 
04878     0E 00 00 00 | cursorsh        long    14
0487c     00 00 00 00 | frames          long    0
04880     00 00 00 00 | cursorx         long    0
04884     00 00 00 00 | cursory         long    0
04888     00 00 00 00 | cursorpos       long    0
0488c     00 00 00 00 | cursorpos2      long    0
04890     00 00 00 00 | fontstart       long    0
04894     00 00 00 00 | border2         long 0
04898     00 00 81 70 | lutiv           long $70810000
0489c     00 00 88 00 | lutt1           long $00880000
048a0     00 00 80 00 | lutg1           long $00800000
048a4     00 00 80 10 | lutg2           long $10800000
048a8     00 00 80 20 | lutg4           long $20800000
048ac     00 00 80 30 | lutg8           long $30800000
048b0     00 00 00 00 | framebuf        long 0
048b4     00 00 00 00 | fontbuf         long 0
048b8     00 00 00 00 | borderptr       long 0
048bc     00 00 00 00 | vblankptr       long 0
048c0     00 00 00 00 | cursorptr       long 0
048c4     00 00 00 00 | modeptr         long 0
048c8     00 00 00 00 | paletteptr      long 0
048cc     00 00 00 00 | dlptr           long 0
048d0                 | fontnumptr      res     1
048d0                 | fontnumptr      res     1
048d0                 | hbase           res     1
048d0                 | hbase           res     1
048d0                 | borderptr2      res     1
048d0                 | borderptr2      res     1
048d0                 | dlptr2 res 1
048d0                 | dlptr2 res 1
048d0                 | dl              res 1
048d0                 | dl              res 1
048d0                 | ii              res     1
048d0                 | ii              res     1
048d0                 | framebuf2       res     1
048d0                 | framebuf2       res     1
048d0                 | hsync0          res     1
048d0                 | hsync0          res     1
048d0                 | hsync1          res     1
048d0                 | hsync1          res     1
048d0                 | fontline        res     1
048d0                 | fontline        res     1
048d0                 | t1              res     1
048d0                 | t1              res     1
048d0                 | t2              res     1
048d0                 | t2              res     1
048d0                 | t3 res 1
048d0                 | t3 res 1
048d0                 | t4 res 1
048d0                 | t4 res 1
048d0                 | t5 res 1
048d0                 | t5 res 1
048d0                 | skippattern res 1
048d0                 | skippattern res 1
048d0                 | cpl2 res 1
048d0                 | cpl2 res 1
048d0                 | char            res     1
048d0                 | char            res     1
048d0                 | backcolor       res     1
048d0                 | backcolor       res     1
048d0                 | charcolor       res     1
048d0                 | charcolor       res     1
048d0                 | zoom res 1
048d0                 | zoom res 1
048d0     00 00 00 00 | rcnt long 0 'dl repeat count
048d4     00 00 00 00 | rcnt2 long 0
048d8     00 00 00 00 | rcnt2a long 0
048dc     00 00 00 00 | roffset long 0
048e0     00 00 00 00 | rdl long 0  'dl repeat line
048e4     00 00 00 00 | dlc long 0 'dl command
048e8     00 00 00 00 | mb2 long 0
048ec     00 00 00 00 | aend             long 0
048f0                 |                 fit     496                     '
048f0     00 00 00 00 | 	long	0[1]
048f4 0d2             | 	org	COG_BSS_START
048f4 0d2             | _var01
048f4 0d2             | 	res	1
048f4 0d3             | _var02
048f4 0d3             | 	res	1
048f4 0d4             | _var03
048f4 0d4             | 	res	1
048f4 0d5             | _var04
048f4 0d5             | 	res	1
048f4 0d6             | _var05
048f4 0d6             | 	res	1
048f4 0d7             | _var06
048f4 0d7             | 	res	1
048f4 0d8             | _var07
048f4 0d8             | 	res	1
048f4 0d9             | _var08
048f4 0d9             | 	res	1
048f4 0da             | _var09
048f4 0da             | 	res	1
048f4 0db             | _var10
048f4 0db             | 	res	1
048f4 0dc             | _var11
048f4 0dc             | 	res	1
048f4 0dd             | _var12
048f4 0dd             | 	res	1
048f4 0de             | _var13
048f4 0de             | 	res	1
048f4 0df             | _var14
048f4 0df             | 	res	1
048f4 0e0             | _var15
048f4 0e0             | 	res	1
048f4 0e1             | _var16
048f4 0e1             | 	res	1
048f4 0e2             | _var17
048f4 0e2             | 	res	1
048f4 0e3             | _var18
048f4 0e3             | 	res	1
048f4 0e4             | _var19
048f4 0e4             | 	res	1
048f4 0e5             | _var20
048f4 0e5             | 	res	1
048f4 0e6             | _var21
048f4 0e6             | 	res	1
048f4 0e7             | _var22
048f4 0e7             | 	res	1
048f4 0e8             | _var23
048f4 0e8             | 	res	1
048f4 0e9             | _var24
048f4 0e9             | 	res	1
048f4 0ea             | _var25
048f4 0ea             | 	res	1
048f4 0eb             | _var26
048f4 0eb             | 	res	1
048f4 0ec             | _var27
048f4 0ec             | 	res	1
048f4 0ed             | _var28
048f4 0ed             | 	res	1
048f4 0ee             | _var29
048f4 0ee             | 	res	1
048f4 0ef             | _var30
048f4 0ef             | 	res	1
048f4 0f0             | _var31
048f4 0f0             | 	res	1
048f4 0f1             | _var32
048f4 0f1             | 	res	1
048f4 0f2             | _var33
048f4 0f2             | 	res	1
048f4 0f3             | _var34
048f4 0f3             | 	res	1
048f4 0f4             | _var35
048f4 0f4             | 	res	1
048f4 0f5             | _var36
048f4 0f5             | 	res	1
048f4 0f6             | _var37
048f4 0f6             | 	res	1
048f4 0f7             | _var38
048f4 0f7             | 	res	1
048f4 0f8             | _var39
048f4 0f8             | 	res	1
048f4 0f9             | _var40
048f4 0f9             | 	res	1
048f4 0fa             | _var41
048f4 0fa             | 	res	1
048f4 0fb             | _var42
048f4 0fb             | 	res	1
048f4 0fc             | _var43
048f4 0fc             | 	res	1
048f4 0fd             | _var44
048f4 0fd             | 	res	1
048f4 0fe             | _var45
048f4 0fe             | 	res	1
048f4 0ff             | _var46
048f4 0ff             | 	res	1
048f4 100             | _var47
048f4 100             | 	res	1
048f4 101             | _var48
048f4 101             | 	res	1
048f4 102             | _var49
048f4 102             | 	res	1
048f4 103             | _var50
048f4 103             | 	res	1
048f4 104             | _var51
048f4 104             | 	res	1
048f4 105             | _var52
048f4 105             | 	res	1
048f4 106             | _var53
048f4 106             | 	res	1
048f4 107             | _var54
048f4 107             | 	res	1
048f4 108             | _var55
048f4 108             | 	res	1
048f4 109             | _var56
048f4 109             | 	res	1
048f4 10a             | _var57
048f4 10a             | 	res	1
048f4 10b             | _var58
048f4 10b             | 	res	1
048f4 10c             | _var59
048f4 10c             | 	res	1
048f4 10d             | _var60
048f4 10d             | 	res	1
048f4 10e             | _var61
048f4 10e             | 	res	1
048f4 10f             | _var62
048f4 10f             | 	res	1
048f4 110             | _var63
048f4 110             | 	res	1
048f4 111             | _var64
048f4 111             | 	res	1
048f4 112             | _var65
048f4 112             | 	res	1
048f4 113             | _var66
048f4 113             | 	res	1
048f4 114             | _var67
048f4 114             | 	res	1
048f4 115             | _var68
048f4 115             | 	res	1
048f4 116             | _var69
048f4 116             | 	res	1
048f4 117             | _var70
048f4 117             | 	res	1
048f4 118             | _var71
048f4 118             | 	res	1
048f4 119             | _var72
048f4 119             | 	res	1
048f4 11a             | _var73
048f4 11a             | 	res	1
048f4 11b             | _var74
048f4 11b             | 	res	1
048f4 11c             | _var75
048f4 11c             | 	res	1
048f4 11d             | _var76
048f4 11d             | 	res	1
048f4 11e             | _var77
048f4 11e             | 	res	1
048f4 11f             | _var78
048f4 11f             | 	res	1
048f4 120             | _var79
048f4 120             | 	res	1
048f4 121             | _var80
048f4 121             | 	res	1
048f4 122             | _var81
048f4 122             | 	res	1
048f4 123             | _var82
048f4 123             | 	res	1
048f4 124             | _var83
048f4 124             | 	res	1
048f4 125             | _var84
048f4 125             | 	res	1
048f4 126             | _var85
048f4 126             | 	res	1
048f4 127             | _var86
048f4 127             | 	res	1
048f4 128             | _var87
048f4 128             | 	res	1
048f4 129             | _var88
048f4 129             | 	res	1
048f4 12a             | _var89
048f4 12a             | 	res	1
048f4 12b             | _var90
048f4 12b             | 	res	1
048f4 12c             | _var91
048f4 12c             | 	res	1
048f4 12d             | _var92
048f4 12d             | 	res	1
048f4 12e             | _var93
048f4 12e             | 	res	1
048f4 12f             | _var94
048f4 12f             | 	res	1
048f4 130             | arg01
048f4 130             | 	res	1
048f4 131             | arg02
048f4 131             | 	res	1
048f4 132             | arg03
048f4 132             | 	res	1
048f4 133             | arg04
048f4 133             | 	res	1
048f4 134             | arg05
048f4 134             | 	res	1
048f4 135             | local01
048f4 135             | 	res	1
048f4 136             | local02
048f4 136             | 	res	1
048f4 137             | local03
048f4 137             | 	res	1
048f4 138             | local04
048f4 138             | 	res	1
048f4 139             | local05
048f4 139             | 	res	1
048f4 13a             | local06
048f4 13a             | 	res	1
048f4 13b             | local07
048f4 13b             | 	res	1
048f4 13c             | local08
048f4 13c             | 	res	1
048f4 13d             | local09
048f4 13d             | 	res	1
048f4 13e             | local10
048f4 13e             | 	res	1
048f4 13f             | local11
048f4 13f             | 	res	1
048f4 140             | local12
048f4 140             | 	res	1
048f4 141             | local13
048f4 141             | 	res	1
048f4 142             | local14
048f4 142             | 	res	1
048f4 143             | local15
048f4 143             | 	res	1
048f4 144             | local16
048f4 144             | 	res	1
048f4 145             | local17
048f4 145             | 	res	1
048f4 146             | local18
048f4 146             | 	res	1
048f4 147             | local19
048f4 147             | 	res	1
048f4 148             | local20
048f4 148             | 	res	1
048f4 149             | local21
048f4 149             | 	res	1
048f4 14a             | local22
048f4 14a             | 	res	1
048f4 14b             | local23
048f4 14b             | 	res	1
048f4 14c             | local24
048f4 14c             | 	res	1
048f4 14d             | muldiva_
048f4 14d             | 	res	1
048f4 14e             | muldivb_
048f4 14e             | 	res	1
048f4 14f             | 	fit	480
048f4 14f             | 
