00000                 | 
00000                 | #line 1 "D:/programowanie/20210307-ultibo-propeller/ultibo-propeller/robuv001/hng025r4.p2asm"
00000                 | ' 
00000                 | ' 
00000                 | ' hdmi_base       = 48             'must be a multiple of 8
00000                 | con
00000                 | 	hdmi_base = 48
00000                 | ' _clkfreq        = 245_000_000    'start safe, hubset will do the rest. The clock will be changed to:
00000                 | 	_clkfreq = 245000000
00000                 | ' 
00000                 | ' ' 354_689_500   200x Atari 8-bit PAL,  50x Amiga PAL  - real settings: 49,869-> 354_693_878  - 1.0000123 - mode 0 and 192
00000                 | ' ' 357_954_500   200x Atari 8-bit NTSC, 50x Amiga NTSC - real settings: 49,877-> 357_959_184  - 1.0000131 - mode 256
00000                 | ' 
00000                 | ' ' 319_220_550   180x PAL  - real settings: 51,814-> 319_215_686 - 0.9999848 - mode 64
00000                 | ' ' 322_159_050   180x NTSC - real settings: 37,596-> 322_162_162 - 1.0000097 - mode 320 and 448
00000                 | ' 
00000                 | ' ' 283_751_600   160x PAL  - real settings: 64,908-> 283_750_000 - 0.9999944 - mode 128
00000                 | ' ' 286_363_600   160x NTSC - real settings: 22,315-> 286_363_636 - 1.0000001 - mode 384
00000                 | ' 
00000                 | ' ''--------- VGA DOS color definition constants
00000                 | ' 
00000                 | ' c_black         =    0
00000                 | 	c_black = 0
00000                 | ' c_blue          =  117
00000                 | 	c_blue = 117
00000                 | ' c_green         =  199
00000                 | 	c_green = 199
00000                 | ' c_cyan          =  149
00000                 | 	c_cyan = 149
00000                 | ' c_red           =   39
00000                 | 	c_red = 39
00000                 | ' c_magenta       =   71
00000                 | 	c_magenta = 71
00000                 | ' c_brown         =  246
00000                 | 	c_brown = 246
00000                 | ' c_lightgray     =   10
00000                 | 	c_lightgray = 10
00000                 | ' c_darkgray      =    5
00000                 | 	c_darkgray = 5
00000                 | ' c_lightblue     =  121
00000                 | 	c_lightblue = 121
00000                 | ' c_lightgreen    =  203
00000                 | 	c_lightgreen = 203
00000                 | ' c_lightcyan     =  155
00000                 | 	c_lightcyan = 155
00000                 | ' c_lightred      =   43
00000                 | 	c_lightred = 43
00000                 | ' c_lightmagenta  =   75
00000                 | 	c_lightmagenta = 75
00000                 | ' c_yellow        =  234
00000                 | 	c_yellow = 234
00000                 | ' c_white         =   15
00000                 | 	c_white = 15
00000                 | ' 
00000                 | ' timingsxxt      =  $70810000
00000                 | 	timingsxxt = 1887502336
00000                 | dat
00000 000 00 00 00 00 | 	nop
00004 001 01 EC 63 FD | 	cogid	pa
00008 002 02 00 00 FF 
0000c 003 04 EC E7 FC | 	coginit	pa,##$404
00010                 | 	orgh	$10
00010     00 00 00 00 | 	long	0	'reserved
00014     00 00 00 00 | 	long	0 ' clock frequency: will default to 245000000
00018     00 00 00 00 | 	long	0 ' clock mode: will default to $10c30fb
0001c     00 00 00 00 
      ...             
003f8     00 00 00 00 
003fc     00 00 00 00 | 	orgh	$400
00400     00 B6 05 06 |  _ret_	mov	result1, #0
00404 000             | 	org	0
00404 000             | entry
00404 000 00 F0 0F F2 | 	cmp	ptra, #0 wz
00408 001 14 02 90 5D |  if_ne	jmp	#spininit
0040c 002 D3 F0 03 F6 | 	mov	ptra, objptr
00410 003 EC F0 07 F1 | 	add	ptra, #236
00414 004 14 EC 0F FB | 	rdlong	pa, #20 wz
00418 005 E8 01 90 5D |  if_ne	jmp	#skip_clock_set_
0041c 006 00 00 64 FD | 	hubset	#0
00420 007 18 86 80 FF 
00424 008 00 F0 65 FD | 	hubset	##17576184
00428 009 86 01 80 FF 
0042c 00a 1F 80 66 FD | 	waitx	##200000
00430 00b 18 86 00 FF 
00434 00c FB EC 07 F6 | 	mov	pa, ##17576187
00438 00d 00 EC 63 FD | 	hubset	pa
0043c 00e 18 EC 67 FC | 	wrlong	pa, #24
00440 00f 33 4D 87 FF 
00444 010 14 80 6E FC | 	wrlong	##245000000, #20
00448 011 B8 01 90 FD | 	jmp	#skip_clock_set_
0044c 012 00 00 00 00 
      ...             
005fc 07e 00 00 00 00 
00600 07f 00 00 00 00 | 	orgf	128
00604 080             | skip_clock_set_
00604 080 04 A0 61 FD | 	locknew	__lockreg
00608 081 D4 A0 61 FC | 	wrlong	__lockreg, ptr___lockreg_
0060c 082 78 07 A0 FD | 	call	#_dummy
00610 083             | cogexit
00610 083 38 01 80 FF 
00614 084 1F 00 66 FD | 	waitx	##160000
00618 085 01 DA 61 FD | 	cogid	arg01
0061c 086 03 DA 61 FD | 	cogstop	arg01
00620 087             | spininit
00620 087 00 A7 05 FB | 	rdlong	objptr, ptra
00624 088 04 F0 07 F1 | 	add	ptra, #4
00628 089 00 B7 05 FB | 	rdlong	result1, ptra
0062c 08a 04 F0 07 F1 | 	add	ptra, #4
00630 08b 00 DB 05 FB | 	rdlong	arg01, ptra
00634 08c 04 F0 07 F1 | 	add	ptra, #4
00638 08d 00 DD 05 FB | 	rdlong	arg02, ptra
0063c 08e 04 F0 07 F1 | 	add	ptra, #4
00640 08f 00 DF 05 FB | 	rdlong	arg03, ptra
00644 090 04 F0 07 F1 | 	add	ptra, #4
00648 091 00 E1 05 FB | 	rdlong	arg04, ptra
0064c 092 10 F0 87 F1 | 	sub	ptra, #16
00650 093 2D B6 61 FD | 	call	result1
00654 094 B8 FF 9F FD | 	jmp	#cogexit
00658 095             | FCACHE_LOAD_
00658 095 2B 42 61 FD |     pop	fcache_tmpb_
0065c 096 F6 43 01 F1 |     add	fcache_tmpb_, pa
00660 097 2A 42 61 FD |     push	fcache_tmpb_
00664 098 F6 43 81 F1 |     sub	fcache_tmpb_, pa
00668 099 02 EC 47 F0 |     shr	pa, #2
0066c 09a 00 EC 8F F9 |     altd	pa
00670 09b A0 00 00 F6 |     mov	 0-0, ret_instr_
00674 09c 01 EC 87 F1 |     sub	pa, #1
00678 09d 28 EC 63 FD |     setq	pa
0067c 09e A1 00 00 FB |     rdlong	$0, fcache_tmpb_
00680 09f 00 00 80 FD |     jmp	#\$0 ' jmp to cache
00684 0a0             | ret_instr_
00684 0a0 2D 00 64 FD |     ret
00688 0a1             | fcache_tmpb_
00688 0a1 00 00 00 00 |     long 0
0068c 0a2             | COUNT_
0068c 0a2 00 00 00 00 |     long 0
00690 0a3             | RETADDR_
00690 0a3 00 00 00 00 |     long 0
00694 0a4             | fp
00694 0a4 00 00 00 00 |     long 0
00698 0a5             | pushregs_
00698 0a5 2B EC 63 FD |     pop  pa
0069c 0a6 2B 46 61 FD |     pop  RETADDR_
006a0 0a7 04 44 95 FB |     tjz  COUNT_, #pushregs_done_
006a4 0a8 01 44 85 F1 |     sub  COUNT_, #1
006a8 0a9 28 44 61 FD |     setq COUNT_
006ac 0aa 00 E5 65 FC |     wrlong local01, ptra
006b0 0ab 01 44 05 F1 |     add  COUNT_, #1
006b4 0ac             | pushregs_done_
006b4 0ac 02 44 65 F0 |     shl  COUNT_, #2
006b8 0ad A2 F0 03 F1 |     add  ptra, COUNT_
006bc 0ae 02 44 45 F0 |     shr  COUNT_, #2
006c0 0af 28 04 64 FD |     setq #2 ' push 3 registers starting at COUNT_
006c4 0b0 00 45 65 FC |     wrlong COUNT_, ptra
006c8 0b1 0C F0 07 F1 |     add    ptra, #12
006cc 0b2 F8 49 01 F6 |     mov    fp, ptra
006d0 0b3 2C EC 63 FD |     jmp  pa
006d4 0b4             |  popregs_
006d4 0b4 2B EC 63 FD |     pop    pa
006d8 0b5 0C F0 87 F1 |     sub    ptra, #12
006dc 0b6 28 04 64 FD |     setq   #2
006e0 0b7 00 45 05 FB |     rdlong COUNT_, ptra
006e4 0b8 06 44 95 FB |     tjz    COUNT_, #popregs__ret
006e8 0b9 02 44 65 F0 |     shl    COUNT_, #2
006ec 0ba A2 F0 83 F1 |     sub    ptra, COUNT_
006f0 0bb 02 44 45 F0 |     shr    COUNT_, #2
006f4 0bc 01 44 85 F1 |     sub    COUNT_, #1
006f8 0bd 28 44 61 FD |     setq   COUNT_
006fc 0be 00 E5 05 FB |     rdlong local01, ptra
00700 0bf             | popregs__ret
00700 0bf 2A 46 61 FD |     push   RETADDR_
00704 0c0 2C EC 63 FD |     jmp    pa
00708 0c1             | 
00708 0c1             | unsdivide_
00708 0c1 28 00 64 FD |        setq    #0
0070c 0c2 0E 1B 12 FD |        qdiv    muldiva_, muldivb_
00710 0c3 18 1C 62 FD |        getqx   muldivb_
00714 0c4 19 1A 62 0D |  _ret_ getqy   muldiva_
00718 0c5             | 
00718 0c5             | divide_
00718 0c5 0D 1B 52 F6 |        abs     muldiva_,muldiva_     wc       'abs(x)
0071c 0c6 03 A4 85 F5 |        muxc    itmp2_,#%11                    'store sign of x
00720 0c7 0E 1D 5A F6 |        abs     muldivb_,muldivb_     wcz      'abs(y)
00724 0c8 02 A4 65 C5 |  if_c  xor     itmp2_,#%10                    'store sign of y
00728 0c9 2D 00 64 AD |  if_z  ret
0072c 0ca D8 FF BF FD |        call    #unsdivide_
00730 0cb 01 A4 D5 F7 |        test    itmp2_,#1        wc       'restore sign, remainder
00734 0cc 0D 1B 82 F6 |        negc    muldiva_,muldiva_ 
00738 0cd 02 A4 D5 F7 |        test    itmp2_,#%10      wc       'restore sign, division result
0073c 0ce 0E 1D 82 06 |  _ret_ negc    muldivb_,muldivb_
00740 0cf             | 
00740 0cf             | __heap_ptr
00740 0cf 70 51 00 00 | 	long	@__heap_base
00744 0d0             | __lockreg
00744 0d0 00 00 00 00 | 	long	0
00748 0d1             | itmp1_
00748 0d1 00 00 00 00 | 	long	0
0074c 0d2             | itmp2_
0074c 0d2 00 00 00 00 | 	long	0
00750 0d3             | objptr
00750 0d3 78 61 00 00 | 	long	@objmem
00754 0d4             | ptr___lockreg_
00754 0d4 44 07 00 00 | 	long	@__lockreg
00758 0d5             | ptr___system__dat__
00758 0d5 60 51 00 00 | 	long	@__system__dat_
0075c 0d6             | ptr__dat__
0075c 0d6 B8 2E 00 00 | 	long	@_dat_
00760 0d7             | ptr__putpixel1_
00760 0d7 30 19 00 00 | 	long	@_putpixel1
00764 0d8             | ptr__putpixel2_
00764 0d8 18 1A 00 00 | 	long	@_putpixel2
00768 0d9             | ptr__putpixel4_
00768 0d9 F0 1A 00 00 | 	long	@_putpixel4
0076c 0da             | ptr__putpixel8_
0076c 0da C8 1B 00 00 | 	long	@_putpixel8
00770 0db             | result1
00770 0db 00 00 00 00 | 	long	0
00774 0dc             | result2
00774 0dc 00 00 00 00 | 	long	0
00778 0dd             | COG_BSS_START
00778 0dd             | 	fit	480
00778                 | 	orgh
00778                 | hubentry
00778                 | 
00778                 | ' 
00778                 | ' 
00778                 | ' ''--------- timings
00778                 | ' ' 0  m_bs        - before sync,             16      80
00778                 | ' ' 1  m_sn        - sync                     80     160
00778                 | ' ' 2  m_bv        - before visible           20      84
00778                 | ' ' 3  m_vi        - visible                1024     816
00778                 | ' ' 4  m_border    - left and right borders  112       8
00778                 | ' ' 5  m_lut1      - pixels per char           8       8
00778                 | ' ' 6  i_vborder   - up and down border       48       8
00778                 | ' ' 7  i_upporch   - up non visible           16       8
00778                 | ' ' 8  i_vsync     - vsync                    16      12
00778                 | ' ' 9  i_downporch - down non visible         16       8
00778                 | ' '10  mode #
00778                 | ' '11  cpl         - character per line
00778                 | ' '12  scanlines #
00778                 | ' '13  clock
00778                 | ' '14  hubset value for clock settings
00778                 | ' 
00778                 | ' 
00778                 | ' '*************************************************************************
00778                 | ' '                                                                        *
00778                 | ' '  A dummy start function if someone runs this driver alone              *
00778                 | ' '                                                                        *
00778                 | ' '*************************************************************************
00778                 | ' 
00778                 | ' pub dummy()|i,x,y,ntsc,bbb,ccc,zzx,zzy,amode,x1,x2,y1,y2,r
00778                 | _dummy
00778     19 44 05 F6 | 	mov	COUNT_, #25
0077c     A5 00 A0 FD | 	call	#pushregs_
00780                 | ' '' this is not a main program.
00780                 | ' 
00780                 | ' start(512+0+48,hdmi_base)
00780     2C A6 05 F1 | 	add	objptr, #44
00784     D3 E4 01 F6 | 	mov	local01, objptr
00788                 | ' 
00788                 | ' ' initialize pointers and variables
00788                 | ' 
00788                 | ' border_ptr:=@bordercolor
00788     24 A6 85 F1 | 	sub	objptr, #36
0078c     D3 E4 61 FC | 	wrlong	local01, objptr
00790     08 00 00 FF 
00794     00 AC 05 F1 | 	add	ptr__dat__, ##4096
00798                 | ' font_ptr:=@st_font
00798     04 A6 85 F1 | 	sub	objptr, #4
0079c     D3 AC 61 FC | 	wrlong	ptr__dat__, objptr
007a0                 | ' hdmibase:=base
007a0     20 A6 05 F1 | 	add	objptr, #32
007a4     D3 60 68 FC | 	wrlong	#48, objptr
007a8     24 A6 85 F1 | 	sub	objptr, #36
007ac     D7 DC 01 F6 | 	mov	arg02, ptr__putpixel1_
007b0                 | ' p1:=@putpixel1
007b0     D3 DA 01 F6 | 	mov	arg01, objptr
007b4     08 00 00 FF 
007b8     00 AC 85 F1 | 	sub	ptr__dat__, ##4096
007bc     E8 1B B0 FD | 	call	#__system___make_methodptr
007c0     DB E6 01 F6 | 	mov	local02, result1
007c4     DC A6 05 F1 | 	add	objptr, #220
007c8     D3 E6 61 FC | 	wrlong	local02, objptr
007cc     DC A6 85 F1 | 	sub	objptr, #220
007d0     D8 DC 01 F6 | 	mov	arg02, ptr__putpixel2_
007d4                 | ' p2:=@putpixel2
007d4     D3 DA 01 F6 | 	mov	arg01, objptr
007d8     CC 1B B0 FD | 	call	#__system___make_methodptr
007dc     DB E6 01 F6 | 	mov	local02, result1
007e0     E0 A6 05 F1 | 	add	objptr, #224
007e4     D3 E6 61 FC | 	wrlong	local02, objptr
007e8     E0 A6 85 F1 | 	sub	objptr, #224
007ec     D9 DC 01 F6 | 	mov	arg02, ptr__putpixel4_
007f0                 | ' p4:=@putpixel4
007f0     D3 DA 01 F6 | 	mov	arg01, objptr
007f4     B0 1B B0 FD | 	call	#__system___make_methodptr
007f8     DB E6 01 F6 | 	mov	local02, result1
007fc     E4 A6 05 F1 | 	add	objptr, #228
00800     D3 E6 61 FC | 	wrlong	local02, objptr
00804     E4 A6 85 F1 | 	sub	objptr, #228
00808     DA DC 01 F6 | 	mov	arg02, ptr__putpixel8_
0080c                 | ' p8:=@putpixel8
0080c     D3 DA 01 F6 | 	mov	arg01, objptr
00810     94 1B B0 FD | 	call	#__system___make_methodptr
00814     DB E6 01 F6 | 	mov	local02, result1
00818     E8 A6 05 F1 | 	add	objptr, #232
0081c     D3 E6 61 FC | 	wrlong	local02, objptr
00820     E8 A6 85 F1 | 	sub	objptr, #232
00824                 | ' 
00824                 | ' 
00824                 | ' ' the mode has to be set here to enable computing the buffer length
00824                 | ' 
00824                 | ' setmode(mode)
00824     01 00 00 FF 
00828     30 DA 05 F6 | 	mov	arg01, ##560
0082c     00 17 B0 FD | 	call	#_setmode
00830     40 A6 05 F1 | 	add	objptr, #64
00834     D3 E8 01 F6 | 	mov	local03, objptr
00838                 | ' 
00838                 | ' vblank_ptr:=@vblank
00838     34 A6 85 F1 | 	sub	objptr, #52
0083c     D3 E8 61 FC | 	wrlong	local03, objptr
00840     28 A6 05 F1 | 	add	objptr, #40
00844     D3 EA 01 F6 | 	mov	local04, objptr
00848                 | ' cursor_ptr:=@cursor_x
00848     24 A6 85 F1 | 	sub	objptr, #36
0084c     D3 EA 61 FC | 	wrlong	local04, objptr
00850     88 A6 05 F1 | 	add	objptr, #136
00854     D3 EC 01 F6 | 	mov	local05, objptr
00858                 | ' 
00858                 | ' fontnum_ptr:=@fontnum
00858     78 A6 85 F1 | 	sub	objptr, #120
0085c     D3 EC 61 FC | 	wrlong	local05, objptr
00860                 | ' 
00860                 | ' fontnum:=0  ' PC type font ' TODO: font# in buffer byte #1
00860     78 A6 05 F1 | 	add	objptr, #120
00864     D3 00 68 FC | 	wrlong	#0, objptr
00868     1C A6 05 F1 | 	add	objptr, #28
0086c     D3 DA 01 F6 | 	mov	arg01, objptr
00870     B4 A6 85 F1 | 	sub	objptr, #180
00874     0E 00 00 FF 
00878     98 AC 05 F1 | 	add	ptr__dat__, ##7320
0087c     D6 DC 01 F6 | 	mov	arg02, ptr__dat__
00880     0E 00 00 FF 
00884     98 AC 85 F1 | 	sub	ptr__dat__, ##7320
00888                 | ' bytemove(@colors,@vgacolors,16)
00888     10 DE 05 F6 | 	mov	arg03, #16
0088c     F0 19 B0 FD | 	call	#__system____builtin_memmove
00890                 | ' 
00890                 | ' ' initialize a cursor
00890                 | ' 
00890                 | ' cursor_x:=0
00890     34 A6 05 F1 | 	add	objptr, #52
00894     D3 00 48 FC | 	wrbyte	#0, objptr
00898                 | ' cursor_y:=0
00898     01 A6 05 F1 | 	add	objptr, #1
0089c     D3 00 48 FC | 	wrbyte	#0, objptr
008a0                 | ' cursor_sh:=14
008a0     01 A6 05 F1 | 	add	objptr, #1
008a4     D3 1C 48 FC | 	wrbyte	#14, objptr
008a8     36 A6 85 F1 | 	sub	objptr, #54
008ac                 | ' 
008ac                 | ' 
008ac                 | ' ' start the cog
008ac                 | ' 
008ac                 | ' cog:=coginit(16,@hdmi, @buf_ptr)
008ac     0E 00 00 FF 
008b0     A8 AC 05 F1 | 	add	ptr__dat__, ##7336
008b4     D6 DC 01 F6 | 	mov	arg02, ptr__dat__
008b8     0E 00 00 FF 
008bc     A8 AC 85 F1 | 	sub	ptr__dat__, ##7336
008c0     D3 DE 01 F6 | 	mov	arg03, objptr
008c4     10 DA 05 F6 | 	mov	arg01, #16
008c8     28 DE 61 FD | 	setq	arg03
008cc     EE DA F1 FC | 	coginit	arg01, arg02 wc
008d0     01 DA 65 C6 |  if_b	neg	arg01, #1
008d4     ED B6 01 F6 | 	mov	result1, arg01
008d8     DB EE 01 F6 | 	mov	local06, result1
008dc     28 A6 05 F1 | 	add	objptr, #40
008e0     D3 EE 61 FC | 	wrlong	local06, objptr
008e4     28 A6 85 F1 | 	sub	objptr, #40
008e8                 | ' waitms(20)
008e8     14 DA 05 F6 | 	mov	arg01, #20
008ec     94 1B B0 FD | 	call	#__system___waitms
008f0                 | ' 
008f0                 | ' ' clear the screen and set the colors to green on black
008f0                 | ' 
008f0                 | ' cls(c_green,c_black)
008f0     C7 DA 05 F6 | 	mov	arg01, #199
008f4     00 DC 05 F6 | 	mov	arg02, #0
008f8     D4 13 B0 FD | 	call	#_cls
008fc                 | ' setbordercolor(0,0,128)
008fc     0F DE C5 F9 | 	decod	arg03, #15
00900                 | ' 
00900                 | ' color:=r<<24+g<<16+b<<8
00900                 | ' bordercolor:=color
00900     2C A6 05 F1 | 	add	objptr, #44
00904     40 00 80 FF 
00908     D3 00 68 FC | 	wrlong	##32768, objptr
0090c                 | ' setwritecolors(c_green,c_black)
0090c                 | ' 
0090c                 | ' 
0090c                 | ' write_color:=ff
0090c     0C A6 05 F1 | 	add	objptr, #12
00910     D3 8E 69 FC | 	wrlong	#199, objptr
00914                 | ' write_background:=bb
00914     04 A6 05 F1 | 	add	objptr, #4
00918     D3 00 68 FC | 	wrlong	#0, objptr
0091c                 | ' 
0091c                 | ' return cog
0091c     14 A6 85 F1 | 	sub	objptr, #20
00920     D3 B6 01 FB | 	rdlong	result1, objptr
00924     28 A6 85 F1 | 	sub	objptr, #40
00928                 | ' 
00928                 | ' cls(147,154)
00928     93 DA 05 F6 | 	mov	arg01, #147
0092c     9A DC 05 F6 | 	mov	arg02, #154
00930     9C 13 B0 FD | 	call	#_cls
00934                 | ' setfontfamily(0)
00934                 | ' 
00934                 | ' font_family:=afontnum
00934     C8 A6 05 F1 | 	add	objptr, #200
00938     D3 00 68 FC | 	wrlong	#0, objptr
0093c     C8 A6 85 F1 | 	sub	objptr, #200
00940                 | ' waitvbl(100)
00940     64 DA 05 F6 | 	mov	arg01, #100
00944     14 13 B0 FD | 	call	#_waitvbl
00948                 | ' outtextxycg(0,0,inttostr(long[0]),154,147)
00948     00 F0 05 F6 | 	mov	local07, #0
0094c     00 F2 05 F6 | 	mov	local08, #0
00950     00 DA 05 FB | 	rdlong	arg01, #0
00954     C8 14 B0 FD | 	call	#_inttostr
00958     DB DE 01 F6 | 	mov	arg03, result1
0095c     F8 DA 01 F6 | 	mov	arg01, local07
00960     F9 DC 01 F6 | 	mov	arg02, local08
00964     9A E0 05 F6 | 	mov	arg04, #154
00968     93 E2 05 F6 | 	mov	arg05, #147
0096c     20 0F B0 FD | 	call	#_outtextxycg
00970                 | ' waitvbl(12000)
00970     17 00 00 FF 
00974     E0 DA 05 F6 | 	mov	arg01, ##12000
00978     E0 12 B0 FD | 	call	#_waitvbl
0097c                 | ' repeat i from 0 to 10000
0097c     13 00 00 FF 
00980     11 F5 05 F6 | 	mov	local09, ##10001
00984                 | LR__0001
00984                 | '   ccc:=getrnd()&255
00984     1B F6 61 FD | 	getrnd	local10
00988     FF F6 05 F5 | 	and	local10, #255
0098c                 | '   x1:=getrnd()+//896
0098c     1B B6 61 FD | 	getrnd	result1
00990     DB 1A 02 F6 | 	mov	muldiva_, result1
00994     01 00 00 FF 
00998     80 1D 06 F6 | 	mov	muldivb_, ##896
0099c     C1 00 A0 FD | 	call	#unsdivide_
009a0     0D F9 01 F6 | 	mov	local11, muldiva_
009a4                 | '   x2:=getrnd()+//896
009a4     1B B6 61 FD | 	getrnd	result1
009a8     DB 1A 02 F6 | 	mov	muldiva_, result1
009ac     01 00 00 FF 
009b0     80 1D 06 F6 | 	mov	muldivb_, ##896
009b4     C1 00 A0 FD | 	call	#unsdivide_
009b8     0D FB 01 F6 | 	mov	local12, muldiva_
009bc                 | '   y1:=getrnd()+//496
009bc     1B B6 61 FD | 	getrnd	result1
009c0     DB 1A 02 F6 | 	mov	muldiva_, result1
009c4     F0 1D 06 F6 | 	mov	muldivb_, #496
009c8     C1 00 A0 FD | 	call	#unsdivide_
009cc     0D FD 01 F6 | 	mov	local13, muldiva_
009d0                 | '   y2:=getrnd()+//496
009d0     1B B6 61 FD | 	getrnd	result1
009d4     DB 1A 02 F6 | 	mov	muldiva_, result1
009d8     F0 1D 06 F6 | 	mov	muldivb_, #496
009dc     C1 00 A0 FD | 	call	#unsdivide_
009e0                 | ' 
009e0                 | ' 
009e0                 | '   line(x1,y1,x2,y2,ccc)
009e0     FC DA 01 F6 | 	mov	arg01, local11
009e4     FE DC 01 F6 | 	mov	arg02, local13
009e8     FD DE 01 F6 | 	mov	arg03, local12
009ec     FB E2 01 F6 | 	mov	arg05, local10
009f0     0D E1 01 F6 | 	mov	arg04, muldiva_
009f4     F4 0B B0 FD | 	call	#_line
009f8     E2 F5 6D FB | 	djnz	local09, #LR__0001
009fc                 | ' 
009fc                 | ' repeat i from 0 to 1000
009fc     01 00 00 FF 
00a00     E9 F5 05 F6 | 	mov	local09, ##1001
00a04                 | LR__0002
00a04                 | ' 
00a04                 | '   x1:=getrnd()+//896
00a04     1B B6 61 FD | 	getrnd	result1
00a08     DB 1A 02 F6 | 	mov	muldiva_, result1
00a0c     01 00 00 FF 
00a10     80 1D 06 F6 | 	mov	muldivb_, ##896
00a14     C1 00 A0 FD | 	call	#unsdivide_
00a18     0D F9 01 F6 | 	mov	local11, muldiva_
00a1c                 | '   y1:=getrnd()+//496
00a1c     1B B6 61 FD | 	getrnd	result1
00a20     DB 1A 02 F6 | 	mov	muldiva_, result1
00a24     F0 1D 06 F6 | 	mov	muldivb_, #496
00a28     C1 00 A0 FD | 	call	#unsdivide_
00a2c     0D FD 01 F6 | 	mov	local13, muldiva_
00a30                 | '   r:=getrnd()+//100
00a30     1B B6 61 FD | 	getrnd	result1
00a34     DB 1A 02 F6 | 	mov	muldiva_, result1
00a38     64 1C 06 F6 | 	mov	muldivb_, #100
00a3c     C1 00 A0 FD | 	call	#unsdivide_
00a40                 | '   ccc:=getrnd()&255
00a40     1B B6 61 FD | 	getrnd	result1
00a44     DB E0 01 F6 | 	mov	arg04, result1
00a48     FF E0 05 F5 | 	and	arg04, #255
00a4c                 | '   fcircle(x1,y1,r,ccc)   
00a4c     FC DA 01 F6 | 	mov	arg01, local11
00a50     FE DC 01 F6 | 	mov	arg02, local13
00a54     0D DF 01 F6 | 	mov	arg03, muldiva_
00a58     5C 08 B0 FD | 	call	#_fcircle
00a5c     E9 F5 6D FB | 	djnz	local09, #LR__0002
00a60                 | ' 
00a60                 | ' repeat i from 0 to 10000
00a60     13 00 00 FF 
00a64     11 F5 05 F6 | 	mov	local09, ##10001
00a68                 | LR__0003
00a68                 | '   ccc:=getrnd()&255
00a68     1B F6 61 FD | 	getrnd	local10
00a6c     FF F6 05 F5 | 	and	local10, #255
00a70                 | '   x1:=getrnd()+//896
00a70     1B B6 61 FD | 	getrnd	result1
00a74     DB 1A 02 F6 | 	mov	muldiva_, result1
00a78     01 00 00 FF 
00a7c     80 1D 06 F6 | 	mov	muldivb_, ##896
00a80     C1 00 A0 FD | 	call	#unsdivide_
00a84     0D F9 01 F6 | 	mov	local11, muldiva_
00a88                 | '   x2:=getrnd()+//896
00a88     1B B6 61 FD | 	getrnd	result1
00a8c     DB 1A 02 F6 | 	mov	muldiva_, result1
00a90     01 00 00 FF 
00a94     80 1D 06 F6 | 	mov	muldivb_, ##896
00a98     C1 00 A0 FD | 	call	#unsdivide_
00a9c     0D FB 01 F6 | 	mov	local12, muldiva_
00aa0                 | '   y1:=getrnd()+//496
00aa0     1B B6 61 FD | 	getrnd	result1
00aa4     DB 1A 02 F6 | 	mov	muldiva_, result1
00aa8     F0 1D 06 F6 | 	mov	muldivb_, #496
00aac     C1 00 A0 FD | 	call	#unsdivide_
00ab0     0D FD 01 F6 | 	mov	local13, muldiva_
00ab4                 | '   y2:=getrnd()+//496
00ab4     1B B6 61 FD | 	getrnd	result1
00ab8     DB 1A 02 F6 | 	mov	muldiva_, result1
00abc     F0 1D 06 F6 | 	mov	muldivb_, #496
00ac0     C1 00 A0 FD | 	call	#unsdivide_
00ac4                 | ' 
00ac4                 | ' 
00ac4                 | '   frame(x1,y1,x2,y2,ccc)
00ac4     FC FE 01 F6 | 	mov	local14, local11
00ac8     FE 00 02 F6 | 	mov	local15, local13
00acc     FD 02 02 F6 | 	mov	local16, local12
00ad0     0D 05 02 F6 | 	mov	local17, muldiva_
00ad4     FB 06 02 F6 | 	mov	local18, local10
00ad8                 | ' 
00ad8                 | ' line(x1,y1,x2,y1,c)
00ad8     FF DA 01 F6 | 	mov	arg01, local14
00adc     00 DD 01 F6 | 	mov	arg02, local15
00ae0     01 DF 01 F6 | 	mov	arg03, local16
00ae4     00 E1 01 F6 | 	mov	arg04, local15
00ae8     03 E3 01 F6 | 	mov	arg05, local18
00aec     FC 0A B0 FD | 	call	#_line
00af0                 | ' line(x1,y2,x2,y2,c)
00af0     FF DA 01 F6 | 	mov	arg01, local14
00af4     02 DD 01 F6 | 	mov	arg02, local17
00af8     01 DF 01 F6 | 	mov	arg03, local16
00afc     02 E1 01 F6 | 	mov	arg04, local17
00b00     03 E3 01 F6 | 	mov	arg05, local18
00b04     E4 0A B0 FD | 	call	#_line
00b08                 | ' line(x1,y1,x1,y2,c)
00b08     FF DA 01 F6 | 	mov	arg01, local14
00b0c     00 DD 01 F6 | 	mov	arg02, local15
00b10     FF DE 01 F6 | 	mov	arg03, local14
00b14     02 E1 01 F6 | 	mov	arg04, local17
00b18     03 E3 01 F6 | 	mov	arg05, local18
00b1c     CC 0A B0 FD | 	call	#_line
00b20                 | ' line(x2,y1,x2,y2,c)
00b20     01 DB 01 F6 | 	mov	arg01, local16
00b24     00 DD 01 F6 | 	mov	arg02, local15
00b28     01 DF 01 F6 | 	mov	arg03, local16
00b2c     02 E1 01 F6 | 	mov	arg04, local17
00b30     03 E3 01 F6 | 	mov	arg05, local18
00b34     B4 0A B0 FD | 	call	#_line
00b38     CB F5 6D FB | 	djnz	local09, #LR__0003
00b3c                 | '   
00b3c                 | ' repeat i from 0 to 10000
00b3c     13 00 00 FF 
00b40     11 F5 05 F6 | 	mov	local09, ##10001
00b44                 | LR__0004
00b44                 | ' 
00b44                 | '   x1:=getrnd()+//896
00b44     1B B6 61 FD | 	getrnd	result1
00b48     DB 1A 02 F6 | 	mov	muldiva_, result1
00b4c     01 00 00 FF 
00b50     80 1D 06 F6 | 	mov	muldivb_, ##896
00b54     C1 00 A0 FD | 	call	#unsdivide_
00b58     0D F9 01 F6 | 	mov	local11, muldiva_
00b5c                 | '   y1:=getrnd()+//496
00b5c     1B B6 61 FD | 	getrnd	result1
00b60     DB 1A 02 F6 | 	mov	muldiva_, result1
00b64     F0 1D 06 F6 | 	mov	muldivb_, #496
00b68     C1 00 A0 FD | 	call	#unsdivide_
00b6c     0D FD 01 F6 | 	mov	local13, muldiva_
00b70                 | '   r:=getrnd()+//100
00b70     1B B6 61 FD | 	getrnd	result1
00b74     DB 1A 02 F6 | 	mov	muldiva_, result1
00b78     64 1C 06 F6 | 	mov	muldivb_, #100
00b7c     C1 00 A0 FD | 	call	#unsdivide_
00b80                 | '   ccc:=getrnd()&255
00b80     1B B6 61 FD | 	getrnd	result1
00b84     DB E0 01 F6 | 	mov	arg04, result1
00b88     FF E0 05 F5 | 	and	arg04, #255
00b8c                 | '   circle(x1,y1,r,ccc) 
00b8c     FC DA 01 F6 | 	mov	arg01, local11
00b90     FE DC 01 F6 | 	mov	arg02, local13
00b94     0D DF 01 F6 | 	mov	arg03, muldiva_
00b98     38 08 B0 FD | 	call	#_circle
00b9c     E9 F5 6D FB | 	djnz	local09, #LR__0004
00ba0                 | '   
00ba0                 | ' repeat i from 0 to 1000
00ba0     01 00 00 FF 
00ba4     E9 F5 05 F6 | 	mov	local09, ##1001
00ba8                 | LR__0005
00ba8                 | '   ccc:=getrnd()&255
00ba8     1B F6 61 FD | 	getrnd	local10
00bac     FF F6 05 F5 | 	and	local10, #255
00bb0                 | '   x1:=getrnd()+//896
00bb0     1B B6 61 FD | 	getrnd	result1
00bb4     DB 1A 02 F6 | 	mov	muldiva_, result1
00bb8     01 00 00 FF 
00bbc     80 1D 06 F6 | 	mov	muldivb_, ##896
00bc0     C1 00 A0 FD | 	call	#unsdivide_
00bc4     0D F9 01 F6 | 	mov	local11, muldiva_
00bc8                 | '   x2:=getrnd()+//100
00bc8     1B B6 61 FD | 	getrnd	result1
00bcc     DB 1A 02 F6 | 	mov	muldiva_, result1
00bd0     64 1C 06 F6 | 	mov	muldivb_, #100
00bd4     C1 00 A0 FD | 	call	#unsdivide_
00bd8     0D FB 01 F6 | 	mov	local12, muldiva_
00bdc                 | '   y1:=getrnd()+//496
00bdc     1B B6 61 FD | 	getrnd	result1
00be0     DB 1A 02 F6 | 	mov	muldiva_, result1
00be4     F0 1D 06 F6 | 	mov	muldivb_, #496
00be8     C1 00 A0 FD | 	call	#unsdivide_
00bec     0D FD 01 F6 | 	mov	local13, muldiva_
00bf0                 | '   y2:=getrnd()+//100
00bf0     1B B6 61 FD | 	getrnd	result1
00bf4     DB 1A 02 F6 | 	mov	muldiva_, result1
00bf8     64 1C 06 F6 | 	mov	muldivb_, #100
00bfc     C1 00 A0 FD | 	call	#unsdivide_
00c00     FC 08 02 F6 | 	mov	local19, local11
00c04     FD 08 02 F1 | 	add	local19, local12
00c08     FE 0A 02 F6 | 	mov	local20, local13
00c0c     0D 0B 02 F1 | 	add	local20, muldiva_
00c10                 | ' 
00c10                 | ' 
00c10                 | '   box(x1,y1,x1+x2,y1+y2,ccc)  
00c10     FC 0C 02 F6 | 	mov	local21, local11
00c14     FE 0E 02 F6 | 	mov	local22, local13
00c18     FB 10 02 F6 | 	mov	local23, local10
00c1c                 | ' 
00c1c                 | ' repeat yy from y1 to y2
00c1c     07 0B 5A F2 | 	cmps	local20, local22 wcz
00c20     01 12 06 16 |  if_a	mov	local24, #1
00c24     01 12 66 E6 |  if_be	neg	local24, #1
00c28     09 0B 02 F1 | 	add	local20, local24
00c2c                 | LR__0006
00c2c                 | '   line(x1,yy,x2,yy,c)
00c2c     06 DB 01 F6 | 	mov	arg01, local21
00c30     04 DF 01 F6 | 	mov	arg03, local19
00c34     08 E3 01 F6 | 	mov	arg05, local23
00c38     07 DD 01 F6 | 	mov	arg02, local22
00c3c     07 E1 01 F6 | 	mov	arg04, local22
00c40     A8 09 B0 FD | 	call	#_line
00c44     09 0F 02 F1 | 	add	local22, local24
00c48     05 0F 0A F2 | 	cmp	local22, local20 wz
00c4c     DC FF 9F 5D |  if_ne	jmp	#LR__0006
00c50     D5 F5 6D FB | 	djnz	local09, #LR__0005
00c54                 | '       
00c54                 | '   
00c54                 | ' {
00c54                 | ' }
00c54                 | ' setfontfamily(4)
00c54                 | ' 
00c54                 | ' font_family:=afontnum
00c54     C8 A6 05 F1 | 	add	objptr, #200
00c58     D3 08 68 FC | 	wrlong	#4, objptr
00c5c     C8 A6 85 F1 | 	sub	objptr, #200
00c60                 | ' repeat amode from 512 to 1023
00c60     09 14 C6 F9 | 	decod	local25, #9
00c64                 | LR__0007
00c64                 | '   setmode(amode)
00c64     0A DB 01 F6 | 	mov	arg01, local25
00c68     C4 12 B0 FD | 	call	#_setmode
00c6c     0A F7 01 F6 | 	mov	local10, local25
00c70     04 F6 45 F0 | 	shr	local10, #4
00c74     03 F6 0D F5 | 	and	local10, #3 wz
00c78                 | '   ccc:=((amode>>4)&3)
00c78                 | '   if (ccc==0)
00c78     80 01 90 5D |  if_ne	jmp	#LR__0008
00c7c                 | '     cls(0,1)
00c7c     00 DA 05 F6 | 	mov	arg01, #0
00c80     01 DC 05 F6 | 	mov	arg02, #1
00c84     48 10 B0 FD | 	call	#_cls
00c88                 | '     outtextxycg(0,0,string("mode"),0,1)
00c88     17 00 00 FF 
00c8c     3E DE 05 F6 | 	mov	arg03, ##@LR__0172
00c90     00 DA 05 F6 | 	mov	arg01, #0
00c94     00 DC 05 F6 | 	mov	arg02, #0
00c98     00 E0 05 F6 | 	mov	arg04, #0
00c9c     01 E2 05 F6 | 	mov	arg05, #1
00ca0     EC 0B B0 FD | 	call	#_outtextxycg
00ca4                 | '     outtextxycg(0,16,string("cpl"),0,1)
00ca4     17 00 00 FF 
00ca8     43 DE 05 F6 | 	mov	arg03, ##@LR__0173
00cac     00 DA 05 F6 | 	mov	arg01, #0
00cb0     10 DC 05 F6 | 	mov	arg02, #16
00cb4     00 E0 05 F6 | 	mov	arg04, #0
00cb8     01 E2 05 F6 | 	mov	arg05, #1
00cbc     D0 0B B0 FD | 	call	#_outtextxycg
00cc0                 | '     outtextxycg(0,32,string("bufptr"),0,1)
00cc0     17 00 00 FF 
00cc4     47 DE 05 F6 | 	mov	arg03, ##@LR__0174
00cc8     00 DA 05 F6 | 	mov	arg01, #0
00ccc     20 DC 05 F6 | 	mov	arg02, #32
00cd0     00 E0 05 F6 | 	mov	arg04, #0
00cd4     01 E2 05 F6 | 	mov	arg05, #1
00cd8     B4 0B B0 FD | 	call	#_outtextxycg
00cdc                 | '     outtextxycg(0,48,string("buflen"),0,1)
00cdc     17 00 00 FF 
00ce0     4E DE 05 F6 | 	mov	arg03, ##@LR__0175
00ce4     00 DA 05 F6 | 	mov	arg01, #0
00ce8     30 DC 05 F6 | 	mov	arg02, #48
00cec     00 E0 05 F6 | 	mov	arg04, #0
00cf0     01 E2 05 F6 | 	mov	arg05, #1
00cf4     98 0B B0 FD | 	call	#_outtextxycg
00cf8                 | '     outtextxycg(0,64,string("lines"),0,1)
00cf8     17 00 00 FF 
00cfc     55 DE 05 F6 | 	mov	arg03, ##@LR__0176
00d00     00 DA 05 F6 | 	mov	arg01, #0
00d04     40 DC 05 F6 | 	mov	arg02, #64
00d08     00 E0 05 F6 | 	mov	arg04, #0
00d0c     01 E2 05 F6 | 	mov	arg05, #1
00d10     7C 0B B0 FD | 	call	#_outtextxycg
00d14                 | '     outtextxycg(64,0,inttostr(amode),0,1)
00d14     40 F0 05 F6 | 	mov	local07, #64
00d18     00 F2 05 F6 | 	mov	local08, #0
00d1c     0A DB 01 F6 | 	mov	arg01, local25
00d20     FC 10 B0 FD | 	call	#_inttostr
00d24     DB DE 01 F6 | 	mov	arg03, result1
00d28     F8 DA 01 F6 | 	mov	arg01, local07
00d2c     F9 DC 01 F6 | 	mov	arg02, local08
00d30     00 E0 05 F6 | 	mov	arg04, #0
00d34     01 E2 05 F6 | 	mov	arg05, #1
00d38     54 0B B0 FD | 	call	#_outtextxycg
00d3c                 | '     outtextxycg(64,16,inttostr(cpl),0,1)
00d3c     40 F0 05 F6 | 	mov	local07, #64
00d40     10 F2 05 F6 | 	mov	local08, #16
00d44     90 A6 05 F1 | 	add	objptr, #144
00d48     D3 DA 01 FB | 	rdlong	arg01, objptr
00d4c     90 A6 85 F1 | 	sub	objptr, #144
00d50     CC 10 B0 FD | 	call	#_inttostr
00d54     DB DE 01 F6 | 	mov	arg03, result1
00d58     F8 DA 01 F6 | 	mov	arg01, local07
00d5c     F9 DC 01 F6 | 	mov	arg02, local08
00d60     00 E0 05 F6 | 	mov	arg04, #0
00d64     01 E2 05 F6 | 	mov	arg05, #1
00d68     24 0B B0 FD | 	call	#_outtextxycg
00d6c                 | '     outtextxycg(64,32,inttostr(buf_ptr),0,1)
00d6c     40 F0 05 F6 | 	mov	local07, #64
00d70     20 F2 05 F6 | 	mov	local08, #32
00d74     D3 DA 01 FB | 	rdlong	arg01, objptr
00d78     A4 10 B0 FD | 	call	#_inttostr
00d7c     DB DE 01 F6 | 	mov	arg03, result1
00d80     F8 DA 01 F6 | 	mov	arg01, local07
00d84     F9 DC 01 F6 | 	mov	arg02, local08
00d88     00 E0 05 F6 | 	mov	arg04, #0
00d8c     01 E2 05 F6 | 	mov	arg05, #1
00d90     FC 0A B0 FD | 	call	#_outtextxycg
00d94     30 A6 05 F1 | 	add	objptr, #48
00d98     D3 DA 01 FB | 	rdlong	arg01, objptr
00d9c     30 A6 85 F1 | 	sub	objptr, #48
00da0     02 DA 65 F0 | 	shl	arg01, #2
00da4                 | '     outtextxycg(64,48,inttostr(buflen*4),0,1)
00da4     40 F0 05 F6 | 	mov	local07, #64
00da8     30 F2 05 F6 | 	mov	local08, #48
00dac     70 10 B0 FD | 	call	#_inttostr
00db0     DB DE 01 F6 | 	mov	arg03, result1
00db4     F8 DA 01 F6 | 	mov	arg01, local07
00db8     F9 DC 01 F6 | 	mov	arg02, local08
00dbc     00 E0 05 F6 | 	mov	arg04, #0
00dc0     01 E2 05 F6 | 	mov	arg05, #1
00dc4     C8 0A B0 FD | 	call	#_outtextxycg
00dc8                 | '     outtextxycg(64,64,inttostr(lines),0,1)
00dc8     40 F0 05 F6 | 	mov	local07, #64
00dcc     40 F2 05 F6 | 	mov	local08, #64
00dd0     94 A6 05 F1 | 	add	objptr, #148
00dd4     D3 DA 01 FB | 	rdlong	arg01, objptr
00dd8     94 A6 85 F1 | 	sub	objptr, #148
00ddc     40 10 B0 FD | 	call	#_inttostr
00de0     DB DE 01 F6 | 	mov	arg03, result1
00de4     F8 DA 01 F6 | 	mov	arg01, local07
00de8     F9 DC 01 F6 | 	mov	arg02, local08
00dec     00 E0 05 F6 | 	mov	arg04, #0
00df0     01 E2 05 F6 | 	mov	arg05, #1
00df4     98 0A B0 FD | 	call	#_outtextxycg
00df8     94 04 90 FD | 	jmp	#LR__0014
00dfc                 | LR__0008
00dfc                 | '   elseif (ccc==1)
00dfc     01 F6 0D F2 | 	cmp	local10, #1 wz
00e00     80 01 90 5D |  if_ne	jmp	#LR__0009
00e04                 | '     cls(0,0)
00e04     00 DA 05 F6 | 	mov	arg01, #0
00e08     00 DC 05 F6 | 	mov	arg02, #0
00e0c     C0 0E B0 FD | 	call	#_cls
00e10                 | '     outtextxycg(0,0,string("mode"),3,0)
00e10     17 00 00 FF 
00e14     5B DE 05 F6 | 	mov	arg03, ##@LR__0177
00e18     00 DA 05 F6 | 	mov	arg01, #0
00e1c     00 DC 05 F6 | 	mov	arg02, #0
00e20     03 E0 05 F6 | 	mov	arg04, #3
00e24     00 E2 05 F6 | 	mov	arg05, #0
00e28     64 0A B0 FD | 	call	#_outtextxycg
00e2c                 | '     outtextxycg(0,16,string("cpl"),3,0)'
00e2c     17 00 00 FF 
00e30     60 DE 05 F6 | 	mov	arg03, ##@LR__0178
00e34     00 DA 05 F6 | 	mov	arg01, #0
00e38     10 DC 05 F6 | 	mov	arg02, #16
00e3c     03 E0 05 F6 | 	mov	arg04, #3
00e40     00 E2 05 F6 | 	mov	arg05, #0
00e44     48 0A B0 FD | 	call	#_outtextxycg
00e48                 | '     outtextxycg(0,32,string("buf_ptr"),3,0)
00e48     17 00 00 FF 
00e4c     64 DE 05 F6 | 	mov	arg03, ##@LR__0179
00e50     00 DA 05 F6 | 	mov	arg01, #0
00e54     20 DC 05 F6 | 	mov	arg02, #32
00e58     03 E0 05 F6 | 	mov	arg04, #3
00e5c     00 E2 05 F6 | 	mov	arg05, #0
00e60     2C 0A B0 FD | 	call	#_outtextxycg
00e64                 | '     outtextxycg(0,48,string("buflen"),3,0)
00e64     17 00 00 FF 
00e68     6C DE 05 F6 | 	mov	arg03, ##@LR__0180
00e6c     00 DA 05 F6 | 	mov	arg01, #0
00e70     30 DC 05 F6 | 	mov	arg02, #48
00e74     03 E0 05 F6 | 	mov	arg04, #3
00e78     00 E2 05 F6 | 	mov	arg05, #0
00e7c     10 0A B0 FD | 	call	#_outtextxycg
00e80                 | '     outtextxycg(0,64,string("lines"),3,0)
00e80     17 00 00 FF 
00e84     73 DE 05 F6 | 	mov	arg03, ##@LR__0181
00e88     00 DA 05 F6 | 	mov	arg01, #0
00e8c     40 DC 05 F6 | 	mov	arg02, #64
00e90     03 E0 05 F6 | 	mov	arg04, #3
00e94     00 E2 05 F6 | 	mov	arg05, #0
00e98     F4 09 B0 FD | 	call	#_outtextxycg
00e9c                 | '     outtextxycg(64,0,inttostr(amode),2,0)
00e9c     40 F0 05 F6 | 	mov	local07, #64
00ea0     00 F2 05 F6 | 	mov	local08, #0
00ea4     0A DB 01 F6 | 	mov	arg01, local25
00ea8     74 0F B0 FD | 	call	#_inttostr
00eac     DB DE 01 F6 | 	mov	arg03, result1
00eb0     F8 DA 01 F6 | 	mov	arg01, local07
00eb4     F9 DC 01 F6 | 	mov	arg02, local08
00eb8     02 E0 05 F6 | 	mov	arg04, #2
00ebc     00 E2 05 F6 | 	mov	arg05, #0
00ec0     CC 09 B0 FD | 	call	#_outtextxycg
00ec4                 | '     outtextxycg(64,16,inttostr(cpl),2,0)
00ec4     40 F0 05 F6 | 	mov	local07, #64
00ec8     10 F2 05 F6 | 	mov	local08, #16
00ecc     90 A6 05 F1 | 	add	objptr, #144
00ed0     D3 DA 01 FB | 	rdlong	arg01, objptr
00ed4     90 A6 85 F1 | 	sub	objptr, #144
00ed8     44 0F B0 FD | 	call	#_inttostr
00edc     DB DE 01 F6 | 	mov	arg03, result1
00ee0     F8 DA 01 F6 | 	mov	arg01, local07
00ee4     F9 DC 01 F6 | 	mov	arg02, local08
00ee8     02 E0 05 F6 | 	mov	arg04, #2
00eec     00 E2 05 F6 | 	mov	arg05, #0
00ef0     9C 09 B0 FD | 	call	#_outtextxycg
00ef4                 | '     outtextxycg(64,32,inttostr(buf_ptr),2,0)
00ef4     40 F0 05 F6 | 	mov	local07, #64
00ef8     20 F2 05 F6 | 	mov	local08, #32
00efc     D3 DA 01 FB | 	rdlong	arg01, objptr
00f00     1C 0F B0 FD | 	call	#_inttostr
00f04     DB DE 01 F6 | 	mov	arg03, result1
00f08     F8 DA 01 F6 | 	mov	arg01, local07
00f0c     F9 DC 01 F6 | 	mov	arg02, local08
00f10     02 E0 05 F6 | 	mov	arg04, #2
00f14     00 E2 05 F6 | 	mov	arg05, #0
00f18     74 09 B0 FD | 	call	#_outtextxycg
00f1c     30 A6 05 F1 | 	add	objptr, #48
00f20     D3 DA 01 FB | 	rdlong	arg01, objptr
00f24     30 A6 85 F1 | 	sub	objptr, #48
00f28     02 DA 65 F0 | 	shl	arg01, #2
00f2c                 | '     outtextxycg(64,48,inttostr(buflen*4),2,0)
00f2c     40 F0 05 F6 | 	mov	local07, #64
00f30     30 F2 05 F6 | 	mov	local08, #48
00f34     E8 0E B0 FD | 	call	#_inttostr
00f38     DB DE 01 F6 | 	mov	arg03, result1
00f3c     F8 DA 01 F6 | 	mov	arg01, local07
00f40     F9 DC 01 F6 | 	mov	arg02, local08
00f44     02 E0 05 F6 | 	mov	arg04, #2
00f48     00 E2 05 F6 | 	mov	arg05, #0
00f4c     40 09 B0 FD | 	call	#_outtextxycg
00f50                 | '     outtextxycg(64,64,inttostr(lines),2,0)
00f50     40 F0 05 F6 | 	mov	local07, #64
00f54     40 F2 05 F6 | 	mov	local08, #64
00f58     94 A6 05 F1 | 	add	objptr, #148
00f5c     D3 DA 01 FB | 	rdlong	arg01, objptr
00f60     94 A6 85 F1 | 	sub	objptr, #148
00f64     B8 0E B0 FD | 	call	#_inttostr
00f68     DB DE 01 F6 | 	mov	arg03, result1
00f6c     F8 DA 01 F6 | 	mov	arg01, local07
00f70     F9 DC 01 F6 | 	mov	arg02, local08
00f74     02 E0 05 F6 | 	mov	arg04, #2
00f78     00 E2 05 F6 | 	mov	arg05, #0
00f7c     10 09 B0 FD | 	call	#_outtextxycg
00f80     0C 03 90 FD | 	jmp	#LR__0013
00f84                 | LR__0009
00f84                 | '   elseif (ccc==2)
00f84     02 F6 0D F2 | 	cmp	local10, #2 wz
00f88     80 01 90 5D |  if_ne	jmp	#LR__0010
00f8c                 | '     cls(0,0)
00f8c     00 DA 05 F6 | 	mov	arg01, #0
00f90     00 DC 05 F6 | 	mov	arg02, #0
00f94     38 0D B0 FD | 	call	#_cls
00f98                 | '     outtextxycg(0,0,string("mode"),9,0)
00f98     17 00 00 FF 
00f9c     79 DE 05 F6 | 	mov	arg03, ##@LR__0182
00fa0     00 DA 05 F6 | 	mov	arg01, #0
00fa4     00 DC 05 F6 | 	mov	arg02, #0
00fa8     09 E0 05 F6 | 	mov	arg04, #9
00fac     00 E2 05 F6 | 	mov	arg05, #0
00fb0     DC 08 B0 FD | 	call	#_outtextxycg
00fb4                 | '     outtextxycg(0,16,string("cpl"),9,0)'
00fb4     17 00 00 FF 
00fb8     7E DE 05 F6 | 	mov	arg03, ##@LR__0183
00fbc     00 DA 05 F6 | 	mov	arg01, #0
00fc0     10 DC 05 F6 | 	mov	arg02, #16
00fc4     09 E0 05 F6 | 	mov	arg04, #9
00fc8     00 E2 05 F6 | 	mov	arg05, #0
00fcc     C0 08 B0 FD | 	call	#_outtextxycg
00fd0                 | '     outtextxycg(0,32,string("buf_ptr"),9,0)
00fd0     17 00 00 FF 
00fd4     82 DE 05 F6 | 	mov	arg03, ##@LR__0184
00fd8     00 DA 05 F6 | 	mov	arg01, #0
00fdc     20 DC 05 F6 | 	mov	arg02, #32
00fe0     09 E0 05 F6 | 	mov	arg04, #9
00fe4     00 E2 05 F6 | 	mov	arg05, #0
00fe8     A4 08 B0 FD | 	call	#_outtextxycg
00fec                 | '     outtextxycg(0,48,string("buflen"),9,0)
00fec     17 00 00 FF 
00ff0     8A DE 05 F6 | 	mov	arg03, ##@LR__0185
00ff4     00 DA 05 F6 | 	mov	arg01, #0
00ff8     30 DC 05 F6 | 	mov	arg02, #48
00ffc     09 E0 05 F6 | 	mov	arg04, #9
01000     00 E2 05 F6 | 	mov	arg05, #0
01004     88 08 B0 FD | 	call	#_outtextxycg
01008                 | '     outtextxycg(0,64,string("lines"),9,0)
01008     17 00 00 FF 
0100c     91 DE 05 F6 | 	mov	arg03, ##@LR__0186
01010     00 DA 05 F6 | 	mov	arg01, #0
01014     40 DC 05 F6 | 	mov	arg02, #64
01018     09 E0 05 F6 | 	mov	arg04, #9
0101c     00 E2 05 F6 | 	mov	arg05, #0
01020     6C 08 B0 FD | 	call	#_outtextxycg
01024                 | '     outtextxycg(64,0,inttostr(amode),4,0)
01024     40 F0 05 F6 | 	mov	local07, #64
01028     00 F2 05 F6 | 	mov	local08, #0
0102c     0A DB 01 F6 | 	mov	arg01, local25
01030     EC 0D B0 FD | 	call	#_inttostr
01034     DB DE 01 F6 | 	mov	arg03, result1
01038     F8 DA 01 F6 | 	mov	arg01, local07
0103c     F9 DC 01 F6 | 	mov	arg02, local08
01040     04 E0 05 F6 | 	mov	arg04, #4
01044     00 E2 05 F6 | 	mov	arg05, #0
01048     44 08 B0 FD | 	call	#_outtextxycg
0104c                 | '     outtextxycg(64,16,inttostr(cpl),4,0)
0104c     40 F0 05 F6 | 	mov	local07, #64
01050     10 F2 05 F6 | 	mov	local08, #16
01054     90 A6 05 F1 | 	add	objptr, #144
01058     D3 DA 01 FB | 	rdlong	arg01, objptr
0105c     90 A6 85 F1 | 	sub	objptr, #144
01060     BC 0D B0 FD | 	call	#_inttostr
01064     DB DE 01 F6 | 	mov	arg03, result1
01068     F8 DA 01 F6 | 	mov	arg01, local07
0106c     F9 DC 01 F6 | 	mov	arg02, local08
01070     04 E0 05 F6 | 	mov	arg04, #4
01074     00 E2 05 F6 | 	mov	arg05, #0
01078     14 08 B0 FD | 	call	#_outtextxycg
0107c                 | '     outtextxycg(64,32,inttostr(buf_ptr),4,0)
0107c     40 F0 05 F6 | 	mov	local07, #64
01080     20 F2 05 F6 | 	mov	local08, #32
01084     D3 DA 01 FB | 	rdlong	arg01, objptr
01088     94 0D B0 FD | 	call	#_inttostr
0108c     DB DE 01 F6 | 	mov	arg03, result1
01090     F8 DA 01 F6 | 	mov	arg01, local07
01094     F9 DC 01 F6 | 	mov	arg02, local08
01098     04 E0 05 F6 | 	mov	arg04, #4
0109c     00 E2 05 F6 | 	mov	arg05, #0
010a0     EC 07 B0 FD | 	call	#_outtextxycg
010a4     30 A6 05 F1 | 	add	objptr, #48
010a8     D3 DA 01 FB | 	rdlong	arg01, objptr
010ac     30 A6 85 F1 | 	sub	objptr, #48
010b0     02 DA 65 F0 | 	shl	arg01, #2
010b4                 | '     outtextxycg(64,48,inttostr(buflen*4),4,0)
010b4     40 F0 05 F6 | 	mov	local07, #64
010b8     30 F2 05 F6 | 	mov	local08, #48
010bc     60 0D B0 FD | 	call	#_inttostr
010c0     DB DE 01 F6 | 	mov	arg03, result1
010c4     F8 DA 01 F6 | 	mov	arg01, local07
010c8     F9 DC 01 F6 | 	mov	arg02, local08
010cc     04 E0 05 F6 | 	mov	arg04, #4
010d0     00 E2 05 F6 | 	mov	arg05, #0
010d4     B8 07 B0 FD | 	call	#_outtextxycg
010d8                 | '     outtextxycg(64,64,inttostr(lines),4,0)
010d8     40 F0 05 F6 | 	mov	local07, #64
010dc     40 F2 05 F6 | 	mov	local08, #64
010e0     94 A6 05 F1 | 	add	objptr, #148
010e4     D3 DA 01 FB | 	rdlong	arg01, objptr
010e8     94 A6 85 F1 | 	sub	objptr, #148
010ec     30 0D B0 FD | 	call	#_inttostr
010f0     DB DE 01 F6 | 	mov	arg03, result1
010f4     F8 DA 01 F6 | 	mov	arg01, local07
010f8     F9 DC 01 F6 | 	mov	arg02, local08
010fc     04 E0 05 F6 | 	mov	arg04, #4
01100     00 E2 05 F6 | 	mov	arg05, #0
01104     88 07 B0 FD | 	call	#_outtextxycg
01108     84 01 90 FD | 	jmp	#LR__0012
0110c                 | LR__0010
0110c                 | '   elseif (ccc==3)
0110c     03 F6 0D F2 | 	cmp	local10, #3 wz
01110     7C 01 90 5D |  if_ne	jmp	#LR__0011
01114                 | '     cls(0,0)
01114     00 DA 05 F6 | 	mov	arg01, #0
01118     00 DC 05 F6 | 	mov	arg02, #0
0111c     B0 0B B0 FD | 	call	#_cls
01120                 | '     outtextxycg(0,0,string("mode"),120,0)
01120     17 00 00 FF 
01124     97 DE 05 F6 | 	mov	arg03, ##@LR__0187
01128     00 DA 05 F6 | 	mov	arg01, #0
0112c     00 DC 05 F6 | 	mov	arg02, #0
01130     78 E0 05 F6 | 	mov	arg04, #120
01134     00 E2 05 F6 | 	mov	arg05, #0
01138     54 07 B0 FD | 	call	#_outtextxycg
0113c                 | '     outtextxycg(0,16,string("cpl"),120,0)'
0113c     17 00 00 FF 
01140     9C DE 05 F6 | 	mov	arg03, ##@LR__0188
01144     00 DA 05 F6 | 	mov	arg01, #0
01148     10 DC 05 F6 | 	mov	arg02, #16
0114c     78 E0 05 F6 | 	mov	arg04, #120
01150     00 E2 05 F6 | 	mov	arg05, #0
01154     38 07 B0 FD | 	call	#_outtextxycg
01158                 | '     outtextxycg(0,32,string("buf_ptr"),120,0)
01158     17 00 00 FF 
0115c     A0 DE 05 F6 | 	mov	arg03, ##@LR__0189
01160     00 DA 05 F6 | 	mov	arg01, #0
01164     20 DC 05 F6 | 	mov	arg02, #32
01168     78 E0 05 F6 | 	mov	arg04, #120
0116c     00 E2 05 F6 | 	mov	arg05, #0
01170     1C 07 B0 FD | 	call	#_outtextxycg
01174                 | '     outtextxycg(0,48,string("buflen"),120,0)
01174     17 00 00 FF 
01178     A8 DE 05 F6 | 	mov	arg03, ##@LR__0190
0117c     00 DA 05 F6 | 	mov	arg01, #0
01180     30 DC 05 F6 | 	mov	arg02, #48
01184     78 E0 05 F6 | 	mov	arg04, #120
01188     00 E2 05 F6 | 	mov	arg05, #0
0118c     00 07 B0 FD | 	call	#_outtextxycg
01190                 | '     outtextxycg(0,64,string("lines"),120,0)
01190     17 00 00 FF 
01194     AF DE 05 F6 | 	mov	arg03, ##@LR__0191
01198     00 DA 05 F6 | 	mov	arg01, #0
0119c     40 DC 05 F6 | 	mov	arg02, #64
011a0     78 E0 05 F6 | 	mov	arg04, #120
011a4     00 E2 05 F6 | 	mov	arg05, #0
011a8     E4 06 B0 FD | 	call	#_outtextxycg
011ac                 | '     outtextxycg(64,0,inttostr(amode),40,0)
011ac     40 F0 05 F6 | 	mov	local07, #64
011b0     00 F2 05 F6 | 	mov	local08, #0
011b4     0A DB 01 F6 | 	mov	arg01, local25
011b8     64 0C B0 FD | 	call	#_inttostr
011bc     DB DE 01 F6 | 	mov	arg03, result1
011c0     F8 DA 01 F6 | 	mov	arg01, local07
011c4     F9 DC 01 F6 | 	mov	arg02, local08
011c8     28 E0 05 F6 | 	mov	arg04, #40
011cc     00 E2 05 F6 | 	mov	arg05, #0
011d0     BC 06 B0 FD | 	call	#_outtextxycg
011d4                 | '     outtextxycg(64,16,inttostr(cpl),40,0)
011d4     40 F0 05 F6 | 	mov	local07, #64
011d8     10 F2 05 F6 | 	mov	local08, #16
011dc     90 A6 05 F1 | 	add	objptr, #144
011e0     D3 DA 01 FB | 	rdlong	arg01, objptr
011e4     90 A6 85 F1 | 	sub	objptr, #144
011e8     34 0C B0 FD | 	call	#_inttostr
011ec     DB DE 01 F6 | 	mov	arg03, result1
011f0     F8 DA 01 F6 | 	mov	arg01, local07
011f4     F9 DC 01 F6 | 	mov	arg02, local08
011f8     28 E0 05 F6 | 	mov	arg04, #40
011fc     00 E2 05 F6 | 	mov	arg05, #0
01200     8C 06 B0 FD | 	call	#_outtextxycg
01204                 | '     outtextxycg(64,32,inttostr(buf_ptr),40,0)
01204     40 F0 05 F6 | 	mov	local07, #64
01208     20 F2 05 F6 | 	mov	local08, #32
0120c     D3 DA 01 FB | 	rdlong	arg01, objptr
01210     0C 0C B0 FD | 	call	#_inttostr
01214     DB DE 01 F6 | 	mov	arg03, result1
01218     F8 DA 01 F6 | 	mov	arg01, local07
0121c     F9 DC 01 F6 | 	mov	arg02, local08
01220     28 E0 05 F6 | 	mov	arg04, #40
01224     00 E2 05 F6 | 	mov	arg05, #0
01228     64 06 B0 FD | 	call	#_outtextxycg
0122c     30 A6 05 F1 | 	add	objptr, #48
01230     D3 DA 01 FB | 	rdlong	arg01, objptr
01234     30 A6 85 F1 | 	sub	objptr, #48
01238     02 DA 65 F0 | 	shl	arg01, #2
0123c                 | '     outtextxycg(64,48,inttostr(buflen*4),40,0)
0123c     40 F0 05 F6 | 	mov	local07, #64
01240     30 F2 05 F6 | 	mov	local08, #48
01244     D8 0B B0 FD | 	call	#_inttostr
01248     DB DE 01 F6 | 	mov	arg03, result1
0124c     F8 DA 01 F6 | 	mov	arg01, local07
01250     F9 DC 01 F6 | 	mov	arg02, local08
01254     28 E0 05 F6 | 	mov	arg04, #40
01258     00 E2 05 F6 | 	mov	arg05, #0
0125c     30 06 B0 FD | 	call	#_outtextxycg
01260                 | '     outtextxycg(64,64,inttostr(lines),40,0)
01260     40 F0 05 F6 | 	mov	local07, #64
01264     40 F2 05 F6 | 	mov	local08, #64
01268     94 A6 05 F1 | 	add	objptr, #148
0126c     D3 DA 01 FB | 	rdlong	arg01, objptr
01270     94 A6 85 F1 | 	sub	objptr, #148
01274     A8 0B B0 FD | 	call	#_inttostr
01278     DB DE 01 F6 | 	mov	arg03, result1
0127c     F8 DA 01 F6 | 	mov	arg01, local07
01280     F9 DC 01 F6 | 	mov	arg02, local08
01284     28 E0 05 F6 | 	mov	arg04, #40
01288     00 E2 05 F6 | 	mov	arg05, #0
0128c     00 06 B0 FD | 	call	#_outtextxycg
01290                 | LR__0011
01290                 | LR__0012
01290                 | LR__0013
01290                 | LR__0014
01290                 | '   waitvbl(300)
01290     2C DB 05 F6 | 	mov	arg01, #300
01294     C4 09 B0 FD | 	call	#_waitvbl
01298     01 14 06 F1 | 	add	local25, #1
0129c     02 00 00 FF 
012a0     00 14 5E F2 | 	cmps	local25, ##1024 wcz
012a4     BC F9 9F CD |  if_b	jmp	#LR__0007
012a8                 | ' 
012a8                 | ' repeat
012a8                 | LR__0015
012a8     FC FF 9F FD | 	jmp	#LR__0015
012ac     A4 F0 03 F6 | 	mov	ptra, fp
012b0     B4 00 A0 FD | 	call	#popregs_
012b4                 | _dummy_ret
012b4     2D 00 64 FD | 	ret
012b8                 | 
012b8                 | ' 
012b8                 | ' '------------------------------
012b8                 | ' 
012b8                 | ' pub fcircle(x0,y0,r,c) | d,x,y,da,db
012b8                 | _fcircle
012b8     0D 44 05 F6 | 	mov	COUNT_, #13
012bc     A5 00 A0 FD | 	call	#pushregs_
012c0     ED E4 01 F6 | 	mov	local01, arg01
012c4     EE E6 01 F6 | 	mov	local02, arg02
012c8     EF E8 01 F6 | 	mov	local03, arg03
012cc     F0 EA 01 F6 | 	mov	local04, arg04
012d0     F4 EC 01 F6 | 	mov	local05, local03
012d4     02 EC 65 F0 | 	shl	local05, #2
012d8     05 EE 05 F6 | 	mov	local06, #5
012dc     F6 EE 81 F1 | 	sub	local06, local05
012e0                 | ' 
012e0                 | ' d:=5-4*r
012e0                 | ' x:=0
012e0     00 F0 05 F6 | 	mov	local07, #0
012e4                 | ' y:=r
012e4     FF FF 7F FF 
012e8     FE E9 05 FD | 	qmul	local03, ##-2
012ec     18 F2 61 FD | 	getqx	local08
012f0     05 F2 05 F1 | 	add	local08, #5
012f4     02 F2 65 F0 | 	shl	local08, #2
012f8                 | ' da:=(-2*r+5)*4
012f8                 | ' db:=3*4
012f8     0C F4 05 F6 | 	mov	local09, #12
012fc                 | ' repeat while (x<=y) 
012fc                 | LR__0016
012fc     F4 F0 59 F2 | 	cmps	local07, local03 wcz
01300     C4 00 90 1D |  if_a	jmp	#LR__0018
01304     F2 F6 01 F6 | 	mov	local10, local01
01308     F8 F6 81 F1 | 	sub	local10, local07
0130c     F3 E0 01 F6 | 	mov	arg04, local02
01310     F4 E0 81 F1 | 	sub	arg04, local03
01314     F2 F8 01 F6 | 	mov	local11, local01
01318     F8 F8 01 F1 | 	add	local11, local07
0131c                 | '   line(x0-x,y0-y,x0+x,y0-y,c)
0131c     FB DA 01 F6 | 	mov	arg01, local10
01320     F0 DC 01 F6 | 	mov	arg02, arg04
01324     FC DE 01 F6 | 	mov	arg03, local11
01328     F5 E2 01 F6 | 	mov	arg05, local04
0132c     BC 02 B0 FD | 	call	#_line
01330     F3 E0 01 F6 | 	mov	arg04, local02
01334     F4 E0 01 F1 | 	add	arg04, local03
01338                 | '   line(x0-x,y0+y,x0+x,y0+y,c)
01338     FB DA 01 F6 | 	mov	arg01, local10
0133c     F0 DC 01 F6 | 	mov	arg02, arg04
01340     FC DE 01 F6 | 	mov	arg03, local11
01344     F5 E2 01 F6 | 	mov	arg05, local04
01348     A0 02 B0 FD | 	call	#_line
0134c     F2 FA 01 F6 | 	mov	local12, local01
01350     F4 FA 81 F1 | 	sub	local12, local03
01354     F3 E0 01 F6 | 	mov	arg04, local02
01358     F8 E0 81 F1 | 	sub	arg04, local07
0135c     F2 FC 01 F6 | 	mov	local13, local01
01360     F4 FC 01 F1 | 	add	local13, local03
01364                 | '   line(x0-y,y0-x,x0+y,y0-x,c)
01364     FD DA 01 F6 | 	mov	arg01, local12
01368     F0 DC 01 F6 | 	mov	arg02, arg04
0136c     FE DE 01 F6 | 	mov	arg03, local13
01370     F5 E2 01 F6 | 	mov	arg05, local04
01374     74 02 B0 FD | 	call	#_line
01378     F3 E0 01 F6 | 	mov	arg04, local02
0137c     F8 E0 01 F1 | 	add	arg04, local07
01380                 | '   line(x0-y,y0+x,x0+y,y0+x,c)
01380     FD DA 01 F6 | 	mov	arg01, local12
01384     F0 DC 01 F6 | 	mov	arg02, arg04
01388     FE DE 01 F6 | 	mov	arg03, local13
0138c     F5 E2 01 F6 | 	mov	arg05, local04
01390     58 02 B0 FD | 	call	#_line
01394                 | '   if d>0 
01394     00 EE 5D F2 | 	cmps	local06, #0 wcz
01398     18 00 90 ED |  if_be	jmp	#LR__0017
0139c                 | '     d+=da
0139c     F9 EE 01 F1 | 	add	local06, local08
013a0                 | '     y-=1
013a0     01 E8 85 F1 | 	sub	local03, #1
013a4                 | '     x+=1
013a4     01 F0 05 F1 | 	add	local07, #1
013a8                 | '     da+=4*4
013a8     10 F2 05 F1 | 	add	local08, #16
013ac                 | '     db+=2*4
013ac     08 F4 05 F1 | 	add	local09, #8
013b0                 | '   else
013b0     48 FF 9F FD | 	jmp	#LR__0016
013b4                 | LR__0017
013b4                 | '     d+=db
013b4     FA EE 01 F1 | 	add	local06, local09
013b8                 | '     x+=1
013b8     01 F0 05 F1 | 	add	local07, #1
013bc                 | '     da+=2*4
013bc     08 F2 05 F1 | 	add	local08, #8
013c0                 | '     db+=2*4
013c0     08 F4 05 F1 | 	add	local09, #8
013c4     34 FF 9F FD | 	jmp	#LR__0016
013c8                 | LR__0018
013c8     A4 F0 03 F6 | 	mov	ptra, fp
013cc     B4 00 A0 FD | 	call	#popregs_
013d0                 | _fcircle_ret
013d0     2D 00 64 FD | 	ret
013d4                 | 
013d4                 | '  
013d4                 | '  
013d4                 | '  
013d4                 | ' pub circle(x0,y0,r,c) | d,x,y,da,db
013d4                 | _circle
013d4     15 44 05 F6 | 	mov	COUNT_, #21
013d8     A5 00 A0 FD | 	call	#pushregs_
013dc     ED E4 01 F6 | 	mov	local01, arg01
013e0     EE E6 01 F6 | 	mov	local02, arg02
013e4     EF E8 01 F6 | 	mov	local03, arg03
013e8     F0 EA 01 F6 | 	mov	local04, arg04
013ec     F4 EC 01 F6 | 	mov	local05, local03
013f0     02 EC 65 F0 | 	shl	local05, #2
013f4     05 EE 05 F6 | 	mov	local06, #5
013f8     F6 EE 81 F1 | 	sub	local06, local05
013fc                 | ' 
013fc                 | '  
013fc                 | ' d:=5-4*r
013fc                 | ' x:=0
013fc     00 F0 05 F6 | 	mov	local07, #0
01400                 | ' y:=r
01400     FF FF 7F FF 
01404     FE E9 05 FD | 	qmul	local03, ##-2
01408     18 F2 61 FD | 	getqx	local08
0140c     05 F2 05 F1 | 	add	local08, #5
01410     02 F2 65 F0 | 	shl	local08, #2
01414                 | ' da:=(-2*r+5)*4
01414                 | ' db:=3*4
01414     0C F4 05 F6 | 	mov	local09, #12
01418                 | ' repeat while (x<=y) 
01418                 | LR__0019
01418     F4 F0 59 F2 | 	cmps	local07, local03 wcz
0141c     C0 01 90 1D |  if_a	jmp	#LR__0021
01420     F2 F6 01 F6 | 	mov	local10, local01
01424     F8 F6 81 F1 | 	sub	local10, local07
01428     F3 F8 01 F6 | 	mov	local11, local02
0142c     F4 F8 81 F1 | 	sub	local11, local03
01430                 | '   putpixel(x0-x,y0-y,c)
01430     D8 A6 05 F1 | 	add	objptr, #216
01434     D3 FA 01 FB | 	rdlong	local12, objptr
01438     D8 A6 85 F1 | 	sub	objptr, #216
0143c     FD FC 01 FB | 	rdlong	local13, local12
01440     04 FA 05 F1 | 	add	local12, #4
01444     FD FE 01 FB | 	rdlong	local14, local12
01448     FB DA 01 F6 | 	mov	arg01, local10
0144c     FC DC 01 F6 | 	mov	arg02, local11
01450     F5 DE 01 F6 | 	mov	arg03, local04
01454     D3 00 02 F6 | 	mov	local15, objptr
01458     FE A6 01 F6 | 	mov	objptr, local13
0145c     2D FE 61 FD | 	call	local14
01460     F3 02 02 F6 | 	mov	local16, local02
01464     F4 02 02 F1 | 	add	local16, local03
01468                 | '   putpixel(x0-x,y0+y,c)
01468     D8 00 06 F1 | 	add	local15, #216
0146c     00 FB 01 FB | 	rdlong	local12, local15
01470     D8 00 86 F1 | 	sub	local15, #216
01474     FD A6 01 FB | 	rdlong	objptr, local12
01478     04 FA 05 F1 | 	add	local12, #4
0147c     FD FE 01 FB | 	rdlong	local14, local12
01480     FB DA 01 F6 | 	mov	arg01, local10
01484     01 DD 01 F6 | 	mov	arg02, local16
01488     F5 DE 01 F6 | 	mov	arg03, local04
0148c     2D FE 61 FD | 	call	local14
01490     F2 04 02 F6 | 	mov	local17, local01
01494     F8 04 02 F1 | 	add	local17, local07
01498                 | '   putpixel(x0+x,y0-y,c)
01498     D8 00 06 F1 | 	add	local15, #216
0149c     00 FB 01 FB | 	rdlong	local12, local15
014a0     D8 00 86 F1 | 	sub	local15, #216
014a4     FD A6 01 FB | 	rdlong	objptr, local12
014a8     04 FA 05 F1 | 	add	local12, #4
014ac     FD FE 01 FB | 	rdlong	local14, local12
014b0     02 DB 01 F6 | 	mov	arg01, local17
014b4     FC DC 01 F6 | 	mov	arg02, local11
014b8     F5 DE 01 F6 | 	mov	arg03, local04
014bc     2D FE 61 FD | 	call	local14
014c0                 | '   putpixel(x0+x,y0+y,c)
014c0     D8 00 06 F1 | 	add	local15, #216
014c4     00 FB 01 FB | 	rdlong	local12, local15
014c8     D8 00 86 F1 | 	sub	local15, #216
014cc     FD A6 01 FB | 	rdlong	objptr, local12
014d0     04 FA 05 F1 | 	add	local12, #4
014d4     FD FE 01 FB | 	rdlong	local14, local12
014d8     02 DB 01 F6 | 	mov	arg01, local17
014dc     01 DD 01 F6 | 	mov	arg02, local16
014e0     F5 DE 01 F6 | 	mov	arg03, local04
014e4     2D FE 61 FD | 	call	local14
014e8     F2 06 02 F6 | 	mov	local18, local01
014ec     F4 06 82 F1 | 	sub	local18, local03
014f0     F3 08 02 F6 | 	mov	local19, local02
014f4     F8 08 82 F1 | 	sub	local19, local07
014f8                 | '   putpixel(x0-y,y0-x,c)
014f8     D8 00 06 F1 | 	add	local15, #216
014fc     00 FB 01 FB | 	rdlong	local12, local15
01500     D8 00 86 F1 | 	sub	local15, #216
01504     FD A6 01 FB | 	rdlong	objptr, local12
01508     04 FA 05 F1 | 	add	local12, #4
0150c     FD FE 01 FB | 	rdlong	local14, local12
01510     03 DB 01 F6 | 	mov	arg01, local18
01514     04 DD 01 F6 | 	mov	arg02, local19
01518     F5 DE 01 F6 | 	mov	arg03, local04
0151c     2D FE 61 FD | 	call	local14
01520     F3 0A 02 F6 | 	mov	local20, local02
01524     F8 0A 02 F1 | 	add	local20, local07
01528                 | '   putpixel(x0-y,y0+x,c)
01528     D8 00 06 F1 | 	add	local15, #216
0152c     00 FB 01 FB | 	rdlong	local12, local15
01530     D8 00 86 F1 | 	sub	local15, #216
01534     FD A6 01 FB | 	rdlong	objptr, local12
01538     04 FA 05 F1 | 	add	local12, #4
0153c     FD FE 01 FB | 	rdlong	local14, local12
01540     03 DB 01 F6 | 	mov	arg01, local18
01544     05 DD 01 F6 | 	mov	arg02, local20
01548     F5 DE 01 F6 | 	mov	arg03, local04
0154c     2D FE 61 FD | 	call	local14
01550     F2 0C 02 F6 | 	mov	local21, local01
01554     F4 0C 02 F1 | 	add	local21, local03
01558                 | '   putpixel(x0+y,y0-x,c)
01558     D8 00 06 F1 | 	add	local15, #216
0155c     00 FB 01 FB | 	rdlong	local12, local15
01560     D8 00 86 F1 | 	sub	local15, #216
01564     FD A6 01 FB | 	rdlong	objptr, local12
01568     04 FA 05 F1 | 	add	local12, #4
0156c     FD FE 01 FB | 	rdlong	local14, local12
01570     06 DB 01 F6 | 	mov	arg01, local21
01574     04 DD 01 F6 | 	mov	arg02, local19
01578     F5 DE 01 F6 | 	mov	arg03, local04
0157c     2D FE 61 FD | 	call	local14
01580                 | '   putpixel(x0+y,y0+x,c)
01580     D8 00 06 F1 | 	add	local15, #216
01584     00 FB 01 FB | 	rdlong	local12, local15
01588     D8 00 86 F1 | 	sub	local15, #216
0158c     FD A6 01 FB | 	rdlong	objptr, local12
01590     04 FA 05 F1 | 	add	local12, #4
01594     FD FE 01 FB | 	rdlong	local14, local12
01598     06 DB 01 F6 | 	mov	arg01, local21
0159c     05 DD 01 F6 | 	mov	arg02, local20
015a0     F5 DE 01 F6 | 	mov	arg03, local04
015a4     2D FE 61 FD | 	call	local14
015a8     00 A7 01 F6 | 	mov	objptr, local15
015ac                 | '   if d>0 
015ac     00 EE 5D F2 | 	cmps	local06, #0 wcz
015b0     18 00 90 ED |  if_be	jmp	#LR__0020
015b4                 | '     d+=da
015b4     F9 EE 01 F1 | 	add	local06, local08
015b8                 | '     y-=1
015b8     01 E8 85 F1 | 	sub	local03, #1
015bc                 | '     x+=1
015bc     01 F0 05 F1 | 	add	local07, #1
015c0                 | '     da+=4*4
015c0     10 F2 05 F1 | 	add	local08, #16
015c4                 | '     db+=2*4
015c4     08 F4 05 F1 | 	add	local09, #8
015c8                 | '   else
015c8     4C FE 9F FD | 	jmp	#LR__0019
015cc                 | LR__0020
015cc                 | '     d+=db
015cc     FA EE 01 F1 | 	add	local06, local09
015d0                 | '     x+=1
015d0     01 F0 05 F1 | 	add	local07, #1
015d4                 | '     da+=2*4
015d4     08 F2 05 F1 | 	add	local08, #8
015d8                 | '     db+=2*4
015d8     08 F4 05 F1 | 	add	local09, #8
015dc     38 FE 9F FD | 	jmp	#LR__0019
015e0                 | LR__0021
015e0     A4 F0 03 F6 | 	mov	ptra, fp
015e4     B4 00 A0 FD | 	call	#popregs_
015e8                 | _circle_ret
015e8     2D 00 64 FD | 	ret
015ec                 | 
015ec                 | ' 
015ec                 | ' 
015ec                 | ' pub line(x1,y1,x2,y2,c) | d,dx,dy,ai,bi,xi,yi,x,y
015ec                 | _line
015ec     12 44 05 F6 | 	mov	COUNT_, #18
015f0     A5 00 A0 FD | 	call	#pushregs_
015f4     ED E4 01 F6 | 	mov	local01, arg01
015f8     EE E6 01 F6 | 	mov	local02, arg02
015fc     EF E8 01 F6 | 	mov	local03, arg03
01600     F0 EA 01 F6 | 	mov	local04, arg04
01604     F1 EC 01 F6 | 	mov	local05, arg05
01608                 | ' 
01608                 | ' 
01608                 | ' x:=x1
01608     F2 EE 01 F6 | 	mov	local06, local01
0160c                 | ' y:=y1
0160c     F3 F0 01 F6 | 	mov	local07, local02
01610                 | ' 
01610                 | ' if (x1<x2) 
01610     F4 E4 59 F2 | 	cmps	local01, local03 wcz
01614     10 00 90 3D |  if_ae	jmp	#LR__0022
01618                 | '   xi:=1
01618     01 F2 05 F6 | 	mov	local08, #1
0161c     F4 F4 01 F6 | 	mov	local09, local03
01620     F2 F4 81 F1 | 	sub	local09, local01
01624                 | '   dx:=x2-x1
01624                 | ' else
01624     0C 00 90 FD | 	jmp	#LR__0023
01628                 | LR__0022
01628                 | '   xi:=-1
01628     01 F2 65 F6 | 	neg	local08, #1
0162c     F4 E4 81 F1 | 	sub	local01, local03
01630                 | '   dx:=x1-x2
01630     F2 F4 01 F6 | 	mov	local09, local01
01634                 | LR__0023
01634                 | '   
01634                 | ' if (y1<y2) 
01634     F5 E6 59 F2 | 	cmps	local02, local04 wcz
01638     10 00 90 3D |  if_ae	jmp	#LR__0024
0163c                 | '   yi:=1
0163c     01 F6 05 F6 | 	mov	local10, #1
01640     F5 F8 01 F6 | 	mov	local11, local04
01644     F3 F8 81 F1 | 	sub	local11, local02
01648                 | '   dy:=y2-y1
01648                 | ' else
01648     0C 00 90 FD | 	jmp	#LR__0025
0164c                 | LR__0024
0164c                 | '   yi:=-1
0164c     01 F6 65 F6 | 	neg	local10, #1
01650     F5 E6 81 F1 | 	sub	local02, local04
01654                 | '   dy:=y1-y2
01654     F3 F8 01 F6 | 	mov	local11, local02
01658                 | LR__0025
01658                 | ' 
01658                 | ' putpixel(x,y,c)
01658     D8 A6 05 F1 | 	add	objptr, #216
0165c     D3 FA 01 FB | 	rdlong	local12, objptr
01660     D8 A6 85 F1 | 	sub	objptr, #216
01664     FD FC 01 FB | 	rdlong	local13, local12
01668     04 FA 05 F1 | 	add	local12, #4
0166c     FD FE 01 FB | 	rdlong	local14, local12
01670     F7 DA 01 F6 | 	mov	arg01, local06
01674     F8 DC 01 F6 | 	mov	arg02, local07
01678     F6 DE 01 F6 | 	mov	arg03, local05
0167c     D3 00 02 F6 | 	mov	local15, objptr
01680     FE A6 01 F6 | 	mov	objptr, local13
01684     2D FE 61 FD | 	call	local14
01688     00 A7 01 F6 | 	mov	objptr, local15
0168c                 | ' 
0168c                 | ' if (dx>dy)
0168c     FC F4 59 F2 | 	cmps	local09, local11 wcz
01690     7C 00 90 ED |  if_be	jmp	#LR__0029
01694     FC 02 02 F6 | 	mov	local16, local11
01698     FA 02 82 F1 | 	sub	local16, local09
0169c     01 02 66 F0 | 	shl	local16, #1
016a0                 | '   ai:=(dy-dx)*2
016a0     01 F8 65 F0 | 	shl	local11, #1
016a4     FC 04 02 F6 | 	mov	local17, local11
016a8                 | '   bi:=dy*2
016a8     02 07 02 F6 | 	mov	local18, local17
016ac     FA 06 82 F1 | 	sub	local18, local09
016b0                 | '   d:= bi-dx
016b0                 | '   repeat while (x<>x2) 
016b0                 | LR__0026
016b0     F4 EE 09 F2 | 	cmp	local06, local03 wz
016b4     D4 00 90 AD |  if_e	jmp	#LR__0034
016b8                 | '     if (d>=0) 
016b8     00 06 5E F2 | 	cmps	local18, #0 wcz
016bc     10 00 90 CD |  if_b	jmp	#LR__0027
016c0                 | '       x+=xi
016c0     F9 EE 01 F1 | 	add	local06, local08
016c4                 | '       y+=yi
016c4     FB F0 01 F1 | 	add	local07, local10
016c8                 | '       d+=ai
016c8     01 07 02 F1 | 	add	local18, local16
016cc                 | '     else
016cc     08 00 90 FD | 	jmp	#LR__0028
016d0                 | LR__0027
016d0                 | '       d+=bi
016d0     02 07 02 F1 | 	add	local18, local17
016d4                 | '       x+=xi
016d4     F9 EE 01 F1 | 	add	local06, local08
016d8                 | LR__0028
016d8                 | '     putpixel(x,y,c)
016d8     D8 A6 05 F1 | 	add	objptr, #216
016dc     D3 FA 01 FB | 	rdlong	local12, objptr
016e0     D8 A6 85 F1 | 	sub	objptr, #216
016e4     FD FC 01 FB | 	rdlong	local13, local12
016e8     04 FA 05 F1 | 	add	local12, #4
016ec     FD FE 01 FB | 	rdlong	local14, local12
016f0     F7 DA 01 F6 | 	mov	arg01, local06
016f4     F8 DC 01 F6 | 	mov	arg02, local07
016f8     F6 DE 01 F6 | 	mov	arg03, local05
016fc     D3 00 02 F6 | 	mov	local15, objptr
01700     FE A6 01 F6 | 	mov	objptr, local13
01704     2D FE 61 FD | 	call	local14
01708     00 A7 01 F6 | 	mov	objptr, local15
0170c     A0 FF 9F FD | 	jmp	#LR__0026
01710                 | ' else
01710                 | LR__0029
01710     FA 02 02 F6 | 	mov	local16, local09
01714     FC 02 82 F1 | 	sub	local16, local11
01718     01 02 66 F0 | 	shl	local16, #1
0171c                 | '   ai:=(dx-dy)*2
0171c     01 F4 65 F0 | 	shl	local09, #1
01720     FA 04 02 F6 | 	mov	local17, local09
01724                 | '   bi:=dx*2
01724     02 07 02 F6 | 	mov	local18, local17
01728     FC 06 82 F1 | 	sub	local18, local11
0172c                 | '   d:=bi-dy
0172c                 | '   repeat while (y<>y2)
0172c                 | LR__0030
0172c     F5 F0 09 F2 | 	cmp	local07, local04 wz
01730     58 00 90 AD |  if_e	jmp	#LR__0033
01734                 | '     if (d>=0)
01734     00 06 5E F2 | 	cmps	local18, #0 wcz
01738     10 00 90 CD |  if_b	jmp	#LR__0031
0173c                 | '       x+=xi
0173c     F9 EE 01 F1 | 	add	local06, local08
01740                 | '       y+=yi
01740     FB F0 01 F1 | 	add	local07, local10
01744                 | '       d+=ai
01744     01 07 02 F1 | 	add	local18, local16
01748                 | '     else
01748     08 00 90 FD | 	jmp	#LR__0032
0174c                 | LR__0031
0174c                 | '       d+=bi
0174c     02 07 02 F1 | 	add	local18, local17
01750                 | '       y+=yi
01750     FB F0 01 F1 | 	add	local07, local10
01754                 | LR__0032
01754                 | '     putpixel(x, y,c)
01754     D8 A6 05 F1 | 	add	objptr, #216
01758     D3 FA 01 FB | 	rdlong	local12, objptr
0175c     D8 A6 85 F1 | 	sub	objptr, #216
01760     FD FC 01 FB | 	rdlong	local13, local12
01764     04 FA 05 F1 | 	add	local12, #4
01768     FD FE 01 FB | 	rdlong	local14, local12
0176c     F7 DA 01 F6 | 	mov	arg01, local06
01770     F8 DC 01 F6 | 	mov	arg02, local07
01774     F6 DE 01 F6 | 	mov	arg03, local05
01778     D3 00 02 F6 | 	mov	local15, objptr
0177c     FE A6 01 F6 | 	mov	objptr, local13
01780     2D FE 61 FD | 	call	local14
01784     00 A7 01 F6 | 	mov	objptr, local15
01788     A0 FF 9F FD | 	jmp	#LR__0030
0178c                 | LR__0033
0178c                 | LR__0034
0178c     A4 F0 03 F6 | 	mov	ptra, fp
01790     B4 00 A0 FD | 	call	#popregs_
01794                 | _line_ret
01794     2D 00 64 FD | 	ret
01798                 | 
01798                 | ' 
01798                 | ' pub putcharxycg(x,y,achar,f,b) |xx, yy,bb
01798                 | _putcharxycg
01798     0E 44 05 F6 | 	mov	COUNT_, #14
0179c     A5 00 A0 FD | 	call	#pushregs_
017a0     ED E4 01 F6 | 	mov	local01, arg01
017a4     EE E6 01 F6 | 	mov	local02, arg02
017a8     EF E8 01 F6 | 	mov	local03, arg03
017ac     F0 EA 01 F6 | 	mov	local04, arg04
017b0     F1 EC 01 F6 | 	mov	local05, arg05
017b4     04 E8 65 F0 | 	shl	local03, #4
017b8     00 EE 05 F6 | 	mov	local06, #0
017bc                 | LR__0035
017bc     D6 F0 01 F6 | 	mov	local07, ptr__dat__
017c0     C8 A6 05 F1 | 	add	objptr, #200
017c4     D3 F2 01 FB | 	rdlong	local08, objptr
017c8     C8 A6 85 F1 | 	sub	objptr, #200
017cc     0A F2 65 F0 | 	shl	local08, #10
017d0     F9 F0 01 F1 | 	add	local07, local08
017d4     F4 F0 01 F1 | 	add	local07, local03
017d8     F7 F0 01 F1 | 	add	local07, local06
017dc                 | '   bb:=byte[@vga_font+font_family<<10+achar<<4+yy]
017dc     F8 F4 C1 FA | 	rdbyte	local09, local07
017e0                 | '   repeat xx from 0 to 7
017e0     00 F6 05 F6 | 	mov	local10, #0
017e4                 | LR__0036
017e4                 | '     if (bb&(1<<xx))<>0
017e4     FB F8 C1 F9 | 	decod	local11, local10
017e8     FC F4 C9 F7 | 	test	local09, local11 wz
017ec     40 00 90 AD |  if_e	jmp	#LR__0037
017f0     FB DA 01 F6 | 	mov	arg01, local10
017f4     F2 DA 01 F1 | 	add	arg01, local01
017f8     F7 DC 01 F6 | 	mov	arg02, local06
017fc     F3 DC 01 F1 | 	add	arg02, local02
01800                 | '       putpixel(xx+x,yy+y,f)
01800     D8 A6 05 F1 | 	add	objptr, #216
01804     D3 FA 01 FB | 	rdlong	local12, objptr
01808     D8 A6 85 F1 | 	sub	objptr, #216
0180c     FD F8 01 FB | 	rdlong	local11, local12
01810     04 FA 05 F1 | 	add	local12, #4
01814     FD FC 01 FB | 	rdlong	local13, local12
01818     F5 DE 01 F6 | 	mov	arg03, local04
0181c     D3 FE 01 F6 | 	mov	local14, objptr
01820     FC A6 01 F6 | 	mov	objptr, local11
01824     2D FC 61 FD | 	call	local13
01828     FF A6 01 F6 | 	mov	objptr, local14
0182c                 | '     else
0182c     3C 00 90 FD | 	jmp	#LR__0038
01830                 | LR__0037
01830     FB DA 01 F6 | 	mov	arg01, local10
01834     F2 DA 01 F1 | 	add	arg01, local01
01838     F7 DC 01 F6 | 	mov	arg02, local06
0183c     F3 DC 01 F1 | 	add	arg02, local02
01840                 | '       putpixel(xx+x,yy+y,b)
01840     D8 A6 05 F1 | 	add	objptr, #216
01844     D3 FA 01 FB | 	rdlong	local12, objptr
01848     D8 A6 85 F1 | 	sub	objptr, #216
0184c     FD F8 01 FB | 	rdlong	local11, local12
01850     04 FA 05 F1 | 	add	local12, #4
01854     FD FC 01 FB | 	rdlong	local13, local12
01858     F6 DE 01 F6 | 	mov	arg03, local05
0185c     D3 FE 01 F6 | 	mov	local14, objptr
01860     FC A6 01 F6 | 	mov	objptr, local11
01864     2D FC 61 FD | 	call	local13
01868     FF A6 01 F6 | 	mov	objptr, local14
0186c                 | LR__0038
0186c     01 F6 05 F1 | 	add	local10, #1
01870     08 F6 5D F2 | 	cmps	local10, #8 wcz
01874     6C FF 9F CD |  if_b	jmp	#LR__0036
01878     01 EE 05 F1 | 	add	local06, #1
0187c     10 EE 5D F2 | 	cmps	local06, #16 wcz
01880     38 FF 9F CD |  if_b	jmp	#LR__0035
01884     A4 F0 03 F6 | 	mov	ptra, fp
01888     B4 00 A0 FD | 	call	#popregs_
0188c                 | _putcharxycg_ret
0188c     2D 00 64 FD | 	ret
01890                 | 
01890                 | ' 
01890                 | ' pub outtextxycg(x,y,text,f,b) | iii,c
01890                 | _outtextxycg
01890     0C 44 05 F6 | 	mov	COUNT_, #12
01894     A5 00 A0 FD | 	call	#pushregs_
01898     ED E4 01 F6 | 	mov	local01, arg01
0189c     EE E6 01 F6 | 	mov	local02, arg02
018a0     EF E8 01 F6 | 	mov	local03, arg03
018a4     F0 EA 01 F6 | 	mov	local04, arg04
018a8     F1 EC 01 F6 | 	mov	local05, arg05
018ac                 | ' 
018ac                 | ' repeat iii from 0 to strsize(text)-1
018ac     00 EE 05 F6 | 	mov	local06, #0
018b0     F4 DA 01 F6 | 	mov	arg01, local03
018b4     00 F0 05 F6 | 	mov	local07, #0
018b8     54 E7 9F FE | 	loc	pa,	#(@LR__0040-@LR__0039)
018bc     95 00 A0 FD | 	call	#FCACHE_LOAD_
018c0                 | LR__0039
018c0     ED F2 C9 FA | 	rdbyte	local08, arg01 wz
018c4     01 F0 05 51 |  if_ne	add	local07, #1
018c8     01 DA 05 51 |  if_ne	add	arg01, #1
018cc     F0 FF 9F 5D |  if_ne	jmp	#LR__0039
018d0                 | LR__0040
018d0     F8 B6 01 F6 | 	mov	result1, local07
018d4     DB F4 01 F6 | 	mov	local09, result1
018d8     01 F4 85 F1 | 	sub	local09, #1
018dc     00 F4 5D F2 | 	cmps	local09, #0 wcz
018e0     01 F6 05 16 |  if_a	mov	local10, #1
018e4     01 F6 65 E6 |  if_be	neg	local10, #1
018e8     FB F4 01 F1 | 	add	local09, local10
018ec                 | LR__0041
018ec     F7 F8 01 F6 | 	mov	local11, local06
018f0     03 F8 65 F0 | 	shl	local11, #3
018f4     F2 DA 01 F6 | 	mov	arg01, local01
018f8     FC DA 01 F1 | 	add	arg01, local11
018fc     F4 FA 01 F6 | 	mov	local12, local03
01900     F7 FA 01 F1 | 	add	local12, local06
01904                 | '   putcharxycg(x+8*iii,y,byte[text+iii],f,b)
01904     F3 DC 01 F6 | 	mov	arg02, local02
01908     FD DE C1 FA | 	rdbyte	arg03, local12
0190c     F5 E0 01 F6 | 	mov	arg04, local04
01910     F6 E2 01 F6 | 	mov	arg05, local05
01914     80 FE BF FD | 	call	#_putcharxycg
01918     FB EE 01 F1 | 	add	local06, local10
0191c     FA EE 09 F2 | 	cmp	local06, local09 wz
01920     C8 FF 9F 5D |  if_ne	jmp	#LR__0041
01924     A4 F0 03 F6 | 	mov	ptra, fp
01928     B4 00 A0 FD | 	call	#popregs_
0192c                 | _outtextxycg_ret
0192c     2D 00 64 FD | 	ret
01930                 | 
01930                 | ' 
01930                 | ' 
01930                 | ' ''---------- putpixel - put a pixel on the screen
01930                 | ' 
01930                 | ' pub putpixel1(x,y,c) |byte b
01930                 | _putpixel1
01930                 | ' 
01930                 | ' 
01930                 | ' if ((x>=0) & (x<32*cpl) & (y>=0) & (y<lines))
01930     00 BA 05 F6 | 	mov	_var01, #0
01934     00 DA 5D F2 | 	cmps	arg01, #0 wcz
01938     01 BA 65 36 |  if_ae	neg	_var01, #1
0193c     00 BC 05 F6 | 	mov	_var02, #0
01940     90 A6 05 F1 | 	add	objptr, #144
01944     D3 BE 01 FB | 	rdlong	_var03, objptr
01948     05 BE 65 F0 | 	shl	_var03, #5
0194c     DF DA 59 F2 | 	cmps	arg01, _var03 wcz
01950     01 BC 65 C6 |  if_b	neg	_var02, #1
01954     DE BA 01 F5 | 	and	_var01, _var02
01958     00 C0 05 F6 | 	mov	_var04, #0
0195c     00 DC 5D F2 | 	cmps	arg02, #0 wcz
01960     01 C0 65 36 |  if_ae	neg	_var04, #1
01964     E0 BA 01 F5 | 	and	_var01, _var04
01968     00 C2 05 F6 | 	mov	_var05, #0
0196c     04 A6 05 F1 | 	add	objptr, #4
01970     D3 C4 01 FB | 	rdlong	_var06, objptr
01974     94 A6 85 F1 | 	sub	objptr, #148
01978     E2 DC 59 F2 | 	cmps	arg02, _var06 wcz
0197c     01 C2 65 C6 |  if_b	neg	_var05, #1
01980     E1 BA C9 F7 | 	test	_var01, _var05 wz
01984     8C 00 90 AD |  if_e	jmp	#LR__0044
01988     90 A6 05 F1 | 	add	objptr, #144
0198c     D3 C6 01 FB | 	rdlong	_var07, objptr
01990     90 A6 85 F1 | 	sub	objptr, #144
01994     02 C6 65 F0 | 	shl	_var07, #2
01998     EE C6 01 FD | 	qmul	_var07, arg02
0199c     18 C8 61 FD | 	getqx	_var08
019a0     D3 CA 01 FB | 	rdlong	_var09, objptr
019a4     E4 CA 01 F1 | 	add	_var09, _var08
019a8     ED CC 01 F6 | 	mov	_var10, arg01
019ac     03 CC 45 F0 | 	shr	_var10, #3
019b0     E6 CA 01 F1 | 	add	_var09, _var10
019b4                 | '     b:=byte[buf_ptr+4*cpl*y+(x>>3)]
019b4     E5 CE C1 FA | 	rdbyte	_var11, _var09
019b8                 | '     if (c==0)
019b8     00 DE 0D F2 | 	cmp	arg03, #0 wz
019bc     18 00 90 5D |  if_ne	jmp	#LR__0042
019c0     ED BA 51 F6 | 	abs	_var01, arg01 wc
019c4     07 BA 05 F5 | 	and	_var01, #7
019c8     DD BA 61 C6 |  if_b	neg	_var01, _var01
019cc     DD D0 C1 F9 | 	decod	_var12, _var01
019d0                 | '       b:=b & !(1<<(x//8))
019d0     E8 CE 21 F5 | 	andn	_var11, _var12
019d4                 | '     else
019d4     14 00 90 FD | 	jmp	#LR__0043
019d8                 | LR__0042
019d8     ED BA 51 F6 | 	abs	_var01, arg01 wc
019dc     07 BA 05 F5 | 	and	_var01, #7
019e0     DD BA 61 C6 |  if_b	neg	_var01, _var01
019e4     DD D2 C1 F9 | 	decod	_var13, _var01
019e8                 | '       b:=b |(1<<(x//8))
019e8     E9 CE 41 F5 | 	or	_var11, _var13
019ec                 | LR__0043
019ec     90 A6 05 F1 | 	add	objptr, #144
019f0     D3 D4 01 FB | 	rdlong	_var14, objptr
019f4     90 A6 85 F1 | 	sub	objptr, #144
019f8     02 D4 65 F0 | 	shl	_var14, #2
019fc     EE D4 01 FD | 	qmul	_var14, arg02
01a00     18 D6 61 FD | 	getqx	_var15
01a04     D3 D8 01 FB | 	rdlong	_var16, objptr
01a08     EB D8 01 F1 | 	add	_var16, _var15
01a0c     E6 D8 01 F1 | 	add	_var16, _var10
01a10                 | '     byte[buf_ptr+4*cpl*y+(x>>3)]:=b
01a10     EC CE 41 FC | 	wrbyte	_var11, _var16
01a14                 | LR__0044
01a14                 | _putpixel1_ret
01a14     2D 00 64 FD | 	ret
01a18                 | 
01a18                 | ' 
01a18                 | ' 
01a18                 | ' pub putpixel2(x,y,c) |byte b
01a18                 | _putpixel2
01a18                 | ' 
01a18                 | ' 
01a18                 | ' if ((x>=0) & (x<16*cpl) & (y>=0) & (y<lines))
01a18     00 BA 05 F6 | 	mov	_var01, #0
01a1c     00 DA 5D F2 | 	cmps	arg01, #0 wcz
01a20     01 BA 65 36 |  if_ae	neg	_var01, #1
01a24     00 BC 05 F6 | 	mov	_var02, #0
01a28     90 A6 05 F1 | 	add	objptr, #144
01a2c     D3 BE 01 FB | 	rdlong	_var03, objptr
01a30     04 BE 65 F0 | 	shl	_var03, #4
01a34     DF DA 59 F2 | 	cmps	arg01, _var03 wcz
01a38     01 BC 65 C6 |  if_b	neg	_var02, #1
01a3c     DE BA 01 F5 | 	and	_var01, _var02
01a40     00 C0 05 F6 | 	mov	_var04, #0
01a44     00 DC 5D F2 | 	cmps	arg02, #0 wcz
01a48     01 C0 65 36 |  if_ae	neg	_var04, #1
01a4c     E0 BA 01 F5 | 	and	_var01, _var04
01a50     00 C2 05 F6 | 	mov	_var05, #0
01a54     04 A6 05 F1 | 	add	objptr, #4
01a58     D3 C4 01 FB | 	rdlong	_var06, objptr
01a5c     94 A6 85 F1 | 	sub	objptr, #148
01a60     E2 DC 59 F2 | 	cmps	arg02, _var06 wcz
01a64     01 C2 65 C6 |  if_b	neg	_var05, #1
01a68     E1 BA C9 F7 | 	test	_var01, _var05 wz
01a6c     7C 00 90 AD |  if_e	jmp	#LR__0045
01a70     90 A6 05 F1 | 	add	objptr, #144
01a74     D3 C6 01 FB | 	rdlong	_var07, objptr
01a78     90 A6 85 F1 | 	sub	objptr, #144
01a7c     02 C6 65 F0 | 	shl	_var07, #2
01a80     EE C6 01 FD | 	qmul	_var07, arg02
01a84     18 C8 61 FD | 	getqx	_var08
01a88     D3 CA 01 FB | 	rdlong	_var09, objptr
01a8c     E4 CA 01 F1 | 	add	_var09, _var08
01a90     ED CC 01 F6 | 	mov	_var10, arg01
01a94     02 CC 45 F0 | 	shr	_var10, #2
01a98     E6 CA 01 F1 | 	add	_var09, _var10
01a9c                 | '     b:=byte[buf_ptr+4*cpl*y+(x>>2)]
01a9c     E5 CE C1 FA | 	rdbyte	_var11, _var09
01aa0     ED BA 51 F6 | 	abs	_var01, arg01 wc
01aa4     03 BA 05 F5 | 	and	_var01, #3
01aa8     DD BA 61 C6 |  if_b	neg	_var01, _var01
01aac     01 BA 65 F0 | 	shl	_var01, #1
01ab0     03 D0 05 F6 | 	mov	_var12, #3
01ab4     DD D0 61 F0 | 	shl	_var12, _var01
01ab8                 | '     b:=b & !(%11<<((x//4)<<1))
01ab8     E8 CE 21 F5 | 	andn	_var11, _var12
01abc     DD DE 61 F0 | 	shl	arg03, _var01
01ac0                 | '     b:=b |(c<<((x//4)<<1))
01ac0     EF CE 41 F5 | 	or	_var11, arg03
01ac4     90 A6 05 F1 | 	add	objptr, #144
01ac8     D3 D2 01 FB | 	rdlong	_var13, objptr
01acc     90 A6 85 F1 | 	sub	objptr, #144
01ad0     02 D2 65 F0 | 	shl	_var13, #2
01ad4     EE D2 01 FD | 	qmul	_var13, arg02
01ad8     18 D4 61 FD | 	getqx	_var14
01adc     D3 D6 01 FB | 	rdlong	_var15, objptr
01ae0     EA D6 01 F1 | 	add	_var15, _var14
01ae4     E6 D6 01 F1 | 	add	_var15, _var10
01ae8                 | '     byte[buf_ptr+4*cpl*y+(x>>2)]:=b
01ae8     EB CE 41 FC | 	wrbyte	_var11, _var15
01aec                 | LR__0045
01aec                 | _putpixel2_ret
01aec     2D 00 64 FD | 	ret
01af0                 | 
01af0                 | ' 
01af0                 | ' 
01af0                 | ' pub putpixel4(x,y,c) |byte b
01af0                 | _putpixel4
01af0                 | ' 
01af0                 | ' if ((x>=0) & (x<16*cpl) & (y>=0) & (y<lines))
01af0     00 BA 05 F6 | 	mov	_var01, #0
01af4     00 DA 5D F2 | 	cmps	arg01, #0 wcz
01af8     01 BA 65 36 |  if_ae	neg	_var01, #1
01afc     00 BC 05 F6 | 	mov	_var02, #0
01b00     90 A6 05 F1 | 	add	objptr, #144
01b04     D3 BE 01 FB | 	rdlong	_var03, objptr
01b08     04 BE 65 F0 | 	shl	_var03, #4
01b0c     DF DA 59 F2 | 	cmps	arg01, _var03 wcz
01b10     01 BC 65 C6 |  if_b	neg	_var02, #1
01b14     DE BA 01 F5 | 	and	_var01, _var02
01b18     00 C0 05 F6 | 	mov	_var04, #0
01b1c     00 DC 5D F2 | 	cmps	arg02, #0 wcz
01b20     01 C0 65 36 |  if_ae	neg	_var04, #1
01b24     E0 BA 01 F5 | 	and	_var01, _var04
01b28     00 C2 05 F6 | 	mov	_var05, #0
01b2c     04 A6 05 F1 | 	add	objptr, #4
01b30     D3 C4 01 FB | 	rdlong	_var06, objptr
01b34     94 A6 85 F1 | 	sub	objptr, #148
01b38     E2 DC 59 F2 | 	cmps	arg02, _var06 wcz
01b3c     01 C2 65 C6 |  if_b	neg	_var05, #1
01b40     E1 BA C9 F7 | 	test	_var01, _var05 wz
01b44     7C 00 90 AD |  if_e	jmp	#LR__0046
01b48     90 A6 05 F1 | 	add	objptr, #144
01b4c     D3 C6 01 FB | 	rdlong	_var07, objptr
01b50     90 A6 85 F1 | 	sub	objptr, #144
01b54     02 C6 65 F0 | 	shl	_var07, #2
01b58     EE C6 01 FD | 	qmul	_var07, arg02
01b5c     18 C8 61 FD | 	getqx	_var08
01b60     D3 CA 01 FB | 	rdlong	_var09, objptr
01b64     E4 CA 01 F1 | 	add	_var09, _var08
01b68     ED CC 01 F6 | 	mov	_var10, arg01
01b6c     01 CC 45 F0 | 	shr	_var10, #1
01b70     E6 CA 01 F1 | 	add	_var09, _var10
01b74                 | '     b:=byte[buf_ptr+4*cpl*y+(x>>1)]
01b74     E5 CE C1 FA | 	rdbyte	_var11, _var09
01b78     ED BA 51 F6 | 	abs	_var01, arg01 wc
01b7c     01 BA 05 F5 | 	and	_var01, #1
01b80     DD BA 61 C6 |  if_b	neg	_var01, _var01
01b84     02 BA 65 F0 | 	shl	_var01, #2
01b88     0F D0 05 F6 | 	mov	_var12, #15
01b8c     DD D0 61 F0 | 	shl	_var12, _var01
01b90                 | '     b:=b & !(%1111<<((x//2)<<2))
01b90     E8 CE 21 F5 | 	andn	_var11, _var12
01b94     DD DE 61 F0 | 	shl	arg03, _var01
01b98                 | '     b:=b |(c<<((x//2)<<2))
01b98     EF CE 41 F5 | 	or	_var11, arg03
01b9c     90 A6 05 F1 | 	add	objptr, #144
01ba0     D3 D2 01 FB | 	rdlong	_var13, objptr
01ba4     90 A6 85 F1 | 	sub	objptr, #144
01ba8     02 D2 65 F0 | 	shl	_var13, #2
01bac     EE D2 01 FD | 	qmul	_var13, arg02
01bb0     18 D4 61 FD | 	getqx	_var14
01bb4     D3 D6 01 FB | 	rdlong	_var15, objptr
01bb8     EA D6 01 F1 | 	add	_var15, _var14
01bbc     E6 D6 01 F1 | 	add	_var15, _var10
01bc0                 | '     byte[buf_ptr+4*cpl*y+(x>>1)]:=b
01bc0     EB CE 41 FC | 	wrbyte	_var11, _var15
01bc4                 | LR__0046
01bc4                 | _putpixel4_ret
01bc4     2D 00 64 FD | 	ret
01bc8                 | 
01bc8                 | ' 
01bc8                 | ' 
01bc8                 | ' pub putpixel8(x,y,c)
01bc8                 | _putpixel8
01bc8                 | ' 
01bc8                 | ' if ((y>=0) & (y<4*cpl) & (x>=0) & (x<lines))
01bc8     00 BA 05 F6 | 	mov	_var01, #0
01bcc     00 DC 5D F2 | 	cmps	arg02, #0 wcz
01bd0     01 BA 65 36 |  if_ae	neg	_var01, #1
01bd4     00 BC 05 F6 | 	mov	_var02, #0
01bd8     90 A6 05 F1 | 	add	objptr, #144
01bdc     D3 BE 01 FB | 	rdlong	_var03, objptr
01be0     02 BE 65 F0 | 	shl	_var03, #2
01be4     DF DC 59 F2 | 	cmps	arg02, _var03 wcz
01be8     01 BC 65 C6 |  if_b	neg	_var02, #1
01bec     DE BA 01 F5 | 	and	_var01, _var02
01bf0     00 C0 05 F6 | 	mov	_var04, #0
01bf4     00 DA 5D F2 | 	cmps	arg01, #0 wcz
01bf8     01 C0 65 36 |  if_ae	neg	_var04, #1
01bfc     E0 BA 01 F5 | 	and	_var01, _var04
01c00     00 C2 05 F6 | 	mov	_var05, #0
01c04     04 A6 05 F1 | 	add	objptr, #4
01c08     D3 C4 01 FB | 	rdlong	_var06, objptr
01c0c     94 A6 85 F1 | 	sub	objptr, #148
01c10     E2 DA 59 F2 | 	cmps	arg01, _var06 wcz
01c14     01 C2 65 C6 |  if_b	neg	_var05, #1
01c18     E1 BA C9 F7 | 	test	_var01, _var05 wz
01c1c     38 00 90 AD |  if_e	jmp	#LR__0047
01c20     90 A6 05 F1 | 	add	objptr, #144
01c24     D3 C6 01 FB | 	rdlong	_var07, objptr
01c28     02 C6 65 F0 | 	shl	_var07, #2
01c2c     04 A6 05 F1 | 	add	objptr, #4
01c30     D3 C8 01 FB | 	rdlong	_var08, objptr
01c34     94 A6 85 F1 | 	sub	objptr, #148
01c38     ED C8 81 F1 | 	sub	_var08, arg01
01c3c     01 C8 85 F1 | 	sub	_var08, #1
01c40     E4 C6 01 FD | 	qmul	_var07, _var08
01c44     18 CA 61 FD | 	getqx	_var09
01c48     D3 CC 01 FB | 	rdlong	_var10, objptr
01c4c     E5 CC 01 F1 | 	add	_var10, _var09
01c50     EE CC 01 F1 | 	add	_var10, arg02
01c54                 | '     byte[buf_ptr+4*cpl*(lines-x-1)+y]:=c
01c54     E6 DE 41 FC | 	wrbyte	arg03, _var10
01c58                 | LR__0047
01c58                 | _putpixel8_ret
01c58     2D 00 64 FD | 	ret
01c5c                 | 
01c5c                 | ' 
01c5c                 | ' '*************************************************************************
01c5c                 | ' '                                                                        *
01c5c                 | ' '  VBlank functions                                                      *
01c5c                 | ' '                                                                        *
01c5c                 | ' '*************************************************************************
01c5c                 | ' 
01c5c                 | ' pub waitvbl(amount) | i
01c5c                 | _waitvbl
01c5c     04 44 05 F6 | 	mov	COUNT_, #4
01c60     A5 00 A0 FD | 	call	#pushregs_
01c64     ED E4 01 F6 | 	mov	local01, arg01
01c68                 | ' 
01c68                 | ' ''---------- Wait for start of vblank. Amount=delay in frames
01c68                 | ' 
01c68                 | ' repeat i from 1 to amount
01c68     01 E6 05 F6 | 	mov	local02, #1
01c6c     01 E4 5D F2 | 	cmps	local01, #1 wcz
01c70     01 E8 05 16 |  if_a	mov	local03, #1
01c74     01 E8 65 E6 |  if_be	neg	local03, #1
01c78     F4 E4 01 F1 | 	add	local01, local03
01c7c                 | LR__0048
01c7c                 | '   repeat until vblank==0
01c7c                 | LR__0049
01c7c     40 A6 05 F1 | 	add	objptr, #64
01c80     D3 EA 09 FB | 	rdlong	local04, objptr wz
01c84     40 A6 85 F1 | 	sub	objptr, #64
01c88     0C 00 90 AD |  if_e	jmp	#LR__0050
01c8c                 | '     waitus(100)
01c8c     64 DA 05 F6 | 	mov	arg01, #100
01c90     50 08 B0 FD | 	call	#__system___waitus
01c94     E4 FF 9F FD | 	jmp	#LR__0049
01c98                 | LR__0050
01c98                 | '   repeat until vblank==1
01c98                 | LR__0051
01c98     40 A6 05 F1 | 	add	objptr, #64
01c9c     D3 EA 01 FB | 	rdlong	local04, objptr
01ca0     40 A6 85 F1 | 	sub	objptr, #64
01ca4     01 EA 0D F2 | 	cmp	local04, #1 wz
01ca8     0C 00 90 AD |  if_e	jmp	#LR__0052
01cac                 | '     waitus(100)
01cac     64 DA 05 F6 | 	mov	arg01, #100
01cb0     30 08 B0 FD | 	call	#__system___waitus
01cb4     E0 FF 9F FD | 	jmp	#LR__0051
01cb8                 | LR__0052
01cb8     F4 E6 01 F1 | 	add	local02, local03
01cbc     F2 E6 09 F2 | 	cmp	local02, local01 wz
01cc0     B8 FF 9F 5D |  if_ne	jmp	#LR__0048
01cc4     A4 F0 03 F6 | 	mov	ptra, fp
01cc8     B4 00 A0 FD | 	call	#popregs_
01ccc                 | _waitvbl_ret
01ccc     2D 00 64 FD | 	ret
01cd0                 | 
01cd0                 | ' 
01cd0                 | ' 
01cd0                 | ' '*************************************************************************
01cd0                 | ' '                                                                        *
01cd0                 | ' '  Text functions                                                        *
01cd0                 | ' '                                                                        *
01cd0                 | ' '*************************************************************************
01cd0                 | ' 
01cd0                 | ' ''---------- Clear the screen, set its foreground/background color
01cd0                 | ' 
01cd0                 | ' pub cls(fc,bc)   :c
01cd0                 | _cls
01cd0     07 44 05 F6 | 	mov	COUNT_, #7
01cd4     A5 00 A0 FD | 	call	#pushregs_
01cd8     ED E4 01 F6 | 	mov	local01, arg01
01cdc     EE E6 01 F6 | 	mov	local02, arg02
01ce0                 | ' 
01ce0                 | ' if (graphmode<512)
01ce0     C4 A6 05 F1 | 	add	objptr, #196
01ce4     D3 E8 01 FB | 	rdlong	local03, objptr
01ce8     C4 A6 85 F1 | 	sub	objptr, #196
01cec     01 00 00 FF 
01cf0     00 E8 5D F2 | 	cmps	local03, ##512 wcz
01cf4     48 00 90 3D |  if_ae	jmp	#LR__0057
01cf8     F2 EA 01 F6 | 	mov	local04, local01
01cfc     18 EA 65 F0 | 	shl	local04, #24
01d00     F3 EC 01 F6 | 	mov	local05, local02
01d04     10 EC 65 F0 | 	shl	local05, #16
01d08     F6 EA 01 F1 | 	add	local04, local05
01d0c     20 EA 05 F1 | 	add	local04, #32
01d10                 | '   c:=fc<<24+bc<<16+$20
01d10                 | '   longfill(buf_ptr,c,buflen)
01d10     D3 DA 01 FB | 	rdlong	arg01, objptr
01d14     30 A6 05 F1 | 	add	objptr, #48
01d18     D3 DE 09 FB | 	rdlong	arg03, objptr wz
01d1c     30 A6 85 F1 | 	sub	objptr, #48
01d20     F5 DC 01 F6 | 	mov	arg02, local04
01d24     C4 00 90 AD |  if_e	jmp	#LR__0063
01d28     E0 E2 9F FE | 	loc	pa,	#(@LR__0055-@LR__0053)
01d2c     95 00 A0 FD | 	call	#FCACHE_LOAD_
01d30                 | LR__0053
01d30     EF 04 D8 FC | 	rep	@LR__0056, arg03
01d34                 | LR__0054
01d34     ED DC 61 FC | 	wrlong	arg02, arg01
01d38     04 DA 05 F1 | 	add	arg01, #4
01d3c                 | LR__0055
01d3c                 | LR__0056
01d3c                 | ' else
01d3c     AC 00 90 FD | 	jmp	#LR__0063
01d40                 | LR__0057
01d40                 | '   if (graphmode & 48) ==48
01d40     C4 A6 05 F1 | 	add	objptr, #196
01d44     D3 E8 01 FB | 	rdlong	local03, objptr
01d48     C4 A6 85 F1 | 	sub	objptr, #196
01d4c     30 E8 05 F5 | 	and	local03, #48
01d50     30 E8 0D F2 | 	cmp	local03, #48 wz
01d54                 | '     c:=bc
01d54     F3 EA 01 A6 |  if_e	mov	local04, local02
01d58     74 00 90 AD |  if_e	jmp	#LR__0062
01d5c                 | '   elseif (graphmode & 48) ==32
01d5c     C4 A6 05 F1 | 	add	objptr, #196
01d60     D3 E8 01 FB | 	rdlong	local03, objptr
01d64     C4 A6 85 F1 | 	sub	objptr, #196
01d68     30 E8 05 F5 | 	and	local03, #48
01d6c     20 E8 0D F2 | 	cmp	local03, #32 wz
01d70     10 00 90 5D |  if_ne	jmp	#LR__0058
01d74     F3 EA 01 F6 | 	mov	local04, local02
01d78     04 EA 65 F0 | 	shl	local04, #4
01d7c     F3 EA 01 F1 | 	add	local04, local02
01d80                 | '     c:=bc<<4+bc
01d80     4C 00 90 FD | 	jmp	#LR__0061
01d84                 | LR__0058
01d84                 | '   elseif (graphmode & 48) ==16
01d84     C4 A6 05 F1 | 	add	objptr, #196
01d88     D3 E8 01 FB | 	rdlong	local03, objptr
01d8c     C4 A6 85 F1 | 	sub	objptr, #196
01d90     30 E8 05 F5 | 	and	local03, #48
01d94     10 E8 0D F2 | 	cmp	local03, #16 wz
01d98     28 00 90 5D |  if_ne	jmp	#LR__0059
01d9c     F3 EA 01 F6 | 	mov	local04, local02
01da0     06 EA 65 F0 | 	shl	local04, #6
01da4     F3 EE 01 F6 | 	mov	local06, local02
01da8     04 EE 65 F0 | 	shl	local06, #4
01dac     F7 EA 01 F1 | 	add	local04, local06
01db0     F3 F0 01 F6 | 	mov	local07, local02
01db4     02 F0 65 F0 | 	shl	local07, #2
01db8     F8 EA 01 F1 | 	add	local04, local07
01dbc     F3 EA 01 F1 | 	add	local04, local02
01dc0                 | '     c:=bc<<6+bc<<4+bc<<2+bc
01dc0                 | '   else
01dc0     0C 00 90 FD | 	jmp	#LR__0060
01dc4                 | LR__0059
01dc4                 | '     if bc==1
01dc4     01 E6 0D F2 | 	cmp	local02, #1 wz
01dc8                 | '       c:=255
01dc8     FF EA 05 A6 |  if_e	mov	local04, #255
01dcc                 | '     else
01dcc                 | '       c:=0
01dcc     00 EA 05 56 |  if_ne	mov	local04, #0
01dd0                 | LR__0060
01dd0                 | LR__0061
01dd0                 | LR__0062
01dd0     30 A6 05 F1 | 	add	objptr, #48
01dd4     D3 DE 01 FB | 	rdlong	arg03, objptr
01dd8     30 A6 85 F1 | 	sub	objptr, #48
01ddc     02 DE 65 F0 | 	shl	arg03, #2
01de0                 | '   bytefill(buf_ptr,c,buflen*4)
01de0     D3 DA 01 FB | 	rdlong	arg01, objptr
01de4     F5 DC 01 F6 | 	mov	arg02, local04
01de8     34 04 B0 FD | 	call	#__system____builtin_memset
01dec                 | LR__0063
01dec                 | ' setwritecolors(fc,bc)
01dec                 | ' 
01dec                 | ' 
01dec                 | ' write_color:=ff
01dec     38 A6 05 F1 | 	add	objptr, #56
01df0     D3 E4 61 FC | 	wrlong	local01, objptr
01df4                 | ' write_background:=bb
01df4     04 A6 05 F1 | 	add	objptr, #4
01df8     D3 E6 61 FC | 	wrlong	local02, objptr
01dfc                 | ' cursor_x:=0
01dfc     08 A6 85 F1 | 	sub	objptr, #8
01e00     D3 00 48 FC | 	wrbyte	#0, objptr
01e04                 | ' cursor_y:=0
01e04     01 A6 05 F1 | 	add	objptr, #1
01e08     D3 00 48 FC | 	wrbyte	#0, objptr
01e0c     35 A6 85 F1 | 	sub	objptr, #53
01e10     F5 B6 01 F6 | 	mov	result1, local04
01e14     A4 F0 03 F6 | 	mov	ptra, fp
01e18     B4 00 A0 FD | 	call	#popregs_
01e1c                 | _cls_ret
01e1c     2D 00 64 FD | 	ret
01e20                 | 
01e20                 | ' 
01e20                 | ' 
01e20                 | ' '*************************************************************************
01e20                 | ' '                                                                        *
01e20                 | ' '  Conversions                                                           *
01e20                 | ' '                                                                        *
01e20                 | ' '*************************************************************************
01e20                 | ' 
01e20                 | ' ''---------- Convert a integer to dec string, return a pointer
01e20                 | ' 
01e20                 | ' pub inttostr(i):result |q,pos,k,j
01e20                 | _inttostr
01e20     07 44 05 F6 | 	mov	COUNT_, #7
01e24     A5 00 A0 FD | 	call	#pushregs_
01e28     ED E4 01 F6 | 	mov	local01, arg01
01e2c                 | ' 
01e2c                 | ' j:=i
01e2c     F2 E6 09 F6 | 	mov	local02, local01 wz
01e30                 | ' pos:=10
01e30     0A E8 05 F6 | 	mov	local03, #10
01e34                 | ' k:=0
01e34     00 EA 05 F6 | 	mov	local04, #0
01e38                 | ' 
01e38                 | ' if (j==0)
01e38     18 00 90 5D |  if_ne	jmp	#LR__0064
01e3c                 | '   n_string[0]:=48
01e3c     44 A6 05 F1 | 	add	objptr, #68
01e40     D3 60 48 FC | 	wrbyte	#48, objptr
01e44                 | '   n_string[1]:=0
01e44     01 A6 05 F1 | 	add	objptr, #1
01e48     D3 00 48 FC | 	wrbyte	#0, objptr
01e4c     45 A6 85 F1 | 	sub	objptr, #69
01e50                 | ' 
01e50                 | ' else
01e50     C4 00 90 FD | 	jmp	#LR__0071
01e54                 | LR__0064
01e54                 | '   if (j<0)
01e54     00 E6 5D F2 | 	cmps	local02, #0 wcz
01e58                 | '     j:=0-j
01e58     F3 E6 61 C6 |  if_b	neg	local02, local02
01e5c                 | '     k:=45
01e5c     2D EA 05 C6 |  if_b	mov	local04, #45
01e60                 | ' 
01e60                 | '   n_string[11]:=0
01e60     4F A6 05 F1 | 	add	objptr, #79
01e64     D3 00 48 FC | 	wrbyte	#0, objptr
01e68     4F A6 85 F1 | 	sub	objptr, #79
01e6c     D0 E1 9F FE | 	loc	pa,	#(@LR__0066-@LR__0065)
01e70     95 00 A0 FD | 	call	#FCACHE_LOAD_
01e74                 | '   repeat while (pos>-1)
01e74                 | LR__0065
01e74     FF FF 7F FF 
01e78     FF E9 5D F2 | 	cmps	local03, ##-1 wcz
01e7c     34 00 90 ED |  if_be	jmp	#LR__0067
01e80     F3 1A 02 F6 | 	mov	muldiva_, local02
01e84     0A 1C 06 F6 | 	mov	muldivb_, #10
01e88     C5 00 A0 FD | 	call	#divide_
01e8c     0D ED 01 F6 | 	mov	local05, muldiva_
01e90                 | '     q:=j//10
01e90                 | '     q:=48+q
01e90     30 EC 05 F1 | 	add	local05, #48
01e94     F4 EE 01 F6 | 	mov	local06, local03
01e98     44 A6 05 F1 | 	add	objptr, #68
01e9c     D3 EE 01 F1 | 	add	local06, objptr
01ea0                 | '     n_string[pos]:=q
01ea0     F7 EC 41 FC | 	wrbyte	local05, local06
01ea4                 | '     j:=j/10
01ea4     0E E7 01 F6 | 	mov	local02, muldivb_
01ea8                 | '     pos-=1
01ea8     01 E8 85 F1 | 	sub	local03, #1
01eac     44 A6 85 F1 | 	sub	objptr, #68
01eb0     C0 FF 9F FD | 	jmp	#LR__0065
01eb4                 | LR__0066
01eb4                 | LR__0067
01eb4                 | '   repeat while n_string[0]==48
01eb4                 | LR__0068
01eb4     44 A6 05 F1 | 	add	objptr, #68
01eb8     D3 F0 C1 FA | 	rdbyte	local07, objptr
01ebc     44 A6 85 F1 | 	sub	objptr, #68
01ec0     30 F0 0D F2 | 	cmp	local07, #48 wz
01ec4     20 00 90 5D |  if_ne	jmp	#LR__0069
01ec8     44 A6 05 F1 | 	add	objptr, #68
01ecc     D3 DA 01 F6 | 	mov	arg01, objptr
01ed0     44 A6 85 F1 | 	sub	objptr, #68
01ed4     ED DC 01 F6 | 	mov	arg02, arg01
01ed8     01 DC 05 F1 | 	add	arg02, #1
01edc                 | '     bytemove(@n_string,@n_string+1,12)
01edc     0C DE 05 F6 | 	mov	arg03, #12
01ee0     9C 03 B0 FD | 	call	#__system____builtin_memmove
01ee4     CC FF 9F FD | 	jmp	#LR__0068
01ee8                 | LR__0069
01ee8                 | ' 
01ee8                 | '   if k==45
01ee8     2D EA 0D F2 | 	cmp	local04, #45 wz
01eec     28 00 90 5D |  if_ne	jmp	#LR__0070
01ef0     44 A6 05 F1 | 	add	objptr, #68
01ef4     D3 DC 01 F6 | 	mov	arg02, objptr
01ef8     44 A6 85 F1 | 	sub	objptr, #68
01efc     EE DA 01 F6 | 	mov	arg01, arg02
01f00     01 DA 05 F1 | 	add	arg01, #1
01f04                 | '      bytemove(@n_string+1,@n_string,12)
01f04     0C DE 05 F6 | 	mov	arg03, #12
01f08     74 03 B0 FD | 	call	#__system____builtin_memmove
01f0c                 | '      n_string[0]:=k
01f0c     44 A6 05 F1 | 	add	objptr, #68
01f10     D3 EA 41 FC | 	wrbyte	local04, objptr
01f14     44 A6 85 F1 | 	sub	objptr, #68
01f18                 | LR__0070
01f18                 | LR__0071
01f18     44 A6 05 F1 | 	add	objptr, #68
01f1c     D3 B6 01 F6 | 	mov	result1, objptr
01f20     44 A6 85 F1 | 	sub	objptr, #68
01f24                 | ' 
01f24                 | ' q:=@n_string
01f24                 | ' return q
01f24     A4 F0 03 F6 | 	mov	ptra, fp
01f28     B4 00 A0 FD | 	call	#popregs_
01f2c                 | _inttostr_ret
01f2c     2D 00 64 FD | 	ret
01f30                 | 
01f30                 | ' 
01f30                 | ' 
01f30                 | ' 
01f30                 | ' '*************************************************************************
01f30                 | ' '                                                                        *
01f30                 | ' '  Mode setting and driver start                                                          *
01f30                 | ' '                                                                        *
01f30                 | ' '*************************************************************************
01f30                 | ' 
01f30                 | ' ''---------  Set the graphics mode
01f30                 | ' 
01f30                 | ' 
01f30                 | ' 
01f30                 | ' pub setmode(mode) | i', 'xzoom, yzoom, azoom
01f30                 | _setmode
01f30     0E 44 05 F6 | 	mov	COUNT_, #14
01f34     A5 00 A0 FD | 	call	#pushregs_
01f38     ED E4 01 F6 | 	mov	local01, arg01
01f3c     50 A6 05 F1 | 	add	objptr, #80
01f40     D3 DA 01 F6 | 	mov	arg01, objptr
01f44     50 A6 85 F1 | 	sub	objptr, #80
01f48     0E 00 00 FF 
01f4c     58 AC 05 F1 | 	add	ptr__dat__, ##7256
01f50     D6 DC 01 F6 | 	mov	arg02, ptr__dat__
01f54     0E 00 00 FF 
01f58     58 AC 85 F1 | 	sub	ptr__dat__, ##7256
01f5c                 | ' 
01f5c                 | ' 
01f5c                 | ' longmove(@timings,@timings000,16)   'PAL 50 Hz signaling 1140x624, active 800x480, 100x30 text, wide border, 2 colors per pixel, 00_00_00_00_00=0, 354_693_878 Hz
01f5c     10 DE 05 F6 | 	mov	arg03, #16
01f60     AC 03 B0 FD | 	call	#__system__longmove
01f64                 | '  
01f64                 | ' timings[5]:=4
01f64     64 A6 05 F1 | 	add	objptr, #100
01f68     D3 08 68 FC | 	wrlong	#4, objptr
01f6c     18 A6 05 F1 | 	add	objptr, #24
01f70     D3 E6 01 FB | 	rdlong	local02, objptr
01f74     01 E6 65 F0 | 	shl	local02, #1
01f78                 | ' timings[11]:=timings[11]<<1
01f78     D3 E6 61 FC | 	wrlong	local02, objptr
01f7c                 | ' putpixel:=p8
01f7c     6C A6 05 F1 | 	add	objptr, #108
01f80     D3 E8 01 FB | 	rdlong	local03, objptr
01f84     10 A6 85 F1 | 	sub	objptr, #16
01f88     D3 E8 61 FC | 	wrlong	local03, objptr
01f8c     0C 00 00 FF 
01f90     58 AC 05 F1 | 	add	ptr__dat__, ##6232
01f94                 | ' palette_ptr:=@ataripalette
01f94     C0 A6 85 F1 | 	sub	objptr, #192
01f98     D3 AC 61 FC | 	wrlong	ptr__dat__, objptr
01f9c     38 A6 05 F1 | 	add	objptr, #56
01fa0     D3 EA 01 F6 | 	mov	local04, objptr
01fa4     0C 00 00 FF 
01fa8     58 AC 85 F1 | 	sub	ptr__dat__, ##6232
01fac     50 A6 85 F1 | 	sub	objptr, #80
01fb0     78 E0 9F FE | 	loc	pa,	#(@LR__0074-@LR__0072)
01fb4     95 00 A0 FD | 	call	#FCACHE_LOAD_
01fb8                 | LR__0072
01fb8     05 14 DC FC | 	rep	@LR__0075, #5
01fbc                 | LR__0073
01fbc     24 A6 05 F1 | 	add	objptr, #36
01fc0     D3 EC 01 FB | 	rdlong	local05, objptr
01fc4     24 A6 85 F1 | 	sub	objptr, #36
01fc8     11 EC 65 F0 | 	shl	local05, #17
01fcc     F5 EE 01 FB | 	rdlong	local06, local04
01fd0     F6 EE 01 F1 | 	add	local06, local05
01fd4     80 40 38 FF 
01fd8     00 EE 05 F1 | 	add	local06, ##1887502336
01fdc                 | '   timings[i]:=timings[i]+hdmibase<<17+ timingsxxt
01fdc     F5 EE 61 FC | 	wrlong	local06, local04
01fe0     04 EA 05 F1 | 	add	local04, #4
01fe4                 | LR__0074
01fe4                 | LR__0075
01fe4     24 A6 05 F1 | 	add	objptr, #36
01fe8     D3 F0 01 FB | 	rdlong	local07, objptr
01fec     11 F0 65 F0 | 	shl	local07, #17
01ff0     40 A6 05 F1 | 	add	objptr, #64
01ff4     D3 F2 01 FB | 	rdlong	local08, objptr
01ff8     F8 F2 01 F1 | 	add	local08, local07
01ffc                 | ' timings[5]:=timings[5]+hdmibase<<17
01ffc     D3 F2 61 FC | 	wrlong	local08, objptr
02000     64 A6 85 F1 | 	sub	objptr, #100
02004                 | ' waitms(1)
02004     01 DA 05 F6 | 	mov	arg01, #1
02008     78 04 B0 FD | 	call	#__system___waitms
0200c                 | ' 
0200c                 | ' xzoom:=2
0200c     CC A6 05 F1 | 	add	objptr, #204
02010     D3 04 68 FC | 	wrlong	#2, objptr
02014                 | ' yzoom:=2
02014     04 A6 05 F1 | 	add	objptr, #4
02018     D3 04 68 FC | 	wrlong	#2, objptr
0201c     04 A6 85 F1 | 	sub	objptr, #4
02020     D3 F4 01 FB | 	rdlong	local09, objptr
02024     04 A6 05 F1 | 	add	objptr, #4
02028     D3 F6 01 FB | 	rdlong	local10, objptr
0202c     FB F4 01 FD | 	qmul	local09, local10
02030     18 F8 61 FD | 	getqx	local11
02034                 | ' azoom:=xzoom*yzoom
02034     04 A6 05 F1 | 	add	objptr, #4
02038     D3 F8 61 FC | 	wrlong	local11, objptr
0203c                 | ' 
0203c                 | ' cpl:=timings[11]
0203c     58 A6 85 F1 | 	sub	objptr, #88
02040     D3 E8 01 FB | 	rdlong	local03, objptr
02044     14 A6 05 F1 | 	add	objptr, #20
02048     D3 E8 61 FC | 	wrlong	local03, objptr
0204c     10 A6 85 F1 | 	sub	objptr, #16
02050     D3 1A 02 FB | 	rdlong	muldiva_, objptr
02054     50 A6 05 F1 | 	add	objptr, #80
02058     D3 1C 02 FB | 	rdlong	muldivb_, objptr
0205c     D0 A6 85 F1 | 	sub	objptr, #208
02060     C5 00 A0 FD | 	call	#divide_
02064                 | ' lines:=timings[12]/yzoom
02064     94 A6 05 F1 | 	add	objptr, #148
02068     D3 1C 62 FC | 	wrlong	muldivb_, objptr
0206c                 | ' cpl:=cpl/xzoom
0206c     04 A6 85 F1 | 	sub	objptr, #4
02070     D3 1A 02 FB | 	rdlong	muldiva_, objptr
02074     3C A6 05 F1 | 	add	objptr, #60
02078     D3 1C 02 FB | 	rdlong	muldivb_, objptr
0207c     CC A6 85 F1 | 	sub	objptr, #204
02080     C5 00 A0 FD | 	call	#divide_
02084     90 A6 05 F1 | 	add	objptr, #144
02088     D3 1C 62 FC | 	wrlong	muldivb_, objptr
0208c     04 A6 05 F1 | 	add	objptr, #4
02090     D3 F6 01 FB | 	rdlong	local10, objptr
02094     FB 1C 02 FD | 	qmul	muldivb_, local10
02098     18 FA 61 FD | 	getqx	local12
0209c                 | ' 
0209c                 | ' buflen:=(cpl*lines)
0209c     64 A6 85 F1 | 	sub	objptr, #100
020a0     D3 FA 61 FC | 	wrlong	local12, objptr
020a4     30 A6 85 F1 | 	sub	objptr, #48
020a8     02 FA 65 F0 | 	shl	local12, #2
020ac     13 FC C5 F9 | 	decod	local13, #19
020b0     FD FC 81 F1 | 	sub	local13, local12
020b4                 | ' 
020b4                 | ' buf_ptr:=$80000-4*buflen
020b4     D3 FC 61 FC | 	wrlong	local13, objptr
020b8     50 A6 05 F1 | 	add	objptr, #80
020bc     D3 FE 01 F6 | 	mov	local14, objptr
020c0                 | ' mode_ptr:=@timings
020c0     3C A6 85 F1 | 	sub	objptr, #60
020c4     D3 FE 61 FC | 	wrlong	local14, objptr
020c8                 | ' graphmode:=mode
020c8     B0 A6 05 F1 | 	add	objptr, #176
020cc     D3 E4 61 FC | 	wrlong	local01, objptr
020d0     C4 A6 85 F1 | 	sub	objptr, #196
020d4                 | ' makedl(mode)
020d4     F2 DA 01 F6 | 	mov	arg01, local01
020d8     0C 00 B0 FD | 	call	#_makedl
020dc     A4 F0 03 F6 | 	mov	ptra, fp
020e0     B4 00 A0 FD | 	call	#popregs_
020e4                 | _setmode_ret
020e4     2D 00 64 FD | 	ret
020e8                 | 
020e8                 | ' 
020e8                 | ' 
020e8                 | ' 
020e8                 | ' 
020e8                 | ' '---------- Make a display list
020e8                 | ' 
020e8                 | ' pub makedl (mode) |i, fontline2,charline,bufstart,zoom1,vzoom,lpc,hzoom
020e8                 | _makedl
020e8     D3 BA 01 FB | 	rdlong	_var01, objptr
020ec     03 00 00 FF 
020f0     80 BB 85 F1 | 	sub	_var01, ##1920
020f4                 | ' 
020f4                 | ' dl_ptr:=buf_ptr-4*480
020f4     1C A6 05 F1 | 	add	objptr, #28
020f8     D3 BA 61 FC | 	wrlong	_var01, objptr
020fc                 | ' 
020fc                 | ' vzoom:=1
020fc                 | ' repeat i from 0 to timings[12]-1
020fc     00 BC 05 F6 | 	mov	_var02, #0
02100     64 A6 05 F1 | 	add	objptr, #100
02104     D3 BE 01 FB | 	rdlong	_var03, objptr
02108     80 A6 85 F1 | 	sub	objptr, #128
0210c     01 BE 85 F1 | 	sub	_var03, #1
02110     00 BE 5D F2 | 	cmps	_var03, #0 wcz
02114     01 C0 05 16 |  if_a	mov	_var04, #1
02118     01 C0 65 E6 |  if_be	neg	_var04, #1
0211c     E0 BE 01 F1 | 	add	_var03, _var04
02120     30 DA 05 F5 | 	and	arg01, #48
02124     02 DA 45 F0 | 	shr	arg01, #2
02128     30 DF 9F FE | 	loc	pa,	#(@LR__0077-@LR__0076)
0212c     95 00 A0 FD | 	call	#FCACHE_LOAD_
02130                 | LR__0076
02130     DE C2 01 F6 | 	mov	_var05, _var02
02134     01 C2 45 F0 | 	shr	_var05, #1
02138     90 A6 05 F1 | 	add	objptr, #144
0213c     D3 C4 01 FB | 	rdlong	_var06, objptr
02140     90 A6 85 F1 | 	sub	objptr, #144
02144     E1 C4 01 FD | 	qmul	_var06, _var05
02148     18 C6 61 FD | 	getqx	_var07
0214c     02 C6 65 F0 | 	shl	_var07, #2
02150     D3 C8 01 FB | 	rdlong	_var08, objptr
02154     E3 C8 01 F1 | 	add	_var08, _var07
02158                 | '   bufstart:=buf_ptr+4*(cpl*(i>>vzoom))
02158     0C C8 65 F0 | 	shl	_var08, #12
0215c     02 C8 05 F1 | 	add	_var08, #2
02160     ED C8 01 F1 | 	add	_var08, arg01
02164     DE CA 01 F6 | 	mov	_var09, _var02
02168     02 CA 65 F0 | 	shl	_var09, #2
0216c     1C A6 05 F1 | 	add	objptr, #28
02170     D3 CC 01 FB | 	rdlong	_var10, objptr
02174     1C A6 85 F1 | 	sub	objptr, #28
02178     E5 CC 01 F1 | 	add	_var10, _var09
0217c                 | '   long[dl_ptr+4*i]:=(bufstart<<12)+2+(mode &48)>>2
0217c     E6 C8 61 FC | 	wrlong	_var08, _var10
02180     E0 BC 01 F1 | 	add	_var02, _var04
02184     DF BC 09 F2 | 	cmp	_var02, _var03 wz
02188     A4 FF 9F 5D |  if_ne	jmp	#LR__0076
0218c                 | LR__0077
0218c                 | _makedl_ret
0218c     2D 00 64 FD | 	ret
02190                 | hubexit
02190     83 00 80 FD | 	jmp	#cogexit
02194                 | 
02194                 | __system___setbaud
02194     14 1A 06 FB | 	rdlong	muldiva_, #20
02198     ED 1C 02 F6 | 	mov	muldivb_, arg01
0219c     C5 00 A0 FD | 	call	#divide_
021a0     40 7C 64 FD | 	dirl	#62
021a4     40 7E 64 FD | 	dirl	#63
021a8     D5 1C 62 FC | 	wrlong	muldivb_, ptr___system__dat__
021ac     10 1C 66 F0 | 	shl	muldivb_, #16
021b0     07 DC 05 F6 | 	mov	arg02, #7
021b4     0E DD 01 F1 | 	add	arg02, muldivb_
021b8     3E F8 0C FC | 	wrpin	#124, #62
021bc     3E DC 15 FC | 	wxpin	arg02, #62
021c0     3F 7C 0C FC | 	wrpin	#62, #63
021c4     14 DC 05 F1 | 	add	arg02, #20
021c8     3F DC 15 FC | 	wxpin	arg02, #63
021cc     41 7C 64 FD | 	dirh	#62
021d0     41 7E 64 FD | 	dirh	#63
021d4                 | __system___setbaud_ret
021d4     2D 00 64 FD | 	ret
021d8                 | 
021d8                 | __system___txraw
021d8     02 44 05 F6 | 	mov	COUNT_, #2
021dc     A5 00 A0 FD | 	call	#pushregs_
021e0     ED E4 01 F6 | 	mov	local01, arg01
021e4     D5 E6 09 FB | 	rdlong	local02, ptr___system__dat__ wz
021e8     0C 00 90 5D |  if_ne	jmp	#LR__0078
021ec     C2 01 00 FF 
021f0     00 DA 05 F6 | 	mov	arg01, ##230400
021f4     9C FF BF FD | 	call	#__system___setbaud
021f8                 | LR__0078
021f8     3E E4 25 FC | 	wypin	local01, #62
021fc     1F 02 64 FD | 	waitx	#1
02200     04 DE 9F FE | 	loc	pa,	#(@LR__0080-@LR__0079)
02204     95 00 A0 FD | 	call	#FCACHE_LOAD_
02208                 | LR__0079
02208     40 7C 74 FD | 	testp	#62 wc
0220c     F8 FF 9F 3D |  if_nc	jmp	#LR__0079
02210                 | LR__0080
02210     01 B6 05 F6 | 	mov	result1, #1
02214     A4 F0 03 F6 | 	mov	ptra, fp
02218     B4 00 A0 FD | 	call	#popregs_
0221c                 | __system___txraw_ret
0221c     2D 00 64 FD | 	ret
02220                 | 
02220                 | __system____builtin_memset
02220     ED BA 01 F6 | 	mov	_var01, arg01
02224     EE BC 01 F6 | 	mov	_var02, arg02
02228     08 BC 65 F0 | 	shl	_var02, #8
0222c     EE BC 41 F5 | 	or	_var02, arg02
02230     DE BE 01 F6 | 	mov	_var03, _var02
02234     10 BE 65 F0 | 	shl	_var03, #16
02238     DE BE 41 F5 | 	or	_var03, _var02
0223c     D8 DD 9F FE | 	loc	pa,	#(@LR__0082-@LR__0081)
02240     95 00 A0 FD | 	call	#FCACHE_LOAD_
02244                 | LR__0081
02244     03 DE 5D F2 | 	cmps	arg03, #3 wcz
02248     10 00 90 ED |  if_be	jmp	#LR__0083
0224c     ED BE 61 FC | 	wrlong	_var03, arg01
02250     04 DA 05 F1 | 	add	arg01, #4
02254     04 DE 85 F1 | 	sub	arg03, #4
02258     E8 FF 9F FD | 	jmp	#LR__0081
0225c                 | LR__0082
0225c                 | LR__0083
0225c     00 DE 0D F2 | 	cmp	arg03, #0 wz
02260     14 00 90 AD |  if_e	jmp	#LR__0088
02264     A4 DD 9F FE | 	loc	pa,	#(@LR__0086-@LR__0084)
02268     95 00 A0 FD | 	call	#FCACHE_LOAD_
0226c                 | LR__0084
0226c     EF 04 D8 FC | 	rep	@LR__0087, arg03
02270                 | LR__0085
02270     ED DC 41 FC | 	wrbyte	arg02, arg01
02274     01 DA 05 F1 | 	add	arg01, #1
02278                 | LR__0086
02278                 | LR__0087
02278                 | LR__0088
02278     DD B6 01 F6 | 	mov	result1, _var01
0227c                 | __system____builtin_memset_ret
0227c     2D 00 64 FD | 	ret
02280                 | 
02280                 | __system____builtin_memmove
02280     ED BA 01 F6 | 	mov	_var01, arg01
02284     EE DA 59 F2 | 	cmps	arg01, arg02 wcz
02288     50 00 90 3D |  if_ae	jmp	#LR__0096
0228c     90 DD 9F FE | 	loc	pa,	#(@LR__0090-@LR__0089)
02290     95 00 A0 FD | 	call	#FCACHE_LOAD_
02294                 | LR__0089
02294     03 DE 5D F2 | 	cmps	arg03, #3 wcz
02298     18 00 90 ED |  if_be	jmp	#LR__0091
0229c     EE BC 01 FB | 	rdlong	_var02, arg02
022a0     ED BC 61 FC | 	wrlong	_var02, arg01
022a4     04 DA 05 F1 | 	add	arg01, #4
022a8     04 DC 05 F1 | 	add	arg02, #4
022ac     04 DE 85 F1 | 	sub	arg03, #4
022b0     E0 FF 9F FD | 	jmp	#LR__0089
022b4                 | LR__0090
022b4                 | LR__0091
022b4     EF BE 09 F6 | 	mov	_var03, arg03 wz
022b8     4C 00 90 AD |  if_e	jmp	#LR__0102
022bc     54 DD 9F FE | 	loc	pa,	#(@LR__0094-@LR__0092)
022c0     95 00 A0 FD | 	call	#FCACHE_LOAD_
022c4                 | LR__0092
022c4     DF 08 D8 FC | 	rep	@LR__0095, _var03
022c8                 | LR__0093
022c8     EE BC C1 FA | 	rdbyte	_var02, arg02
022cc     ED BC 41 FC | 	wrbyte	_var02, arg01
022d0     01 DA 05 F1 | 	add	arg01, #1
022d4     01 DC 05 F1 | 	add	arg02, #1
022d8                 | LR__0094
022d8                 | LR__0095
022d8     2C 00 90 FD | 	jmp	#LR__0102
022dc                 | LR__0096
022dc     EF DA 01 F1 | 	add	arg01, arg03
022e0     EF DC 01 F1 | 	add	arg02, arg03
022e4     EF C0 09 F6 | 	mov	_var04, arg03 wz
022e8     1C 00 90 AD |  if_e	jmp	#LR__0101
022ec     24 DD 9F FE | 	loc	pa,	#(@LR__0099-@LR__0097)
022f0     95 00 A0 FD | 	call	#FCACHE_LOAD_
022f4                 | LR__0097
022f4     E0 08 D8 FC | 	rep	@LR__0100, _var04
022f8                 | LR__0098
022f8     01 DA 85 F1 | 	sub	arg01, #1
022fc     01 DC 85 F1 | 	sub	arg02, #1
02300     EE BC C1 FA | 	rdbyte	_var02, arg02
02304     ED BC 41 FC | 	wrbyte	_var02, arg01
02308                 | LR__0099
02308                 | LR__0100
02308                 | LR__0101
02308                 | LR__0102
02308     DD B6 01 F6 | 	mov	result1, _var01
0230c                 | __system____builtin_memmove_ret
0230c     2D 00 64 FD | 	ret
02310                 | 
02310                 | __system__longmove
02310     ED BA 01 F6 | 	mov	_var01, arg01
02314     EE DA 59 F2 | 	cmps	arg01, arg02 wcz
02318     28 00 90 3D |  if_ae	jmp	#LR__0107
0231c     EF BC 09 F6 | 	mov	_var02, arg03 wz
02320     54 00 90 AD |  if_e	jmp	#LR__0113
02324     EC DC 9F FE | 	loc	pa,	#(@LR__0105-@LR__0103)
02328     95 00 A0 FD | 	call	#FCACHE_LOAD_
0232c                 | LR__0103
0232c     DE 08 D8 FC | 	rep	@LR__0106, _var02
02330                 | LR__0104
02330     EE BE 01 FB | 	rdlong	_var03, arg02
02334     ED BE 61 FC | 	wrlong	_var03, arg01
02338     04 DA 05 F1 | 	add	arg01, #4
0233c     04 DC 05 F1 | 	add	arg02, #4
02340                 | LR__0105
02340                 | LR__0106
02340     34 00 90 FD | 	jmp	#LR__0113
02344                 | LR__0107
02344     EF C0 01 F6 | 	mov	_var04, arg03
02348     02 C0 65 F0 | 	shl	_var04, #2
0234c     E0 DA 01 F1 | 	add	arg01, _var04
02350     E0 DC 01 F1 | 	add	arg02, _var04
02354     EF C2 09 F6 | 	mov	_var05, arg03 wz
02358     1C 00 90 AD |  if_e	jmp	#LR__0112
0235c     B4 DC 9F FE | 	loc	pa,	#(@LR__0110-@LR__0108)
02360     95 00 A0 FD | 	call	#FCACHE_LOAD_
02364                 | LR__0108
02364     E1 08 D8 FC | 	rep	@LR__0111, _var05
02368                 | LR__0109
02368     04 DA 85 F1 | 	sub	arg01, #4
0236c     04 DC 85 F1 | 	sub	arg02, #4
02370     EE BE 01 FB | 	rdlong	_var03, arg02
02374     ED BE 61 FC | 	wrlong	_var03, arg01
02378                 | LR__0110
02378                 | LR__0111
02378                 | LR__0112
02378                 | LR__0113
02378     DD B6 01 F6 | 	mov	result1, _var01
0237c                 | __system__longmove_ret
0237c     2D 00 64 FD | 	ret
02380                 | 
02380                 | __system____topofstack
02380     00 44 05 F6 | 	mov	COUNT_, #0
02384     A5 00 A0 FD | 	call	#pushregs_
02388     0C F0 07 F1 | 	add	ptra, #12
0238c     04 48 05 F1 | 	add	fp, #4
02390     A4 DA 61 FC | 	wrlong	arg01, fp
02394     A4 B6 01 F6 | 	mov	result1, fp
02398     04 48 85 F1 | 	sub	fp, #4
0239c     A4 F0 03 F6 | 	mov	ptra, fp
023a0     B4 00 A0 FD | 	call	#popregs_
023a4                 | __system____topofstack_ret
023a4     2D 00 64 FD | 	ret
023a8                 | 
023a8                 | __system___make_methodptr
023a8     04 44 05 F6 | 	mov	COUNT_, #4
023ac     A5 00 A0 FD | 	call	#pushregs_
023b0     ED E4 01 F6 | 	mov	local01, arg01
023b4     EE E6 01 F6 | 	mov	local02, arg02
023b8     08 DA 05 F6 | 	mov	arg01, #8
023bc     78 04 B0 FD | 	call	#__system___gc_alloc_managed
023c0     DB E8 09 F6 | 	mov	local03, result1 wz
023c4     10 00 90 AD |  if_e	jmp	#LR__0114
023c8     F4 E4 61 FC | 	wrlong	local01, local03
023cc     F4 EA 01 F6 | 	mov	local04, local03
023d0     04 EA 05 F1 | 	add	local04, #4
023d4     F5 E6 61 FC | 	wrlong	local02, local04
023d8                 | LR__0114
023d8     F4 B6 01 F6 | 	mov	result1, local03
023dc     A4 F0 03 F6 | 	mov	ptra, fp
023e0     B4 00 A0 FD | 	call	#popregs_
023e4                 | __system___make_methodptr_ret
023e4     2D 00 64 FD | 	ret
023e8                 | 
023e8                 | __system___tx
023e8     02 44 05 F6 | 	mov	COUNT_, #2
023ec     A5 00 A0 FD | 	call	#pushregs_
023f0     ED E4 01 F6 | 	mov	local01, arg01
023f4     0A E4 0D F2 | 	cmp	local01, #10 wz
023f8     20 00 90 5D |  if_ne	jmp	#LR__0115
023fc     08 AA 05 F1 | 	add	ptr___system__dat__, #8
02400     D5 E6 01 FB | 	rdlong	local02, ptr___system__dat__
02404     08 AA 85 F1 | 	sub	ptr___system__dat__, #8
02408     02 E6 CD F7 | 	test	local02, #2 wz
0240c     0C 00 90 AD |  if_e	jmp	#LR__0115
02410     0D E6 05 F6 | 	mov	local02, #13
02414     0D DA 05 F6 | 	mov	arg01, #13
02418     BC FD BF FD | 	call	#__system___txraw
0241c                 | LR__0115
0241c     F2 DA 01 F6 | 	mov	arg01, local01
02420     B4 FD BF FD | 	call	#__system___txraw
02424     A4 F0 03 F6 | 	mov	ptra, fp
02428     B4 00 A0 FD | 	call	#popregs_
0242c                 | __system___tx_ret
0242c     2D 00 64 FD | 	ret
02430                 | 
02430                 | __system___lockmem
02430     02 44 05 F6 | 	mov	COUNT_, #2
02434     A5 00 A0 FD | 	call	#pushregs_
02438     D0 B6 01 F6 | 	mov	result1, __lockreg
0243c     DB E4 01 F6 | 	mov	local01, result1
02440     EC DB 9F FE | 	loc	pa,	#(@LR__0118-@LR__0116)
02444     95 00 A0 FD | 	call	#FCACHE_LOAD_
02448                 | LR__0116
02448                 | LR__0117
02448     06 E4 71 FD | 	locktry	local01 wc
0244c     FF FF 7F FF 
02450     FF B7 A5 F5 | 	muxnc	result1, ##-1
02454     00 B6 0D F2 | 	cmp	result1, #0 wz
02458     EC FF 9F 5D |  if_ne	jmp	#LR__0117
0245c     ED E6 C9 FA | 	rdbyte	local02, arg01 wz
02460     ED 02 48 AC |  if_e	wrbyte	#1, arg01
02464     07 E4 71 FD | 	lockrel	local01 wc
02468     FF FF 7F FF 
0246c     FF B7 85 F5 | 	muxc	result1, ##-1
02470     00 E6 0D F2 | 	cmp	local02, #0 wz
02474     D0 FF 9F 5D |  if_ne	jmp	#LR__0116
02478                 | LR__0118
02478     A4 F0 03 F6 | 	mov	ptra, fp
0247c     B4 00 A0 FD | 	call	#popregs_
02480                 | __system___lockmem_ret
02480     2D 00 64 FD | 	ret
02484                 | 
02484                 | __system___waitms
02484     02 44 05 F6 | 	mov	COUNT_, #2
02488     A5 00 A0 FD | 	call	#pushregs_
0248c     ED E4 01 F6 | 	mov	local01, arg01
02490     14 E6 05 FB | 	rdlong	local02, #20
02494     80 DB 9F FE | 	loc	pa,	#(@LR__0120-@LR__0119)
02498     95 00 A0 FD | 	call	#FCACHE_LOAD_
0249c                 | LR__0119
0249c     01 00 00 FF 
024a0     E8 E5 5D F2 | 	cmps	local01, ##1000 wcz
024a4     1F E6 61 1D |  if_a	waitx	local02
024a8     01 00 00 1F 
024ac     E8 E5 85 11 |  if_a	sub	local01, ##1000
024b0     E8 FF 9F 1D |  if_a	jmp	#LR__0119
024b4                 | LR__0120
024b4     00 E4 5D F2 | 	cmps	local01, #0 wcz
024b8     1C 00 90 ED |  if_be	jmp	#LR__0121
024bc     F3 1A 02 F6 | 	mov	muldiva_, local02
024c0     01 00 00 FF 
024c4     E8 1D 06 F6 | 	mov	muldivb_, ##1000
024c8     C5 00 A0 FD | 	call	#divide_
024cc     0E E5 01 FD | 	qmul	local01, muldivb_
024d0     18 DA 61 FD | 	getqx	arg01
024d4     1F DA 61 FD | 	waitx	arg01
024d8                 | LR__0121
024d8     A4 F0 03 F6 | 	mov	ptra, fp
024dc     B4 00 A0 FD | 	call	#popregs_
024e0                 | __system___waitms_ret
024e0     2D 00 64 FD | 	ret
024e4                 | 
024e4                 | __system___waitus
024e4     02 44 05 F6 | 	mov	COUNT_, #2
024e8     A5 00 A0 FD | 	call	#pushregs_
024ec     ED E4 01 F6 | 	mov	local01, arg01
024f0     14 E6 05 FB | 	rdlong	local02, #20
024f4     20 DB 9F FE | 	loc	pa,	#(@LR__0123-@LR__0122)
024f8     95 00 A0 FD | 	call	#FCACHE_LOAD_
024fc                 | LR__0122
024fc     A1 07 00 FF 
02500     40 E4 5D F2 | 	cmps	local01, ##1000000 wcz
02504     1F E6 61 1D |  if_a	waitx	local02
02508     A1 07 00 1F 
0250c     40 E4 85 11 |  if_a	sub	local01, ##1000000
02510     E8 FF 9F 1D |  if_a	jmp	#LR__0122
02514                 | LR__0123
02514     00 E4 5D F2 | 	cmps	local01, #0 wcz
02518     1C 00 90 ED |  if_be	jmp	#LR__0124
0251c     F3 1A 02 F6 | 	mov	muldiva_, local02
02520     A1 07 00 FF 
02524     40 1C 06 F6 | 	mov	muldivb_, ##1000000
02528     C5 00 A0 FD | 	call	#divide_
0252c     0E E5 01 FD | 	qmul	local01, muldivb_
02530     18 DA 61 FD | 	getqx	arg01
02534     1F DA 61 FD | 	waitx	arg01
02538                 | LR__0124
02538     A4 F0 03 F6 | 	mov	ptra, fp
0253c     B4 00 A0 FD | 	call	#popregs_
02540                 | __system___waitus_ret
02540     2D 00 64 FD | 	ret
02544                 | 
02544                 | __system___gc_ptrs
02544     0A 44 05 F6 | 	mov	COUNT_, #10
02548     A5 00 A0 FD | 	call	#pushregs_
0254c     CF E4 01 F6 | 	mov	local01, __heap_ptr
02550     F2 E6 01 F6 | 	mov	local02, local01
02554     07 00 00 FF 
02558     F8 E7 05 F1 | 	add	local02, ##4088
0255c     F2 E8 09 FB | 	rdlong	local03, local01 wz
02560     74 00 90 5D |  if_ne	jmp	#LR__0125
02564     F3 EA 01 F6 | 	mov	local04, local02
02568     F2 EA 81 F1 | 	sub	local04, local01
0256c     F2 02 58 FC | 	wrword	#1, local01
02570     F2 EC 01 F6 | 	mov	local05, local01
02574     02 EC 05 F1 | 	add	local05, #2
02578     36 00 80 FF 
0257c     F6 20 59 FC | 	wrword	##27792, local05
02580     F2 EE 01 F6 | 	mov	local06, local01
02584     04 EE 05 F1 | 	add	local06, #4
02588     F7 00 58 FC | 	wrword	#0, local06
0258c     F2 F0 01 F6 | 	mov	local07, local01
02590     06 F0 05 F1 | 	add	local07, #6
02594     F8 02 58 FC | 	wrword	#1, local07
02598     10 E4 05 F1 | 	add	local01, #16
0259c     F5 E8 51 F6 | 	abs	local03, local04 wc
025a0     04 E8 45 F0 | 	shr	local03, #4
025a4     F4 E8 61 C6 |  if_b	neg	local03, local03
025a8     F2 E8 51 FC | 	wrword	local03, local01
025ac     F2 F2 01 F6 | 	mov	local08, local01
025b0     02 F2 05 F1 | 	add	local08, #2
025b4     36 00 80 FF 
025b8     F9 1E 59 FC | 	wrword	##27791, local08
025bc     F2 F4 01 F6 | 	mov	local09, local01
025c0     04 F4 05 F1 | 	add	local09, #4
025c4     FA 00 58 FC | 	wrword	#0, local09
025c8     F2 F6 01 F6 | 	mov	local10, local01
025cc     06 F6 05 F1 | 	add	local10, #6
025d0     FB 00 58 FC | 	wrword	#0, local10
025d4     10 E4 85 F1 | 	sub	local01, #16
025d8                 | LR__0125
025d8     F3 B8 01 F6 | 	mov	result2, local02
025dc     F2 B6 01 F6 | 	mov	result1, local01
025e0     A4 F0 03 F6 | 	mov	ptra, fp
025e4     B4 00 A0 FD | 	call	#popregs_
025e8                 | __system___gc_ptrs_ret
025e8     2D 00 64 FD | 	ret
025ec                 | 
025ec                 | __system___gc_nextBlockPtr
025ec     02 44 05 F6 | 	mov	COUNT_, #2
025f0     A5 00 A0 FD | 	call	#pushregs_
025f4     ED E4 01 F6 | 	mov	local01, arg01
025f8     F2 E6 E9 FA | 	rdword	local02, local01 wz
025fc     10 00 90 5D |  if_ne	jmp	#LR__0126
02600     16 00 00 FF 
02604     EC DB 05 F6 | 	mov	arg01, ##@LR__0169
02608     F8 01 B0 FD | 	call	#__system___gc_errmsg
0260c     0C 00 90 FD | 	jmp	#LR__0127
02610                 | LR__0126
02610     04 E6 65 F0 | 	shl	local02, #4
02614     F2 B6 01 F6 | 	mov	result1, local01
02618     F3 B6 01 F1 | 	add	result1, local02
0261c                 | LR__0127
0261c     A4 F0 03 F6 | 	mov	ptra, fp
02620     B4 00 A0 FD | 	call	#popregs_
02624                 | __system___gc_nextBlockPtr_ret
02624     2D 00 64 FD | 	ret
02628                 | 
02628                 | __system___gc_tryalloc
02628     1B 44 05 F6 | 	mov	COUNT_, #27
0262c     A5 00 A0 FD | 	call	#pushregs_
02630     ED E4 01 F6 | 	mov	local01, arg01
02634     EE E6 01 F6 | 	mov	local02, arg02
02638     08 FF BF FD | 	call	#__system___gc_ptrs
0263c     DB E8 01 F6 | 	mov	local03, result1
02640     DC EA 01 F6 | 	mov	local04, result2
02644     F4 EC 01 F6 | 	mov	local05, local03
02648     00 EE 05 F6 | 	mov	local06, #0
0264c     08 DA 9F FE | 	loc	pa,	#(@LR__0129-@LR__0128)
02650     95 00 A0 FD | 	call	#FCACHE_LOAD_
02654                 | LR__0128
02654     F6 F0 01 F6 | 	mov	local07, local05
02658     06 EC 05 F1 | 	add	local05, #6
0265c     F6 F2 01 F6 | 	mov	local08, local05
02660     F4 F4 01 F6 | 	mov	local09, local03
02664     F9 F6 E1 FA | 	rdword	local10, local08
02668     FA DA 01 F6 | 	mov	arg01, local09
0266c     FB DC 09 F6 | 	mov	arg02, local10 wz
02670     00 B6 05 A6 |  if_e	mov	result1, #0
02674     04 DC 65 50 |  if_ne	shl	arg02, #4
02678     EE DA 01 51 |  if_ne	add	arg01, arg02
0267c     ED B6 01 56 |  if_ne	mov	result1, arg01
02680     DB F8 01 F6 | 	mov	local11, result1
02684     FC EC 09 F6 | 	mov	local05, local11 wz
02688     F6 F4 01 56 |  if_ne	mov	local09, local05
0268c     FA FA 01 56 |  if_ne	mov	local12, local09
02690     FD EE E1 5A |  if_ne	rdword	local06, local12
02694     00 EC 0D F2 | 	cmp	local05, #0 wz
02698     10 00 90 AD |  if_e	jmp	#LR__0130
0269c     F5 EC 59 F2 | 	cmps	local05, local04 wcz
026a0     08 00 90 3D |  if_ae	jmp	#LR__0130
026a4     F7 E4 59 F2 | 	cmps	local01, local06 wcz
026a8     A8 FF 9F 1D |  if_a	jmp	#LR__0128
026ac                 | LR__0129
026ac                 | LR__0130
026ac     00 EC 0D F2 | 	cmp	local05, #0 wz
026b0     F6 B6 01 A6 |  if_e	mov	result1, local05
026b4     40 01 90 AD |  if_e	jmp	#LR__0133
026b8     F6 FC 01 F6 | 	mov	local13, local05
026bc     06 FC 05 F1 | 	add	local13, #6
026c0     FE FE E1 FA | 	rdword	local14, local13
026c4     F7 E4 59 F2 | 	cmps	local01, local06 wcz
026c8     CC 00 90 3D |  if_ae	jmp	#LR__0132
026cc     F6 00 02 F6 | 	mov	local15, local05
026d0     00 E5 51 FC | 	wrword	local01, local15
026d4     F2 02 02 F6 | 	mov	local16, local01
026d8     04 02 66 F0 | 	shl	local16, #4
026dc     F6 04 02 F6 | 	mov	local17, local05
026e0     01 05 02 F1 | 	add	local17, local16
026e4     F7 06 02 F6 | 	mov	local18, local06
026e8     F2 06 82 F1 | 	sub	local18, local01
026ec     02 09 02 F6 | 	mov	local19, local17
026f0     04 07 52 FC | 	wrword	local18, local19
026f4     02 0B 02 F6 | 	mov	local20, local17
026f8     02 0A 06 F1 | 	add	local20, #2
026fc     36 00 80 FF 
02700     05 1F 59 FC | 	wrword	##27791, local20
02704     02 0D 02 F6 | 	mov	local21, local17
02708     04 0C 06 F1 | 	add	local21, #4
0270c     F6 DC 09 F6 | 	mov	arg02, local05 wz
02710     00 B6 05 A6 |  if_e	mov	result1, #0
02714     F4 DC 81 51 |  if_ne	sub	arg02, local03
02718     04 DC 45 50 |  if_ne	shr	arg02, #4
0271c     EE B6 01 56 |  if_ne	mov	result1, arg02
02720     06 B7 51 FC | 	wrword	result1, local21
02724     02 0F 02 F6 | 	mov	local22, local17
02728     FE F4 E1 FA | 	rdword	local09, local13
0272c     06 0E 06 F1 | 	add	local22, #6
02730     07 F5 51 FC | 	wrword	local09, local22
02734     02 11 02 F6 | 	mov	local23, local17
02738     08 DD 09 F6 | 	mov	arg02, local23 wz
0273c     00 B6 05 A6 |  if_e	mov	result1, #0
02740     F4 DC 81 51 |  if_ne	sub	arg02, local03
02744     04 DC 45 50 |  if_ne	shr	arg02, #4
02748     EE B6 01 56 |  if_ne	mov	result1, arg02
0274c     DB FE 01 F6 | 	mov	local14, result1
02750     02 DB 01 F6 | 	mov	arg01, local17
02754     94 FE BF FD | 	call	#__system___gc_nextBlockPtr
02758     DB 12 0A F6 | 	mov	local24, result1 wz
0275c     38 00 90 AD |  if_e	jmp	#LR__0131
02760     F5 12 5A F2 | 	cmps	local24, local04 wcz
02764     30 00 90 3D |  if_ae	jmp	#LR__0131
02768     09 15 02 F6 | 	mov	local25, local24
0276c     04 14 06 F1 | 	add	local25, #4
02770     F4 F4 01 F6 | 	mov	local09, local03
02774     08 F7 01 F6 | 	mov	local10, local23
02778     FA DA 01 F6 | 	mov	arg01, local09
0277c     FB DC 09 F6 | 	mov	arg02, local10 wz
02780     00 B6 05 A6 |  if_e	mov	result1, #0
02784     ED DC 81 51 |  if_ne	sub	arg02, arg01
02788     04 DC 45 50 |  if_ne	shr	arg02, #4
0278c     EE B6 01 56 |  if_ne	mov	result1, arg02
02790     DB F8 01 F6 | 	mov	local11, result1
02794     0A F9 51 FC | 	wrword	local11, local25
02798                 | LR__0131
02798                 | LR__0132
02798     06 F0 05 F1 | 	add	local07, #6
0279c     F8 FE 51 FC | 	wrword	local14, local07
027a0     36 00 00 FF 
027a4     80 F4 05 F6 | 	mov	local09, ##27776
027a8     F3 F4 41 F5 | 	or	local09, local02
027ac     F6 16 02 F6 | 	mov	local26, local05
027b0     02 16 06 F1 | 	add	local26, #2
027b4     01 B6 61 FD | 	cogid	result1
027b8     DB F4 41 F5 | 	or	local09, result1
027bc     0B F5 51 FC | 	wrword	local09, local26
027c0     F4 18 02 F6 | 	mov	local27, local03
027c4     08 18 06 F1 | 	add	local27, #8
027c8     0C F5 E1 FA | 	rdword	local09, local27
027cc     FE F4 51 FC | 	wrword	local09, local13
027d0     F6 DC 09 F6 | 	mov	arg02, local05 wz
027d4     00 B6 05 A6 |  if_e	mov	result1, #0
027d8     F4 DC 81 51 |  if_ne	sub	arg02, local03
027dc     04 DC 45 50 |  if_ne	shr	arg02, #4
027e0     EE B6 01 56 |  if_ne	mov	result1, arg02
027e4     0C B7 51 FC | 	wrword	result1, local27
027e8     08 EC 05 F1 | 	add	local05, #8
027ec     F6 B6 01 F6 | 	mov	result1, local05
027f0     00 C0 31 FF 
027f4     00 B6 45 F5 | 	or	result1, ##1669332992
027f8                 | LR__0133
027f8     A4 F0 03 F6 | 	mov	ptra, fp
027fc     B4 00 A0 FD | 	call	#popregs_
02800                 | __system___gc_tryalloc_ret
02800     2D 00 64 FD | 	ret
02804                 | 
02804                 | __system___gc_errmsg
02804     02 44 05 F6 | 	mov	COUNT_, #2
02808     A5 00 A0 FD | 	call	#pushregs_
0280c     ED E4 01 F6 | 	mov	local01, arg01
02810                 | LR__0134
02810     F2 E6 C9 FA | 	rdbyte	local02, local01 wz
02814     01 E4 05 F1 | 	add	local01, #1
02818     0C 00 90 AD |  if_e	jmp	#LR__0135
0281c     F3 DA 01 F6 | 	mov	arg01, local02
02820     C4 FB BF FD | 	call	#__system___tx
02824     E8 FF 9F FD | 	jmp	#LR__0134
02828                 | LR__0135
02828     00 B6 05 F6 | 	mov	result1, #0
0282c     A4 F0 03 F6 | 	mov	ptra, fp
02830     B4 00 A0 FD | 	call	#popregs_
02834                 | __system___gc_errmsg_ret
02834     2D 00 64 FD | 	ret
02838                 | 
02838                 | __system___gc_alloc_managed
02838     02 44 05 F6 | 	mov	COUNT_, #2
0283c     A5 00 A0 FD | 	call	#pushregs_
02840     ED E4 01 F6 | 	mov	local01, arg01
02844     00 DC 05 F6 | 	mov	arg02, #0
02848     30 00 B0 FD | 	call	#__system___gc_doalloc
0284c     DB E6 09 F6 | 	mov	local02, result1 wz
02850     18 00 90 5D |  if_ne	jmp	#LR__0136
02854     00 E4 5D F2 | 	cmps	local01, #0 wcz
02858     10 00 90 ED |  if_be	jmp	#LR__0136
0285c     17 00 00 FF 
02860     08 DA 05 F6 | 	mov	arg01, ##@LR__0170
02864     9C FF BF FD | 	call	#__system___gc_errmsg
02868     04 00 90 FD | 	jmp	#LR__0137
0286c                 | LR__0136
0286c     F3 B6 01 F6 | 	mov	result1, local02
02870                 | LR__0137
02870     A4 F0 03 F6 | 	mov	ptra, fp
02874     B4 00 A0 FD | 	call	#popregs_
02878                 | __system___gc_alloc_managed_ret
02878     2D 00 64 FD | 	ret
0287c                 | 
0287c                 | __system___gc_doalloc
0287c     07 44 05 F6 | 	mov	COUNT_, #7
02880     A5 00 A0 FD | 	call	#pushregs_
02884     ED E4 09 F6 | 	mov	local01, arg01 wz
02888     EE E6 01 F6 | 	mov	local02, arg02
0288c     00 B6 05 A6 |  if_e	mov	result1, #0
02890     8C 00 90 AD |  if_e	jmp	#LR__0145
02894     17 E4 05 F1 | 	add	local01, #23
02898     0F E4 25 F5 | 	andn	local01, #15
0289c     04 E4 45 F0 | 	shr	local01, #4
028a0     0C AA 05 F1 | 	add	ptr___system__dat__, #12
028a4     D5 E8 01 F6 | 	mov	local03, ptr___system__dat__
028a8     F4 DA 01 F6 | 	mov	arg01, local03
028ac     0C AA 85 F1 | 	sub	ptr___system__dat__, #12
028b0     7C FB BF FD | 	call	#__system___lockmem
028b4     F2 DA 01 F6 | 	mov	arg01, local01
028b8     F3 DC 01 F6 | 	mov	arg02, local02
028bc     68 FD BF FD | 	call	#__system___gc_tryalloc
028c0     DB EA 09 F6 | 	mov	local04, result1 wz
028c4     14 00 90 5D |  if_ne	jmp	#LR__0138
028c8     10 03 B0 FD | 	call	#__system___gc_docollect
028cc     F2 DA 01 F6 | 	mov	arg01, local01
028d0     F3 DC 01 F6 | 	mov	arg02, local02
028d4     50 FD BF FD | 	call	#__system___gc_tryalloc
028d8     DB EA 01 F6 | 	mov	local04, result1
028dc                 | LR__0138
028dc     F4 00 48 FC | 	wrbyte	#0, local03
028e0     00 EA 0D F2 | 	cmp	local04, #0 wz
028e4     34 00 90 AD |  if_e	jmp	#LR__0144
028e8     04 E4 65 F0 | 	shl	local01, #4
028ec     08 E4 85 F1 | 	sub	local01, #8
028f0     F2 EC 51 F6 | 	abs	local05, local01 wc
028f4     02 EC 45 F0 | 	shr	local05, #2
028f8     F6 EC 61 C6 |  if_b	neg	local05, local05
028fc     F6 EE 09 F6 | 	mov	local06, local05 wz
02900     F5 F0 01 F6 | 	mov	local07, local04
02904     14 00 90 AD |  if_e	jmp	#LR__0143
02908     00 D7 9F FE | 	loc	pa,	#(@LR__0141-@LR__0139)
0290c     95 00 A0 FD | 	call	#FCACHE_LOAD_
02910                 | LR__0139
02910     F7 04 D8 FC | 	rep	@LR__0142, local06
02914                 | LR__0140
02914     F8 00 68 FC | 	wrlong	#0, local07
02918     04 F0 05 F1 | 	add	local07, #4
0291c                 | LR__0141
0291c                 | LR__0142
0291c                 | LR__0143
0291c                 | LR__0144
0291c     F5 B6 01 F6 | 	mov	result1, local04
02920                 | LR__0145
02920     A4 F0 03 F6 | 	mov	ptra, fp
02924     B4 00 A0 FD | 	call	#popregs_
02928                 | __system___gc_doalloc_ret
02928     2D 00 64 FD | 	ret
0292c                 | 
0292c                 | __system___gc_isvalidptr
0292c     EF BA 01 F6 | 	mov	_var01, arg03
02930     DD BC 01 F6 | 	mov	_var02, _var01
02934     00 F8 7F FF 
02938     00 BC 05 F5 | 	and	_var02, ##-1048576
0293c     00 C0 31 FF 
02940     00 BC 0D F2 | 	cmp	_var02, ##1669332992 wz
02944     00 B6 05 56 |  if_ne	mov	result1, #0
02948     60 00 90 5D |  if_ne	jmp	#__system___gc_isvalidptr_ret
0294c     08 BA 85 F1 | 	sub	_var01, #8
02950     DD BE 01 F6 | 	mov	_var03, _var01
02954     00 F8 7F FF 
02958     00 BE 25 F5 | 	andn	_var03, ##-1048576
0295c     ED BE 59 F2 | 	cmps	_var03, arg01 wcz
02960     08 00 90 CD |  if_b	jmp	#LR__0146
02964     EE BE 59 F2 | 	cmps	_var03, arg02 wcz
02968     08 00 90 CD |  if_b	jmp	#LR__0147
0296c                 | LR__0146
0296c     00 B6 05 F6 | 	mov	result1, #0
02970     38 00 90 FD | 	jmp	#__system___gc_isvalidptr_ret
02974                 | LR__0147
02974     DF BC 01 F6 | 	mov	_var02, _var03
02978     ED BC 61 F5 | 	xor	_var02, arg01
0297c     0F BC 0D F5 | 	and	_var02, #15 wz
02980     00 B6 05 56 |  if_ne	mov	result1, #0
02984     24 00 90 5D |  if_ne	jmp	#__system___gc_isvalidptr_ret
02988     DF C0 01 F6 | 	mov	_var04, _var03
0298c     02 C0 05 F1 | 	add	_var04, #2
02990     E0 BC E1 FA | 	rdword	_var02, _var04
02994     7F 00 00 FF 
02998     C0 BD 05 F5 | 	and	_var02, ##65472
0299c     36 00 00 FF 
029a0     80 BC 0D F2 | 	cmp	_var02, ##27776 wz
029a4     00 B6 05 56 |  if_ne	mov	result1, #0
029a8     DF B6 01 A6 |  if_e	mov	result1, _var03
029ac                 | __system___gc_isvalidptr_ret
029ac     2D 00 64 FD | 	ret
029b0                 | 
029b0                 | __system___gc_dofree
029b0     1A 44 05 F6 | 	mov	COUNT_, #26
029b4     A5 00 A0 FD | 	call	#pushregs_
029b8     ED E4 01 F6 | 	mov	local01, arg01
029bc     84 FB BF FD | 	call	#__system___gc_ptrs
029c0     DC E6 01 F6 | 	mov	local02, result2
029c4     DB E8 01 F6 | 	mov	local03, result1
029c8     F2 EA 01 F6 | 	mov	local04, local01
029cc     02 EA 05 F1 | 	add	local04, #2
029d0     36 00 80 FF 
029d4     F5 1E 59 FC | 	wrword	##27791, local04
029d8     F2 EC 01 F6 | 	mov	local05, local01
029dc     F2 DA 01 F6 | 	mov	arg01, local01
029e0     08 FC BF FD | 	call	#__system___gc_nextBlockPtr
029e4     DB EE 01 F6 | 	mov	local06, result1
029e8     64 D6 9F FE | 	loc	pa,	#(@LR__0149-@LR__0148)
029ec     95 00 A0 FD | 	call	#FCACHE_LOAD_
029f0                 | LR__0148
029f0     04 EC 05 F1 | 	add	local05, #4
029f4     F6 F0 01 F6 | 	mov	local07, local05
029f8     F8 DC E9 FA | 	rdword	arg02, local07 wz
029fc     F4 DA 01 F6 | 	mov	arg01, local03
02a00     00 B6 05 A6 |  if_e	mov	result1, #0
02a04     04 DC 65 50 |  if_ne	shl	arg02, #4
02a08     EE DA 01 51 |  if_ne	add	arg01, arg02
02a0c     ED B6 01 56 |  if_ne	mov	result1, arg01
02a10     DB EC 09 F6 | 	mov	local05, result1 wz
02a14     28 00 90 AD |  if_e	jmp	#LR__0150
02a18     F6 DA 01 F6 | 	mov	arg01, local05
02a1c     00 F2 05 F6 | 	mov	local08, #0
02a20     02 DA 05 F1 | 	add	arg01, #2
02a24     ED F4 E1 FA | 	rdword	local09, arg01
02a28     36 00 00 FF 
02a2c     8F F4 0D F2 | 	cmp	local09, ##27791 wz
02a30     01 F2 65 A6 |  if_e	neg	local08, #1
02a34     F9 B6 01 F6 | 	mov	result1, local08
02a38     DB F6 09 F6 | 	mov	local10, result1 wz
02a3c     B0 FF 9F AD |  if_e	jmp	#LR__0148
02a40                 | LR__0149
02a40                 | LR__0150
02a40     00 EC 0D F2 | 	cmp	local05, #0 wz
02a44     F4 EC 01 A6 |  if_e	mov	local05, local03
02a48     F6 F8 01 F6 | 	mov	local11, local05
02a4c     06 F8 05 F1 | 	add	local11, #6
02a50     F2 FA 01 F6 | 	mov	local12, local01
02a54     FC FC E1 FA | 	rdword	local13, local11
02a58     06 FA 05 F1 | 	add	local12, #6
02a5c     FD FC 51 FC | 	wrword	local13, local12
02a60     F2 DC 09 F6 | 	mov	arg02, local01 wz
02a64     00 B6 05 A6 |  if_e	mov	result1, #0
02a68     F4 DC 81 51 |  if_ne	sub	arg02, local03
02a6c     04 DC 45 50 |  if_ne	shr	arg02, #4
02a70     EE B6 01 56 |  if_ne	mov	result1, arg02
02a74     DB FE 01 F6 | 	mov	local14, result1
02a78     FC FE 51 FC | 	wrword	local14, local11
02a7c     F4 EC 09 F2 | 	cmp	local05, local03 wz
02a80     74 00 90 AD |  if_e	jmp	#LR__0153
02a84     F6 DA 01 F6 | 	mov	arg01, local05
02a88     60 FB BF FD | 	call	#__system___gc_nextBlockPtr
02a8c     F2 B6 09 F2 | 	cmp	result1, local01 wz
02a90     64 00 90 5D |  if_ne	jmp	#LR__0152
02a94     F6 00 02 F6 | 	mov	local15, local05
02a98     00 03 E2 FA | 	rdword	local16, local15
02a9c     F2 04 02 F6 | 	mov	local17, local01
02aa0     02 F7 E1 FA | 	rdword	local10, local17
02aa4     FB 02 02 F1 | 	add	local16, local10
02aa8     00 03 52 FC | 	wrword	local16, local15
02aac     F5 00 58 FC | 	wrword	#0, local04
02ab0     F2 DA 01 F6 | 	mov	arg01, local01
02ab4     34 FB BF FD | 	call	#__system___gc_nextBlockPtr
02ab8     DB EE 01 F6 | 	mov	local06, result1
02abc     F3 EE 59 F2 | 	cmps	local06, local02 wcz
02ac0     24 00 90 3D |  if_ae	jmp	#LR__0151
02ac4     F7 06 02 F6 | 	mov	local18, local06
02ac8     04 06 06 F1 | 	add	local18, #4
02acc     F6 DC 09 F6 | 	mov	arg02, local05 wz
02ad0     00 B6 05 A6 |  if_e	mov	result1, #0
02ad4     F4 DC 81 51 |  if_ne	sub	arg02, local03
02ad8     04 DC 45 50 |  if_ne	shr	arg02, #4
02adc     EE B6 01 56 |  if_ne	mov	result1, arg02
02ae0     DB FE 01 F6 | 	mov	local14, result1
02ae4     03 FF 51 FC | 	wrword	local14, local18
02ae8                 | LR__0151
02ae8     FD FC E1 FA | 	rdword	local13, local12
02aec     FC FC 51 FC | 	wrword	local13, local11
02af0     FD 00 58 FC | 	wrword	#0, local12
02af4     F6 E4 01 F6 | 	mov	local01, local05
02af8                 | LR__0152
02af8                 | LR__0153
02af8     F2 DA 01 F6 | 	mov	arg01, local01
02afc     EC FA BF FD | 	call	#__system___gc_nextBlockPtr
02b00     DB 08 0A F6 | 	mov	local19, result1 wz
02b04     C4 00 90 AD |  if_e	jmp	#LR__0155
02b08     F3 08 5A F2 | 	cmps	local19, local02 wcz
02b0c     BC 00 90 3D |  if_ae	jmp	#LR__0155
02b10     04 DB 01 F6 | 	mov	arg01, local19
02b14     00 F2 05 F6 | 	mov	local08, #0
02b18     02 DA 05 F1 | 	add	arg01, #2
02b1c     ED F4 E1 FA | 	rdword	local09, arg01
02b20     36 00 00 FF 
02b24     8F F4 0D F2 | 	cmp	local09, ##27791 wz
02b28     01 F2 65 A6 |  if_e	neg	local08, #1
02b2c     F9 B6 09 F6 | 	mov	result1, local08 wz
02b30     98 00 90 AD |  if_e	jmp	#LR__0155
02b34     F2 EC 01 F6 | 	mov	local05, local01
02b38     04 E5 01 F6 | 	mov	local01, local19
02b3c     F6 0A 02 F6 | 	mov	local20, local05
02b40     05 0D E2 FA | 	rdword	local21, local20
02b44     F2 0E 02 F6 | 	mov	local22, local01
02b48     07 F7 E1 FA | 	rdword	local10, local22
02b4c     FB 0C 02 F1 | 	add	local21, local10
02b50     05 0D 52 FC | 	wrword	local21, local20
02b54     F2 10 02 F6 | 	mov	local23, local01
02b58     06 10 06 F1 | 	add	local23, #6
02b5c     F6 12 02 F6 | 	mov	local24, local05
02b60     08 FD E1 FA | 	rdword	local13, local23
02b64     06 12 06 F1 | 	add	local24, #6
02b68     09 FD 51 FC | 	wrword	local13, local24
02b6c     F2 14 02 F6 | 	mov	local25, local01
02b70     02 14 06 F1 | 	add	local25, #2
02b74     0A 55 59 FC | 	wrword	#170, local25
02b78     08 01 58 FC | 	wrword	#0, local23
02b7c     F2 FC 01 F6 | 	mov	local13, local01
02b80     FE DA 01 F6 | 	mov	arg01, local13
02b84     64 FA BF FD | 	call	#__system___gc_nextBlockPtr
02b88     DB F6 01 F6 | 	mov	local10, result1
02b8c     FB EE 09 F6 | 	mov	local06, local10 wz
02b90     38 00 90 AD |  if_e	jmp	#LR__0154
02b94     F3 EE 59 F2 | 	cmps	local06, local02 wcz
02b98     30 00 90 3D |  if_ae	jmp	#LR__0154
02b9c     F7 16 02 F6 | 	mov	local26, local06
02ba0     04 16 06 F1 | 	add	local26, #4
02ba4     F4 FC 01 F6 | 	mov	local13, local03
02ba8     F6 F6 01 F6 | 	mov	local10, local05
02bac     FE DA 01 F6 | 	mov	arg01, local13
02bb0     FB DC 09 F6 | 	mov	arg02, local10 wz
02bb4     00 B6 05 A6 |  if_e	mov	result1, #0
02bb8     ED DC 81 51 |  if_ne	sub	arg02, arg01
02bbc     04 DC 45 50 |  if_ne	shr	arg02, #4
02bc0     EE B6 01 56 |  if_ne	mov	result1, arg02
02bc4     DB FE 01 F6 | 	mov	local14, result1
02bc8     0B FF 51 FC | 	wrword	local14, local26
02bcc                 | LR__0154
02bcc                 | LR__0155
02bcc     F7 B6 01 F6 | 	mov	result1, local06
02bd0     A4 F0 03 F6 | 	mov	ptra, fp
02bd4     B4 00 A0 FD | 	call	#popregs_
02bd8                 | __system___gc_dofree_ret
02bd8     2D 00 64 FD | 	ret
02bdc                 | 
02bdc                 | __system___gc_docollect
02bdc     0C 44 05 F6 | 	mov	COUNT_, #12
02be0     A5 00 A0 FD | 	call	#pushregs_
02be4     5C F9 BF FD | 	call	#__system___gc_ptrs
02be8     DC E4 01 F6 | 	mov	local01, result2
02bec     DB E6 01 F6 | 	mov	local02, result1
02bf0     F3 DA 01 F6 | 	mov	arg01, local02
02bf4     F4 F9 BF FD | 	call	#__system___gc_nextBlockPtr
02bf8     DB E8 09 F6 | 	mov	local03, result1 wz
02bfc     01 B6 61 FD | 	cogid	result1
02c00     DB EA 01 F6 | 	mov	local04, result1
02c04     2C 00 90 AD |  if_e	jmp	#LR__0157
02c08                 | LR__0156
02c08     F2 E8 59 F2 | 	cmps	local03, local01 wcz
02c0c     24 00 90 3D |  if_ae	jmp	#LR__0157
02c10     F4 EC 01 F6 | 	mov	local05, local03
02c14     02 EC 05 F1 | 	add	local05, #2
02c18     F6 EE E1 FA | 	rdword	local06, local05
02c1c     20 EE 25 F5 | 	andn	local06, #32
02c20     F6 EE 51 FC | 	wrword	local06, local05
02c24     F4 DA 01 F6 | 	mov	arg01, local03
02c28     C0 F9 BF FD | 	call	#__system___gc_nextBlockPtr
02c2c     DB E8 09 F6 | 	mov	local03, result1 wz
02c30     D4 FF 9F 5D |  if_ne	jmp	#LR__0156
02c34                 | LR__0157
02c34     00 F0 05 F6 | 	mov	local07, #0
02c38     00 DA 05 F6 | 	mov	arg01, #0
02c3c     40 F7 BF FD | 	call	#__system____topofstack
02c40     DB F2 01 F6 | 	mov	local08, result1
02c44     F8 DA 01 F6 | 	mov	arg01, local07
02c48     F9 DC 01 F6 | 	mov	arg02, local08
02c4c     A0 00 B0 FD | 	call	#__system___gc_markhub
02c50     2C 01 B0 FD | 	call	#__system___gc_markcog
02c54     F3 DA 01 F6 | 	mov	arg01, local02
02c58     90 F9 BF FD | 	call	#__system___gc_nextBlockPtr
02c5c     DB F4 09 F6 | 	mov	local09, result1 wz
02c60     10 00 90 5D |  if_ne	jmp	#LR__0158
02c64     17 00 00 FF 
02c68     25 DA 05 F6 | 	mov	arg01, ##@LR__0171
02c6c     94 FB BF FD | 	call	#__system___gc_errmsg
02c70     70 00 90 FD | 	jmp	#LR__0164
02c74                 | LR__0158
02c74                 | LR__0159
02c74     FA E8 01 F6 | 	mov	local03, local09
02c78     F4 DA 01 F6 | 	mov	arg01, local03
02c7c     6C F9 BF FD | 	call	#__system___gc_nextBlockPtr
02c80     DB F4 01 F6 | 	mov	local09, result1
02c84     F4 F6 01 F6 | 	mov	local10, local03
02c88     02 F6 05 F1 | 	add	local10, #2
02c8c     FB F8 E1 FA | 	rdword	local11, local10
02c90     20 F8 CD F7 | 	test	local11, #32 wz
02c94     3C 00 90 5D |  if_ne	jmp	#LR__0162
02c98     FC FA 01 F6 | 	mov	local12, local11
02c9c     10 FA 0D F5 | 	and	local12, #16 wz
02ca0     30 00 90 5D |  if_ne	jmp	#LR__0162
02ca4     FC F0 01 F6 | 	mov	local07, local11
02ca8     0F F0 05 F5 | 	and	local07, #15
02cac     F8 F8 01 F6 | 	mov	local11, local07
02cb0     F5 F8 09 F2 | 	cmp	local11, local04 wz
02cb4     08 00 90 AD |  if_e	jmp	#LR__0160
02cb8     0E F8 0D F2 | 	cmp	local11, #14 wz
02cbc     14 00 90 5D |  if_ne	jmp	#LR__0161
02cc0                 | LR__0160
02cc0     F4 F0 01 F6 | 	mov	local07, local03
02cc4     F8 DA 01 F6 | 	mov	arg01, local07
02cc8     E4 FC BF FD | 	call	#__system___gc_dofree
02ccc     DB FA 01 F6 | 	mov	local12, result1
02cd0     FD F4 01 F6 | 	mov	local09, local12
02cd4                 | LR__0161
02cd4                 | LR__0162
02cd4     00 F4 0D F2 | 	cmp	local09, #0 wz
02cd8     08 00 90 AD |  if_e	jmp	#LR__0163
02cdc     F2 F4 59 F2 | 	cmps	local09, local01 wcz
02ce0     90 FF 9F CD |  if_b	jmp	#LR__0159
02ce4                 | LR__0163
02ce4                 | LR__0164
02ce4     A4 F0 03 F6 | 	mov	ptra, fp
02ce8     B4 00 A0 FD | 	call	#popregs_
02cec                 | __system___gc_docollect_ret
02cec     2D 00 64 FD | 	ret
02cf0                 | 
02cf0                 | __system___gc_markhub
02cf0     0A 44 05 F6 | 	mov	COUNT_, #10
02cf4     A5 00 A0 FD | 	call	#pushregs_
02cf8     ED E4 01 F6 | 	mov	local01, arg01
02cfc     EE E6 01 F6 | 	mov	local02, arg02
02d00     40 F8 BF FD | 	call	#__system___gc_ptrs
02d04     DB E8 01 F6 | 	mov	local03, result1
02d08     DC EA 01 F6 | 	mov	local04, result2
02d0c                 | LR__0165
02d0c     F3 E4 59 F2 | 	cmps	local01, local02 wcz
02d10     60 00 90 3D |  if_ae	jmp	#LR__0166
02d14     F2 DE 01 FB | 	rdlong	arg03, local01
02d18     04 E4 05 F1 | 	add	local01, #4
02d1c     F4 DA 01 F6 | 	mov	arg01, local03
02d20     F5 DC 01 F6 | 	mov	arg02, local04
02d24     04 FC BF FD | 	call	#__system___gc_isvalidptr
02d28     DB EC 09 F6 | 	mov	local05, result1 wz
02d2c     DC FF 9F AD |  if_e	jmp	#LR__0165
02d30     F6 DA 01 F6 | 	mov	arg01, local05
02d34     00 EE 05 F6 | 	mov	local06, #0
02d38     02 DA 05 F1 | 	add	arg01, #2
02d3c     ED F0 E1 FA | 	rdword	local07, arg01
02d40     36 00 00 FF 
02d44     8F F0 0D F2 | 	cmp	local07, ##27791 wz
02d48     01 EE 65 A6 |  if_e	neg	local06, #1
02d4c     F7 B6 01 F6 | 	mov	result1, local06
02d50     DB F2 09 F6 | 	mov	local08, result1 wz
02d54     B4 FF 9F 5D |  if_ne	jmp	#LR__0165
02d58     F6 F4 01 F6 | 	mov	local09, local05
02d5c     02 F4 05 F1 | 	add	local09, #2
02d60     FA F6 E1 FA | 	rdword	local10, local09
02d64     0F F6 25 F5 | 	andn	local10, #15
02d68     2E F6 45 F5 | 	or	local10, #46
02d6c     FA F6 51 FC | 	wrword	local10, local09
02d70     98 FF 9F FD | 	jmp	#LR__0165
02d74                 | LR__0166
02d74     A4 F0 03 F6 | 	mov	ptra, fp
02d78     B4 00 A0 FD | 	call	#popregs_
02d7c                 | __system___gc_markhub_ret
02d7c     2D 00 64 FD | 	ret
02d80                 | 
02d80                 | __system___gc_markcog
02d80     06 44 05 F6 | 	mov	COUNT_, #6
02d84     A5 00 A0 FD | 	call	#pushregs_
02d88     B8 F7 BF FD | 	call	#__system___gc_ptrs
02d8c     DB E4 01 F6 | 	mov	local01, result1
02d90     DC E6 01 F6 | 	mov	local02, result2
02d94     00 E8 05 F6 | 	mov	local03, #0
02d98                 | LR__0167
02d98     F0 EB 05 F6 | 	mov	local04, #496
02d9c     F4 EA 81 F1 | 	sub	local04, local03
02da0     F0 EB 05 F1 | 	add	local04, #496
02da4                 | 	'.live	local04
02da4     00 EA 95 F9 | 	alts	local04, #0
02da8     F5 EC 01 F6 | 	mov	local05, local04
02dac     F3 DC 01 F6 | 	mov	arg02, local02
02db0     F2 DA 01 F6 | 	mov	arg01, local01
02db4     F6 DE 01 F6 | 	mov	arg03, local05
02db8     70 FB BF FD | 	call	#__system___gc_isvalidptr
02dbc     DB EC 09 F6 | 	mov	local05, result1 wz
02dc0     10 00 90 AD |  if_e	jmp	#LR__0168
02dc4     02 EC 05 F1 | 	add	local05, #2
02dc8     F6 EE E1 FA | 	rdword	local06, local05
02dcc     20 EE 45 F5 | 	or	local06, #32
02dd0     F6 EE 51 FC | 	wrword	local06, local05
02dd4                 | LR__0168
02dd4     01 E8 05 F1 | 	add	local03, #1
02dd8     F0 E9 5D F2 | 	cmps	local03, #496 wcz
02ddc     B8 FF 9F CD |  if_b	jmp	#LR__0167
02de0     A4 F0 03 F6 | 	mov	ptra, fp
02de4     B4 00 A0 FD | 	call	#popregs_
02de8                 | __system___gc_markcog_ret
02de8     2D 00 64 FD | 	ret
02dec                 | 
02dec                 | LR__0169
02dec     20 21 21 21 
02df0     20 63 6F 72 
02df4     72 75 70 74 
02df8     65 64 20 68 
02dfc     65 61 70 3F 
02e00     3F 3F 20 21 
02e04     21 21 20    | 	byte	" !!! corrupted heap??? !!! "
02e07     00          | 	byte	0
02e08                 | LR__0170
02e08     20 21 21 21 
02e0c     20 6F 75 74 
02e10     20 6F 66 20 
02e14     68 65 61 70 
02e18     20 6D 65 6D 
02e1c     6F 72 79 20 
02e20     21 21 21 20 | 	byte	" !!! out of heap memory !!! "
02e24     00          | 	byte	0
02e25                 | LR__0171
02e25     20 21 21 21 
02e29     20 63 6F 72 
02e2d     72 75 70 74 
02e31     65 64 20 68 
02e35     65 61 70 20 
02e39     21 21 21 20 | 	byte	" !!! corrupted heap !!! "
02e3d     00          | 	byte	0
02e3e                 | LR__0172
02e3e     6D 6F 64 65 | 	byte	"mode"
02e42     00          | 	byte	0
02e43                 | LR__0173
02e43     63 70 6C    | 	byte	"cpl"
02e46     00          | 	byte	0
02e47                 | LR__0174
02e47     62 75 66 70 
02e4b     74 72       | 	byte	"bufptr"
02e4d     00          | 	byte	0
02e4e                 | LR__0175
02e4e     62 75 66 6C 
02e52     65 6E       | 	byte	"buflen"
02e54     00          | 	byte	0
02e55                 | LR__0176
02e55     6C 69 6E 65 
02e59     73          | 	byte	"lines"
02e5a     00          | 	byte	0
02e5b                 | LR__0177
02e5b     6D 6F 64 65 | 	byte	"mode"
02e5f     00          | 	byte	0
02e60                 | LR__0178
02e60     63 70 6C    | 	byte	"cpl"
02e63     00          | 	byte	0
02e64                 | LR__0179
02e64     62 75 66 5F 
02e68     70 74 72    | 	byte	"buf_ptr"
02e6b     00          | 	byte	0
02e6c                 | LR__0180
02e6c     62 75 66 6C 
02e70     65 6E       | 	byte	"buflen"
02e72     00          | 	byte	0
02e73                 | LR__0181
02e73     6C 69 6E 65 
02e77     73          | 	byte	"lines"
02e78     00          | 	byte	0
02e79                 | LR__0182
02e79     6D 6F 64 65 | 	byte	"mode"
02e7d     00          | 	byte	0
02e7e                 | LR__0183
02e7e     63 70 6C    | 	byte	"cpl"
02e81     00          | 	byte	0
02e82                 | LR__0184
02e82     62 75 66 5F 
02e86     70 74 72    | 	byte	"buf_ptr"
02e89     00          | 	byte	0
02e8a                 | LR__0185
02e8a     62 75 66 6C 
02e8e     65 6E       | 	byte	"buflen"
02e90     00          | 	byte	0
02e91                 | LR__0186
02e91     6C 69 6E 65 
02e95     73          | 	byte	"lines"
02e96     00          | 	byte	0
02e97                 | LR__0187
02e97     6D 6F 64 65 | 	byte	"mode"
02e9b     00          | 	byte	0
02e9c                 | LR__0188
02e9c     63 70 6C    | 	byte	"cpl"
02e9f     00          | 	byte	0
02ea0                 | LR__0189
02ea0     62 75 66 5F 
02ea4     70 74 72    | 	byte	"buf_ptr"
02ea7     00          | 	byte	0
02ea8                 | LR__0190
02ea8     62 75 66 6C 
02eac     65 6E       | 	byte	"buflen"
02eae     00          | 	byte	0
02eaf                 | LR__0191
02eaf     6C 69 6E 65 
02eb3     73          | 	byte	"lines"
02eb4     00          | 	byte	0
02eb5     00 00 00    | 	alignl
02eb8                 | _dat_
02eb8     00 00 00 00 
02ebc     00 00 00 00 
02ec0     00 00 00 00 
02ec4     00 00 00 00 
02ec8     00 00 00    | vga_font       file "vgafont.def"
02ecb     7E 81 A5 81 
02ecf     81 BD 99 81 
02ed3     81 7E 00 00 
02ed7     00 00 00 00 | 	byte	$7e, $81, $a5, $81, $81, $bd, $99, $81, $81, $7e, $00, $00, $00, $00, $00, $00
02edb     7E FF DB FF 
02edf     FF C3 E7 FF 
02ee3     FF 7E 00 00 
02ee7     00 00 00 00 | 	byte	$7e, $ff, $db, $ff, $ff, $c3, $e7, $ff, $ff, $7e, $00, $00, $00, $00, $00, $00
02eeb     00 36 7F 7F 
02eef     7F 7F 3E 1C 
02ef3     08 00 00 00 
02ef7     00 00 00 00 | 	byte	$00, $36, $7f, $7f, $7f, $7f, $3e, $1c, $08, $00, $00, $00, $00, $00, $00, $00
02efb     00 08 1C 3E 
02eff     7F 3E 1C 08 
02f03     00 00 00 00 
02f07     00 00 00 00 | 	byte	$00, $08, $1c, $3e, $7f, $3e, $1c, $08, $00, $00, $00, $00, $00, $00, $00, $00
02f0b     18 3C 3C E7 
02f0f     E7 E7 18 18 
02f13     3C 00 00 00 
02f17     00 00 00 00 | 	byte	$18, $3c, $3c, $e7, $e7, $e7, $18, $18, $3c, $00, $00, $00, $00, $00, $00, $00
02f1b     18 3C 7E FF 
02f1f     FF 7E 18 18 
02f23     3C 00 00 00 
02f27     00 00 00 00 | 	byte	$18, $3c, $7e, $ff, $ff, $7e, $18, $18, $3c, $00, $00, $00, $00, $00, $00, $00
02f2b     00 00 00 18 
02f2f     3C 3C 18 00 
02f33     00 00 00 00 
02f37     00 FF FF FF | 	byte	$00, $00, $00, $18, $3c, $3c, $18, $00, $00, $00, $00, $00, $00, $ff, $ff, $ff
02f3b     FF FF FF E7 
02f3f     C3 C3 E7 FF 
02f43     FF FF FF FF 
02f47     FF 00 00 00 | 	byte	$ff, $ff, $ff, $e7, $c3, $c3, $e7, $ff, $ff, $ff, $ff, $ff, $ff, $00, $00, $00
02f4b     00 00 3C 66 
02f4f     42 42 66 3C 
02f53     00 00 00 00 
02f57     00 FF FF FF | 	byte	$00, $00, $3c, $66, $42, $42, $66, $3c, $00, $00, $00, $00, $00, $ff, $ff, $ff
02f5b     FF FF C3 99 
02f5f     BD BD 99 C3 
02f63     FF FF FF FF 
02f67     FF 00 00 00 | 	byte	$ff, $ff, $c3, $99, $bd, $bd, $99, $c3, $ff, $ff, $ff, $ff, $ff, $00, $00, $00
02f6b     78 70 58 4C 
02f6f     1E 33 33 33 
02f73     33 1E 00 00 
02f77     00 00 00 00 | 	byte	$78, $70, $58, $4c, $1e, $33, $33, $33, $33, $1e, $00, $00, $00, $00, $00, $00
02f7b     3C 66 66 66 
02f7f     66 3C 18 7E 
02f83     18 18 00 00 
02f87     00 00 00 00 | 	byte	$3c, $66, $66, $66, $66, $3c, $18, $7e, $18, $18, $00, $00, $00, $00, $00, $00
02f8b     FC CC FC 0C 
02f8f     0C 0C 0C 0E 
02f93     0F 07 00 00 
02f97     00 00 00 00 | 	byte	$fc, $cc, $fc, $0c, $0c, $0c, $0c, $0e, $0f, $07, $00, $00, $00, $00, $00, $00
02f9b     FE C6 FE C6 
02f9f     C6 C6 C6 E6 
02fa3     E7 67 03 00 
02fa7     00 00 00 00 | 	byte	$fe, $c6, $fe, $c6, $c6, $c6, $c6, $e6, $e7, $67, $03, $00, $00, $00, $00, $00
02fab     18 18 DB 3C 
02faf     E7 3C DB 18 
02fb3     18 00 00 00 
02fb7     00 00 00 01 | 	byte	$18, $18, $db, $3c, $e7, $3c, $db, $18, $18, $00, $00, $00, $00, $00, $00, $01
02fbb     03 07 0F 1F 
02fbf     7F 1F 0F 07 
02fc3     03 01 00 00 
02fc7     00 00 00 40 | 	byte	$03, $07, $0f, $1f, $7f, $1f, $0f, $07, $03, $01, $00, $00, $00, $00, $00, $40
02fcb     60 70 78 7C 
02fcf     7F 7C 78 70 
02fd3     60 40 00 00 
02fd7     00 00 00 00 | 	byte	$60, $70, $78, $7c, $7f, $7c, $78, $70, $60, $40, $00, $00, $00, $00, $00, $00
02fdb     18 3C 7E 18 
02fdf     18 18 7E 3C 
02fe3     18 00 00 00 
02fe7     00 00 00 00 | 	byte	$18, $3c, $7e, $18, $18, $18, $7e, $3c, $18, $00, $00, $00, $00, $00, $00, $00
02feb     66 66 66 66 
02fef     66 66 66    | 	byte	$66[7]
02ff2     00 66 66 00 
02ff6     00 00 00 00 
02ffa     00 FE DB DB 
02ffe     DB DE D8 D8 | 	byte	$00, $66, $66, $00, $00, $00, $00, $00, $00, $fe, $db, $db, $db, $de, $d8, $d8
03002     D8 D8 D8 00 
03006     00 00 00 3E 
0300a     63 06 1C 36 
0300e     63 63 36 1C | 	byte	$d8, $d8, $d8, $00, $00, $00, $00, $3e, $63, $06, $1c, $36, $63, $63, $36, $1c
03012     30 63 3E 00 
03016     00 00 00 00 
0301a     00 00 00 00 
0301e     00 00 00 7F | 	byte	$30, $63, $3e, $00, $00, $00, $00, $00, $00, $00, $00, $00, $00, $00, $00, $7f
03022     7F 7F 7F 00 
03026     00 00 00 00 
0302a     00 18 3C 7E 
0302e     18 18 18 7E | 	byte	$7f, $7f, $7f, $00, $00, $00, $00, $00, $00, $18, $3c, $7e, $18, $18, $18, $7e
03032     3C 18 7E 00 
03036     00 00 00 00 
0303a     00 18 3C 7E 
0303e     18 18 18 18 | 	byte	$3c, $18, $7e, $00, $00, $00, $00, $00, $00, $18, $3c, $7e, $18, $18, $18, $18
03042     18 18 18 00 
03046     00 00 00 00 
0304a     00 18 18 18 
0304e     18 18 18 18 | 	byte	$18, $18, $18, $00, $00, $00, $00, $00, $00, $18, $18, $18, $18, $18, $18, $18
03052     7E 3C 18 00 
03056     00 00 00 00 
0305a     00 00 00 18 
0305e     30 7F 30 18 | 	byte	$7e, $3c, $18, $00, $00, $00, $00, $00, $00, $00, $00, $18, $30, $7f, $30, $18
03062     00 00 00 00 
03066     00 00 00 00 
0306a     00 00 00    | 	byte	$00[11]
0306d     0C 06 7F 06 
03071     0C 00 00 00 
03075     00 00 00 00 
03079     00 00 00 00 | 	byte	$0c, $06, $7f, $06, $0c, $00, $00, $00, $00, $00, $00, $00, $00, $00, $00, $00
0307d     00 03 03 03 
03081     7F 00 00 00 
03085     00 00 00 00 
03089     00 00 00 00 | 	byte	$00, $03, $03, $03, $7f, $00, $00, $00, $00, $00, $00, $00, $00, $00, $00, $00
0308d     14 36 7F 36 
03091     14 00 00 00 
03095     00 00 00 00 
03099     00 00 00 08 | 	byte	$14, $36, $7f, $36, $14, $00, $00, $00, $00, $00, $00, $00, $00, $00, $00, $08
0309d     1C 1C 3E 3E 
030a1     7F 7F 00 00 
030a5     00 00 00 00 
030a9     00 00 00 7F | 	byte	$1c, $1c, $3e, $3e, $7f, $7f, $00, $00, $00, $00, $00, $00, $00, $00, $00, $7f
030ad     7F 3E 3E 1C 
030b1     1C 08 00 00 
030b5     00 00 00 00 
030b9     00 00 00 00 | 	byte	$7f, $3e, $3e, $1c, $1c, $08, $00, $00, $00, $00, $00, $00, $00, $00, $00, $00
030bd     00 00 00 00 
030c1     00 00 00 00 
030c5     00 00 00 00 
030c9     00 00       | 	byte	$00[14]
030cb     18 3C 3C 3C 
030cf     18 18 18 00 
030d3     18 18 00 00 
030d7     00 00 66 66 | 	byte	$18, $3c, $3c, $3c, $18, $18, $18, $00, $18, $18, $00, $00, $00, $00, $66, $66
030db     66 24 00 00 
030df     00 00 00 00 
030e3     00 00 00 00 
030e7     00 00 00 00 | 	byte	$66, $24, $00, $00, $00, $00, $00, $00, $00, $00, $00, $00, $00, $00, $00, $00
030eb     00 36 36 7F 
030ef     36 36 36 7F 
030f3     36 36 00 00 
030f7     00 00 18 18 | 	byte	$00, $36, $36, $7f, $36, $36, $36, $7f, $36, $36, $00, $00, $00, $00, $18, $18
030fb     3E 63 43 03 
030ff     3E 60 60 61 
03103     63 3E 18 18 
03107     00 00 00 00 | 	byte	$3e, $63, $43, $03, $3e, $60, $60, $61, $63, $3e, $18, $18, $00, $00, $00, $00
0310b     00 00 43 63 
0310f     30 18 0C 06 
03113     63 61 00 00 
03117     00 00 00 00 | 	byte	$00, $00, $43, $63, $30, $18, $0c, $06, $63, $61, $00, $00, $00, $00, $00, $00
0311b     1C 36 36 1C 
0311f     6E 3B 33 33 
03123     33 6E 00 00 
03127     00 00 00 00 | 	byte	$1c, $36, $36, $1c, $6e, $3b, $33, $33, $33, $6e, $00, $00, $00, $00, $00, $00
0312b     0C 0C 0C 06 
0312f     00 00 00 00 
03133     00 00 00 00 
03137     00 00 00 00 | 	byte	$0c, $0c, $0c, $06, $00, $00, $00, $00, $00, $00, $00, $00, $00, $00, $00, $00
0313b     30 18 0C 0C 
0313f     0C 0C 0C 0C 
03143     18 30 00 00 
03147     00 00 00 00 | 	byte	$30, $18, $0c, $0c, $0c, $0c, $0c, $0c, $18, $30, $00, $00, $00, $00, $00, $00
0314b     0C 18 30 30 
0314f     30 30 30 30 
03153     18 0C 00 00 
03157     00 00 00 00 | 	byte	$0c, $18, $30, $30, $30, $30, $30, $30, $18, $0c, $00, $00, $00, $00, $00, $00
0315b     00 00 00 66 
0315f     3C FF 3C 66 
03163     00 00 00 00 
03167     00 00 00 00 | 	byte	$00, $00, $00, $66, $3c, $ff, $3c, $66, $00, $00, $00, $00, $00, $00, $00, $00
0316b     00 00 00 18 
0316f     18 7E 18 18 
03173     00 00 00 00 
03177     00 00 00 00 | 	byte	$00, $00, $00, $18, $18, $7e, $18, $18, $00, $00, $00, $00, $00, $00, $00, $00
0317b     00 00 00 00 
0317f     00 00 00 00 | 	byte	$00[8]
03183     18 18 18 0C 
03187     00 00 00 00 
0318b     00 00 00 00 
0318f     00 7F 00 00 | 	byte	$18, $18, $18, $0c, $00, $00, $00, $00, $00, $00, $00, $00, $00, $7f, $00, $00
03193     00 00 00 00 
03197     00 00 00 00 
0319b     00 00 00 00 
0319f     00 00 00 00 | 	byte	$00[16]
031a3     18 18 00 00 
031a7     00 00 00 00 
031ab     00 00 40 60 
031af     30 18 0C 06 | 	byte	$18, $18, $00, $00, $00, $00, $00, $00, $00, $00, $40, $60, $30, $18, $0c, $06
031b3     03 01 00 00 
031b7     00 00 00 00 
031bb     1C 36 63 63 
031bf     6B 6B 63 63 | 	byte	$03, $01, $00, $00, $00, $00, $00, $00, $1c, $36, $63, $63, $6b, $6b, $63, $63
031c3     36 1C 00 00 
031c7     00 00 00 00 
031cb     18 1C 1E 18 
031cf     18 18 18 18 | 	byte	$36, $1c, $00, $00, $00, $00, $00, $00, $18, $1c, $1e, $18, $18, $18, $18, $18
031d3     18 7E 00 00 
031d7     00 00 00 00 
031db     3E 63 60 30 
031df     18 0C 06 03 | 	byte	$18, $7e, $00, $00, $00, $00, $00, $00, $3e, $63, $60, $30, $18, $0c, $06, $03
031e3     63 7F 00 00 
031e7     00 00 00 00 
031eb     3E 63 60 60 
031ef     3C 60 60 60 | 	byte	$63, $7f, $00, $00, $00, $00, $00, $00, $3e, $63, $60, $60, $3c, $60, $60, $60
031f3     63 3E 00 00 
031f7     00 00 00 00 
031fb     30 38 3C 36 
031ff     33 7F 30 30 | 	byte	$63, $3e, $00, $00, $00, $00, $00, $00, $30, $38, $3c, $36, $33, $7f, $30, $30
03203     30 78 00 00 
03207     00 00 00 00 
0320b     7F 03 03 03 
0320f     3F 60 60 60 | 	byte	$30, $78, $00, $00, $00, $00, $00, $00, $7f, $03, $03, $03, $3f, $60, $60, $60
03213     63 3E 00 00 
03217     00 00 00 00 
0321b     1C 06 03 03 
0321f     3F 63 63 63 | 	byte	$63, $3e, $00, $00, $00, $00, $00, $00, $1c, $06, $03, $03, $3f, $63, $63, $63
03223     63 3E 00 00 
03227     00 00 00 00 
0322b     7F 63 60 60 
0322f     30 18 0C 0C | 	byte	$63, $3e, $00, $00, $00, $00, $00, $00, $7f, $63, $60, $60, $30, $18, $0c, $0c
03233     0C 0C 00 00 
03237     00 00 00 00 
0323b     3E 63 63 63 
0323f     3E 63 63 63 | 	byte	$0c, $0c, $00, $00, $00, $00, $00, $00, $3e, $63, $63, $63, $3e, $63, $63, $63
03243     63 3E 00 00 
03247     00 00 00 00 
0324b     3E 63 63 63 
0324f     7E 60 60 60 | 	byte	$63, $3e, $00, $00, $00, $00, $00, $00, $3e, $63, $63, $63, $7e, $60, $60, $60
03253     30 1E 00 00 
03257     00 00 00 00 
0325b     00 00 00 18 
0325f     18 00 00 00 | 	byte	$30, $1e, $00, $00, $00, $00, $00, $00, $00, $00, $00, $18, $18, $00, $00, $00
03263     18 18 00 00 
03267     00 00 00 00 
0326b     00 00 00 18 
0326f     18 00 00 00 | 	byte	$18, $18, $00, $00, $00, $00, $00, $00, $00, $00, $00, $18, $18, $00, $00, $00
03273     18 18 0C 00 
03277     00 00 00 00 
0327b     00 60 30 18 
0327f     0C 06 0C 18 | 	byte	$18, $18, $0c, $00, $00, $00, $00, $00, $00, $60, $30, $18, $0c, $06, $0c, $18
03283     30 60 00 00 
03287     00 00 00 00 
0328b     00 00 00 7E 
0328f     00 00 7E 00 | 	byte	$30, $60, $00, $00, $00, $00, $00, $00, $00, $00, $00, $7e, $00, $00, $7e, $00
03293     00 00 00 00 
03297     00 00 00 00 
0329b     00          | 	byte	$00[9]
0329c     06 0C 18 30 
032a0     60 30 18 0C 
032a4     06 00 00 00 
032a8     00 00 00 3E | 	byte	$06, $0c, $18, $30, $60, $30, $18, $0c, $06, $00, $00, $00, $00, $00, $00, $3e
032ac     63 63 30 18 
032b0     18 18 00 18 
032b4     18 00 00 00 
032b8     00 00 00 00 | 	byte	$63, $63, $30, $18, $18, $18, $00, $18, $18, $00, $00, $00, $00, $00, $00, $00
032bc     3E 63 63 7B 
032c0     7B 7B 3B 03 
032c4     3E 00 00 00 
032c8     00 00 00 08 | 	byte	$3e, $63, $63, $7b, $7b, $7b, $3b, $03, $3e, $00, $00, $00, $00, $00, $00, $08
032cc     1C 36 63 63 
032d0     7F 63 63 63 
032d4     63 00 00 00 
032d8     00 00 00 3F | 	byte	$1c, $36, $63, $63, $7f, $63, $63, $63, $63, $00, $00, $00, $00, $00, $00, $3f
032dc     66 66 66 3E 
032e0     66 66 66 66 
032e4     3F 00 00 00 
032e8     00 00 00 3C | 	byte	$66, $66, $66, $3e, $66, $66, $66, $66, $3f, $00, $00, $00, $00, $00, $00, $3c
032ec     66 43 03 03 
032f0     03 03 43 66 
032f4     3C 00 00 00 
032f8     00 00 00 1F | 	byte	$66, $43, $03, $03, $03, $03, $43, $66, $3c, $00, $00, $00, $00, $00, $00, $1f
032fc     36 66 66 66 
03300     66 66 66 36 
03304     1F 00 00 00 
03308     00 00 00 7F | 	byte	$36, $66, $66, $66, $66, $66, $66, $36, $1f, $00, $00, $00, $00, $00, $00, $7f
0330c     66 46 16 1E 
03310     16 06 46 66 
03314     7F 00 00 00 
03318     00 00 00 7F | 	byte	$66, $46, $16, $1e, $16, $06, $46, $66, $7f, $00, $00, $00, $00, $00, $00, $7f
0331c     66 46 16 1E 
03320     16 06 06 06 
03324     0F 00 00 00 
03328     00 00 00 3C | 	byte	$66, $46, $16, $1e, $16, $06, $06, $06, $0f, $00, $00, $00, $00, $00, $00, $3c
0332c     66 43 03 03 
03330     7B 63 63 66 
03334     5C 00 00 00 
03338     00 00 00 63 | 	byte	$66, $43, $03, $03, $7b, $63, $63, $66, $5c, $00, $00, $00, $00, $00, $00, $63
0333c     63 63 63 7F 
03340     63 63 63 63 
03344     63 00 00 00 
03348     00 00 00 3C | 	byte	$63, $63, $63, $7f, $63, $63, $63, $63, $63, $00, $00, $00, $00, $00, $00, $3c
0334c     18 18 18 18 
03350     18 18 18 18 | 	byte	$18[8]
03354     3C 00 00 00 
03358     00 00 00 78 
0335c     30 30 30 30 
03360     30 33 33 33 | 	byte	$3c, $00, $00, $00, $00, $00, $00, $78, $30, $30, $30, $30, $30, $33, $33, $33
03364     1E 00 00 00 
03368     00 00 00 67 
0336c     66 66 36 1E 
03370     1E 36 66 66 | 	byte	$1e, $00, $00, $00, $00, $00, $00, $67, $66, $66, $36, $1e, $1e, $36, $66, $66
03374     67 00 00 00 
03378     00 00 00 0F 
0337c     06 06 06 06 
03380     06 06 46 66 | 	byte	$67, $00, $00, $00, $00, $00, $00, $0f, $06, $06, $06, $06, $06, $06, $46, $66
03384     7F 00 00 00 
03388     00 00 00 63 
0338c     77 7F 7F 6B 
03390     63 63 63 63 | 	byte	$7f, $00, $00, $00, $00, $00, $00, $63, $77, $7f, $7f, $6b, $63, $63, $63, $63
03394     63 00 00 00 
03398     00 00 00 63 
0339c     67 6F 7F 7B 
033a0     73 63 63 63 | 	byte	$63, $00, $00, $00, $00, $00, $00, $63, $67, $6f, $7f, $7b, $73, $63, $63, $63
033a4     63 00 00 00 
033a8     00 00 00 3E 
033ac     63 63 63 63 
033b0     63 63 63 63 | 	byte	$63, $00, $00, $00, $00, $00, $00, $3e, $63, $63, $63, $63, $63, $63, $63, $63
033b4     3E 00 00 00 
033b8     00 00 00 3F 
033bc     66 66 66 3E 
033c0     06 06 06 06 | 	byte	$3e, $00, $00, $00, $00, $00, $00, $3f, $66, $66, $66, $3e, $06, $06, $06, $06
033c4     0F 00 00 00 
033c8     00 00 00 3E 
033cc     63 63 63 63 
033d0     63 63 6B 7B | 	byte	$0f, $00, $00, $00, $00, $00, $00, $3e, $63, $63, $63, $63, $63, $63, $6b, $7b
033d4     3E 30 70 00 
033d8     00 00 00 3F 
033dc     66 66 66 3E 
033e0     36 66 66 66 | 	byte	$3e, $30, $70, $00, $00, $00, $00, $3f, $66, $66, $66, $3e, $36, $66, $66, $66
033e4     67 00 00 00 
033e8     00 00 00 3E 
033ec     63 63 06 1C 
033f0     30 60 63 63 | 	byte	$67, $00, $00, $00, $00, $00, $00, $3e, $63, $63, $06, $1c, $30, $60, $63, $63
033f4     3E 00 00 00 
033f8     00 00 00 7E 
033fc     7E 5A 18 18 
03400     18 18 18 18 | 	byte	$3e, $00, $00, $00, $00, $00, $00, $7e, $7e, $5a, $18, $18, $18, $18, $18, $18
03404     3C 00 00 00 
03408     00 00 00 63 
0340c     63 63 63 63 
03410     63 63 63 63 | 	byte	$3c, $00, $00, $00, $00, $00, $00, $63, $63, $63, $63, $63, $63, $63, $63, $63
03414     3E 00 00 00 
03418     00 00 00 63 
0341c     63 63 63 63 
03420     63 63 36 1C | 	byte	$3e, $00, $00, $00, $00, $00, $00, $63, $63, $63, $63, $63, $63, $63, $36, $1c
03424     08 00 00 00 
03428     00 00 00 63 
0342c     63 63 63 6B 
03430     6B 6B 7F 77 | 	byte	$08, $00, $00, $00, $00, $00, $00, $63, $63, $63, $63, $6b, $6b, $6b, $7f, $77
03434     36 00 00 00 
03438     00 00 00 63 
0343c     63 36 3E 1C 
03440     1C 3E 36 63 | 	byte	$36, $00, $00, $00, $00, $00, $00, $63, $63, $36, $3e, $1c, $1c, $3e, $36, $63
03444     63 00 00 00 
03448     00 00 00 66 
0344c     66 66 66 3C 
03450     18 18 18 18 | 	byte	$63, $00, $00, $00, $00, $00, $00, $66, $66, $66, $66, $3c, $18, $18, $18, $18
03454     3C 00 00 00 
03458     00 00 00 7F 
0345c     63 61 30 18 
03460     0C 06 43 63 | 	byte	$3c, $00, $00, $00, $00, $00, $00, $7f, $63, $61, $30, $18, $0c, $06, $43, $63
03464     7F 00 00 00 
03468     00 00 00 3C 
0346c     0C 0C 0C 0C 
03470     0C 0C 0C 0C | 	byte	$7f, $00, $00, $00, $00, $00, $00, $3c, $0c, $0c, $0c, $0c, $0c, $0c, $0c, $0c
03474     3C 00 00 00 
03478     00 00 00 00 
0347c     01 03 07 0E 
03480     1C 38 70 60 | 	byte	$3c, $00, $00, $00, $00, $00, $00, $00, $01, $03, $07, $0e, $1c, $38, $70, $60
03484     40 00 00 00 
03488     00 00 00 3C 
0348c     30 30 30 30 
03490     30 30 30 30 | 	byte	$40, $00, $00, $00, $00, $00, $00, $3c, $30, $30, $30, $30, $30, $30, $30, $30
03494     3C 00 00 00 
03498     1C 36 00 00 
0349c     00 00 00 00 
034a0     00 00 00 00 | 	byte	$3c, $00, $00, $00, $1c, $36, $00, $00, $00, $00, $00, $00, $00, $00, $00, $00
034a4     00 00 00 00 
034a8     00 00 00 00 
034ac     00 00 00 00 
034b0     00 00 00 00 
034b4     00          | 	byte	$00[17]
034b5     FF 00 00 0C 
034b9     18 00 00 00 
034bd     00 00 00 00 
034c1     00 00 00 00 | 	byte	$ff, $00, $00, $0c, $18, $00, $00, $00, $00, $00, $00, $00, $00, $00, $00, $00
034c5     00 00 00 00 
034c9     00 00 00 00 
034cd     00          | 	byte	$00[9]
034ce     1E 30 3E 33 
034d2     33 33 6E 00 
034d6     00 00 00 00 
034da     00 07 06 06 | 	byte	$1e, $30, $3e, $33, $33, $33, $6e, $00, $00, $00, $00, $00, $00, $07, $06, $06
034de     1E 36 66 66 
034e2     66 66 3E 00 
034e6     00 00 00 00 
034ea     00 00 00 00 | 	byte	$1e, $36, $66, $66, $66, $66, $3e, $00, $00, $00, $00, $00, $00, $00, $00, $00
034ee     3E 63 03 03 
034f2     03 63 3E 00 
034f6     00 00 00 00 
034fa     00 38 30 30 | 	byte	$3e, $63, $03, $03, $03, $63, $3e, $00, $00, $00, $00, $00, $00, $38, $30, $30
034fe     3C 36 33 33 
03502     33 33 6E 00 
03506     00 00 00 00 
0350a     00 00 00 00 | 	byte	$3c, $36, $33, $33, $33, $33, $6e, $00, $00, $00, $00, $00, $00, $00, $00, $00
0350e     3E 63 7F 03 
03512     03 63 3E 00 
03516     00 00 00 00 
0351a     00 38 6C 4C | 	byte	$3e, $63, $7f, $03, $03, $63, $3e, $00, $00, $00, $00, $00, $00, $38, $6c, $4c
0351e     0C 1E 0C 0C 
03522     0C 0C 1E 00 
03526     00 00 00 00 
0352a     00 00 00 00 | 	byte	$0c, $1e, $0c, $0c, $0c, $0c, $1e, $00, $00, $00, $00, $00, $00, $00, $00, $00
0352e     6E 33 33 33 
03532     33 33 3E 30 
03536     33 1E 00 00 
0353a     00 07 06 06 | 	byte	$6e, $33, $33, $33, $33, $33, $3e, $30, $33, $1e, $00, $00, $00, $07, $06, $06
0353e     36 6E 66 66 
03542     66 66 67 00 
03546     00 00 00 00 
0354a     00 18 18 00 | 	byte	$36, $6e, $66, $66, $66, $66, $67, $00, $00, $00, $00, $00, $00, $18, $18, $00
0354e     1C 18 18 18 
03552     18 18 3C 00 
03556     00 00 00 00 
0355a     00 60 60 00 | 	byte	$1c, $18, $18, $18, $18, $18, $3c, $00, $00, $00, $00, $00, $00, $60, $60, $00
0355e     70 60 60 60 
03562     60 60 60 66 
03566     66 3C 00 00 
0356a     00 07 06 06 | 	byte	$70, $60, $60, $60, $60, $60, $60, $66, $66, $3c, $00, $00, $00, $07, $06, $06
0356e     66 36 1E 1E 
03572     36 66 67 00 
03576     00 00 00 00 
0357a     00 1C 18 18 | 	byte	$66, $36, $1e, $1e, $36, $66, $67, $00, $00, $00, $00, $00, $00, $1c, $18, $18
0357e     18 18 18 18 
03582     18 18       | 	byte	$18[6]
03584     3C 00 00 00 
03588     00 00 00 00 
0358c     00 00 37 7F 
03590     6B 6B 6B 6B | 	byte	$3c, $00, $00, $00, $00, $00, $00, $00, $00, $00, $37, $7f, $6b, $6b, $6b, $6b
03594     63 00 00 00 
03598     00 00 00 00 
0359c     00 00 3B 66 
035a0     66 66 66 66 | 	byte	$63, $00, $00, $00, $00, $00, $00, $00, $00, $00, $3b, $66, $66, $66, $66, $66
035a4     66 00 00 00 
035a8     00 00 00 00 
035ac     00 00 3E 63 
035b0     63 63 63 63 | 	byte	$66, $00, $00, $00, $00, $00, $00, $00, $00, $00, $3e, $63, $63, $63, $63, $63
035b4     3E 00 00 00 
035b8     00 00 00 00 
035bc     00 00 3B 66 
035c0     66 66 66 66 | 	byte	$3e, $00, $00, $00, $00, $00, $00, $00, $00, $00, $3b, $66, $66, $66, $66, $66
035c4     3E 06 06 0F 
035c8     00 00 00 00 
035cc     00 00 6E 33 
035d0     33 33 33 33 | 	byte	$3e, $06, $06, $0f, $00, $00, $00, $00, $00, $00, $6e, $33, $33, $33, $33, $33
035d4     3E 30 30 78 
035d8     00 00 00 00 
035dc     00 00 3B 6E 
035e0     66 06 06 06 | 	byte	$3e, $30, $30, $78, $00, $00, $00, $00, $00, $00, $3b, $6e, $66, $06, $06, $06
035e4     0F 00 00 00 
035e8     00 00 00 00 
035ec     00 00 3E 63 
035f0     06 1C 30 63 | 	byte	$0f, $00, $00, $00, $00, $00, $00, $00, $00, $00, $3e, $63, $06, $1c, $30, $63
035f4     3E 00 00 00 
035f8     00 00 00 08 
035fc     0C 0C 3F 0C 
03600     0C 0C 0C 6C | 	byte	$3e, $00, $00, $00, $00, $00, $00, $08, $0c, $0c, $3f, $0c, $0c, $0c, $0c, $6c
03604     38 00 00 00 
03608     00 00 00 00 
0360c     00 00 33 33 
03610     33 33 33 33 | 	byte	$38, $00, $00, $00, $00, $00, $00, $00, $00, $00, $33, $33, $33, $33, $33, $33
03614     6E 00 00 00 
03618     00 00 00 00 
0361c     00 00 63 63 
03620     63 63 63 36 | 	byte	$6e, $00, $00, $00, $00, $00, $00, $00, $00, $00, $63, $63, $63, $63, $63, $36
03624     1C 00 00 00 
03628     00 00 00 00 
0362c     00 00 63 63 
03630     6B 6B 6B 7F | 	byte	$1c, $00, $00, $00, $00, $00, $00, $00, $00, $00, $63, $63, $6b, $6b, $6b, $7f
03634     36 00 00 00 
03638     00 00 00 00 
0363c     00 00 63 36 
03640     1C 1C 1C 36 | 	byte	$36, $00, $00, $00, $00, $00, $00, $00, $00, $00, $63, $36, $1c, $1c, $1c, $36
03644     63 00 00 00 
03648     00 00 00 00 
0364c     00 00 63 63 
03650     63 63 63 63 | 	byte	$63, $00, $00, $00, $00, $00, $00, $00, $00, $00, $63, $63, $63, $63, $63, $63
03654     7E 60 30 1F 
03658     00 00 00 00 
0365c     00 00 7F 33 
03660     18 0C 06 63 | 	byte	$7e, $60, $30, $1f, $00, $00, $00, $00, $00, $00, $7f, $33, $18, $0c, $06, $63
03664     7F 00 00 00 
03668     00 00 00 70 
0366c     18 18 18 0E 
03670     18 18 18 18 | 	byte	$7f, $00, $00, $00, $00, $00, $00, $70, $18, $18, $18, $0e, $18, $18, $18, $18
03674     70 00 00 00 
03678     00 00 00 18 
0367c     18 18 18 18 
03680     18 18 18 18 | 	byte	$70, $00, $00, $00, $00, $00, $00, $18, $18, $18, $18, $18, $18, $18, $18, $18
03684     18 00 00 00 
03688     00 00 00 0E 
0368c     18 18 18 70 
03690     18 18 18 18 | 	byte	$18, $00, $00, $00, $00, $00, $00, $0e, $18, $18, $18, $70, $18, $18, $18, $18
03694     0E 00 00 00 
03698     6E 3B 00 00 
0369c     00 00 00 00 
036a0     00 00 00 00 | 	byte	$0e, $00, $00, $00, $6e, $3b, $00, $00, $00, $00, $00, $00, $00, $00, $00, $00
036a4     00 00 00 00 
036a8     00 00 00 00 
036ac     00 00       | 	byte	$00[10]
036ae     08 1C 36 63 
036b2     63 63 7F 00 
036b6     00 00 00 00 
036ba     00 3C 66 43 | 	byte	$08, $1c, $36, $63, $63, $63, $7f, $00, $00, $00, $00, $00, $00, $3c, $66, $43
036be     03 03 03 03 
036c2     43 66 3C 18 
036c6     30 1E 00 00 
036ca     00 00 33 00 | 	byte	$03, $03, $03, $03, $43, $66, $3c, $18, $30, $1e, $00, $00, $00, $00, $33, $00
036ce     33 33 33 33 
036d2     33 33       | 	byte	$33[6]
036d4     6E 00 00 00 
036d8     00 00 60 30 
036dc     18 00 3E 63 
036e0     7F 03 03 63 | 	byte	$6e, $00, $00, $00, $00, $00, $60, $30, $18, $00, $3e, $63, $7f, $03, $03, $63
036e4     3E 00 00 00 
036e8     00 00 08 1C 
036ec     36 00 1E 30 
036f0     3E 33 33 33 | 	byte	$3e, $00, $00, $00, $00, $00, $08, $1c, $36, $00, $1e, $30, $3e, $33, $33, $33
036f4     6E 00 00 00 
036f8     00 00 00 00 
036fc     33 00 1E 30 
03700     3E 33 33 33 | 	byte	$6e, $00, $00, $00, $00, $00, $00, $00, $33, $00, $1e, $30, $3e, $33, $33, $33
03704     6E 00 00 00 
03708     00 00 1C 36 
0370c     1C 00 33 33 
03710     33 33 33 33 | 	byte	$6e, $00, $00, $00, $00, $00, $1c, $36, $1c, $00, $33, $33, $33, $33, $33, $33
03714     6E 00 00 00 
03718     00 00 60 30 
0371c     18 00 3E 63 
03720     03 03 03 63 | 	byte	$6e, $00, $00, $00, $00, $00, $60, $30, $18, $00, $3e, $63, $03, $03, $03, $63
03724     3E 00 00 00 
03728     00 00 00 00 
0372c     00 00 3E 63 
03730     03 03 03 63 | 	byte	$3e, $00, $00, $00, $00, $00, $00, $00, $00, $00, $3e, $63, $03, $03, $03, $63
03734     3E 18 30 1E 
03738     00 00 00 1C 
0373c     58 78 38 18 
03740     1C 1E 1A 18 | 	byte	$3e, $18, $30, $1e, $00, $00, $00, $1c, $58, $78, $38, $18, $1c, $1e, $1a, $18
03744     3C 00 00 00 
03748     00 00 00 00 
0374c     63 00 3E 63 
03750     7F 03 03 63 | 	byte	$3c, $00, $00, $00, $00, $00, $00, $00, $63, $00, $3e, $63, $7f, $03, $03, $63
03754     3E 00 00 00 
03758     66 33 00 3E 
0375c     63 63 63 63 
03760     63 63 63 63 | 	byte	$3e, $00, $00, $00, $66, $33, $00, $3e, $63, $63, $63, $63, $63, $63, $63, $63
03764     3E 00 00 00 
03768     00 00 CC 66 
0376c     33 00 3E 63 
03770     63 63 63 63 | 	byte	$3e, $00, $00, $00, $00, $00, $cc, $66, $33, $00, $3e, $63, $63, $63, $63, $63
03774     3E 00 00 00 
03778     00 00 18 3C 
0377c     66 00 1C 18 
03780     18 18 18 18 | 	byte	$3e, $00, $00, $00, $00, $00, $18, $3c, $66, $00, $1c, $18, $18, $18, $18, $18
03784     3C 00 00 00 
03788     30 18 00 7F 
0378c     63 61 30 18 
03790     0C 06 43 63 | 	byte	$3c, $00, $00, $00, $30, $18, $00, $7f, $63, $61, $30, $18, $0c, $06, $43, $63
03794     7F 00 00 00 
03798     00 63 00 08 
0379c     1C 36 63 63 
037a0     7F 63 63 63 | 	byte	$7f, $00, $00, $00, $00, $63, $00, $08, $1c, $36, $63, $63, $7f, $63, $63, $63
037a4     63 00 00 00 
037a8     30 18 00 3C 
037ac     66 43 03 03 
037b0     03 03 43 66 | 	byte	$63, $00, $00, $00, $30, $18, $00, $3c, $66, $43, $03, $03, $03, $03, $43, $66
037b4     3C 00 00 00 
037b8     30 18 00 7F 
037bc     66 46 16 1E 
037c0     16 06 46 66 | 	byte	$3c, $00, $00, $00, $30, $18, $00, $7f, $66, $46, $16, $1e, $16, $06, $46, $66
037c4     7F 00 00 00 
037c8     0C 06 00 0F 
037cc     06 06 06 06 
037d0     06 06 46 66 | 	byte	$7f, $00, $00, $00, $0c, $06, $00, $0f, $06, $06, $06, $06, $06, $06, $46, $66
037d4     7F 00 00 00 
037d8     30 18 00 1C 
037dc     18 18 18 18 
037e0     18 18 18 18 | 	byte	$7f, $00, $00, $00, $30, $18, $00, $1c, $18, $18, $18, $18, $18, $18, $18, $18
037e4     3C 00 00 00 
037e8     00 00 08 1C 
037ec     36 00 3E 63 
037f0     63 63 63 63 | 	byte	$3c, $00, $00, $00, $00, $00, $08, $1c, $36, $00, $3e, $63, $63, $63, $63, $63
037f4     3E 00 00 00 
037f8     00 00 00 00 
037fc     63 00 3E 63 
03800     63 63 63 63 | 	byte	$3e, $00, $00, $00, $00, $00, $00, $00, $63, $00, $3e, $63, $63, $63, $63, $63
03804     3E 00 00 00 
03808     00 00 00 6F 
0380c     46 26 06 06 
03810     06 06 46 66 | 	byte	$3e, $00, $00, $00, $00, $00, $00, $6f, $46, $26, $06, $06, $06, $06, $46, $66
03814     7F 00 00 00 
03818     00 00 00 6E 
0381c     4C 2C 0C 0C 
03820     0C 0C 0C 0C | 	byte	$7f, $00, $00, $00, $00, $00, $00, $6e, $4c, $2c, $0c, $0c, $0c, $0c, $0c, $0c
03824     1E 00 00 00 
03828     30 18 00 3E 
0382c     63 63 06 1C 
03830     30 60 63 63 | 	byte	$1e, $00, $00, $00, $30, $18, $00, $3e, $63, $63, $06, $1c, $30, $60, $63, $63
03834     3E 00 00 00 
03838     00 00 60 30 
0383c     18 00 3E 63 
03840     06 1C 30 63 | 	byte	$3e, $00, $00, $00, $00, $00, $60, $30, $18, $00, $3e, $63, $06, $1c, $30, $63
03844     3E 00 00 00 
03848     00 63 00 3E 
0384c     63 63 63 63 
03850     63 63 63 63 | 	byte	$3e, $00, $00, $00, $00, $63, $00, $3e, $63, $63, $63, $63, $63, $63, $63, $63
03854     3E 00 00 00 
03858     00 63 00 63 
0385c     63 63 63 63 
03860     63 63 63 63 | 	byte	$3e, $00, $00, $00, $00, $63, $00, $63, $63, $63, $63, $63, $63, $63, $63, $63
03864     3E 00 00 00 
03868     6C 38 00 7E 
0386c     7E 5A 18 18 
03870     18 18 18 18 | 	byte	$3e, $00, $00, $00, $6c, $38, $00, $7e, $7e, $5a, $18, $18, $18, $18, $18, $18
03874     3C 00 00 00 
03878     00 00 60 48 
0387c     2C 0C 3F 0C 
03880     0C 0C 0C 6C | 	byte	$3c, $00, $00, $00, $00, $00, $60, $48, $2c, $0c, $3f, $0c, $0c, $0c, $0c, $6c
03884     38 00 00 00 
03888     00 00 00 0F 
0388c     26 36 1E 0E 
03890     07 07 46 66 | 	byte	$38, $00, $00, $00, $00, $00, $00, $0f, $26, $36, $1e, $0e, $07, $07, $46, $66
03894     7F 00 00 00 
03898     00 00 00 00 
0389c     00 63 36 1C 
038a0     1C 36 63 00 | 	byte	$7f, $00, $00, $00, $00, $00, $00, $00, $00, $63, $36, $1c, $1c, $36, $63, $00
038a4     00 00 00 00 
038a8     00 00       | 	byte	$00[6]
038aa     36 1C 08 00 
038ae     3E 63 03 03 
038b2     03 63 3E 00 
038b6     00 00 00 00 | 	byte	$36, $1c, $08, $00, $3e, $63, $03, $03, $03, $63, $3e, $00, $00, $00, $00, $00
038ba     30 18 0C 00 
038be     1E 30 3E 33 
038c2     33 33 6E 00 
038c6     00 00 00 00 | 	byte	$30, $18, $0c, $00, $1e, $30, $3e, $33, $33, $33, $6e, $00, $00, $00, $00, $00
038ca     60 30 18 00 
038ce     1C 18 18 18 
038d2     18 18 3C 00 
038d6     00 00 00 00 | 	byte	$60, $30, $18, $00, $1c, $18, $18, $18, $18, $18, $3c, $00, $00, $00, $00, $00
038da     60 30 18 00 
038de     3E 63 63 63 
038e2     63 63 3E 00 
038e6     00 00 00 00 | 	byte	$60, $30, $18, $00, $3e, $63, $63, $63, $63, $63, $3e, $00, $00, $00, $00, $00
038ea     30 18 0C 00 
038ee     33 33 33 33 
038f2     33 33 6E 00 
038f6     00 00 00 00 | 	byte	$30, $18, $0c, $00, $33, $33, $33, $33, $33, $33, $6e, $00, $00, $00, $00, $00
038fa     00 08 1C 36 
038fe     63 63 7F 63 
03902     63 63 63 18 
03906     0C 78 00 00 | 	byte	$00, $08, $1c, $36, $63, $63, $7f, $63, $63, $63, $63, $18, $0c, $78, $00, $00
0390a     00 00 00 00 
0390e     1E 30 3E 33 
03912     33 33 6E 18 
03916     0C 78 36 1C | 	byte	$00, $00, $00, $00, $1e, $30, $3e, $33, $33, $33, $6e, $18, $0c, $78, $36, $1c
0391a     00 7F 63 61 
0391e     30 18 0C 06 
03922     43 63 7F 00 
03926     00 00 00 00 | 	byte	$00, $7f, $63, $61, $30, $18, $0c, $06, $43, $63, $7f, $00, $00, $00, $00, $00
0392a     36 1C 08 00 
0392e     7F 33 18 0C 
03932     06 63 7F 00 
03936     00 00 00 00 | 	byte	$36, $1c, $08, $00, $7f, $33, $18, $0c, $06, $63, $7f, $00, $00, $00, $00, $00
0393a     00 7F 66 46 
0393e     16 1E 16 06 
03942     46 66 7F 18 
03946     0C 78 00 00 | 	byte	$00, $7f, $66, $46, $16, $1e, $16, $06, $46, $66, $7f, $18, $0c, $78, $00, $00
0394a     00 00 00 00 
0394e     3E 63 7F 03 
03952     03 63 3E 18 
03956     0C 78 00 00 | 	byte	$00, $00, $00, $00, $3e, $63, $7f, $03, $03, $63, $3e, $18, $0c, $78, $00, $00
0395a     00 3C 66 03 
0395e     1F 03 0F 03 
03962     03 66 3C 00 
03966     00 00 00 00 | 	byte	$00, $3c, $66, $03, $1f, $03, $0f, $03, $03, $66, $3c, $00, $00, $00, $00, $00
0396a     60 30 18 00 
0396e     7F 33 18 0C 
03972     06 63 7F 00 
03976     00 00 6C 38 | 	byte	$60, $30, $18, $00, $7f, $33, $18, $0c, $06, $63, $7f, $00, $00, $00, $6c, $38
0397a     00 3C 66 43 
0397e     03 03 03 03 
03982     43 66 3C 00 
03986     00 00 00 00 | 	byte	$00, $3c, $66, $43, $03, $03, $03, $03, $43, $66, $3c, $00, $00, $00, $00, $00
0398a     00 00 00 00 
0398e     3E 63 06 1C 
03992     30 63 3E 18 
03996     30 1E 00 00 | 	byte	$00, $00, $00, $00, $3e, $63, $06, $1c, $30, $63, $3e, $18, $30, $1e, $00, $00
0399a     00 00 00 00 
0399e     00 00       | 	byte	$00[6]
039a0     6C 36 1B 36 
039a4     6C 00 00 00 
039a8     00 00 00 00 
039ac     00 00 00 00 | 	byte	$6c, $36, $1b, $36, $6c, $00, $00, $00, $00, $00, $00, $00, $00, $00, $00, $00
039b0     1B 36 6C 36 
039b4     1B 00 00 00 
039b8     88 22 88 22 
039bc     88 22 88 22 | 	byte	$1b, $36, $6c, $36, $1b, $00, $00, $00, $88, $22, $88, $22, $88, $22, $88, $22
039c0     88 22 88 22 
039c4     88 22 88 22 
039c8     AA 55 AA 55 
039cc     AA 55 AA 55 | 	byte	$88, $22, $88, $22, $88, $22, $88, $22, $aa, $55, $aa, $55, $aa, $55, $aa, $55
039d0     AA 55 AA 55 
039d4     AA 55 AA 55 
039d8     BB EE BB EE 
039dc     BB EE BB EE | 	byte	$aa, $55, $aa, $55, $aa, $55, $aa, $55, $bb, $ee, $bb, $ee, $bb, $ee, $bb, $ee
039e0     BB EE BB EE 
039e4     BB EE BB EE 
039e8     18 18 18 18 
039ec     18 18 18 18 | 	byte	$bb, $ee, $bb, $ee, $bb, $ee, $bb, $ee, $18, $18, $18, $18, $18, $18, $18, $18
039f0     18 18 18 18 
039f4     18 18 18 18 
039f8     18 18 18 18 
039fc     18 18 18    | 	byte	$18[15]
039ff     1F 18 18 18 
03a03     18 18 18 18 
03a07     18 30 18 00 
03a0b     08 1C 36 63 | 	byte	$1f, $18, $18, $18, $18, $18, $18, $18, $18, $30, $18, $00, $08, $1c, $36, $63
03a0f     63 7F 63 63 
03a13     63 63 00 00 
03a17     00 1C 36 00 
03a1b     08 1C 36 63 | 	byte	$63, $7f, $63, $63, $63, $63, $00, $00, $00, $1c, $36, $00, $08, $1c, $36, $63
03a1f     63 7F 63 63 
03a23     63 63 00 00 
03a27     00 36 1C 00 
03a2b     7F 66 46 16 | 	byte	$63, $7f, $63, $63, $63, $63, $00, $00, $00, $36, $1c, $00, $7f, $66, $46, $16
03a2f     1E 16 06 46 
03a33     66 7F 00 00 
03a37     00 00 00 00 
03a3b     3E 63 63 06 | 	byte	$1e, $16, $06, $46, $66, $7f, $00, $00, $00, $00, $00, $00, $3e, $63, $63, $06
03a3f     1C 30 60 63 
03a43     63 3E 18 30 
03a47     1E 6C 6C 6C 
03a4b     6C 6C 6F 60 | 	byte	$1c, $30, $60, $63, $63, $3e, $18, $30, $1e, $6c, $6c, $6c, $6c, $6c, $6f, $60
03a4f     6F 6C 6C 6C 
03a53     6C 6C 6C 6C 
03a57     6C 6C 6C 6C 
03a5b     6C 6C 6C 6C | 	byte	$6f, $6c, $6c, $6c, $6c, $6c, $6c, $6c, $6c, $6c, $6c, $6c, $6c, $6c, $6c, $6c
03a5f     6C 6C 6C 6C 
03a63     6C 6C 6C 6C 
03a67     6C          | 	byte	$6c[9]
03a68     00 00 00 00 
03a6c     00          | 	byte	$00[5]
03a6d     7F 60 6F 6C 
03a71     6C 6C 6C 6C 
03a75     6C 6C 6C 6C 
03a79     6C 6C 6C 6C | 	byte	$7f, $60, $6f, $6c, $6c, $6c, $6c, $6c, $6c, $6c, $6c, $6c, $6c, $6c, $6c, $6c
03a7d     6F 60 7F 00 
03a81     00 00 00 00 
03a85     00 00 00 18 
03a89     18 00 7F 63 | 	byte	$6f, $60, $7f, $00, $00, $00, $00, $00, $00, $00, $00, $18, $18, $00, $7f, $63
03a8d     61 30 18 0C 
03a91     06 43 63 7F 
03a95     00 00 00 00 
03a99     00 00 18 18 | 	byte	$61, $30, $18, $0c, $06, $43, $63, $7f, $00, $00, $00, $00, $00, $00, $18, $18
03a9d     00 7F 33 18 
03aa1     0C 06 63 7F 
03aa5     00 00 00 00 
03aa9     00 00 00 00 | 	byte	$00, $7f, $33, $18, $0c, $06, $63, $7f, $00, $00, $00, $00, $00, $00, $00, $00
03aad     00 00 1F 18 
03ab1     18 18 18 18 
03ab5     18 18 18 18 
03ab9     18 18 18 18 | 	byte	$00, $00, $1f, $18, $18, $18, $18, $18, $18, $18, $18, $18, $18, $18, $18, $18
03abd     18 18 F8 00 
03ac1     00 00 00 00 
03ac5     00 00 00 18 
03ac9     18 18 18 18 | 	byte	$18, $18, $f8, $00, $00, $00, $00, $00, $00, $00, $00, $18, $18, $18, $18, $18
03acd     18 18 FF 00 
03ad1     00 00 00 00 
03ad5     00 00 00 00 
03ad9     00 00 00 00 | 	byte	$18, $18, $ff, $00, $00, $00, $00, $00, $00, $00, $00, $00, $00, $00, $00, $00
03add     00 00 FF 18 
03ae1     18 18 18 18 
03ae5     18 18 18 18 
03ae9     18 18 18 18 | 	byte	$00, $00, $ff, $18, $18, $18, $18, $18, $18, $18, $18, $18, $18, $18, $18, $18
03aed     18 18 F8 18 
03af1     18 18 18 18 
03af5     18 18 18 00 
03af9     00 00 00 00 | 	byte	$18, $18, $f8, $18, $18, $18, $18, $18, $18, $18, $18, $00, $00, $00, $00, $00
03afd     00 00 FF 00 
03b01     00 00 00 00 
03b05     00 00 00 18 
03b09     18 18 18 18 | 	byte	$00, $00, $ff, $00, $00, $00, $00, $00, $00, $00, $00, $18, $18, $18, $18, $18
03b0d     18 18 FF 18 
03b11     18 18 18 18 
03b15     18 18 18 63 
03b19     3E 00 08 1C | 	byte	$18, $18, $ff, $18, $18, $18, $18, $18, $18, $18, $18, $63, $3e, $00, $08, $1c
03b1d     36 63 63 7F 
03b21     63 63 63 63 
03b25     00 00 00 00 
03b29     00 00 63 3E | 	byte	$36, $63, $63, $7f, $63, $63, $63, $63, $00, $00, $00, $00, $00, $00, $63, $3e
03b2d     00 1E 30 3E 
03b31     33 33 33 6E 
03b35     00 00 00 6C 
03b39     6C 6C 6C 6C | 	byte	$00, $1e, $30, $3e, $33, $33, $33, $6e, $00, $00, $00, $6c, $6c, $6c, $6c, $6c
03b3d     EC 0C FC 00 
03b41     00 00 00 00 
03b45     00 00 00 00 
03b49     00 00 00 00 | 	byte	$ec, $0c, $fc, $00, $00, $00, $00, $00, $00, $00, $00, $00, $00, $00, $00, $00
03b4d     FC 0C EC 6C 
03b51     6C 6C 6C 6C 
03b55     6C 6C 6C 6C 
03b59     6C 6C 6C 6C | 	byte	$fc, $0c, $ec, $6c, $6c, $6c, $6c, $6c, $6c, $6c, $6c, $6c, $6c, $6c, $6c, $6c
03b5d     EF 00 FF 00 
03b61     00 00 00 00 
03b65     00 00 00 00 
03b69     00 00 00 00 | 	byte	$ef, $00, $ff, $00, $00, $00, $00, $00, $00, $00, $00, $00, $00, $00, $00, $00
03b6d     FF 00 EF 6C 
03b71     6C 6C 6C 6C 
03b75     6C 6C 6C 6C 
03b79     6C 6C 6C 6C | 	byte	$ff, $00, $ef, $6c, $6c, $6c, $6c, $6c, $6c, $6c, $6c, $6c, $6c, $6c, $6c, $6c
03b7d     EC 0C EC 6C 
03b81     6C 6C 6C 6C 
03b85     6C 6C 6C 00 
03b89     00 00 00 00 | 	byte	$ec, $0c, $ec, $6c, $6c, $6c, $6c, $6c, $6c, $6c, $6c, $00, $00, $00, $00, $00
03b8d     FF 00 FF 00 
03b91     00 00 00 00 
03b95     00 00 00 6C 
03b99     6C 6C 6C 6C | 	byte	$ff, $00, $ff, $00, $00, $00, $00, $00, $00, $00, $00, $6c, $6c, $6c, $6c, $6c
03b9d     EF 00 EF 6C 
03ba1     6C 6C 6C 6C 
03ba5     6C 6C 6C 00 
03ba9     00 00 00 00 | 	byte	$ef, $00, $ef, $6c, $6c, $6c, $6c, $6c, $6c, $6c, $6c, $00, $00, $00, $00, $00
03bad     63 3E 63 63 
03bb1     63 63 3E 63 
03bb5     00 00 00 00 
03bb9     00 00 30 7E | 	byte	$63, $3e, $63, $63, $63, $63, $3e, $63, $00, $00, $00, $00, $00, $00, $30, $7e
03bbd     30 3C 36 33 
03bc1     33 33 33 6E 
03bc5     00 00 00 00 
03bc9     00 00 1F 36 | 	byte	$30, $3c, $36, $33, $33, $33, $33, $6e, $00, $00, $00, $00, $00, $00, $1f, $36
03bcd     66 66 6F 66 
03bd1     66 66 36 1F 
03bd5     00 00 00 36 
03bd9     1C 00 1F 36 | 	byte	$66, $66, $6f, $66, $66, $66, $36, $1f, $00, $00, $00, $36, $1c, $00, $1f, $36
03bdd     66 66 66 66 
03be1     66 66       | 	byte	$66[6]
03be3     36 1F 00 00 
03be7     00 00 63 00 
03beb     7F 66 46 16 
03bef     1E 16 06 46 | 	byte	$36, $1f, $00, $00, $00, $00, $63, $00, $7f, $66, $46, $16, $1e, $16, $06, $46
03bf3     66 7F 00 00 
03bf7     00 6C 38 00 
03bfb     38 30 30 3C 
03bff     36 33 33 33 | 	byte	$66, $7f, $00, $00, $00, $6c, $38, $00, $38, $30, $30, $3c, $36, $33, $33, $33
03c03     33 6E 00 00 
03c07     00 36 1C 00 
03c0b     63 67 6F 7F 
03c0f     7B 73 63 63 | 	byte	$33, $6e, $00, $00, $00, $36, $1c, $00, $63, $67, $6f, $7f, $7b, $73, $63, $63
03c13     63 63 00 00 
03c17     00 30 18 00 
03c1b     3C 18 18 18 
03c1f     18 18 18 18 | 	byte	$63, $63, $00, $00, $00, $30, $18, $00, $3c, $18, $18, $18, $18, $18, $18, $18
03c23     18 3C 00 00 
03c27     00 3C 66 00 
03c2b     3C 18 18 18 
03c2f     18 18 18 18 | 	byte	$18, $3c, $00, $00, $00, $3c, $66, $00, $3c, $18, $18, $18, $18, $18, $18, $18
03c33     18 3C 00 00 
03c37     00 00 00 36 
03c3b     1C 08 00 3E 
03c3f     63 7F 03 03 | 	byte	$18, $3c, $00, $00, $00, $00, $00, $36, $1c, $08, $00, $3e, $63, $7f, $03, $03
03c43     63 3E 00 00 
03c47     00 18 18 18 
03c4b     18 18 18 18 
03c4f     1F 00 00 00 | 	byte	$63, $3e, $00, $00, $00, $18, $18, $18, $18, $18, $18, $18, $1f, $00, $00, $00
03c53     00 00 00 00 
03c57     00 00 00 00 
03c5b     00 00 00 00 | 	byte	$00[12]
03c5f     F8 18 18 18 
03c63     18 18 18 18 
03c67     18 FF FF FF 
03c6b     FF FF FF FF | 	byte	$f8, $18, $18, $18, $18, $18, $18, $18, $18, $ff, $ff, $ff, $ff, $ff, $ff, $ff
03c6f     FF FF FF FF 
03c73     FF FF FF FF 
03c77     FF          | 	byte	$ff[9]
03c78     00 00 00 00 
03c7c     00 00 00    | 	byte	$00[7]
03c7f     FF FF FF FF 
03c83     FF FF FF FF 
03c87     FF          | 	byte	$ff[9]
03c88     00 00 00 7E 
03c8c     7E 5A 18 18 
03c90     18 18 18 18 
03c94     3C 18 30 1E | 	byte	$00, $00, $00, $7e, $7e, $5a, $18, $18, $18, $18, $18, $18, $3c, $18, $30, $1e
03c98     1C 36 1C 63 
03c9c     63 63 63 63 
03ca0     63 63 63 63 
03ca4     3E 00 00 00 | 	byte	$1c, $36, $1c, $63, $63, $63, $63, $63, $63, $63, $63, $63, $3e, $00, $00, $00
03ca8     FF FF FF FF 
03cac     FF FF FF    | 	byte	$ff[7]
03caf     00 00 00 00 
03cb3     00 00 00 00 
03cb7     00          | 	byte	$00[9]
03cb8     30 18 00 3E 
03cbc     63 63 63 63 
03cc0     63 63 63 63 
03cc4     3E 00 00 00 | 	byte	$30, $18, $00, $3e, $63, $63, $63, $63, $63, $63, $63, $63, $3e, $00, $00, $00
03cc8     00 00 00 1E 
03ccc     33 33 33 1B 
03cd0     33 63 63 63 
03cd4     33 00 00 00 | 	byte	$00, $00, $00, $1e, $33, $33, $33, $1b, $33, $63, $63, $63, $33, $00, $00, $00
03cd8     1C 36 00 3E 
03cdc     63 63 63 63 
03ce0     63 63 63 63 
03ce4     3E 00 00 00 | 	byte	$1c, $36, $00, $3e, $63, $63, $63, $63, $63, $63, $63, $63, $3e, $00, $00, $00
03ce8     30 18 00 63 
03cec     67 6F 7F 7B 
03cf0     73 63 63 63 
03cf4     63 00 00 00 | 	byte	$30, $18, $00, $63, $67, $6f, $7f, $7b, $73, $63, $63, $63, $63, $00, $00, $00
03cf8     00 00 60 30 
03cfc     18 00 3B 66 
03d00     66 66 66 66 
03d04     66 00 00 00 | 	byte	$00, $00, $60, $30, $18, $00, $3b, $66, $66, $66, $66, $66, $66, $00, $00, $00
03d08     00 00 36 1C 
03d0c     08 00 3B 66 
03d10     66 66 66 66 
03d14     66 00 00 00 | 	byte	$00, $00, $36, $1c, $08, $00, $3b, $66, $66, $66, $66, $66, $66, $00, $00, $00
03d18     36 1C 00 3E 
03d1c     63 63 06 1C 
03d20     30 60 63 63 
03d24     3E 00 00 00 | 	byte	$36, $1c, $00, $3e, $63, $63, $06, $1c, $30, $60, $63, $63, $3e, $00, $00, $00
03d28     00 00 36 1C 
03d2c     08 00 3E 63 
03d30     06 1C 30 63 
03d34     3E 00 00 00 | 	byte	$00, $00, $36, $1c, $08, $00, $3e, $63, $06, $1c, $30, $63, $3e, $00, $00, $00
03d38     30 18 00 3F 
03d3c     66 66 66 3E 
03d40     36 66 66 66 
03d44     6F 00 00 00 | 	byte	$30, $18, $00, $3f, $66, $66, $66, $3e, $36, $66, $66, $66, $6f, $00, $00, $00
03d48     30 18 00 63 
03d4c     63 63 63 63 
03d50     63 63 63 63 
03d54     3E 00 00 00 | 	byte	$30, $18, $00, $63, $63, $63, $63, $63, $63, $63, $63, $63, $3e, $00, $00, $00
03d58     00 00 60 30 
03d5c     18 00 3B 6E 
03d60     66 06 06 06 
03d64     0F 00 00 00 | 	byte	$00, $00, $60, $30, $18, $00, $3b, $6e, $66, $06, $06, $06, $0f, $00, $00, $00
03d68     66 33 00 63 
03d6c     63 63 63 63 
03d70     63 63 63 63 
03d74     3E 00 00 00 | 	byte	$66, $33, $00, $63, $63, $63, $63, $63, $63, $63, $63, $63, $3e, $00, $00, $00
03d78     00 00 60 30 
03d7c     18 00 63 63 
03d80     63 63 63 63 
03d84     7E 60 30 1F | 	byte	$00, $00, $60, $30, $18, $00, $63, $63, $63, $63, $63, $63, $7e, $60, $30, $1f
03d88     30 18 00 66 
03d8c     66 66 66 3C 
03d90     18 18 18 18 
03d94     3C 00 00 00 | 	byte	$30, $18, $00, $66, $66, $66, $66, $3c, $18, $18, $18, $18, $3c, $00, $00, $00
03d98     00 00 00 08 
03d9c     0C 0C 3F 0C 
03da0     0C 0C 0C 6C 
03da4     38 18 30 1E | 	byte	$00, $00, $00, $08, $0c, $0c, $3f, $0c, $0c, $0c, $0c, $6c, $38, $18, $30, $1e
03da8     30 18 00 00 
03dac     00 00 00 00 
03db0     00 00 00 00 
03db4     00 00 00 00 | 	byte	$30, $18, $00, $00, $00, $00, $00, $00, $00, $00, $00, $00, $00, $00, $00, $00
03db8     00 00 00 00 
03dbc     00 00 00 00 | 	byte	$00[8]
03dc0     7F 00 00 00 
03dc4     00 00 00 00 
03dc8     66 33 00 00 
03dcc     00 00 00 00 | 	byte	$7f, $00, $00, $00, $00, $00, $00, $00, $66, $33, $00, $00, $00, $00, $00, $00
03dd0     00 00 00 00 
03dd4     00 00 00 00 
03dd8     00 00 00 00 
03ddc     00 00 00 00 
03de0     00 00 00 00 
03de4     00          | 	byte	$00[21]
03de5     0C 06 3C 36 
03de9     1C 00 00 00 
03ded     00 00 00 00 
03df1     00 00 00 00 | 	byte	$0c, $06, $3c, $36, $1c, $00, $00, $00, $00, $00, $00, $00, $00, $00, $00, $00
03df5     00 00 00 63 
03df9     3E 00 00 00 
03dfd     00 00 00 00 
03e01     00 00 00 00 | 	byte	$00, $00, $00, $63, $3e, $00, $00, $00, $00, $00, $00, $00, $00, $00, $00, $00
03e05     00 00 00 00 
03e09     3E 63 06 1C 
03e0d     36 63 63 36 
03e11     1C 30 63 3E | 	byte	$00, $00, $00, $00, $3e, $63, $06, $1c, $36, $63, $63, $36, $1c, $30, $63, $3e
03e15     00 00 00 00 
03e19     00 00 00 00 | 	byte	$00[8]
03e1d     18 00 7E 00 
03e21     18 00 00 00 
03e25     00 00 00 00 
03e29     00 00 00 00 | 	byte	$18, $00, $7e, $00, $18, $00, $00, $00, $00, $00, $00, $00, $00, $00, $00, $00
03e2d     00 00 00 00 
03e31     00 00 00 00 | 	byte	$00[8]
03e35     18 30 1E 00 
03e39     00 00 1C 36 
03e3d     36 1C 00 00 
03e41     00 00 00 00 | 	byte	$18, $30, $1e, $00, $00, $00, $1c, $36, $36, $1c, $00, $00, $00, $00, $00, $00
03e45     00 00 00 00 
03e49     63 00 00 00 
03e4d     00 00 00 00 
03e51     00 00 00 00 | 	byte	$00, $00, $00, $00, $63, $00, $00, $00, $00, $00, $00, $00, $00, $00, $00, $00
03e55     00 00 00 18 
03e59     18 00 00 00 
03e5d     00 00 00 00 
03e61     00 00 00 00 | 	byte	$00, $00, $00, $18, $18, $00, $00, $00, $00, $00, $00, $00, $00, $00, $00, $00
03e65     00 00 00 00 
03e69     00          | 	byte	$00[5]
03e6a     CC 66 33 00 
03e6e     33 33 33 33 
03e72     33 33 6E 00 
03e76     00 00 36 1C | 	byte	$cc, $66, $33, $00, $33, $33, $33, $33, $33, $33, $6e, $00, $00, $00, $36, $1c
03e7a     00 3F 66 66 
03e7e     66 3E 36 66 
03e82     66 66 6F 00 
03e86     00 00 00 00 | 	byte	$00, $3f, $66, $66, $66, $3e, $36, $66, $66, $66, $6f, $00, $00, $00, $00, $00
03e8a     36 1C 08 00 
03e8e     3B 6E 66 06 
03e92     06 06 0F 00 
03e96     00 00 00 00 | 	byte	$36, $1c, $08, $00, $3b, $6e, $66, $06, $06, $06, $0f, $00, $00, $00, $00, $00
03e9a     00 00 00 7E 
03e9e     7E 7E 7E 7E 
03ea2     7E 7E 00 00 
03ea6     00 00 00 00 | 	byte	$00, $00, $00, $7e, $7e, $7e, $7e, $7e, $7e, $7e, $00, $00, $00, $00, $00, $00
03eaa     00 00 00 00 
03eae     00 00 00 00 
03eb2     00 00 00 00 
03eb6     00 00       | 	byte	$00, $00, $00, $00, $00, $00, $00, $00, $00, $00, $00, $00, $00, $00
03eb8     00 00 00 00 
      ...             
03ee8     00 00 00 00 
03eec     00 00 00    | st_font        file "st4font.def"
03eef     FF FF 00 00 
03ef3     00 00 00 00 
03ef7     00 18 18 18 
03efb     18 18 18 18 | 	byte	$ff, $ff, $00, $00, $00, $00, $00, $00, $00, $18, $18, $18, $18, $18, $18, $18
03eff     18 18 18 18 
03f03     18 18 18 18 
03f07     18          | 	byte	$18[9]
03f08     00 00 00 00 
03f0c     00 00 00    | 	byte	$00[7]
03f0f     FF FF 18 18 
03f13     18 18 18 18 
03f17     18 18 18 18 
03f1b     18 18 18 18 | 	byte	$ff, $ff, $18, $18, $18, $18, $18, $18, $18, $18, $18, $18, $18, $18, $18, $18
03f1f     FF FF 00 00 
03f23     00 00 00 00 
03f27     00 18 18 18 
03f2b     18 18 18 18 | 	byte	$ff, $ff, $00, $00, $00, $00, $00, $00, $00, $18, $18, $18, $18, $18, $18, $18
03f2f     1F 1F 18 18 
03f33     18 18 18 18 
03f37     18 18 18 18 
03f3b     18 18 18 18 | 	byte	$1f, $1f, $18, $18, $18, $18, $18, $18, $18, $18, $18, $18, $18, $18, $18, $18
03f3f     F8 F8 18 18 
03f43     18 18 18 18 
03f47     18 00 00 00 
03f4b     00 00 00 00 | 	byte	$f8, $f8, $18, $18, $18, $18, $18, $18, $18, $00, $00, $00, $00, $00, $00, $00
03f4f     1F 1F 18 18 
03f53     18 18 18 18 
03f57     18 00 00 00 
03f5b     00 00 00 00 | 	byte	$1f, $1f, $18, $18, $18, $18, $18, $18, $18, $00, $00, $00, $00, $00, $00, $00
03f5f     F8 F8 18 18 
03f63     18 18 18 18 
03f67     18 18 18 18 
03f6b     18 18 18 18 | 	byte	$f8, $f8, $18, $18, $18, $18, $18, $18, $18, $18, $18, $18, $18, $18, $18, $18
03f6f     1F 1F 00 00 
03f73     00 00 00 00 
03f77     00 18 18 18 
03f7b     18 18 18 18 | 	byte	$1f, $1f, $00, $00, $00, $00, $00, $00, $00, $18, $18, $18, $18, $18, $18, $18
03f7f     F8 F8 00 00 
03f83     00 00 00 00 
03f87     00 18 18 18 
03f8b     18 18 18 18 | 	byte	$f8, $f8, $00, $00, $00, $00, $00, $00, $00, $18, $18, $18, $18, $18, $18, $18
03f8f     FF FF 18 18 
03f93     18 18 18 18 
03f97     18 00 00 18 
03f9b     3C 7E 66 66 | 	byte	$ff, $ff, $18, $18, $18, $18, $18, $18, $18, $00, $00, $18, $3c, $7e, $66, $66
03f9f     66 7E 7E 66 
03fa3     66 66 66 30 
03fa7     18 00 00 7E 
03fab     7E 06 06 3E | 	byte	$66, $7e, $7e, $66, $66, $66, $66, $30, $18, $00, $00, $7e, $7e, $06, $06, $3e
03faf     3E 06 06 06 
03fb3     06 7E 7E 18 
03fb7     0C 30 18 3C 
03fbb     7E 66 66 06 | 	byte	$3e, $06, $06, $06, $06, $7e, $7e, $18, $0c, $30, $18, $3c, $7e, $66, $66, $06
03fbf     06 06 06 66 
03fc3     66 7E 3C 00 
03fc7     00 30 18 66 
03fcb     66 66 6E 6E | 	byte	$06, $06, $06, $66, $66, $7e, $3c, $00, $00, $30, $18, $66, $66, $66, $6e, $6e
03fcf     7E 7E 76 76 
03fd3     66 66 66 00 
03fd7     00 30 18 7C 
03fdb     7E 06 06 0E | 	byte	$7e, $7e, $76, $76, $66, $66, $66, $00, $00, $30, $18, $7c, $7e, $06, $06, $0e
03fdf     1C 38 70 60 
03fe3     60 7E 3E 00 
03fe7     00 30 18 7E 
03feb     7E 30 30 18 | 	byte	$1c, $38, $70, $60, $60, $7e, $3e, $00, $00, $30, $18, $7e, $7e, $30, $30, $18
03fef     18 0C 0C 06 
03ff3     06 7E 7E 00 
03ff7     00 18 18 00 
03ffb     7E 7E 30 30 | 	byte	$18, $0c, $0c, $06, $06, $7e, $7e, $00, $00, $18, $18, $00, $7e, $7e, $30, $30
03fff     18 18 0C 0C 
04003     06 7E 7E 00 
04007     00 30 18 3C 
0400b     7E 66 66 66 | 	byte	$18, $18, $0c, $0c, $06, $7e, $7e, $00, $00, $30, $18, $3c, $7e, $66, $66, $66
0400f     66 66 66 66 
04013     66          | 	byte	$66[5]
04014     7E 3C 00 00 
04018     00 00 06 06 
0401c     06 06 16 1E 
04020     0E 06 06 06 | 	byte	$7e, $3c, $00, $00, $00, $00, $06, $06, $06, $06, $16, $1e, $0e, $06, $06, $06
04024     7E 7E 00 00 
04028     00 00 00 00 
0402c     00 3C 7C 60 
04030     7C 7E 66 66 | 	byte	$7e, $7e, $00, $00, $00, $00, $00, $00, $00, $3c, $7c, $60, $7c, $7e, $66, $66
04034     7E 7C 30 18 
04038     00 00 00 00 
0403c     00 3C 7E 66 
04040     66 7E 06 06 | 	byte	$7e, $7c, $30, $18, $00, $00, $00, $00, $00, $3c, $7e, $66, $66, $7e, $06, $06
04044     7E 7C 18 0C 
04048     00 00 30 18 
0404c     00 3C 3E 06 
04050     06 06 06 06 | 	byte	$7e, $7c, $18, $0c, $00, $00, $30, $18, $00, $3c, $3e, $06, $06, $06, $06, $06
04054     7E 7C 00 00 
04058     00 00 30 18 
0405c     00 3E 7E 66 
04060     66 66 66 66 | 	byte	$7e, $7c, $00, $00, $00, $00, $30, $18, $00, $3e, $7e, $66, $66, $66, $66, $66
04064     66 66 00 00 
04068     00 00 30 18 
0406c     00 7C 7E 06 
04070     0E 3C 70 60 | 	byte	$66, $66, $00, $00, $00, $00, $30, $18, $00, $7c, $7e, $06, $0e, $3c, $70, $60
04074     7E 3E 00 00 
04078     00 00 30 18 
0407c     00 7E 7E 30 
04080     18 18 0C 0C | 	byte	$7e, $3e, $00, $00, $00, $00, $30, $18, $00, $7e, $7e, $30, $18, $18, $0c, $0c
04084     7E 7E 00 00 
04088     00 00 18 18 
0408c     00 7E 7E 30 
04090     18 18 0C 0C | 	byte	$7e, $7e, $00, $00, $00, $00, $18, $18, $00, $7e, $7e, $30, $18, $18, $0c, $0c
04094     7E 7E 00 00 
04098     00 00 30 18 
0409c     00 3C 7E 66 
040a0     66 66 66 66 | 	byte	$7e, $7e, $00, $00, $00, $00, $30, $18, $00, $3c, $7e, $66, $66, $66, $66, $66
040a4     7E 3C 00 00 
040a8     00 00 1C 1C 
040ac     18 18 38 3C 
040b0     1C 18 18 18 | 	byte	$7e, $3c, $00, $00, $00, $00, $1c, $1c, $18, $18, $38, $3c, $1c, $18, $18, $18
040b4     3C 3C 00 00 
040b8     00 00 00 00 
040bc     00 00 00 00 
040c0     00 00 00 00 | 	byte	$3c, $3c, $00, $00, $00, $00, $00, $00, $00, $00, $00, $00, $00, $00, $00, $00
040c4     00 00 00 00 
040c8     00 00       | 	byte	$00[6]
040ca     18 18 18 18 
040ce     18 18 18 18 | 	byte	$18[8]
040d2     00 00 18 18 
040d6     00 00 00 00 
040da     66 66 66 66 
040de     00 00 00 00 | 	byte	$00, $00, $18, $18, $00, $00, $00, $00, $66, $66, $66, $66, $00, $00, $00, $00
040e2     00 00 00 00 
040e6     00 00 00 00 
040ea     00          | 	byte	$00[9]
040eb     66 66 FF FF 
040ef     66 66 FF FF 
040f3     66 66 00 00 
040f7     00 00 18 18 | 	byte	$66, $66, $ff, $ff, $66, $66, $ff, $ff, $66, $66, $00, $00, $00, $00, $18, $18
040fb     7C 7E 06 06 
040ff     3E 7C 60 60 
04103     7E 3E 18 18 
04107     00 00 00 66 | 	byte	$7c, $7e, $06, $06, $3e, $7c, $60, $60, $7e, $3e, $18, $18, $00, $00, $00, $66
0410b     66 30 30 18 
0410f     18 0C 0C 66 
04113     66 00 00 00 
04117     00 00 3C 7E | 	byte	$66, $30, $30, $18, $18, $0c, $0c, $66, $66, $00, $00, $00, $00, $00, $3c, $7e
0411b     66 66 3C 1C 
0411f     1C FC FE 66 
04123     66 FE FC 00 
04127     00 00 00 18 | 	byte	$66, $66, $3c, $1c, $1c, $fc, $fe, $66, $66, $fe, $fc, $00, $00, $00, $00, $18
0412b     18 18 18 18 
0412f     00 00 00 00 
04133     00 00 00 00 
04137     00 00 00 30 | 	byte	$18, $18, $18, $18, $00, $00, $00, $00, $00, $00, $00, $00, $00, $00, $00, $30
0413b     18 1C 0C 0C 
0413f     0C 0C 0C 0C 
04143     1C 18 30 00 
04147     00 00 00 0C | 	byte	$18, $1c, $0c, $0c, $0c, $0c, $0c, $0c, $1c, $18, $30, $00, $00, $00, $00, $0c
0414b     18 38 30 30 
0414f     30 30 30 30 
04153     38 18 0C 00 
04157     00 00 00 00 | 	byte	$18, $38, $30, $30, $30, $30, $30, $30, $38, $18, $0c, $00, $00, $00, $00, $00
0415b     66 66 3C 3C 
0415f     FF FF 3C 3C 
04163     66 66 00 00 
04167     00 00 00 00 | 	byte	$66, $66, $3c, $3c, $ff, $ff, $3c, $3c, $66, $66, $00, $00, $00, $00, $00, $00
0416b     00 18 18 18 
0416f     7E 7E 18 18 
04173     18 00 00 00 
04177     00 00 00 00 | 	byte	$00, $18, $18, $18, $7e, $7e, $18, $18, $18, $00, $00, $00, $00, $00, $00, $00
0417b     00 00 00 00 
0417f     00 00       | 	byte	$00[6]
04181     18 18 18 18 
04185     18          | 	byte	$18[5]
04186     0C 04 00 00 
0418a     00 00 00 00 
0418e     7E 7E 00 00 
04192     00 00 00 00 | 	byte	$0c, $04, $00, $00, $00, $00, $00, $00, $7e, $7e, $00, $00, $00, $00, $00, $00
04196     00 00 00 00 
0419a     00 00 00 00 
0419e     00 00 00 00 
041a2     00          | 	byte	$00[13]
041a3     18 18 18 00 
041a7     00 00 00 60 
041ab     60 60 30 30 
041af     18 18 0C 0C | 	byte	$18, $18, $18, $00, $00, $00, $00, $60, $60, $60, $30, $30, $18, $18, $0c, $0c
041b3     06 06 06 00 
041b7     00 00 00 3C 
041bb     7E 66 66 66 
041bf     76 6E 66 66 | 	byte	$06, $06, $06, $00, $00, $00, $00, $3c, $7e, $66, $66, $66, $76, $6e, $66, $66
041c3     66 7E 3C 00 
041c7     00 00 00 18 
041cb     18 1C 1C 18 
041cf     18 18 18 18 | 	byte	$66, $7e, $3c, $00, $00, $00, $00, $18, $18, $1c, $1c, $18, $18, $18, $18, $18
041d3     18 7E 7E 00 
041d7     00 00 00 3C 
041db     7E 66 66 30 
041df     30 18 18 0C | 	byte	$18, $7e, $7e, $00, $00, $00, $00, $3c, $7e, $66, $66, $30, $30, $18, $18, $0c
041e3     0C 7E 7E 00 
041e7     00 00 00 7E 
041eb     7E 30 30 18 
041ef     18 30 30 66 | 	byte	$0c, $7e, $7e, $00, $00, $00, $00, $7e, $7e, $30, $30, $18, $18, $30, $30, $66
041f3     66 7E 3C 00 
041f7     00 00 00 30 
041fb     30 38 38 3C 
041ff     3C 36 36 7E | 	byte	$66, $7e, $3c, $00, $00, $00, $00, $30, $30, $38, $38, $3c, $3c, $36, $36, $7e
04203     7E 30 30 00 
04207     00 00 00 7E 
0420b     7E 06 06 3E 
0420f     7E 60 60 60 | 	byte	$7e, $30, $30, $00, $00, $00, $00, $7e, $7e, $06, $06, $3e, $7e, $60, $60, $60
04213     66 7E 3C 00 
04217     00 00 00 38 
0421b     3C 0E 06 06 
0421f     3E 7E 66 66 | 	byte	$66, $7e, $3c, $00, $00, $00, $00, $38, $3c, $0e, $06, $06, $3e, $7e, $66, $66
04223     66 7E 3C 00 
04227     00 00 00 7E 
0422b     7E 60 60 30 
0422f     30 18 18 0C | 	byte	$66, $7e, $3c, $00, $00, $00, $00, $7e, $7e, $60, $60, $30, $30, $18, $18, $0c
04233     0C 0C 0C 00 
04237     00 00 00 3C 
0423b     7E 66 66 3C 
0423f     3C 66 66 66 | 	byte	$0c, $0c, $0c, $00, $00, $00, $00, $3c, $7e, $66, $66, $3c, $3c, $66, $66, $66
04243     66 7E 3C 00 
04247     00 00 00 3C 
0424b     7E 66 66 7E 
0424f     7C 60 60 60 | 	byte	$66, $7e, $3c, $00, $00, $00, $00, $3c, $7e, $66, $66, $7e, $7c, $60, $60, $60
04253     70 3C 1C 00 
04257     00 00 00 00 
0425b     00 00 18 18 
0425f     18 00 00 00 | 	byte	$70, $3c, $1c, $00, $00, $00, $00, $00, $00, $00, $18, $18, $18, $00, $00, $00
04263     18 18 18 00 
04267     00 00 00 00 
0426b     00 00 18 18 
0426f     18 00 00 18 | 	byte	$18, $18, $18, $00, $00, $00, $00, $00, $00, $00, $18, $18, $18, $00, $00, $18
04273     18 18 18 0C 
04277     04 00 00 00 
0427b     70 38 1C 0E 
0427f     07 0E 1C 38 | 	byte	$18, $18, $18, $0c, $04, $00, $00, $00, $70, $38, $1c, $0e, $07, $0e, $1c, $38
04283     70 00 00 00 
04287     00 00 00 00 
0428b     00 00 7E 7E 
0428f     00 00 7E 7E | 	byte	$70, $00, $00, $00, $00, $00, $00, $00, $00, $00, $7e, $7e, $00, $00, $7e, $7e
04293     00 00 00 00 
04297     00 00 00 00 | 	byte	$00[8]
0429b     0E 1C 38 70 
0429f     E0 70 38 1C 
042a3     0E 00 00 00 
042a7     00 00 00 3C | 	byte	$0e, $1c, $38, $70, $e0, $70, $38, $1c, $0e, $00, $00, $00, $00, $00, $00, $3c
042ab     7E 66 66 30 
042af     30 18 18 18 
042b3     00 18 18 00 
042b7     00 00 00 3C | 	byte	$7e, $66, $66, $30, $30, $18, $18, $18, $00, $18, $18, $00, $00, $00, $00, $3c
042bb     7E 66 66 66 
042bf     66 36 06 66 
042c3     66 7E 3C 00 
042c7     00 00 00 18 | 	byte	$7e, $66, $66, $66, $66, $36, $06, $66, $66, $7e, $3c, $00, $00, $00, $00, $18
042cb     3C 7E 66 66 
042cf     66 7E 7E 66 
042d3     66 66 66 00 
042d7     00 00 00 3E | 	byte	$3c, $7e, $66, $66, $66, $7e, $7e, $66, $66, $66, $66, $00, $00, $00, $00, $3e
042db     7E 66 66 7E 
042df     3E 66 66 66 
042e3     66 7E 3E 00 
042e7     00 00 00 3C | 	byte	$7e, $66, $66, $7e, $3e, $66, $66, $66, $66, $7e, $3e, $00, $00, $00, $00, $3c
042eb     7E 66 66 06 
042ef     06 06 06 66 
042f3     66 7E 3C 00 
042f7     00 00 00 3E | 	byte	$7e, $66, $66, $06, $06, $06, $06, $66, $66, $7e, $3c, $00, $00, $00, $00, $3e
042fb     7E 66 66 66 
042ff     66 66 66 66 
04303     66 7E 3E 00 
04307     00 00 00 7E | 	byte	$7e, $66, $66, $66, $66, $66, $66, $66, $66, $7e, $3e, $00, $00, $00, $00, $7e
0430b     7E 06 06 3E 
0430f     3E 06 06 06 
04313     06 7E 7E 00 
04317     00 00 00 7E | 	byte	$7e, $06, $06, $3e, $3e, $06, $06, $06, $06, $7e, $7e, $00, $00, $00, $00, $7e
0431b     7E 06 06 3E 
0431f     3E 06 06 06 
04323     06 06 06 00 
04327     00 00 00 7C | 	byte	$7e, $06, $06, $3e, $3e, $06, $06, $06, $06, $06, $06, $00, $00, $00, $00, $7c
0432b     7E 06 06 76 
0432f     76 66 66 66 
04333     66 7E 3C 00 
04337     00 00 00 66 | 	byte	$7e, $06, $06, $76, $76, $66, $66, $66, $66, $7e, $3c, $00, $00, $00, $00, $66
0433b     66 66 66 7E 
0433f     7E 66 66 66 
04343     66 66 66 00 
04347     00 00 00 7E | 	byte	$66, $66, $66, $7e, $7e, $66, $66, $66, $66, $66, $66, $00, $00, $00, $00, $7e
0434b     7E 18 18 18 
0434f     18 18 18 18 
04353     18 7E 7E 00 
04357     00 00 00 60 | 	byte	$7e, $18, $18, $18, $18, $18, $18, $18, $18, $7e, $7e, $00, $00, $00, $00, $60
0435b     60 60 60 60 
0435f     60 60 60    | 	byte	$60[7]
04362     66 66 7E 3C 
04366     00 00 00 00 
0436a     66 66 36 36 
0436e     1E 1E 36 36 | 	byte	$66, $66, $7e, $3c, $00, $00, $00, $00, $66, $66, $36, $36, $1e, $1e, $36, $36
04372     66 66 C6 C6 
04376     00 00 00 00 
0437a     06 06 06 06 
0437e     06 06 06 06 | 	byte	$66, $66, $c6, $c6, $00, $00, $00, $00, $06, $06, $06, $06, $06, $06, $06, $06
04382     06 06 7E 7E 
04386     00 00 00 00 
0438a     C6 C6 EE EE 
0438e     FE D6 D6 C6 | 	byte	$06, $06, $7e, $7e, $00, $00, $00, $00, $c6, $c6, $ee, $ee, $fe, $d6, $d6, $c6
04392     C6 C6 C6 C6 
04396     00 00 00 00 
0439a     66 66 66 6E 
0439e     6E 7E 7E 76 | 	byte	$c6, $c6, $c6, $c6, $00, $00, $00, $00, $66, $66, $66, $6e, $6e, $7e, $7e, $76
043a2     76 66 66 66 
043a6     00 00 00 00 
043aa     3C 7E 66 66 
043ae     66 66 66 66 | 	byte	$76, $66, $66, $66, $00, $00, $00, $00, $3c, $7e, $66, $66, $66, $66, $66, $66
043b2     66 66 7E 3C 
043b6     00 00 00 00 
043ba     3E 7E 66 66 
043be     66 66 7E 3E | 	byte	$66, $66, $7e, $3c, $00, $00, $00, $00, $3e, $7e, $66, $66, $66, $66, $7e, $3e
043c2     06 06 06 06 
043c6     00 00 00 00 
043ca     3C 7E 66 66 
043ce     66 66 66 66 | 	byte	$06, $06, $06, $06, $00, $00, $00, $00, $3c, $7e, $66, $66, $66, $66, $66, $66
043d2     66 56 3E 6C 
043d6     00 00 00 00 
043da     3E 7E 66 66 
043de     66 7E 3E 36 | 	byte	$66, $56, $3e, $6c, $00, $00, $00, $00, $3e, $7e, $66, $66, $66, $7e, $3e, $36
043e2     66 66 C6 C6 
043e6     00 00 00 00 
043ea     7C 7E 06 06 
043ee     0E 1C 38 70 | 	byte	$66, $66, $c6, $c6, $00, $00, $00, $00, $7c, $7e, $06, $06, $0e, $1c, $38, $70
043f2     60 60 7E 3E 
043f6     00 00 00 00 
043fa     7E 7E 18 18 
043fe     18 18 18 18 | 	byte	$60, $60, $7e, $3e, $00, $00, $00, $00, $7e, $7e, $18, $18, $18, $18, $18, $18
04402     18 18 18 18 
04406     00 00 00 00 
0440a     66 66 66 66 
0440e     66 66 66 66 | 	byte	$18, $18, $18, $18, $00, $00, $00, $00, $66, $66, $66, $66, $66, $66, $66, $66
04412     66 66 7E 3C 
04416     00 00 00 00 
0441a     66 66 66 66 
0441e     66 66 66 66 | 	byte	$66, $66, $7e, $3c, $00, $00, $00, $00, $66, $66, $66, $66, $66, $66, $66, $66
04422     3C 3C 18 18 
04426     00 00 00 00 
0442a     C6 C6 C6 C6 
0442e     C6 D6 D6 FE | 	byte	$3c, $3c, $18, $18, $00, $00, $00, $00, $c6, $c6, $c6, $c6, $c6, $d6, $d6, $fe
04432     FE EE C6 82 
04436     00 00 00 00 
0443a     66 66 66 3C 
0443e     3C 18 18 3C | 	byte	$fe, $ee, $c6, $82, $00, $00, $00, $00, $66, $66, $66, $3c, $3c, $18, $18, $3c
04442     3C 66 66 66 
04446     00 00 00 00 
0444a     66 66 66 66 
0444e     66 3C 3C 18 | 	byte	$3c, $66, $66, $66, $00, $00, $00, $00, $66, $66, $66, $66, $66, $3c, $3c, $18
04452     18 18 18 18 
04456     00 00 00 00 
0445a     7E 7E 30 30 
0445e     18 18 0C 0C | 	byte	$18, $18, $18, $18, $00, $00, $00, $00, $7e, $7e, $30, $30, $18, $18, $0c, $0c
04462     06 06 7E 7E 
04466     00 00 00 00 
0446a     3C 3C 0C 0C 
0446e     0C 0C 0C 0C | 	byte	$06, $06, $7e, $7e, $00, $00, $00, $00, $3c, $3c, $0c, $0c, $0c, $0c, $0c, $0c
04472     0C 0C 3C 3C 
04476     00 00 00 00 
0447a     06 06 0C 0C 
0447e     18 18 30 30 | 	byte	$0c, $0c, $3c, $3c, $00, $00, $00, $00, $06, $06, $0c, $0c, $18, $18, $30, $30
04482     60 60 C0 C0 
04486     00 00 00 00 
0448a     3C 3C 30 30 
0448e     30 30 30 30 | 	byte	$60, $60, $c0, $c0, $00, $00, $00, $00, $3c, $3c, $30, $30, $30, $30, $30, $30
04492     30 30 3C 3C 
04496     00 00 00 00 
0449a     18 18 3C 3C 
0449e     66 66 00 00 | 	byte	$30, $30, $3c, $3c, $00, $00, $00, $00, $18, $18, $3c, $3c, $66, $66, $00, $00
044a2     00 00 00 00 
044a6     00 00 00 00 
044aa     00 00 00 00 
044ae     00 00 00 00 
044b2     00 00       | 	byte	$00[18]
044b4     FE FE 00 00 
044b8     00 00 0C 0C 
044bc     18 18 00 00 
044c0     00 00 00 00 | 	byte	$fe, $fe, $00, $00, $00, $00, $0c, $0c, $18, $18, $00, $00, $00, $00, $00, $00
044c4     00 00 00 00 
044c8     00 00 00 00 
044cc     00          | 	byte	$00[9]
044cd     3C 7C 60 7C 
044d1     7E 66 66 7E 
044d5     7C 00 00 00 
044d9     00 06 06 06 | 	byte	$3c, $7c, $60, $7c, $7e, $66, $66, $7e, $7c, $00, $00, $00, $00, $06, $06, $06
044dd     3E 7E 66 66 
044e1     66 66 66 7E 
044e5     3E 00 00 00 
044e9     00 00 00 00 | 	byte	$3e, $7e, $66, $66, $66, $66, $66, $7e, $3e, $00, $00, $00, $00, $00, $00, $00
044ed     3C 3E 06 06 
044f1     06 06 06 7E 
044f5     7C 00 00 00 
044f9     00 60 60 60 | 	byte	$3c, $3e, $06, $06, $06, $06, $06, $7e, $7c, $00, $00, $00, $00, $60, $60, $60
044fd     7C 7E 66 66 
04501     66 66 66 7E 
04505     7C 00 00 00 
04509     00 00 00 00 | 	byte	$7c, $7e, $66, $66, $66, $66, $66, $7e, $7c, $00, $00, $00, $00, $00, $00, $00
0450d     3C 7E 66 66 
04511     7E 06 06 7E 
04515     7C 00 00 00 
04519     00 70 78 18 | 	byte	$3c, $7e, $66, $66, $7e, $06, $06, $7e, $7c, $00, $00, $00, $00, $70, $78, $18
0451d     18 7E 7E 18 
04521     18 18 18 18 
04525     18 00 00 00 
04529     00 00 00 00 | 	byte	$18, $7e, $7e, $18, $18, $18, $18, $18, $18, $00, $00, $00, $00, $00, $00, $00
0452d     7C 7E 66 66 
04531     66 66 7E 7C 
04535     60 7E 3E 00 
04539     00 06 06 06 | 	byte	$7c, $7e, $66, $66, $66, $66, $7e, $7c, $60, $7e, $3e, $00, $00, $06, $06, $06
0453d     3E 7E 66 66 
04541     66 66 66 66 
04545     66 00 00 00 
04549     00 18 18 00 | 	byte	$3e, $7e, $66, $66, $66, $66, $66, $66, $66, $00, $00, $00, $00, $18, $18, $00
0454d     1C 1C 18 18 
04551     18 18 18 3C 
04555     3C 00 00 00 
04559     00 30 30 00 | 	byte	$1c, $1c, $18, $18, $18, $18, $18, $3c, $3c, $00, $00, $00, $00, $30, $30, $00
0455d     30 30 30 30 
04561     30 30 30 30 
04565     30          | 	byte	$30[9]
04566     3E 1E 00 00 
0456a     06 06 06 36 
0456e     36 1E 1E 1E 
04572     36 36 66 66 | 	byte	$3e, $1e, $00, $00, $06, $06, $06, $36, $36, $1e, $1e, $1e, $36, $36, $66, $66
04576     00 00 00 00 
0457a     1C 1C 18 18 
0457e     18 18 18 18 
04582     18 18 3C 3C | 	byte	$00, $00, $00, $00, $1c, $1c, $18, $18, $18, $18, $18, $18, $18, $18, $3c, $3c
04586     00 00 00 00 
0458a     00 00 00    | 	byte	$00[7]
0458d     6C FE FE D6 
04591     D6 C6 C6 C6 
04595     C6 00 00 00 
04599     00 00 00 00 | 	byte	$6c, $fe, $fe, $d6, $d6, $c6, $c6, $c6, $c6, $00, $00, $00, $00, $00, $00, $00
0459d     3E 7E 66 66 
045a1     66 66 66 66 
045a5     66 00 00 00 
045a9     00 00 00 00 | 	byte	$3e, $7e, $66, $66, $66, $66, $66, $66, $66, $00, $00, $00, $00, $00, $00, $00
045ad     3C 7E 66 66 
045b1     66 66 66 7E 
045b5     3C 00 00 00 
045b9     00 00 00 00 | 	byte	$3c, $7e, $66, $66, $66, $66, $66, $7e, $3c, $00, $00, $00, $00, $00, $00, $00
045bd     3E 7E 66 66 
045c1     66 66 66 7E 
045c5     3E 06 06 00 
045c9     00 00 00 00 | 	byte	$3e, $7e, $66, $66, $66, $66, $66, $7e, $3e, $06, $06, $00, $00, $00, $00, $00
045cd     7C 7E 66 66 
045d1     66 66 66 7E 
045d5     7C 60 60 00 
045d9     00 00 00 00 | 	byte	$7c, $7e, $66, $66, $66, $66, $66, $7e, $7c, $60, $60, $00, $00, $00, $00, $00
045dd     3E 7E 66 06 
045e1     06 06 06 06 
045e5     06 00 00 00 
045e9     00 00 00 00 | 	byte	$3e, $7e, $66, $06, $06, $06, $06, $06, $06, $00, $00, $00, $00, $00, $00, $00
045ed     7C 7E 06 0E 
045f1     3C 70 60 7E 
045f5     3E 00 00 00 
045f9     00 00 18 18 | 	byte	$7c, $7e, $06, $0e, $3c, $70, $60, $7e, $3e, $00, $00, $00, $00, $00, $18, $18
045fd     7E 7E 18 18 
04601     18 18 18 78 
04605     70 00 00 00 
04609     00 00 00 00 | 	byte	$7e, $7e, $18, $18, $18, $18, $18, $78, $70, $00, $00, $00, $00, $00, $00, $00
0460d     66 66 66 66 
04611     66 66 66    | 	byte	$66[7]
04614     7E 7C 00 00 
04618     00 00 00 00 
0461c     00 66 66 66 
04620     66 66 3C 3C | 	byte	$7e, $7c, $00, $00, $00, $00, $00, $00, $00, $66, $66, $66, $66, $66, $3c, $3c
04624     18 18 00 00 
04628     00 00 00 00 
0462c     00 C6 C6 D6 
04630     D6 FE FE EE | 	byte	$18, $18, $00, $00, $00, $00, $00, $00, $00, $c6, $c6, $d6, $d6, $fe, $fe, $ee
04634     C6 82 00 00 
04638     00 00 00 00 
0463c     00 66 66 3C 
04640     3C 18 3C 3C | 	byte	$c6, $82, $00, $00, $00, $00, $00, $00, $00, $66, $66, $3c, $3c, $18, $3c, $3c
04644     66 66 00 00 
04648     00 00 00 00 
0464c     00 66 66 66 
04650     66 66 66 7E | 	byte	$66, $66, $00, $00, $00, $00, $00, $00, $00, $66, $66, $66, $66, $66, $66, $7e
04654     7C 60 7E 3E 
04658     00 00 00 00 
0465c     00 7E 7E 30 
04660     18 18 0C 0C | 	byte	$7c, $60, $7e, $3e, $00, $00, $00, $00, $00, $7e, $7e, $30, $18, $18, $0c, $0c
04664     7E 7E 00 00 
04668     00 00 30 18 
0466c     18 18 18 0C 
04670     0C 18 18 18 | 	byte	$7e, $7e, $00, $00, $00, $00, $30, $18, $18, $18, $18, $0c, $0c, $18, $18, $18
04674     18 30 00 00 
04678     00 00 18 18 
0467c     18 18 18 18 
04680     18 18 18 18 | 	byte	$18, $30, $00, $00, $00, $00, $18, $18, $18, $18, $18, $18, $18, $18, $18, $18
04684     18 18 00 00 
04688     00 00 0C 18 
0468c     18 18 18 30 
04690     30 18 18 18 | 	byte	$18, $18, $00, $00, $00, $00, $0c, $18, $18, $18, $18, $30, $30, $18, $18, $18
04694     18 0C 00 00 
04698     00 00 6C 7E 
0469c     36 00 00 00 
046a0     00 00 00 00 | 	byte	$18, $0c, $00, $00, $00, $00, $6c, $7e, $36, $00, $00, $00, $00, $00, $00, $00
046a4     00 00 00 00 
046a8     00 00 00 00 
046ac     00          | 	byte	$00[9]
046ad     18 18 18 18 
046b1     18 18 00 00 
046b5     00 00 00    | 	byte	$18, $18, $18, $18, $18, $18, $00, $00, $00, $00, $00
046b8     00 00 00 00 
046bc     00 FF FF FF | twocolors      long  $00000000,$FFFFFF00
046c0     00 00 00 00 
046c4     00 80 80 80 
046c8     00 00 00 FF 
046cc     00 FF FF FF | fourcolors     long  $00000000,$80808000,$FF000000,$FFFFFF00 'black,red,gray,white
046d0     00 00 00 00 
046d4     00          | vga16          long  $00000000,$00008000,$00800000,$00808000,$80000000,$80008000,$80400000,$AAAAAA00,$55555500,$0000FF00,$00FF0000,$00FFFF00,$FF000000,$FF00FF00,$FFFF0000,$FFFFFF00
046d5     80 00 00 00 
046d9     00 80 00 00 
046dd     80 80 00 00 
046e1     00 00 80 00 | 	byte	$80, $00, $00, $00, $00, $80, $00, $00, $80, $80, $00, $00, $00, $00, $80, $00
046e5     80 00 80 00 
046e9     00 40 80 00 
046ed     AA AA AA 00 
046f1     55 55 55 00 | 	byte	$80, $00, $80, $00, $00, $40, $80, $00, $aa, $aa, $aa, $00, $55, $55, $55, $00
046f5     FF 00 00 00 
046f9     00 FF 00 00 
046fd     FF FF 00 00 
04701     00 00 FF 00 | 	byte	$ff, $00, $00, $00, $00, $ff, $00, $00, $ff, $ff, $00, $00, $00, $00, $ff, $00
04705     FF 00 FF 00 
04709     00 FF FF 00 
0470d     FF FF FF    | 	byte	$ff, $00, $ff, $00, $00, $ff, $ff, $00, $ff, $ff, $ff
04710     00 00 00 00 
04714     00          | ataripalette   file "ataripalettep2.def"
04715     11 11 11 00 
04719     22 22 22 00 
0471d     33 33 33 00 
04721     44 44 44 00 | 	byte	$11, $11, $11, $00, $22, $22, $22, $00, $33, $33, $33, $00, $44, $44, $44, $00
04725     55 55 55 00 
04729     66 66 66 00 
0472d     77 77 77 00 
04731     88 88 88 00 | 	byte	$55, $55, $55, $00, $66, $66, $66, $00, $77, $77, $77, $00, $88, $88, $88, $00
04735     99 99 99 00 
04739     AA AA AA 00 
0473d     BB BB BB 00 
04741     CC CC CC 00 | 	byte	$99, $99, $99, $00, $aa, $aa, $aa, $00, $bb, $bb, $bb, $00, $cc, $cc, $cc, $00
04745     DD DD DD 00 
04749     EE EE EE 00 
0474d     FF FF FF 00 
04751     00 0A 20 00 | 	byte	$dd, $dd, $dd, $00, $ee, $ee, $ee, $00, $ff, $ff, $ff, $00, $00, $0a, $20, $00
04755     00 14 40 00 
04759     00 1E 60 00 
0475d     00 28 80 00 
04761     00 32 9F 00 | 	byte	$00, $14, $40, $00, $00, $1e, $60, $00, $00, $28, $80, $00, $00, $32, $9f, $00
04765     00 3C BF 00 
04769     00 46 DF 00 
0476d     00 50 FF 00 
04771     1C 63 FF 00 | 	byte	$00, $3c, $bf, $00, $00, $46, $df, $00, $00, $50, $ff, $00, $1c, $63, $ff, $00
04775     39 77 FF 00 
04779     55 8A FF 00 
0477d     71 9E FF 00 
04781     8E B1 FF 00 | 	byte	$39, $77, $ff, $00, $55, $8a, $ff, $00, $71, $9e, $ff, $00, $8e, $b1, $ff, $00
04785     AA C5 FF 00 
04789     C6 D8 FF 00 
0478d     E3 EC FF 00 
04791     00 00 20 00 | 	byte	$aa, $c5, $ff, $00, $c6, $d8, $ff, $00, $e3, $ec, $ff, $00, $00, $00, $20, $00
04795     00 00 40 00 
04799     00 00 60 00 
0479d     00 00 80 00 
047a1     00 00 9F 00 | 	byte	$00, $00, $40, $00, $00, $00, $60, $00, $00, $00, $80, $00, $00, $00, $9f, $00
047a5     00 00 BF 00 
047a9     00 00 DF 00 
047ad     00 00 FF 00 
047b1     1C 1C FF 00 | 	byte	$00, $00, $bf, $00, $00, $00, $df, $00, $00, $00, $ff, $00, $1c, $1c, $ff, $00
047b5     39 39 FF 00 
047b9     55 55 FF 00 
047bd     71 71 FF 00 
047c1     8E 8E FF 00 | 	byte	$39, $39, $ff, $00, $55, $55, $ff, $00, $71, $71, $ff, $00, $8e, $8e, $ff, $00
047c5     AA AA FF 00 
047c9     C6 C6 FF 00 
047cd     E3 E3 FF 00 
047d1     10 00 20 00 | 	byte	$aa, $aa, $ff, $00, $c6, $c6, $ff, $00, $e3, $e3, $ff, $00, $10, $00, $20, $00
047d5     20 00 40 00 
047d9     30 00 60 00 
047dd     40 00 80 00 
047e1     50 00 9F 00 | 	byte	$20, $00, $40, $00, $30, $00, $60, $00, $40, $00, $80, $00, $50, $00, $9f, $00
047e5     60 00 BF 00 
047e9     70 00 DF 00 
047ed     80 00 FF 00 
047f1     8E 1C FF 00 | 	byte	$60, $00, $bf, $00, $70, $00, $df, $00, $80, $00, $ff, $00, $8e, $1c, $ff, $00
047f5     9C 39 FF 00 
047f9     AA 55 FF 00 
047fd     B8 71 FF 00 
04801     C7 8E FF 00 | 	byte	$9c, $39, $ff, $00, $aa, $55, $ff, $00, $b8, $71, $ff, $00, $c7, $8e, $ff, $00
04805     D5 AA FF 00 
04809     E3 C6 FF 00 
0480d     F1 E3 FF 00 
04811     20 00 20 00 | 	byte	$d5, $aa, $ff, $00, $e3, $c6, $ff, $00, $f1, $e3, $ff, $00, $20, $00, $20, $00
04815     40 00 40 00 
04819     60 00 60 00 
0481d     80 00 80 00 
04821     9F 00 9F 00 | 	byte	$40, $00, $40, $00, $60, $00, $60, $00, $80, $00, $80, $00, $9f, $00, $9f, $00
04825     BF 00 BF 00 
04829     DF 00 DF 00 
0482d     FF 00 FF 00 
04831     FF 1C FF 00 | 	byte	$bf, $00, $bf, $00, $df, $00, $df, $00, $ff, $00, $ff, $00, $ff, $1c, $ff, $00
04835     FF 39 FF 00 
04839     FF 55 FF 00 
0483d     FF 71 FF 00 
04841     FF 8E FF 00 | 	byte	$ff, $39, $ff, $00, $ff, $55, $ff, $00, $ff, $71, $ff, $00, $ff, $8e, $ff, $00
04845     FF AA FF 00 
04849     FF C6 FF 00 
0484d     FF E3 FF 00 
04851     20 00 10 00 | 	byte	$ff, $aa, $ff, $00, $ff, $c6, $ff, $00, $ff, $e3, $ff, $00, $20, $00, $10, $00
04855     40 00 20 00 
04859     60 00 30 00 
0485d     80 00 40 00 
04861     9F 00 50 00 | 	byte	$40, $00, $20, $00, $60, $00, $30, $00, $80, $00, $40, $00, $9f, $00, $50, $00
04865     BF 00 60 00 
04869     DF 00 70 00 
0486d     FF 00 80 00 
04871     FF 1C 8E 00 | 	byte	$bf, $00, $60, $00, $df, $00, $70, $00, $ff, $00, $80, $00, $ff, $1c, $8e, $00
04875     FF 39 9C 00 
04879     FF 55 AA 00 
0487d     FF 71 B8 00 
04881     FF 8E C7 00 | 	byte	$ff, $39, $9c, $00, $ff, $55, $aa, $00, $ff, $71, $b8, $00, $ff, $8e, $c7, $00
04885     FF AA D5 00 
04889     FF C6 E3 00 
0488d     FF E3 F1 00 
04891     20 00 00 00 | 	byte	$ff, $aa, $d5, $00, $ff, $c6, $e3, $00, $ff, $e3, $f1, $00, $20, $00, $00, $00
04895     40 00 00 00 
04899     60 00 00 00 
0489d     80 00 00 00 
048a1     9F 00 00 00 | 	byte	$40, $00, $00, $00, $60, $00, $00, $00, $80, $00, $00, $00, $9f, $00, $00, $00
048a5     BF 00 00 00 
048a9     DF 00 00 00 
048ad     FF 00 00 00 
048b1     FF 1C 1C 00 | 	byte	$bf, $00, $00, $00, $df, $00, $00, $00, $ff, $00, $00, $00, $ff, $1c, $1c, $00
048b5     FF 39 39 00 
048b9     FF 55 55 00 
048bd     FF 71 71 00 
048c1     FF 8E 8E 00 | 	byte	$ff, $39, $39, $00, $ff, $55, $55, $00, $ff, $71, $71, $00, $ff, $8e, $8e, $00
048c5     FF AA AA 00 
048c9     FF C6 C6 00 
048cd     FF E3 E3 00 
048d1     20 08 00 00 | 	byte	$ff, $aa, $aa, $00, $ff, $c6, $c6, $00, $ff, $e3, $e3, $00, $20, $08, $00, $00
048d5     40 10 00 00 
048d9     60 18 00 00 
048dd     80 20 00 00 
048e1     9F 28 00 00 | 	byte	$40, $10, $00, $00, $60, $18, $00, $00, $80, $20, $00, $00, $9f, $28, $00, $00
048e5     BF 30 00 00 
048e9     DF 38 00 00 
048ed     FF 40 00 00 
048f1     FF 55 1C 00 | 	byte	$bf, $30, $00, $00, $df, $38, $00, $00, $ff, $40, $00, $00, $ff, $55, $1c, $00
048f5     FF 6A 39 00 
048f9     FF 80 55 00 
048fd     FF 95 71 00 
04901     FF AA 8E 00 | 	byte	$ff, $6a, $39, $00, $ff, $80, $55, $00, $ff, $95, $71, $00, $ff, $aa, $8e, $00
04905     FF BF AA 00 
04909     FF D5 C6 00 
0490d     FF EA E3 00 
04911     20 10 00 00 | 	byte	$ff, $bf, $aa, $00, $ff, $d5, $c6, $00, $ff, $ea, $e3, $00, $20, $10, $00, $00
04915     40 20 00 00 
04919     60 30 00 00 
0491d     80 40 00 00 
04921     9F 50 00 00 | 	byte	$40, $20, $00, $00, $60, $30, $00, $00, $80, $40, $00, $00, $9f, $50, $00, $00
04925     BF 60 00 00 
04929     DF 70 00 00 
0492d     FF 80 00 00 
04931     FF 8E 1C 00 | 	byte	$bf, $60, $00, $00, $df, $70, $00, $00, $ff, $80, $00, $00, $ff, $8e, $1c, $00
04935     FF 9C 39 00 
04939     FF AA 55 00 
0493d     FF B8 71 00 
04941     FF C7 8E 00 | 	byte	$ff, $9c, $39, $00, $ff, $aa, $55, $00, $ff, $b8, $71, $00, $ff, $c7, $8e, $00
04945     FF D5 AA 00 
04949     FF E3 C6 00 
0494d     FF F1 E3 00 
04951     20 18 00 00 | 	byte	$ff, $d5, $aa, $00, $ff, $e3, $c6, $00, $ff, $f1, $e3, $00, $20, $18, $00, $00
04955     40 30 00 00 
04959     60 48 00 00 
0495d     80 60 00 00 
04961     9F 78 00 00 | 	byte	$40, $30, $00, $00, $60, $48, $00, $00, $80, $60, $00, $00, $9f, $78, $00, $00
04965     BF 90 00 00 
04969     DF A8 00 00 
0496d     FF C0 00 00 
04971     FF C7 1C 00 | 	byte	$bf, $90, $00, $00, $df, $a8, $00, $00, $ff, $c0, $00, $00, $ff, $c7, $1c, $00
04975     FF CE 39 00 
04979     FF D5 55 00 
0497d     FF DC 71 00 
04981     FF E3 8E 00 | 	byte	$ff, $ce, $39, $00, $ff, $d5, $55, $00, $ff, $dc, $71, $00, $ff, $e3, $8e, $00
04985     FF EA AA 00 
04989     FF F1 C6 00 
0498d     FF F8 E3 00 
04991     18 20 00 00 | 	byte	$ff, $ea, $aa, $00, $ff, $f1, $c6, $00, $ff, $f8, $e3, $00, $18, $20, $00, $00
04995     30 40 00 00 
04999     48 60 00 00 
0499d     60 80 00 00 
049a1     78 9F 00 00 | 	byte	$30, $40, $00, $00, $48, $60, $00, $00, $60, $80, $00, $00, $78, $9f, $00, $00
049a5     90 BF 00 00 
049a9     A8 DF 00 00 
049ad     C0 FF 00 00 
049b1     C7 FF 1C 00 | 	byte	$90, $bf, $00, $00, $a8, $df, $00, $00, $c0, $ff, $00, $00, $c7, $ff, $1c, $00
049b5     CE FF 39 00 
049b9     D5 FF 55 00 
049bd     DC FF 71 00 
049c1     E3 FF 8E 00 | 	byte	$ce, $ff, $39, $00, $d5, $ff, $55, $00, $dc, $ff, $71, $00, $e3, $ff, $8e, $00
049c5     EA FF AA 00 
049c9     F1 FF C6 00 
049cd     F8 FF E3 00 
049d1     00 20 00 00 | 	byte	$ea, $ff, $aa, $00, $f1, $ff, $c6, $00, $f8, $ff, $e3, $00, $00, $20, $00, $00
049d5     00 40 00 00 
049d9     00 60 00 00 
049dd     00 80 00 00 
049e1     00 9F 00 00 | 	byte	$00, $40, $00, $00, $00, $60, $00, $00, $00, $80, $00, $00, $00, $9f, $00, $00
049e5     00 BF 00 00 
049e9     00 DF 00 00 
049ed     00 FF 00 00 
049f1     1C FF 1C 00 | 	byte	$00, $bf, $00, $00, $00, $df, $00, $00, $00, $ff, $00, $00, $1c, $ff, $1c, $00
049f5     39 FF 39 00 
049f9     55 FF 55 00 
049fd     71 FF 71 00 
04a01     8E FF 8E 00 | 	byte	$39, $ff, $39, $00, $55, $ff, $55, $00, $71, $ff, $71, $00, $8e, $ff, $8e, $00
04a05     AA FF AA 00 
04a09     C6 FF C6 00 
04a0d     E3 FF E3 00 
04a11     00 20 0A 00 | 	byte	$aa, $ff, $aa, $00, $c6, $ff, $c6, $00, $e3, $ff, $e3, $00, $00, $20, $0a, $00
04a15     00 40 14 00 
04a19     00 60 1E 00 
04a1d     00 80 28 00 
04a21     00 9F 32 00 | 	byte	$00, $40, $14, $00, $00, $60, $1e, $00, $00, $80, $28, $00, $00, $9f, $32, $00
04a25     00 BF 3C 00 
04a29     00 DF 46 00 
04a2d     00 FF 50 00 
04a31     1C FF 63 00 | 	byte	$00, $bf, $3c, $00, $00, $df, $46, $00, $00, $ff, $50, $00, $1c, $ff, $63, $00
04a35     39 FF 77 00 
04a39     55 FF 8A 00 
04a3d     71 FF 9E 00 
04a41     8E FF B1 00 | 	byte	$39, $ff, $77, $00, $55, $ff, $8a, $00, $71, $ff, $9e, $00, $8e, $ff, $b1, $00
04a45     AA FF C5 00 
04a49     C6 FF D8 00 
04a4d     E3 FF EC 00 
04a51     00 20 14 00 | 	byte	$aa, $ff, $c5, $00, $c6, $ff, $d8, $00, $e3, $ff, $ec, $00, $00, $20, $14, $00
04a55     00 40 28 00 
04a59     00 60 3C 00 
04a5d     00 80 50 00 
04a61     00 9F 64 00 | 	byte	$00, $40, $28, $00, $00, $60, $3c, $00, $00, $80, $50, $00, $00, $9f, $64, $00
04a65     00 BF 78 00 
04a69     00 DF 8C 00 
04a6d     00 FF A0 00 
04a71     1C FF AB 00 | 	byte	$00, $bf, $78, $00, $00, $df, $8c, $00, $00, $ff, $a0, $00, $1c, $ff, $ab, $00
04a75     39 FF B5 00 
04a79     55 FF C0 00 
04a7d     71 FF CA 00 
04a81     8E FF D5 00 | 	byte	$39, $ff, $b5, $00, $55, $ff, $c0, $00, $71, $ff, $ca, $00, $8e, $ff, $d5, $00
04a85     AA FF DF 00 
04a89     C6 FF EA 00 
04a8d     E3 FF F4 00 
04a91     00 20 20 00 | 	byte	$aa, $ff, $df, $00, $c6, $ff, $ea, $00, $e3, $ff, $f4, $00, $00, $20, $20, $00
04a95     00 40 40 00 
04a99     00 60 60 00 
04a9d     00 80 80 00 
04aa1     00 9F 9F 00 | 	byte	$00, $40, $40, $00, $00, $60, $60, $00, $00, $80, $80, $00, $00, $9f, $9f, $00
04aa5     00 BF BF 00 
04aa9     00 DF DF 00 
04aad     00 FF FF 00 
04ab1     1C FF FF 00 | 	byte	$00, $bf, $bf, $00, $00, $df, $df, $00, $00, $ff, $ff, $00, $1c, $ff, $ff, $00
04ab5     39 FF FF 00 
04ab9     55 FF FF 00 
04abd     71 FF FF 00 
04ac1     8E FF FF 00 | 	byte	$39, $ff, $ff, $00, $55, $ff, $ff, $00, $71, $ff, $ff, $00, $8e, $ff, $ff, $00
04ac5     AA FF FF 00 
04ac9     C6 FF FF 00 
04acd     E3 FF FF 00 
04ad1     00 14 20 00 | 	byte	$aa, $ff, $ff, $00, $c6, $ff, $ff, $00, $e3, $ff, $ff, $00, $00, $14, $20, $00
04ad5     00 28 40 00 
04ad9     00 3C 60 00 
04add     00 50 80 00 
04ae1     00 64 9F 00 | 	byte	$00, $28, $40, $00, $00, $3c, $60, $00, $00, $50, $80, $00, $00, $64, $9f, $00
04ae5     00 78 BF 00 
04ae9     00 8C DF 00 
04aed     00 A0 FF 00 
04af1     1C AB FF 00 | 	byte	$00, $78, $bf, $00, $00, $8c, $df, $00, $00, $a0, $ff, $00, $1c, $ab, $ff, $00
04af5     39 B5 FF 00 
04af9     55 C0 FF 00 
04afd     71 CA FF 00 
04b01     8E D5 FF 00 | 	byte	$39, $b5, $ff, $00, $55, $c0, $ff, $00, $71, $ca, $ff, $00, $8e, $d5, $ff, $00
04b05     AA DF FF 00 
04b09     C6 EA FF 00 
04b0d     E3 F4 FF    | 	byte	$aa, $df, $ff, $00, $c6, $ea, $ff, $00, $e3, $f4, $ff
04b10                 | '**********************************************************************************
04b10                 | '
04b10                 | '        Timings and colors definitions
04b10                 | '
04b10                 | '**********************************************************************************
04b10                 | 
04b10                 |    'streamer sets for text mode, to add to timings[0..5]
04b10                 | 
04b10                 | 
04b10                 | '                     bf.hs, hs,  bf.vis  visible, lr bord, pixel, ud bord,  up p., vsync, down p., mode, cpl, scanlines,  clock,                  hubset                  total vis lines
04b10     30 00 00 00 
04b14     20 00 00 00 
04b18     50 00 00 00 
04b1c     20 03 00 00 | timings000      long   48,   32,    80,    800,      0,     8,      0,       6,      7,     3,      0,  100,   480,     354693878,   %1_110000__11_0110_1100__1111_1011,   576
04b20     00 00 00 00 
04b24     08 00 00 00 
04b28     00 00 00 00 
04b2c     06 00 00 00 | 	byte	$00, $00, $00, $00, $08, $00, $00, $00, $00, $00, $00, $00, $06, $00, $00, $00
04b30     07 00 00 00 
04b34     03 00 00 00 
04b38     00 00 00 00 
04b3c     64 00 00 00 | 	byte	$07, $00, $00, $00, $03, $00, $00, $00, $00, $00, $00, $00, $64, $00, $00, $00
04b40     E0 01 00 00 
04b44     F6 32 24 15 
04b48     FB 6C C3 01 
04b4c     40 02 00 00 | 	byte	$e0, $01, $00, $00, $f6, $32, $24, $15, $fb, $6c, $c3, $01, $40, $02, $00, $00
04b50                 |                                   
04b50     00 75 C7 97 
04b54     27 47 F6 0A 
04b58     05 79 CB 9B 
04b5c     2B 4B EA 0F | vgacolors       byte   0, 117, 199, 151, 39, 71, 246, 10, 5, 121, 203, 155, 43, 75, 234, 15
04b60                 | 
04b60     28 12 64 FD | hdmi            setq    #9
04b64     00 E1 06 FB |                 rdlong  framebuf,  ptra                  'read pointers
04b68                 | 
04b68     00 28 6F FC |                 wrlong  #aend,#0                         'write driver length to hub#0: DEBUG/demo
04b6c     3C 00 66 FD |                 setcmod #$100                            'enable HDMI mode
04b70     C0 FB 06 F6 |                 mov     ii,#448                          '7 << 6          
04b74     79 FB 02 F1 |                 add     ii,hbase
04b78     58 FA 62 FD |                 drvl    ii                                 '#7<<6 + hdmi_base      ' enable HDMI pins
04b7c     7B 0B 80 FF 
04b80     7D 01 0B FC |                 wrpin   ##%10110_1111_0111_10_00000_0, ii  '#7<<6 + hdmi_base      ' a '123 ohm BITDAC for pins
04b84                 | 
04b84     66 66 86 FF 
04b88     1D 9A 65 FD |                 setxfrq ##$0CCCCCCC+1                   'set streamer freq to 1/10th clk
04b8c                 | 
04b8c                 | 
04b8c                 | ''--------  frame rendering main loop  ---------------------------------------------------
04b8c                 | 
04b8c                 | p101
04b8c     28 14 64 FD |                 setq    #10
04b90     00 E1 06 FB |                 rdlong  framebuf,  ptra
04b94     28 1E 64 FD |                 setq    #15
04b98     75 9D 02 FB |                 rdlong  m_bs,modeptr                     ' read timings
04b9c     72 9B 02 FB |                 rdlong  border,borderptr
04ba0                 | 
04ba0     01 C6 06 F1 |                 add     frames,#1
04ba4     77 F7 02 F6 |                 mov     dlptr2,dlptr
04ba8                 | 
04ba8     74 C9 02 FB |                 rdlong  cursorx, cursorptr               ' read cursor position
04bac     64 CB EA F8 |                 getbyte cursory, cursorx,#1              ' y position at byte #1
04bb0     64 C5 F2 F8 |                 getbyte cursorsh,cursorx,#2              ' shape at byte #2
04bb4     FF C8 06 F5 |                 and     cursorx,#255                     ' clear the cursor x varioble from y and shape
04bb8                 |  '' up porch
04bb8                 | 
04bb8     49 FF 02 F6 |                 mov     hsync0,sync_000                  '
04bbc     4A 01 03 F6 |                 mov     hsync1,sync_001
04bc0     37 AA 46 FB |                 callpa  i_upporch ,#blank
04bc4     73 01 68 FC |                 wrlong  #0,vblankptr
04bc8                 |                 
04bc8     1F EC 16 F4 |                 testb   paletteptr,#31 wc
04bcc     29 FE 65 3D |          if_nc  setq2   #255
04bd0     76 01 00 3B |          if_nc  rdlong  $000, paletteptr                'read palette
04bd4                 | 
04bd4                 | '' cursor blinking
04bd4                 | 
04bd4     04 C6 0E F4 |                 testb   frames,#4 wz                     ' cursor blinks at framerate/16, todo: define
04bd8     81 C8 06 A6 |          if_z   mov     cursorx,#129                     ' to switch the cursor off, move it out of the screen
04bdc                 | 
04bdc                 | '' main screen
04bdc                 | 
04bdc     00 C0 06 F6 |                 mov linenum,#0
04be0     00 1A 07 F6 |                 mov rcnt,#0
04be4     00 1E 07 F6 |                 mov rcnt2a,#0
04be8                 | 
04be8                 | 
04be8     00 1A 0F F2 | p301            cmp rcnt,#0 wz
04bec     18 00 90 AD |         if_z    jmp #p306
04bf0     01 1A 87 F1 |                 sub rcnt,#1
04bf4     91 F9 02 F6 |                 mov dl,rdl
04bf8     8E 1F 0B F7 |                incmod rcnt2a,rcnt2 wz
04bfc     90 F9 02 A1 |    if_z        add dl,roffset  
04c00     7C 23 03 F6 |                 mov rdl,dl
04c04     04 00 90 FD |                 jmp #p307          
04c08                 |           
04c08                 |                 
04c08     7B F9 02 FB | p306            rdlong  dl,dlptr2
04c0c     7C FD 1A F6 | p307            mov     framebuf2,dl wcz                  'read a line start in the framebuffer from DL entry
04c10     6A FC 7A FD |                 rczr    framebuf2 wcz                     'but only if not %11 at lowest bits which means special DL entry
04c14     34 00 90 7D |    if_nz_or_nc  jmp     #p303                        
04c18                 | 
04c18                 | '' Special entry:
04c18                 | '' - repeat                 %nnnn_nnnn_nnnn_qqqq_mmmm_mmmm_mmmm_0111    repeat the next dl line n times, after q lines add offset m
04c18                 | '' - reload palette         %mmmm_mmmm_nnnn_nnnn_qqqq_qqqq_qqqq_1011    reload n palette entries from m color from palette_ptr+q
04c18                 | '' - set border color       %rrrr_rrrr_gggg_gggg_bbbb_bbbb_0001_0011    set border to rgb
04c18                 | '' - set border color       %0000_0000_0000_0000_pppp_pppp_0001_1011    set border color to palette entry #p
04c18                 | '' todo: set horizontal scroll (if needed)
04c18                 | 
04c18     02 FC 66 F0 |                 shl framebuf2,#2
04c1c     7E 25 43 F8 |                 getnib dlc,framebuf2,#0
04c20     04 24 0F F2 |                 cmp dlc,#%100 wz
04c24                 |   
04c24                 |                 
04c24     04 F6 06 F1 |                 add dlptr2,#4
04c28     BC FF 9F 5D |                              if_nz  jmp #p301  '' now ignore unknown instruction 
04c2c     7B 23 03 FB |                  rdlong rdl,dlptr2
04c30     7E 1B 3B F9 |                  getword rcnt,framebuf2,#1 
04c34     04 1A 47 F0 |                  shr rcnt,#4
04c38                 |              
04c38     7E 1D 63 F8 |                  getnib rcnt2,framebuf2,#4
04c3c     7E 21 33 F9 |                  getword roffset,framebuf2,#0
04c40                 |                 
04c40     04 20 47 F0 |                  shr roffset,#4
04c44     0C 20 67 F0 |                  shl roffset,#12
04c48                 |   
04c48     9C FF 9F FD |                  jmp #p301
04c4c                 |                  
04c4c                 |                  
04c4c                 | p303           ' mov     framebuf2,dl                    ' read a line start in the framebuffer from DL entry
04c4c     0C FC 46 F0 |                 shr     framebuf2,#12
04c50     02 FC 66 F0 |                 shl     framebuf2,#2
04c54                 | 
04c54     7C 05 E3 F8 |                 getbyte t1,dl,#0
04c58     00 04 0F F2 |                 cmp     t1,#0 wz
04c5c     34 00 90 AD |     if_z        jmp     #borderline
04c60                 | 
04c60     00 F8 16 F4 |                  testb   dl,#0  wc     ' bit 0 set = text OR extended:TODO
04c64     50 00 90 CD |           if_c   jmp     #textline
04c68     50 02 90 3D |           if_nc  jmp     #graphline
04c6c                 | '
04c6c     01 C0 06 F1 | p302            add     linenum,#1
04c70     04 F6 06 F1 |                 add     dlptr2,#4
04c74     5D C1 0A F2 |                 cmp     linenum,i_totalvis  wz
04c78     6C FF 9F 5D |          if_nz  jmp     #p301
04c7c                 | 
04c7c     73 03 68 FC | p112            wrlong  #1,vblankptr
04c80     07 AE 46 FB |                 callpa  i_downporch ,#blank             'bottom blanks
04c84                 | 
04c84     4B FF 02 F6 |                 mov     hsync0,sync_222                 'vsync on
04c88     4C 01 03 F6 |                 mov     hsync1,sync_223
04c8c     04 AC 46 FB |                 callpa  i_vsync,#blank                  'vertical sync blanks
04c90     F8 FE 9F FD |                 jmp     #p101
04c94                 | 
04c94                 | '' ---------------  END of frame rendering loop -------------------------------------------
04c94                 | 
04c94                 | 
04c94     14 00 B0 FD | borderline      call    #hsync                      ' make a border
04c98     4D A3 C2 FC |                 xcont   m_vi,border
04c9c     CC FF 9F FD |                 jmp     #p302
04ca0                 | 
04ca0                 | 
04ca0     08 00 B0 FD | blank           call    #hsync                          'blank lines
04ca4     7F A3 C2 FC |                 xcont   m_vi,hsync0
04ca8     FD ED 6F 0B |         _ret_   djnz    pa,#blank
04cac                 | 
04cac     7F 9D C2 FC | hsync           xcont   m_bs,hsync0                     'horizontal sync
04cb0     80 9F B2 FC |                 xzero   m_sn,hsync1
04cb4     7F A1 C2 0C |         _ret_   xcont   m_bv,hsync0
04cb8                 | 
04cb8                 | 
04cb8                 | 
04cb8                 | ''--%aaaa_aaaa_aaaa_aaaa_aazz_nnnn_llll_ll_01 - txt
04cb8                 |   '' aaaa_aaaa_aaaa_aaaa_aazz_rrrr_rrrr_cc_10 - graph
04cb8                 |   '' aaaa_aaaa_aaaa-aaaa_aarr_rrrr_rrrr_rr_11 - extended, next long to read
04cb8                 | 
04cb8                 | '' Display a text line DL[31..12]=addr, nibble #1=textline, zoom: todo
04cb8                 | 
04cb8     64 CF 02 F6 | textline        mov     cursorpos2,cursorx              ' we need another var for cursor as this code will repeat 16x for every char line
04cbc                 | 
04cbc     7C 03 53 F8 |                 getnib  fontline,dl,#2                 ' fontline is 0 to 15, a line in font def
04cc0     7C 19 5B F8 |                 getnib  zoom, dl,#3
04cc4     03 18 07 F5 |                 and             zoom, #3
04cc8                 | 
04cc8                 | 
04cc8                 | 
04cc8     7C BF 02 F6 |                 mov     linestart,dl                    ' linestart will be used for checking cursor y and compute line start addr in the buffer
04ccc     02 BE 46 F0 |                 shr     linestart,#2                    ' scanline to char line
04cd0     3F BE 06 F5 |                 and     linestart,#63
04cd4     65 BF 0A F2 |                 cmp     linestart,cursory wz            ' if the cursor is not here
04cd8     81 CE 06 56 |           if_nz mov     cursorpos2,#129                 ' move it out of the screen
04cdc                 | 
04cdc     CC FF BF FD |                 call    #hsync                          ' now call hsync to gain some time between xconts
04ce0                 | 
04ce0                 |                        ' if fontline =0, get a border color
04ce0                 | 
04ce0     52 05 33 F9 | p102            getword t1,m_border,#0
04ce4     00 04 0F F2 |                 cmp     t1, #0 wz
04ce8     4D A5 C2 5C |           if_nz xcont   m_border,border                 ' display a left border if exists
04cec                 | 
04cec     62 03 1B F2 |                 cmp     fontline,cursorsh wcz           ' if the cursor have to be not displayed due to its shape
04cf0     81 CC 06 C6 |           if_c  mov     cursorpos,#129                  ' move it out of the screen
04cf4     67 CD 02 36 |          if_nc  mov     cursorpos,cursorpos2
04cf8     01 CC 06 F1 |                 add     cursorpos,#1                    ' we will substract #1 below so compensate this here
04cfc     71 07 03 F6 |                 mov     t2,fontbuf                      ' font definition pointer
04d00     81 07 03 F1 |                 add     t2,fontline                     ' add a current font line
04d04     53 BD 02 F6 |                 mov m_lut2, m_lut1
04d08     6B BD 02 F1 |                 add m_lut2, lutt1
04d0c     59 11 03 F6 |                 mov cpl2,i_cpl
04d10                 | 
04d10     02 18 0F F2 |                cmp zoom,#2 wz
04d14     E4 00 90 AD |           if_z jmp #p420
04d18     01 18 0F F2 |                cmp zoom,#1 wz
04d1c     64 00 90 AD |           if_z jmp #p410
04d20     00 18 0F F2 |                 cmp zoom,#0 wz
04d24     04 00 90 AD |           if_z jmp #p400
04d28     50 01 90 FD |                jmp #p430
04d2c                 | 
04d2c                 |                    '
04d2c                 |  ''---------------------------------------------------------------------------------------------------------
04d2c     7E 13 03 FB |  p400                   rdlong  char,framebuf2          ' read a long char                          '1
04d30     89 15 F3 F8 |                         getbyte backcolor,char,#2       ' byte #2 - background color                '2
04d34     89 17 FB F8 |                         getbyte charcolor,char,#3       ' byte #3 - foreground color                '3
04d38     89 13 E3 F8 |                         getbyte char,char, #0           ' word #0 - char code                       '4
04d3c     04 FC 06 F1 |                         add     framebuf2,#4            ' point to the next long                    '5
04d40     04 12 67 F0 |                         shl     char,#4                 ' 1 char=16 bytes in font def               '6
04d44     83 13 03 F1 |                         add     char,t2                 ' add this to font/line pointer             '7
04d48     89 05 C3 FA |                         rdbyte  t1,char                 ' and get 8 pixels prom there               '8
04d4c     01 CC 8E F1 |                         sub     cursorpos,#1 wz         ' if there is a cursor                      '9
04d50     FF 04 67 A5 |                   if_z  xor     t1, #$FF                ' reverse the colors                        '10
04d54                 | 
04d54     82 BD C2 FC |                         xcont m_lut2,t1
04d58                 | 
04d58     8A 0D A3 FA |                         rdlut   t5,backcolor            ' read a background color from palette      '13
04d5c     61 0D 33 FC |                         wrlut   t5,lutaddr              ' and write it to LUT #0 or #32             '14
04d60     01 C2 06 F1 |                         add     lutaddr,#1                                                          '15
04d64     8B 0D A3 FA |                         rdlut   t5,charcolor            ' the same for the foreground               '16
04d68     61 0D 33 FC |                         wrlut   t5,lutaddr                                                          '17
04d6c     01 C2 86 F1 |                         sub     lutaddr,#1
04d70                 | 
04d70     10 BC E6 F4 |                         bitnot  m_lut2,#16                                                          '19
04d74     10 A6 E6 F4 |                         bitnot  m_lut1,#16                                                          '19
04d78     20 C2 66 F5 |                         xor     lutaddr,#32             ' use LUT #0-1 and 32-33                    '20
04d7c                 | 
04d7c     EB 11 6F FB |                         djnz   cpl2,#p400
04d80     28 01 90 FD |  p401                   jmp    #p103
04d84                 | 
04d84                 | ''------------------------------------------------------------------------------------------------------------
04d84                 | 
04d84     01 10 47 F0 |  p410                   shr cpl2,#1
04d88                 | 
04d88                 | ''---------------------------------------------------------------------------------------------------------
04d88     7E 13 03 FB |  p412                   rdlong  char,framebuf2          ' read a long char                          '1
04d8c     89 15 F3 F8 |                         getbyte backcolor,char,#2       ' byte #2 - background color                '2
04d90     89 17 FB F8 |                         getbyte charcolor,char,#3       ' byte #3 - foreground color                '3
04d94     89 13 E3 F8 |                         getbyte char,char, #0           ' word #0 - char code                       '4
04d98     04 FC 06 F1 |                         add     framebuf2,#4            ' point to the next long                    '5
04d9c     04 12 67 F0 |                         shl     char,#4                 ' 1 char=16 bytes in font def               '6
04da0     83 13 03 F1 |                         add     char,t2                 ' add this to font/line pointer             '7
04da4     89 05 C3 FA |                         rdbyte  t1,char                 ' and get 8 pixels prom there               '8
04da8     01 CC 8E F1 |                         sub     cursorpos,#1 wz         ' if there is a cursor                      '9
04dac     FF 04 67 A5 |                   if_z  xor     t1, #$FF                ' reverse the colors                        '10
04db0                 | 
04db0                 | 
04db0     82 09 4B F8 |                         getnib t3,t1,#1                   ' 4 pixels to t3                                              '1  - +
04db4     82 05 43 F8 |                         getnib t1,t1,#0                   ' 4 pixels to t1                                                      '2  - +
04db8     63 04 63 FD |                         mergew t1                         ' make 01010101 from 1111                                     '3  - +
04dbc     03 04 07 FA |                         mul t1,#3
04dc0     82 BD C2 FC |                         xcont m_lut2,t1
04dc4     8A 0D A3 FA |                         rdlut   t5,backcolor            ' read a background color from palette      '13
04dc8     61 0D 33 FC |                         wrlut   t5,lutaddr              ' and write it to LUT #0 or #32             '14
04dcc     01 C2 06 F1 |                         add     lutaddr,#1                                                          '15
04dd0     8B 0D A3 FA |                         rdlut   t5,charcolor            ' the same for the foreground               '16
04dd4     61 0D 33 FC |                         wrlut   t5,lutaddr                                                          '17
04dd8     01 C2 86 F1 |                         sub     lutaddr,#1
04ddc     63 08 63 FD |                         mergew t3
04de0     03 08 07 FA |                         mul t3,#3
04de4     84 BD C2 FC |                         xcont m_lut2,t3
04de8                 | 
04de8     10 BC E6 F4 |                         bitnot  m_lut2,#16                                                          '19
04dec     10 A6 E6 F4 |                         bitnot  m_lut1,#16                                                          '19
04df0                 | 
04df0     20 C2 66 F5 |                         xor     lutaddr,#32             ' use LUT #0-1 and 32-33                    '20
04df4                 | 
04df4     E4 11 6F FB |                         djnz   cpl2,#p412
04df8     B0 00 90 FD |  p411                   jmp    #p103
04dfc                 | 
04dfc                 | ''------------------------------------------------------------------------------------------------------------
04dfc                 | 
04dfc     02 10 47 F0 |  p420                   shr cpl2,#2
04e00                 | 
04e00                 | ''---------------------------------------------------------------------------------------
04e00     7E 13 03 FB |  p422                   rdlong  char,framebuf2          ' read a long char                          '1
04e04     89 15 F3 F8 |                         getbyte backcolor,char,#2       ' byte #2 - background color                '2
04e08     89 17 FB F8 |                         getbyte charcolor,char,#3       ' byte #3 - foreground color                '3
04e0c     89 13 E3 F8 |                         getbyte char,char, #0           ' word #0 - char code                       '4
04e10     04 FC 06 F1 |                         add     framebuf2,#4            ' point to the next long                    '5
04e14     04 12 67 F0 |                         shl     char,#4                 ' 1 char=16 bytes in font def               '6
04e18     83 13 03 F1 |                         add     char,t2                 ' add this to font/line pointer             '7
04e1c     89 05 C3 FA |                         rdbyte  t1,char                 ' and get 8 pixels prom there               '8
04e20     01 CC 8E F1 |                         sub     cursorpos,#1 wz         ' if there is a cursor                      '9
04e24     FF 04 67 A5 |                   if_z  xor     t1, #$FF                ' reverse the colors                        '10
04e28                 | 
04e28     61 04 63 FD |                         mergeb t1
04e2c     82 09 3B F9 |                         getword t3,t1,#1
04e30     0F 04 07 FA |                         mul t1,#15
04e34     82 BD C2 FC |                         xcont m_lut2,t1
04e38                 | 
04e38     8A 0D A3 FA |                         rdlut   t5,backcolor            ' read a background color from palette      '13
04e3c     61 0D 33 FC |                         wrlut   t5,lutaddr              ' and write it to LUT #0 or #32             '14
04e40     01 C2 06 F1 |                         add     lutaddr,#1                                                          '15
04e44     8B 0D A3 FA |                         rdlut   t5,charcolor            ' the same for the foreground               '16
04e48     61 0D 33 FC |                         wrlut   t5,lutaddr                                                          '17
04e4c     01 C2 86 F1 |                         sub     lutaddr,#1
04e50                 | 
04e50     82 0B EB F8 |                         getbyte t4,t1,#1        '
04e54     85 BD C2 FC |                         xcont m_lut2,t4                                                                                                           '
04e58                 | 
04e58     0F 08 07 FA |                         mul t3,#15
04e5c     84 BD C2 FC |                         xcont m_lut2,t3
04e60                 | 
04e60     84 0D EB F8 |                         getbyte t5,t3,#1
04e64     86 BD C2 FC |                         xcont m_lut2, t5
04e68     10 BC E6 F4 |                         bitnot  m_lut2,#16                                                          '19
04e6c     10 A6 E6 F4 |                         bitnot  m_lut1,#16                                                          '19
04e70                 | 
04e70     20 C2 66 F5 |                         xor     lutaddr,#32             ' use LUT #0-1 and 32-33                    '20
04e74                 | 
04e74     E2 11 6F FB |                         djnz   cpl2,#p422
04e78     30 00 90 FD |  p421                   jmp    #p103
04e7c                 | 
04e7c                 | '--------------------------------------------------------------------------------------------------------------
04e7c                 | 
04e7c     7E 13 03 FB |  p430                   rdlong  char,framebuf2          ' read a long char                          '1
04e80     89 15 F3 F8 |                         getbyte backcolor,char,#2       ' byte #2 - background color                '2
04e84     89 17 FB F8 |                         getbyte charcolor,char,#3       ' byte #3 - foreground color                '3
04e88                 | 
04e88     00 BC C6 FC |                         xcont m_lut2,#0
04e8c                 | 
04e8c     8A 0D A3 FA |                         rdlut   t5,backcolor            ' read a background color from palette      '13
04e90     61 0D 33 FC |                         wrlut   t5,lutaddr              ' and write it to LUT #0 or #32             '14
04e94     01 C2 06 F1 |                         add     lutaddr,#1                                                          '15
04e98     8B 0D A3 FA |                         rdlut   t5,charcolor            ' the same for the foreground               '16
04e9c     61 0D 33 FC |                         wrlut   t5,lutaddr                                                          '17
04ea0     01 C2 86 F1 |                         sub     lutaddr,#1
04ea4                 | 
04ea4     F5 11 6F FB |                         djnz   cpl2,#p430
04ea8     00 00 90 FD |  p431                   jmp    #p103
04eac                 | 
04eac                 | ''------------------------------------------------------------------------------------------------------------
04eac                 | 
04eac                 | 
04eac                 | 
04eac     52 27 33 F9 | p103            getword  mb2,m_border,#0
04eb0     00 26 0F F2 |                 cmp      mb2, #0 wz
04eb4     4D A5 C2 5C |                 if_nz    xcont   m_border,border            'display a right border if exists
04eb8                 | 
04eb8     B0 FD 9F FD |                 jmp #p302
04ebc                 | 
04ebc                 | '' -------------------------------------- END of text line ---------------------------------
04ebc                 | 
04ebc                 |   '' aaaa_aaaa_aaaa_aaaa_aazz_rrrr_rrrr_cc_10 - graph - display a graphics line
04ebc                 | 
04ebc     EC FD BF FD | graphline       call    #hsync                          ' now call hsync to gain some time between xconts
04ec0                 | 
04ec0                 | 
04ec0     52 27 33 F9 | p202            getword mb2,m_border,#0
04ec4     00 26 0F F2 |                 cmp     mb2, #0 wz
04ec8     4D A5 C2 5C |           if_nz xcont   m_border,border                 ' display a left border if exists
04ecc                 | 
04ecc                 | '----------------------------------------- display pixels
04ecc                 | 
04ecc     53 BD 02 F6 |                 mov     m_lut2,m_lut1                   ' m_lut1 loaded from hub timing block, pixel per long
04ed0     59 11 03 F6 |                 mov     cpl2,i_cpl                      ' i_cpl in graphic modes is longs per line
04ed4                 | 
04ed4     7C 19 5B F8 |                 getnib  zoom, dl,#3
04ed8     03 18 07 F5 |                 and             zoom, #3                        ' get a horizontal zoom for the line
04edc                 | 
04edc     7C BF 02 F6 |                 mov     colordepth,dl                   ' get a color depth, reuse linestart var f         '
04ee0     0C BE 06 F5 |                 and     colordepth,#12
04ee4                 | 
04ee4     00 BE 0E F2 |                 cmp     colordepth,#%0000 wz            ' 1 bpp modes
04ee8     6C BD 02 A1 |           if_z  add     m_lut2,lutg1
04eec     68 00 90 AD |           if_z  jmp     #p240
04ef0                 | 
04ef0     04 BE 0E F2 |                 cmp     colordepth,#%0100 wz            ' 2 bpp modes
04ef4     6D BD 02 A1 |           if_z  add     m_lut2,lutg2
04ef8     9C 00 90 AD |           if_z  jmp     #p250
04efc                 | 
04efc     08 BE 0E F2 |                 cmp     colordepth,#%1000 wz            ' 4 bpp modes
04f00     6E BD 02 A1 |           if_z  add     m_lut2,lutg4
04f04     00 01 90 AD |           if_z  jmp     #p260
04f08                 | 
04f08     6F BD 02 F1 |                 add m_lut2,lutg8                        ' 8 bpp modes
04f0c                 | 
04f0c                 | '' --- 8 bit color modes
04f0c                 | 
04f0c     00 18 0F F2 |                 cmp zoom, #%00 wz   '256 colors, zoom x1
04f10     54 01 90 AD |                 if_z jmp #p251      'there is an universal loop for 1x zoom at p251, saves one long of skip pattern
04f14                 | 
04f14     01 18 0F F2 |                 cmp zoom, #%01 wz   '256 colors, zoom x2
04f18     2A 0E 07 A6 |                 if_z mov skippattern,#%101010
04f1c     10 00 90 AD |                 if_z jmp #p235
04f20                 |  '  
04f20     02 18 0F F2 |                 cmp zoom, #%10 wz   '256 colors, zoom x4
04f24     25 0E 07 A6 |                 if_z mov skippattern,#%100101
04f28                 |     
04f28                 |  
04f28     05 0E 07 56 |                 if_nz mov skippattern,#%000101
04f2c     01 10 47 50 |                 if_nz shr cpl2,#1         ' if 8x zoom, 2 xconts used in one loop, so divide loop count by 2
04f30                 |         
04f30                 | 
04f30                 |         
04f30     7E 13 03 FB | p235               rdlong  char,framebuf2
04f34     32 0E 63 FD |                    skipf skippattern
04f38     02 FC 06 F1 |                    add     framebuf2,#2             '0 1 1
04f3c     01 FC 06 F1 |                    add     framebuf2,#1             '1 0 0
04f40     50 12 FF F9 |                    movbyts char,#%01010000          '0 1 1
04f44     00 12 FF F9 |                    movbyts char,#%00000000          '1 0 0
04f48     89 BD C2 FC |                    xcont   m_lut2,char              '0 0 0
04f4c     89 BD C2 FC |                    xcont   m_lut2,char              '1 1 0
04f50     F7 11 6F FB |                    djnz    cpl2,#p235
04f54                 | 
04f54     20 01 90 FD |                jmp    #p203
04f58                 |                   
04f58                 | 
04f58                 | 
04f58                 | '' --- 1 bit color modes
04f58                 | 
04f58     00 18 0F F2 | p240          cmp zoom, #%00 wz     '2 colors, zoom x1
04f5c     08 01 90 AD |        if_z   jmp #p251              'there is an universal loop for 1x zoom at p251, saves one long of skip pattern
04f60                 | 
04f60     01 18 0F F2 |               cmp zoom, #%01 wz     '2 colors, zoom x2
04f64     13 0E 07 A6 |        if_z   mov skippattern,#%10011
04f68     08 0E 07 56 |        if_nz  mov skippattern,#%01000
04f6c                 | 
04f6c                 | 
04f6c     7E 13 E3 FA | p241               rdword  char,framebuf2
04f70     44 12 FF F9 |                    movbyts char,#%01000100
04f74     63 12 63 FD |                    mergew  char
04f78     32 0E 63 FD |                    skipf skippattern
04f7c     44 12 FF F9 |                    movbyts char,#%01000100         ' 1 0
04f80     63 12 63 FD |                    mergew  char                    ' 1 0
04f84     89 BD C2 FC |                    xcont   m_lut2,char             ' 0 0
04f88     02 FC 06 F1 |                    add     framebuf2,#2                    ' 0 1
04f8c     01 FC 06 F1 |                    add     framebuf2,#1                ' 1 0
04f90     F6 11 6F FB |                    djnz   cpl2,#p241
04f94                 | 
04f94                 | 
04f94     E0 00 90 FD |                jmp    #p203
04f98                 | 
04f98                 | '' --- 2 bit color modes
04f98                 | 
04f98     00 18 0F F2 | p250          cmp zoom, #%00 wz     '4 colors, zoom x1
04f9c     C8 00 90 AD |        if_z   jmp #p251
04fa0                 | 
04fa0     01 18 0F F2 |               cmp zoom, #%01 wz     '4 colors, zoom x2
04fa4     30 00 90 AD |        if_z   jmp #p252
04fa8                 | 
04fa8                 | 
04fa8     7E 13 C3 FA | p254               rdbyte char,framebuf2
04fac     04 0C 07 F6 |                    mov  t5,#4
04fb0     02 12 67 F0 | p255               shl  char,#2
04fb4     89 05 53 F8 |                    getnib  t1,char,#2
04fb8     03 04 07 F5 |                    and     t1,#3
04fbc     55 04 07 FA |                    mul     t1,#$55
04fc0     82 07 03 F9 |                    rolbyte  t2,t1,#0
04fc4     FA 0D 6F FB |                    djnz    t5,#p255
04fc8     83 BD C2 FC |                    xcont   m_lut2,t2
04fcc     01 FC 06 F1 |                    add     framebuf2,#1
04fd0     F5 11 6F FB |                    djnz    cpl2,#p254
04fd4     A0 00 90 FD |                    jmp     #p203
04fd8                 | 
04fd8     7E 13 E3 FA | p252               rdword char,framebuf2
04fdc     08 0C 07 F6 |                    mov  t5,#8
04fe0     02 12 67 F0 | p253               shl  char,#2
04fe4     89 05 63 F8 |                    getnib  t1,char,#4
04fe8     03 04 07 F5 |                    and     t1,#3
04fec     05 04 07 FA |                    mul     t1,#5
04ff0     82 07 83 F8 |                    rolnib  t2,t1,#0
04ff4     FA 0D 6F FB |                    djnz    t5,#p253
04ff8     83 BD C2 FC |                    xcont   m_lut2,t2
04ffc     02 FC 06 F1 |                    add     framebuf2,#2
05000     F5 11 6F FB |                    djnz    cpl2,#p252
05004     70 00 90 FD |                    jmp     #p203
05008                 | 
05008                 | '' ------ 4 bit color modes
05008                 | 
05008     00 18 0F F2 | p260          cmp zoom, #%00 wz     '4 colors, zoom x1, the same loop as 2bpp
0500c     58 00 90 AD |        if_z   jmp #p251
05010                 | 
05010     01 18 0F F2 |               cmp zoom, #%01 wz     '4 colors, zoom x2
05014     2C 00 90 AD |        if_z   jmp #p262
05018                 | 
05018                 | 
05018     7E 13 C3 FA | p263               rdbyte char,framebuf2
0501c     02 0A DC FC |                            rep #5,#2
05020     89 07 8B F8 |                              rolnib t2,char,#1
05024     89 07 8B F8 |                                  rolnib t2,char,#1
05028     89 07 8B F8 |                              rolnib t2,char,#1
0502c     89 07 8B F8 |                                  rolnib t2,char,#1
05030     04 12 67 F0 |                              shl char,#4
05034     83 BD C2 FC |                    xcont   m_lut2,t2
05038     01 FC 06 F1 |                    add     framebuf2,#1
0503c     F6 11 6F FB |                    djnz    cpl2,#p263
05040     34 00 90 FD |                    jmp     #p203
05044                 | 
05044     7E 13 E3 FA | p262               rdword  char,framebuf2
05048     04 06 DC FC |                            rep #3,#4
0504c     89 07 9B F8 |                              rolnib t2,char,#3
05050     89 07 9B F8 |                                  rolnib t2,char,#3
05054     04 12 67 F0 |                              shl char,#4
05058     83 BD C2 FC |                    xcont   m_lut2,t2
0505c     02 FC 06 F1 |                    add     framebuf2,#2
05060     F8 11 6F FB |                    djnz    cpl2,#p262
05064     10 00 90 FD |                    jmp     #p203
05068                 | 
05068                 | ''---------- all color modes without zoom
05068                 | 
05068     88 07 D8 FC | p251               rep  #3,cpl2
0506c     7E 13 03 FB |                    rdlong  char,framebuf2
05070     04 FC 06 F1 |                    add     framebuf2,#4
05074     89 BD C2 FC |                    xcont   m_lut2,char
05078                 |           
05078                 |  ''-----------------------------------------------------------------------------------------
05078                 | p203           ' getword  mb2,m_border,#0
05078     00 26 0F F2 |                 cmp      mb2, #0 wz
0507c     4D A5 C2 5C |                 if_nz    xcont   m_border,border            'display a right border if exists
05080                 | 
05080     E8 FB 9F FD |                 jmp #p302
05084                 | 
05084                 | '' -------------------------------------- END of graph  line ---------------------------------
05084                 | 
05084                 | '' consts and vars
05084                 | 
05084     52 4D 35 D5 | sync_000        long    %1101010100_1101010100_1101010100_10    '
05088     AE 42 35 D5 | sync_001        long    %1101010100_1101010100_0010101011_10    '        hsync
0508c     52 45 15 55 | sync_222        long    %0101010100_0101010100_0101010100_10    'vsync
05090     AE 4A 15 55 | sync_223        long    %0101010100_0101010100_1010101011_10    'vsync + hsync
05094                 | 
05094     00 2C 1A 00 | border          long    %00000000_00011010_00101100_00000000
05098                 | 
05098                 | '------ these longs will be set by setmode function
05098                 | 
05098     00 00 00 00 | m_bs            long    0        'blanks before sync
0509c     00 00 00 00 | m_sn            long    0        'sync
050a0     00 00 00 00 | m_bv            long    0        'blanks before visible
050a4     00 00 00 00 | m_vi            long    0        'visible pixels #
050a8     00 00 00 00 | m_border        long    0        'left/right borders
050ac     00 00 00 00 | m_lut1          long    0        'characters
050b0     00 00 00 00 | i_vborder       long    0        'up/down borders
050b4     00 00 00 00 | i_upporch       long    0        'up porch lines
050b8     00 00 00 00 | i_vsync         long    0        'vsync lines
050bc     00 00 00 00 | i_downporch     long    0        'down porch lines
050c0     00 00 00 00 | i_modenum       long    0        'mode #
050c4     00 00 00 00 | i_cpl           long    0        'chars/longs per line
050c8     00 00 00 00 | i_lines         long    0        'scanlines #
050cc     00 00 00 00 | i_clock         long    0
050d0     00 00 00 00 | i_hubset        long    0
050d4     00 00 00 00 | i_totalvis      long    0
050d8                 | 
050d8                 | '-------------------------------------
050d8                 | 
050d8     00 00 00 00 | m_lut2          long    0
050dc                 | 
050dc                 | colordepth
050dc     00 00 00 00 | linestart       long    0
050e0     00 00 00 00 | linenum         long    0
050e4     00 01 00 00 | lutaddr         long    256
050e8                 | 
050e8     0E 00 00 00 | cursorsh        long    14
050ec     00 00 00 00 | frames          long    0
050f0     00 00 00 00 | cursorx         long    0
050f4     00 00 00 00 | cursory         long    0
050f8     00 00 00 00 | cursorpos       long    0
050fc     00 00 00 00 | cursorpos2      long    0
05100     00 00 00 00 | fontstart       long    0
05104     00 00 00 00 | border2         long 0
05108     00 00 81 70 | lutiv           long $70810000
0510c     00 00 88 00 | lutt1           long $00880000
05110     00 00 80 00 | lutg1           long $00800000
05114     00 00 80 10 | lutg2           long $10800000
05118     00 00 80 20 | lutg4           long $20800000
0511c     00 00 80 30 | lutg8           long $30800000
05120     00 00 00 00 | framebuf        long 0
05124     00 00 00 00 | fontbuf         long 0
05128     00 00 00 00 | borderptr       long 0
0512c     00 00 00 00 | vblankptr       long 0
05130     00 00 00 00 | cursorptr       long 0
05134     00 00 00 00 | modeptr         long 0
05138     00 00 00 00 | paletteptr      long 0
0513c     00 00 00 00 | dlptr           long 0
05140                 | fontnumptr      res     1
05140                 | fontnumptr      res     1
05140                 | hbase           res     1
05140                 | hbase           res     1
05140                 | borderptr2      res     1
05140                 | borderptr2      res     1
05140                 | dlptr2 res 1
05140                 | dlptr2 res 1
05140                 | dl              res 1
05140                 | dl              res 1
05140                 | ii              res     1
05140                 | ii              res     1
05140                 | framebuf2       res     1
05140                 | framebuf2       res     1
05140                 | hsync0          res     1
05140                 | hsync0          res     1
05140                 | hsync1          res     1
05140                 | hsync1          res     1
05140                 | fontline        res     1
05140                 | fontline        res     1
05140                 | t1              res     1
05140                 | t1              res     1
05140                 | t2              res     1
05140                 | t2              res     1
05140                 | t3 res 1
05140                 | t3 res 1
05140                 | t4 res 1
05140                 | t4 res 1
05140                 | t5 res 1
05140                 | t5 res 1
05140                 | skippattern res 1
05140                 | skippattern res 1
05140                 | cpl2 res 1
05140                 | cpl2 res 1
05140                 | char            res     1
05140                 | char            res     1
05140                 | backcolor       res     1
05140                 | backcolor       res     1
05140                 | charcolor       res     1
05140                 | charcolor       res     1
05140                 | zoom res 1
05140                 | zoom res 1
05140     00 00 00 00 | rcnt long 0 'dl repeat count
05144     00 00 00 00 | rcnt2 long 0
05148     00 00 00 00 | rcnt2a long 0
0514c     00 00 00 00 | roffset long 0
05150     00 00 00 00 | rdl long 0  'dl repeat line
05154     00 00 00 00 | dlc long 0 'dl command
05158     00 00 00 00 | mb2 long 0
0515c     00 00 00 00 | aend             long 0
05160                 |                 fit     496                     '
05160                 | __system__dat_
05160     00 00 00 00 
05164     00 00 00 00 
05168     03 00 00 00 
0516c     00 00 00 00 | 	byte	$00, $00, $00, $00, $00, $00, $00, $00, $03, $00, $00, $00, $00, $00, $00, $00
05170                 | __heap_base
05170     00 00 00 00 
      ...             
06170     00 00 00 00 
06174     00 00 00 00 | 	long	0[1026]
06178                 | objmem
06178     00 00 00 00 | 	long	0[1]
0617c 0dd             | 	org	COG_BSS_START
0617c 0dd             | _var01
0617c 0dd             | 	res	1
0617c 0de             | _var02
0617c 0de             | 	res	1
0617c 0df             | _var03
0617c 0df             | 	res	1
0617c 0e0             | _var04
0617c 0e0             | 	res	1
0617c 0e1             | _var05
0617c 0e1             | 	res	1
0617c 0e2             | _var06
0617c 0e2             | 	res	1
0617c 0e3             | _var07
0617c 0e3             | 	res	1
0617c 0e4             | _var08
0617c 0e4             | 	res	1
0617c 0e5             | _var09
0617c 0e5             | 	res	1
0617c 0e6             | _var10
0617c 0e6             | 	res	1
0617c 0e7             | _var11
0617c 0e7             | 	res	1
0617c 0e8             | _var12
0617c 0e8             | 	res	1
0617c 0e9             | _var13
0617c 0e9             | 	res	1
0617c 0ea             | _var14
0617c 0ea             | 	res	1
0617c 0eb             | _var15
0617c 0eb             | 	res	1
0617c 0ec             | _var16
0617c 0ec             | 	res	1
0617c 0ed             | arg01
0617c 0ed             | 	res	1
0617c 0ee             | arg02
0617c 0ee             | 	res	1
0617c 0ef             | arg03
0617c 0ef             | 	res	1
0617c 0f0             | arg04
0617c 0f0             | 	res	1
0617c 0f1             | arg05
0617c 0f1             | 	res	1
0617c 0f2             | local01
0617c 0f2             | 	res	1
0617c 0f3             | local02
0617c 0f3             | 	res	1
0617c 0f4             | local03
0617c 0f4             | 	res	1
0617c 0f5             | local04
0617c 0f5             | 	res	1
0617c 0f6             | local05
0617c 0f6             | 	res	1
0617c 0f7             | local06
0617c 0f7             | 	res	1
0617c 0f8             | local07
0617c 0f8             | 	res	1
0617c 0f9             | local08
0617c 0f9             | 	res	1
0617c 0fa             | local09
0617c 0fa             | 	res	1
0617c 0fb             | local10
0617c 0fb             | 	res	1
0617c 0fc             | local11
0617c 0fc             | 	res	1
0617c 0fd             | local12
0617c 0fd             | 	res	1
0617c 0fe             | local13
0617c 0fe             | 	res	1
0617c 0ff             | local14
0617c 0ff             | 	res	1
0617c 100             | local15
0617c 100             | 	res	1
0617c 101             | local16
0617c 101             | 	res	1
0617c 102             | local17
0617c 102             | 	res	1
0617c 103             | local18
0617c 103             | 	res	1
0617c 104             | local19
0617c 104             | 	res	1
0617c 105             | local20
0617c 105             | 	res	1
0617c 106             | local21
0617c 106             | 	res	1
0617c 107             | local22
0617c 107             | 	res	1
0617c 108             | local23
0617c 108             | 	res	1
0617c 109             | local24
0617c 109             | 	res	1
0617c 10a             | local25
0617c 10a             | 	res	1
0617c 10b             | local26
0617c 10b             | 	res	1
0617c 10c             | local27
0617c 10c             | 	res	1
0617c 10d             | muldiva_
0617c 10d             | 	res	1
0617c 10e             | muldivb_
0617c 10e             | 	res	1
0617c 10f             | 	fit	480
0617c 10f             | 
