00000                 | 
00000                 | #line 1 "D:/Programowanie/ultibo-propeller/robuv001/robuv002.p2asm"
00000                 | ' 
00000                 | ' 	CLK_FREQ =285000000 '322162162                                     	' system freq as a constant
00000                 | con
00000                 | 	CLK_FREQ = 285000000
00000                 | ' 	
00000                 | ' 	_clkfreq = CLK_FREQ                                           	' set system clock
00000                 | 	_clkfreq = 285000000
00000                 | ' 	SBUS_RX  = 16                                                 	' S.BUS serial input
00000                 | 	SBUS_RX = 16
00000                 | '  
00000                 | ' 	SBUS_CFG  = P_ASYNC_RX' do not invert | P_INVERT_IN                          	' inverted serial input
00000                 | 	SBUS_CFG = 62
00000                 | ' 	SBUS_BAUD = (CLK_FREQ / 100_000) << 16 | (9-1)                	' 100K baud, 9 bits (8 data + parity)  
00000                 | 	SBUS_BAUD = 186777608
00000                 | ' 	baudrate        = 4000000
00000                 | 	baudrate = 4000000
00000                 | '  rxpin           = 14
00000                 | 	rxpin = 14
00000                 | '  txpin           = 12
00000                 | 	txpin = 12
00000                 | '  pisleep = 13
00000                 | 	pisleep = 13
00000                 | '  pipower = 15
00000                 | 	pipower = 15
00000                 | '  pipower2 = 8
00000                 | 	pipower2 = 8
00000                 | '  adcpin  = 17  ' battery voltage 
00000                 | 	adcpin = 17
00000                 | dat
00000 000 00 00 00 00 | 	nop
00004 001 01 EC 63 FD | 	cogid	pa
00008 002 02 00 00 FF 
0000c 003 04 EC E7 FC | 	coginit	pa,##$404
00010                 | 	orgh	$10
00010     00 00 00 00 | 	long	0	'reserved
00014     00 00 00 00 | 	long	0 ' clock frequency: will default to 285000000
00018     00 00 00 00 | 	long	0 ' clock mode: will default to $10c38fb
0001c     00 00 00 00 
      ...             
003f8     00 00 00 00 
003fc     00 00 00 00 | 	orgh	$400
00400     00 AA 05 06 |  _ret_	mov	result1, #0
00404 000             | 	org	0
00404 000             | entry
00404 000 00 F0 0F F2 | 	cmp	ptra, #0 wz
00408 001 0C 02 90 5D |  if_ne	jmp	#spininit
0040c 002 D0 F0 03 F6 | 	mov	ptra, objptr
00410 003 02 00 00 FF 
00414 004 44 F0 07 F1 | 	add	ptra, ##1092
00418 005 14 EC 0F FB | 	rdlong	pa, #20 wz
0041c 006 E4 01 90 5D |  if_ne	jmp	#skip_clock_set_
00420 007 00 00 64 FD | 	hubset	#0
00424 008 1C 86 80 FF 
00428 009 00 F0 65 FD | 	hubset	##17578232
0042c 00a 86 01 80 FF 
00430 00b 1F 80 66 FD | 	waitx	##200000
00434 00c 1C 86 00 FF 
00438 00d FB EC 07 F6 | 	mov	pa, ##17578235
0043c 00e 00 EC 63 FD | 	hubset	pa
00440 00f 18 EC 67 FC | 	wrlong	pa, #24
00444 010 60 7E 88 FF 
00448 011 14 80 6E FC | 	wrlong	##285000000, #20
0044c 012 B4 01 90 FD | 	jmp	#skip_clock_set_
00450 013 00 00 00 00 
      ...             
005fc 07e 00 00 00 00 
00600 07f 00 00 00 00 | 	orgf	128
00604 080             | skip_clock_set_
00604 080 5C 07 A0 FD | 	call	#_main
00608 081             | cogexit
00608 081 38 01 80 FF 
0060c 082 1F 00 66 FD | 	waitx	##160000
00610 083 01 C0 61 FD | 	cogid	arg01
00614 084 03 C0 61 FD | 	cogstop	arg01
00618 085             | spininit
00618 085 00 A1 05 FB | 	rdlong	objptr, ptra
0061c 086 04 F0 07 F1 | 	add	ptra, #4
00620 087 00 AB 05 FB | 	rdlong	result1, ptra
00624 088 04 F0 07 F1 | 	add	ptra, #4
00628 089 00 C1 05 FB | 	rdlong	arg01, ptra
0062c 08a 04 F0 07 F1 | 	add	ptra, #4
00630 08b 00 C3 05 FB | 	rdlong	arg02, ptra
00634 08c 04 F0 07 F1 | 	add	ptra, #4
00638 08d 00 C5 05 FB | 	rdlong	arg03, ptra
0063c 08e 04 F0 07 F1 | 	add	ptra, #4
00640 08f 00 C7 05 FB | 	rdlong	arg04, ptra
00644 090 10 F0 87 F1 | 	sub	ptra, #16
00648 091 2D AA 61 FD | 	call	result1
0064c 092 B8 FF 9F FD | 	jmp	#cogexit
00650 093             | FCACHE_LOAD_
00650 093 2B 3E 61 FD |     pop	fcache_tmpb_
00654 094 F6 3F 01 F1 |     add	fcache_tmpb_, pa
00658 095 2A 3E 61 FD |     push	fcache_tmpb_
0065c 096 F6 3F 81 F1 |     sub	fcache_tmpb_, pa
00660 097 02 EC 47 F0 |     shr	pa, #2
00664 098 00 EC 8F F9 |     altd	pa
00668 099 9E 00 00 F6 |     mov	 0-0, ret_instr_
0066c 09a 01 EC 87 F1 |     sub	pa, #1
00670 09b 28 EC 63 FD |     setq	pa
00674 09c 9F 00 00 FB |     rdlong	$0, fcache_tmpb_
00678 09d 00 00 80 FD |     jmp	#\$0 ' jmp to cache
0067c 09e             | ret_instr_
0067c 09e 2D 00 64 FD |     ret
00680 09f             | fcache_tmpb_
00680 09f 00 00 00 00 |     long 0
00684 0a0             | COUNT_
00684 0a0 00 00 00 00 |     long 0
00688 0a1             | RETADDR_
00688 0a1 00 00 00 00 |     long 0
0068c 0a2             | fp
0068c 0a2 00 00 00 00 |     long 0
00690 0a3             | pushregs_
00690 0a3 2B EC 63 FD |     pop  pa
00694 0a4 2B 42 61 FD |     pop  RETADDR_
00698 0a5 04 40 95 FB |     tjz  COUNT_, #pushregs_done_
0069c 0a6 01 40 85 F1 |     sub  COUNT_, #1
006a0 0a7 28 40 61 FD |     setq COUNT_
006a4 0a8 00 CB 65 FC |     wrlong local01, ptra
006a8 0a9 01 40 05 F1 |     add  COUNT_, #1
006ac 0aa             | pushregs_done_
006ac 0aa 02 40 65 F0 |     shl  COUNT_, #2
006b0 0ab A0 F0 03 F1 |     add  ptra, COUNT_
006b4 0ac 02 40 45 F0 |     shr  COUNT_, #2
006b8 0ad 28 04 64 FD |     setq #2 ' push 3 registers starting at COUNT_
006bc 0ae 00 41 65 FC |     wrlong COUNT_, ptra
006c0 0af 0C F0 07 F1 |     add    ptra, #12
006c4 0b0 F8 45 01 F6 |     mov    fp, ptra
006c8 0b1 2C EC 63 FD |     jmp  pa
006cc 0b2             |  popregs_
006cc 0b2 2B EC 63 FD |     pop    pa
006d0 0b3 0C F0 87 F1 |     sub    ptra, #12
006d4 0b4 28 04 64 FD |     setq   #2
006d8 0b5 00 41 05 FB |     rdlong COUNT_, ptra
006dc 0b6 06 40 95 FB |     tjz    COUNT_, #popregs__ret
006e0 0b7 02 40 65 F0 |     shl    COUNT_, #2
006e4 0b8 A0 F0 83 F1 |     sub    ptra, COUNT_
006e8 0b9 02 40 45 F0 |     shr    COUNT_, #2
006ec 0ba 01 40 85 F1 |     sub    COUNT_, #1
006f0 0bb 28 40 61 FD |     setq   COUNT_
006f4 0bc 00 CB 05 FB |     rdlong local01, ptra
006f8 0bd             | popregs__ret
006f8 0bd 2A 42 61 FD |     push   RETADDR_
006fc 0be 2C EC 63 FD |     jmp    pa
00700 0bf             | 
00700 0bf             | unsdivide_
00700 0bf 28 00 64 FD |        setq    #0
00704 0c0 03 05 12 FD |        qdiv    muldiva_, muldivb_
00708 0c1 18 06 62 FD |        getqx   muldivb_
0070c 0c2 19 04 62 0D |  _ret_ getqy   muldiva_
00710 0c3             | 
00710 0c3             | divide_
00710 0c3 02 05 52 F6 |        abs     muldiva_,muldiva_     wc       'abs(x)
00714 0c4 03 9E 85 F5 |        muxc    itmp2_,#%11                    'store sign of x
00718 0c5 03 07 5A F6 |        abs     muldivb_,muldivb_     wcz      'abs(y)
0071c 0c6 02 9E 65 C5 |  if_c  xor     itmp2_,#%10                    'store sign of y
00720 0c7 2D 00 64 AD |  if_z  ret
00724 0c8 D8 FF BF FD |        call    #unsdivide_
00728 0c9 01 9E D5 F7 |        test    itmp2_,#1        wc       'restore sign, remainder
0072c 0ca 02 05 82 F6 |        negc    muldiva_,muldiva_ 
00730 0cb 02 9E D5 F7 |        test    itmp2_,#%10      wc       'restore sign, division result
00734 0cc 03 07 82 06 |  _ret_ negc    muldivb_,muldivb_
00738 0cd             | 
00738 0cd             | entryptr__
00738 0cd 04 04 00 00 | 	long	@entry
0073c 0ce             | itmp1_
0073c 0ce 00 00 00 00 | 	long	0
00740 0cf             | itmp2_
00740 0cf 00 00 00 00 | 	long	0
00744 0d0             | objptr
00744 0d0 4C 2B 00 00 | 	long	@objmem
00748 0d1             | ptr__adccog_dat__
00748 0d1 AC 2A 00 00 | 	long	@_adccog_dat_
0074c 0d2             | ptr__display_lidar_
0074c 0d2 A8 10 00 00 | 	long	@_display_lidar
00750 0d3             | ptr__hng026r_dat__
00750 0d3 E4 1C 00 00 | 	long	@_hng026r_dat_
00754 0d4             | ptr__serialcog_
00754 0d4 6C 16 00 00 | 	long	@_serialcog
00758 0d5             | result1
00758 0d5 00 00 00 00 | 	long	0
0075c 0d6             | COG_BSS_START
0075c 0d6             | 	fit	480
0075c                 | 	orgh
0075c                 | hubentry
0075c                 | 
0075c                 | ' 
0075c                 | ' pub main() | t11, i11, h11,h12,h21,h22 ,c,d,s2
0075c                 | _main
0075c     1D 40 05 F6 | 	mov	COUNT_, #29
00760     A3 00 A0 FD | 	call	#pushregs_
00764                 | ' waitms(200)
00764     C8 C0 05 F6 | 	mov	arg01, #200
00768     7C 14 B0 FD | 	call	#__system___waitms
0076c                 | ' v.start(512+48+192+5,0)
0076c                 | ' 
0076c                 | ' 
0076c                 | ' hdmibase:=base
0076c     01 00 00 FF 
00770     7C A1 05 F1 | 	add	objptr, ##892
00774     D0 00 68 FC | 	wrlong	#0, objptr
00778                 | ' 
00778                 | ' ' the mode has to be set here to enable computing the buffer length
00778                 | ' 
00778                 | ' setmode(mode)
00778     2C A0 05 F1 | 	add	objptr, #44
0077c     D0 C0 01 F6 | 	mov	arg01, objptr
00780     44 A0 85 F1 | 	sub	objptr, #68
00784     06 00 00 FF 
00788     00 A6 05 F1 | 	add	ptr__hng026r_dat__, ##3072
0078c     D3 C2 01 F6 | 	mov	arg02, ptr__hng026r_dat__
00790     06 00 00 FF 
00794     00 A6 85 F1 | 	sub	ptr__hng026r_dat__, ##3072
00798                 | ' 
00798                 | ' longmove(@timings,@timings000,16)   'PAL 50 Hz signaling 1140x624, active 800x480, 100x30 text, wide border, 2 colors per pixel, 00_00_00_00_00=0, 354_693_878 Hz
00798     10 C4 05 F6 | 	mov	arg03, #16
0079c     B8 13 B0 FD | 	call	#__system__longmove
007a0                 | ' 
007a0                 | ' timings[5]:=4
007a0     58 A0 05 F1 | 	add	objptr, #88
007a4     D0 08 68 FC | 	wrlong	#4, objptr
007a8     18 A0 05 F1 | 	add	objptr, #24
007ac     D0 CA 01 FB | 	rdlong	local01, objptr
007b0     01 CA 65 F0 | 	shl	local01, #1
007b4                 | ' timings[11]:=timings[11]<<1
007b4     D0 CA 61 FC | 	wrlong	local01, objptr
007b8     04 00 00 FF 
007bc     00 A6 05 F1 | 	add	ptr__hng026r_dat__, ##2048
007c0                 | ' palette_ptr:=@ataripalette
007c0     64 A0 85 F1 | 	sub	objptr, #100
007c4     D0 A6 61 FC | 	wrlong	ptr__hng026r_dat__, objptr
007c8     38 A0 05 F1 | 	add	objptr, #56
007cc     D0 CC 01 F6 | 	mov	local02, objptr
007d0     04 00 00 FF 
007d4     00 A6 85 F1 | 	sub	ptr__hng026r_dat__, ##2048
007d8     44 A0 85 F1 | 	sub	objptr, #68
007dc     4C F8 9F FE | 	loc	pa,	#(@LR__0003-@LR__0001)
007e0     93 00 A0 FD | 	call	#FCACHE_LOAD_
007e4                 | LR__0001
007e4     05 14 DC FC | 	rep	@LR__0004, #5
007e8                 | LR__0002
007e8     18 A0 05 F1 | 	add	objptr, #24
007ec     D0 CE 01 FB | 	rdlong	local03, objptr
007f0     18 A0 85 F1 | 	sub	objptr, #24
007f4     11 CE 65 F0 | 	shl	local03, #17
007f8     E6 D0 01 FB | 	rdlong	local04, local02
007fc     E7 D0 01 F1 | 	add	local04, local03
00800     80 40 38 FF 
00804     00 D0 05 F1 | 	add	local04, ##1887502336
00808                 | '   timings[i]:=timings[i]+hdmibase<<17+ timingsxxt
00808     E6 D0 61 FC | 	wrlong	local04, local02
0080c     04 CC 05 F1 | 	add	local02, #4
00810                 | LR__0003
00810                 | LR__0004
00810     18 A0 05 F1 | 	add	objptr, #24
00814     D0 D2 01 FB | 	rdlong	local05, objptr
00818     11 D2 65 F0 | 	shl	local05, #17
0081c     40 A0 05 F1 | 	add	objptr, #64
00820     D0 D4 01 FB | 	rdlong	local06, objptr
00824     E9 D4 01 F1 | 	add	local06, local05
00828                 | ' timings[5]:=timings[5]+hdmibase<<17
00828     D0 D4 61 FC | 	wrlong	local06, objptr
0082c                 | ' clkfreq:=timings[13]
0082c     20 A0 05 F1 | 	add	objptr, #32
00830     D0 D6 01 FB | 	rdlong	local07, objptr
00834     78 A0 85 F1 | 	sub	objptr, #120
00838     14 D6 65 FC | 	wrlong	local07, #20
0083c                 | ' waitms(1)
0083c     01 C0 05 F6 | 	mov	arg01, #1
00840     A4 13 B0 FD | 	call	#__system___waitms
00844                 | ' 
00844                 | ' xzoom:=2
00844     C0 A0 05 F1 | 	add	objptr, #192
00848     D0 04 68 FC | 	wrlong	#2, objptr
0084c                 | ' yzoom:=2
0084c     04 A0 05 F1 | 	add	objptr, #4
00850     D0 04 68 FC | 	wrlong	#2, objptr
00854     04 A0 85 F1 | 	sub	objptr, #4
00858     D0 D8 01 FB | 	rdlong	local08, objptr
0085c     04 A0 05 F1 | 	add	objptr, #4
00860     D0 DA 01 FB | 	rdlong	local09, objptr
00864     ED D8 01 FD | 	qmul	local08, local09
00868     18 DC 61 FD | 	getqx	local10
0086c                 | ' azoom:=xzoom*yzoom
0086c     04 A0 05 F1 | 	add	objptr, #4
00870     D0 DC 61 FC | 	wrlong	local10, objptr
00874                 | ' 
00874                 | ' cpl:=timings[11]
00874     58 A0 85 F1 | 	sub	objptr, #88
00878     D0 D6 01 FB | 	rdlong	local07, objptr
0087c     14 A0 05 F1 | 	add	objptr, #20
00880     D0 D6 61 FC | 	wrlong	local07, objptr
00884     10 A0 85 F1 | 	sub	objptr, #16
00888     D0 04 02 FB | 	rdlong	muldiva_, objptr
0088c     50 A0 05 F1 | 	add	objptr, #80
00890     D0 06 02 FB | 	rdlong	muldivb_, objptr
00894     C4 A0 85 F1 | 	sub	objptr, #196
00898     C3 00 A0 FD | 	call	#divide_
0089c                 | ' 
0089c                 | ' lines:=timings[12]/yzoom
0089c     88 A0 05 F1 | 	add	objptr, #136
008a0     D0 06 62 FC | 	wrlong	muldivb_, objptr
008a4                 | ' cpl:=cpl/xzoom
008a4     04 A0 85 F1 | 	sub	objptr, #4
008a8     D0 04 02 FB | 	rdlong	muldiva_, objptr
008ac     3C A0 05 F1 | 	add	objptr, #60
008b0     D0 06 02 FB | 	rdlong	muldivb_, objptr
008b4     C0 A0 85 F1 | 	sub	objptr, #192
008b8     C3 00 A0 FD | 	call	#divide_
008bc     84 A0 05 F1 | 	add	objptr, #132
008c0     D0 06 62 FC | 	wrlong	muldivb_, objptr
008c4     04 A0 05 F1 | 	add	objptr, #4
008c8     D0 DA 01 FB | 	rdlong	local09, objptr
008cc     ED 06 02 FD | 	qmul	muldivb_, local09
008d0     18 DE 61 FD | 	getqx	local11
008d4                 | ' 
008d4                 | ' buflen:=(cpl*lines)
008d4     64 A0 85 F1 | 	sub	objptr, #100
008d8     D0 DE 61 FC | 	wrlong	local11, objptr
008dc     24 A0 85 F1 | 	sub	objptr, #36
008e0     02 DE 65 F0 | 	shl	local11, #2
008e4     13 E0 C5 F9 | 	decod	local12, #19
008e8     EF E0 81 F1 | 	sub	local12, local11
008ec                 | ' 
008ec                 | ' buf_ptr:=$80000-4*buflen
008ec     D0 E0 61 FC | 	wrlong	local12, objptr
008f0     44 A0 05 F1 | 	add	objptr, #68
008f4     D0 E2 01 F6 | 	mov	local13, objptr
008f8                 | ' mode_ptr:=@timings
008f8     3C A0 85 F1 | 	sub	objptr, #60
008fc     D0 E2 61 FC | 	wrlong	local13, objptr
00900                 | ' graphmode:=mode
00900     B0 A0 05 F1 | 	add	objptr, #176
00904     01 00 80 FF 
00908     D0 EA 69 FC | 	wrlong	##757, objptr
0090c     84 A0 85 F1 | 	sub	objptr, #132
00910     D0 E4 01 F6 | 	mov	local14, objptr
00914                 | ' 
00914                 | ' vblank_ptr:=@vblank
00914     30 A0 85 F1 | 	sub	objptr, #48
00918     D0 E4 61 FC | 	wrlong	local14, objptr
0091c     88 A0 05 F1 | 	add	objptr, #136
00920     D0 E6 01 F6 | 	mov	local15, objptr
00924                 | ' 
00924                 | ' 
00924                 | ' fontnum_ptr:=@fontnum
00924     78 A0 85 F1 | 	sub	objptr, #120
00928     D0 E6 61 FC | 	wrlong	local15, objptr
0092c                 | ' 
0092c                 | ' fontnum:=0  ' PC type font ' TODO: font# in buffer byte #1
0092c     78 A0 05 F1 | 	add	objptr, #120
00930     D0 00 68 FC | 	wrlong	#0, objptr
00934     1C A0 05 F1 | 	add	objptr, #28
00938     D0 C0 01 F6 | 	mov	arg01, objptr
0093c     A8 A0 85 F1 | 	sub	objptr, #168
00940     06 00 00 FF 
00944     40 A6 05 F1 | 	add	ptr__hng026r_dat__, ##3136
00948     D3 C2 01 F6 | 	mov	arg02, ptr__hng026r_dat__
0094c     06 00 00 FF 
00950     40 A6 85 F1 | 	sub	ptr__hng026r_dat__, ##3136
00954                 | ' bytemove(@colors,@vgacolors,16)
00954     10 C4 05 F6 | 	mov	arg03, #16
00958     6C 11 B0 FD | 	call	#__system____builtin_memmove
0095c                 | ' 
0095c                 | ' ' initialize a cursor
0095c                 | ' 
0095c                 | ' cursor_x:=0
0095c     28 A0 05 F1 | 	add	objptr, #40
00960     D0 00 48 FC | 	wrbyte	#0, objptr
00964                 | ' cursor_y:=0
00964     01 A0 05 F1 | 	add	objptr, #1
00968     D0 00 48 FC | 	wrbyte	#0, objptr
0096c                 | ' cursor_sh:=14
0096c     01 A0 05 F1 | 	add	objptr, #1
00970     D0 1C 48 FC | 	wrbyte	#14, objptr
00974     2A A0 85 F1 | 	sub	objptr, #42
00978                 | ' 
00978                 | ' 
00978                 | ' ' start the cog
00978                 | ' 
00978                 | ' cog:=coginit(16,@hdmi, @buf_ptr)
00978     06 00 00 FF 
0097c     50 A6 05 F1 | 	add	ptr__hng026r_dat__, ##3152
00980     D3 C2 01 F6 | 	mov	arg02, ptr__hng026r_dat__
00984     06 00 00 FF 
00988     50 A6 85 F1 | 	sub	ptr__hng026r_dat__, ##3152
0098c     D0 C4 01 F6 | 	mov	arg03, objptr
00990     10 C0 05 F6 | 	mov	arg01, #16
00994     28 C4 61 FD | 	setq	arg03
00998     E1 C0 F1 FC | 	coginit	arg01, arg02 wc
0099c     01 C0 65 C6 |  if_b	neg	arg01, #1
009a0     E0 AA 01 F6 | 	mov	result1, arg01
009a4     D5 E8 01 F6 | 	mov	local16, result1
009a8     1C A0 05 F1 | 	add	objptr, #28
009ac     D0 E8 61 FC | 	wrlong	local16, objptr
009b0     1C A0 85 F1 | 	sub	objptr, #28
009b4                 | ' waitms(20)
009b4     14 C0 05 F6 | 	mov	arg01, #20
009b8     2C 12 B0 FD | 	call	#__system___waitms
009bc                 | ' 
009bc                 | ' ' clear the screen and set the colors to green on black
009bc                 | ' 
009bc                 | ' return cog
009bc                 | ' v.cls(154,147)
009bc                 | ' 
009bc                 | ' c:=bc
009bc     24 A0 05 F1 | 	add	objptr, #36
009c0     D0 C4 01 FB | 	rdlong	arg03, objptr
009c4     24 A0 85 F1 | 	sub	objptr, #36
009c8     02 C4 65 F0 | 	shl	arg03, #2
009cc                 | ' bytefill(buf_ptr,c,buflen*4)
009cc     D0 C0 01 FB | 	rdlong	arg01, objptr
009d0     93 C2 05 F6 | 	mov	arg02, #147
009d4     44 F6 9F FE | 	loc	pa,	#(@LR__0006-@LR__0005)
009d8     93 00 A0 FD | 	call	#FCACHE_LOAD_
009dc                 | LR__0005
009dc     03 C4 5D F2 | 	cmps	arg03, #3 wcz
009e0     14 00 90 ED |  if_be	jmp	#LR__0007
009e4     C9 C9 C9 FF 
009e8     E0 26 6B FC | 	wrlong	##-1819044973, arg01
009ec     04 C0 05 F1 | 	add	arg01, #4
009f0     04 C4 85 F1 | 	sub	arg03, #4
009f4     E4 FF 9F FD | 	jmp	#LR__0005
009f8                 | LR__0006
009f8                 | LR__0007
009f8     00 C4 0D F2 | 	cmp	arg03, #0 wz
009fc     14 00 90 AD |  if_e	jmp	#LR__0012
00a00     08 F6 9F FE | 	loc	pa,	#(@LR__0010-@LR__0008)
00a04     93 00 A0 FD | 	call	#FCACHE_LOAD_
00a08                 | LR__0008
00a08     E2 04 D8 FC | 	rep	@LR__0011, arg03
00a0c                 | LR__0009
00a0c     E0 C2 41 FC | 	wrbyte	arg02, arg01
00a10     01 C0 05 F1 | 	add	arg01, #1
00a14                 | LR__0010
00a14                 | LR__0011
00a14                 | LR__0012
00a14                 | ' 
00a14                 | ' cursor_x:=0
00a14     28 A0 05 F1 | 	add	objptr, #40
00a18     D0 00 48 FC | 	wrbyte	#0, objptr
00a1c                 | ' cursor_y:=0
00a1c     01 A0 05 F1 | 	add	objptr, #1
00a20     D0 00 48 FC | 	wrbyte	#0, objptr
00a24     29 A0 85 F1 | 	sub	objptr, #41
00a28     93 AA 05 F6 | 	mov	result1, #147
00a2c                 | ' 'v.setfontfamily(4)
00a2c                 | ' v.waitvbl(100)
00a2c     64 C0 05 F6 | 	mov	arg01, #100
00a30     B0 0E B0 FD | 	call	#_hng026r_waitvbl
00a34                 | ' v.outtextxycg(8,0,string("Starting RPi 0"),154,147)
00a34     0E 00 00 FF 
00a38     A8 C4 05 F6 | 	mov	arg03, ##@LR__0105
00a3c     08 C0 05 F6 | 	mov	arg01, #8
00a40     00 C2 05 F6 | 	mov	arg02, #0
00a44     9A C6 05 F6 | 	mov	arg04, #154
00a48     93 C8 05 F6 | 	mov	arg05, #147
00a4c     60 0D B0 FD | 	call	#_hng026r_outtextxycg
00a50                 | ' pinh(pipower)
00a50     59 1E 64 FD | 	drvh	#15
00a54                 | ' v.outtextxycg(8,16,string("Starting RPi 1"),154,147)
00a54     0E 00 00 FF 
00a58     B7 C4 05 F6 | 	mov	arg03, ##@LR__0106
00a5c     08 C0 05 F6 | 	mov	arg01, #8
00a60     10 C2 05 F6 | 	mov	arg02, #16
00a64     9A C6 05 F6 | 	mov	arg04, #154
00a68     93 C8 05 F6 | 	mov	arg05, #147
00a6c     40 0D B0 FD | 	call	#_hng026r_outtextxycg
00a70     01 00 00 FF 
00a74     64 A1 85 F1 | 	sub	objptr, ##868
00a78                 | ' 
00a78                 | ' 
00a78                 | ' pinstart(24+6,P_PWM_SAWTOOTH |P_OE |P_INVERT_OUTPUT,$ffFF_0001,100)
00a78     40 3C 64 FD | 	dirl	#30
00a7c     20 00 80 FF 
00a80     1E A4 0C FC | 	wrpin	##16466, #30
00a84     80 FF FF FF 
00a88     1E 02 1C FC | 	wxpin	##-65535, #30
00a8c     1E C8 2C FC | 	wypin	#100, #30
00a90     41 3C 64 FD | 	dirh	#30
00a94                 | ' pinstart(34,P_INVERT_IN |p_count_rises,$2b7cd0*10,0)
00a94     70 D9 00 FF 
00a98     20 C4 05 F6 | 	mov	arg03, ##28500000
00a9c     00 C6 05 F6 | 	mov	arg04, #0
00aa0     40 44 64 FD | 	dirl	#34
00aa4     40 00 80 FF 
00aa8     22 38 0C FC | 	wrpin	##32796, #34
00aac     70 D9 80 FF 
00ab0     22 40 1C FC | 	wxpin	##28500000, #34
00ab4     22 00 2C FC | 	wypin	#0, #34
00ab8     41 44 64 FD | 	dirh	#34
00abc                 | ' 
00abc                 | ' pinh(25+6)
00abc     59 3E 64 FD | 	drvh	#31
00ac0                 | ' pinh(26+6 addpins 1)
00ac0     59 C0 64 FD | 	drvh	#96
00ac4                 | ' 
00ac4                 | ' ' 1068 - start
00ac4                 | ' 
00ac4                 | ' repeat
00ac4                 | LR__0013
00ac4                 | '   repeat i11 from $1068 to $F000
00ac4     08 00 00 FF 
00ac8     68 EA 05 F6 | 	mov	local17, ##4200
00acc                 | LR__0014
00acc                 | '     wypin(24+6,i11)
00acc     F5 C2 01 F6 | 	mov	arg02, local17
00ad0     1E C2 25 FC | 	wypin	arg02, #30
00ad4                 | '     c:=rdpin(34)
00ad4     00 AA 05 F6 | 	mov	result1, #0
00ad8     22 AA 8D FA | 	rdpin	result1, #34
00adc     D5 C0 01 F6 | 	mov	arg01, result1
00ae0                 | '     v.outtextxycg(8,32,v.inttostr(c),154,147)
00ae0     08 EC 05 F6 | 	mov	local18, #8
00ae4     20 EE 05 F6 | 	mov	local19, #32
00ae8     01 00 00 FF 
00aec     64 A1 05 F1 | 	add	objptr, ##868
00af0     64 0E B0 FD | 	call	#_hng026r_inttostr
00af4     D5 C4 01 F6 | 	mov	arg03, result1
00af8     F6 C0 01 F6 | 	mov	arg01, local18
00afc     F7 C2 01 F6 | 	mov	arg02, local19
00b00     9A C6 05 F6 | 	mov	arg04, #154
00b04     93 C8 05 F6 | 	mov	arg05, #147
00b08     A4 0C B0 FD | 	call	#_hng026r_outtextxycg
00b0c     01 00 00 FF 
00b10     64 A1 85 F1 | 	sub	objptr, ##868
00b14                 | '     waitus(10)
00b14     0A C0 05 F6 | 	mov	arg01, #10
00b18     2C 11 B0 FD | 	call	#__system___waitus
00b1c     01 EA 05 F1 | 	add	local17, #1
00b20     78 00 00 FF 
00b24     01 EA 5D F2 | 	cmps	local17, ##61441 wcz
00b28     A0 FF 9F CD |  if_b	jmp	#LR__0014
00b2c                 | '   waitms(1000)   
00b2c     01 00 00 FF 
00b30     E8 C1 05 F6 | 	mov	arg01, ##1000
00b34     B0 10 B0 FD | 	call	#__system___waitms
00b38                 | '   repeat i11 from $F000 to $1068 
00b38     78 00 00 FF 
00b3c     00 EA 05 F6 | 	mov	local17, ##61440
00b40                 | LR__0015
00b40                 | '     wypin(24+6,i11)
00b40     F5 C2 01 F6 | 	mov	arg02, local17
00b44     1E C2 25 FC | 	wypin	arg02, #30
00b48                 | '     waitus(10)
00b48     0A C0 05 F6 | 	mov	arg01, #10
00b4c     F8 10 B0 FD | 	call	#__system___waitus
00b50     01 EA 85 F1 | 	sub	local17, #1
00b54     08 00 00 FF 
00b58     68 EA 5D F2 | 	cmps	local17, ##4200 wcz
00b5c     E0 FF 9F 3D |  if_ae	jmp	#LR__0015
00b60                 | '   
00b60                 | '   pinl(25+6)
00b60     58 3E 64 FD | 	drvl	#31
00b64                 | '   repeat i11 from  $1068 to $F000
00b64     08 00 00 FF 
00b68     68 EA 05 F6 | 	mov	local17, ##4200
00b6c                 | LR__0016
00b6c                 | '     wypin(24+6,i11)
00b6c     F5 C2 01 F6 | 	mov	arg02, local17
00b70     1E C2 25 FC | 	wypin	arg02, #30
00b74                 | '     waitus(10)
00b74     0A C0 05 F6 | 	mov	arg01, #10
00b78     CC 10 B0 FD | 	call	#__system___waitus
00b7c     01 EA 05 F1 | 	add	local17, #1
00b80     78 00 00 FF 
00b84     01 EA 5D F2 | 	cmps	local17, ##61441 wcz
00b88     E0 FF 9F CD |  if_b	jmp	#LR__0016
00b8c                 | '   waitms(1000)   
00b8c     01 00 00 FF 
00b90     E8 C1 05 F6 | 	mov	arg01, ##1000
00b94     50 10 B0 FD | 	call	#__system___waitms
00b98                 | '   repeat i11 from $F000 to $1068 
00b98     78 00 00 FF 
00b9c     00 EA 05 F6 | 	mov	local17, ##61440
00ba0                 | LR__0017
00ba0                 | '     wypin(24+6,i11)
00ba0     F5 C2 01 F6 | 	mov	arg02, local17
00ba4     1E C2 25 FC | 	wypin	arg02, #30
00ba8                 | '     waitus(10)
00ba8     0A C0 05 F6 | 	mov	arg01, #10
00bac     98 10 B0 FD | 	call	#__system___waitus
00bb0     01 EA 85 F1 | 	sub	local17, #1
00bb4     08 00 00 FF 
00bb8     68 EA 5D F2 | 	cmps	local17, ##4200 wcz
00bbc     E0 FF 9F 3D |  if_ae	jmp	#LR__0017
00bc0                 | '    
00bc0                 | '   pinh(25+6)
00bc0     59 3E 64 FD | 	drvh	#31
00bc4     FC FE 9F FD | 	jmp	#LR__0013
00bc8                 | ' 
00bc8                 | ' waitms(4000)
00bc8                 | ' pinl(26 addpins 1)
00bc8                 | ' 
00bc8                 | ' pinstart(24,P_PWM_SAWTOOTH |P_OE |P_INVERT_OUTPUT,$ffFF_0001,100)
00bc8                 | ' 
00bc8                 | ' 
00bc8                 | ' pinh(25)
00bc8                 | ' pinh(26 addpins 1)
00bc8                 | ' 
00bc8                 | ' ' 1068 - start
00bc8                 | ' 
00bc8                 | ' repeat
00bc8                 | LR__0018
00bc8                 | '   repeat i11 from $1068 to $F000
00bc8     08 00 00 FF 
00bcc     68 EA 05 F6 | 	mov	local17, ##4200
00bd0                 | LR__0019
00bd0                 | '     wypin(24,i11)
00bd0     F5 C2 01 F6 | 	mov	arg02, local17
00bd4     18 C2 25 FC | 	wypin	arg02, #24
00bd8                 | '     waitus(10)
00bd8     0A C0 05 F6 | 	mov	arg01, #10
00bdc     68 10 B0 FD | 	call	#__system___waitus
00be0     01 EA 05 F1 | 	add	local17, #1
00be4     78 00 00 FF 
00be8     01 EA 5D F2 | 	cmps	local17, ##61441 wcz
00bec     E0 FF 9F CD |  if_b	jmp	#LR__0019
00bf0                 | '   waitms(1000)   
00bf0     01 00 00 FF 
00bf4     E8 C1 05 F6 | 	mov	arg01, ##1000
00bf8     EC 0F B0 FD | 	call	#__system___waitms
00bfc                 | '   repeat i11 from $F000 to $1068 
00bfc     78 00 00 FF 
00c00     00 EA 05 F6 | 	mov	local17, ##61440
00c04                 | LR__0020
00c04                 | '     wypin(24,i11)
00c04     F5 C2 01 F6 | 	mov	arg02, local17
00c08     18 C2 25 FC | 	wypin	arg02, #24
00c0c                 | '     waitus(10)
00c0c     0A C0 05 F6 | 	mov	arg01, #10
00c10     34 10 B0 FD | 	call	#__system___waitus
00c14     01 EA 85 F1 | 	sub	local17, #1
00c18     08 00 00 FF 
00c1c     68 EA 5D F2 | 	cmps	local17, ##4200 wcz
00c20     E0 FF 9F 3D |  if_ae	jmp	#LR__0020
00c24                 | '   
00c24                 | '   pinl(25)
00c24     58 32 64 FD | 	drvl	#25
00c28                 | '   repeat i11 from  $1068 to $F000
00c28     08 00 00 FF 
00c2c     68 EA 05 F6 | 	mov	local17, ##4200
00c30                 | LR__0021
00c30                 | '     wypin(24,i11)
00c30     F5 C2 01 F6 | 	mov	arg02, local17
00c34     18 C2 25 FC | 	wypin	arg02, #24
00c38                 | '     waitus(10)
00c38     0A C0 05 F6 | 	mov	arg01, #10
00c3c     08 10 B0 FD | 	call	#__system___waitus
00c40     01 EA 05 F1 | 	add	local17, #1
00c44     78 00 00 FF 
00c48     01 EA 5D F2 | 	cmps	local17, ##61441 wcz
00c4c     E0 FF 9F CD |  if_b	jmp	#LR__0021
00c50                 | '   waitms(1000)   
00c50     01 00 00 FF 
00c54     E8 C1 05 F6 | 	mov	arg01, ##1000
00c58     8C 0F B0 FD | 	call	#__system___waitms
00c5c                 | '   repeat i11 from $F000 to $1068 
00c5c     78 00 00 FF 
00c60     00 EA 05 F6 | 	mov	local17, ##61440
00c64                 | LR__0022
00c64                 | '     wypin(24,i11)
00c64     F5 C2 01 F6 | 	mov	arg02, local17
00c68     18 C2 25 FC | 	wypin	arg02, #24
00c6c                 | '     waitus(10)
00c6c     0A C0 05 F6 | 	mov	arg01, #10
00c70     D4 0F B0 FD | 	call	#__system___waitus
00c74     01 EA 85 F1 | 	sub	local17, #1
00c78     08 00 00 FF 
00c7c     68 EA 5D F2 | 	cmps	local17, ##4200 wcz
00c80     E0 FF 9F 3D |  if_ae	jmp	#LR__0022
00c84                 | '    
00c84                 | '   pinh(25)
00c84     59 32 64 FD | 	drvh	#25
00c88     3C FF 9F FD | 	jmp	#LR__0018
00c8c                 | ' 
00c8c                 | ' waitms(4000)
00c8c                 | ' pinl(26 addpins 1)
00c8c                 | ' pinh(pipower2)
00c8c                 | ' adc.start(adcpin)
00c8c                 | ' 
00c8c                 | ' 'dacinit()
00c8c                 | ' 'dacset($8000,$8000)
00c8c                 | ' cogspin(16,display_lidar(),@lidarstack)
00c8c                 | ' voltage:=24000
00c8c                 | ' frames:=0
00c8c                 | '  
00c8c                 | ' pinstart (48 addpins 7, P_INVERT_IN | P_COUNT_HIGHS,0,0)
00c8c                 | ' sensor:=0 
00c8c                 | ' repeat
00c8c                 | LR__0023
00c8c                 | '   v.waitvbl(1)
00c8c     01 C0 05 F6 | 	mov	arg01, #1
00c90     01 00 00 FF 
00c94     64 A1 05 F1 | 	add	objptr, ##868
00c98     48 0C B0 FD | 	call	#_hng026r_waitvbl
00c9c                 | '   '596.491 nm/clk
00c9c                 | '   frames+=1
00c9c     08 A0 85 F1 | 	sub	objptr, #8
00ca0     D0 EC 01 FB | 	rdlong	local18, objptr
00ca4     01 EC 05 F1 | 	add	local18, #1
00ca8     D0 EC 61 FC | 	wrlong	local18, objptr
00cac                 | '   
00cac                 | '   frames:=frames+//64 
00cac     3F EC 05 F5 | 	and	local18, #63
00cb0     D0 EC 61 FC | 	wrlong	local18, objptr
00cb4                 | '       
00cb4                 | '   if (frames+//4)==0
00cb4     01 00 00 FF 
00cb8     5C A1 85 F1 | 	sub	objptr, ##860
00cbc     03 EC CD F7 | 	test	local18, #3 wz
00cc0     2C 01 90 5D |  if_ne	jmp	#LR__0024
00cc4                 | '     sensor+=5
00cc4     01 00 00 FF 
00cc8     60 A1 05 F1 | 	add	objptr, ##864
00ccc     D0 EE 01 FB | 	rdlong	local19, objptr
00cd0     05 EE 05 F1 | 	add	local19, #5
00cd4     D0 EE 61 FC | 	wrlong	local19, objptr
00cd8                 | '     sensor:=sensor +// 8
00cd8     07 EE 05 F5 | 	and	local19, #7
00cdc     D0 EE 61 FC | 	wrlong	local19, objptr
00ce0     30 C0 05 F6 | 	mov	arg01, #48
00ce4     01 00 00 FF 
00ce8     60 A1 85 F1 | 	sub	objptr, ##864
00cec     F7 C0 01 F1 | 	add	arg01, local19
00cf0                 | '     c:=rdpin(48+sensor)+/1676
00cf0     00 AA 05 F6 | 	mov	result1, #0
00cf4     E0 AA 89 FA | 	rdpin	result1, arg01
00cf8     D5 04 02 F6 | 	mov	muldiva_, result1
00cfc     03 00 00 FF 
00d00     8C 06 06 F6 | 	mov	muldivb_, ##1676
00d04     BF 00 A0 FD | 	call	#unsdivide_
00d08     03 F1 01 F6 | 	mov	local20, muldivb_
00d0c     01 00 00 FF 
00d10     60 A1 05 F1 | 	add	objptr, ##864
00d14     D0 F2 01 FB | 	rdlong	local21, objptr
00d18     04 F2 65 F0 | 	shl	local21, #4
00d1c     C8 C2 05 F6 | 	mov	arg02, #200
00d20     F9 C2 01 F1 | 	add	arg02, local21
00d24                 | '     v.outtextxycg(8,200+16*sensor,string("     "),154,147)
00d24     0E 00 00 FF 
00d28     C6 C4 05 F6 | 	mov	arg03, ##@LR__0107
00d2c     08 C0 05 F6 | 	mov	arg01, #8
00d30     9A C6 05 F6 | 	mov	arg04, #154
00d34     93 C8 05 F6 | 	mov	arg05, #147
00d38     04 A0 05 F1 | 	add	objptr, #4
00d3c     70 0A B0 FD | 	call	#_hng026r_outtextxycg
00d40     04 A0 85 F1 | 	sub	objptr, #4
00d44     D0 F4 01 FB | 	rdlong	local22, objptr
00d48     04 F4 65 F0 | 	shl	local22, #4
00d4c     C8 EE 05 F6 | 	mov	local19, #200
00d50     FA EE 01 F1 | 	add	local19, local22
00d54                 | '     v.outtextxycg(8,200+16*sensor,v.inttostr(c),154,147)    
00d54     08 EC 05 F6 | 	mov	local18, #8
00d58     F8 C0 01 F6 | 	mov	arg01, local20
00d5c     04 A0 05 F1 | 	add	objptr, #4
00d60     F4 0B B0 FD | 	call	#_hng026r_inttostr
00d64     D5 C4 01 F6 | 	mov	arg03, result1
00d68     F6 C0 01 F6 | 	mov	arg01, local18
00d6c     F7 C2 01 F6 | 	mov	arg02, local19
00d70     9A C6 05 F6 | 	mov	arg04, #154
00d74     93 C8 05 F6 | 	mov	arg05, #147
00d78     34 0A B0 FD | 	call	#_hng026r_outtextxycg
00d7c     30 C0 05 F6 | 	mov	arg01, #48
00d80     04 A0 85 F1 | 	sub	objptr, #4
00d84     D0 EE 01 FB | 	rdlong	local19, objptr
00d88     F7 C0 01 F1 | 	add	arg01, local19
00d8c                 | '     pinclear(48+sensor) 
00d8c     50 C0 61 FD | 	fltl	arg01
00d90     E0 00 08 FC | 	wrpin	#0, arg01
00d94     28 C0 05 F6 | 	mov	arg01, #40
00d98     01 00 00 FF 
00d9c     60 A1 85 F1 | 	sub	objptr, ##864
00da0     F7 C0 01 F1 | 	add	arg01, local19
00da4                 | '     pinl(40+sensor)
00da4     58 C0 61 FD | 	drvl	arg01
00da8                 | '     waitus(40)
00da8     28 C0 05 F6 | 	mov	arg01, #40
00dac     98 0E B0 FD | 	call	#__system___waitus
00db0     28 C0 05 F6 | 	mov	arg01, #40
00db4     01 00 00 FF 
00db8     60 A1 05 F1 | 	add	objptr, ##864
00dbc     D0 EE 01 FB | 	rdlong	local19, objptr
00dc0     F7 C0 01 F1 | 	add	arg01, local19
00dc4                 | '     pinh(40+sensor)
00dc4     59 C0 61 FD | 	drvh	arg01
00dc8     30 C0 05 F6 | 	mov	arg01, #48
00dcc     01 00 00 FF 
00dd0     60 A1 85 F1 | 	sub	objptr, ##864
00dd4     F7 C0 01 F1 | 	add	arg01, local19
00dd8                 | '     pinstart(48+sensor, P_INVERT_IN  | P_COUNT_HIGHS,0,0)
00dd8     40 C0 61 FD | 	dirl	arg01
00ddc     40 00 80 FF 
00de0     E0 3C 08 FC | 	wrpin	##32798, arg01
00de4     E0 00 18 FC | 	wxpin	#0, arg01
00de8     E0 00 28 FC | 	wypin	#0, arg01
00dec     41 C0 61 FD | 	dirh	arg01
00df0                 | LR__0024
00df0     01 00 00 FF 
00df4     58 A1 05 F1 | 	add	objptr, ##856
00df8     D0 EE 01 FB | 	rdlong	local19, objptr
00dfc     F7 EC 01 F6 | 	mov	local18, local19
00e00     05 EC 65 F0 | 	shl	local18, #5
00e04     F7 EC 81 F1 | 	sub	local18, local19
00e08                 | '   
00e08                 | '   
00e08                 | '   voltage:=(31*voltage+adc.measure())>>5
00e08     D8 A0 05 F1 | 	add	objptr, #216
00e0c     D0 F6 01 FB | 	rdlong	local23, objptr
00e10     08 A0 05 F1 | 	add	objptr, #8
00e14     D0 F8 01 FB | 	rdlong	local24, objptr
00e18     FC F6 81 F1 | 	sub	local23, local24
00e1c     40 00 00 FF 
00e20     E8 F6 05 FD | 	qmul	local23, ##33000
00e24     18 04 62 FD | 	getqx	muldiva_
00e28     04 A0 05 F1 | 	add	objptr, #4
00e2c     D0 06 02 FB | 	rdlong	muldivb_, objptr
00e30     04 A0 85 F1 | 	sub	objptr, #4
00e34     D0 FA 01 FB | 	rdlong	local25, objptr
00e38     08 A0 85 F1 | 	sub	objptr, #8
00e3c     FD 06 82 F1 | 	sub	muldivb_, local25
00e40     C3 00 A0 FD | 	call	#divide_
00e44                 | ' 
00e44                 | ' 
00e44                 | ' return 33000*(aresult-agnd)/(avcc-agnd)
00e44     03 AB 01 F6 | 	mov	result1, muldivb_
00e48     03 ED 01 F1 | 	add	local18, muldivb_
00e4c     05 EC 45 F0 | 	shr	local18, #5
00e50     D8 A0 85 F1 | 	sub	objptr, #216
00e54     D0 EC 61 FC | 	wrlong	local18, objptr
00e58                 | '   c:=120
00e58     78 F0 05 F6 | 	mov	local20, #120
00e5c                 | '   if voltage<22200
00e5c     2B 00 00 FF 
00e60     B8 EC 5D F2 | 	cmps	local18, ##22200 wcz
00e64                 | '     c:=200
00e64     C8 F0 05 C6 |  if_b	mov	local20, #200
00e68                 | '   if voltage<20000
00e68     D0 EC 01 FB | 	rdlong	local18, objptr
00e6c     27 00 00 FF 
00e70     20 EC 5D F2 | 	cmps	local18, ##20000 wcz
00e74                 | '     c:=252
00e74     FC F0 05 C6 |  if_b	mov	local20, #252
00e78                 | '   if voltage<19000
00e78     D0 EC 01 FB | 	rdlong	local18, objptr
00e7c     25 00 00 FF 
00e80     38 EC 5D F2 | 	cmps	local18, ##19000 wcz
00e84                 | '     c:=40
00e84     28 F0 05 C6 |  if_b	mov	local20, #40
00e88                 | '     
00e88                 | '   v.outtextxycg(8+0,32,string("Voltage: "),c,147)
00e88     0E 00 00 FF 
00e8c     CC C4 05 F6 | 	mov	arg03, ##@LR__0108
00e90     08 C0 05 F6 | 	mov	arg01, #8
00e94     20 C2 05 F6 | 	mov	arg02, #32
00e98     F8 C6 01 F6 | 	mov	arg04, local20
00e9c     93 C8 05 F6 | 	mov	arg05, #147
00ea0     0C A0 05 F1 | 	add	objptr, #12
00ea4     08 09 B0 FD | 	call	#_hng026r_outtextxycg
00ea8     0C A0 85 F1 | 	sub	objptr, #12
00eac     D0 04 02 FB | 	rdlong	muldiva_, objptr
00eb0     01 00 00 FF 
00eb4     58 A1 85 F1 | 	sub	objptr, ##856
00eb8     01 00 00 FF 
00ebc     E8 07 06 F6 | 	mov	muldivb_, ##1000
00ec0     BF 00 A0 FD | 	call	#unsdivide_
00ec4                 | '   v.outtextxycg(8+72,32,v.inttostr(voltage+/1000),c,147)
00ec4     50 EC 05 F6 | 	mov	local18, #80
00ec8     20 EE 05 F6 | 	mov	local19, #32
00ecc     03 C1 01 F6 | 	mov	arg01, muldivb_
00ed0     01 00 00 FF 
00ed4     64 A1 05 F1 | 	add	objptr, ##868
00ed8     7C 0A B0 FD | 	call	#_hng026r_inttostr
00edc     D5 C4 01 F6 | 	mov	arg03, result1
00ee0     F6 C0 01 F6 | 	mov	arg01, local18
00ee4     F7 C2 01 F6 | 	mov	arg02, local19
00ee8     F8 C6 01 F6 | 	mov	arg04, local20
00eec     93 C8 05 F6 | 	mov	arg05, #147
00ef0     BC 08 B0 FD | 	call	#_hng026r_outtextxycg
00ef4                 | '   v.outtextxycg(8+88,32,string("."),c,147)  
00ef4     0E 00 00 FF 
00ef8     D6 C4 05 F6 | 	mov	arg03, ##@LR__0109
00efc     60 C0 05 F6 | 	mov	arg01, #96
00f00     20 C2 05 F6 | 	mov	arg02, #32
00f04     F8 C6 01 F6 | 	mov	arg04, local20
00f08     93 C8 05 F6 | 	mov	arg05, #147
00f0c     A0 08 B0 FD | 	call	#_hng026r_outtextxycg
00f10     0C A0 85 F1 | 	sub	objptr, #12
00f14     D0 04 02 FB | 	rdlong	muldiva_, objptr
00f18     01 00 00 FF 
00f1c     58 A1 85 F1 | 	sub	objptr, ##856
00f20     01 00 00 FF 
00f24     E8 07 06 F6 | 	mov	muldivb_, ##1000
00f28     BF 00 A0 FD | 	call	#unsdivide_
00f2c                 | '   v.outtextxycg(8+96,32,v.inttostr(voltage+//1000),c,147)
00f2c     68 EC 05 F6 | 	mov	local18, #104
00f30     20 EE 05 F6 | 	mov	local19, #32
00f34     02 C1 01 F6 | 	mov	arg01, muldiva_
00f38     01 00 00 FF 
00f3c     64 A1 05 F1 | 	add	objptr, ##868
00f40     14 0A B0 FD | 	call	#_hng026r_inttostr
00f44     D5 C4 01 F6 | 	mov	arg03, result1
00f48     F6 C0 01 F6 | 	mov	arg01, local18
00f4c     F7 C2 01 F6 | 	mov	arg02, local19
00f50     F8 C6 01 F6 | 	mov	arg04, local20
00f54     93 C8 05 F6 | 	mov	arg05, #147
00f58     54 08 B0 FD | 	call	#_hng026r_outtextxycg
00f5c                 | '   v.outtextxycg(8+128,32,string("V"),c,147)
00f5c     0E 00 00 FF 
00f60     D8 C4 05 F6 | 	mov	arg03, ##@LR__0110
00f64     88 C0 05 F6 | 	mov	arg01, #136
00f68     20 C2 05 F6 | 	mov	arg02, #32
00f6c     F8 C6 01 F6 | 	mov	arg04, local20
00f70     93 C8 05 F6 | 	mov	arg05, #147
00f74     38 08 B0 FD | 	call	#_hng026r_outtextxycg
00f78                 | '   v.outtextxycg(8+128,32,string("V"),c,147)
00f78     0E 00 00 FF 
00f7c     DA C4 05 F6 | 	mov	arg03, ##@LR__0111
00f80     88 C0 05 F6 | 	mov	arg01, #136
00f84     20 C2 05 F6 | 	mov	arg02, #32
00f88     F8 C6 01 F6 | 	mov	arg04, local20
00f8c     93 C8 05 F6 | 	mov	arg05, #147
00f90     1C 08 B0 FD | 	call	#_hng026r_outtextxycg
00f94                 | '   
00f94                 | '   v.outtextxycg(8,48,string("SBUS:"),154,147)
00f94     0E 00 00 FF 
00f98     DC C4 05 F6 | 	mov	arg03, ##@LR__0112
00f9c     08 C0 05 F6 | 	mov	arg01, #8
00fa0     30 C2 05 F6 | 	mov	arg02, #48
00fa4     9A C6 05 F6 | 	mov	arg04, #154
00fa8     93 C8 05 F6 | 	mov	arg05, #147
00fac     00 08 B0 FD | 	call	#_hng026r_outtextxycg
00fb0     01 00 00 FF 
00fb4     64 A1 85 F1 | 	sub	objptr, ##868
00fb8                 | '   
00fb8                 | ' 
00fb8                 | '   if (receive_sbus(SBUS_RX, @frame))                          ' get s.bus frame
00fb8     D0 C2 01 F6 | 	mov	arg02, objptr
00fbc     10 C0 05 F6 | 	mov	arg01, #16
00fc0     A4 02 B0 FD | 	call	#_receive_sbus
00fc4     00 AA 0D F2 | 	cmp	result1, #0 wz
00fc8     C0 FC 9F AD |  if_e	jmp	#LR__0023
00fcc                 | '     pintoggle(56)
00fcc     5F 70 64 FD | 	drvnot	#56
00fd0     D0 C0 01 F6 | 	mov	arg01, objptr
00fd4     1C A0 05 F1 | 	add	objptr, #28
00fd8     D0 C2 01 F6 | 	mov	arg02, objptr
00fdc     1C A0 85 F1 | 	sub	objptr, #28
00fe0                 | '     decode_sbus(@frame, @channel)                             ' convert to channel values
00fe0     30 04 B0 FD | 	call	#_decode_sbus
00fe4                 | '     repeat i11 from 0 to 15      
00fe4     00 EA 05 F6 | 	mov	local17, #0
00fe8                 | LR__0025
00fe8     F5 FC 01 F6 | 	mov	local26, local17
00fec     01 FC 65 F0 | 	shl	local26, #1
00ff0     1C A0 05 F1 | 	add	objptr, #28
00ff4     D0 FC 01 F1 | 	add	local26, objptr
00ff8     FE 04 E2 FA | 	rdword	muldiva_, local26
00ffc     01 00 00 FF 
01000     E8 07 06 F6 | 	mov	muldivb_, ##1000
01004     1C A0 85 F1 | 	sub	objptr, #28
01008     C3 00 A0 FD | 	call	#divide_
0100c     03 FF 01 F6 | 	mov	local27, muldivb_
01010     03 FE 65 F0 | 	shl	local27, #3
01014                 | '       d:=(8*(channel[i11]/1000))
01014     10 00 06 F6 | 	mov	local28, #16
01018     FF 00 82 F1 | 	sub	local28, local27
0101c     F5 EC 51 F6 | 	abs	local18, local17 wc
01020     03 EC 05 F5 | 	and	local18, #3
01024     F6 EC 61 C6 |  if_b	neg	local18, local18
01028     06 EC 65 F0 | 	shl	local18, #6
0102c     F6 00 02 F1 | 	add	local28, local18
01030     F5 EC 51 F6 | 	abs	local18, local17 wc
01034     02 EC 45 F0 | 	shr	local18, #2
01038     F6 EC 61 C6 |  if_b	neg	local18, local18
0103c     04 EC 65 F0 | 	shl	local18, #4
01040     40 EC 05 F1 | 	add	local18, #64
01044     F6 EE 01 F6 | 	mov	local19, local18
01048     F5 02 02 F6 | 	mov	local29, local17
0104c     01 02 66 F0 | 	shl	local29, #1
01050     1C A0 05 F1 | 	add	objptr, #28
01054     D0 02 02 F1 | 	add	local29, objptr
01058                 | '       v.outtextxycg(16-d+(i11//4)<<6,16*(i11/4)+64,v.inttostr(channel[i11]),154,147)
01058     00 ED 01 F6 | 	mov	local18, local28
0105c     01 C1 E1 FA | 	rdword	arg01, local29
01060     01 00 00 FF 
01064     48 A1 05 F1 | 	add	objptr, ##840
01068     EC 08 B0 FD | 	call	#_hng026r_inttostr
0106c     D5 C4 01 F6 | 	mov	arg03, result1
01070     F6 C0 01 F6 | 	mov	arg01, local18
01074     F7 C2 01 F6 | 	mov	arg02, local19
01078     9A C6 05 F6 | 	mov	arg04, #154
0107c     93 C8 05 F6 | 	mov	arg05, #147
01080     2C 07 B0 FD | 	call	#_hng026r_outtextxycg
01084     01 00 00 FF 
01088     64 A1 85 F1 | 	sub	objptr, ##868
0108c     01 EA 05 F1 | 	add	local17, #1
01090     10 EA 5D F2 | 	cmps	local17, #16 wcz
01094     50 FF 9F CD |  if_b	jmp	#LR__0025
01098     F0 FB 9F FD | 	jmp	#LR__0023
0109c     A2 F0 03 F6 | 	mov	ptra, fp
010a0     B2 00 A0 FD | 	call	#popregs_
010a4                 | _main_ret
010a4     2D 00 64 FD | 	ret
010a8                 | 
010a8                 | ' {{    
010a8                 | '   }}
010a8                 | ' pub display_lidar()  | xxx,yyy,rr
010a8                 | _display_lidar
010a8     0D 40 05 F6 | 	mov	COUNT_, #13
010ac     A3 00 A0 FD | 	call	#pushregs_
010b0                 | ' 
010b0                 | ' serial_start(rxpin, txpin, baudrate)
010b0     0E C0 05 F6 | 	mov	arg01, #14
010b4     0C C2 05 F6 | 	mov	arg02, #12
010b8     84 1E 00 FF 
010bc     00 C5 05 F6 | 	mov	arg03, ##4000000
010c0     D4 04 B0 FD | 	call	#_serial_start
010c4                 | ' rxflush()
010c4                 | ' 
010c4                 | ' '' Clear serial input
010c4                 | ' 
010c4                 | '   repeat
010c4                 | LR__0026
010c4     58 05 B0 FD | 	call	#_rxcheck
010c8     00 AA 5D F2 | 	cmps	result1, #0 wcz
010cc     F4 FF 9F 3D |  if_ae	jmp	#LR__0026
010d0                 | ' 
010d0                 | ' cogspin(16,serialcog(),@serialstack)
010d0     D0 CA 01 F6 | 	mov	local01, objptr
010d4     58 A1 05 F1 | 	add	objptr, #344
010d8     D0 CC 01 F6 | 	mov	local02, objptr
010dc     E6 CA 61 FC | 	wrlong	local01, local02
010e0     04 CC 05 F1 | 	add	local02, #4
010e4     E6 A8 61 FC | 	wrlong	ptr__serialcog_, local02
010e8     CD C2 01 F6 | 	mov	arg02, entryptr__
010ec     D0 C4 01 F6 | 	mov	arg03, objptr
010f0     58 A1 85 F1 | 	sub	objptr, #344
010f4     10 C0 05 F6 | 	mov	arg01, #16
010f8     28 C4 61 FD | 	setq	arg03
010fc     E1 C0 F1 FC | 	coginit	arg01, arg02 wc
01100     01 C0 65 C6 |  if_b	neg	arg01, #1
01104     E0 AA 01 F6 | 	mov	result1, arg01
01108                 | ' 
01108                 | ' 
01108                 | ' xxx:=0 
01108     00 CE 05 F6 | 	mov	local03, #0
0110c                 | ' yyy:=0
0110c     00 D0 05 F6 | 	mov	local04, #0
01110                 | ' 
01110                 | ' repeat
01110                 | '   repeat
01110                 | LR__0027
01110     58 EF 9F FE | 	loc	pa,	#(@LR__0031-@LR__0028)
01114     93 00 A0 FD | 	call	#FCACHE_LOAD_
01118                 | '     rr:=serialblockingread()
01118                 | ' 
01118                 | ' repeat
01118                 | LR__0028
01118                 | '   r:=serialread()
01118                 | ' 
01118                 | ' if serialfront<>serialtail
01118     54 A1 05 F1 | 	add	objptr, #340
0111c     D0 D2 01 FB | 	rdlong	local05, objptr
01120     04 A0 85 F1 | 	sub	objptr, #4
01124     D0 D4 01 FB | 	rdlong	local06, objptr
01128     50 A1 85 F1 | 	sub	objptr, #336
0112c     EA D2 09 F2 | 	cmp	local05, local06 wz
01130     3C 00 90 AD |  if_e	jmp	#LR__0029
01134     50 A1 05 F1 | 	add	objptr, #336
01138     D0 D6 01 FB | 	rdlong	local07, objptr
0113c     02 D6 65 F0 | 	shl	local07, #2
01140     00 A1 85 F1 | 	sub	objptr, #256
01144     D0 D6 01 F1 | 	add	local07, objptr
01148                 | '   r:=serialbuf[serialtail]
01148     EB D8 01 FB | 	rdlong	local08, local07
0114c     00 A1 05 F1 | 	add	objptr, #256
01150     D0 DA 01 FB | 	rdlong	local09, objptr
01154     01 DA 05 F1 | 	add	local09, #1
01158     ED D2 51 F6 | 	abs	local05, local09 wc
0115c     1F D2 05 F5 | 	and	local05, #31
01160     E9 D2 61 C6 |  if_b	neg	local05, local05
01164                 | '   serialtail:=(serialtail+1)//32
01164     D0 D2 61 FC | 	wrlong	local05, objptr
01168     50 A1 85 F1 | 	sub	objptr, #336
0116c                 | ' else
0116c     04 00 90 FD | 	jmp	#LR__0030
01170                 | LR__0029
01170                 | '   r:=-1
01170     01 D8 65 F6 | 	neg	local08, #1
01174                 | LR__0030
01174                 | ' return r
01174     EC DC 01 F6 | 	mov	local10, local08
01178     FF FF 7F FF 
0117c     FF DD 0D F2 | 	cmp	local10, ##-1 wz
01180     94 FF 9F AD |  if_e	jmp	#LR__0028
01184                 | LR__0031
01184                 | ' until r<>-1
01184                 | ' return r
01184     EE AA 01 F6 | 	mov	result1, local10
01188     D5 DE 01 F6 | 	mov	local11, result1
0118c                 | '     if rr==255
0118c     FF DE 0D F2 | 	cmp	local11, #255 wz
01190                 | '       xxx:=0
01190     00 CE 05 A6 |  if_e	mov	local03, #0
01194                 | '       yyy:=0
01194     00 D0 05 A6 |  if_e	mov	local04, #0
01198                 | '     else  
01198     74 FF 9F AD |  if_e	jmp	#LR__0027
0119c     E7 E0 01 F6 | 	mov	local12, local03
011a0     0A E0 65 F0 | 	shl	local12, #10
011a4     E8 E2 01 F6 | 	mov	local13, local04
011a8     01 E2 65 F0 | 	shl	local13, #1
011ac                 | '       byte[256+v.buf_ptr+(xxx<<10)+2*yyy]:=rr
011ac     00 CB 05 F6 | 	mov	local01, #256
011b0     01 00 00 FF 
011b4     64 A1 05 F1 | 	add	objptr, ##868
011b8     D0 CC 01 FB | 	rdlong	local02, objptr
011bc     E6 CA 01 F1 | 	add	local01, local02
011c0     F0 CA 01 F1 | 	add	local01, local12
011c4     F1 CA 01 F1 | 	add	local01, local13
011c8     E5 DE 41 FC | 	wrbyte	local11, local01
011cc                 | '       byte[256+v.buf_ptr+(xxx<<10)+ 512+2*yyy]:=rr
011cc     00 CB 05 F6 | 	mov	local01, #256
011d0     D0 CC 01 FB | 	rdlong	local02, objptr
011d4     E6 CA 01 F1 | 	add	local01, local02
011d8     F0 CA 01 F1 | 	add	local01, local12
011dc     01 00 00 FF 
011e0     00 CA 05 F1 | 	add	local01, ##512
011e4     F1 CA 01 F1 | 	add	local01, local13
011e8     E5 DE 41 FC | 	wrbyte	local11, local01
011ec                 | '       byte[256+v.buf_ptr+(xxx<<10)+2*yyy+1]:=rr
011ec     00 CB 05 F6 | 	mov	local01, #256
011f0     D0 CC 01 FB | 	rdlong	local02, objptr
011f4     E6 CA 01 F1 | 	add	local01, local02
011f8     F0 CA 01 F1 | 	add	local01, local12
011fc     F1 CA 01 F1 | 	add	local01, local13
01200     01 CA 05 F1 | 	add	local01, #1
01204     E5 DE 41 FC | 	wrbyte	local11, local01
01208                 | '       byte[256+v.buf_ptr+(xxx<<10)+512+2*yyy+1]:=rr
01208     00 CB 05 F6 | 	mov	local01, #256
0120c     D0 CC 01 FB | 	rdlong	local02, objptr
01210     01 00 00 FF 
01214     64 A1 85 F1 | 	sub	objptr, ##868
01218     E6 CA 01 F1 | 	add	local01, local02
0121c     F0 CA 01 F1 | 	add	local01, local12
01220     01 00 00 FF 
01224     00 CA 05 F1 | 	add	local01, ##512
01228     F1 CA 01 F1 | 	add	local01, local13
0122c     01 CA 05 F1 | 	add	local01, #1
01230     E5 DE 41 FC | 	wrbyte	local11, local01
01234                 | '       xxx++
01234     01 CE 05 F1 | 	add	local03, #1
01238                 | '       if (xxx>79)
01238     4F CE 5D F2 | 	cmps	local03, #79 wcz
0123c     D0 FE 9F ED |  if_be	jmp	#LR__0027
01240                 | '         xxx:=0
01240     00 CE 05 F6 | 	mov	local03, #0
01244     01 D0 05 F1 | 	add	local04, #1
01248     E8 04 02 F6 | 	mov	muldiva_, local04
0124c     3C 06 06 F6 | 	mov	muldivb_, #60
01250     BF 00 A0 FD | 	call	#unsdivide_
01254                 | '         yyy:=(yyy+1)+//60
01254     02 D1 01 F6 | 	mov	local04, muldiva_
01258     B4 FE 9F FD | 	jmp	#LR__0027
0125c     A2 F0 03 F6 | 	mov	ptra, fp
01260     B2 00 A0 FD | 	call	#popregs_
01264                 | _display_lidar_ret
01264     2D 00 64 FD | 	ret
01268                 | 
01268                 | '         
01268                 | '   
01268                 | ' pub receive_sbus(p, p_sbus) : success | x, b, byte buffer[25]   ' blocks if no signal!!!
01268                 | _receive_sbus
01268     06 40 05 F6 | 	mov	COUNT_, #6
0126c     A3 00 A0 FD | 	call	#pushregs_
01270     3C F0 07 F1 | 	add	ptra, #60
01274     04 44 05 F1 | 	add	fp, #4
01278     A2 C0 61 FC | 	wrlong	arg01, fp
0127c     04 44 05 F1 | 	add	fp, #4
01280     A2 C2 61 FC | 	wrlong	arg02, fp
01284     08 44 85 F1 | 	sub	fp, #8
01288     A2 00 68 FC | 	wrlong	#0, fp
0128c                 | ' 
0128c                 | '   pinclear(p)                                                   ' force to tri-state mode
0128c     04 44 05 F1 | 	add	fp, #4
01290     A2 C0 01 FB | 	rdlong	arg01, fp
01294     50 C0 61 FD | 	fltl	arg01
01298     E0 00 08 FC | 	wrpin	#0, arg01
0129c                 | ' 
0129c                 | '   x := 0                                                        ' find inter-frame gap
0129c     08 44 05 F1 | 	add	fp, #8
012a0     A2 00 68 FC | 	wrlong	#0, fp
012a4     0C 44 85 F1 | 	sub	fp, #12
012a8                 | '   repeat
012a8                 | LR__0032
012a8                 | '     if (pinread(p) == 1)'0
012a8     04 44 05 F1 | 	add	fp, #4
012ac     A2 C0 01 FB | 	rdlong	arg01, fp
012b0     04 44 85 F1 | 	sub	fp, #4
012b4     10 09 B0 FD | 	call	#__system___pinread
012b8     01 AA 0D F2 | 	cmp	result1, #1 wz
012bc     20 00 90 5D |  if_ne	jmp	#LR__0033
012c0                 | '       if (++x == 250)
012c0     0C 44 05 F1 | 	add	fp, #12
012c4     A2 CA 01 FB | 	rdlong	local01, fp
012c8     01 CA 05 F1 | 	add	local01, #1
012cc     A2 CA 61 FC | 	wrlong	local01, fp
012d0     0C 44 85 F1 | 	sub	fp, #12
012d4     FA CA 0D F2 | 	cmp	local01, #250 wz
012d8                 | '         quit
012d8     14 00 90 AD |  if_e	jmp	#LR__0034
012dc                 | '     else
012dc     C8 FF 9F FD | 	jmp	#LR__0032
012e0                 | LR__0033
012e0                 | '       x := 0
012e0     0C 44 05 F1 | 	add	fp, #12
012e4     A2 00 68 FC | 	wrlong	#0, fp
012e8     0C 44 85 F1 | 	sub	fp, #12
012ec     B8 FF 9F FD | 	jmp	#LR__0032
012f0                 | LR__0034
012f0                 | ' 
012f0                 | '   pinstart(p, SBUS_CFG, SBUS_BAUD, 0)                           ' configure for S.BUS serial
012f0     04 44 05 F1 | 	add	fp, #4
012f4     A2 C0 01 FB | 	rdlong	arg01, fp
012f8     3E C2 05 F6 | 	mov	arg02, #62
012fc     00 91 05 FF 
01300     08 C4 05 F6 | 	mov	arg03, ##186777608
01304     00 C6 05 F6 | 	mov	arg04, #0
01308     40 C0 61 FD | 	dirl	arg01
0130c     E0 7C 08 FC | 	wrpin	#62, arg01
01310     00 91 85 FF 
01314     E0 10 18 FC | 	wxpin	##186777608, arg01
01318     E0 00 28 FC | 	wypin	#0, arg01
0131c     41 C0 61 FD | 	dirh	arg01
01320                 | ' 
01320                 | '   repeat x from 0 to 24                                         ' get s.bus frame
01320     08 44 05 F1 | 	add	fp, #8
01324     A2 00 68 FC | 	wrlong	#0, fp
01328     0C 44 85 F1 | 	sub	fp, #12
0132c                 | LR__0035
0132c                 | '     repeat until (pinread(p))                                   ' wait for byte
0132c                 | LR__0036
0132c     04 44 05 F1 | 	add	fp, #4
01330     A2 C0 01 FB | 	rdlong	arg01, fp
01334     04 44 85 F1 | 	sub	fp, #4
01338     8C 08 B0 FD | 	call	#__system___pinread
0133c     00 AA 0D F2 | 	cmp	result1, #0 wz
01340     E8 FF 9F AD |  if_e	jmp	#LR__0036
01344                 | '     b := rdpin(p) >> 23                                         ' get data + parity
01344     04 44 05 F1 | 	add	fp, #4
01348     A2 C0 01 FB | 	rdlong	arg01, fp
0134c     00 AA 05 F6 | 	mov	result1, #0
01350     E0 AA 89 FA | 	rdpin	result1, arg01
01354     D5 C0 01 F6 | 	mov	arg01, result1
01358     17 C0 45 F0 | 	shr	arg01, #23
0135c     0C 44 05 F1 | 	add	fp, #12
01360     A2 C0 61 FC | 	wrlong	arg01, fp
01364                 | '     if (ones(b) & 1)                                            ' if odd parity
01364     10 44 85 F1 | 	sub	fp, #16
01368     00 AA 05 F6 | 	mov	result1, #0
0136c     E0 AA A1 F7 | 	ones	result1, arg01
01370     01 AA CD F7 | 	test	result1, #1 wz
01374                 | '       return false                                              '  return error
01374     00 AA 05 56 |  if_ne	mov	result1, #0
01378     8C 00 90 5D |  if_ne	jmp	#LR__0039
0137c                 | '     else                                                        ' else
0137c     10 44 05 F1 | 	add	fp, #16
01380     A2 CC 01 FB | 	rdlong	local02, fp
01384     FF CC 05 F5 | 	and	local02, #255
01388     04 44 85 F1 | 	sub	fp, #4
0138c     A2 CE 01 FB | 	rdlong	local03, fp
01390     08 44 05 F1 | 	add	fp, #8
01394     A2 CE 01 F1 | 	add	local03, fp
01398                 | '       buffer[x] := b & $FF                                      '  save to buffer
01398     E7 CC 41 FC | 	wrbyte	local02, local03
0139c     08 44 85 F1 | 	sub	fp, #8
013a0     A2 D0 01 FB | 	rdlong	local04, fp
013a4     01 D0 05 F1 | 	add	local04, #1
013a8     A2 D0 61 FC | 	wrlong	local04, fp
013ac     0C 44 85 F1 | 	sub	fp, #12
013b0     19 D0 5D F2 | 	cmps	local04, #25 wcz
013b4     74 FF 9F CD |  if_b	jmp	#LR__0035
013b8                 | ' 
013b8                 | '   if (buffer[0] <> $0F) || (buffer[24] <> $00)                  ' check header & footer bytes
013b8     14 44 05 F1 | 	add	fp, #20
013bc     A2 D2 C1 FA | 	rdbyte	local05, fp
013c0     14 44 85 F1 | 	sub	fp, #20
013c4     0F D2 0D F2 | 	cmp	local05, #15 wz
013c8     14 00 90 5D |  if_ne	jmp	#LR__0037
013cc     2C 44 05 F1 | 	add	fp, #44
013d0     A2 D4 C1 FA | 	rdbyte	local06, fp
013d4     2C 44 85 F1 | 	sub	fp, #44
013d8     EA CA 09 F6 | 	mov	local01, local06 wz
013dc     08 00 90 AD |  if_e	jmp	#LR__0038
013e0                 | LR__0037
013e0                 | '     return false
013e0     00 AA 05 F6 | 	mov	result1, #0
013e4     20 00 90 FD | 	jmp	#LR__0039
013e8                 | LR__0038
013e8     14 44 05 F1 | 	add	fp, #20
013ec     A2 C2 01 F6 | 	mov	arg02, fp
013f0                 | ' 
013f0                 | '   bytemove(p_sbus, @buffer, 25)                                 ' success; copy to destination
013f0     0C 44 85 F1 | 	sub	fp, #12
013f4     A2 C0 01 FB | 	rdlong	arg01, fp
013f8     08 44 85 F1 | 	sub	fp, #8
013fc     19 C4 05 F6 | 	mov	arg03, #25
01400     C4 06 B0 FD | 	call	#__system____builtin_memmove
01404                 | ' 
01404                 | '   return true
01404     01 AA 65 F6 | 	neg	result1, #1
01408                 | LR__0039
01408     A2 F0 03 F6 | 	mov	ptra, fp
0140c     B2 00 A0 FD | 	call	#popregs_
01410                 | _receive_sbus_ret
01410     2D 00 64 FD | 	ret
01414                 | 
01414                 | ' 
01414                 | ' 
01414                 | ' pub decode_sbus(p_sbus, p_chans) | ch, work, bc, flags
01414                 | _decode_sbus
01414     0C 40 05 F6 | 	mov	COUNT_, #12
01418     A3 00 A0 FD | 	call	#pushregs_
0141c     3C F0 07 F1 | 	add	ptra, #60
01420     A2 C0 61 FC | 	wrlong	arg01, fp
01424     04 44 05 F1 | 	add	fp, #4
01428     A2 C2 61 FC | 	wrlong	arg02, fp
0142c     04 44 85 F1 | 	sub	fp, #4
01430                 | ' 
01430                 | '   p_sbus += 1                                                   ' point to data byte #1
01430     A2 CA 01 FB | 	rdlong	local01, fp
01434     01 CA 05 F1 | 	add	local01, #1
01438     A2 CA 61 FC | 	wrlong	local01, fp
0143c     08 44 05 F1 | 	add	fp, #8
01440     A2 C0 01 F6 | 	mov	arg01, fp
01444     08 44 85 F1 | 	sub	fp, #8
01448                 | ' 
01448                 | '   longfill(@ch, 0, 3)                                           ' clear locals
01448     00 C2 05 F6 | 	mov	arg02, #0
0144c     BC EB 9F FE | 	loc	pa,	#(@LR__0042-@LR__0040)
01450     93 00 A0 FD | 	call	#FCACHE_LOAD_
01454                 | LR__0040
01454     03 04 DC FC | 	rep	@LR__0043, #3
01458                 | LR__0041
01458     E0 C2 61 FC | 	wrlong	arg02, arg01
0145c     04 C0 05 F1 | 	add	arg01, #4
01460                 | LR__0042
01460                 | LR__0043
01460     6C EC 9F FE | 	loc	pa,	#(@LR__0047-@LR__0044)
01464     93 00 A0 FD | 	call	#FCACHE_LOAD_
01468                 | ' 
01468                 | '   repeat while (ch <= 15)                                       ' Ch 1-16 decoding
01468                 | LR__0044
01468     08 44 05 F1 | 	add	fp, #8
0146c     A2 CA 01 FB | 	rdlong	local01, fp
01470     08 44 85 F1 | 	sub	fp, #8
01474     0F CA 5D F2 | 	cmps	local01, #15 wcz
01478     BC 00 90 1D |  if_a	jmp	#LR__0048
0147c                 | '     repeat while (bc < 11)                                      ' collect enough bits for channel
0147c                 | LR__0045
0147c     10 44 05 F1 | 	add	fp, #16
01480     A2 CA 01 FB | 	rdlong	local01, fp
01484     10 44 85 F1 | 	sub	fp, #16
01488     0B CA 5D F2 | 	cmps	local01, #11 wcz
0148c     48 00 90 3D |  if_ae	jmp	#LR__0046
01490                 | '       work |= (byte[p_sbus++] << bc)                            ' get byte, position, add to work
01490     A2 CC 01 FB | 	rdlong	local02, fp
01494     E6 CE 01 F6 | 	mov	local03, local02
01498     01 CE 05 F1 | 	add	local03, #1
0149c     A2 CE 61 FC | 	wrlong	local03, fp
014a0     E6 D0 C1 FA | 	rdbyte	local04, local02
014a4     10 44 05 F1 | 	add	fp, #16
014a8     A2 D2 01 FB | 	rdlong	local05, fp
014ac     E9 D0 61 F0 | 	shl	local04, local05
014b0     04 44 85 F1 | 	sub	fp, #4
014b4     A2 D4 01 FB | 	rdlong	local06, fp
014b8     E8 D4 41 F5 | 	or	local06, local04
014bc     A2 D4 61 FC | 	wrlong	local06, fp
014c0                 | '       bc += 8                                                   ' bump bit count
014c0     04 44 05 F1 | 	add	fp, #4
014c4     A2 CA 01 FB | 	rdlong	local01, fp
014c8     08 CA 05 F1 | 	add	local01, #8
014cc     A2 CA 61 FC | 	wrlong	local01, fp
014d0     10 44 85 F1 | 	sub	fp, #16
014d4     A4 FF 9F FD | 	jmp	#LR__0045
014d8                 | LR__0046
014d8     0C 44 05 F1 | 	add	fp, #12
014dc     A2 D6 01 FB | 	rdlong	local07, fp
014e0     03 00 00 FF 
014e4     FF D7 05 F5 | 	and	local07, ##2047
014e8                 | '     word[p_chans][ch++] := work & $07FF                         ' extract and save channel
014e8     08 44 85 F1 | 	sub	fp, #8
014ec     A2 D8 01 FB | 	rdlong	local08, fp
014f0     04 44 05 F1 | 	add	fp, #4
014f4     A2 DA 01 FB | 	rdlong	local09, fp
014f8     ED DC 01 F6 | 	mov	local10, local09
014fc     01 DC 05 F1 | 	add	local10, #1
01500     A2 DC 61 FC | 	wrlong	local10, fp
01504     01 DA 65 F0 | 	shl	local09, #1
01508     EC DA 01 F1 | 	add	local09, local08
0150c     ED D6 51 FC | 	wrword	local07, local09
01510                 | '     work >>= 11                                                 ' remove channel, re-align lsb
01510     04 44 05 F1 | 	add	fp, #4
01514     A2 CA 01 FB | 	rdlong	local01, fp
01518     0B CA 45 F0 | 	shr	local01, #11
0151c     A2 CA 61 FC | 	wrlong	local01, fp
01520                 | '     bc -= 11                                                    ' fix bit count
01520     04 44 05 F1 | 	add	fp, #4
01524     A2 CA 01 FB | 	rdlong	local01, fp
01528     0B CA 85 F1 | 	sub	local01, #11
0152c     A2 CA 61 FC | 	wrlong	local01, fp
01530     10 44 85 F1 | 	sub	fp, #16
01534     30 FF 9F FD | 	jmp	#LR__0044
01538                 | LR__0047
01538                 | LR__0048
01538                 | ' 
01538                 | '   flags := byte[p_sbus]
01538     A2 CA 01 FB | 	rdlong	local01, fp
0153c     E5 DE C1 FA | 	rdbyte	local11, local01
01540     14 44 05 F1 | 	add	fp, #20
01544     A2 DE 61 FC | 	wrlong	local11, fp
01548     01 DE CD F7 | 	test	local11, #1 wz
0154c                 | ' 
0154c                 | '   word[p_chans][16] := (flags & %0001) ? $07FF : 0              ' convert ch17 bit
0154c     0A CA CD 59 |  if_ne	bmask	local01, #10
01550     00 CA 05 A6 |  if_e	mov	local01, #0
01554     10 44 85 F1 | 	sub	fp, #16
01558     A2 CC 01 FB | 	rdlong	local02, fp
0155c     20 CC 05 F1 | 	add	local02, #32
01560     E6 CA 51 FC | 	wrword	local01, local02
01564     10 44 05 F1 | 	add	fp, #16
01568     A2 E0 01 FB | 	rdlong	local12, fp
0156c     02 E0 CD F7 | 	test	local12, #2 wz
01570                 | '   word[p_chans][17] := (flags & %0010) ? $07FF : 0              ' convert ch18 bit
01570     0A CA CD 59 |  if_ne	bmask	local01, #10
01574     00 CA 05 A6 |  if_e	mov	local01, #0
01578     10 44 85 F1 | 	sub	fp, #16
0157c     A2 CC 01 FB | 	rdlong	local02, fp
01580     04 44 85 F1 | 	sub	fp, #4
01584     22 CC 05 F1 | 	add	local02, #34
01588     E6 CA 51 FC | 	wrword	local01, local02
0158c     A2 F0 03 F6 | 	mov	ptra, fp
01590     B2 00 A0 FD | 	call	#popregs_
01594                 | _decode_sbus_ret
01594     2D 00 64 FD | 	ret
01598                 | 
01598                 | ' 
01598                 | ' 
01598                 | ' ''---------------------- Serial functions from jm_serial.spin2
01598                 | ' 
01598                 | ' pub serial_start(rxpin2, txpin2, baud) | bitmode
01598                 | _serial_start
01598     05 40 05 F6 | 	mov	COUNT_, #5
0159c     A3 00 A0 FD | 	call	#pushregs_
015a0     E0 CA 01 F6 | 	mov	local01, arg01
015a4     E1 CC 01 F6 | 	mov	local02, arg02
015a8                 | ' 
015a8                 | ' '' Start simple serial coms on rxpin and txpin at baud
015a8                 | ' 
015a8                 | ' '  longmove(@rxp, @rxpin2, 2)                                     ' save pins
015a8                 | ' 
015a8                 | '   rxp:=rxpin2
015a8     40 A0 05 F1 | 	add	objptr, #64
015ac     D0 CA 61 FC | 	wrlong	local01, objptr
015b0                 | '   txp:=txpin2
015b0     04 A0 05 F1 | 	add	objptr, #4
015b4     D0 CC 61 FC | 	wrlong	local02, objptr
015b8     44 A0 85 F1 | 	sub	objptr, #68
015bc                 | ' 
015bc                 | '   bitmode := muldiv64(clkfreq, $1_0000, baud) & $FFFFFC00       ' set bit timing
015bc     14 C0 05 FB | 	rdlong	arg01, #20
015c0     10 C2 C5 F9 | 	decod	arg02, #16
015c4     E1 C0 01 FD | 	qmul	arg01, arg02
015c8     19 CE 61 FD | 	getqy	local03
015cc     18 D0 61 FD | 	getqx	local04
015d0     28 CE 61 FD | 	setq	local03
015d4     E2 D0 11 FD | 	qdiv	local04, arg03
015d8     18 AA 61 FD | 	getqx	result1
015dc     D5 D2 01 F6 | 	mov	local05, result1
015e0     FE FF 7F FF 
015e4     00 D2 05 F5 | 	and	local05, ##-1024
015e8                 | '   bitmode |= 7                                                  ' set bits (8)
015e8     07 D2 45 F5 | 	or	local05, #7
015ec                 | ' 
015ec                 | '   org
015ec     30 EA 9F FE | 	loc	pa,	#(@LR__0050-@LR__0049)
015f0     93 00 A0 FD | 	call	#FCACHE_LOAD_
015f4                 | LR__0049
015f4 000             | 	org	0
015f4 000 50 CA 61 FD | 	fltl	local01
015f8 001 E5 7C 08 FC | 	wrpin	#62, local01
015fc 002 E5 D2 11 FC | 	wxpin	local05, local01
01600 003 58 CA 61 FD | 	drvl	local01
01604 004 50 CC 61 FD | 	fltl	local02
01608 005 E6 F8 08 FC | 	wrpin	#124, local02
0160c 006 E6 D2 11 FC | 	wxpin	local05, local02
01610 007 58 CC 61 FD | 	drvl	local02
01614 008             | LR__0050
01614                 | 	orgh
01614     A2 F0 03 F6 | 	mov	ptra, fp
01618     B2 00 A0 FD | 	call	#popregs_
0161c                 | _serial_start_ret
0161c     2D 00 64 FD | 	ret
01620                 | 
01620                 | '   while (rxcheck() >= 0)
01620                 | ' 
01620                 | ' 
01620                 | ' pub rxcheck() : rxbyte | check
01620                 | _rxcheck
01620     02 40 05 F6 | 	mov	COUNT_, #2
01624     A3 00 A0 FD | 	call	#pushregs_
01628                 | ' 
01628                 | ' '' Check for serial input
01628                 | ' '' -- returns -1 if nothing available
01628                 | ' 
01628                 | '   rxbyte := -1
01628     01 CA 65 F6 | 	neg	local01, #1
0162c                 | '   check := pinr(rxp)
0162c     40 A0 05 F1 | 	add	objptr, #64
01630     D0 C0 01 FB | 	rdlong	arg01, objptr
01634     40 A0 85 F1 | 	sub	objptr, #64
01638     8C 05 B0 FD | 	call	#__system___pinread
0163c     D5 CC 09 F6 | 	mov	local02, result1 wz
01640                 | '   if (check)
01640     18 00 90 AD |  if_e	jmp	#LR__0051
01644                 | '     rxbyte := rdpin(rxp) >> 24
01644     40 A0 05 F1 | 	add	objptr, #64
01648     D0 C0 01 FB | 	rdlong	arg01, objptr
0164c     40 A0 85 F1 | 	sub	objptr, #64
01650     00 CA 05 F6 | 	mov	local01, #0
01654     E0 CA 89 FA | 	rdpin	local01, arg01
01658     18 CA 45 F0 | 	shr	local01, #24
0165c                 | LR__0051
0165c     E5 AA 01 F6 | 	mov	result1, local01
01660     A2 F0 03 F6 | 	mov	ptra, fp
01664     B2 00 A0 FD | 	call	#popregs_
01668                 | _rxcheck_ret
01668     2D 00 64 FD | 	ret
0166c                 | 
0166c                 | '   while (check == 0)
0166c                 | ' 
0166c                 | '   
0166c                 | '   
0166c                 | ' pub serialcog()|q
0166c                 | _serialcog
0166c     06 40 05 F6 | 	mov	COUNT_, #6
01670     A3 00 A0 FD | 	call	#pushregs_
01674                 | ' 
01674                 | ' serialfront:=0
01674     00 CA 05 F6 | 	mov	local01, #0
01678     54 A1 05 F1 | 	add	objptr, #340
0167c     D0 00 68 FC | 	wrlong	#0, objptr
01680                 | ' serialtail:=0
01680     04 A0 85 F1 | 	sub	objptr, #4
01684     D0 00 68 FC | 	wrlong	#0, objptr
01688     50 A1 85 F1 | 	sub	objptr, #336
0168c                 | ' 
0168c                 | ' repeat
0168c                 | LR__0052
0168c                 | '   if serialfront<>((serialtail-1) //32)
0168c     50 A1 05 F1 | 	add	objptr, #336
01690     D0 CA 01 FB | 	rdlong	local01, objptr
01694     01 CA 85 F1 | 	sub	local01, #1
01698     E5 CC 51 F6 | 	abs	local02, local01 wc
0169c     1F CC 05 F5 | 	and	local02, #31
016a0     E6 CC 61 C6 |  if_b	neg	local02, local02
016a4     04 A0 05 F1 | 	add	objptr, #4
016a8     D0 CE 01 FB | 	rdlong	local03, objptr
016ac     54 A1 85 F1 | 	sub	objptr, #340
016b0     E6 CE 09 F2 | 	cmp	local03, local02 wz
016b4     D4 FF 9F AD |  if_e	jmp	#LR__0052
016b8                 | '     q:=rxcheck()
016b8     64 FF BF FD | 	call	#_rxcheck
016bc     D5 D0 01 F6 | 	mov	local04, result1
016c0                 | '     if q>=0
016c0     00 D0 5D F2 | 	cmps	local04, #0 wcz
016c4     C4 FF 9F CD |  if_b	jmp	#LR__0052
016c8     54 A1 05 F1 | 	add	objptr, #340
016cc     D0 D2 01 FB | 	rdlong	local05, objptr
016d0     02 D2 65 F0 | 	shl	local05, #2
016d4     04 A1 85 F1 | 	sub	objptr, #260
016d8     D0 D2 01 F1 | 	add	local05, objptr
016dc                 | '      serialbuf[serialfront]:=q
016dc     E9 D0 61 FC | 	wrlong	local04, local05
016e0                 | '      serialfront+=1
016e0     04 A1 05 F1 | 	add	objptr, #260
016e4     D0 D4 01 FB | 	rdlong	local06, objptr
016e8     01 D4 05 F1 | 	add	local06, #1
016ec     D0 D4 61 FC | 	wrlong	local06, objptr
016f0                 | '      serialfront:=serialfront // 32
016f0     EA CA 51 F6 | 	abs	local01, local06 wc
016f4     1F CA 05 F5 | 	and	local01, #31
016f8     E5 CA 61 C6 |  if_b	neg	local01, local01
016fc     D0 CA 61 FC | 	wrlong	local01, objptr
01700     54 A1 85 F1 | 	sub	objptr, #340
01704     84 FF 9F FD | 	jmp	#LR__0052
01708     A2 F0 03 F6 | 	mov	ptra, fp
0170c     B2 00 A0 FD | 	call	#popregs_
01710                 | _serialcog_ret
01710     2D 00 64 FD | 	ret
01714                 | 
01714                 | ' 
01714                 | ' pub putcharxycg(x,y,achar,f,b) |xx, yy,bb
01714                 | _hng026r_putcharxycg
01714     0A 40 05 F6 | 	mov	COUNT_, #10
01718     A3 00 A0 FD | 	call	#pushregs_
0171c     E0 CA 01 F6 | 	mov	local01, arg01
01720     E1 CC 01 F6 | 	mov	local02, arg02
01724     E2 CE 01 F6 | 	mov	local03, arg03
01728     E3 D0 01 F6 | 	mov	local04, arg04
0172c     E4 D2 01 F6 | 	mov	local05, arg05
01730     04 CE 65 F0 | 	shl	local03, #4
01734     00 D4 05 F6 | 	mov	local06, #0
01738                 | LR__0053
01738     D3 D6 01 F6 | 	mov	local07, ptr__hng026r_dat__
0173c     E7 D6 01 F1 | 	add	local07, local03
01740     EA D6 01 F1 | 	add	local07, local06
01744                 | '   bb:=byte[@st_font+achar<<4+yy]
01744     EB D8 C1 FA | 	rdbyte	local08, local07
01748                 | '   repeat xx from 0 to 7
01748     00 DA 05 F6 | 	mov	local09, #0
0174c                 | LR__0054
0174c                 | '     if (bb&(1<<xx))<>0
0174c     ED DC C1 F9 | 	decod	local10, local09
01750     EE D8 C9 F7 | 	test	local08, local10 wz
01754     1C 00 90 AD |  if_e	jmp	#LR__0055
01758     ED C0 01 F6 | 	mov	arg01, local09
0175c     E5 C0 01 F1 | 	add	arg01, local01
01760     EA C2 01 F6 | 	mov	arg02, local06
01764     E6 C2 01 F1 | 	add	arg02, local02
01768                 | '       putpixel(xx+x,yy+y,f)
01768     E8 C4 01 F6 | 	mov	arg03, local04
0176c     E0 00 B0 FD | 	call	#_hng026r_putpixel
01770                 | '     else
01770     18 00 90 FD | 	jmp	#LR__0056
01774                 | LR__0055
01774     ED C0 01 F6 | 	mov	arg01, local09
01778     E5 C0 01 F1 | 	add	arg01, local01
0177c     EA C2 01 F6 | 	mov	arg02, local06
01780     E6 C2 01 F1 | 	add	arg02, local02
01784                 | '       putpixel(xx+x,yy+y,b)
01784     E9 C4 01 F6 | 	mov	arg03, local05
01788     C4 00 B0 FD | 	call	#_hng026r_putpixel
0178c                 | LR__0056
0178c     01 DA 05 F1 | 	add	local09, #1
01790     08 DA 5D F2 | 	cmps	local09, #8 wcz
01794     B4 FF 9F CD |  if_b	jmp	#LR__0054
01798     01 D4 05 F1 | 	add	local06, #1
0179c     10 D4 5D F2 | 	cmps	local06, #16 wcz
017a0     94 FF 9F CD |  if_b	jmp	#LR__0053
017a4     A2 F0 03 F6 | 	mov	ptra, fp
017a8     B2 00 A0 FD | 	call	#popregs_
017ac                 | _hng026r_putcharxycg_ret
017ac     2D 00 64 FD | 	ret
017b0                 | 
017b0                 | ' 
017b0                 | ' pub outtextxycg(x,y,text,f,b) | iii,c
017b0                 | _hng026r_outtextxycg
017b0     0C 40 05 F6 | 	mov	COUNT_, #12
017b4     A3 00 A0 FD | 	call	#pushregs_
017b8     E0 CA 01 F6 | 	mov	local01, arg01
017bc     E1 CC 01 F6 | 	mov	local02, arg02
017c0     E2 CE 01 F6 | 	mov	local03, arg03
017c4     E3 D0 01 F6 | 	mov	local04, arg04
017c8     E4 D2 01 F6 | 	mov	local05, arg05
017cc                 | ' 
017cc                 | ' repeat iii from 0 to strsize(text)-1
017cc     00 D4 05 F6 | 	mov	local06, #0
017d0     E7 C0 01 F6 | 	mov	arg01, local03
017d4     00 D6 05 F6 | 	mov	local07, #0
017d8     34 E8 9F FE | 	loc	pa,	#(@LR__0058-@LR__0057)
017dc     93 00 A0 FD | 	call	#FCACHE_LOAD_
017e0                 | LR__0057
017e0     E0 D8 C9 FA | 	rdbyte	local08, arg01 wz
017e4     01 D6 05 51 |  if_ne	add	local07, #1
017e8     01 C0 05 51 |  if_ne	add	arg01, #1
017ec     F0 FF 9F 5D |  if_ne	jmp	#LR__0057
017f0                 | LR__0058
017f0     EB AA 01 F6 | 	mov	result1, local07
017f4     D5 DA 01 F6 | 	mov	local09, result1
017f8     01 DA 85 F1 | 	sub	local09, #1
017fc     00 DA 5D F2 | 	cmps	local09, #0 wcz
01800     01 DC 05 16 |  if_a	mov	local10, #1
01804     01 DC 65 E6 |  if_be	neg	local10, #1
01808     EE DA 01 F1 | 	add	local09, local10
0180c                 | LR__0059
0180c     EA DE 01 F6 | 	mov	local11, local06
01810     03 DE 65 F0 | 	shl	local11, #3
01814     E5 C0 01 F6 | 	mov	arg01, local01
01818     EF C0 01 F1 | 	add	arg01, local11
0181c     E7 E0 01 F6 | 	mov	local12, local03
01820     EA E0 01 F1 | 	add	local12, local06
01824                 | '   putcharxycg(x+8*iii,y,byte[text+iii],f,b)
01824     E6 C2 01 F6 | 	mov	arg02, local02
01828     F0 C4 C1 FA | 	rdbyte	arg03, local12
0182c     E8 C6 01 F6 | 	mov	arg04, local04
01830     E9 C8 01 F6 | 	mov	arg05, local05
01834     DC FE BF FD | 	call	#_hng026r_putcharxycg
01838     EE D4 01 F1 | 	add	local06, local10
0183c     ED D4 09 F2 | 	cmp	local06, local09 wz
01840     C8 FF 9F 5D |  if_ne	jmp	#LR__0059
01844     A2 F0 03 F6 | 	mov	ptra, fp
01848     B2 00 A0 FD | 	call	#popregs_
0184c                 | _hng026r_outtextxycg_ret
0184c     2D 00 64 FD | 	ret
01850                 | 
01850                 | ' 
01850                 | ' 
01850                 | ' ''---------- putpixel - put a pixel on the screen
01850                 | ' 
01850                 | ' pub putpixel(x,y,c)
01850                 | _hng026r_putpixel
01850                 | ' 
01850                 | ' if ((y>=0) & (y<4*cpl) & (x>=0) & (x<lines))
01850     00 AC 05 F6 | 	mov	_var01, #0
01854     00 C2 5D F2 | 	cmps	arg02, #0 wcz
01858     01 AC 65 36 |  if_ae	neg	_var01, #1
0185c     00 AE 05 F6 | 	mov	_var02, #0
01860     84 A0 05 F1 | 	add	objptr, #132
01864     D0 B0 01 FB | 	rdlong	_var03, objptr
01868     02 B0 65 F0 | 	shl	_var03, #2
0186c     D8 C2 59 F2 | 	cmps	arg02, _var03 wcz
01870     01 AE 65 C6 |  if_b	neg	_var02, #1
01874     D7 AC 01 F5 | 	and	_var01, _var02
01878     00 B2 05 F6 | 	mov	_var04, #0
0187c     00 C0 5D F2 | 	cmps	arg01, #0 wcz
01880     01 B2 65 36 |  if_ae	neg	_var04, #1
01884     D9 AC 01 F5 | 	and	_var01, _var04
01888     00 B4 05 F6 | 	mov	_var05, #0
0188c     04 A0 05 F1 | 	add	objptr, #4
01890     D0 B6 01 FB | 	rdlong	_var06, objptr
01894     88 A0 85 F1 | 	sub	objptr, #136
01898     DB C0 59 F2 | 	cmps	arg01, _var06 wcz
0189c     01 B4 65 C6 |  if_b	neg	_var05, #1
018a0     DA AC C9 F7 | 	test	_var01, _var05 wz
018a4     38 00 90 AD |  if_e	jmp	#LR__0060
018a8     84 A0 05 F1 | 	add	objptr, #132
018ac     D0 B8 01 FB | 	rdlong	_var07, objptr
018b0     02 B8 65 F0 | 	shl	_var07, #2
018b4     04 A0 05 F1 | 	add	objptr, #4
018b8     D0 BA 01 FB | 	rdlong	_var08, objptr
018bc     88 A0 85 F1 | 	sub	objptr, #136
018c0     E0 BA 81 F1 | 	sub	_var08, arg01
018c4     01 BA 85 F1 | 	sub	_var08, #1
018c8     DD B8 01 FD | 	qmul	_var07, _var08
018cc     18 BC 61 FD | 	getqx	_var09
018d0     D0 BE 01 FB | 	rdlong	_var10, objptr
018d4     DE BE 01 F1 | 	add	_var10, _var09
018d8     E1 BE 01 F1 | 	add	_var10, arg02
018dc                 | '     byte[buf_ptr+4*cpl*(lines-x-1)+y]:=c
018dc     DF C4 41 FC | 	wrbyte	arg03, _var10
018e0                 | LR__0060
018e0                 | _hng026r_putpixel_ret
018e0     2D 00 64 FD | 	ret
018e4                 | 
018e4                 | ' 
018e4                 | ' 
018e4                 | ' '*************************************************************************
018e4                 | ' '                                                                        *
018e4                 | ' '  VBlank functions                                                      *
018e4                 | ' '                                                                        *
018e4                 | ' '*************************************************************************
018e4                 | ' 
018e4                 | ' pub waitvbl(amount) | i
018e4                 | _hng026r_waitvbl
018e4     04 40 05 F6 | 	mov	COUNT_, #4
018e8     A3 00 A0 FD | 	call	#pushregs_
018ec     E0 CA 01 F6 | 	mov	local01, arg01
018f0                 | ' 
018f0                 | ' ''---------- Wait for start of vblank. Amount=delay in frames
018f0                 | ' 
018f0                 | ' repeat i from 1 to amount
018f0     01 CC 05 F6 | 	mov	local02, #1
018f4     01 CA 5D F2 | 	cmps	local01, #1 wcz
018f8     01 CE 05 16 |  if_a	mov	local03, #1
018fc     01 CE 65 E6 |  if_be	neg	local03, #1
01900     E7 CA 01 F1 | 	add	local01, local03
01904                 | LR__0061
01904                 | '   repeat until vblank==0
01904                 | LR__0062
01904     34 A0 05 F1 | 	add	objptr, #52
01908     D0 D0 09 FB | 	rdlong	local04, objptr wz
0190c     34 A0 85 F1 | 	sub	objptr, #52
01910     0C 00 90 AD |  if_e	jmp	#LR__0063
01914                 | '     waitus(100)
01914     64 C0 05 F6 | 	mov	arg01, #100
01918     2C 03 B0 FD | 	call	#__system___waitus
0191c     E4 FF 9F FD | 	jmp	#LR__0062
01920                 | LR__0063
01920                 | '   repeat until vblank==1
01920                 | LR__0064
01920     34 A0 05 F1 | 	add	objptr, #52
01924     D0 D0 01 FB | 	rdlong	local04, objptr
01928     34 A0 85 F1 | 	sub	objptr, #52
0192c     01 D0 0D F2 | 	cmp	local04, #1 wz
01930     0C 00 90 AD |  if_e	jmp	#LR__0065
01934                 | '     waitus(100)
01934     64 C0 05 F6 | 	mov	arg01, #100
01938     0C 03 B0 FD | 	call	#__system___waitus
0193c     E0 FF 9F FD | 	jmp	#LR__0064
01940                 | LR__0065
01940     E7 CC 01 F1 | 	add	local02, local03
01944     E5 CC 09 F2 | 	cmp	local02, local01 wz
01948     B8 FF 9F 5D |  if_ne	jmp	#LR__0061
0194c     A2 F0 03 F6 | 	mov	ptra, fp
01950     B2 00 A0 FD | 	call	#popregs_
01954                 | _hng026r_waitvbl_ret
01954     2D 00 64 FD | 	ret
01958                 | 
01958                 | ' 
01958                 | ' 
01958                 | ' '*************************************************************************
01958                 | ' '                                                                        *
01958                 | ' '  Conversions                                                           *
01958                 | ' '                                                                        *
01958                 | ' '*************************************************************************
01958                 | ' 
01958                 | ' ''---------- Convert a integer to dec string, return a pointer
01958                 | ' 
01958                 | ' pub inttostr(i):result |q,pos,k,j
01958                 | _hng026r_inttostr
01958     07 40 05 F6 | 	mov	COUNT_, #7
0195c     A3 00 A0 FD | 	call	#pushregs_
01960     E0 CA 01 F6 | 	mov	local01, arg01
01964                 | ' 
01964                 | ' j:=i
01964     E5 CC 09 F6 | 	mov	local02, local01 wz
01968                 | ' pos:=10
01968     0A CE 05 F6 | 	mov	local03, #10
0196c                 | ' k:=0
0196c     00 D0 05 F6 | 	mov	local04, #0
01970                 | ' 
01970                 | ' if (j==0)
01970     18 00 90 5D |  if_ne	jmp	#LR__0066
01974                 | '   n_string[0]:=48
01974     38 A0 05 F1 | 	add	objptr, #56
01978     D0 60 48 FC | 	wrbyte	#48, objptr
0197c                 | '   n_string[1]:=0
0197c     01 A0 05 F1 | 	add	objptr, #1
01980     D0 00 48 FC | 	wrbyte	#0, objptr
01984     39 A0 85 F1 | 	sub	objptr, #57
01988                 | ' 
01988                 | ' else
01988     C4 00 90 FD | 	jmp	#LR__0073
0198c                 | LR__0066
0198c                 | '   if (j<0)
0198c     00 CC 5D F2 | 	cmps	local02, #0 wcz
01990                 | '     j:=0-j
01990     E6 CC 61 C6 |  if_b	neg	local02, local02
01994                 | '     k:=45
01994     2D D0 05 C6 |  if_b	mov	local04, #45
01998                 | ' 
01998                 | '   n_string[11]:=0
01998     43 A0 05 F1 | 	add	objptr, #67
0199c     D0 00 48 FC | 	wrbyte	#0, objptr
019a0     43 A0 85 F1 | 	sub	objptr, #67
019a4     98 E6 9F FE | 	loc	pa,	#(@LR__0068-@LR__0067)
019a8     93 00 A0 FD | 	call	#FCACHE_LOAD_
019ac                 | '   repeat while (pos>-1)
019ac                 | LR__0067
019ac     FF FF 7F FF 
019b0     FF CF 5D F2 | 	cmps	local03, ##-1 wcz
019b4     34 00 90 ED |  if_be	jmp	#LR__0069
019b8     E6 04 02 F6 | 	mov	muldiva_, local02
019bc     0A 06 06 F6 | 	mov	muldivb_, #10
019c0     C3 00 A0 FD | 	call	#divide_
019c4     02 D3 01 F6 | 	mov	local05, muldiva_
019c8                 | '     q:=j//10
019c8                 | '     q:=48+q
019c8     30 D2 05 F1 | 	add	local05, #48
019cc     E7 D4 01 F6 | 	mov	local06, local03
019d0     38 A0 05 F1 | 	add	objptr, #56
019d4     D0 D4 01 F1 | 	add	local06, objptr
019d8                 | '     n_string[pos]:=q
019d8     EA D2 41 FC | 	wrbyte	local05, local06
019dc                 | '     j:=j/10
019dc     03 CD 01 F6 | 	mov	local02, muldivb_
019e0                 | '     pos-=1
019e0     01 CE 85 F1 | 	sub	local03, #1
019e4     38 A0 85 F1 | 	sub	objptr, #56
019e8     C0 FF 9F FD | 	jmp	#LR__0067
019ec                 | LR__0068
019ec                 | LR__0069
019ec                 | '   repeat while n_string[0]==48
019ec                 | LR__0070
019ec     38 A0 05 F1 | 	add	objptr, #56
019f0     D0 D6 C1 FA | 	rdbyte	local07, objptr
019f4     38 A0 85 F1 | 	sub	objptr, #56
019f8     30 D6 0D F2 | 	cmp	local07, #48 wz
019fc     20 00 90 5D |  if_ne	jmp	#LR__0071
01a00     38 A0 05 F1 | 	add	objptr, #56
01a04     D0 C0 01 F6 | 	mov	arg01, objptr
01a08     38 A0 85 F1 | 	sub	objptr, #56
01a0c     E0 C2 01 F6 | 	mov	arg02, arg01
01a10     01 C2 05 F1 | 	add	arg02, #1
01a14                 | '     bytemove(@n_string,@n_string+1,12)
01a14     0C C4 05 F6 | 	mov	arg03, #12
01a18     AC 00 B0 FD | 	call	#__system____builtin_memmove
01a1c     CC FF 9F FD | 	jmp	#LR__0070
01a20                 | LR__0071
01a20                 | ' 
01a20                 | '   if k==45
01a20     2D D0 0D F2 | 	cmp	local04, #45 wz
01a24     28 00 90 5D |  if_ne	jmp	#LR__0072
01a28     38 A0 05 F1 | 	add	objptr, #56
01a2c     D0 C2 01 F6 | 	mov	arg02, objptr
01a30     38 A0 85 F1 | 	sub	objptr, #56
01a34     E1 C0 01 F6 | 	mov	arg01, arg02
01a38     01 C0 05 F1 | 	add	arg01, #1
01a3c                 | '      bytemove(@n_string+1,@n_string,12)
01a3c     0C C4 05 F6 | 	mov	arg03, #12
01a40     84 00 B0 FD | 	call	#__system____builtin_memmove
01a44                 | '      n_string[0]:=k
01a44     38 A0 05 F1 | 	add	objptr, #56
01a48     D0 D0 41 FC | 	wrbyte	local04, objptr
01a4c     38 A0 85 F1 | 	sub	objptr, #56
01a50                 | LR__0072
01a50                 | LR__0073
01a50     38 A0 05 F1 | 	add	objptr, #56
01a54     D0 AA 01 F6 | 	mov	result1, objptr
01a58     38 A0 85 F1 | 	sub	objptr, #56
01a5c                 | ' 
01a5c                 | ' q:=@n_string
01a5c                 | ' return q
01a5c     A2 F0 03 F6 | 	mov	ptra, fp
01a60     B2 00 A0 FD | 	call	#popregs_
01a64                 | _hng026r_inttostr_ret
01a64     2D 00 64 FD | 	ret
01a68                 | 
01a68                 | ' 
01a68                 | ' pub start(apin)     |iii, m, n
01a68                 | _adccog_start
01a68                 | ' 
01a68                 | ' adcpin:=apin
01a68     04 A0 05 F1 | 	add	objptr, #4
01a6c     D0 C0 61 FC | 	wrlong	arg01, objptr
01a70     04 A0 85 F1 | 	sub	objptr, #4
01a74                 | ' coginit(16,@mixer,@aresult)
01a74     D1 C2 01 F6 | 	mov	arg02, ptr__adccog_dat__
01a78     D0 C4 01 F6 | 	mov	arg03, objptr
01a7c     10 C0 05 F6 | 	mov	arg01, #16
01a80     28 C4 61 FD | 	setq	arg03
01a84     E1 C0 F1 FC | 	coginit	arg01, arg02 wc
01a88     01 C0 65 C6 |  if_b	neg	arg01, #1
01a8c     E0 AA 01 F6 | 	mov	result1, arg01
01a90                 | ' waitms(100)
01a90     64 C0 05 F6 | 	mov	arg01, #100
01a94     50 01 B0 FD | 	call	#__system___waitms
01a98                 | _adccog_start_ret
01a98     2D 00 64 FD | 	ret
01a9c                 | hubexit
01a9c     81 00 80 FD | 	jmp	#cogexit
01aa0                 | 
01aa0                 | __system___drvl
01aa0     58 C0 61 FD | 	drvl	arg01
01aa4                 | __system___drvl_ret
01aa4     2D 00 64 FD | 	ret
01aa8                 | 
01aa8                 | __system___drvh
01aa8     59 C0 61 FD | 	drvh	arg01
01aac                 | __system___drvh_ret
01aac     2D 00 64 FD | 	ret
01ab0                 | 
01ab0                 | __system___pinstart
01ab0     40 C0 61 FD | 	dirl	arg01
01ab4     E0 C2 01 FC | 	wrpin	arg02, arg01
01ab8     E0 C4 11 FC | 	wxpin	arg03, arg01
01abc     E0 C6 21 FC | 	wypin	arg04, arg01
01ac0     41 C0 61 FD | 	dirh	arg01
01ac4                 | __system___pinstart_ret
01ac4     2D 00 64 FD | 	ret
01ac8                 | 
01ac8                 | __system____builtin_memmove
01ac8     E0 AC 01 F6 | 	mov	_var01, arg01
01acc     E1 C0 59 F2 | 	cmps	arg01, arg02 wcz
01ad0     50 00 90 3D |  if_ae	jmp	#LR__0081
01ad4     48 E5 9F FE | 	loc	pa,	#(@LR__0075-@LR__0074)
01ad8     93 00 A0 FD | 	call	#FCACHE_LOAD_
01adc                 | LR__0074
01adc     03 C4 5D F2 | 	cmps	arg03, #3 wcz
01ae0     18 00 90 ED |  if_be	jmp	#LR__0076
01ae4     E1 AE 01 FB | 	rdlong	_var02, arg02
01ae8     E0 AE 61 FC | 	wrlong	_var02, arg01
01aec     04 C0 05 F1 | 	add	arg01, #4
01af0     04 C2 05 F1 | 	add	arg02, #4
01af4     04 C4 85 F1 | 	sub	arg03, #4
01af8     E0 FF 9F FD | 	jmp	#LR__0074
01afc                 | LR__0075
01afc                 | LR__0076
01afc     E2 B0 09 F6 | 	mov	_var03, arg03 wz
01b00     4C 00 90 AD |  if_e	jmp	#LR__0087
01b04     0C E5 9F FE | 	loc	pa,	#(@LR__0079-@LR__0077)
01b08     93 00 A0 FD | 	call	#FCACHE_LOAD_
01b0c                 | LR__0077
01b0c     D8 08 D8 FC | 	rep	@LR__0080, _var03
01b10                 | LR__0078
01b10     E1 AE C1 FA | 	rdbyte	_var02, arg02
01b14     E0 AE 41 FC | 	wrbyte	_var02, arg01
01b18     01 C0 05 F1 | 	add	arg01, #1
01b1c     01 C2 05 F1 | 	add	arg02, #1
01b20                 | LR__0079
01b20                 | LR__0080
01b20     2C 00 90 FD | 	jmp	#LR__0087
01b24                 | LR__0081
01b24     E2 C0 01 F1 | 	add	arg01, arg03
01b28     E2 C2 01 F1 | 	add	arg02, arg03
01b2c     E2 B2 09 F6 | 	mov	_var04, arg03 wz
01b30     1C 00 90 AD |  if_e	jmp	#LR__0086
01b34     DC E4 9F FE | 	loc	pa,	#(@LR__0084-@LR__0082)
01b38     93 00 A0 FD | 	call	#FCACHE_LOAD_
01b3c                 | LR__0082
01b3c     D9 08 D8 FC | 	rep	@LR__0085, _var04
01b40                 | LR__0083
01b40     01 C0 85 F1 | 	sub	arg01, #1
01b44     01 C2 85 F1 | 	sub	arg02, #1
01b48     E1 AE C1 FA | 	rdbyte	_var02, arg02
01b4c     E0 AE 41 FC | 	wrbyte	_var02, arg01
01b50                 | LR__0084
01b50                 | LR__0085
01b50                 | LR__0086
01b50                 | LR__0087
01b50     D6 AA 01 F6 | 	mov	result1, _var01
01b54                 | __system____builtin_memmove_ret
01b54     2D 00 64 FD | 	ret
01b58                 | 
01b58                 | __system__longmove
01b58     E0 AC 01 F6 | 	mov	_var01, arg01
01b5c     E1 C0 59 F2 | 	cmps	arg01, arg02 wcz
01b60     28 00 90 3D |  if_ae	jmp	#LR__0092
01b64     E2 AE 09 F6 | 	mov	_var02, arg03 wz
01b68     54 00 90 AD |  if_e	jmp	#LR__0098
01b6c     A4 E4 9F FE | 	loc	pa,	#(@LR__0090-@LR__0088)
01b70     93 00 A0 FD | 	call	#FCACHE_LOAD_
01b74                 | LR__0088
01b74     D7 08 D8 FC | 	rep	@LR__0091, _var02
01b78                 | LR__0089
01b78     E1 B0 01 FB | 	rdlong	_var03, arg02
01b7c     E0 B0 61 FC | 	wrlong	_var03, arg01
01b80     04 C0 05 F1 | 	add	arg01, #4
01b84     04 C2 05 F1 | 	add	arg02, #4
01b88                 | LR__0090
01b88                 | LR__0091
01b88     34 00 90 FD | 	jmp	#LR__0098
01b8c                 | LR__0092
01b8c     E2 B2 01 F6 | 	mov	_var04, arg03
01b90     02 B2 65 F0 | 	shl	_var04, #2
01b94     D9 C0 01 F1 | 	add	arg01, _var04
01b98     D9 C2 01 F1 | 	add	arg02, _var04
01b9c     E2 B4 09 F6 | 	mov	_var05, arg03 wz
01ba0     1C 00 90 AD |  if_e	jmp	#LR__0097
01ba4     6C E4 9F FE | 	loc	pa,	#(@LR__0095-@LR__0093)
01ba8     93 00 A0 FD | 	call	#FCACHE_LOAD_
01bac                 | LR__0093
01bac     DA 08 D8 FC | 	rep	@LR__0096, _var05
01bb0                 | LR__0094
01bb0     04 C0 85 F1 | 	sub	arg01, #4
01bb4     04 C2 85 F1 | 	sub	arg02, #4
01bb8     E1 B0 01 FB | 	rdlong	_var03, arg02
01bbc     E0 B0 61 FC | 	wrlong	_var03, arg01
01bc0                 | LR__0095
01bc0                 | LR__0096
01bc0                 | LR__0097
01bc0                 | LR__0098
01bc0     D6 AA 01 F6 | 	mov	result1, _var01
01bc4                 | __system__longmove_ret
01bc4     2D 00 64 FD | 	ret
01bc8                 | 
01bc8                 | __system___pinread
01bc8     20 C0 CD F7 | 	test	arg01, #32 wz
01bcc     FF AD 01 56 |  if_ne	mov	_var01, inb
01bd0     FE AD 01 A6 |  if_e	mov	_var01, ina
01bd4     D6 AA 01 F6 | 	mov	result1, _var01
01bd8     E0 AA 41 F0 | 	shr	result1, arg01
01bdc     06 C0 45 F0 | 	shr	arg01, #6
01be0     E0 AA 41 F7 | 	zerox	result1, arg01
01be4                 | __system___pinread_ret
01be4     2D 00 64 FD | 	ret
01be8                 | 
01be8                 | __system___waitms
01be8     02 40 05 F6 | 	mov	COUNT_, #2
01bec     A3 00 A0 FD | 	call	#pushregs_
01bf0     E0 CA 01 F6 | 	mov	local01, arg01
01bf4     14 CC 05 FB | 	rdlong	local02, #20
01bf8     1C E4 9F FE | 	loc	pa,	#(@LR__0100-@LR__0099)
01bfc     93 00 A0 FD | 	call	#FCACHE_LOAD_
01c00                 | LR__0099
01c00     01 00 00 FF 
01c04     E8 CB 5D F2 | 	cmps	local01, ##1000 wcz
01c08     1F CC 61 1D |  if_a	waitx	local02
01c0c     01 00 00 1F 
01c10     E8 CB 85 11 |  if_a	sub	local01, ##1000
01c14     E8 FF 9F 1D |  if_a	jmp	#LR__0099
01c18                 | LR__0100
01c18     00 CA 5D F2 | 	cmps	local01, #0 wcz
01c1c     1C 00 90 ED |  if_be	jmp	#LR__0101
01c20     E6 04 02 F6 | 	mov	muldiva_, local02
01c24     01 00 00 FF 
01c28     E8 07 06 F6 | 	mov	muldivb_, ##1000
01c2c     C3 00 A0 FD | 	call	#divide_
01c30     03 CB 01 FD | 	qmul	local01, muldivb_
01c34     18 C0 61 FD | 	getqx	arg01
01c38     1F C0 61 FD | 	waitx	arg01
01c3c                 | LR__0101
01c3c     A2 F0 03 F6 | 	mov	ptra, fp
01c40     B2 00 A0 FD | 	call	#popregs_
01c44                 | __system___waitms_ret
01c44     2D 00 64 FD | 	ret
01c48                 | 
01c48                 | __system___waitus
01c48     02 40 05 F6 | 	mov	COUNT_, #2
01c4c     A3 00 A0 FD | 	call	#pushregs_
01c50     E0 CA 01 F6 | 	mov	local01, arg01
01c54     14 CC 05 FB | 	rdlong	local02, #20
01c58     BC E3 9F FE | 	loc	pa,	#(@LR__0103-@LR__0102)
01c5c     93 00 A0 FD | 	call	#FCACHE_LOAD_
01c60                 | LR__0102
01c60     A1 07 00 FF 
01c64     40 CA 5D F2 | 	cmps	local01, ##1000000 wcz
01c68     1F CC 61 1D |  if_a	waitx	local02
01c6c     A1 07 00 1F 
01c70     40 CA 85 11 |  if_a	sub	local01, ##1000000
01c74     E8 FF 9F 1D |  if_a	jmp	#LR__0102
01c78                 | LR__0103
01c78     00 CA 5D F2 | 	cmps	local01, #0 wcz
01c7c     1C 00 90 ED |  if_be	jmp	#LR__0104
01c80     E6 04 02 F6 | 	mov	muldiva_, local02
01c84     A1 07 00 FF 
01c88     40 06 06 F6 | 	mov	muldivb_, ##1000000
01c8c     C3 00 A0 FD | 	call	#divide_
01c90     03 CB 01 FD | 	qmul	local01, muldivb_
01c94     18 C0 61 FD | 	getqx	arg01
01c98     1F C0 61 FD | 	waitx	arg01
01c9c                 | LR__0104
01c9c     A2 F0 03 F6 | 	mov	ptra, fp
01ca0     B2 00 A0 FD | 	call	#popregs_
01ca4                 | __system___waitus_ret
01ca4     2D 00 64 FD | 	ret
01ca8                 | 
01ca8                 | LR__0105
01ca8     53 74 61 72 
01cac     74 69 6E 67 
01cb0     20 52 50 69 
01cb4     20 30       | 	byte	"Starting RPi 0"
01cb6     00          | 	byte	0
01cb7                 | LR__0106
01cb7     53 74 61 72 
01cbb     74 69 6E 67 
01cbf     20 52 50 69 
01cc3     20 31       | 	byte	"Starting RPi 1"
01cc5     00          | 	byte	0
01cc6                 | LR__0107
01cc6     20 20 20 20 
01cca     20          | 	byte	"     "
01ccb     00          | 	byte	0
01ccc                 | LR__0108
01ccc     56 6F 6C 74 
01cd0     61 67 65 3A 
01cd4     20          | 	byte	"Voltage: "
01cd5     00          | 	byte	0
01cd6                 | LR__0109
01cd6     2E          | 	byte	"."
01cd7     00          | 	byte	0
01cd8                 | LR__0110
01cd8     56          | 	byte	"V"
01cd9     00          | 	byte	0
01cda                 | LR__0111
01cda     56          | 	byte	"V"
01cdb     00          | 	byte	0
01cdc                 | LR__0112
01cdc     53 42 55 53 
01ce0     3A          | 	byte	"SBUS:"
01ce1     00          | 	byte	0
01ce2     00 00       | 	alignl
01ce4                 | _hng026r_dat_
01ce4     00 00 00 00 
      ...             
01d14     00 00 00 00 
01d18     00 00 00    | st_font        file "st4font.def"
01d1b     FF FF 00 00 
01d1f     00 00 00 00 
01d23     00 18 18 18 
01d27     18 18 18 18 | 	byte	$ff, $ff, $00, $00, $00, $00, $00, $00, $00, $18, $18, $18, $18, $18, $18, $18
01d2b     18 18 18 18 
01d2f     18 18 18 18 
01d33     18          | 	byte	$18[9]
01d34     00 00 00 00 
01d38     00 00 00    | 	byte	$00[7]
01d3b     FF FF 18 18 
01d3f     18 18 18 18 
01d43     18 18 18 18 
01d47     18 18 18 18 | 	byte	$ff, $ff, $18, $18, $18, $18, $18, $18, $18, $18, $18, $18, $18, $18, $18, $18
01d4b     FF FF 00 00 
01d4f     00 00 00 00 
01d53     00 18 18 18 
01d57     18 18 18 18 | 	byte	$ff, $ff, $00, $00, $00, $00, $00, $00, $00, $18, $18, $18, $18, $18, $18, $18
01d5b     1F 1F 18 18 
01d5f     18 18 18 18 
01d63     18 18 18 18 
01d67     18 18 18 18 | 	byte	$1f, $1f, $18, $18, $18, $18, $18, $18, $18, $18, $18, $18, $18, $18, $18, $18
01d6b     F8 F8 18 18 
01d6f     18 18 18 18 
01d73     18 00 00 00 
01d77     00 00 00 00 | 	byte	$f8, $f8, $18, $18, $18, $18, $18, $18, $18, $00, $00, $00, $00, $00, $00, $00
01d7b     1F 1F 18 18 
01d7f     18 18 18 18 
01d83     18 00 00 00 
01d87     00 00 00 00 | 	byte	$1f, $1f, $18, $18, $18, $18, $18, $18, $18, $00, $00, $00, $00, $00, $00, $00
01d8b     F8 F8 18 18 
01d8f     18 18 18 18 
01d93     18 18 18 18 
01d97     18 18 18 18 | 	byte	$f8, $f8, $18, $18, $18, $18, $18, $18, $18, $18, $18, $18, $18, $18, $18, $18
01d9b     1F 1F 00 00 
01d9f     00 00 00 00 
01da3     00 18 18 18 
01da7     18 18 18 18 | 	byte	$1f, $1f, $00, $00, $00, $00, $00, $00, $00, $18, $18, $18, $18, $18, $18, $18
01dab     F8 F8 00 00 
01daf     00 00 00 00 
01db3     00 18 18 18 
01db7     18 18 18 18 | 	byte	$f8, $f8, $00, $00, $00, $00, $00, $00, $00, $18, $18, $18, $18, $18, $18, $18
01dbb     FF FF 18 18 
01dbf     18 18 18 18 
01dc3     18 00 00 18 
01dc7     3C 7E 66 66 | 	byte	$ff, $ff, $18, $18, $18, $18, $18, $18, $18, $00, $00, $18, $3c, $7e, $66, $66
01dcb     66 7E 7E 66 
01dcf     66 66 66 30 
01dd3     18 00 00 7E 
01dd7     7E 06 06 3E | 	byte	$66, $7e, $7e, $66, $66, $66, $66, $30, $18, $00, $00, $7e, $7e, $06, $06, $3e
01ddb     3E 06 06 06 
01ddf     06 7E 7E 18 
01de3     0C 30 18 3C 
01de7     7E 66 66 06 | 	byte	$3e, $06, $06, $06, $06, $7e, $7e, $18, $0c, $30, $18, $3c, $7e, $66, $66, $06
01deb     06 06 06 66 
01def     66 7E 3C 00 
01df3     00 30 18 66 
01df7     66 66 6E 6E | 	byte	$06, $06, $06, $66, $66, $7e, $3c, $00, $00, $30, $18, $66, $66, $66, $6e, $6e
01dfb     7E 7E 76 76 
01dff     66 66 66 00 
01e03     00 30 18 7C 
01e07     7E 06 06 0E | 	byte	$7e, $7e, $76, $76, $66, $66, $66, $00, $00, $30, $18, $7c, $7e, $06, $06, $0e
01e0b     1C 38 70 60 
01e0f     60 7E 3E 00 
01e13     00 30 18 7E 
01e17     7E 30 30 18 | 	byte	$1c, $38, $70, $60, $60, $7e, $3e, $00, $00, $30, $18, $7e, $7e, $30, $30, $18
01e1b     18 0C 0C 06 
01e1f     06 7E 7E 00 
01e23     00 18 18 00 
01e27     7E 7E 30 30 | 	byte	$18, $0c, $0c, $06, $06, $7e, $7e, $00, $00, $18, $18, $00, $7e, $7e, $30, $30
01e2b     18 18 0C 0C 
01e2f     06 7E 7E 00 
01e33     00 30 18 3C 
01e37     7E 66 66 66 | 	byte	$18, $18, $0c, $0c, $06, $7e, $7e, $00, $00, $30, $18, $3c, $7e, $66, $66, $66
01e3b     66 66 66 66 
01e3f     66          | 	byte	$66[5]
01e40     7E 3C 00 00 
01e44     00 00 06 06 
01e48     06 06 16 1E 
01e4c     0E 06 06 06 | 	byte	$7e, $3c, $00, $00, $00, $00, $06, $06, $06, $06, $16, $1e, $0e, $06, $06, $06
01e50     7E 7E 00 00 
01e54     00 00 00 00 
01e58     00 3C 7C 60 
01e5c     7C 7E 66 66 | 	byte	$7e, $7e, $00, $00, $00, $00, $00, $00, $00, $3c, $7c, $60, $7c, $7e, $66, $66
01e60     7E 7C 30 18 
01e64     00 00 00 00 
01e68     00 3C 7E 66 
01e6c     66 7E 06 06 | 	byte	$7e, $7c, $30, $18, $00, $00, $00, $00, $00, $3c, $7e, $66, $66, $7e, $06, $06
01e70     7E 7C 18 0C 
01e74     00 00 30 18 
01e78     00 3C 3E 06 
01e7c     06 06 06 06 | 	byte	$7e, $7c, $18, $0c, $00, $00, $30, $18, $00, $3c, $3e, $06, $06, $06, $06, $06
01e80     7E 7C 00 00 
01e84     00 00 30 18 
01e88     00 3E 7E 66 
01e8c     66 66 66 66 | 	byte	$7e, $7c, $00, $00, $00, $00, $30, $18, $00, $3e, $7e, $66, $66, $66, $66, $66
01e90     66 66 00 00 
01e94     00 00 30 18 
01e98     00 7C 7E 06 
01e9c     0E 3C 70 60 | 	byte	$66, $66, $00, $00, $00, $00, $30, $18, $00, $7c, $7e, $06, $0e, $3c, $70, $60
01ea0     7E 3E 00 00 
01ea4     00 00 30 18 
01ea8     00 7E 7E 30 
01eac     18 18 0C 0C | 	byte	$7e, $3e, $00, $00, $00, $00, $30, $18, $00, $7e, $7e, $30, $18, $18, $0c, $0c
01eb0     7E 7E 00 00 
01eb4     00 00 18 18 
01eb8     00 7E 7E 30 
01ebc     18 18 0C 0C | 	byte	$7e, $7e, $00, $00, $00, $00, $18, $18, $00, $7e, $7e, $30, $18, $18, $0c, $0c
01ec0     7E 7E 00 00 
01ec4     00 00 30 18 
01ec8     00 3C 7E 66 
01ecc     66 66 66 66 | 	byte	$7e, $7e, $00, $00, $00, $00, $30, $18, $00, $3c, $7e, $66, $66, $66, $66, $66
01ed0     7E 3C 00 00 
01ed4     00 00 1C 1C 
01ed8     18 18 38 3C 
01edc     1C 18 18 18 | 	byte	$7e, $3c, $00, $00, $00, $00, $1c, $1c, $18, $18, $38, $3c, $1c, $18, $18, $18
01ee0     3C 3C 00 00 
01ee4     00 00 00 00 
01ee8     00 00 00 00 
01eec     00 00 00 00 | 	byte	$3c, $3c, $00, $00, $00, $00, $00, $00, $00, $00, $00, $00, $00, $00, $00, $00
01ef0     00 00 00 00 
01ef4     00 00       | 	byte	$00[6]
01ef6     18 18 18 18 
01efa     18 18 18 18 | 	byte	$18[8]
01efe     00 00 18 18 
01f02     00 00 00 00 
01f06     66 66 66 66 
01f0a     00 00 00 00 | 	byte	$00, $00, $18, $18, $00, $00, $00, $00, $66, $66, $66, $66, $00, $00, $00, $00
01f0e     00 00 00 00 
01f12     00 00 00 00 
01f16     00          | 	byte	$00[9]
01f17     66 66 FF FF 
01f1b     66 66 FF FF 
01f1f     66 66 00 00 
01f23     00 00 18 18 | 	byte	$66, $66, $ff, $ff, $66, $66, $ff, $ff, $66, $66, $00, $00, $00, $00, $18, $18
01f27     7C 7E 06 06 
01f2b     3E 7C 60 60 
01f2f     7E 3E 18 18 
01f33     00 00 00 66 | 	byte	$7c, $7e, $06, $06, $3e, $7c, $60, $60, $7e, $3e, $18, $18, $00, $00, $00, $66
01f37     66 30 30 18 
01f3b     18 0C 0C 66 
01f3f     66 00 00 00 
01f43     00 00 3C 7E | 	byte	$66, $30, $30, $18, $18, $0c, $0c, $66, $66, $00, $00, $00, $00, $00, $3c, $7e
01f47     66 66 3C 1C 
01f4b     1C FC FE 66 
01f4f     66 FE FC 00 
01f53     00 00 00 18 | 	byte	$66, $66, $3c, $1c, $1c, $fc, $fe, $66, $66, $fe, $fc, $00, $00, $00, $00, $18
01f57     18 18 18 18 
01f5b     00 00 00 00 
01f5f     00 00 00 00 
01f63     00 00 00 30 | 	byte	$18, $18, $18, $18, $00, $00, $00, $00, $00, $00, $00, $00, $00, $00, $00, $30
01f67     18 1C 0C 0C 
01f6b     0C 0C 0C 0C 
01f6f     1C 18 30 00 
01f73     00 00 00 0C | 	byte	$18, $1c, $0c, $0c, $0c, $0c, $0c, $0c, $1c, $18, $30, $00, $00, $00, $00, $0c
01f77     18 38 30 30 
01f7b     30 30 30 30 
01f7f     38 18 0C 00 
01f83     00 00 00 00 | 	byte	$18, $38, $30, $30, $30, $30, $30, $30, $38, $18, $0c, $00, $00, $00, $00, $00
01f87     66 66 3C 3C 
01f8b     FF FF 3C 3C 
01f8f     66 66 00 00 
01f93     00 00 00 00 | 	byte	$66, $66, $3c, $3c, $ff, $ff, $3c, $3c, $66, $66, $00, $00, $00, $00, $00, $00
01f97     00 18 18 18 
01f9b     7E 7E 18 18 
01f9f     18 00 00 00 
01fa3     00 00 00 00 | 	byte	$00, $18, $18, $18, $7e, $7e, $18, $18, $18, $00, $00, $00, $00, $00, $00, $00
01fa7     00 00 00 00 
01fab     00 00       | 	byte	$00[6]
01fad     18 18 18 18 
01fb1     18          | 	byte	$18[5]
01fb2     0C 04 00 00 
01fb6     00 00 00 00 
01fba     7E 7E 00 00 
01fbe     00 00 00 00 | 	byte	$0c, $04, $00, $00, $00, $00, $00, $00, $7e, $7e, $00, $00, $00, $00, $00, $00
01fc2     00 00 00 00 
01fc6     00 00 00 00 
01fca     00 00 00 00 
01fce     00          | 	byte	$00[13]
01fcf     18 18 18 00 
01fd3     00 00 00 60 
01fd7     60 60 30 30 
01fdb     18 18 0C 0C | 	byte	$18, $18, $18, $00, $00, $00, $00, $60, $60, $60, $30, $30, $18, $18, $0c, $0c
01fdf     06 06 06 00 
01fe3     00 00 00 3C 
01fe7     7E 66 66 66 
01feb     76 6E 66 66 | 	byte	$06, $06, $06, $00, $00, $00, $00, $3c, $7e, $66, $66, $66, $76, $6e, $66, $66
01fef     66 7E 3C 00 
01ff3     00 00 00 18 
01ff7     18 1C 1C 18 
01ffb     18 18 18 18 | 	byte	$66, $7e, $3c, $00, $00, $00, $00, $18, $18, $1c, $1c, $18, $18, $18, $18, $18
01fff     18 7E 7E 00 
02003     00 00 00 3C 
02007     7E 66 66 30 
0200b     30 18 18 0C | 	byte	$18, $7e, $7e, $00, $00, $00, $00, $3c, $7e, $66, $66, $30, $30, $18, $18, $0c
0200f     0C 7E 7E 00 
02013     00 00 00 7E 
02017     7E 30 30 18 
0201b     18 30 30 66 | 	byte	$0c, $7e, $7e, $00, $00, $00, $00, $7e, $7e, $30, $30, $18, $18, $30, $30, $66
0201f     66 7E 3C 00 
02023     00 00 00 30 
02027     30 38 38 3C 
0202b     3C 36 36 7E | 	byte	$66, $7e, $3c, $00, $00, $00, $00, $30, $30, $38, $38, $3c, $3c, $36, $36, $7e
0202f     7E 30 30 00 
02033     00 00 00 7E 
02037     7E 06 06 3E 
0203b     7E 60 60 60 | 	byte	$7e, $30, $30, $00, $00, $00, $00, $7e, $7e, $06, $06, $3e, $7e, $60, $60, $60
0203f     66 7E 3C 00 
02043     00 00 00 38 
02047     3C 0E 06 06 
0204b     3E 7E 66 66 | 	byte	$66, $7e, $3c, $00, $00, $00, $00, $38, $3c, $0e, $06, $06, $3e, $7e, $66, $66
0204f     66 7E 3C 00 
02053     00 00 00 7E 
02057     7E 60 60 30 
0205b     30 18 18 0C | 	byte	$66, $7e, $3c, $00, $00, $00, $00, $7e, $7e, $60, $60, $30, $30, $18, $18, $0c
0205f     0C 0C 0C 00 
02063     00 00 00 3C 
02067     7E 66 66 3C 
0206b     3C 66 66 66 | 	byte	$0c, $0c, $0c, $00, $00, $00, $00, $3c, $7e, $66, $66, $3c, $3c, $66, $66, $66
0206f     66 7E 3C 00 
02073     00 00 00 3C 
02077     7E 66 66 7E 
0207b     7C 60 60 60 | 	byte	$66, $7e, $3c, $00, $00, $00, $00, $3c, $7e, $66, $66, $7e, $7c, $60, $60, $60
0207f     70 3C 1C 00 
02083     00 00 00 00 
02087     00 00 18 18 
0208b     18 00 00 00 | 	byte	$70, $3c, $1c, $00, $00, $00, $00, $00, $00, $00, $18, $18, $18, $00, $00, $00
0208f     18 18 18 00 
02093     00 00 00 00 
02097     00 00 18 18 
0209b     18 00 00 18 | 	byte	$18, $18, $18, $00, $00, $00, $00, $00, $00, $00, $18, $18, $18, $00, $00, $18
0209f     18 18 18 0C 
020a3     04 00 00 00 
020a7     70 38 1C 0E 
020ab     07 0E 1C 38 | 	byte	$18, $18, $18, $0c, $04, $00, $00, $00, $70, $38, $1c, $0e, $07, $0e, $1c, $38
020af     70 00 00 00 
020b3     00 00 00 00 
020b7     00 00 7E 7E 
020bb     00 00 7E 7E | 	byte	$70, $00, $00, $00, $00, $00, $00, $00, $00, $00, $7e, $7e, $00, $00, $7e, $7e
020bf     00 00 00 00 
020c3     00 00 00 00 | 	byte	$00[8]
020c7     0E 1C 38 70 
020cb     E0 70 38 1C 
020cf     0E 00 00 00 
020d3     00 00 00 3C | 	byte	$0e, $1c, $38, $70, $e0, $70, $38, $1c, $0e, $00, $00, $00, $00, $00, $00, $3c
020d7     7E 66 66 30 
020db     30 18 18 18 
020df     00 18 18 00 
020e3     00 00 00 3C | 	byte	$7e, $66, $66, $30, $30, $18, $18, $18, $00, $18, $18, $00, $00, $00, $00, $3c
020e7     7E 66 66 66 
020eb     66 36 06 66 
020ef     66 7E 3C 00 
020f3     00 00 00 18 | 	byte	$7e, $66, $66, $66, $66, $36, $06, $66, $66, $7e, $3c, $00, $00, $00, $00, $18
020f7     3C 7E 66 66 
020fb     66 7E 7E 66 
020ff     66 66 66 00 
02103     00 00 00 3E | 	byte	$3c, $7e, $66, $66, $66, $7e, $7e, $66, $66, $66, $66, $00, $00, $00, $00, $3e
02107     7E 66 66 7E 
0210b     3E 66 66 66 
0210f     66 7E 3E 00 
02113     00 00 00 3C | 	byte	$7e, $66, $66, $7e, $3e, $66, $66, $66, $66, $7e, $3e, $00, $00, $00, $00, $3c
02117     7E 66 66 06 
0211b     06 06 06 66 
0211f     66 7E 3C 00 
02123     00 00 00 3E | 	byte	$7e, $66, $66, $06, $06, $06, $06, $66, $66, $7e, $3c, $00, $00, $00, $00, $3e
02127     7E 66 66 66 
0212b     66 66 66 66 
0212f     66 7E 3E 00 
02133     00 00 00 7E | 	byte	$7e, $66, $66, $66, $66, $66, $66, $66, $66, $7e, $3e, $00, $00, $00, $00, $7e
02137     7E 06 06 3E 
0213b     3E 06 06 06 
0213f     06 7E 7E 00 
02143     00 00 00 7E | 	byte	$7e, $06, $06, $3e, $3e, $06, $06, $06, $06, $7e, $7e, $00, $00, $00, $00, $7e
02147     7E 06 06 3E 
0214b     3E 06 06 06 
0214f     06 06 06 00 
02153     00 00 00 7C | 	byte	$7e, $06, $06, $3e, $3e, $06, $06, $06, $06, $06, $06, $00, $00, $00, $00, $7c
02157     7E 06 06 76 
0215b     76 66 66 66 
0215f     66 7E 3C 00 
02163     00 00 00 66 | 	byte	$7e, $06, $06, $76, $76, $66, $66, $66, $66, $7e, $3c, $00, $00, $00, $00, $66
02167     66 66 66 7E 
0216b     7E 66 66 66 
0216f     66 66 66 00 
02173     00 00 00 7E | 	byte	$66, $66, $66, $7e, $7e, $66, $66, $66, $66, $66, $66, $00, $00, $00, $00, $7e
02177     7E 18 18 18 
0217b     18 18 18 18 
0217f     18 7E 7E 00 
02183     00 00 00 60 | 	byte	$7e, $18, $18, $18, $18, $18, $18, $18, $18, $7e, $7e, $00, $00, $00, $00, $60
02187     60 60 60 60 
0218b     60 60 60    | 	byte	$60[7]
0218e     66 66 7E 3C 
02192     00 00 00 00 
02196     66 66 36 36 
0219a     1E 1E 36 36 | 	byte	$66, $66, $7e, $3c, $00, $00, $00, $00, $66, $66, $36, $36, $1e, $1e, $36, $36
0219e     66 66 C6 C6 
021a2     00 00 00 00 
021a6     06 06 06 06 
021aa     06 06 06 06 | 	byte	$66, $66, $c6, $c6, $00, $00, $00, $00, $06, $06, $06, $06, $06, $06, $06, $06
021ae     06 06 7E 7E 
021b2     00 00 00 00 
021b6     C6 C6 EE EE 
021ba     FE D6 D6 C6 | 	byte	$06, $06, $7e, $7e, $00, $00, $00, $00, $c6, $c6, $ee, $ee, $fe, $d6, $d6, $c6
021be     C6 C6 C6 C6 
021c2     00 00 00 00 
021c6     66 66 66 6E 
021ca     6E 7E 7E 76 | 	byte	$c6, $c6, $c6, $c6, $00, $00, $00, $00, $66, $66, $66, $6e, $6e, $7e, $7e, $76
021ce     76 66 66 66 
021d2     00 00 00 00 
021d6     3C 7E 66 66 
021da     66 66 66 66 | 	byte	$76, $66, $66, $66, $00, $00, $00, $00, $3c, $7e, $66, $66, $66, $66, $66, $66
021de     66 66 7E 3C 
021e2     00 00 00 00 
021e6     3E 7E 66 66 
021ea     66 66 7E 3E | 	byte	$66, $66, $7e, $3c, $00, $00, $00, $00, $3e, $7e, $66, $66, $66, $66, $7e, $3e
021ee     06 06 06 06 
021f2     00 00 00 00 
021f6     3C 7E 66 66 
021fa     66 66 66 66 | 	byte	$06, $06, $06, $06, $00, $00, $00, $00, $3c, $7e, $66, $66, $66, $66, $66, $66
021fe     66 56 3E 6C 
02202     00 00 00 00 
02206     3E 7E 66 66 
0220a     66 7E 3E 36 | 	byte	$66, $56, $3e, $6c, $00, $00, $00, $00, $3e, $7e, $66, $66, $66, $7e, $3e, $36
0220e     66 66 C6 C6 
02212     00 00 00 00 
02216     7C 7E 06 06 
0221a     0E 1C 38 70 | 	byte	$66, $66, $c6, $c6, $00, $00, $00, $00, $7c, $7e, $06, $06, $0e, $1c, $38, $70
0221e     60 60 7E 3E 
02222     00 00 00 00 
02226     7E 7E 18 18 
0222a     18 18 18 18 | 	byte	$60, $60, $7e, $3e, $00, $00, $00, $00, $7e, $7e, $18, $18, $18, $18, $18, $18
0222e     18 18 18 18 
02232     00 00 00 00 
02236     66 66 66 66 
0223a     66 66 66 66 | 	byte	$18, $18, $18, $18, $00, $00, $00, $00, $66, $66, $66, $66, $66, $66, $66, $66
0223e     66 66 7E 3C 
02242     00 00 00 00 
02246     66 66 66 66 
0224a     66 66 66 66 | 	byte	$66, $66, $7e, $3c, $00, $00, $00, $00, $66, $66, $66, $66, $66, $66, $66, $66
0224e     3C 3C 18 18 
02252     00 00 00 00 
02256     C6 C6 C6 C6 
0225a     C6 D6 D6 FE | 	byte	$3c, $3c, $18, $18, $00, $00, $00, $00, $c6, $c6, $c6, $c6, $c6, $d6, $d6, $fe
0225e     FE EE C6 82 
02262     00 00 00 00 
02266     66 66 66 3C 
0226a     3C 18 18 3C | 	byte	$fe, $ee, $c6, $82, $00, $00, $00, $00, $66, $66, $66, $3c, $3c, $18, $18, $3c
0226e     3C 66 66 66 
02272     00 00 00 00 
02276     66 66 66 66 
0227a     66 3C 3C 18 | 	byte	$3c, $66, $66, $66, $00, $00, $00, $00, $66, $66, $66, $66, $66, $3c, $3c, $18
0227e     18 18 18 18 
02282     00 00 00 00 
02286     7E 7E 30 30 
0228a     18 18 0C 0C | 	byte	$18, $18, $18, $18, $00, $00, $00, $00, $7e, $7e, $30, $30, $18, $18, $0c, $0c
0228e     06 06 7E 7E 
02292     00 00 00 00 
02296     3C 3C 0C 0C 
0229a     0C 0C 0C 0C | 	byte	$06, $06, $7e, $7e, $00, $00, $00, $00, $3c, $3c, $0c, $0c, $0c, $0c, $0c, $0c
0229e     0C 0C 3C 3C 
022a2     00 00 00 00 
022a6     06 06 0C 0C 
022aa     18 18 30 30 | 	byte	$0c, $0c, $3c, $3c, $00, $00, $00, $00, $06, $06, $0c, $0c, $18, $18, $30, $30
022ae     60 60 C0 C0 
022b2     00 00 00 00 
022b6     3C 3C 30 30 
022ba     30 30 30 30 | 	byte	$60, $60, $c0, $c0, $00, $00, $00, $00, $3c, $3c, $30, $30, $30, $30, $30, $30
022be     30 30 3C 3C 
022c2     00 00 00 00 
022c6     18 18 3C 3C 
022ca     66 66 00 00 | 	byte	$30, $30, $3c, $3c, $00, $00, $00, $00, $18, $18, $3c, $3c, $66, $66, $00, $00
022ce     00 00 00 00 
022d2     00 00 00 00 
022d6     00 00 00 00 
022da     00 00 00 00 
022de     00 00       | 	byte	$00[18]
022e0     FE FE 00 00 
022e4     00 00 0C 0C 
022e8     18 18 00 00 
022ec     00 00 00 00 | 	byte	$fe, $fe, $00, $00, $00, $00, $0c, $0c, $18, $18, $00, $00, $00, $00, $00, $00
022f0     00 00 00 00 
022f4     00 00 00 00 
022f8     00          | 	byte	$00[9]
022f9     3C 7C 60 7C 
022fd     7E 66 66 7E 
02301     7C 00 00 00 
02305     00 06 06 06 | 	byte	$3c, $7c, $60, $7c, $7e, $66, $66, $7e, $7c, $00, $00, $00, $00, $06, $06, $06
02309     3E 7E 66 66 
0230d     66 66 66 7E 
02311     3E 00 00 00 
02315     00 00 00 00 | 	byte	$3e, $7e, $66, $66, $66, $66, $66, $7e, $3e, $00, $00, $00, $00, $00, $00, $00
02319     3C 3E 06 06 
0231d     06 06 06 7E 
02321     7C 00 00 00 
02325     00 60 60 60 | 	byte	$3c, $3e, $06, $06, $06, $06, $06, $7e, $7c, $00, $00, $00, $00, $60, $60, $60
02329     7C 7E 66 66 
0232d     66 66 66 7E 
02331     7C 00 00 00 
02335     00 00 00 00 | 	byte	$7c, $7e, $66, $66, $66, $66, $66, $7e, $7c, $00, $00, $00, $00, $00, $00, $00
02339     3C 7E 66 66 
0233d     7E 06 06 7E 
02341     7C 00 00 00 
02345     00 70 78 18 | 	byte	$3c, $7e, $66, $66, $7e, $06, $06, $7e, $7c, $00, $00, $00, $00, $70, $78, $18
02349     18 7E 7E 18 
0234d     18 18 18 18 
02351     18 00 00 00 
02355     00 00 00 00 | 	byte	$18, $7e, $7e, $18, $18, $18, $18, $18, $18, $00, $00, $00, $00, $00, $00, $00
02359     7C 7E 66 66 
0235d     66 66 7E 7C 
02361     60 7E 3E 00 
02365     00 06 06 06 | 	byte	$7c, $7e, $66, $66, $66, $66, $7e, $7c, $60, $7e, $3e, $00, $00, $06, $06, $06
02369     3E 7E 66 66 
0236d     66 66 66 66 
02371     66 00 00 00 
02375     00 18 18 00 | 	byte	$3e, $7e, $66, $66, $66, $66, $66, $66, $66, $00, $00, $00, $00, $18, $18, $00
02379     1C 1C 18 18 
0237d     18 18 18 3C 
02381     3C 00 00 00 
02385     00 30 30 00 | 	byte	$1c, $1c, $18, $18, $18, $18, $18, $3c, $3c, $00, $00, $00, $00, $30, $30, $00
02389     30 30 30 30 
0238d     30 30 30 30 
02391     30          | 	byte	$30[9]
02392     3E 1E 00 00 
02396     06 06 06 36 
0239a     36 1E 1E 1E 
0239e     36 36 66 66 | 	byte	$3e, $1e, $00, $00, $06, $06, $06, $36, $36, $1e, $1e, $1e, $36, $36, $66, $66
023a2     00 00 00 00 
023a6     1C 1C 18 18 
023aa     18 18 18 18 
023ae     18 18 3C 3C | 	byte	$00, $00, $00, $00, $1c, $1c, $18, $18, $18, $18, $18, $18, $18, $18, $3c, $3c
023b2     00 00 00 00 
023b6     00 00 00    | 	byte	$00[7]
023b9     6C FE FE D6 
023bd     D6 C6 C6 C6 
023c1     C6 00 00 00 
023c5     00 00 00 00 | 	byte	$6c, $fe, $fe, $d6, $d6, $c6, $c6, $c6, $c6, $00, $00, $00, $00, $00, $00, $00
023c9     3E 7E 66 66 
023cd     66 66 66 66 
023d1     66 00 00 00 
023d5     00 00 00 00 | 	byte	$3e, $7e, $66, $66, $66, $66, $66, $66, $66, $00, $00, $00, $00, $00, $00, $00
023d9     3C 7E 66 66 
023dd     66 66 66 7E 
023e1     3C 00 00 00 
023e5     00 00 00 00 | 	byte	$3c, $7e, $66, $66, $66, $66, $66, $7e, $3c, $00, $00, $00, $00, $00, $00, $00
023e9     3E 7E 66 66 
023ed     66 66 66 7E 
023f1     3E 06 06 00 
023f5     00 00 00 00 | 	byte	$3e, $7e, $66, $66, $66, $66, $66, $7e, $3e, $06, $06, $00, $00, $00, $00, $00
023f9     7C 7E 66 66 
023fd     66 66 66 7E 
02401     7C 60 60 00 
02405     00 00 00 00 | 	byte	$7c, $7e, $66, $66, $66, $66, $66, $7e, $7c, $60, $60, $00, $00, $00, $00, $00
02409     3E 7E 66 06 
0240d     06 06 06 06 
02411     06 00 00 00 
02415     00 00 00 00 | 	byte	$3e, $7e, $66, $06, $06, $06, $06, $06, $06, $00, $00, $00, $00, $00, $00, $00
02419     7C 7E 06 0E 
0241d     3C 70 60 7E 
02421     3E 00 00 00 
02425     00 00 18 18 | 	byte	$7c, $7e, $06, $0e, $3c, $70, $60, $7e, $3e, $00, $00, $00, $00, $00, $18, $18
02429     7E 7E 18 18 
0242d     18 18 18 78 
02431     70 00 00 00 
02435     00 00 00 00 | 	byte	$7e, $7e, $18, $18, $18, $18, $18, $78, $70, $00, $00, $00, $00, $00, $00, $00
02439     66 66 66 66 
0243d     66 66 66    | 	byte	$66[7]
02440     7E 7C 00 00 
02444     00 00 00 00 
02448     00 66 66 66 
0244c     66 66 3C 3C | 	byte	$7e, $7c, $00, $00, $00, $00, $00, $00, $00, $66, $66, $66, $66, $66, $3c, $3c
02450     18 18 00 00 
02454     00 00 00 00 
02458     00 C6 C6 D6 
0245c     D6 FE FE EE | 	byte	$18, $18, $00, $00, $00, $00, $00, $00, $00, $c6, $c6, $d6, $d6, $fe, $fe, $ee
02460     C6 82 00 00 
02464     00 00 00 00 
02468     00 66 66 3C 
0246c     3C 18 3C 3C | 	byte	$c6, $82, $00, $00, $00, $00, $00, $00, $00, $66, $66, $3c, $3c, $18, $3c, $3c
02470     66 66 00 00 
02474     00 00 00 00 
02478     00 66 66 66 
0247c     66 66 66 7E | 	byte	$66, $66, $00, $00, $00, $00, $00, $00, $00, $66, $66, $66, $66, $66, $66, $7e
02480     7C 60 7E 3E 
02484     00 00 00 00 
02488     00 7E 7E 30 
0248c     18 18 0C 0C | 	byte	$7c, $60, $7e, $3e, $00, $00, $00, $00, $00, $7e, $7e, $30, $18, $18, $0c, $0c
02490     7E 7E 00 00 
02494     00 00 30 18 
02498     18 18 18 0C 
0249c     0C 18 18 18 | 	byte	$7e, $7e, $00, $00, $00, $00, $30, $18, $18, $18, $18, $0c, $0c, $18, $18, $18
024a0     18 30 00 00 
024a4     00 00 18 18 
024a8     18 18 18 18 
024ac     18 18 18 18 | 	byte	$18, $30, $00, $00, $00, $00, $18, $18, $18, $18, $18, $18, $18, $18, $18, $18
024b0     18 18 00 00 
024b4     00 00 0C 18 
024b8     18 18 18 30 
024bc     30 18 18 18 | 	byte	$18, $18, $00, $00, $00, $00, $0c, $18, $18, $18, $18, $30, $30, $18, $18, $18
024c0     18 0C 00 00 
024c4     00 00 6C 7E 
024c8     36 00 00 00 
024cc     00 00 00 00 | 	byte	$18, $0c, $00, $00, $00, $00, $6c, $7e, $36, $00, $00, $00, $00, $00, $00, $00
024d0     00 00 00 00 
024d4     00 00 00 00 
024d8     00          | 	byte	$00[9]
024d9     18 18 18 18 
024dd     18 18 00 00 
024e1     00 00 00    | 	byte	$18, $18, $18, $18, $18, $18, $00, $00, $00, $00, $00
024e4     00 00 00 00 
024e8     00          | ataripalette   file "ataripalettep2.def"
024e9     11 11 11 00 
024ed     22 22 22 00 
024f1     33 33 33 00 
024f5     44 44 44 00 | 	byte	$11, $11, $11, $00, $22, $22, $22, $00, $33, $33, $33, $00, $44, $44, $44, $00
024f9     55 55 55 00 
024fd     66 66 66 00 
02501     77 77 77 00 
02505     88 88 88 00 | 	byte	$55, $55, $55, $00, $66, $66, $66, $00, $77, $77, $77, $00, $88, $88, $88, $00
02509     99 99 99 00 
0250d     AA AA AA 00 
02511     BB BB BB 00 
02515     CC CC CC 00 | 	byte	$99, $99, $99, $00, $aa, $aa, $aa, $00, $bb, $bb, $bb, $00, $cc, $cc, $cc, $00
02519     DD DD DD 00 
0251d     EE EE EE 00 
02521     FF FF FF 00 
02525     00 0A 20 00 | 	byte	$dd, $dd, $dd, $00, $ee, $ee, $ee, $00, $ff, $ff, $ff, $00, $00, $0a, $20, $00
02529     00 14 40 00 
0252d     00 1E 60 00 
02531     00 28 80 00 
02535     00 32 9F 00 | 	byte	$00, $14, $40, $00, $00, $1e, $60, $00, $00, $28, $80, $00, $00, $32, $9f, $00
02539     00 3C BF 00 
0253d     00 46 DF 00 
02541     00 50 FF 00 
02545     1C 63 FF 00 | 	byte	$00, $3c, $bf, $00, $00, $46, $df, $00, $00, $50, $ff, $00, $1c, $63, $ff, $00
02549     39 77 FF 00 
0254d     55 8A FF 00 
02551     71 9E FF 00 
02555     8E B1 FF 00 | 	byte	$39, $77, $ff, $00, $55, $8a, $ff, $00, $71, $9e, $ff, $00, $8e, $b1, $ff, $00
02559     AA C5 FF 00 
0255d     C6 D8 FF 00 
02561     E3 EC FF 00 
02565     00 00 20 00 | 	byte	$aa, $c5, $ff, $00, $c6, $d8, $ff, $00, $e3, $ec, $ff, $00, $00, $00, $20, $00
02569     00 00 40 00 
0256d     00 00 60 00 
02571     00 00 80 00 
02575     00 00 9F 00 | 	byte	$00, $00, $40, $00, $00, $00, $60, $00, $00, $00, $80, $00, $00, $00, $9f, $00
02579     00 00 BF 00 
0257d     00 00 DF 00 
02581     00 00 FF 00 
02585     1C 1C FF 00 | 	byte	$00, $00, $bf, $00, $00, $00, $df, $00, $00, $00, $ff, $00, $1c, $1c, $ff, $00
02589     39 39 FF 00 
0258d     55 55 FF 00 
02591     71 71 FF 00 
02595     8E 8E FF 00 | 	byte	$39, $39, $ff, $00, $55, $55, $ff, $00, $71, $71, $ff, $00, $8e, $8e, $ff, $00
02599     AA AA FF 00 
0259d     C6 C6 FF 00 
025a1     E3 E3 FF 00 
025a5     10 00 20 00 | 	byte	$aa, $aa, $ff, $00, $c6, $c6, $ff, $00, $e3, $e3, $ff, $00, $10, $00, $20, $00
025a9     20 00 40 00 
025ad     30 00 60 00 
025b1     40 00 80 00 
025b5     50 00 9F 00 | 	byte	$20, $00, $40, $00, $30, $00, $60, $00, $40, $00, $80, $00, $50, $00, $9f, $00
025b9     60 00 BF 00 
025bd     70 00 DF 00 
025c1     80 00 FF 00 
025c5     8E 1C FF 00 | 	byte	$60, $00, $bf, $00, $70, $00, $df, $00, $80, $00, $ff, $00, $8e, $1c, $ff, $00
025c9     9C 39 FF 00 
025cd     AA 55 FF 00 
025d1     B8 71 FF 00 
025d5     C7 8E FF 00 | 	byte	$9c, $39, $ff, $00, $aa, $55, $ff, $00, $b8, $71, $ff, $00, $c7, $8e, $ff, $00
025d9     D5 AA FF 00 
025dd     E3 C6 FF 00 
025e1     F1 E3 FF 00 
025e5     20 00 20 00 | 	byte	$d5, $aa, $ff, $00, $e3, $c6, $ff, $00, $f1, $e3, $ff, $00, $20, $00, $20, $00
025e9     40 00 40 00 
025ed     60 00 60 00 
025f1     80 00 80 00 
025f5     9F 00 9F 00 | 	byte	$40, $00, $40, $00, $60, $00, $60, $00, $80, $00, $80, $00, $9f, $00, $9f, $00
025f9     BF 00 BF 00 
025fd     DF 00 DF 00 
02601     FF 00 FF 00 
02605     FF 1C FF 00 | 	byte	$bf, $00, $bf, $00, $df, $00, $df, $00, $ff, $00, $ff, $00, $ff, $1c, $ff, $00
02609     FF 39 FF 00 
0260d     FF 55 FF 00 
02611     FF 71 FF 00 
02615     FF 8E FF 00 | 	byte	$ff, $39, $ff, $00, $ff, $55, $ff, $00, $ff, $71, $ff, $00, $ff, $8e, $ff, $00
02619     FF AA FF 00 
0261d     FF C6 FF 00 
02621     FF E3 FF 00 
02625     20 00 10 00 | 	byte	$ff, $aa, $ff, $00, $ff, $c6, $ff, $00, $ff, $e3, $ff, $00, $20, $00, $10, $00
02629     40 00 20 00 
0262d     60 00 30 00 
02631     80 00 40 00 
02635     9F 00 50 00 | 	byte	$40, $00, $20, $00, $60, $00, $30, $00, $80, $00, $40, $00, $9f, $00, $50, $00
02639     BF 00 60 00 
0263d     DF 00 70 00 
02641     FF 00 80 00 
02645     FF 1C 8E 00 | 	byte	$bf, $00, $60, $00, $df, $00, $70, $00, $ff, $00, $80, $00, $ff, $1c, $8e, $00
02649     FF 39 9C 00 
0264d     FF 55 AA 00 
02651     FF 71 B8 00 
02655     FF 8E C7 00 | 	byte	$ff, $39, $9c, $00, $ff, $55, $aa, $00, $ff, $71, $b8, $00, $ff, $8e, $c7, $00
02659     FF AA D5 00 
0265d     FF C6 E3 00 
02661     FF E3 F1 00 
02665     20 00 00 00 | 	byte	$ff, $aa, $d5, $00, $ff, $c6, $e3, $00, $ff, $e3, $f1, $00, $20, $00, $00, $00
02669     40 00 00 00 
0266d     60 00 00 00 
02671     80 00 00 00 
02675     9F 00 00 00 | 	byte	$40, $00, $00, $00, $60, $00, $00, $00, $80, $00, $00, $00, $9f, $00, $00, $00
02679     BF 00 00 00 
0267d     DF 00 00 00 
02681     FF 00 00 00 
02685     FF 1C 1C 00 | 	byte	$bf, $00, $00, $00, $df, $00, $00, $00, $ff, $00, $00, $00, $ff, $1c, $1c, $00
02689     FF 39 39 00 
0268d     FF 55 55 00 
02691     FF 71 71 00 
02695     FF 8E 8E 00 | 	byte	$ff, $39, $39, $00, $ff, $55, $55, $00, $ff, $71, $71, $00, $ff, $8e, $8e, $00
02699     FF AA AA 00 
0269d     FF C6 C6 00 
026a1     FF E3 E3 00 
026a5     20 08 00 00 | 	byte	$ff, $aa, $aa, $00, $ff, $c6, $c6, $00, $ff, $e3, $e3, $00, $20, $08, $00, $00
026a9     40 10 00 00 
026ad     60 18 00 00 
026b1     80 20 00 00 
026b5     9F 28 00 00 | 	byte	$40, $10, $00, $00, $60, $18, $00, $00, $80, $20, $00, $00, $9f, $28, $00, $00
026b9     BF 30 00 00 
026bd     DF 38 00 00 
026c1     FF 40 00 00 
026c5     FF 55 1C 00 | 	byte	$bf, $30, $00, $00, $df, $38, $00, $00, $ff, $40, $00, $00, $ff, $55, $1c, $00
026c9     FF 6A 39 00 
026cd     FF 80 55 00 
026d1     FF 95 71 00 
026d5     FF AA 8E 00 | 	byte	$ff, $6a, $39, $00, $ff, $80, $55, $00, $ff, $95, $71, $00, $ff, $aa, $8e, $00
026d9     FF BF AA 00 
026dd     FF D5 C6 00 
026e1     FF EA E3 00 
026e5     20 10 00 00 | 	byte	$ff, $bf, $aa, $00, $ff, $d5, $c6, $00, $ff, $ea, $e3, $00, $20, $10, $00, $00
026e9     40 20 00 00 
026ed     60 30 00 00 
026f1     80 40 00 00 
026f5     9F 50 00 00 | 	byte	$40, $20, $00, $00, $60, $30, $00, $00, $80, $40, $00, $00, $9f, $50, $00, $00
026f9     BF 60 00 00 
026fd     DF 70 00 00 
02701     FF 80 00 00 
02705     FF 8E 1C 00 | 	byte	$bf, $60, $00, $00, $df, $70, $00, $00, $ff, $80, $00, $00, $ff, $8e, $1c, $00
02709     FF 9C 39 00 
0270d     FF AA 55 00 
02711     FF B8 71 00 
02715     FF C7 8E 00 | 	byte	$ff, $9c, $39, $00, $ff, $aa, $55, $00, $ff, $b8, $71, $00, $ff, $c7, $8e, $00
02719     FF D5 AA 00 
0271d     FF E3 C6 00 
02721     FF F1 E3 00 
02725     20 18 00 00 | 	byte	$ff, $d5, $aa, $00, $ff, $e3, $c6, $00, $ff, $f1, $e3, $00, $20, $18, $00, $00
02729     40 30 00 00 
0272d     60 48 00 00 
02731     80 60 00 00 
02735     9F 78 00 00 | 	byte	$40, $30, $00, $00, $60, $48, $00, $00, $80, $60, $00, $00, $9f, $78, $00, $00
02739     BF 90 00 00 
0273d     DF A8 00 00 
02741     FF C0 00 00 
02745     FF C7 1C 00 | 	byte	$bf, $90, $00, $00, $df, $a8, $00, $00, $ff, $c0, $00, $00, $ff, $c7, $1c, $00
02749     FF CE 39 00 
0274d     FF D5 55 00 
02751     FF DC 71 00 
02755     FF E3 8E 00 | 	byte	$ff, $ce, $39, $00, $ff, $d5, $55, $00, $ff, $dc, $71, $00, $ff, $e3, $8e, $00
02759     FF EA AA 00 
0275d     FF F1 C6 00 
02761     FF F8 E3 00 
02765     18 20 00 00 | 	byte	$ff, $ea, $aa, $00, $ff, $f1, $c6, $00, $ff, $f8, $e3, $00, $18, $20, $00, $00
02769     30 40 00 00 
0276d     48 60 00 00 
02771     60 80 00 00 
02775     78 9F 00 00 | 	byte	$30, $40, $00, $00, $48, $60, $00, $00, $60, $80, $00, $00, $78, $9f, $00, $00
02779     90 BF 00 00 
0277d     A8 DF 00 00 
02781     C0 FF 00 00 
02785     C7 FF 1C 00 | 	byte	$90, $bf, $00, $00, $a8, $df, $00, $00, $c0, $ff, $00, $00, $c7, $ff, $1c, $00
02789     CE FF 39 00 
0278d     D5 FF 55 00 
02791     DC FF 71 00 
02795     E3 FF 8E 00 | 	byte	$ce, $ff, $39, $00, $d5, $ff, $55, $00, $dc, $ff, $71, $00, $e3, $ff, $8e, $00
02799     EA FF AA 00 
0279d     F1 FF C6 00 
027a1     F8 FF E3 00 
027a5     00 20 00 00 | 	byte	$ea, $ff, $aa, $00, $f1, $ff, $c6, $00, $f8, $ff, $e3, $00, $00, $20, $00, $00
027a9     00 40 00 00 
027ad     00 60 00 00 
027b1     00 80 00 00 
027b5     00 9F 00 00 | 	byte	$00, $40, $00, $00, $00, $60, $00, $00, $00, $80, $00, $00, $00, $9f, $00, $00
027b9     00 BF 00 00 
027bd     00 DF 00 00 
027c1     00 FF 00 00 
027c5     1C FF 1C 00 | 	byte	$00, $bf, $00, $00, $00, $df, $00, $00, $00, $ff, $00, $00, $1c, $ff, $1c, $00
027c9     39 FF 39 00 
027cd     55 FF 55 00 
027d1     71 FF 71 00 
027d5     8E FF 8E 00 | 	byte	$39, $ff, $39, $00, $55, $ff, $55, $00, $71, $ff, $71, $00, $8e, $ff, $8e, $00
027d9     AA FF AA 00 
027dd     C6 FF C6 00 
027e1     E3 FF E3 00 
027e5     00 20 0A 00 | 	byte	$aa, $ff, $aa, $00, $c6, $ff, $c6, $00, $e3, $ff, $e3, $00, $00, $20, $0a, $00
027e9     00 40 14 00 
027ed     00 60 1E 00 
027f1     00 80 28 00 
027f5     00 9F 32 00 | 	byte	$00, $40, $14, $00, $00, $60, $1e, $00, $00, $80, $28, $00, $00, $9f, $32, $00
027f9     00 BF 3C 00 
027fd     00 DF 46 00 
02801     00 FF 50 00 
02805     1C FF 63 00 | 	byte	$00, $bf, $3c, $00, $00, $df, $46, $00, $00, $ff, $50, $00, $1c, $ff, $63, $00
02809     39 FF 77 00 
0280d     55 FF 8A 00 
02811     71 FF 9E 00 
02815     8E FF B1 00 | 	byte	$39, $ff, $77, $00, $55, $ff, $8a, $00, $71, $ff, $9e, $00, $8e, $ff, $b1, $00
02819     AA FF C5 00 
0281d     C6 FF D8 00 
02821     E3 FF EC 00 
02825     00 20 14 00 | 	byte	$aa, $ff, $c5, $00, $c6, $ff, $d8, $00, $e3, $ff, $ec, $00, $00, $20, $14, $00
02829     00 40 28 00 
0282d     00 60 3C 00 
02831     00 80 50 00 
02835     00 9F 64 00 | 	byte	$00, $40, $28, $00, $00, $60, $3c, $00, $00, $80, $50, $00, $00, $9f, $64, $00
02839     00 BF 78 00 
0283d     00 DF 8C 00 
02841     00 FF A0 00 
02845     1C FF AB 00 | 	byte	$00, $bf, $78, $00, $00, $df, $8c, $00, $00, $ff, $a0, $00, $1c, $ff, $ab, $00
02849     39 FF B5 00 
0284d     55 FF C0 00 
02851     71 FF CA 00 
02855     8E FF D5 00 | 	byte	$39, $ff, $b5, $00, $55, $ff, $c0, $00, $71, $ff, $ca, $00, $8e, $ff, $d5, $00
02859     AA FF DF 00 
0285d     C6 FF EA 00 
02861     E3 FF F4 00 
02865     00 20 20 00 | 	byte	$aa, $ff, $df, $00, $c6, $ff, $ea, $00, $e3, $ff, $f4, $00, $00, $20, $20, $00
02869     00 40 40 00 
0286d     00 60 60 00 
02871     00 80 80 00 
02875     00 9F 9F 00 | 	byte	$00, $40, $40, $00, $00, $60, $60, $00, $00, $80, $80, $00, $00, $9f, $9f, $00
02879     00 BF BF 00 
0287d     00 DF DF 00 
02881     00 FF FF 00 
02885     1C FF FF 00 | 	byte	$00, $bf, $bf, $00, $00, $df, $df, $00, $00, $ff, $ff, $00, $1c, $ff, $ff, $00
02889     39 FF FF 00 
0288d     55 FF FF 00 
02891     71 FF FF 00 
02895     8E FF FF 00 | 	byte	$39, $ff, $ff, $00, $55, $ff, $ff, $00, $71, $ff, $ff, $00, $8e, $ff, $ff, $00
02899     AA FF FF 00 
0289d     C6 FF FF 00 
028a1     E3 FF FF 00 
028a5     00 14 20 00 | 	byte	$aa, $ff, $ff, $00, $c6, $ff, $ff, $00, $e3, $ff, $ff, $00, $00, $14, $20, $00
028a9     00 28 40 00 
028ad     00 3C 60 00 
028b1     00 50 80 00 
028b5     00 64 9F 00 | 	byte	$00, $28, $40, $00, $00, $3c, $60, $00, $00, $50, $80, $00, $00, $64, $9f, $00
028b9     00 78 BF 00 
028bd     00 8C DF 00 
028c1     00 A0 FF 00 
028c5     1C AB FF 00 | 	byte	$00, $78, $bf, $00, $00, $8c, $df, $00, $00, $a0, $ff, $00, $1c, $ab, $ff, $00
028c9     39 B5 FF 00 
028cd     55 C0 FF 00 
028d1     71 CA FF 00 
028d5     8E D5 FF 00 | 	byte	$39, $b5, $ff, $00, $55, $c0, $ff, $00, $71, $ca, $ff, $00, $8e, $d5, $ff, $00
028d9     AA DF FF 00 
028dd     C6 EA FF 00 
028e1     E3 F4 FF    | 	byte	$aa, $df, $ff, $00, $c6, $ea, $ff, $00, $e3, $f4, $ff
028e4                 | '**********************************************************************************
028e4                 | '
028e4                 | '        Timings and colors definitions
028e4                 | '
028e4                 | '**********************************************************************************
028e4                 | 
028e4                 |    'streamer sets for text mode, to add to timings[0..5]
028e4                 | 
028e4                 | 
028e4                 | '                     bf.hs, hs,  bf.vis  visible, lr bord, pixel, ud bord,  up p., vsync, down p., mode, cpl, scanlines,  clock,                  hubset                  total vis lines
028e4     30 00 00 00 
028e8     20 00 00 00 
028ec     50 00 00 00 
028f0     20 03 00 00 | timings000      long   48,   32,    80,     800,      0,     8,     0 ,      3,      7,    6,      0,  100,   480,     285000000,   %1_110000__11_0110_1100__1111_1011,   480
028f4     00 00 00 00 
028f8     08 00 00 00 
028fc     00 00 00 00 
02900     03 00 00 00 | 	byte	$00, $00, $00, $00, $08, $00, $00, $00, $00, $00, $00, $00, $03, $00, $00, $00
02904     07 00 00 00 
02908     06 00 00 00 
0290c     00 00 00 00 
02910     64 00 00 00 | 	byte	$07, $00, $00, $00, $06, $00, $00, $00, $00, $00, $00, $00, $64, $00, $00, $00
02914     E0 01 00 00 
02918     40 C1 FC 10 
0291c     FB 6C C3 01 
02920     E0 01 00 00 | 	byte	$e0, $01, $00, $00, $40, $c1, $fc, $10, $fb, $6c, $c3, $01, $e0, $01, $00, $00
02924                 |                            
02924     00 75 C7 97 
02928     27 47 F6 0A 
0292c     05 79 CB 9B 
02930     2B 4B EA 0F | vgacolors       byte   0, 117, 199, 151, 39, 71, 246, 10, 5, 121, 203, 155, 43, 75, 234, 15
02934                 | 
02934     28 14 64 FD | hdmi            setq    #10
02938     00 B1 04 FB |                 rdlong  framebuf,  ptra                  'read pointers
0293c     28 1E 64 FD |                 setq    #15
02940     5A 6C 00 FB |                 rdlong  m_bs,modeptr   
02944     29 FE 65 FD |                 setq2   #255
02948     5B 00 00 FB |                 rdlong  $000, paletteptr 
0294c                 | 
0294c     00 CE 6C FC |                 wrlong  #aend,#0                         'write driver length to hub#0: DEBUG/demo
02950     3C 00 66 FD |                 setcmod #$100                            'enable HDMI mode
02954     C0 C3 04 F6 |                 mov     ii,#448                          '7 << 6          
02958     5E C2 00 F1 |                 add     ii,hbase
0295c     58 C2 60 FD |                 drvl    ii                                 '#7<<6 + hdmi_base      ' enable HDMI pins
02960     7B 0B 80 FF 
02964     61 00 0B FC |                 wrpin   ##%10110_1111_0111_10_00000_0, ii  '#7<<6 + hdmi_base      ' a '123 ohm BITDAC for pins
02968                 | 
02968     66 66 86 FF 
0296c     1D 9A 65 FD |                 setxfrq ##$0CCCCCCC+1                   'set streamer freq to 1/10th clk
02970                 | 
02970                 | 
02970                 | ''--------  frame rendering main loop  ---------------------------------------------------
02970                 | 
02970     01 96 04 F1 | p101            add     frames,#1
02974     58 C4 00 F6 |                 mov     framebuf2,framebuf
02978     32 C6 00 F6 |                 mov     hsync0,sync_000                  '
0297c     33 C8 00 F6 |                 mov     hsync1,sync_001
02980     18 7A 44 FB |                 callpa  i_upporch ,#blank
02984     59 00 68 FC |                 wrlong  #0,vblankptr
02988     00 C2 04 F6 |                 mov     ii,#0
0298c                 |                 
0298c     00 90 04 F6 |                 mov linenum,#0
02990     5C 00 B0 FD | p301            call    #hsync                          ' now call hsync to gain some time between xconts
02994     01 C2 14 F7 |                 incmod  ii,#1 wc
02998     90 C5 84 C1 |            if_c sub framebuf2,#400     
0299c                 | 
0299c                 | 
0299c                 | '----------------------------------------- display pixels
0299c                 | 
0299c     3B 8C 00 F6 |                 mov     m_lut2,m_lut1                   ' m_lut1 loaded from hub timing block, pixel per long
029a0     41 CA 00 F6 |                 mov     cpl2,i_cpl                      ' i_cpl in graphic modes is longs per line
029a4     57 8C 00 F1 |                 add     m_lut2,lutg8                    ' 8 bpp modes
029a8                 |  
029a8                 |                 
029a8     C8 08 DC FC |                 rep #4,#200 
029ac     62 CC 00 FB |                 rdlong  char,framebuf2
029b0     02 C4 04 F1 |                 add     framebuf2,#2              
029b4     50 CC FC F9 |                 movbyts char,#%01010000          
029b8     66 8C C0 FC |                 xcont   m_lut2,char              
029bc                 | 
029bc     01 90 04 F1 | p302            add     linenum,#1
029c0     04 C0 04 F1 |                 add     dlptr2,#4
029c4     45 90 08 F2 |                 cmp     linenum,i_totalvis  wz
029c8     C4 FF 9F 5D |          if_nz  jmp     #p301
029cc                 | 
029cc     59 02 68 FC | p112            wrlong  #1,vblankptr
029d0     04 7E 44 FB |                 callpa  i_downporch ,#blank             'bottom blanks
029d4                 | 
029d4     34 C6 00 F6 |                 mov     hsync0,sync_222                 'vsync on
029d8     35 C8 00 F6 |                 mov     hsync1,sync_223
029dc     01 7C 44 FB |                 callpa  i_vsync,#blank                  'vertical sync blanks
029e0     8C FF 9F FD |                 jmp     #p101
029e4                 | 
029e4                 | '' -------------------------------------- END of graph  line ---------------------------------
029e4                 | 
029e4                 | 
029e4     08 00 B0 FD | blank           call    #hsync                          'blank lines
029e8     63 72 C0 FC |                 xcont   m_vi,hsync0
029ec     FD ED 6F 0B |         _ret_   djnz    pa,#blank
029f0                 | 
029f0     63 6C C0 FC | hsync           xcont   m_bs,hsync0                     'horizontal sync
029f4     64 6E B0 FC |                 xzero   m_sn,hsync1
029f8     63 70 C0 0C |         _ret_   xcont   m_bv,hsync0
029fc                 | 
029fc                 | '' consts and vars
029fc                 | 
029fc     52 4D 35 D5 | sync_000        long    %1101010100_1101010100_1101010100_10    '
02a00     AE 42 35 D5 | sync_001        long    %1101010100_1101010100_0010101011_10    '        hsync
02a04     52 45 15 55 | sync_222        long    %0101010100_0101010100_0101010100_10    'vsync
02a08     AE 4A 15 55 | sync_223        long    %0101010100_0101010100_1010101011_10    'vsync + hsync
02a0c                 | 
02a0c                 | 'border          long    %00000000_00011010_00101100_00000000
02a0c                 | 
02a0c                 | '------ these longs will be set by setmode function
02a0c                 | 
02a0c     00 00 00 00 | m_bs            long    0        'blanks before sync
02a10     00 00 00 00 | m_sn            long    0        'sync
02a14     00 00 00 00 | m_bv            long    0        'blanks before visible
02a18     00 00 00 00 | m_vi            long    0        'visible pixels #
02a1c     00 00 00 00 | m_border        long    0        'left/right borders
02a20     00 00 00 00 | m_lut1          long    0        'characters
02a24     00 00 00 00 | i_vborder       long    0        'up/down borders
02a28     00 00 00 00 | i_upporch       long    0        'up porch lines
02a2c     00 00 00 00 | i_vsync         long    0        'vsync lines
02a30     00 00 00 00 | i_downporch     long    0        'down porch lines
02a34     00 00 00 00 | i_modenum       long    0        'mode #
02a38     00 00 00 00 | i_cpl           long    0        'chars/longs per line
02a3c     00 00 00 00 | i_lines         long    0        'scanlines #
02a40     00 00 00 00 | i_clock         long    0
02a44     00 00 00 00 | i_hubset        long    0
02a48     00 00 00 00 | i_totalvis      long    0
02a4c                 | 
02a4c                 | '-------------------------------------
02a4c                 | 
02a4c     00 00 00 00 | m_lut2          long    0
02a50                 | 
02a50                 | colordepth
02a50     00 00 00 00 | linestart       long    0
02a54     00 00 00 00 | linenum         long    0
02a58     00 01 00 00 | lutaddr         long    256
02a5c                 | 
02a5c     0E 00 00 00 | cursorsh        long    14
02a60     00 00 00 00 | frames          long    0
02a64     00 00 00 00 | cursorx         long    0
02a68     00 00 00 00 | cursory         long    0
02a6c     00 00 00 00 | cursorpos       long    0
02a70     00 00 00 00 | cursorpos2      long    0
02a74     00 00 00 00 | fontstart       long    0
02a78     00 00 00 00 | border2         long 0
02a7c     00 00 81 70 | lutiv           long $70810000
02a80     00 00 88 00 | lutt1           long $00880000
02a84     00 00 80 00 | lutg1           long $00800000
02a88     00 00 80 10 | lutg2           long $10800000
02a8c     00 00 80 20 | lutg4           long $20800000
02a90     00 00 80 30 | lutg8           long $30800000
02a94     00 00 00 00 | framebuf        long 0
02a98                 | 'fontbuf         long 0
02a98                 | 'borderptr       long 0
02a98     00 00 00 00 | vblankptr       long 0
02a9c                 | 'cursorptr       long 0
02a9c     00 00 00 00 | modeptr         long 0
02aa0     00 00 00 00 | paletteptr      long 0
02aa4     00 00 00 00 | dlptr           long 0
02aa8                 | fontnumptr      res     1
02aa8                 | fontnumptr      res     1
02aa8                 | hbase           res     1
02aa8                 | hbase           res     1
02aa8                 | borderptr2      res     1
02aa8                 | borderptr2      res     1
02aa8                 | dlptr2 res 1
02aa8                 | dlptr2 res 1
02aa8                 | 
02aa8                 | ii              res     1
02aa8                 | ii              res     1
02aa8                 | framebuf2       res     1
02aa8                 | framebuf2       res     1
02aa8                 | hsync0          res     1
02aa8                 | hsync0          res     1
02aa8                 | hsync1          res     1
02aa8                 | hsync1          res     1
02aa8                 | 
02aa8                 | cpl2 res 1
02aa8                 | cpl2 res 1
02aa8                 | char            res     1
02aa8                 | char            res     1
02aa8                 | 
02aa8     00 00 00 00 | aend             long 0
02aac                 |                 fit     496                     '
02aac                 | _adccog_dat_
02aac                 |               org
02aac 000 28 06 64 FD | mixer         setq #3
02ab0 001 00 49 04 FB |               rdlong aaresult,ptra
02ab4 002             |               
02ab4 002             |               
02ab4 002 25 40 00 FC |               wrpin adc_config1, aapin
02ab8 003 25 1A 18 FC |               wxpin  #%00_1101, aapin
02abc 004 41 4A 60 FD |               dirh   aapin
02ac0 005 40 46 04 F6 |               mov    x, #%001<<6
02ac4 006 25 46 00 F1 |               add    x,aapin
02ac8 007 20 46 60 FD |               setse1 x
02acc 008             | 	
02acc 008 24 28 60 FD | loop          waitse1
02ad0 009 25 46 88 FA |               rdpin x,aapin
02ad4 00a 24 28 60 FD |               waitse1
02ad8 00b 25 46 88 FA |               rdpin x,aapin   
02adc 00c 24 28 60 FD |               waitse1
02ae0 00d 25 4C 88 FA |               rdpin gnd,aapin 
02ae4 00e             |               
02ae4 00e 25 42 00 FC |               wrpin adc_config2, aapin
02ae8 00f             |               
02ae8 00f 24 28 60 FD |               waitse1
02aec 010 25 46 88 FA |               rdpin x,aapin
02af0 011 24 28 60 FD |               waitse1
02af4 012 25 46 88 FA |               rdpin x,aapin   
02af8 013 24 28 60 FD |               waitse1
02afc 014 25 4E 88 FA |               rdpin vcc,aapin  
02b00 015             |               
02b00 015 25 44 00 FC |               wrpin adc_config3, aapin
02b04 016             |               
02b04 016 24 28 60 FD |               waitse1
02b08 017 25 46 88 FA |               rdpin x,aapin
02b0c 018 24 28 60 FD |               waitse1
02b10 019 25 46 88 FA |               rdpin x,aapin   
02b14 01a 24 28 60 FD |               waitse1
02b18 01b 25 48 88 FA |               rdpin aaresult,aapin  
02b1c 01c             |               
02b1c 01c 25 40 00 FC |               wrpin adc_config1, aapin 
02b20 01d 28 06 64 FD |               setq #3
02b24 01e 00 49 64 FC |               wrlong aaresult,ptra
02b28 01f             | 
02b28 01f A0 FF 9F FD |               jmp     #loop          'loop
02b2c 020             | 
02b2c 020             | 
02b2c 020 30 00 10 00 | adc_config1      long    %0000_0000_000_100000_0000000_00_11000_0 ' 100000 gnd
02b30 021 30 80 10 00 | adc_config2      long    %0000_0000_000_100001_0000000_00_11000_0 ' 100001 3v3
02b34 022 30 80 11 00 | adc_config3      long    %0000_0000_000_100011_0000000_00_11000_0 ' 100011 pin
02b38 023             | 
02b38 023 00 00 00 00 | x               long    0
02b3c 024             | 
02b3c 024 00 00 00 00 | aaresult long 0
02b40 025 00 00 00 00 | aapin long 0
02b44 026 00 00 00 00 | gnd long 0
02b48 027 00 00 00 00 | vcc long 0
02b4c 028             | objmem
02b4c 028 00 00 00 00 | 	long	0[1]
02b50 0d6             | 	org	COG_BSS_START
02b50 0d6             | _var01
02b50 0d6             | 	res	1
02b50 0d7             | _var02
02b50 0d7             | 	res	1
02b50 0d8             | _var03
02b50 0d8             | 	res	1
02b50 0d9             | _var04
02b50 0d9             | 	res	1
02b50 0da             | _var05
02b50 0da             | 	res	1
02b50 0db             | _var06
02b50 0db             | 	res	1
02b50 0dc             | _var07
02b50 0dc             | 	res	1
02b50 0dd             | _var08
02b50 0dd             | 	res	1
02b50 0de             | _var09
02b50 0de             | 	res	1
02b50 0df             | _var10
02b50 0df             | 	res	1
02b50 0e0             | arg01
02b50 0e0             | 	res	1
02b50 0e1             | arg02
02b50 0e1             | 	res	1
02b50 0e2             | arg03
02b50 0e2             | 	res	1
02b50 0e3             | arg04
02b50 0e3             | 	res	1
02b50 0e4             | arg05
02b50 0e4             | 	res	1
02b50 0e5             | local01
02b50 0e5             | 	res	1
02b50 0e6             | local02
02b50 0e6             | 	res	1
02b50 0e7             | local03
02b50 0e7             | 	res	1
02b50 0e8             | local04
02b50 0e8             | 	res	1
02b50 0e9             | local05
02b50 0e9             | 	res	1
02b50 0ea             | local06
02b50 0ea             | 	res	1
02b50 0eb             | local07
02b50 0eb             | 	res	1
02b50 0ec             | local08
02b50 0ec             | 	res	1
02b50 0ed             | local09
02b50 0ed             | 	res	1
02b50 0ee             | local10
02b50 0ee             | 	res	1
02b50 0ef             | local11
02b50 0ef             | 	res	1
02b50 0f0             | local12
02b50 0f0             | 	res	1
02b50 0f1             | local13
02b50 0f1             | 	res	1
02b50 0f2             | local14
02b50 0f2             | 	res	1
02b50 0f3             | local15
02b50 0f3             | 	res	1
02b50 0f4             | local16
02b50 0f4             | 	res	1
02b50 0f5             | local17
02b50 0f5             | 	res	1
02b50 0f6             | local18
02b50 0f6             | 	res	1
02b50 0f7             | local19
02b50 0f7             | 	res	1
02b50 0f8             | local20
02b50 0f8             | 	res	1
02b50 0f9             | local21
02b50 0f9             | 	res	1
02b50 0fa             | local22
02b50 0fa             | 	res	1
02b50 0fb             | local23
02b50 0fb             | 	res	1
02b50 0fc             | local24
02b50 0fc             | 	res	1
02b50 0fd             | local25
02b50 0fd             | 	res	1
02b50 0fe             | local26
02b50 0fe             | 	res	1
02b50 0ff             | local27
02b50 0ff             | 	res	1
02b50 100             | local28
02b50 100             | 	res	1
02b50 101             | local29
02b50 101             | 	res	1
02b50 102             | muldiva_
02b50 102             | 	res	1
02b50 103             | muldivb_
02b50 103             | 	res	1
02b50 104             | 	fit	480
02b50 104             | 
