00000                 | 
00000                 | #line 1 "D:/Programowanie/ultibo-propeller/robuv001/robuv.p2asm"
00000                 | ' 
00000                 | ' hdmi_base       = 8            'must be a multiple of 8
00000                 | con
00000                 | 	hdmi_base = 8
00000                 | ' '_clkfreq        = 354_689_500   '200x Atari 8-bit PAL,  50x Amiga PAL
00000                 | ' _clkfreq       = 357_954_500   '200x Atari 8-bit NTSC, 50x Amiga NTSC
00000                 | 	_clkfreq = 357954500
00000                 | '  rxpin           = 56
00000                 | 	rxpin = 56
00000                 | '  txpin           = 57
00000                 | 	txpin = 57
00000                 | ' baudrate        = 4000000' 460800
00000                 | 	baudrate = 4000000
00000                 | dat
00000 000 00 00 00 00 | 	nop
00004 001 01 EC 63 FD | 	cogid	pa
00008 002 02 00 00 FF 
0000c 003 04 EC E7 FC | 	coginit	pa,##$404
00010                 | 	orgh	$10
00010     00 00 00 00 | 	long	0	'reserved
00014     00 00 00 00 | 	long	0 ' clock frequency: will default to 357958951
00018     00 00 00 00 | 	long	0 ' clock mode: will default to $1c36cfb
0001c     00 00 00 00 
      ...             
003f8     00 00 00 00 
003fc     00 00 00 00 | 	orgh	$400
00400     00 BA 05 06 |  _ret_	mov	result1, #0
00404 000             | 	org	0
00404 000             | entry
00404 000 00 F0 0F F2 | 	cmp	ptra, #0 wz
00408 001 14 02 90 5D |  if_ne	jmp	#spininit
0040c 002 D4 F0 03 F6 | 	mov	ptra, objptr
00410 003 01 00 00 FF 
00414 004 4C F1 07 F1 | 	add	ptra, ##844
00418 005 14 EC 0F FB | 	rdlong	pa, #20 wz
0041c 006 E4 01 90 5D |  if_ne	jmp	#skip_clock_set_
00420 007 00 00 64 FD | 	hubset	#0
00424 008 B6 E1 80 FF 
00428 009 00 F0 65 FD | 	hubset	##29584632
0042c 00a 86 01 80 FF 
00430 00b 1F 80 66 FD | 	waitx	##200000
00434 00c B6 E1 00 FF 
00438 00d FB EC 07 F6 | 	mov	pa, ##29584635
0043c 00e 00 EC 63 FD | 	hubset	pa
00440 00f 18 EC 67 FC | 	wrlong	pa, #24
00444 010 02 AB 8A FF 
00448 011 14 4E 6E FC | 	wrlong	##357958951, #20
0044c 012 B4 01 90 FD | 	jmp	#skip_clock_set_
00450 013 00 00 00 00 
      ...             
005fc 07e 00 00 00 00 
00600 07f 00 00 00 00 | 	orgf	128
00604 080             | skip_clock_set_
00604 080 04 A0 61 FD | 	locknew	__lockreg
00608 081 D5 A0 61 FC | 	wrlong	__lockreg, ptr___lockreg_
0060c 082 80 07 A0 FD | 	call	#_start
00610 083             | cogexit
00610 083 38 01 80 FF 
00614 084 1F 00 66 FD | 	waitx	##160000
00618 085 01 DE 61 FD | 	cogid	arg01
0061c 086 03 DE 61 FD | 	cogstop	arg01
00620 087             | spininit
00620 087 00 A9 05 FB | 	rdlong	objptr, ptra
00624 088 04 F0 07 F1 | 	add	ptra, #4
00628 089 00 BB 05 FB | 	rdlong	result1, ptra
0062c 08a 04 F0 07 F1 | 	add	ptra, #4
00630 08b 00 DF 05 FB | 	rdlong	arg01, ptra
00634 08c 04 F0 07 F1 | 	add	ptra, #4
00638 08d 00 E1 05 FB | 	rdlong	arg02, ptra
0063c 08e 04 F0 07 F1 | 	add	ptra, #4
00640 08f 00 E3 05 FB | 	rdlong	arg03, ptra
00644 090 04 F0 07 F1 | 	add	ptra, #4
00648 091 00 E5 05 FB | 	rdlong	arg04, ptra
0064c 092 10 F0 87 F1 | 	sub	ptra, #16
00650 093 2D BA 61 FD | 	call	result1
00654 094 B8 FF 9F FD | 	jmp	#cogexit
00658 095             | FCACHE_LOAD_
00658 095 2B 42 61 FD |     pop	fcache_tmpb_
0065c 096 F6 43 01 F1 |     add	fcache_tmpb_, pa
00660 097 2A 42 61 FD |     push	fcache_tmpb_
00664 098 F6 43 81 F1 |     sub	fcache_tmpb_, pa
00668 099 02 EC 47 F0 |     shr	pa, #2
0066c 09a 00 EC 8F F9 |     altd	pa
00670 09b A0 00 00 F6 |     mov	 0-0, ret_instr_
00674 09c 01 EC 87 F1 |     sub	pa, #1
00678 09d 28 EC 63 FD |     setq	pa
0067c 09e A1 00 00 FB |     rdlong	$0, fcache_tmpb_
00680 09f 00 00 80 FD |     jmp	#\$0 ' jmp to cache
00684 0a0             | ret_instr_
00684 0a0 2D 00 64 FD |     ret
00688 0a1             | fcache_tmpb_
00688 0a1 00 00 00 00 |     long 0
0068c 0a2             | COUNT_
0068c 0a2 00 00 00 00 |     long 0
00690 0a3             | RETADDR_
00690 0a3 00 00 00 00 |     long 0
00694 0a4             | fp
00694 0a4 00 00 00 00 |     long 0
00698 0a5             | pushregs_
00698 0a5 2B EC 63 FD |     pop  pa
0069c 0a6 2B 46 61 FD |     pop  RETADDR_
006a0 0a7 04 44 95 FB |     tjz  COUNT_, #pushregs_done_
006a4 0a8 01 44 85 F1 |     sub  COUNT_, #1
006a8 0a9 28 44 61 FD |     setq COUNT_
006ac 0aa 00 E9 65 FC |     wrlong local01, ptra
006b0 0ab 01 44 05 F1 |     add  COUNT_, #1
006b4 0ac             | pushregs_done_
006b4 0ac 02 44 65 F0 |     shl  COUNT_, #2
006b8 0ad A2 F0 03 F1 |     add  ptra, COUNT_
006bc 0ae 02 44 45 F0 |     shr  COUNT_, #2
006c0 0af 28 04 64 FD |     setq #2 ' push 3 registers starting at COUNT_
006c4 0b0 00 45 65 FC |     wrlong COUNT_, ptra
006c8 0b1 0C F0 07 F1 |     add    ptra, #12
006cc 0b2 F8 49 01 F6 |     mov    fp, ptra
006d0 0b3 2C EC 63 FD |     jmp  pa
006d4 0b4             |  popregs_
006d4 0b4 2B EC 63 FD |     pop    pa
006d8 0b5 0C F0 87 F1 |     sub    ptra, #12
006dc 0b6 28 04 64 FD |     setq   #2
006e0 0b7 00 45 05 FB |     rdlong COUNT_, ptra
006e4 0b8 06 44 95 FB |     tjz    COUNT_, #popregs__ret
006e8 0b9 02 44 65 F0 |     shl    COUNT_, #2
006ec 0ba A2 F0 83 F1 |     sub    ptra, COUNT_
006f0 0bb 02 44 45 F0 |     shr    COUNT_, #2
006f4 0bc 01 44 85 F1 |     sub    COUNT_, #1
006f8 0bd 28 44 61 FD |     setq   COUNT_
006fc 0be 00 E9 05 FB |     rdlong local01, ptra
00700 0bf             | popregs__ret
00700 0bf 2A 46 61 FD |     push   RETADDR_
00704 0c0 2C EC 63 FD |     jmp    pa
00708 0c1             | 
00708 0c1             | unsdivide_
00708 0c1 28 00 64 FD |        setq    #0
0070c 0c2 44 87 12 FD |        qdiv    muldiva_, muldivb_
00710 0c3 18 88 62 FD |        getqx   muldivb_
00714 0c4 19 86 62 0D |  _ret_ getqy   muldiva_
00718 0c5             | 
00718 0c5             | divide_
00718 0c5 43 87 52 F6 |        abs     muldiva_,muldiva_     wc       'abs(x)
0071c 0c6 03 A6 85 F5 |        muxc    itmp2_,#%11                    'store sign of x
00720 0c7 44 89 5A F6 |        abs     muldivb_,muldivb_     wcz      'abs(y)
00724 0c8 02 A6 65 C5 |  if_c  xor     itmp2_,#%10                    'store sign of y
00728 0c9 2D 00 64 AD |  if_z  ret
0072c 0ca D8 FF BF FD |        call    #unsdivide_
00730 0cb 01 A6 D5 F7 |        test    itmp2_,#1        wc       'restore sign, remainder
00734 0cc 43 87 82 F6 |        negc    muldiva_,muldiva_ 
00738 0cd 02 A6 D5 F7 |        test    itmp2_,#%10      wc       'restore sign, division result
0073c 0ce 44 89 82 06 |  _ret_ negc    muldivb_,muldivb_
00740 0cf             | 
00740 0cf             | __heap_ptr
00740 0cf 30 5B 00 00 | 	long	@__heap_base
00744 0d0             | __lockreg
00744 0d0 00 00 00 00 | 	long	0
00748 0d1             | entryptr__
00748 0d1 04 04 00 00 | 	long	@entry
0074c 0d2             | itmp1_
0074c 0d2 00 00 00 00 | 	long	0
00750 0d3             | itmp2_
00750 0d3 00 00 00 00 | 	long	0
00754 0d4             | objptr
00754 0d4 38 6B 00 00 | 	long	@objmem
00758 0d5             | ptr___lockreg_
00758 0d5 44 07 00 00 | 	long	@__lockreg
0075c 0d6             | ptr___system__dat__
0075c 0d6 20 5B 00 00 | 	long	@__system__dat_
00760 0d7             | ptr__hng025_dat__
00760 0d7 B8 36 00 00 | 	long	@_hng025_dat_
00764 0d8             | ptr__hng025_putpixel1_
00764 0d8 68 17 00 00 | 	long	@_hng025_putpixel1
00768 0d9             | ptr__hng025_putpixel2_
00768 0d9 50 18 00 00 | 	long	@_hng025_putpixel2
0076c 0da             | ptr__hng025_putpixel4_
0076c 0da 28 19 00 00 | 	long	@_hng025_putpixel4
00770 0db             | ptr__hng025_putpixel8_
00770 0db 00 1A 00 00 | 	long	@_hng025_putpixel8
00774 0dc             | ptr__serialcog_
00774 0dc 60 15 00 00 | 	long	@_serialcog
00778 0dd             | result1
00778 0dd 00 00 00 00 | 	long	0
0077c 0de             | result2
0077c 0de 00 00 00 00 | 	long	0
00780 0df             | COG_BSS_START
00780 0df             | 	fit	480
00780                 | 	orgh
00780                 | hubentry
00780                 | 
00780                 | ' 
00780                 | ' pub start(mode)   |iii,caps,iiii,jjjj
00780                 | _start
00780     3C 44 05 F6 | 	mov	COUNT_, #60
00784     A5 00 A0 FD | 	call	#pushregs_
00788                 | ' 
00788                 | ' mode :=512+48+15+192
00788                 | ' 
00788                 | ' caps:=0
00788                 | ' 
00788                 | ' waitms(100)
00788     64 DE 05 F6 | 	mov	arg01, #100
0078c     B8 25 B0 FD | 	call	#__system___waitms
00790                 | ' iii:=0
00790                 | ' vgacog:=v.start(mode,hdmi_base)
00790     01 00 00 FF 
00794     FF E8 05 F6 | 	mov	local01, ##767
00798     01 00 00 FF 
0079c     8C A8 05 F1 | 	add	objptr, ##652
007a0     D4 EA 01 F6 | 	mov	local02, objptr
007a4                 | ' 
007a4                 | ' ' initialize pointers and variables
007a4                 | ' 
007a4                 | ' border_ptr:=@bordercolor
007a4     24 A8 85 F1 | 	sub	objptr, #36
007a8     D4 EA 61 FC | 	wrlong	local02, objptr
007ac     08 00 00 FF 
007b0     00 AE 05 F1 | 	add	ptr__hng025_dat__, ##4096
007b4                 | ' font_ptr:=@st_font
007b4     04 A8 85 F1 | 	sub	objptr, #4
007b8     D4 AE 61 FC | 	wrlong	ptr__hng025_dat__, objptr
007bc                 | ' hdmibase:=base
007bc     20 A8 05 F1 | 	add	objptr, #32
007c0     D4 10 68 FC | 	wrlong	#8, objptr
007c4     24 A8 85 F1 | 	sub	objptr, #36
007c8     D8 E0 01 F6 | 	mov	arg02, ptr__hng025_putpixel1_
007cc                 | ' p1:=@putpixel1
007cc     D4 DE 01 F6 | 	mov	arg01, objptr
007d0     08 00 00 FF 
007d4     00 AE 85 F1 | 	sub	ptr__hng025_dat__, ##4096
007d8     90 24 B0 FD | 	call	#__system___make_methodptr
007dc     DD EC 01 F6 | 	mov	local03, result1
007e0     DC A8 05 F1 | 	add	objptr, #220
007e4     D4 EC 61 FC | 	wrlong	local03, objptr
007e8     DC A8 85 F1 | 	sub	objptr, #220
007ec     D9 E0 01 F6 | 	mov	arg02, ptr__hng025_putpixel2_
007f0                 | ' p2:=@putpixel2
007f0     D4 DE 01 F6 | 	mov	arg01, objptr
007f4     74 24 B0 FD | 	call	#__system___make_methodptr
007f8     DD EC 01 F6 | 	mov	local03, result1
007fc     E0 A8 05 F1 | 	add	objptr, #224
00800     D4 EC 61 FC | 	wrlong	local03, objptr
00804     E0 A8 85 F1 | 	sub	objptr, #224
00808     DA E0 01 F6 | 	mov	arg02, ptr__hng025_putpixel4_
0080c                 | ' p4:=@putpixel4
0080c     D4 DE 01 F6 | 	mov	arg01, objptr
00810     58 24 B0 FD | 	call	#__system___make_methodptr
00814     DD EC 01 F6 | 	mov	local03, result1
00818     E4 A8 05 F1 | 	add	objptr, #228
0081c     D4 EC 61 FC | 	wrlong	local03, objptr
00820     E4 A8 85 F1 | 	sub	objptr, #228
00824     DB E0 01 F6 | 	mov	arg02, ptr__hng025_putpixel8_
00828                 | ' p8:=@putpixel8
00828     D4 DE 01 F6 | 	mov	arg01, objptr
0082c     3C 24 B0 FD | 	call	#__system___make_methodptr
00830     DD EC 01 F6 | 	mov	local03, result1
00834     E8 A8 05 F1 | 	add	objptr, #232
00838     D4 EC 61 FC | 	wrlong	local03, objptr
0083c     E8 A8 85 F1 | 	sub	objptr, #232
00840                 | ' 
00840                 | ' 
00840                 | ' ' the mode has to be set here to enable computing the buffer length
00840                 | ' 
00840                 | ' setmode(mode)
00840     01 00 00 FF 
00844     FF DE 05 F6 | 	mov	arg01, ##767
00848     F4 17 B0 FD | 	call	#_hng025_setmode
0084c     40 A8 05 F1 | 	add	objptr, #64
00850     D4 EE 01 F6 | 	mov	local04, objptr
00854                 | ' 
00854                 | ' vblank_ptr:=@vblank
00854     34 A8 85 F1 | 	sub	objptr, #52
00858     D4 EE 61 FC | 	wrlong	local04, objptr
0085c     28 A8 05 F1 | 	add	objptr, #40
00860     D4 F0 01 F6 | 	mov	local05, objptr
00864                 | ' cursor_ptr:=@cursor_x
00864     24 A8 85 F1 | 	sub	objptr, #36
00868     D4 F0 61 FC | 	wrlong	local05, objptr
0086c     88 A8 05 F1 | 	add	objptr, #136
00870     D4 F2 01 F6 | 	mov	local06, objptr
00874                 | ' 
00874                 | ' fontnum_ptr:=@fontnum
00874     78 A8 85 F1 | 	sub	objptr, #120
00878     D4 F2 61 FC | 	wrlong	local06, objptr
0087c                 | ' 
0087c                 | ' fontnum:=0  ' PC type font ' TODO: font# in buffer byte #1
0087c     78 A8 05 F1 | 	add	objptr, #120
00880     D4 00 68 FC | 	wrlong	#0, objptr
00884     1C A8 05 F1 | 	add	objptr, #28
00888     D4 DE 01 F6 | 	mov	arg01, objptr
0088c     B4 A8 85 F1 | 	sub	objptr, #180
00890     0F 00 00 FF 
00894     58 AE 05 F1 | 	add	ptr__hng025_dat__, ##7768
00898     D7 E0 01 F6 | 	mov	arg02, ptr__hng025_dat__
0089c     0F 00 00 FF 
008a0     58 AE 85 F1 | 	sub	ptr__hng025_dat__, ##7768
008a4                 | ' bytemove(@colors,@vgacolors,16)
008a4     10 E2 05 F6 | 	mov	arg03, #16
008a8     98 22 B0 FD | 	call	#__system____builtin_memmove
008ac                 | ' 
008ac                 | ' ' initialize a cursor
008ac                 | ' 
008ac                 | ' cursor_x:=0
008ac     34 A8 05 F1 | 	add	objptr, #52
008b0     D4 00 48 FC | 	wrbyte	#0, objptr
008b4                 | ' cursor_y:=0
008b4     01 A8 05 F1 | 	add	objptr, #1
008b8     D4 00 48 FC | 	wrbyte	#0, objptr
008bc                 | ' cursor_sh:=14
008bc     01 A8 05 F1 | 	add	objptr, #1
008c0     D4 1C 48 FC | 	wrbyte	#14, objptr
008c4     36 A8 85 F1 | 	sub	objptr, #54
008c8                 | ' 
008c8                 | ' 
008c8                 | ' ' start the cog
008c8                 | ' 
008c8                 | ' cog:=coginit(16,@hdmi, @buf_ptr)
008c8     0F 00 00 FF 
008cc     68 AE 05 F1 | 	add	ptr__hng025_dat__, ##7784
008d0     D7 E0 01 F6 | 	mov	arg02, ptr__hng025_dat__
008d4     0F 00 00 FF 
008d8     68 AE 85 F1 | 	sub	ptr__hng025_dat__, ##7784
008dc     D4 E2 01 F6 | 	mov	arg03, objptr
008e0     10 DE 05 F6 | 	mov	arg01, #16
008e4     28 E2 61 FD | 	setq	arg03
008e8     F0 DE F1 FC | 	coginit	arg01, arg02 wc
008ec     01 DE 65 C6 |  if_b	neg	arg01, #1
008f0     EF BA 01 F6 | 	mov	result1, arg01
008f4     DD F4 01 F6 | 	mov	local07, result1
008f8     28 A8 05 F1 | 	add	objptr, #40
008fc     D4 F4 61 FC | 	wrlong	local07, objptr
00900     28 A8 85 F1 | 	sub	objptr, #40
00904                 | ' waitms(20)
00904     14 DE 05 F6 | 	mov	arg01, #20
00908     3C 24 B0 FD | 	call	#__system___waitms
0090c                 | ' 
0090c                 | ' ' clear the screen and set the colors to green on black
0090c                 | ' 
0090c                 | ' cls(c_green,c_black)
0090c     C7 DE 05 F6 | 	mov	arg01, #199
00910     00 E0 05 F6 | 	mov	arg02, #0
00914     90 11 B0 FD | 	call	#_hng025_cls
00918                 | ' setbordercolor(0,0,128)
00918     00 DE 05 F6 | 	mov	arg01, #0
0091c     00 E0 05 F6 | 	mov	arg02, #0
00920     80 E2 05 F6 | 	mov	arg03, #128
00924     5C 11 B0 FD | 	call	#_hng025_setbordercolor
00928                 | ' setwritecolors(c_green,c_black)
00928                 | ' 
00928                 | ' 
00928                 | ' write_color:=ff
00928     38 A8 05 F1 | 	add	objptr, #56
0092c     D4 8E 69 FC | 	wrlong	#199, objptr
00930                 | ' write_background:=bb
00930     04 A8 05 F1 | 	add	objptr, #4
00934     D4 00 68 FC | 	wrlong	#0, objptr
00938                 | ' 
00938                 | ' return cog
00938     14 A8 85 F1 | 	sub	objptr, #20
0093c     D4 BA 01 FB | 	rdlong	result1, objptr
00940     01 00 00 FF 
00944     88 A8 85 F1 | 	sub	objptr, ##648
00948     D4 BA 61 FC | 	wrlong	result1, objptr
0094c                 | ' v.setfontfamily(4)
0094c                 | ' 
0094c                 | ' font_family:=afontnum
0094c     01 00 00 FF 
00950     28 A9 05 F1 | 	add	objptr, ##808
00954     D4 08 68 FC | 	wrlong	#4, objptr
00958     C8 A8 85 F1 | 	sub	objptr, #200
0095c                 | ' v.cls(154,146)
0095c     9A DE 05 F6 | 	mov	arg01, #154
00960     92 E0 05 F6 | 	mov	arg02, #146
00964     40 11 B0 FD | 	call	#_hng025_cls
00968                 | ' v.setbordercolor(0,64,96)
00968     00 DE 05 F6 | 	mov	arg01, #0
0096c     40 E0 05 F6 | 	mov	arg02, #64
00970     60 E2 05 F6 | 	mov	arg03, #96
00974     0C 11 B0 FD | 	call	#_hng025_setbordercolor
00978     01 00 00 FF 
0097c     60 A8 85 F1 | 	sub	objptr, ##608
00980                 | ' 
00980                 | ' serial_start(rxpin, txpin, baudrate)
00980     38 DE 05 F6 | 	mov	arg01, #56
00984     39 E0 05 F6 | 	mov	arg02, #57
00988     84 1E 00 FF 
0098c     00 E3 05 F6 | 	mov	arg03, ##4000000
00990     D8 0C B0 FD | 	call	#_serial_start
00994                 | ' rxflush()
00994                 | ' 
00994                 | ' '' Clear serial input
00994                 | ' 
00994                 | '   repeat
00994                 | LR__0001
00994     5C 0D B0 FD | 	call	#_rxcheck
00998     00 BA 5D F2 | 	cmps	result1, #0 wcz
0099c     F4 FF 9F 3D |  if_ae	jmp	#LR__0001
009a0                 | ' 
009a0                 | ' cogspin(16,serialcog(),@serialstack)
009a0     D4 F6 01 F6 | 	mov	local08, objptr
009a4     20 A9 05 F1 | 	add	objptr, #288
009a8     D4 F8 01 F6 | 	mov	local09, objptr
009ac     FC F6 61 FC | 	wrlong	local08, local09
009b0     04 F8 05 F1 | 	add	local09, #4
009b4     FC B8 61 FC | 	wrlong	ptr__serialcog_, local09
009b8     10 DE 05 F6 | 	mov	arg01, #16
009bc     28 A8 61 FD | 	setq	objptr
009c0     D1 DE F1 FC | 	coginit	arg01, entryptr__ wc
009c4     01 DE 65 C6 |  if_b	neg	arg01, #1
009c8     EF BA 01 F6 | 	mov	result1, arg01
009cc                 | ' 
009cc                 | ' v.setwritecolors(154,146)
009cc                 | ' 
009cc                 | ' 
009cc                 | ' write_color:=ff
009cc     78 A9 05 F1 | 	add	objptr, #376
009d0     D4 34 69 FC | 	wrlong	#154, objptr
009d4                 | ' write_background:=bb
009d4     04 A8 05 F1 | 	add	objptr, #4
009d8     D4 24 69 FC | 	wrlong	#146, objptr
009dc     3C A8 85 F1 | 	sub	objptr, #60
009e0                 | ' v.outtextxycg(0,0,v.inttostr(v.buf_ptr),154,146)
009e0     00 F6 05 F6 | 	mov	local08, #0
009e4     00 F8 05 F6 | 	mov	local09, #0
009e8     D4 FA 01 FB | 	rdlong	local10, objptr
009ec                 | ' 
009ec                 | ' j:=i
009ec     FD FC 09 F6 | 	mov	local11, local10 wz
009f0                 | ' pos:=10
009f0     0A FE 05 F6 | 	mov	local12, #10
009f4                 | ' k:=0
009f4     00 00 06 F6 | 	mov	local13, #0
009f8                 | ' 
009f8                 | ' if (j==0)
009f8     18 00 90 5D |  if_ne	jmp	#LR__0002
009fc                 | '   n_string[0]:=48
009fc     44 A8 05 F1 | 	add	objptr, #68
00a00     D4 60 48 FC | 	wrbyte	#48, objptr
00a04                 | '   n_string[1]:=0
00a04     01 A8 05 F1 | 	add	objptr, #1
00a08     D4 00 48 FC | 	wrbyte	#0, objptr
00a0c     45 A8 85 F1 | 	sub	objptr, #69
00a10                 | ' 
00a10                 | ' else
00a10     C4 00 90 FD | 	jmp	#LR__0009
00a14                 | LR__0002
00a14                 | '   if (j<0)
00a14     00 FC 5D F2 | 	cmps	local11, #0 wcz
00a18                 | '     j:=0-j
00a18     FE FC 61 C6 |  if_b	neg	local11, local11
00a1c                 | '     k:=45
00a1c     2D 00 06 C6 |  if_b	mov	local13, #45
00a20                 | ' 
00a20                 | '   n_string[11]:=0
00a20     4F A8 05 F1 | 	add	objptr, #79
00a24     D4 00 48 FC | 	wrbyte	#0, objptr
00a28     4F A8 85 F1 | 	sub	objptr, #79
00a2c     10 F6 9F FE | 	loc	pa,	#(@LR__0004-@LR__0003)
00a30     95 00 A0 FD | 	call	#FCACHE_LOAD_
00a34                 | '   repeat while (pos>-1)
00a34                 | LR__0003
00a34     FF FF 7F FF 
00a38     FF FF 5D F2 | 	cmps	local12, ##-1 wcz
00a3c     34 00 90 ED |  if_be	jmp	#LR__0005
00a40     FE 86 02 F6 | 	mov	muldiva_, local11
00a44     0A 88 06 F6 | 	mov	muldivb_, #10
00a48     C5 00 A0 FD | 	call	#divide_
00a4c     43 03 02 F6 | 	mov	local14, muldiva_
00a50                 | '     q:=j//10
00a50                 | '     q:=48+q
00a50     30 02 06 F1 | 	add	local14, #48
00a54     FF 04 02 F6 | 	mov	local15, local12
00a58     44 A8 05 F1 | 	add	objptr, #68
00a5c     D4 04 02 F1 | 	add	local15, objptr
00a60                 | '     n_string[pos]:=q
00a60     02 03 42 FC | 	wrbyte	local14, local15
00a64                 | '     j:=j/10
00a64     44 FD 01 F6 | 	mov	local11, muldivb_
00a68                 | '     pos-=1
00a68     01 FE 85 F1 | 	sub	local12, #1
00a6c     44 A8 85 F1 | 	sub	objptr, #68
00a70     C0 FF 9F FD | 	jmp	#LR__0003
00a74                 | LR__0004
00a74                 | LR__0005
00a74                 | '   repeat while n_string[0]==48
00a74                 | LR__0006
00a74     44 A8 05 F1 | 	add	objptr, #68
00a78     D4 06 C2 FA | 	rdbyte	local16, objptr
00a7c     44 A8 85 F1 | 	sub	objptr, #68
00a80     30 06 0E F2 | 	cmp	local16, #48 wz
00a84     20 00 90 5D |  if_ne	jmp	#LR__0007
00a88     44 A8 05 F1 | 	add	objptr, #68
00a8c     D4 DE 01 F6 | 	mov	arg01, objptr
00a90     44 A8 85 F1 | 	sub	objptr, #68
00a94     EF E0 01 F6 | 	mov	arg02, arg01
00a98     01 E0 05 F1 | 	add	arg02, #1
00a9c                 | '     bytemove(@n_string,@n_string+1,12)
00a9c     0C E2 05 F6 | 	mov	arg03, #12
00aa0     A0 20 B0 FD | 	call	#__system____builtin_memmove
00aa4     CC FF 9F FD | 	jmp	#LR__0006
00aa8                 | LR__0007
00aa8                 | ' 
00aa8                 | '   if k==45
00aa8     2D 00 0E F2 | 	cmp	local13, #45 wz
00aac     28 00 90 5D |  if_ne	jmp	#LR__0008
00ab0     44 A8 05 F1 | 	add	objptr, #68
00ab4     D4 E0 01 F6 | 	mov	arg02, objptr
00ab8     44 A8 85 F1 | 	sub	objptr, #68
00abc     F0 DE 01 F6 | 	mov	arg01, arg02
00ac0     01 DE 05 F1 | 	add	arg01, #1
00ac4                 | '      bytemove(@n_string+1,@n_string,12)
00ac4     0C E2 05 F6 | 	mov	arg03, #12
00ac8     78 20 B0 FD | 	call	#__system____builtin_memmove
00acc                 | '      n_string[0]:=k
00acc     44 A8 05 F1 | 	add	objptr, #68
00ad0     D4 00 42 FC | 	wrbyte	local13, objptr
00ad4     44 A8 85 F1 | 	sub	objptr, #68
00ad8                 | LR__0008
00ad8                 | LR__0009
00ad8     44 A8 05 F1 | 	add	objptr, #68
00adc     D4 08 02 F6 | 	mov	local17, objptr
00ae0                 | ' 
00ae0                 | ' q:=@n_string
00ae0                 | ' return q
00ae0     FC 0A 02 F6 | 	mov	local18, local09
00ae4     FB 0C 02 F6 | 	mov	local19, local08
00ae8     9A 0E 06 F6 | 	mov	local20, #154
00aec     92 10 06 F6 | 	mov	local21, #146
00af0                 | ' 
00af0                 | ' repeat iii from 0 to strsize(text)-1
00af0     00 12 06 F6 | 	mov	local22, #0
00af4     04 DF 01 F6 | 	mov	arg01, local17
00af8     00 14 06 F6 | 	mov	local23, #0
00afc     44 A8 85 F1 | 	sub	objptr, #68
00b00     0C F5 9F FE | 	loc	pa,	#(@LR__0011-@LR__0010)
00b04     95 00 A0 FD | 	call	#FCACHE_LOAD_
00b08                 | LR__0010
00b08     EF 16 CA FA | 	rdbyte	local24, arg01 wz
00b0c     01 14 06 51 |  if_ne	add	local23, #1
00b10     01 DE 05 51 |  if_ne	add	arg01, #1
00b14     F0 FF 9F 5D |  if_ne	jmp	#LR__0010
00b18                 | LR__0011
00b18     0A BB 01 F6 | 	mov	result1, local23
00b1c     DD 18 02 F6 | 	mov	local25, result1
00b20     01 18 86 F1 | 	sub	local25, #1
00b24     00 18 5E F2 | 	cmps	local25, #0 wcz
00b28     01 1A 06 16 |  if_a	mov	local26, #1
00b2c     01 1A 66 E6 |  if_be	neg	local26, #1
00b30     0D 19 02 F1 | 	add	local25, local26
00b34                 | LR__0012
00b34     09 1D 02 F6 | 	mov	local27, local22
00b38     03 1C 66 F0 | 	shl	local27, #3
00b3c     06 1F 02 F6 | 	mov	local28, local19
00b40     0E 1F 02 F1 | 	add	local28, local27
00b44     04 21 02 F6 | 	mov	local29, local17
00b48     09 21 02 F1 | 	add	local29, local22
00b4c                 | '   putcharxycg(x+8*iii,y,byte[text+iii],f,b)
00b4c     05 23 02 F6 | 	mov	local30, local18
00b50     10 25 C2 FA | 	rdbyte	local31, local29
00b54     9A E4 05 F6 | 	mov	arg04, #154
00b58     92 E6 05 F6 | 	mov	arg05, #146
00b5c     9A 26 06 F6 | 	mov	local32, #154
00b60     92 28 06 F6 | 	mov	local33, #146
00b64     04 24 66 F0 | 	shl	local31, #4
00b68     00 2A 06 F6 | 	mov	local34, #0
00b6c                 | LR__0013
00b6c     D7 2C 02 F6 | 	mov	local35, ptr__hng025_dat__
00b70     C8 A8 05 F1 | 	add	objptr, #200
00b74     D4 2E 02 FB | 	rdlong	local36, objptr
00b78     C8 A8 85 F1 | 	sub	objptr, #200
00b7c     0A 2E 66 F0 | 	shl	local36, #10
00b80     17 2D 02 F1 | 	add	local35, local36
00b84     12 2D 02 F1 | 	add	local35, local31
00b88     15 2D 02 F1 | 	add	local35, local34
00b8c                 | '   bb:=byte[@vga_font+font_family<<10+achar<<4+yy]
00b8c     16 31 C2 FA | 	rdbyte	local37, local35
00b90                 | '   repeat xx from 0 to 7
00b90     00 32 06 F6 | 	mov	local38, #0
00b94                 | LR__0014
00b94                 | '     if (bb&(1<<xx))<>0
00b94     19 35 C2 F9 | 	decod	local39, local38
00b98     1A 31 CA F7 | 	test	local37, local39 wz
00b9c     40 00 90 AD |  if_e	jmp	#LR__0015
00ba0     19 DF 01 F6 | 	mov	arg01, local38
00ba4     0F DF 01 F1 | 	add	arg01, local28
00ba8     15 E1 01 F6 | 	mov	arg02, local34
00bac     11 E1 01 F1 | 	add	arg02, local30
00bb0                 | '       putpixel(xx+x,yy+y,f)
00bb0     D8 A8 05 F1 | 	add	objptr, #216
00bb4     D4 36 02 FB | 	rdlong	local40, objptr
00bb8     D8 A8 85 F1 | 	sub	objptr, #216
00bbc     1B 35 02 FB | 	rdlong	local39, local40
00bc0     04 36 06 F1 | 	add	local40, #4
00bc4     1B 39 02 FB | 	rdlong	local41, local40
00bc8     9A E2 05 F6 | 	mov	arg03, #154
00bcc     D4 3A 02 F6 | 	mov	local42, objptr
00bd0     1A A9 01 F6 | 	mov	objptr, local39
00bd4     2D 38 62 FD | 	call	local41
00bd8     1D A9 01 F6 | 	mov	objptr, local42
00bdc                 | '     else
00bdc     3C 00 90 FD | 	jmp	#LR__0016
00be0                 | LR__0015
00be0     19 DF 01 F6 | 	mov	arg01, local38
00be4     0F DF 01 F1 | 	add	arg01, local28
00be8     15 E1 01 F6 | 	mov	arg02, local34
00bec     11 E1 01 F1 | 	add	arg02, local30
00bf0                 | '       putpixel(xx+x,yy+y,b)
00bf0     D8 A8 05 F1 | 	add	objptr, #216
00bf4     D4 36 02 FB | 	rdlong	local40, objptr
00bf8     D8 A8 85 F1 | 	sub	objptr, #216
00bfc     1B 35 02 FB | 	rdlong	local39, local40
00c00     04 36 06 F1 | 	add	local40, #4
00c04     1B 39 02 FB | 	rdlong	local41, local40
00c08     92 E2 05 F6 | 	mov	arg03, #146
00c0c     D4 3A 02 F6 | 	mov	local42, objptr
00c10     1A A9 01 F6 | 	mov	objptr, local39
00c14     2D 38 62 FD | 	call	local41
00c18     1D A9 01 F6 | 	mov	objptr, local42
00c1c                 | LR__0016
00c1c     01 32 06 F1 | 	add	local38, #1
00c20     08 32 5E F2 | 	cmps	local38, #8 wcz
00c24     6C FF 9F CD |  if_b	jmp	#LR__0014
00c28     01 2A 06 F1 | 	add	local34, #1
00c2c     10 2A 5E F2 | 	cmps	local34, #16 wcz
00c30     38 FF 9F CD |  if_b	jmp	#LR__0013
00c34     0D 13 02 F1 | 	add	local22, local26
00c38     0C 13 0A F2 | 	cmp	local22, local25 wz
00c3c     F4 FE 9F 5D |  if_ne	jmp	#LR__0012
00c40                 | ' 
00c40                 | ' 'pinwrite(2,1)
00c40                 | ' 'pinwrite(3,1)
00c40                 | ' 
00c40                 | ' 'dacinit()
00c40                 | ' 
00c40                 | ' h11:=$8000
00c40     0F F6 C5 F9 | 	decod	local08, #15
00c44     28 A8 85 F1 | 	sub	objptr, #40
00c48     40 00 80 FF 
00c4c     D4 00 68 FC | 	wrlong	##32768, objptr
00c50                 | ' h12:=$8000
00c50     04 A8 05 F1 | 	add	objptr, #4
00c54     D4 F6 61 FC | 	wrlong	local08, objptr
00c58                 | ' 
00c58                 | ' 'dacset(h11,h12) 
00c58                 | ' xxx:=0 'v.bufptr
00c58     00 F6 05 F6 | 	mov	local08, #0
00c5c     18 A8 05 F1 | 	add	objptr, #24
00c60     D4 00 68 FC | 	wrlong	#0, objptr
00c64                 | ' yyy:=0
00c64     04 A8 05 F1 | 	add	objptr, #4
00c68     D4 00 68 FC | 	wrlong	#0, objptr
00c6c                 | ' qqq:=0
00c6c     04 A8 05 F1 | 	add	objptr, #4
00c70     D4 00 68 FC | 	wrlong	#0, objptr
00c74     01 00 00 FF 
00c78     5C A8 85 F1 | 	sub	objptr, ##604
00c7c                 | ' iiii:=0
00c7c                 | ' jjjj:=0
00c7c                 | ' repeat
00c7c                 | '   repeat
00c7c                 | LR__0017
00c7c                 | '     rr:=serialblockingread()
00c7c                 | ' 
00c7c                 | ' repeat
00c7c                 | LR__0018
00c7c                 | '   r:=serialread()
00c7c     88 09 B0 FD | 	call	#_serialread
00c80     DD 3C 02 F6 | 	mov	local43, result1
00c84     FF FF 7F FF 
00c88     FF 3D 0E F2 | 	cmp	local43, ##-1 wz
00c8c     EC FF 9F AD |  if_e	jmp	#LR__0018
00c90                 | ' until r<>-1
00c90                 | ' return r
00c90     1E BB 01 F6 | 	mov	result1, local43
00c94     01 00 00 FF 
00c98     20 A8 05 F1 | 	add	objptr, ##544
00c9c     D4 BA 61 FC | 	wrlong	result1, objptr
00ca0                 | '     if rr==255
00ca0     DD F6 01 F6 | 	mov	local08, result1
00ca4     01 00 00 FF 
00ca8     20 A8 85 F1 | 	sub	objptr, ##544
00cac     FF F6 0D F2 | 	cmp	local08, #255 wz
00cb0     20 00 90 5D |  if_ne	jmp	#LR__0019
00cb4                 | '       xxx:=0
00cb4     01 00 00 FF 
00cb8     54 A8 05 F1 | 	add	objptr, ##596
00cbc     D4 00 68 FC | 	wrlong	#0, objptr
00cc0                 | '       yyy:=0
00cc0     04 A8 05 F1 | 	add	objptr, #4
00cc4     D4 00 68 FC | 	wrlong	#0, objptr
00cc8     01 00 00 FF 
00ccc     58 A8 85 F1 | 	sub	objptr, ##600
00cd0                 | '     else  
00cd0     A8 FF 9F FD | 	jmp	#LR__0017
00cd4                 | LR__0019
00cd4     01 00 00 FF 
00cd8     58 A8 05 F1 | 	add	objptr, ##600
00cdc     D4 3E 02 FB | 	rdlong	local44, objptr
00ce0     07 3E 66 F0 | 	shl	local44, #7
00ce4                 | '       byte[v.buf_ptr+(yyy<<7)+xxx]:=rr
00ce4     08 A8 05 F1 | 	add	objptr, #8
00ce8     D4 F6 01 FB | 	rdlong	local08, objptr
00cec     1F F7 01 F1 | 	add	local08, local44
00cf0     0C A8 85 F1 | 	sub	objptr, #12
00cf4     D4 40 02 FB | 	rdlong	local45, objptr
00cf8     20 F7 01 F1 | 	add	local08, local45
00cfc     34 A8 85 F1 | 	sub	objptr, #52
00d00     D4 42 02 FB | 	rdlong	local46, objptr
00d04     FB 42 42 FC | 	wrbyte	local46, local08
00d08                 | '       xxx++
00d08     34 A8 05 F1 | 	add	objptr, #52
00d0c     D4 F6 01 FB | 	rdlong	local08, objptr
00d10     01 F6 05 F1 | 	add	local08, #1
00d14     D4 F6 61 FC | 	wrlong	local08, objptr
00d18                 | '       if (xxx>79)
00d18     01 00 00 FF 
00d1c     54 A8 85 F1 | 	sub	objptr, ##596
00d20     4F F6 5D F2 | 	cmps	local08, #79 wcz
00d24     54 FF 9F ED |  if_be	jmp	#LR__0017
00d28                 | '         xxx:=0
00d28     01 00 00 FF 
00d2c     54 A8 05 F1 | 	add	objptr, ##596
00d30     D4 00 68 FC | 	wrlong	#0, objptr
00d34     04 A8 05 F1 | 	add	objptr, #4
00d38     D4 86 02 FB | 	rdlong	muldiva_, objptr
00d3c     01 00 00 FF 
00d40     58 A8 85 F1 | 	sub	objptr, ##600
00d44     01 86 06 F1 | 	add	muldiva_, #1
00d48     3C 88 06 F6 | 	mov	muldivb_, #60
00d4c     C1 00 A0 FD | 	call	#unsdivide_
00d50                 | '         yyy:=(yyy+1)+//60
00d50     01 00 00 FF 
00d54     58 A8 05 F1 | 	add	objptr, ##600
00d58     D4 86 62 FC | 	wrlong	muldiva_, objptr
00d5c     01 00 00 FF 
00d60     58 A8 85 F1 | 	sub	objptr, ##600
00d64     14 FF 9F FD | 	jmp	#LR__0017
00d68                 | ' 
00d68                 | ' 
00d68                 | ' 
00d68                 | ' 
00d68                 | ' 
00d68                 | ' repeat
00d68                 | LR__0020
00d68                 | '   repeat
00d68                 | LR__0021
00d68                 | '     rr:=serialblockingread()
00d68                 | ' 
00d68                 | ' repeat
00d68                 | LR__0022
00d68                 | '   r:=serialread()
00d68     9C 08 B0 FD | 	call	#_serialread
00d6c     DD 3C 02 F6 | 	mov	local43, result1
00d70     FF FF 7F FF 
00d74     FF 3D 0E F2 | 	cmp	local43, ##-1 wz
00d78     EC FF 9F AD |  if_e	jmp	#LR__0022
00d7c                 | ' until r<>-1
00d7c                 | ' return r
00d7c     1E BB 01 F6 | 	mov	result1, local43
00d80     01 00 00 FF 
00d84     20 A8 05 F1 | 	add	objptr, ##544
00d88     D4 BA 61 FC | 	wrlong	result1, objptr
00d8c                 | '     v.write(v.inttohex(rr,2))
00d8c     DD DE 01 F6 | 	mov	arg01, result1
00d90     02 E0 05 F6 | 	mov	arg02, #2
00d94     40 A8 05 F1 | 	add	objptr, #64
00d98     F4 11 B0 FD | 	call	#_hng025_inttohex
00d9c     DD DE 01 F6 | 	mov	arg01, result1
00da0     04 0F B0 FD | 	call	#_hng025_write
00da4                 | '     v.write(string(" "))
00da4     1B 00 00 FF 
00da8     A2 DE 05 F6 | 	mov	arg01, ##@LR__0228
00dac     F8 0E B0 FD | 	call	#_hng025_write
00db0     3C A8 85 F1 | 	sub	objptr, #60
00db4     D4 44 02 FB | 	rdlong	local47, objptr
00db8     08 44 66 F0 | 	shl	local47, #8
00dbc     22 47 02 F6 | 	mov	local48, local47
00dc0     04 A8 85 F1 | 	sub	objptr, #4
00dc4     D4 F8 01 FB | 	rdlong	local09, objptr
00dc8     FC 46 02 F1 | 	add	local48, local09
00dcc                 | '     rr2:=(rr2<<8)+rr
00dcc     04 A8 05 F1 | 	add	objptr, #4
00dd0     D4 46 62 FC | 	wrlong	local48, objptr
00dd4     23 F7 01 F6 | 	mov	local08, local48
00dd8     01 00 00 FF 
00ddc     24 A8 85 F1 | 	sub	objptr, ##548
00de0     81 FF 00 FF 
00de4     FE F6 0D F2 | 	cmp	local08, ##33489662 wz
00de8     7C FF 9F 5D |  if_ne	jmp	#LR__0021
00dec                 | '   until rr2==$01FF02FE  
00dec                 | '   repeat iii from 0 to 3
00dec     04 48 06 F6 | 	mov	local49, #4
00df0                 | LR__0023
00df0                 | '     rr:=serialblockingread()    
00df0                 | ' 
00df0                 | ' repeat
00df0                 | LR__0024
00df0                 | '   r:=serialread()
00df0     14 08 B0 FD | 	call	#_serialread
00df4     DD 3C 02 F6 | 	mov	local43, result1
00df8     FF FF 7F FF 
00dfc     FF 3D 0E F2 | 	cmp	local43, ##-1 wz
00e00     EC FF 9F AD |  if_e	jmp	#LR__0024
00e04                 | ' until r<>-1
00e04                 | ' return r
00e04     1E BB 01 F6 | 	mov	result1, local43
00e08     DD F6 01 F6 | 	mov	local08, result1
00e0c     01 00 00 FF 
00e10     20 A8 05 F1 | 	add	objptr, ##544
00e14     D4 F6 61 FC | 	wrlong	local08, objptr
00e18     01 00 00 FF 
00e1c     20 A8 85 F1 | 	sub	objptr, ##544
00e20     F3 49 6E FB | 	djnz	local49, #LR__0023
00e24                 | '   l1:=serialblockingread()
00e24                 | ' 
00e24                 | ' repeat
00e24                 | LR__0025
00e24                 | '   r:=serialread()
00e24     E0 07 B0 FD | 	call	#_serialread
00e28     DD 3C 02 F6 | 	mov	local43, result1
00e2c     FF FF 7F FF 
00e30     FF 3D 0E F2 | 	cmp	local43, ##-1 wz
00e34     EC FF 9F AD |  if_e	jmp	#LR__0025
00e38                 | ' until r<>-1
00e38                 | ' return r
00e38     1E BB 01 F6 | 	mov	result1, local43
00e3c     01 00 00 FF 
00e40     2C A8 05 F1 | 	add	objptr, ##556
00e44     D4 BA 61 FC | 	wrlong	result1, objptr
00e48                 | '   v.write(v.inttohex(l1,2))
00e48     DD DE 01 F6 | 	mov	arg01, result1
00e4c     02 E0 05 F6 | 	mov	arg02, #2
00e50     34 A8 05 F1 | 	add	objptr, #52
00e54     38 11 B0 FD | 	call	#_hng025_inttohex
00e58     DD DE 01 F6 | 	mov	arg01, result1
00e5c     48 0E B0 FD | 	call	#_hng025_write
00e60                 | '   v.write(string(" "))
00e60     1B 00 00 FF 
00e64     A4 DE 05 F6 | 	mov	arg01, ##@LR__0229
00e68     3C 0E B0 FD | 	call	#_hng025_write
00e6c     01 00 00 FF 
00e70     60 A8 85 F1 | 	sub	objptr, ##608
00e74                 | '   
00e74                 | '       
00e74                 | '   h1:=serialblockingread()
00e74                 | ' 
00e74                 | ' repeat
00e74                 | LR__0026
00e74                 | '   r:=serialread()
00e74     90 07 B0 FD | 	call	#_serialread
00e78     DD 3C 02 F6 | 	mov	local43, result1
00e7c     FF FF 7F FF 
00e80     FF 3D 0E F2 | 	cmp	local43, ##-1 wz
00e84     EC FF 9F AD |  if_e	jmp	#LR__0026
00e88                 | ' until r<>-1
00e88                 | ' return r
00e88     1E BB 01 F6 | 	mov	result1, local43
00e8c     01 00 00 FF 
00e90     28 A8 05 F1 | 	add	objptr, ##552
00e94     D4 BA 61 FC | 	wrlong	result1, objptr
00e98                 | '   v.write(v.inttohex(h1,2))
00e98     DD DE 01 F6 | 	mov	arg01, result1
00e9c     02 E0 05 F6 | 	mov	arg02, #2
00ea0     38 A8 05 F1 | 	add	objptr, #56
00ea4     E8 10 B0 FD | 	call	#_hng025_inttohex
00ea8     DD DE 01 F6 | 	mov	arg01, result1
00eac     F8 0D B0 FD | 	call	#_hng025_write
00eb0                 | '   v.write(string(" "))
00eb0     1B 00 00 FF 
00eb4     A6 DE 05 F6 | 	mov	arg01, ##@LR__0230
00eb8     EC 0D B0 FD | 	call	#_hng025_write
00ebc     38 A8 85 F1 | 	sub	objptr, #56
00ec0     D4 4A 02 FB | 	rdlong	local50, objptr
00ec4     08 4A 66 F0 | 	shl	local50, #8
00ec8     25 4D 02 F6 | 	mov	local51, local50
00ecc     04 A8 05 F1 | 	add	objptr, #4
00ed0     D4 F8 01 FB | 	rdlong	local09, objptr
00ed4     FC 4C 02 F1 | 	add	local51, local09
00ed8     0F 4E C6 F9 | 	decod	local52, #15
00edc     26 4F 02 F1 | 	add	local52, local51
00ee0     27 51 02 F6 | 	mov	local53, local52
00ee4     7F 00 00 FF 
00ee8     FF 51 06 F5 | 	and	local53, ##65535
00eec                 | ' 
00eec                 | '   h1:=($8000+(h1<<8+l1)) & $FFFF
00eec     04 A8 85 F1 | 	sub	objptr, #4
00ef0     D4 50 62 FC | 	wrlong	local53, objptr
00ef4     01 00 00 FF 
00ef8     28 A8 85 F1 | 	sub	objptr, ##552
00efc                 | '   f1:=serialblockingread()  
00efc                 | ' 
00efc                 | ' repeat
00efc                 | LR__0027
00efc                 | '   r:=serialread()
00efc     08 07 B0 FD | 	call	#_serialread
00f00     DD 3C 02 F6 | 	mov	local43, result1
00f04     FF FF 7F FF 
00f08     FF 3D 0E F2 | 	cmp	local43, ##-1 wz
00f0c     EC FF 9F AD |  if_e	jmp	#LR__0027
00f10                 | ' until r<>-1
00f10                 | ' return r
00f10     1E BB 01 F6 | 	mov	result1, local43
00f14     01 00 00 FF 
00f18     30 A8 05 F1 | 	add	objptr, ##560
00f1c     D4 BA 61 FC | 	wrlong	result1, objptr
00f20                 | '   v.write(v.inttohex(f1,2))
00f20     DD DE 01 F6 | 	mov	arg01, result1
00f24     02 E0 05 F6 | 	mov	arg02, #2
00f28     30 A8 05 F1 | 	add	objptr, #48
00f2c     60 10 B0 FD | 	call	#_hng025_inttohex
00f30     DD DE 01 F6 | 	mov	arg01, result1
00f34     70 0D B0 FD | 	call	#_hng025_write
00f38                 | '   v.write(string(" "))  
00f38     1B 00 00 FF 
00f3c     A8 DE 05 F6 | 	mov	arg01, ##@LR__0231
00f40     64 0D B0 FD | 	call	#_hng025_write
00f44     01 00 00 FF 
00f48     60 A8 85 F1 | 	sub	objptr, ##608
00f4c                 | '   c1:=serialblockingread()
00f4c                 | ' 
00f4c                 | ' repeat
00f4c                 | LR__0028
00f4c                 | '   r:=serialread()
00f4c     B8 06 B0 FD | 	call	#_serialread
00f50     DD 3C 02 F6 | 	mov	local43, result1
00f54     FF FF 7F FF 
00f58     FF 3D 0E F2 | 	cmp	local43, ##-1 wz
00f5c     EC FF 9F AD |  if_e	jmp	#LR__0028
00f60                 | ' until r<>-1
00f60                 | ' return r
00f60     1E BB 01 F6 | 	mov	result1, local43
00f64     01 00 00 FF 
00f68     34 A8 05 F1 | 	add	objptr, ##564
00f6c     D4 BA 61 FC | 	wrlong	result1, objptr
00f70                 | '   v.write(v.inttohex(c1,2))
00f70     DD DE 01 F6 | 	mov	arg01, result1
00f74     02 E0 05 F6 | 	mov	arg02, #2
00f78     2C A8 05 F1 | 	add	objptr, #44
00f7c     10 10 B0 FD | 	call	#_hng025_inttohex
00f80     DD DE 01 F6 | 	mov	arg01, result1
00f84     20 0D B0 FD | 	call	#_hng025_write
00f88                 | '   v.write(string(" "))  
00f88     1B 00 00 FF 
00f8c     AA DE 05 F6 | 	mov	arg01, ##@LR__0232
00f90     14 0D B0 FD | 	call	#_hng025_write
00f94     30 A8 85 F1 | 	sub	objptr, #48
00f98     D4 52 02 FB | 	rdlong	local54, objptr
00f9c     08 52 66 F0 | 	shl	local54, #8
00fa0     29 55 02 F6 | 	mov	local55, local54
00fa4     04 A8 05 F1 | 	add	objptr, #4
00fa8     D4 F8 01 FB | 	rdlong	local09, objptr
00fac     FC 54 02 F1 | 	add	local55, local09
00fb0                 | '   f1:=(f1<<8+c1)
00fb0     04 A8 85 F1 | 	sub	objptr, #4
00fb4     D4 54 62 FC | 	wrlong	local55, objptr
00fb8                 | '   v.write(v.inttohex(h1,4))
00fb8     08 A8 85 F1 | 	sub	objptr, #8
00fbc     D4 DE 01 FB | 	rdlong	arg01, objptr
00fc0     04 E0 05 F6 | 	mov	arg02, #4
00fc4     38 A8 05 F1 | 	add	objptr, #56
00fc8     C4 0F B0 FD | 	call	#_hng025_inttohex
00fcc     DD DE 01 F6 | 	mov	arg01, result1
00fd0     D4 0C B0 FD | 	call	#_hng025_write
00fd4                 | '   v.write(string(" ") )
00fd4     1B 00 00 FF 
00fd8     AC DE 05 F6 | 	mov	arg01, ##@LR__0233
00fdc     C8 0C B0 FD | 	call	#_hng025_write
00fe0                 | '   v.write(v.inttohex(f1,4))
00fe0     30 A8 85 F1 | 	sub	objptr, #48
00fe4     D4 DE 01 FB | 	rdlong	arg01, objptr
00fe8     04 E0 05 F6 | 	mov	arg02, #4
00fec     30 A8 05 F1 | 	add	objptr, #48
00ff0     9C 0F B0 FD | 	call	#_hng025_inttohex
00ff4     DD DE 01 F6 | 	mov	arg01, result1
00ff8     AC 0C B0 FD | 	call	#_hng025_write
00ffc                 | '   v.write(string(" ") )
00ffc     1B 00 00 FF 
01000     AE DE 05 F6 | 	mov	arg01, ##@LR__0234
01004     A0 0C B0 FD | 	call	#_hng025_write
01008                 | '   v.writeln(string(" "))
01008     1B 00 00 FF 
0100c     B0 DE 05 F6 | 	mov	arg01, ##@LR__0235
01010     48 0E B0 FD | 	call	#_hng025_writeln
01014                 | ' 
01014                 | '   
01014                 | ' 
01014                 | '   if (f1==$0202)
01014     30 A8 85 F1 | 	sub	objptr, #48
01018     D4 F6 01 FB | 	rdlong	local08, objptr
0101c     01 00 00 FF 
01020     30 A8 85 F1 | 	sub	objptr, ##560
01024     01 00 00 FF 
01028     02 F6 0D F2 | 	cmp	local08, ##514 wz
0102c     1C 00 90 5D |  if_ne	jmp	#LR__0029
01030                 | '     h11:=h1
01030     01 00 00 FF 
01034     28 A8 05 F1 | 	add	objptr, ##552
01038     D4 F6 01 FB | 	rdlong	local08, objptr
0103c     10 A8 05 F1 | 	add	objptr, #16
01040     D4 F6 61 FC | 	wrlong	local08, objptr
01044     01 00 00 FF 
01048     38 A8 85 F1 | 	sub	objptr, ##568
0104c                 | LR__0029
0104c                 | '   if (f1==$0203)
0104c     01 00 00 FF 
01050     30 A8 05 F1 | 	add	objptr, ##560
01054     D4 F6 01 FB | 	rdlong	local08, objptr
01058     01 00 00 FF 
0105c     30 A8 85 F1 | 	sub	objptr, ##560
01060     01 00 00 FF 
01064     03 F6 0D F2 | 	cmp	local08, ##515 wz
01068     1C 00 90 5D |  if_ne	jmp	#LR__0030
0106c                 | '     h12:=h1
0106c     01 00 00 FF 
01070     28 A8 05 F1 | 	add	objptr, ##552
01074     D4 F6 01 FB | 	rdlong	local08, objptr
01078     14 A8 05 F1 | 	add	objptr, #20
0107c     D4 F6 61 FC | 	wrlong	local08, objptr
01080     01 00 00 FF 
01084     3C A8 85 F1 | 	sub	objptr, ##572
01088                 | LR__0030
01088                 | '     
01088                 | '   h21:=$8000
01088     0F F6 C5 F9 | 	decod	local08, #15
0108c     01 00 00 FF 
01090     40 A8 05 F1 | 	add	objptr, ##576
01094     40 00 80 FF 
01098     D4 00 68 FC | 	wrlong	##32768, objptr
0109c                 | '   h22:=$8000  
0109c     04 A8 05 F1 | 	add	objptr, #4
010a0     D4 F6 61 FC | 	wrlong	local08, objptr
010a4                 | '     
010a4                 | '  ' 1 joy do przodu, robot jedzie, 0203= h11=0   
010a4                 | '     
010a4                 | '   if (h12<$1000) & (h11<$F000) & (h11>$1000)
010a4     00 F6 05 F6 | 	mov	local08, #0
010a8     08 A8 85 F1 | 	sub	objptr, #8
010ac     D4 F8 01 FB | 	rdlong	local09, objptr
010b0     08 00 00 FF 
010b4     00 F8 5D F2 | 	cmps	local09, ##4096 wcz
010b8     01 F6 65 C6 |  if_b	neg	local08, #1
010bc     00 56 06 F6 | 	mov	local56, #0
010c0     04 A8 85 F1 | 	sub	objptr, #4
010c4     D4 42 02 FB | 	rdlong	local46, objptr
010c8     78 00 00 FF 
010cc     00 42 5E F2 | 	cmps	local46, ##61440 wcz
010d0     01 56 66 C6 |  if_b	neg	local56, #1
010d4     2B F7 01 F5 | 	and	local08, local56
010d8     00 58 06 F6 | 	mov	local57, #0
010dc     D4 5A 02 FB | 	rdlong	local58, objptr
010e0     01 00 00 FF 
010e4     38 A8 85 F1 | 	sub	objptr, ##568
010e8     08 00 00 FF 
010ec     00 5A 5E F2 | 	cmps	local58, ##4096 wcz
010f0     01 58 66 16 |  if_a	neg	local57, #1
010f4     2C F7 C9 F7 | 	test	local08, local57 wz
010f8     28 00 90 AD |  if_e	jmp	#LR__0031
010fc                 | '     h21:=$2800
010fc     01 00 00 FF 
01100     40 A8 05 F1 | 	add	objptr, ##576
01104     14 00 80 FF 
01108     D4 00 68 FC | 	wrlong	##10240, objptr
0110c                 | '     h22:=$2800
0110c     04 A8 05 F1 | 	add	objptr, #4
01110     14 00 80 FF 
01114     D4 00 68 FC | 	wrlong	##10240, objptr
01118     01 00 00 FF 
0111c     44 A8 85 F1 | 	sub	objptr, ##580
01120     3C 03 90 FD | 	jmp	#LR__0045
01124                 | LR__0031
01124                 | ' 
01124                 | ' ' 2. joy do tyłu, robot do tyłu
01124                 | ' 
01124                 | '   elseif (h12>$F000) & (h11<$F000) & (h11>$1000)
01124     00 F6 05 F6 | 	mov	local08, #0
01128     01 00 00 FF 
0112c     3C A8 05 F1 | 	add	objptr, ##572
01130     D4 F8 01 FB | 	rdlong	local09, objptr
01134     78 00 00 FF 
01138     00 F8 5D F2 | 	cmps	local09, ##61440 wcz
0113c     01 F6 65 16 |  if_a	neg	local08, #1
01140     00 56 06 F6 | 	mov	local56, #0
01144     04 A8 85 F1 | 	sub	objptr, #4
01148     D4 5C 02 FB | 	rdlong	local59, objptr
0114c     78 00 00 FF 
01150     00 5C 5E F2 | 	cmps	local59, ##61440 wcz
01154     01 56 66 C6 |  if_b	neg	local56, #1
01158     2B F7 01 F5 | 	and	local08, local56
0115c     00 58 06 F6 | 	mov	local57, #0
01160     D4 5E 02 FB | 	rdlong	local60, objptr
01164     01 00 00 FF 
01168     38 A8 85 F1 | 	sub	objptr, ##568
0116c     08 00 00 FF 
01170     00 5E 5E F2 | 	cmps	local60, ##4096 wcz
01174     01 58 66 16 |  if_a	neg	local57, #1
01178     2C F7 C9 F7 | 	test	local08, local57 wz
0117c     28 00 90 AD |  if_e	jmp	#LR__0032
01180                 | '     h21:=$D800
01180     01 00 00 FF 
01184     40 A8 05 F1 | 	add	objptr, ##576
01188     6C 00 80 FF 
0118c     D4 00 68 FC | 	wrlong	##55296, objptr
01190                 | '     h22:=$D800
01190     04 A8 05 F1 | 	add	objptr, #4
01194     6C 00 80 FF 
01198     D4 00 68 FC | 	wrlong	##55296, objptr
0119c     01 00 00 FF 
011a0     44 A8 85 F1 | 	sub	objptr, ##580
011a4     B8 02 90 FD | 	jmp	#LR__0044
011a8                 | LR__0032
011a8                 | ' 
011a8                 | '   '3,4  joy w bok
011a8                 | '   
011a8                 | '   elseif (h11>$F000) & (h12<$F000) & (h12>$1000)
011a8     00 F6 05 F6 | 	mov	local08, #0
011ac     01 00 00 FF 
011b0     38 A8 05 F1 | 	add	objptr, ##568
011b4     D4 F8 01 FB | 	rdlong	local09, objptr
011b8     78 00 00 FF 
011bc     00 F8 5D F2 | 	cmps	local09, ##61440 wcz
011c0     01 F6 65 16 |  if_a	neg	local08, #1
011c4     00 56 06 F6 | 	mov	local56, #0
011c8     04 A8 05 F1 | 	add	objptr, #4
011cc     D4 5C 02 FB | 	rdlong	local59, objptr
011d0     78 00 00 FF 
011d4     00 5C 5E F2 | 	cmps	local59, ##61440 wcz
011d8     01 56 66 C6 |  if_b	neg	local56, #1
011dc     2B F7 01 F5 | 	and	local08, local56
011e0     00 58 06 F6 | 	mov	local57, #0
011e4     D4 5E 02 FB | 	rdlong	local60, objptr
011e8     01 00 00 FF 
011ec     3C A8 85 F1 | 	sub	objptr, ##572
011f0     08 00 00 FF 
011f4     00 5E 5E F2 | 	cmps	local60, ##4096 wcz
011f8     01 58 66 16 |  if_a	neg	local57, #1
011fc     2C F7 C9 F7 | 	test	local08, local57 wz
01200     28 00 90 AD |  if_e	jmp	#LR__0033
01204                 | '     h21:=$D800
01204     01 00 00 FF 
01208     40 A8 05 F1 | 	add	objptr, ##576
0120c     6C 00 80 FF 
01210     D4 00 68 FC | 	wrlong	##55296, objptr
01214                 | '     h22:=$2800
01214     04 A8 05 F1 | 	add	objptr, #4
01218     14 00 80 FF 
0121c     D4 00 68 FC | 	wrlong	##10240, objptr
01220     01 00 00 FF 
01224     44 A8 85 F1 | 	sub	objptr, ##580
01228     34 02 90 FD | 	jmp	#LR__0043
0122c                 | LR__0033
0122c                 | '     
0122c                 | '   elseif (h11<$1000) & (h12<$F000) & (h12>$1000)
0122c     00 F6 05 F6 | 	mov	local08, #0
01230     01 00 00 FF 
01234     38 A8 05 F1 | 	add	objptr, ##568
01238     D4 F8 01 FB | 	rdlong	local09, objptr
0123c     08 00 00 FF 
01240     00 F8 5D F2 | 	cmps	local09, ##4096 wcz
01244     01 F6 65 C6 |  if_b	neg	local08, #1
01248     00 56 06 F6 | 	mov	local56, #0
0124c     04 A8 05 F1 | 	add	objptr, #4
01250     D4 5C 02 FB | 	rdlong	local59, objptr
01254     78 00 00 FF 
01258     00 5C 5E F2 | 	cmps	local59, ##61440 wcz
0125c     01 56 66 C6 |  if_b	neg	local56, #1
01260     2B F7 01 F5 | 	and	local08, local56
01264     00 58 06 F6 | 	mov	local57, #0
01268     D4 5E 02 FB | 	rdlong	local60, objptr
0126c     01 00 00 FF 
01270     3C A8 85 F1 | 	sub	objptr, ##572
01274     2F 5B 02 F6 | 	mov	local58, local60
01278     08 00 00 FF 
0127c     00 5A 5E F2 | 	cmps	local58, ##4096 wcz
01280     01 58 66 16 |  if_a	neg	local57, #1
01284     2C F7 C9 F7 | 	test	local08, local57 wz
01288     28 00 90 AD |  if_e	jmp	#LR__0034
0128c                 | '     h21:=$2800
0128c     01 00 00 FF 
01290     40 A8 05 F1 | 	add	objptr, ##576
01294     14 00 80 FF 
01298     D4 00 68 FC | 	wrlong	##10240, objptr
0129c                 | '     h22:=$d800
0129c     04 A8 05 F1 | 	add	objptr, #4
012a0     6C 00 80 FF 
012a4     D4 00 68 FC | 	wrlong	##55296, objptr
012a8     01 00 00 FF 
012ac     44 A8 85 F1 | 	sub	objptr, ##580
012b0     AC 01 90 FD | 	jmp	#LR__0042
012b4                 | LR__0034
012b4                 | '     
012b4                 | '   elseif (h12>$F000) & (h11>$F000)    
012b4     00 F6 05 F6 | 	mov	local08, #0
012b8     01 00 00 FF 
012bc     3C A8 05 F1 | 	add	objptr, ##572
012c0     D4 F8 01 FB | 	rdlong	local09, objptr
012c4     78 00 00 FF 
012c8     00 F8 5D F2 | 	cmps	local09, ##61440 wcz
012cc     01 F6 65 16 |  if_a	neg	local08, #1
012d0     00 56 06 F6 | 	mov	local56, #0
012d4     04 A8 85 F1 | 	sub	objptr, #4
012d8     D4 5C 02 FB | 	rdlong	local59, objptr
012dc     01 00 00 FF 
012e0     38 A8 85 F1 | 	sub	objptr, ##568
012e4     78 00 00 FF 
012e8     00 5C 5E F2 | 	cmps	local59, ##61440 wcz
012ec     01 56 66 16 |  if_a	neg	local56, #1
012f0     2B F7 C9 F7 | 	test	local08, local56 wz
012f4     28 00 90 AD |  if_e	jmp	#LR__0035
012f8                 | '     h21:=$D800
012f8     01 00 00 FF 
012fc     40 A8 05 F1 | 	add	objptr, ##576
01300     6C 00 80 FF 
01304     D4 00 68 FC | 	wrlong	##55296, objptr
01308                 | '     h22:=$c000
01308     04 A8 05 F1 | 	add	objptr, #4
0130c     60 00 80 FF 
01310     D4 00 68 FC | 	wrlong	##49152, objptr
01314     01 00 00 FF 
01318     44 A8 85 F1 | 	sub	objptr, ##580
0131c     40 01 90 FD | 	jmp	#LR__0041
01320                 | LR__0035
01320                 | '     
01320                 | '   elseif (h12>$F000) & (h11<$1000)
01320     00 F6 05 F6 | 	mov	local08, #0
01324     01 00 00 FF 
01328     3C A8 05 F1 | 	add	objptr, ##572
0132c     D4 F8 01 FB | 	rdlong	local09, objptr
01330     78 00 00 FF 
01334     00 F8 5D F2 | 	cmps	local09, ##61440 wcz
01338     01 F6 65 16 |  if_a	neg	local08, #1
0133c     00 56 06 F6 | 	mov	local56, #0
01340     04 A8 85 F1 | 	sub	objptr, #4
01344     D4 5C 02 FB | 	rdlong	local59, objptr
01348     01 00 00 FF 
0134c     38 A8 85 F1 | 	sub	objptr, ##568
01350     08 00 00 FF 
01354     00 5C 5E F2 | 	cmps	local59, ##4096 wcz
01358     01 56 66 C6 |  if_b	neg	local56, #1
0135c     2B F7 C9 F7 | 	test	local08, local56 wz
01360     28 00 90 AD |  if_e	jmp	#LR__0036
01364                 | '     h21:=$c000
01364     01 00 00 FF 
01368     40 A8 05 F1 | 	add	objptr, ##576
0136c     60 00 80 FF 
01370     D4 00 68 FC | 	wrlong	##49152, objptr
01374                 | '     h22:=$D800  
01374     04 A8 05 F1 | 	add	objptr, #4
01378     6C 00 80 FF 
0137c     D4 00 68 FC | 	wrlong	##55296, objptr
01380     01 00 00 FF 
01384     44 A8 85 F1 | 	sub	objptr, ##580
01388     D4 00 90 FD | 	jmp	#LR__0040
0138c                 | LR__0036
0138c                 | '     
0138c                 | '   elseif (h12<$1000) & (h11>$F000)    
0138c     00 F6 05 F6 | 	mov	local08, #0
01390     01 00 00 FF 
01394     3C A8 05 F1 | 	add	objptr, ##572
01398     D4 F8 01 FB | 	rdlong	local09, objptr
0139c     08 00 00 FF 
013a0     00 F8 5D F2 | 	cmps	local09, ##4096 wcz
013a4     01 F6 65 C6 |  if_b	neg	local08, #1
013a8     00 56 06 F6 | 	mov	local56, #0
013ac     04 A8 85 F1 | 	sub	objptr, #4
013b0     D4 5C 02 FB | 	rdlong	local59, objptr
013b4     01 00 00 FF 
013b8     38 A8 85 F1 | 	sub	objptr, ##568
013bc     78 00 00 FF 
013c0     00 5C 5E F2 | 	cmps	local59, ##61440 wcz
013c4     01 56 66 16 |  if_a	neg	local56, #1
013c8     2B F7 C9 F7 | 	test	local08, local56 wz
013cc     28 00 90 AD |  if_e	jmp	#LR__0037
013d0                 | '     h21:=$4000
013d0     01 00 00 FF 
013d4     40 A8 05 F1 | 	add	objptr, ##576
013d8     20 00 80 FF 
013dc     D4 00 68 FC | 	wrlong	##16384, objptr
013e0                 | '     h22:=$2800
013e0     04 A8 05 F1 | 	add	objptr, #4
013e4     14 00 80 FF 
013e8     D4 00 68 FC | 	wrlong	##10240, objptr
013ec     01 00 00 FF 
013f0     44 A8 85 F1 | 	sub	objptr, ##580
013f4     68 00 90 FD | 	jmp	#LR__0039
013f8                 | LR__0037
013f8                 | '     
013f8                 | '   elseif (h12<$1000) & (h11<$F000)
013f8     00 F6 05 F6 | 	mov	local08, #0
013fc     01 00 00 FF 
01400     3C A8 05 F1 | 	add	objptr, ##572
01404     D4 F8 01 FB | 	rdlong	local09, objptr
01408     08 00 00 FF 
0140c     00 F8 5D F2 | 	cmps	local09, ##4096 wcz
01410     01 F6 65 C6 |  if_b	neg	local08, #1
01414     00 56 06 F6 | 	mov	local56, #0
01418     04 A8 85 F1 | 	sub	objptr, #4
0141c     D4 5C 02 FB | 	rdlong	local59, objptr
01420     01 00 00 FF 
01424     38 A8 85 F1 | 	sub	objptr, ##568
01428     78 00 00 FF 
0142c     00 5C 5E F2 | 	cmps	local59, ##61440 wcz
01430     01 56 66 C6 |  if_b	neg	local56, #1
01434     2B F7 C9 F7 | 	test	local08, local56 wz
01438     24 00 90 AD |  if_e	jmp	#LR__0038
0143c                 | '     h21:=$2800
0143c     01 00 00 FF 
01440     40 A8 05 F1 | 	add	objptr, ##576
01444     14 00 80 FF 
01448     D4 00 68 FC | 	wrlong	##10240, objptr
0144c                 | '     h22:=$4000  
0144c     04 A8 05 F1 | 	add	objptr, #4
01450     20 00 80 FF 
01454     D4 00 68 FC | 	wrlong	##16384, objptr
01458     01 00 00 FF 
0145c     44 A8 85 F1 | 	sub	objptr, ##580
01460                 | LR__0038
01460                 | LR__0039
01460                 | LR__0040
01460                 | LR__0041
01460                 | LR__0042
01460                 | LR__0043
01460                 | LR__0044
01460                 | LR__0045
01460                 | '  
01460                 | '     
01460                 | '   dacset(h21,h22)    
01460     01 00 00 FF 
01464     40 A8 05 F1 | 	add	objptr, ##576
01468     D4 DE 01 FB | 	rdlong	arg01, objptr
0146c     04 A8 05 F1 | 	add	objptr, #4
01470     D4 E0 01 FB | 	rdlong	arg02, objptr
01474     01 00 00 FF 
01478     44 A8 85 F1 | 	sub	objptr, ##580
0147c     D4 02 B0 FD | 	call	#_dacset
01480                 | '   if (f1==$0108)
01480     01 00 00 FF 
01484     30 A8 05 F1 | 	add	objptr, ##560
01488     D4 F6 01 FB | 	rdlong	local08, objptr
0148c     01 00 00 FF 
01490     30 A8 85 F1 | 	sub	objptr, ##560
01494     08 F7 0D F2 | 	cmp	local08, #264 wz
01498     48 00 90 5D |  if_ne	jmp	#LR__0048
0149c                 | '     if (l1==1)
0149c     01 00 00 FF 
014a0     2C A8 05 F1 | 	add	objptr, ##556
014a4     D4 F6 01 FB | 	rdlong	local08, objptr
014a8     01 00 00 FF 
014ac     2C A8 85 F1 | 	sub	objptr, ##556
014b0     01 F6 0D F2 | 	cmp	local08, #1 wz
014b4     18 00 90 5D |  if_ne	jmp	#LR__0046
014b8                 | '       pinwrite(2,0)
014b8     00 E0 05 F6 | 	mov	arg02, #0
014bc     01 E0 D5 F7 | 	test	arg02, #1 wc
014c0     5A 04 64 FD | 	drvc	#2
014c4                 | '       pinwrite(3,0)
014c4     01 E0 D5 F7 | 	test	arg02, #1 wc
014c8     5A 06 64 FD | 	drvc	#3
014cc                 | '     else
014cc     14 00 90 FD | 	jmp	#LR__0047
014d0                 | LR__0046
014d0                 | '       pinwrite(2,1)
014d0     01 E0 05 F6 | 	mov	arg02, #1
014d4     01 E0 D5 F7 | 	test	arg02, #1 wc
014d8     5A 04 64 FD | 	drvc	#2
014dc                 | '       pinwrite(3,1)
014dc     01 E0 D5 F7 | 	test	arg02, #1 wc
014e0     5A 06 64 FD | 	drvc	#3
014e4                 | LR__0047
014e4                 | LR__0048
014e4                 | '       
014e4                 | '   v.write(v.inttohex(h21,4))
014e4     01 00 00 FF 
014e8     40 A8 05 F1 | 	add	objptr, ##576
014ec     D4 DE 01 FB | 	rdlong	arg01, objptr
014f0     04 E0 05 F6 | 	mov	arg02, #4
014f4     20 A8 05 F1 | 	add	objptr, #32
014f8     94 0A B0 FD | 	call	#_hng025_inttohex
014fc     DD DE 01 F6 | 	mov	arg01, result1
01500     A4 07 B0 FD | 	call	#_hng025_write
01504                 | '   v.write(string(" ") )
01504     1B 00 00 FF 
01508     B2 DE 05 F6 | 	mov	arg01, ##@LR__0236
0150c     98 07 B0 FD | 	call	#_hng025_write
01510                 | '   v.write(v.inttohex(h22,4))
01510     1C A8 85 F1 | 	sub	objptr, #28
01514     D4 DE 01 FB | 	rdlong	arg01, objptr
01518     04 40 06 F6 | 	mov	local45, #4
0151c     04 E0 05 F6 | 	mov	arg02, #4
01520     1C A8 05 F1 | 	add	objptr, #28
01524     68 0A B0 FD | 	call	#_hng025_inttohex
01528     DD DE 01 F6 | 	mov	arg01, result1
0152c     78 07 B0 FD | 	call	#_hng025_write
01530                 | '   v.write(string(" ") )
01530     1B 00 00 FF 
01534     B4 DE 05 F6 | 	mov	arg01, ##@LR__0237
01538     6C 07 B0 FD | 	call	#_hng025_write
0153c                 | '   v.writeln(string(" "))
0153c     1B 00 00 FF 
01540     B6 DE 05 F6 | 	mov	arg01, ##@LR__0238
01544     14 09 B0 FD | 	call	#_hng025_writeln
01548     01 00 00 FF 
0154c     60 A8 85 F1 | 	sub	objptr, ##608
01550     14 F8 9F FD | 	jmp	#LR__0020
01554     A4 F0 03 F6 | 	mov	ptra, fp
01558     B4 00 A0 FD | 	call	#popregs_
0155c                 | _start_ret
0155c     2D 00 64 FD | 	ret
01560                 | 
01560                 | '         
01560                 | ' pub serialcog()|q
01560                 | _serialcog
01560     06 44 05 F6 | 	mov	COUNT_, #6
01564     A5 00 A0 FD | 	call	#pushregs_
01568                 | ' 
01568                 | ' serialfront:=0
01568     00 E8 05 F6 | 	mov	local01, #0
0156c     1C A9 05 F1 | 	add	objptr, #284
01570     D4 00 68 FC | 	wrlong	#0, objptr
01574                 | ' serialtail:=0
01574     04 A8 85 F1 | 	sub	objptr, #4
01578     D4 00 68 FC | 	wrlong	#0, objptr
0157c     18 A9 85 F1 | 	sub	objptr, #280
01580                 | ' 
01580                 | ' repeat
01580                 | LR__0049
01580                 | '   if serialfront<>((serialtail-1) //32)
01580     18 A9 05 F1 | 	add	objptr, #280
01584     D4 E8 01 FB | 	rdlong	local01, objptr
01588     01 E8 85 F1 | 	sub	local01, #1
0158c     F4 EA 51 F6 | 	abs	local02, local01 wc
01590     1F EA 05 F5 | 	and	local02, #31
01594     F5 EA 61 C6 |  if_b	neg	local02, local02
01598     04 A8 05 F1 | 	add	objptr, #4
0159c     D4 EC 01 FB | 	rdlong	local03, objptr
015a0     1C A9 85 F1 | 	sub	objptr, #284
015a4     F5 EC 09 F2 | 	cmp	local03, local02 wz
015a8     D4 FF 9F AD |  if_e	jmp	#LR__0049
015ac                 | '     q:=rxcheck()
015ac     44 01 B0 FD | 	call	#_rxcheck
015b0     DD EE 01 F6 | 	mov	local04, result1
015b4                 | '     if q>=0
015b4     00 EE 5D F2 | 	cmps	local04, #0 wcz
015b8     C4 FF 9F CD |  if_b	jmp	#LR__0049
015bc     1C A9 05 F1 | 	add	objptr, #284
015c0     D4 F0 01 FB | 	rdlong	local05, objptr
015c4     02 F0 65 F0 | 	shl	local05, #2
015c8     04 A9 85 F1 | 	sub	objptr, #260
015cc     D4 F0 01 F1 | 	add	local05, objptr
015d0                 | '      serialbuf[serialfront]:=q
015d0     F8 EE 61 FC | 	wrlong	local04, local05
015d4                 | '      serialfront+=1
015d4     04 A9 05 F1 | 	add	objptr, #260
015d8     D4 F2 01 FB | 	rdlong	local06, objptr
015dc     01 F2 05 F1 | 	add	local06, #1
015e0     D4 F2 61 FC | 	wrlong	local06, objptr
015e4                 | '      serialfront:=serialfront // 32
015e4     F9 E8 51 F6 | 	abs	local01, local06 wc
015e8     1F E8 05 F5 | 	and	local01, #31
015ec     F4 E8 61 C6 |  if_b	neg	local01, local01
015f0     D4 E8 61 FC | 	wrlong	local01, objptr
015f4     1C A9 85 F1 | 	sub	objptr, #284
015f8     84 FF 9F FD | 	jmp	#LR__0049
015fc     A4 F0 03 F6 | 	mov	ptra, fp
01600     B4 00 A0 FD | 	call	#popregs_
01604                 | _serialcog_ret
01604     2D 00 64 FD | 	ret
01608                 | 
01608                 | ' 
01608                 | ' pub serialread():r
01608                 | _serialread
01608                 | ' 
01608                 | ' if serialfront<>serialtail
01608     1C A9 05 F1 | 	add	objptr, #284
0160c     D4 BE 01 FB | 	rdlong	_var01, objptr
01610     04 A8 85 F1 | 	sub	objptr, #4
01614     D4 C0 01 FB | 	rdlong	_var02, objptr
01618     18 A9 85 F1 | 	sub	objptr, #280
0161c     E0 BE 09 F2 | 	cmp	_var01, _var02 wz
01620     3C 00 90 AD |  if_e	jmp	#LR__0050
01624     18 A9 05 F1 | 	add	objptr, #280
01628     D4 C2 01 FB | 	rdlong	_var03, objptr
0162c     02 C2 65 F0 | 	shl	_var03, #2
01630     00 A9 85 F1 | 	sub	objptr, #256
01634     D4 C2 01 F1 | 	add	_var03, objptr
01638                 | '   r:=serialbuf[serialtail]
01638     E1 C4 01 FB | 	rdlong	_var04, _var03
0163c     00 A9 05 F1 | 	add	objptr, #256
01640     D4 C6 01 FB | 	rdlong	_var05, objptr
01644     01 C6 05 F1 | 	add	_var05, #1
01648     E3 BE 51 F6 | 	abs	_var01, _var05 wc
0164c     1F BE 05 F5 | 	and	_var01, #31
01650     DF BE 61 C6 |  if_b	neg	_var01, _var01
01654                 | '   serialtail:=(serialtail+1)//32
01654     D4 BE 61 FC | 	wrlong	_var01, objptr
01658     18 A9 85 F1 | 	sub	objptr, #280
0165c                 | ' else
0165c     04 00 90 FD | 	jmp	#LR__0051
01660                 | LR__0050
01660                 | '   r:=-1
01660     01 C4 65 F6 | 	neg	_var04, #1
01664                 | LR__0051
01664                 | ' return r
01664     E2 BA 01 F6 | 	mov	result1, _var04
01668                 | _serialread_ret
01668     2D 00 64 FD | 	ret
0166c                 | 
0166c                 | ' 
0166c                 | ' 
0166c                 | ' 
0166c                 | ' ''---------------------- Serial functions from jm_serial.spin2
0166c                 | ' 
0166c                 | ' pub serial_start(rxpin2, txpin2, baud) | bitmode
0166c                 | _serial_start
0166c     05 44 05 F6 | 	mov	COUNT_, #5
01670     A5 00 A0 FD | 	call	#pushregs_
01674     EF E8 01 F6 | 	mov	local01, arg01
01678     F0 EA 01 F6 | 	mov	local02, arg02
0167c                 | ' 
0167c                 | ' '' Start simple serial coms on rxpin and txpin at baud
0167c                 | ' 
0167c                 | ' '  longmove(@rxp, @rxpin2, 2)                                     ' save pins
0167c                 | ' 
0167c                 | '   rxp:=rxpin2
0167c     08 A8 05 F1 | 	add	objptr, #8
01680     D4 E8 61 FC | 	wrlong	local01, objptr
01684                 | '   txp:=txpin2
01684     04 A8 05 F1 | 	add	objptr, #4
01688     D4 EA 61 FC | 	wrlong	local02, objptr
0168c     0C A8 85 F1 | 	sub	objptr, #12
01690                 | ' 
01690                 | '   bitmode := muldiv64(clkfreq, $1_0000, baud) & $FFFFFC00       ' set bit timing
01690     14 DE 05 FB | 	rdlong	arg01, #20
01694     10 E0 C5 F9 | 	decod	arg02, #16
01698     F0 DE 01 FD | 	qmul	arg01, arg02
0169c     19 EC 61 FD | 	getqy	local03
016a0     18 EE 61 FD | 	getqx	local04
016a4     28 EC 61 FD | 	setq	local03
016a8     F1 EE 11 FD | 	qdiv	local04, arg03
016ac     18 BA 61 FD | 	getqx	result1
016b0     DD F0 01 F6 | 	mov	local05, result1
016b4     FE FF 7F FF 
016b8     00 F0 05 F5 | 	and	local05, ##-1024
016bc                 | '   bitmode |= 7                                                  ' set bits (8)
016bc     07 F0 45 F5 | 	or	local05, #7
016c0                 | ' 
016c0                 | '   org
016c0     5C E9 9F FE | 	loc	pa,	#(@LR__0053-@LR__0052)
016c4     95 00 A0 FD | 	call	#FCACHE_LOAD_
016c8                 | LR__0052
016c8 000             | 	org	0
016c8 000 50 E8 61 FD | 	fltl	local01
016cc 001 F4 7C 08 FC | 	wrpin	#62, local01
016d0 002 F4 F0 11 FC | 	wxpin	local05, local01
016d4 003 58 E8 61 FD | 	drvl	local01
016d8 004 50 EA 61 FD | 	fltl	local02
016dc 005 F5 F8 08 FC | 	wrpin	#124, local02
016e0 006 F5 F0 11 FC | 	wxpin	local05, local02
016e4 007 58 EA 61 FD | 	drvl	local02
016e8 008             | LR__0053
016e8                 | 	orgh
016e8     A4 F0 03 F6 | 	mov	ptra, fp
016ec     B4 00 A0 FD | 	call	#popregs_
016f0                 | _serial_start_ret
016f0     2D 00 64 FD | 	ret
016f4                 | 
016f4                 | '   while (rxcheck() >= 0)
016f4                 | ' 
016f4                 | ' 
016f4                 | ' pub rxcheck() : rxbyte | check
016f4                 | _rxcheck
016f4     03 44 05 F6 | 	mov	COUNT_, #3
016f8     A5 00 A0 FD | 	call	#pushregs_
016fc                 | ' 
016fc                 | ' '' Check for serial input
016fc                 | ' '' -- returns -1 if nothing available
016fc                 | ' 
016fc                 | '   rxbyte := -1
016fc     01 E8 65 F6 | 	neg	local01, #1
01700                 | '   check := pinr(rxp)
01700     08 A8 05 F1 | 	add	objptr, #8
01704     D4 DE 01 FB | 	rdlong	arg01, objptr
01708     08 A8 85 F1 | 	sub	objptr, #8
0170c     20 DE CD F7 | 	test	arg01, #32 wz
01710     FF EB 01 56 |  if_ne	mov	local02, inb
01714     FE EB 01 A6 |  if_e	mov	local02, ina
01718     EF EA 41 F0 | 	shr	local02, arg01
0171c     06 DE 45 F0 | 	shr	arg01, #6
01720     EF EA 41 F7 | 	zerox	local02, arg01
01724     F5 EC 09 F6 | 	mov	local03, local02 wz
01728                 | '   if (check)
01728     18 00 90 AD |  if_e	jmp	#LR__0054
0172c                 | '     rxbyte := rdpin(rxp) >> 24
0172c     08 A8 05 F1 | 	add	objptr, #8
01730     D4 DE 01 FB | 	rdlong	arg01, objptr
01734     08 A8 85 F1 | 	sub	objptr, #8
01738     00 E8 05 F6 | 	mov	local01, #0
0173c     EF E8 89 FA | 	rdpin	local01, arg01
01740     18 E8 45 F0 | 	shr	local01, #24
01744                 | LR__0054
01744     F4 BA 01 F6 | 	mov	result1, local01
01748     A4 F0 03 F6 | 	mov	ptra, fp
0174c     B4 00 A0 FD | 	call	#popregs_
01750                 | _rxcheck_ret
01750     2D 00 64 FD | 	ret
01754                 | 
01754                 | ' 
01754                 | '    
01754                 | ' pub dacset(lll,rrr)
01754                 | _dacset
01754                 | '    
01754                 | ' org   
01754     B0 E8 9F FE | 	loc	pa,	#(@LR__0056-@LR__0055)
01758     95 00 A0 FD | 	call	#FCACHE_LOAD_
0175c                 | LR__0055
0175c 000             | 	org	0
0175c 000 00 DE 25 FC | 	wypin	arg01, #0
01760 001 01 E0 25 FC | 	wypin	arg02, #1
01764 002             | LR__0056
01764                 | 	orgh
01764                 | _dacset_ret
01764     2D 00 64 FD | 	ret
01768                 | 
01768                 | ' 
01768                 | ' 
01768                 | ' ''---------- putpixel - put a pixel on the screen
01768                 | ' 
01768                 | ' pub putpixel1(x,y,c) |byte b
01768                 | _hng025_putpixel1
01768                 | ' 
01768                 | ' 
01768                 | ' if ((x>=0) & (x<32*cpl) & (y>=0) & (y<lines))
01768     00 BE 05 F6 | 	mov	_var01, #0
0176c     00 DE 5D F2 | 	cmps	arg01, #0 wcz
01770     01 BE 65 36 |  if_ae	neg	_var01, #1
01774     00 C0 05 F6 | 	mov	_var02, #0
01778     90 A8 05 F1 | 	add	objptr, #144
0177c     D4 C2 01 FB | 	rdlong	_var03, objptr
01780     05 C2 65 F0 | 	shl	_var03, #5
01784     E1 DE 59 F2 | 	cmps	arg01, _var03 wcz
01788     01 C0 65 C6 |  if_b	neg	_var02, #1
0178c     E0 BE 01 F5 | 	and	_var01, _var02
01790     00 C4 05 F6 | 	mov	_var04, #0
01794     00 E0 5D F2 | 	cmps	arg02, #0 wcz
01798     01 C4 65 36 |  if_ae	neg	_var04, #1
0179c     E2 BE 01 F5 | 	and	_var01, _var04
017a0     00 C6 05 F6 | 	mov	_var05, #0
017a4     04 A8 05 F1 | 	add	objptr, #4
017a8     D4 C8 01 FB | 	rdlong	_var06, objptr
017ac     94 A8 85 F1 | 	sub	objptr, #148
017b0     E4 E0 59 F2 | 	cmps	arg02, _var06 wcz
017b4     01 C6 65 C6 |  if_b	neg	_var05, #1
017b8     E3 BE C9 F7 | 	test	_var01, _var05 wz
017bc     8C 00 90 AD |  if_e	jmp	#LR__0059
017c0     90 A8 05 F1 | 	add	objptr, #144
017c4     D4 CA 01 FB | 	rdlong	_var07, objptr
017c8     90 A8 85 F1 | 	sub	objptr, #144
017cc     02 CA 65 F0 | 	shl	_var07, #2
017d0     F0 CA 01 FD | 	qmul	_var07, arg02
017d4     18 CC 61 FD | 	getqx	_var08
017d8     D4 CE 01 FB | 	rdlong	_var09, objptr
017dc     E6 CE 01 F1 | 	add	_var09, _var08
017e0     EF D0 01 F6 | 	mov	_var10, arg01
017e4     03 D0 45 F0 | 	shr	_var10, #3
017e8     E8 CE 01 F1 | 	add	_var09, _var10
017ec                 | '     b:=byte[buf_ptr+4*cpl*y+(x>>3)]
017ec     E7 D2 C1 FA | 	rdbyte	_var11, _var09
017f0                 | '     if (c==0)
017f0     00 E2 0D F2 | 	cmp	arg03, #0 wz
017f4     18 00 90 5D |  if_ne	jmp	#LR__0057
017f8     EF BE 51 F6 | 	abs	_var01, arg01 wc
017fc     07 BE 05 F5 | 	and	_var01, #7
01800     DF BE 61 C6 |  if_b	neg	_var01, _var01
01804     DF D4 C1 F9 | 	decod	_var12, _var01
01808                 | '       b:=b & !(1<<(x//8))
01808     EA D2 21 F5 | 	andn	_var11, _var12
0180c                 | '     else
0180c     14 00 90 FD | 	jmp	#LR__0058
01810                 | LR__0057
01810     EF BE 51 F6 | 	abs	_var01, arg01 wc
01814     07 BE 05 F5 | 	and	_var01, #7
01818     DF BE 61 C6 |  if_b	neg	_var01, _var01
0181c     DF D6 C1 F9 | 	decod	_var13, _var01
01820                 | '       b:=b |(1<<(x//8))
01820     EB D2 41 F5 | 	or	_var11, _var13
01824                 | LR__0058
01824     90 A8 05 F1 | 	add	objptr, #144
01828     D4 D8 01 FB | 	rdlong	_var14, objptr
0182c     90 A8 85 F1 | 	sub	objptr, #144
01830     02 D8 65 F0 | 	shl	_var14, #2
01834     F0 D8 01 FD | 	qmul	_var14, arg02
01838     18 DA 61 FD | 	getqx	_var15
0183c     D4 DC 01 FB | 	rdlong	_var16, objptr
01840     ED DC 01 F1 | 	add	_var16, _var15
01844     E8 DC 01 F1 | 	add	_var16, _var10
01848                 | '     byte[buf_ptr+4*cpl*y+(x>>3)]:=b
01848     EE D2 41 FC | 	wrbyte	_var11, _var16
0184c                 | LR__0059
0184c                 | _hng025_putpixel1_ret
0184c     2D 00 64 FD | 	ret
01850                 | 
01850                 | ' 
01850                 | ' 
01850                 | ' pub putpixel2(x,y,c) |byte b
01850                 | _hng025_putpixel2
01850                 | ' 
01850                 | ' 
01850                 | ' if ((x>=0) & (x<16*cpl) & (y>=0) & (y<lines))
01850     00 BE 05 F6 | 	mov	_var01, #0
01854     00 DE 5D F2 | 	cmps	arg01, #0 wcz
01858     01 BE 65 36 |  if_ae	neg	_var01, #1
0185c     00 C0 05 F6 | 	mov	_var02, #0
01860     90 A8 05 F1 | 	add	objptr, #144
01864     D4 C2 01 FB | 	rdlong	_var03, objptr
01868     04 C2 65 F0 | 	shl	_var03, #4
0186c     E1 DE 59 F2 | 	cmps	arg01, _var03 wcz
01870     01 C0 65 C6 |  if_b	neg	_var02, #1
01874     E0 BE 01 F5 | 	and	_var01, _var02
01878     00 C4 05 F6 | 	mov	_var04, #0
0187c     00 E0 5D F2 | 	cmps	arg02, #0 wcz
01880     01 C4 65 36 |  if_ae	neg	_var04, #1
01884     E2 BE 01 F5 | 	and	_var01, _var04
01888     00 C6 05 F6 | 	mov	_var05, #0
0188c     04 A8 05 F1 | 	add	objptr, #4
01890     D4 C8 01 FB | 	rdlong	_var06, objptr
01894     94 A8 85 F1 | 	sub	objptr, #148
01898     E4 E0 59 F2 | 	cmps	arg02, _var06 wcz
0189c     01 C6 65 C6 |  if_b	neg	_var05, #1
018a0     E3 BE C9 F7 | 	test	_var01, _var05 wz
018a4     7C 00 90 AD |  if_e	jmp	#LR__0060
018a8     90 A8 05 F1 | 	add	objptr, #144
018ac     D4 CA 01 FB | 	rdlong	_var07, objptr
018b0     90 A8 85 F1 | 	sub	objptr, #144
018b4     02 CA 65 F0 | 	shl	_var07, #2
018b8     F0 CA 01 FD | 	qmul	_var07, arg02
018bc     18 CC 61 FD | 	getqx	_var08
018c0     D4 CE 01 FB | 	rdlong	_var09, objptr
018c4     E6 CE 01 F1 | 	add	_var09, _var08
018c8     EF D0 01 F6 | 	mov	_var10, arg01
018cc     02 D0 45 F0 | 	shr	_var10, #2
018d0     E8 CE 01 F1 | 	add	_var09, _var10
018d4                 | '     b:=byte[buf_ptr+4*cpl*y+(x>>2)]
018d4     E7 D2 C1 FA | 	rdbyte	_var11, _var09
018d8     EF BE 51 F6 | 	abs	_var01, arg01 wc
018dc     03 BE 05 F5 | 	and	_var01, #3
018e0     DF BE 61 C6 |  if_b	neg	_var01, _var01
018e4     01 BE 65 F0 | 	shl	_var01, #1
018e8     03 D4 05 F6 | 	mov	_var12, #3
018ec     DF D4 61 F0 | 	shl	_var12, _var01
018f0                 | '     b:=b & !(%11<<((x//4)<<1))
018f0     EA D2 21 F5 | 	andn	_var11, _var12
018f4     DF E2 61 F0 | 	shl	arg03, _var01
018f8                 | '     b:=b |(c<<((x//4)<<1))
018f8     F1 D2 41 F5 | 	or	_var11, arg03
018fc     90 A8 05 F1 | 	add	objptr, #144
01900     D4 D6 01 FB | 	rdlong	_var13, objptr
01904     90 A8 85 F1 | 	sub	objptr, #144
01908     02 D6 65 F0 | 	shl	_var13, #2
0190c     F0 D6 01 FD | 	qmul	_var13, arg02
01910     18 D8 61 FD | 	getqx	_var14
01914     D4 DA 01 FB | 	rdlong	_var15, objptr
01918     EC DA 01 F1 | 	add	_var15, _var14
0191c     E8 DA 01 F1 | 	add	_var15, _var10
01920                 | '     byte[buf_ptr+4*cpl*y+(x>>2)]:=b
01920     ED D2 41 FC | 	wrbyte	_var11, _var15
01924                 | LR__0060
01924                 | _hng025_putpixel2_ret
01924     2D 00 64 FD | 	ret
01928                 | 
01928                 | ' 
01928                 | ' 
01928                 | ' pub putpixel4(x,y,c) |byte b
01928                 | _hng025_putpixel4
01928                 | ' 
01928                 | ' if ((x>=0) & (x<16*cpl) & (y>=0) & (y<lines))
01928     00 BE 05 F6 | 	mov	_var01, #0
0192c     00 DE 5D F2 | 	cmps	arg01, #0 wcz
01930     01 BE 65 36 |  if_ae	neg	_var01, #1
01934     00 C0 05 F6 | 	mov	_var02, #0
01938     90 A8 05 F1 | 	add	objptr, #144
0193c     D4 C2 01 FB | 	rdlong	_var03, objptr
01940     04 C2 65 F0 | 	shl	_var03, #4
01944     E1 DE 59 F2 | 	cmps	arg01, _var03 wcz
01948     01 C0 65 C6 |  if_b	neg	_var02, #1
0194c     E0 BE 01 F5 | 	and	_var01, _var02
01950     00 C4 05 F6 | 	mov	_var04, #0
01954     00 E0 5D F2 | 	cmps	arg02, #0 wcz
01958     01 C4 65 36 |  if_ae	neg	_var04, #1
0195c     E2 BE 01 F5 | 	and	_var01, _var04
01960     00 C6 05 F6 | 	mov	_var05, #0
01964     04 A8 05 F1 | 	add	objptr, #4
01968     D4 C8 01 FB | 	rdlong	_var06, objptr
0196c     94 A8 85 F1 | 	sub	objptr, #148
01970     E4 E0 59 F2 | 	cmps	arg02, _var06 wcz
01974     01 C6 65 C6 |  if_b	neg	_var05, #1
01978     E3 BE C9 F7 | 	test	_var01, _var05 wz
0197c     7C 00 90 AD |  if_e	jmp	#LR__0061
01980     90 A8 05 F1 | 	add	objptr, #144
01984     D4 CA 01 FB | 	rdlong	_var07, objptr
01988     90 A8 85 F1 | 	sub	objptr, #144
0198c     02 CA 65 F0 | 	shl	_var07, #2
01990     F0 CA 01 FD | 	qmul	_var07, arg02
01994     18 CC 61 FD | 	getqx	_var08
01998     D4 CE 01 FB | 	rdlong	_var09, objptr
0199c     E6 CE 01 F1 | 	add	_var09, _var08
019a0     EF D0 01 F6 | 	mov	_var10, arg01
019a4     01 D0 45 F0 | 	shr	_var10, #1
019a8     E8 CE 01 F1 | 	add	_var09, _var10
019ac                 | '     b:=byte[buf_ptr+4*cpl*y+(x>>1)]
019ac     E7 D2 C1 FA | 	rdbyte	_var11, _var09
019b0     EF BE 51 F6 | 	abs	_var01, arg01 wc
019b4     01 BE 05 F5 | 	and	_var01, #1
019b8     DF BE 61 C6 |  if_b	neg	_var01, _var01
019bc     02 BE 65 F0 | 	shl	_var01, #2
019c0     0F D4 05 F6 | 	mov	_var12, #15
019c4     DF D4 61 F0 | 	shl	_var12, _var01
019c8                 | '     b:=b & !(%1111<<((x//2)<<2))
019c8     EA D2 21 F5 | 	andn	_var11, _var12
019cc     DF E2 61 F0 | 	shl	arg03, _var01
019d0                 | '     b:=b |(c<<((x//2)<<2))
019d0     F1 D2 41 F5 | 	or	_var11, arg03
019d4     90 A8 05 F1 | 	add	objptr, #144
019d8     D4 D6 01 FB | 	rdlong	_var13, objptr
019dc     90 A8 85 F1 | 	sub	objptr, #144
019e0     02 D6 65 F0 | 	shl	_var13, #2
019e4     F0 D6 01 FD | 	qmul	_var13, arg02
019e8     18 D8 61 FD | 	getqx	_var14
019ec     D4 DA 01 FB | 	rdlong	_var15, objptr
019f0     EC DA 01 F1 | 	add	_var15, _var14
019f4     E8 DA 01 F1 | 	add	_var15, _var10
019f8                 | '     byte[buf_ptr+4*cpl*y+(x>>1)]:=b
019f8     ED D2 41 FC | 	wrbyte	_var11, _var15
019fc                 | LR__0061
019fc                 | _hng025_putpixel4_ret
019fc     2D 00 64 FD | 	ret
01a00                 | 
01a00                 | ' 
01a00                 | ' 
01a00                 | ' pub putpixel8(x,y,c)
01a00                 | _hng025_putpixel8
01a00                 | ' 
01a00                 | ' if ((x>=0) & (x<4*cpl) & (y>=0) & (y<lines))
01a00     00 BE 05 F6 | 	mov	_var01, #0
01a04     00 DE 5D F2 | 	cmps	arg01, #0 wcz
01a08     01 BE 65 36 |  if_ae	neg	_var01, #1
01a0c     00 C0 05 F6 | 	mov	_var02, #0
01a10     90 A8 05 F1 | 	add	objptr, #144
01a14     D4 C2 01 FB | 	rdlong	_var03, objptr
01a18     02 C2 65 F0 | 	shl	_var03, #2
01a1c     E1 DE 59 F2 | 	cmps	arg01, _var03 wcz
01a20     01 C0 65 C6 |  if_b	neg	_var02, #1
01a24     E0 BE 01 F5 | 	and	_var01, _var02
01a28     00 C4 05 F6 | 	mov	_var04, #0
01a2c     00 E0 5D F2 | 	cmps	arg02, #0 wcz
01a30     01 C4 65 36 |  if_ae	neg	_var04, #1
01a34     E2 BE 01 F5 | 	and	_var01, _var04
01a38     00 C6 05 F6 | 	mov	_var05, #0
01a3c     04 A8 05 F1 | 	add	objptr, #4
01a40     D4 C8 01 FB | 	rdlong	_var06, objptr
01a44     94 A8 85 F1 | 	sub	objptr, #148
01a48     E4 E0 59 F2 | 	cmps	arg02, _var06 wcz
01a4c     01 C6 65 C6 |  if_b	neg	_var05, #1
01a50     E3 BE C9 F7 | 	test	_var01, _var05 wz
01a54     28 00 90 AD |  if_e	jmp	#LR__0062
01a58     90 A8 05 F1 | 	add	objptr, #144
01a5c     D4 CA 01 FB | 	rdlong	_var07, objptr
01a60     90 A8 85 F1 | 	sub	objptr, #144
01a64     02 CA 65 F0 | 	shl	_var07, #2
01a68     F0 CA 01 FD | 	qmul	_var07, arg02
01a6c     18 CC 61 FD | 	getqx	_var08
01a70     D4 CE 01 FB | 	rdlong	_var09, objptr
01a74     E6 CE 01 F1 | 	add	_var09, _var08
01a78     EF CE 01 F1 | 	add	_var09, arg01
01a7c                 | '     byte[buf_ptr+4*cpl*y+x]:=c
01a7c     E7 E2 41 FC | 	wrbyte	arg03, _var09
01a80                 | LR__0062
01a80                 | _hng025_putpixel8_ret
01a80     2D 00 64 FD | 	ret
01a84                 | 
01a84                 | ' 
01a84                 | ' ''---------- Set the border color, o is upper border, lines+1 is lower border
01a84                 | ' 
01a84                 | ' pub setbordercolor(r,g,b) | color
01a84                 | _hng025_setbordercolor
01a84     18 DE 65 F0 | 	shl	arg01, #24
01a88     10 E0 65 F0 | 	shl	arg02, #16
01a8c     F0 DE 01 F1 | 	add	arg01, arg02
01a90     08 E2 65 F0 | 	shl	arg03, #8
01a94     F1 DE 01 F1 | 	add	arg01, arg03
01a98                 | ' 
01a98                 | ' color:=r<<24+g<<16+b<<8
01a98                 | ' bordercolor:=color
01a98     2C A8 05 F1 | 	add	objptr, #44
01a9c     D4 DE 61 FC | 	wrlong	arg01, objptr
01aa0     2C A8 85 F1 | 	sub	objptr, #44
01aa4                 | _hng025_setbordercolor_ret
01aa4     2D 00 64 FD | 	ret
01aa8                 | 
01aa8                 | ' 
01aa8                 | ' 
01aa8                 | ' '*************************************************************************
01aa8                 | ' '                                                                        *
01aa8                 | ' '  Text functions                                                        *
01aa8                 | ' '                                                                        *
01aa8                 | ' '*************************************************************************
01aa8                 | ' 
01aa8                 | ' ''---------- Clear the screen, set its foreground/background color
01aa8                 | ' 
01aa8                 | ' pub cls(fc,bc)   :c
01aa8                 | _hng025_cls
01aa8     07 44 05 F6 | 	mov	COUNT_, #7
01aac     A5 00 A0 FD | 	call	#pushregs_
01ab0     EF E8 01 F6 | 	mov	local01, arg01
01ab4     F0 EA 01 F6 | 	mov	local02, arg02
01ab8                 | ' 
01ab8                 | ' if (graphmode<512)
01ab8     C4 A8 05 F1 | 	add	objptr, #196
01abc     D4 EC 01 FB | 	rdlong	local03, objptr
01ac0     C4 A8 85 F1 | 	sub	objptr, #196
01ac4     01 00 00 FF 
01ac8     00 EC 5D F2 | 	cmps	local03, ##512 wcz
01acc     48 00 90 3D |  if_ae	jmp	#LR__0067
01ad0     F4 EE 01 F6 | 	mov	local04, local01
01ad4     18 EE 65 F0 | 	shl	local04, #24
01ad8     F5 F0 01 F6 | 	mov	local05, local02
01adc     10 F0 65 F0 | 	shl	local05, #16
01ae0     F8 EE 01 F1 | 	add	local04, local05
01ae4     20 EE 05 F1 | 	add	local04, #32
01ae8                 | '   c:=fc<<24+bc<<16+$20
01ae8                 | '   longfill(buf_ptr,c,buflen)
01ae8     D4 DE 01 FB | 	rdlong	arg01, objptr
01aec     30 A8 05 F1 | 	add	objptr, #48
01af0     D4 E2 09 FB | 	rdlong	arg03, objptr wz
01af4     30 A8 85 F1 | 	sub	objptr, #48
01af8     F7 E0 01 F6 | 	mov	arg02, local04
01afc     C4 00 90 AD |  if_e	jmp	#LR__0073
01b00     08 E5 9F FE | 	loc	pa,	#(@LR__0065-@LR__0063)
01b04     95 00 A0 FD | 	call	#FCACHE_LOAD_
01b08                 | LR__0063
01b08     F1 04 D8 FC | 	rep	@LR__0066, arg03
01b0c                 | LR__0064
01b0c     EF E0 61 FC | 	wrlong	arg02, arg01
01b10     04 DE 05 F1 | 	add	arg01, #4
01b14                 | LR__0065
01b14                 | LR__0066
01b14                 | ' else
01b14     AC 00 90 FD | 	jmp	#LR__0073
01b18                 | LR__0067
01b18                 | '   if (graphmode & 48) ==48
01b18     C4 A8 05 F1 | 	add	objptr, #196
01b1c     D4 EC 01 FB | 	rdlong	local03, objptr
01b20     C4 A8 85 F1 | 	sub	objptr, #196
01b24     30 EC 05 F5 | 	and	local03, #48
01b28     30 EC 0D F2 | 	cmp	local03, #48 wz
01b2c                 | '     c:=bc
01b2c     F5 EE 01 A6 |  if_e	mov	local04, local02
01b30     74 00 90 AD |  if_e	jmp	#LR__0072
01b34                 | '   elseif (graphmode & 48) ==32
01b34     C4 A8 05 F1 | 	add	objptr, #196
01b38     D4 EC 01 FB | 	rdlong	local03, objptr
01b3c     C4 A8 85 F1 | 	sub	objptr, #196
01b40     30 EC 05 F5 | 	and	local03, #48
01b44     20 EC 0D F2 | 	cmp	local03, #32 wz
01b48     10 00 90 5D |  if_ne	jmp	#LR__0068
01b4c     F5 EE 01 F6 | 	mov	local04, local02
01b50     04 EE 65 F0 | 	shl	local04, #4
01b54     F5 EE 01 F1 | 	add	local04, local02
01b58                 | '     c:=bc<<4+bc
01b58     4C 00 90 FD | 	jmp	#LR__0071
01b5c                 | LR__0068
01b5c                 | '   elseif (graphmode & 48) ==16
01b5c     C4 A8 05 F1 | 	add	objptr, #196
01b60     D4 EC 01 FB | 	rdlong	local03, objptr
01b64     C4 A8 85 F1 | 	sub	objptr, #196
01b68     30 EC 05 F5 | 	and	local03, #48
01b6c     10 EC 0D F2 | 	cmp	local03, #16 wz
01b70     28 00 90 5D |  if_ne	jmp	#LR__0069
01b74     F5 EE 01 F6 | 	mov	local04, local02
01b78     06 EE 65 F0 | 	shl	local04, #6
01b7c     F5 F2 01 F6 | 	mov	local06, local02
01b80     04 F2 65 F0 | 	shl	local06, #4
01b84     F9 EE 01 F1 | 	add	local04, local06
01b88     F5 F4 01 F6 | 	mov	local07, local02
01b8c     02 F4 65 F0 | 	shl	local07, #2
01b90     FA EE 01 F1 | 	add	local04, local07
01b94     F5 EE 01 F1 | 	add	local04, local02
01b98                 | '     c:=bc<<6+bc<<4+bc<<2+bc
01b98                 | '   else
01b98     0C 00 90 FD | 	jmp	#LR__0070
01b9c                 | LR__0069
01b9c                 | '     if bc==1
01b9c     01 EA 0D F2 | 	cmp	local02, #1 wz
01ba0                 | '       c:=255
01ba0     FF EE 05 A6 |  if_e	mov	local04, #255
01ba4                 | '     else
01ba4                 | '       c:=0
01ba4     00 EE 05 56 |  if_ne	mov	local04, #0
01ba8                 | LR__0070
01ba8                 | LR__0071
01ba8                 | LR__0072
01ba8     30 A8 05 F1 | 	add	objptr, #48
01bac     D4 E2 01 FB | 	rdlong	arg03, objptr
01bb0     30 A8 85 F1 | 	sub	objptr, #48
01bb4     02 E2 65 F0 | 	shl	arg03, #2
01bb8                 | '   bytefill(buf_ptr,c,buflen*4)
01bb8     D4 DE 01 FB | 	rdlong	arg01, objptr
01bbc     F7 E0 01 F6 | 	mov	arg02, local04
01bc0     20 0F B0 FD | 	call	#__system____builtin_memset
01bc4                 | LR__0073
01bc4                 | ' setwritecolors(fc,bc)
01bc4                 | ' 
01bc4                 | ' 
01bc4                 | ' write_color:=ff
01bc4     38 A8 05 F1 | 	add	objptr, #56
01bc8     D4 E8 61 FC | 	wrlong	local01, objptr
01bcc                 | ' write_background:=bb
01bcc     04 A8 05 F1 | 	add	objptr, #4
01bd0     D4 EA 61 FC | 	wrlong	local02, objptr
01bd4                 | ' cursor_x:=0
01bd4     08 A8 85 F1 | 	sub	objptr, #8
01bd8     D4 00 48 FC | 	wrbyte	#0, objptr
01bdc                 | ' cursor_y:=0
01bdc     01 A8 05 F1 | 	add	objptr, #1
01be0     D4 00 48 FC | 	wrbyte	#0, objptr
01be4     35 A8 85 F1 | 	sub	objptr, #53
01be8     F7 BA 01 F6 | 	mov	result1, local04
01bec     A4 F0 03 F6 | 	mov	ptra, fp
01bf0     B4 00 A0 FD | 	call	#popregs_
01bf4                 | _hng025_cls_ret
01bf4     2D 00 64 FD | 	ret
01bf8                 | 
01bf8                 | ' 
01bf8                 | ' ''--------- Output a string at position x,y without changing colors
01bf8                 | ' 
01bf8                 | ' pub outtextxy(x,y,text) | iii
01bf8                 | _hng025_outtextxy
01bf8     0B 44 05 F6 | 	mov	COUNT_, #11
01bfc     A5 00 A0 FD | 	call	#pushregs_
01c00     EF E8 01 F6 | 	mov	local01, arg01
01c04                 | ' 
01c04                 | ' repeat iii from 0 to strsize(text)-1
01c04     00 EA 05 F6 | 	mov	local02, #0
01c08     F1 DE 01 F6 | 	mov	arg01, arg03
01c0c     00 EC 05 F6 | 	mov	local03, #0
01c10     FC E3 9F FE | 	loc	pa,	#(@LR__0075-@LR__0074)
01c14     95 00 A0 FD | 	call	#FCACHE_LOAD_
01c18                 | LR__0074
01c18     EF EE C9 FA | 	rdbyte	local04, arg01 wz
01c1c     01 EC 05 51 |  if_ne	add	local03, #1
01c20     01 DE 05 51 |  if_ne	add	arg01, #1
01c24     F0 FF 9F 5D |  if_ne	jmp	#LR__0074
01c28                 | LR__0075
01c28     F6 BA 01 F6 | 	mov	result1, local03
01c2c     DD F0 01 F6 | 	mov	local05, result1
01c30     01 F0 85 F1 | 	sub	local05, #1
01c34     00 F0 5D F2 | 	cmps	local05, #0 wcz
01c38     01 F2 05 16 |  if_a	mov	local06, #1
01c3c     01 F2 65 E6 |  if_be	neg	local06, #1
01c40     F9 F0 01 F1 | 	add	local05, local06
01c44     08 E4 9F FE | 	loc	pa,	#(@LR__0077-@LR__0076)
01c48     95 00 A0 FD | 	call	#FCACHE_LOAD_
01c4c                 | LR__0076
01c4c     90 A8 05 F1 | 	add	objptr, #144
01c50     D4 F4 01 FB | 	rdlong	local07, objptr
01c54     90 A8 85 F1 | 	sub	objptr, #144
01c58     F0 F4 01 FD | 	qmul	local07, arg02
01c5c     18 F6 61 FD | 	getqx	local08
01c60     F4 F6 01 F1 | 	add	local08, local01
01c64     F5 F6 01 F1 | 	add	local08, local02
01c68     02 F6 65 F0 | 	shl	local08, #2
01c6c     D4 F8 01 FB | 	rdlong	local09, objptr
01c70     FB F8 01 F1 | 	add	local09, local08
01c74     FC FA 01 FB | 	rdlong	local10, local09
01c78     FF FA 25 F5 | 	andn	local10, #255
01c7c     F1 FC 01 F6 | 	mov	local11, arg03
01c80     F5 FC 01 F1 | 	add	local11, local02
01c84     FE F4 C1 FA | 	rdbyte	local07, local11
01c88     FA FA 41 F5 | 	or	local10, local07
01c8c                 | '   long[buf_ptr+4*(cpl*y+x+iii)]:=(long[buf_ptr+4*(cpl*y+x+iii)] & $FFFFFF00)  | byte[text+iii]
01c8c     FC FA 61 FC | 	wrlong	local10, local09
01c90     F9 EA 01 F1 | 	add	local02, local06
01c94     F8 EA 09 F2 | 	cmp	local02, local05 wz
01c98     B0 FF 9F 5D |  if_ne	jmp	#LR__0076
01c9c                 | LR__0077
01c9c     A4 F0 03 F6 | 	mov	ptra, fp
01ca0     B4 00 A0 FD | 	call	#popregs_
01ca4                 | _hng025_outtextxy_ret
01ca4     2D 00 64 FD | 	ret
01ca8                 | 
01ca8                 | ' 
01ca8                 | ' ''--------- Output a string at the cursor position, move the cursor
01ca8                 | ' 
01ca8                 | ' pub write(text) | iii,c,ncx,ncy
01ca8                 | _hng025_write
01ca8     11 44 05 F6 | 	mov	COUNT_, #17
01cac     A5 00 A0 FD | 	call	#pushregs_
01cb0     EF E8 01 F6 | 	mov	local01, arg01
01cb4     38 A8 05 F1 | 	add	objptr, #56
01cb8     D4 EA 01 FB | 	rdlong	local02, objptr
01cbc     18 EA 65 F0 | 	shl	local02, #24
01cc0     04 A8 05 F1 | 	add	objptr, #4
01cc4     D4 EC 01 FB | 	rdlong	local03, objptr
01cc8     10 EC 65 F0 | 	shl	local03, #16
01ccc     F6 EA 01 F1 | 	add	local02, local03
01cd0                 | ' 
01cd0                 | ' c:=write_color<<24+write_background<<16
01cd0                 | ' 'debug(uhex_long(write_color))
01cd0                 | ' ncy:=cursor_y
01cd0     07 A8 85 F1 | 	sub	objptr, #7
01cd4     D4 EE C1 FA | 	rdbyte	local04, objptr
01cd8                 | ' ncx:=cursor_x+strsize(text)
01cd8     01 A8 85 F1 | 	sub	objptr, #1
01cdc     D4 F0 C1 FA | 	rdbyte	local05, objptr
01ce0     34 A8 85 F1 | 	sub	objptr, #52
01ce4     F4 DE 01 F6 | 	mov	arg01, local01
01ce8     00 F2 05 F6 | 	mov	local06, #0
01cec     20 E3 9F FE | 	loc	pa,	#(@LR__0079-@LR__0078)
01cf0     95 00 A0 FD | 	call	#FCACHE_LOAD_
01cf4                 | LR__0078
01cf4     EF F4 C9 FA | 	rdbyte	local07, arg01 wz
01cf8     01 F2 05 51 |  if_ne	add	local06, #1
01cfc     01 DE 05 51 |  if_ne	add	arg01, #1
01d00     F0 FF 9F 5D |  if_ne	jmp	#LR__0078
01d04                 | LR__0079
01d04     F9 BA 01 F6 | 	mov	result1, local06
01d08     F9 F0 01 F1 | 	add	local05, local06
01d0c     F8 F6 01 F6 | 	mov	local08, local05
01d10     1C E3 9F FE | 	loc	pa,	#(@LR__0081-@LR__0080)
01d14     95 00 A0 FD | 	call	#FCACHE_LOAD_
01d18                 | ' repeat while ncx>cpl-1
01d18                 | LR__0080
01d18     90 A8 05 F1 | 	add	objptr, #144
01d1c     D4 F0 01 FB | 	rdlong	local05, objptr
01d20     90 A8 85 F1 | 	sub	objptr, #144
01d24     01 F0 85 F1 | 	sub	local05, #1
01d28     F8 F6 59 F2 | 	cmps	local08, local05 wcz
01d2c     18 00 90 ED |  if_be	jmp	#LR__0082
01d30                 | '   ncx-=cpl
01d30     90 A8 05 F1 | 	add	objptr, #144
01d34     D4 F8 01 FB | 	rdlong	local09, objptr
01d38     90 A8 85 F1 | 	sub	objptr, #144
01d3c     FC F6 81 F1 | 	sub	local08, local09
01d40                 | '   ncy+=1
01d40     01 EE 05 F1 | 	add	local04, #1
01d44     D0 FF 9F FD | 	jmp	#LR__0080
01d48                 | LR__0081
01d48                 | LR__0082
01d48                 | ' repeat while ncy>lines-1
01d48                 | LR__0083
01d48     94 A8 05 F1 | 	add	objptr, #148
01d4c     D4 F0 01 FB | 	rdlong	local05, objptr
01d50     94 A8 85 F1 | 	sub	objptr, #148
01d54     01 F0 85 F1 | 	sub	local05, #1
01d58     F8 EE 59 F2 | 	cmps	local04, local05 wcz
01d5c     20 00 90 ED |  if_be	jmp	#LR__0084
01d60                 | '   ncy-=1
01d60     01 EE 85 F1 | 	sub	local04, #1
01d64                 | '   scrollup()
01d64     60 01 B0 FD | 	call	#_hng025_scrollup
01d68                 | '   cursor_y-=1
01d68     35 A8 05 F1 | 	add	objptr, #53
01d6c     D4 F0 C1 FA | 	rdbyte	local05, objptr
01d70     01 F0 85 F1 | 	sub	local05, #1
01d74     D4 F0 41 FC | 	wrbyte	local05, objptr
01d78     35 A8 85 F1 | 	sub	objptr, #53
01d7c     C8 FF 9F FD | 	jmp	#LR__0083
01d80                 | LR__0084
01d80                 | ' 
01d80                 | ' repeat iii from 0 to strsize(text)-1
01d80     00 FA 05 F6 | 	mov	local10, #0
01d84     F4 DE 01 F6 | 	mov	arg01, local01
01d88     00 F2 05 F6 | 	mov	local06, #0
01d8c     80 E2 9F FE | 	loc	pa,	#(@LR__0086-@LR__0085)
01d90     95 00 A0 FD | 	call	#FCACHE_LOAD_
01d94                 | LR__0085
01d94     EF F4 C9 FA | 	rdbyte	local07, arg01 wz
01d98     01 F2 05 51 |  if_ne	add	local06, #1
01d9c     01 DE 05 51 |  if_ne	add	arg01, #1
01da0     F0 FF 9F 5D |  if_ne	jmp	#LR__0085
01da4                 | LR__0086
01da4     F9 BA 01 F6 | 	mov	result1, local06
01da8     DD FC 01 F6 | 	mov	local11, result1
01dac     01 FC 85 F1 | 	sub	local11, #1
01db0     00 FC 5D F2 | 	cmps	local11, #0 wcz
01db4     01 FE 05 16 |  if_a	mov	local12, #1
01db8     01 FE 65 E6 |  if_be	neg	local12, #1
01dbc     FF FC 01 F1 | 	add	local11, local12
01dc0     94 E2 9F FE | 	loc	pa,	#(@LR__0088-@LR__0087)
01dc4     95 00 A0 FD | 	call	#FCACHE_LOAD_
01dc8                 | LR__0087
01dc8     90 A8 05 F1 | 	add	objptr, #144
01dcc     D4 00 02 FB | 	rdlong	local13, objptr
01dd0     5B A8 85 F1 | 	sub	objptr, #91
01dd4     D4 02 C2 FA | 	rdbyte	local14, objptr
01dd8     01 01 02 FD | 	qmul	local13, local14
01ddc     18 04 62 FD | 	getqx	local15
01de0     01 A8 85 F1 | 	sub	objptr, #1
01de4     D4 00 C2 FA | 	rdbyte	local13, objptr
01de8     34 A8 85 F1 | 	sub	objptr, #52
01dec     00 05 02 F1 | 	add	local15, local13
01df0     FD 04 02 F1 | 	add	local15, local10
01df4     02 04 66 F0 | 	shl	local15, #2
01df8     D4 06 02 FB | 	rdlong	local16, objptr
01dfc     02 07 02 F1 | 	add	local16, local15
01e00     03 09 02 FB | 	rdlong	local17, local16
01e04     7F 00 00 FF 
01e08     FF 09 06 F5 | 	and	local17, ##65535
01e0c     F5 08 42 F5 | 	or	local17, local02
01e10                 | ' 
01e10                 | '   long[buf_ptr+4*(cpl*cursor_y+cursor_x+iii)]:=long[buf_ptr+4*(cpl*cursor_y+cursor_x+iii)] &$FFFF | c
01e10     03 09 62 FC | 	wrlong	local17, local16
01e14     FF FA 01 F1 | 	add	local10, local12
01e18     FE FA 09 F2 | 	cmp	local10, local11 wz
01e1c     A8 FF 9F 5D |  if_ne	jmp	#LR__0087
01e20                 | LR__0088
01e20                 | ' 
01e20                 | ' outtextxy(cursor_x,cursor_y,text)
01e20     34 A8 05 F1 | 	add	objptr, #52
01e24     D4 DE C1 FA | 	rdbyte	arg01, objptr
01e28     01 A8 05 F1 | 	add	objptr, #1
01e2c     D4 E0 C1 FA | 	rdbyte	arg02, objptr
01e30     35 A8 85 F1 | 	sub	objptr, #53
01e34     F4 E2 01 F6 | 	mov	arg03, local01
01e38     BC FD BF FD | 	call	#_hng025_outtextxy
01e3c                 | ' 
01e3c                 | ' cursor_x:=ncx
01e3c     34 A8 05 F1 | 	add	objptr, #52
01e40     D4 F6 41 FC | 	wrbyte	local08, objptr
01e44                 | ' cursor_y:=ncy
01e44     01 A8 05 F1 | 	add	objptr, #1
01e48     D4 EE 41 FC | 	wrbyte	local04, objptr
01e4c     35 A8 85 F1 | 	sub	objptr, #53
01e50     A4 F0 03 F6 | 	mov	ptra, fp
01e54     B4 00 A0 FD | 	call	#popregs_
01e58                 | _hng025_write_ret
01e58     2D 00 64 FD | 	ret
01e5c                 | 
01e5c                 | ' 
01e5c                 | ' '--------- Output a string at the cursor position x,y, move the cursor to the next line
01e5c                 | ' 
01e5c                 | ' pub writeln(text)
01e5c                 | _hng025_writeln
01e5c     03 44 05 F6 | 	mov	COUNT_, #3
01e60     A5 00 A0 FD | 	call	#pushregs_
01e64                 | ' 
01e64                 | ' write(text)
01e64     40 FE BF FD | 	call	#_hng025_write
01e68                 | ' cursor_x:=0
01e68     34 A8 05 F1 | 	add	objptr, #52
01e6c     D4 00 48 FC | 	wrbyte	#0, objptr
01e70                 | ' cursor_y+=1
01e70     01 A8 05 F1 | 	add	objptr, #1
01e74     D4 E8 C1 FA | 	rdbyte	local01, objptr
01e78     01 E8 05 F1 | 	add	local01, #1
01e7c     D4 E8 41 FC | 	wrbyte	local01, objptr
01e80                 | ' if (cursor_y>lines-1)
01e80     5F A8 05 F1 | 	add	objptr, #95
01e84     D4 E8 01 FB | 	rdlong	local01, objptr
01e88     01 E8 85 F1 | 	sub	local01, #1
01e8c     5F A8 85 F1 | 	sub	objptr, #95
01e90     D4 EA C1 FA | 	rdbyte	local02, objptr
01e94     35 A8 85 F1 | 	sub	objptr, #53
01e98     F4 EA 59 F2 | 	cmps	local02, local01 wcz
01e9c     1C 00 90 ED |  if_be	jmp	#LR__0089
01ea0                 | '   scrollup()
01ea0     24 00 B0 FD | 	call	#_hng025_scrollup
01ea4     94 A8 05 F1 | 	add	objptr, #148
01ea8     D4 EC 01 FB | 	rdlong	local03, objptr
01eac     01 EC 85 F1 | 	sub	local03, #1
01eb0                 | '   cursor_y:=lines-1
01eb0     5F A8 85 F1 | 	sub	objptr, #95
01eb4     D4 EC 41 FC | 	wrbyte	local03, objptr
01eb8     35 A8 85 F1 | 	sub	objptr, #53
01ebc                 | LR__0089
01ebc     A4 F0 03 F6 | 	mov	ptra, fp
01ec0     B4 00 A0 FD | 	call	#popregs_
01ec4                 | _hng025_writeln_ret
01ec4     2D 00 64 FD | 	ret
01ec8                 | 
01ec8                 | ' 
01ec8                 | ' ''-----------  Scroll the screen one line up
01ec8                 | ' 
01ec8                 | ' pub scrollup() | i
01ec8                 | _hng025_scrollup
01ec8     0A 44 05 F6 | 	mov	COUNT_, #10
01ecc     A5 00 A0 FD | 	call	#pushregs_
01ed0     90 A8 05 F1 | 	add	objptr, #144
01ed4     D4 E8 01 FB | 	rdlong	local01, objptr
01ed8     90 A8 85 F1 | 	sub	objptr, #144
01edc     02 E8 65 F0 | 	shl	local01, #2
01ee0     D4 E0 01 FB | 	rdlong	arg02, objptr
01ee4     F4 E0 01 F1 | 	add	arg02, local01
01ee8     30 A8 05 F1 | 	add	objptr, #48
01eec     D4 E2 01 FB | 	rdlong	arg03, objptr
01ef0     60 A8 05 F1 | 	add	objptr, #96
01ef4     D4 EA 01 FB | 	rdlong	local02, objptr
01ef8     90 A8 85 F1 | 	sub	objptr, #144
01efc     F5 E2 81 F1 | 	sub	arg03, local02
01f00                 | ' 
01f00                 | ' longmove(buf_ptr,buf_ptr+4*cpl,buflen-cpl)
01f00     D4 DE 01 FB | 	rdlong	arg01, objptr
01f04     CC 0C B0 FD | 	call	#__system__longmove
01f08                 | ' repeat i from buflen-cpl to buflen-1
01f08     30 A8 05 F1 | 	add	objptr, #48
01f0c     D4 EC 01 FB | 	rdlong	local03, objptr
01f10     60 A8 05 F1 | 	add	objptr, #96
01f14     D4 EA 01 FB | 	rdlong	local02, objptr
01f18     F5 EC 81 F1 | 	sub	local03, local02
01f1c     60 A8 85 F1 | 	sub	objptr, #96
01f20     D4 EE 01 FB | 	rdlong	local04, objptr
01f24     01 EE 85 F1 | 	sub	local04, #1
01f28     D4 F0 01 FB | 	rdlong	local05, objptr
01f2c     60 A8 05 F1 | 	add	objptr, #96
01f30     D4 F2 01 FB | 	rdlong	local06, objptr
01f34     90 A8 85 F1 | 	sub	objptr, #144
01f38     F9 F0 81 F1 | 	sub	local05, local06
01f3c     F8 EE 59 F2 | 	cmps	local04, local05 wcz
01f40     01 F4 05 16 |  if_a	mov	local07, #1
01f44     01 F4 65 E6 |  if_be	neg	local07, #1
01f48     FA EE 01 F1 | 	add	local04, local07
01f4c     E0 E0 9F FE | 	loc	pa,	#(@LR__0091-@LR__0090)
01f50     95 00 A0 FD | 	call	#FCACHE_LOAD_
01f54                 | LR__0090
01f54     F6 F6 01 F6 | 	mov	local08, local03
01f58     02 F6 65 F0 | 	shl	local08, #2
01f5c     D4 F8 01 FB | 	rdlong	local09, objptr
01f60     FB F8 01 F1 | 	add	local09, local08
01f64     FC FA 01 FB | 	rdlong	local10, local09
01f68     80 FF 7F FF 
01f6c     00 FA 05 F5 | 	and	local10, ##-65536
01f70     20 FA 45 F5 | 	or	local10, #32
01f74                 | '   long[buf_ptr+4*i]:=(long[buf_ptr+4*i] & $FFFF0000) | 32
01f74     FC FA 61 FC | 	wrlong	local10, local09
01f78     FA EC 01 F1 | 	add	local03, local07
01f7c     F7 EC 09 F2 | 	cmp	local03, local04 wz
01f80     D0 FF 9F 5D |  if_ne	jmp	#LR__0090
01f84                 | LR__0091
01f84     A4 F0 03 F6 | 	mov	ptra, fp
01f88     B4 00 A0 FD | 	call	#popregs_
01f8c                 | _hng025_scrollup_ret
01f8c     2D 00 64 FD | 	ret
01f90                 | 
01f90                 | ' 
01f90                 | ' ''----------  Convert unsigned integer to hex string with d digits, return a pointer
01f90                 | ' 
01f90                 | ' pub inttohex(i,d):result |q,pos,k,j
01f90                 | _hng025_inttohex
01f90                 | ' 
01f90                 | ' j:=i
01f90     F0 BE 01 F6 | 	mov	_var01, arg02
01f94     01 BE 85 F1 | 	sub	_var01, #1
01f98                 | ' pos:=d-1
01f98     DF C0 01 F6 | 	mov	_var02, _var01
01f9c                 | ' k:=0
01f9c     44 A8 05 F1 | 	add	objptr, #68
01fa0     D4 E0 01 F1 | 	add	arg02, objptr
01fa4                 | ' n_string[d]:=0
01fa4     F0 00 48 FC | 	wrbyte	#0, arg02
01fa8                 | ' repeat k from 0 to d-1
01fa8     00 C2 05 F6 | 	mov	_var03, #0
01fac     00 BE 5D F2 | 	cmps	_var01, #0 wcz
01fb0     44 A8 85 F1 | 	sub	objptr, #68
01fb4     01 C4 05 16 |  if_a	mov	_var04, #1
01fb8     01 C4 65 E6 |  if_be	neg	_var04, #1
01fbc     E2 BE 01 F1 | 	add	_var01, _var04
01fc0     5C E0 9F FE | 	loc	pa,	#(@LR__0093-@LR__0092)
01fc4     95 00 A0 FD | 	call	#FCACHE_LOAD_
01fc8                 | LR__0092
01fc8     E1 C6 01 F6 | 	mov	_var05, _var03
01fcc     44 A8 05 F1 | 	add	objptr, #68
01fd0     D4 C6 01 F1 | 	add	_var05, objptr
01fd4                 | '   n_string[k]:=48
01fd4     E3 60 48 FC | 	wrbyte	#48, _var05
01fd8     E2 C2 01 F1 | 	add	_var03, _var04
01fdc     DF C2 09 F2 | 	cmp	_var03, _var01 wz
01fe0     44 A8 85 F1 | 	sub	objptr, #68
01fe4     E0 FF 9F 5D |  if_ne	jmp	#LR__0092
01fe8                 | LR__0093
01fe8                 | ' if (j<>0)
01fe8     00 DE 0D F2 | 	cmp	arg01, #0 wz
01fec     40 00 90 AD |  if_e	jmp	#LR__0096
01ff0                 | ' 
01ff0                 | '   repeat while (pos>-1)
01ff0                 | LR__0094
01ff0     FF FF 7F FF 
01ff4     FF C1 5D F2 | 	cmps	_var02, ##-1 wcz
01ff8     34 00 90 ED |  if_be	jmp	#LR__0095
01ffc     EF C8 01 F6 | 	mov	_var06, arg01
02000     0F C8 05 F5 | 	and	_var06, #15
02004                 | '     q:=j+//16
02004                 | '     if (q>9)
02004     09 C8 5D F2 | 	cmps	_var06, #9 wcz
02008                 | '       q:=q+7
02008     07 C8 05 11 |  if_a	add	_var06, #7
0200c                 | '     q:=48+q
0200c     30 C8 05 F1 | 	add	_var06, #48
02010     E0 CA 01 F6 | 	mov	_var07, _var02
02014     44 A8 05 F1 | 	add	objptr, #68
02018     D4 CA 01 F1 | 	add	_var07, objptr
0201c                 | '     n_string[pos]:=q
0201c     E5 C8 41 FC | 	wrbyte	_var06, _var07
02020                 | '     j:=j+/16
02020     04 DE 45 F0 | 	shr	arg01, #4
02024                 | '     pos-=1
02024     01 C0 85 F1 | 	sub	_var02, #1
02028     44 A8 85 F1 | 	sub	objptr, #68
0202c     C0 FF 9F FD | 	jmp	#LR__0094
02030                 | LR__0095
02030                 | LR__0096
02030     44 A8 05 F1 | 	add	objptr, #68
02034     D4 BA 01 F6 | 	mov	result1, objptr
02038     44 A8 85 F1 | 	sub	objptr, #68
0203c                 | ' 
0203c                 | ' q:=@n_string
0203c                 | ' return q
0203c                 | _hng025_inttohex_ret
0203c     2D 00 64 FD | 	ret
02040                 | 
02040                 | ' 
02040                 | ' 
02040                 | ' 
02040                 | ' '*************************************************************************
02040                 | ' '                                                                        *
02040                 | ' '  Mode setting and driver start                                                          *
02040                 | ' '                                                                        *
02040                 | ' '*************************************************************************
02040                 | ' 
02040                 | ' ''---------  Set the graphics mode
02040                 | ' 
02040                 | ' 
02040                 | ' 
02040                 | ' pub setmode(mode) | i', 'xzoom, yzoom, azoom
02040                 | _hng025_setmode
02040     4F 44 05 F6 | 	mov	COUNT_, #79
02044     A5 00 A0 FD | 	call	#pushregs_
02048     EF E8 01 F6 | 	mov	local01, arg01
0204c                 | ' 
0204c                 | ' '' mode:tn_bb_cc_vv_hh
0204c                 | ' '' hh - h.zoom, vv-v.zoom, cc-c.depth,
0204c                 | ' '' bb - borders/total pixels, 00-wide/1140, 01 medium/1026, 10 narrow/912, 11 no border, 1024 px PAL, 880 px NTSC
0204c                 | ' 
0204c                 | ' if mode==(512+192+48)
0204c     01 00 00 FF 
02050     F0 E8 0D F2 | 	cmp	local01, ##752 wz
02054                 | '   return 'no RAM
02054     F0 09 90 AD |  if_e	jmp	#LR__0136
02058                 | ' 
02058                 | ' case_fast (mode>>6) & 7 ' timings are the same for graphic and text
02058     F4 EA 01 F6 | 	mov	local02, local01
0205c     06 EA 45 F0 | 	shr	local02, #6
02060     07 EA 05 F5 | 	and	local02, #7
02064     08 EA 25 F3 | 	fle	local02, #8
02068     F5 EC 01 F6 | 	mov	local03, local02
0206c     30 EC 61 FD | 	jmprel	local03
02070                 | LR__0097
02070     20 00 90 FD | 	jmp	#LR__0098
02074     58 00 90 FD | 	jmp	#LR__0099
02078     90 00 90 FD | 	jmp	#LR__0100
0207c     C8 00 90 FD | 	jmp	#LR__0101
02080     00 01 90 FD | 	jmp	#LR__0102
02084     38 01 90 FD | 	jmp	#LR__0103
02088     70 01 90 FD | 	jmp	#LR__0104
0208c     A8 01 90 FD | 	jmp	#LR__0105
02090     E4 01 90 FD | 	jmp	#LR__0106
02094                 | LR__0098
02094                 | ' 
02094                 | '     0:  longmove(@timings,@timings000,16)   'PAL 50 Hz signaling 1140x624, active 800x480, 100x30 text, wide border, 2 colors per pixel, 00_00_00_00_00=0, 354_693_878 Hz
02094     50 A8 05 F1 | 	add	objptr, #80
02098     D4 DE 01 F6 | 	mov	arg01, objptr
0209c     50 A8 85 F1 | 	sub	objptr, #80
020a0     0E 00 00 FF 
020a4     58 AE 05 F1 | 	add	ptr__hng025_dat__, ##7256
020a8     D7 EE 01 F6 | 	mov	local04, ptr__hng025_dat__
020ac     F7 F0 01 F6 | 	mov	local05, local04
020b0     10 F2 05 F6 | 	mov	local06, #16
020b4     F8 E0 01 F6 | 	mov	arg02, local05
020b8     10 E2 05 F6 | 	mov	arg03, #16
020bc     0E 00 00 FF 
020c0     58 AE 85 F1 | 	sub	ptr__hng025_dat__, ##7256
020c4     0C 0B B0 FD | 	call	#__system__longmove
020c8     DD F4 01 F6 | 	mov	local07, result1
020cc     A8 01 90 FD | 	jmp	#LR__0106
020d0                 | LR__0099
020d0                 | '     1:  longmove(@timings,@timings064,16)   'PAL 50 Hz signaling 1026x624, active 880x496, 110x31 text, medium border, 2 colors per pixel 00_01_00_00_00=64, 319_215_686 Hz
020d0     50 A8 05 F1 | 	add	objptr, #80
020d4     D4 DE 01 F6 | 	mov	arg01, objptr
020d8     50 A8 85 F1 | 	sub	objptr, #80
020dc     0E 00 00 FF 
020e0     98 AE 05 F1 | 	add	ptr__hng025_dat__, ##7320
020e4     D7 EE 01 F6 | 	mov	local04, ptr__hng025_dat__
020e8     F7 F0 01 F6 | 	mov	local05, local04
020ec     10 F2 05 F6 | 	mov	local06, #16
020f0     F8 E0 01 F6 | 	mov	arg02, local05
020f4     10 E2 05 F6 | 	mov	arg03, #16
020f8     0E 00 00 FF 
020fc     98 AE 85 F1 | 	sub	ptr__hng025_dat__, ##7320
02100     D0 0A B0 FD | 	call	#__system__longmove
02104     DD F4 01 F6 | 	mov	local07, result1
02108     6C 01 90 FD | 	jmp	#LR__0106
0210c                 | LR__0100
0210c                 | '     2:  longmove(@timings,@timings128,16)   'PAL 50 Hz signaling 912x624, active 800x480, 100x30 text, medium border, 2 colors per pixel 00_10_00_00_00=64, 283750000z
0210c     50 A8 05 F1 | 	add	objptr, #80
02110     D4 DE 01 F6 | 	mov	arg01, objptr
02114     50 A8 85 F1 | 	sub	objptr, #80
02118     0E 00 00 FF 
0211c     D8 AE 05 F1 | 	add	ptr__hng025_dat__, ##7384
02120     D7 EE 01 F6 | 	mov	local04, ptr__hng025_dat__
02124     F7 F0 01 F6 | 	mov	local05, local04
02128     10 F2 05 F6 | 	mov	local06, #16
0212c     F8 E0 01 F6 | 	mov	arg02, local05
02130     10 E2 05 F6 | 	mov	arg03, #16
02134     0E 00 00 FF 
02138     D8 AE 85 F1 | 	sub	ptr__hng025_dat__, ##7384
0213c     94 0A B0 FD | 	call	#__system__longmove
02140     DD F4 01 F6 | 	mov	local07, result1
02144     30 01 90 FD | 	jmp	#LR__0106
02148                 | LR__0101
02148                 | '     3:  longmove(@timings,@timings192,16)   'PAL 50 Hz signaling 1140x624, active 1024x576, 128x36 text, borderless, 2 colors per pixel 00_11_00_00_00=6192, 354_693_878 Hz
02148     50 A8 05 F1 | 	add	objptr, #80
0214c     D4 DE 01 F6 | 	mov	arg01, objptr
02150     50 A8 85 F1 | 	sub	objptr, #80
02154     0E 00 00 FF 
02158     18 AF 05 F1 | 	add	ptr__hng025_dat__, ##7448
0215c     D7 EE 01 F6 | 	mov	local04, ptr__hng025_dat__
02160     F7 F0 01 F6 | 	mov	local05, local04
02164     10 F2 05 F6 | 	mov	local06, #16
02168     F8 E0 01 F6 | 	mov	arg02, local05
0216c     10 E2 05 F6 | 	mov	arg03, #16
02170     0E 00 00 FF 
02174     18 AF 85 F1 | 	sub	ptr__hng025_dat__, ##7448
02178     58 0A B0 FD | 	call	#__system__longmove
0217c     DD F4 01 F6 | 	mov	local07, result1
02180     F4 00 90 FD | 	jmp	#LR__0106
02184                 | LR__0102
02184                 | '     4:  longmove(@timings,@timings256,16)   'NTSC 50 Hz signaling 1140x524, active 800x480, 100x30 text, NO PLACE FOR wide border, 2 colors per pixel, 01_00_00_00_00=256, 357959184 Hz
02184     50 A8 05 F1 | 	add	objptr, #80
02188     D4 DE 01 F6 | 	mov	arg01, objptr
0218c     50 A8 85 F1 | 	sub	objptr, #80
02190     0E 00 00 FF 
02194     58 AF 05 F1 | 	add	ptr__hng025_dat__, ##7512
02198     D7 EE 01 F6 | 	mov	local04, ptr__hng025_dat__
0219c     F7 F0 01 F6 | 	mov	local05, local04
021a0     10 F2 05 F6 | 	mov	local06, #16
021a4     F8 E0 01 F6 | 	mov	arg02, local05
021a8     10 E2 05 F6 | 	mov	arg03, #16
021ac     0E 00 00 FF 
021b0     58 AF 85 F1 | 	sub	ptr__hng025_dat__, ##7512
021b4     1C 0A B0 FD | 	call	#__system__longmove
021b8     DD F4 01 F6 | 	mov	local07, result1
021bc     B8 00 90 FD | 	jmp	#LR__0106
021c0                 | LR__0103
021c0                 | '     5:  longmove(@timings,@timings320,16)   'NTSC 50 Hz signaling 1026x524, active 800x480, 100x30 text, NO PLACE FOR wide border, 2 colors per pixel, 01_01_00_00_00=320, 322162162 Hz
021c0     50 A8 05 F1 | 	add	objptr, #80
021c4     D4 DE 01 F6 | 	mov	arg01, objptr
021c8     50 A8 85 F1 | 	sub	objptr, #80
021cc     0E 00 00 FF 
021d0     98 AF 05 F1 | 	add	ptr__hng025_dat__, ##7576
021d4     D7 EE 01 F6 | 	mov	local04, ptr__hng025_dat__
021d8     F7 F0 01 F6 | 	mov	local05, local04
021dc     10 F2 05 F6 | 	mov	local06, #16
021e0     F8 E0 01 F6 | 	mov	arg02, local05
021e4     10 E2 05 F6 | 	mov	arg03, #16
021e8     0E 00 00 FF 
021ec     98 AF 85 F1 | 	sub	ptr__hng025_dat__, ##7576
021f0     E0 09 B0 FD | 	call	#__system__longmove
021f4     DD F4 01 F6 | 	mov	local07, result1
021f8     7C 00 90 FD | 	jmp	#LR__0106
021fc                 | LR__0104
021fc                 | '     6:  longmove(@timings,@timings384,16)   'NTSC 50 Hz signaling 912x524, active 800x480, 100x30 text, NO PLACE FOR wide border, 2 colors per pixel, 01_10_00_00_00=384, 286363636 Hz
021fc     50 A8 05 F1 | 	add	objptr, #80
02200     D4 DE 01 F6 | 	mov	arg01, objptr
02204     50 A8 85 F1 | 	sub	objptr, #80
02208     0E 00 00 FF 
0220c     D8 AF 05 F1 | 	add	ptr__hng025_dat__, ##7640
02210     D7 EE 01 F6 | 	mov	local04, ptr__hng025_dat__
02214     F7 F0 01 F6 | 	mov	local05, local04
02218     10 F2 05 F6 | 	mov	local06, #16
0221c     F8 E0 01 F6 | 	mov	arg02, local05
02220     10 E2 05 F6 | 	mov	arg03, #16
02224     0E 00 00 FF 
02228     D8 AF 85 F1 | 	sub	ptr__hng025_dat__, ##7640
0222c     A4 09 B0 FD | 	call	#__system__longmove
02230     DD F4 01 F6 | 	mov	local07, result1
02234     40 00 90 FD | 	jmp	#LR__0106
02238                 | LR__0105
02238                 | '     7:  longmove(@timings,@timings448,16)   'NTSC 50 Hz signaling 1026x524, active 880x496, 110x31 text, borderless, 2 colors per pixel, 01_11_00_00_00=496, 322162162 Hz
02238     50 A8 05 F1 | 	add	objptr, #80
0223c     D4 F6 01 F6 | 	mov	local08, objptr
02240     FB F8 01 F6 | 	mov	local09, local08
02244     0F 00 00 FF 
02248     18 AE 05 F1 | 	add	ptr__hng025_dat__, ##7704
0224c     D7 EE 01 F6 | 	mov	local04, ptr__hng025_dat__
02250     F7 F0 01 F6 | 	mov	local05, local04
02254     10 F2 05 F6 | 	mov	local06, #16
02258     FC DE 01 F6 | 	mov	arg01, local09
0225c     F8 E0 01 F6 | 	mov	arg02, local05
02260     10 E2 05 F6 | 	mov	arg03, #16
02264     50 A8 85 F1 | 	sub	objptr, #80
02268     0F 00 00 FF 
0226c     18 AE 85 F1 | 	sub	ptr__hng025_dat__, ##7704
02270     60 09 B0 FD | 	call	#__system__longmove
02274     DD F4 01 F6 | 	mov	local07, result1
02278                 | LR__0106
02278                 | ' 
02278                 | ' ' 4-bit graphics: do nothing with timings :)
02278                 | ' 
02278                 | ' if (mode & (%10_00_11_0000))==(%10_00_11_0000) ' 8bit graphics, 4 pixels per long instead of 8, cpp x2
02278     F4 EA 01 F6 | 	mov	local02, local01
0227c     01 00 00 FF 
02280     30 EA 05 F5 | 	and	local02, ##560
02284     01 00 00 FF 
02288     30 EA 0D F2 | 	cmp	local02, ##560 wz
0228c     48 00 90 5D |  if_ne	jmp	#LR__0107
02290                 | '   timings[5]:=4
02290     64 A8 05 F1 | 	add	objptr, #100
02294     D4 08 68 FC | 	wrlong	#4, objptr
02298     18 A8 05 F1 | 	add	objptr, #24
0229c     D4 FA 01 FB | 	rdlong	local10, objptr
022a0     01 FA 65 F0 | 	shl	local10, #1
022a4                 | '   timings[11]:=timings[11]<<1
022a4     D4 FA 61 FC | 	wrlong	local10, objptr
022a8                 | '   putpixel:=p8
022a8     6C A8 05 F1 | 	add	objptr, #108
022ac     D4 EA 01 FB | 	rdlong	local02, objptr
022b0     10 A8 85 F1 | 	sub	objptr, #16
022b4     D4 EA 61 FC | 	wrlong	local02, objptr
022b8     0C 00 00 FF 
022bc     58 AE 05 F1 | 	add	ptr__hng025_dat__, ##6232
022c0     D7 FC 01 F6 | 	mov	local11, ptr__hng025_dat__
022c4                 | '   palette_ptr:=@ataripalette
022c4     C0 A8 85 F1 | 	sub	objptr, #192
022c8     D4 FC 61 FC | 	wrlong	local11, objptr
022cc     18 A8 85 F1 | 	sub	objptr, #24
022d0     0C 00 00 FF 
022d4     58 AE 85 F1 | 	sub	ptr__hng025_dat__, ##6232
022d8                 | LR__0107
022d8                 | ' 
022d8                 | ' if (mode & (%10_00_11_0000))==(%10_00_01_0000) ' 2bit graphics, 16 pixels per long instead of 8, cpp /2
022d8     F4 EA 01 F6 | 	mov	local02, local01
022dc     01 00 00 FF 
022e0     30 EA 05 F5 | 	and	local02, ##560
022e4     01 00 00 FF 
022e8     10 EA 0D F2 | 	cmp	local02, ##528 wz
022ec     48 00 90 5D |  if_ne	jmp	#LR__0108
022f0                 | '   timings[5]:=16
022f0     64 A8 05 F1 | 	add	objptr, #100
022f4     D4 20 68 FC | 	wrlong	#16, objptr
022f8     18 A8 05 F1 | 	add	objptr, #24
022fc     D4 FE 01 FB | 	rdlong	local12, objptr
02300     01 FE 45 F0 | 	shr	local12, #1
02304                 | '   timings[11]:=timings[11]>>1
02304     D4 FE 61 FC | 	wrlong	local12, objptr
02308                 | '   putpixel:=p2
02308     64 A8 05 F1 | 	add	objptr, #100
0230c     D4 EA 01 FB | 	rdlong	local02, objptr
02310     08 A8 85 F1 | 	sub	objptr, #8
02314     D4 EA 61 FC | 	wrlong	local02, objptr
02318     0C 00 00 FF 
0231c     08 AE 05 F1 | 	add	ptr__hng025_dat__, ##6152
02320     D7 00 02 F6 | 	mov	local13, ptr__hng025_dat__
02324                 | '   palette_ptr:=@fourcolors
02324     C0 A8 85 F1 | 	sub	objptr, #192
02328     D4 00 62 FC | 	wrlong	local13, objptr
0232c     18 A8 85 F1 | 	sub	objptr, #24
02330     0C 00 00 FF 
02334     08 AE 85 F1 | 	sub	ptr__hng025_dat__, ##6152
02338                 | LR__0108
02338                 | ' 
02338                 | ' if (mode & (%10_00_11_0000))==(%10_00_00_0000) ' 1bit graphics, 32 pixels per long instead of 8, cpp /4
02338     F4 EA 01 F6 | 	mov	local02, local01
0233c     01 00 00 FF 
02340     30 EA 05 F5 | 	and	local02, ##560
02344     01 00 00 FF 
02348     00 EA 0D F2 | 	cmp	local02, ##512 wz
0234c     48 00 90 5D |  if_ne	jmp	#LR__0109
02350                 | '   timings[5]:=32
02350     64 A8 05 F1 | 	add	objptr, #100
02354     D4 40 68 FC | 	wrlong	#32, objptr
02358     18 A8 05 F1 | 	add	objptr, #24
0235c     D4 02 02 FB | 	rdlong	local14, objptr
02360     02 02 46 F0 | 	shr	local14, #2
02364                 | '   timings[11]:=timings[11]>>2
02364     D4 02 62 FC | 	wrlong	local14, objptr
02368                 | '   putpixel:=p1
02368     60 A8 05 F1 | 	add	objptr, #96
0236c     D4 EA 01 FB | 	rdlong	local02, objptr
02370     04 A8 85 F1 | 	sub	objptr, #4
02374     D4 EA 61 FC | 	wrlong	local02, objptr
02378     0C 00 00 FF 
0237c     00 AE 05 F1 | 	add	ptr__hng025_dat__, ##6144
02380     D7 04 02 F6 | 	mov	local15, ptr__hng025_dat__
02384                 | '   palette_ptr:=@twocolors
02384     C0 A8 85 F1 | 	sub	objptr, #192
02388     D4 04 62 FC | 	wrlong	local15, objptr
0238c     18 A8 85 F1 | 	sub	objptr, #24
02390     0C 00 00 FF 
02394     00 AE 85 F1 | 	sub	ptr__hng025_dat__, ##6144
02398                 | LR__0109
02398                 | ' 
02398                 | ' if (mode & (%10_00_11_0000))==(%10_00_10_0000) ' 4bit graphics,
02398     F4 EA 01 F6 | 	mov	local02, local01
0239c     01 00 00 FF 
023a0     30 EA 05 F5 | 	and	local02, ##560
023a4     01 00 00 FF 
023a8     20 EA 0D F2 | 	cmp	local02, ##544 wz
023ac     30 00 90 5D |  if_ne	jmp	#LR__0110
023b0                 | '   putpixel:=p4
023b0     E4 A8 05 F1 | 	add	objptr, #228
023b4     D4 EA 01 FB | 	rdlong	local02, objptr
023b8     0C A8 85 F1 | 	sub	objptr, #12
023bc     D4 EA 61 FC | 	wrlong	local02, objptr
023c0     0C 00 00 FF 
023c4     18 AE 05 F1 | 	add	ptr__hng025_dat__, ##6168
023c8     D7 06 02 F6 | 	mov	local16, ptr__hng025_dat__
023cc                 | '   palette_ptr:=@vga16
023cc     C0 A8 85 F1 | 	sub	objptr, #192
023d0     D4 06 62 FC | 	wrlong	local16, objptr
023d4     18 A8 85 F1 | 	sub	objptr, #24
023d8     0C 00 00 FF 
023dc     18 AE 85 F1 | 	sub	ptr__hng025_dat__, ##6168
023e0                 | LR__0110
023e0                 | ' 
023e0                 | ' repeat i from 0 to 4
023e0     00 08 06 F6 | 	mov	local17, #0
023e4     5C DC 9F FE | 	loc	pa,	#(@LR__0112-@LR__0111)
023e8     95 00 A0 FD | 	call	#FCACHE_LOAD_
023ec                 | LR__0111
023ec     04 0B 02 F6 | 	mov	local18, local17
023f0     02 0A 66 F0 | 	shl	local18, #2
023f4     50 A8 05 F1 | 	add	objptr, #80
023f8     D4 0A 02 F1 | 	add	local18, objptr
023fc     2C A8 85 F1 | 	sub	objptr, #44
02400     D4 0C 02 FB | 	rdlong	local19, objptr
02404     24 A8 85 F1 | 	sub	objptr, #36
02408     11 0C 66 F0 | 	shl	local19, #17
0240c     05 0F 02 FB | 	rdlong	local20, local18
02410     06 0F 02 F1 | 	add	local20, local19
02414     07 11 02 F6 | 	mov	local21, local20
02418     80 40 38 FF 
0241c     00 10 06 F1 | 	add	local21, ##1887502336
02420                 | '   timings[i]:=timings[i]+hdmibase<<17+ timingsxxt
02420     05 11 62 FC | 	wrlong	local21, local18
02424     01 08 06 F1 | 	add	local17, #1
02428     05 08 5E F2 | 	cmps	local17, #5 wcz
0242c     BC FF 9F CD |  if_b	jmp	#LR__0111
02430                 | LR__0112
02430     24 A8 05 F1 | 	add	objptr, #36
02434     D4 12 02 FB | 	rdlong	local22, objptr
02438     11 12 66 F0 | 	shl	local22, #17
0243c     40 A8 05 F1 | 	add	objptr, #64
02440     D4 14 02 FB | 	rdlong	local23, objptr
02444     09 15 02 F1 | 	add	local23, local22
02448                 | ' timings[5]:=timings[5]+hdmibase<<17
02448     D4 14 62 FC | 	wrlong	local23, objptr
0244c                 | ' clkfreq:=timings[13]
0244c     20 A8 05 F1 | 	add	objptr, #32
02450     D4 EA 01 FB | 	rdlong	local02, objptr
02454     14 EA 65 FC | 	wrlong	local02, #20
02458                 | ' hubset(timings[14])
02458     04 A8 05 F1 | 	add	objptr, #4
0245c     D4 DE 01 FB | 	rdlong	arg01, objptr
02460     88 A8 85 F1 | 	sub	objptr, #136
02464     00 DE 61 FD | 	hubset	arg01
02468                 | ' waitms(1)
02468     01 DE 05 F6 | 	mov	arg01, #1
0246c     D8 08 B0 FD | 	call	#__system___waitms
02470     F4 16 02 F6 | 	mov	local24, local01
02474     03 16 06 F5 | 	and	local24, #3
02478     0B 19 C2 F9 | 	decod	local25, local24
0247c                 | ' 
0247c                 | ' 
0247c                 | ' xzoom:=1<<(mode & 3)
0247c     CC A8 05 F1 | 	add	objptr, #204
02480     D4 18 62 FC | 	wrlong	local25, objptr
02484                 | ' 
02484                 | ' if (xzoom==8) && (((mode>>4)&3)<>3)
02484     0C F7 01 F6 | 	mov	local08, local25
02488     CC A8 85 F1 | 	sub	objptr, #204
0248c     08 F6 0D F2 | 	cmp	local08, #8 wz
02490     24 00 90 5D |  if_ne	jmp	#LR__0113
02494     F4 F8 01 F6 | 	mov	local09, local01
02498     04 F8 45 F0 | 	shr	local09, #4
0249c     03 F8 05 F5 | 	and	local09, #3
024a0     03 F8 0D F2 | 	cmp	local09, #3 wz
024a4     10 00 90 AD |  if_e	jmp	#LR__0113
024a8                 | '   xzoom:=4
024a8     04 EA 05 F6 | 	mov	local02, #4
024ac     CC A8 05 F1 | 	add	objptr, #204
024b0     D4 08 68 FC | 	wrlong	#4, objptr
024b4     CC A8 85 F1 | 	sub	objptr, #204
024b8                 | LR__0113
024b8     F4 1A 02 F6 | 	mov	local26, local01
024bc     02 1A 46 F0 | 	shr	local26, #2
024c0     03 1A 06 F5 | 	and	local26, #3
024c4     0D 1D C2 F9 | 	decod	local27, local26
024c8                 | ' 
024c8                 | ' yzoom:=1<<((mode>>2) & 3)
024c8     D0 A8 05 F1 | 	add	objptr, #208
024cc     D4 1C 62 FC | 	wrlong	local27, objptr
024d0     04 A8 85 F1 | 	sub	objptr, #4
024d4     D4 F6 01 FB | 	rdlong	local08, objptr
024d8     04 A8 05 F1 | 	add	objptr, #4
024dc     D4 EE 01 FB | 	rdlong	local04, objptr
024e0     F7 F6 01 FD | 	qmul	local08, local04
024e4     18 1E 62 FD | 	getqx	local28
024e8                 | ' azoom:=xzoom*yzoom
024e8     04 A8 05 F1 | 	add	objptr, #4
024ec     D4 1E 62 FC | 	wrlong	local28, objptr
024f0                 | ' 
024f0                 | ' cpl:=timings[11]
024f0     58 A8 85 F1 | 	sub	objptr, #88
024f4     D4 EA 01 FB | 	rdlong	local02, objptr
024f8     14 A8 05 F1 | 	add	objptr, #20
024fc     D4 EA 61 FC | 	wrlong	local02, objptr
02500     90 A8 85 F1 | 	sub	objptr, #144
02504                 | ' if (mode<512)
02504     01 00 00 FF 
02508     00 E8 5D F2 | 	cmps	local01, ##512 wcz
0250c     60 00 90 3D |  if_ae	jmp	#LR__0114
02510     80 A8 05 F1 | 	add	objptr, #128
02514     D4 86 02 FB | 	rdlong	muldiva_, objptr
02518     04 86 46 F0 | 	shr	muldiva_, #4
0251c     50 A8 05 F1 | 	add	objptr, #80
02520     D4 88 02 FB | 	rdlong	muldivb_, objptr
02524     D0 A8 85 F1 | 	sub	objptr, #208
02528     C1 00 A0 FD | 	call	#unsdivide_
0252c                 | '   lines:=(timings[12]>>4)+/yzoom
0252c     94 A8 05 F1 | 	add	objptr, #148
02530     D4 88 62 FC | 	wrlong	muldivb_, objptr
02534                 | '   if ((timings[12]>>4)+//yzoom) <>0
02534     14 A8 85 F1 | 	sub	objptr, #20
02538     D4 86 02 FB | 	rdlong	muldiva_, objptr
0253c     04 86 46 F0 | 	shr	muldiva_, #4
02540     50 A8 05 F1 | 	add	objptr, #80
02544     D4 88 02 FB | 	rdlong	muldivb_, objptr
02548     D0 A8 85 F1 | 	sub	objptr, #208
0254c     C1 00 A0 FD | 	call	#unsdivide_
02550     00 86 0E F2 | 	cmp	muldiva_, #0 wz
02554     AC 00 90 AD |  if_e	jmp	#LR__0117
02558                 | '     lines +=1
02558     94 A8 05 F1 | 	add	objptr, #148
0255c     D4 EA 01 FB | 	rdlong	local02, objptr
02560     01 EA 05 F1 | 	add	local02, #1
02564     D4 EA 61 FC | 	wrlong	local02, objptr
02568     94 A8 85 F1 | 	sub	objptr, #148
0256c                 | ' 
0256c                 | ' else
0256c     94 00 90 FD | 	jmp	#LR__0117
02570                 | LR__0114
02570     80 A8 05 F1 | 	add	objptr, #128
02574     D4 86 02 FB | 	rdlong	muldiva_, objptr
02578     50 A8 05 F1 | 	add	objptr, #80
0257c     D4 88 02 FB | 	rdlong	muldivb_, objptr
02580     D0 A8 85 F1 | 	sub	objptr, #208
02584     C5 00 A0 FD | 	call	#divide_
02588                 | '   lines:=timings[12]/yzoom
02588     94 A8 05 F1 | 	add	objptr, #148
0258c     D4 88 62 FC | 	wrlong	muldivb_, objptr
02590                 | '   if cpl//xzoom==0
02590     04 A8 85 F1 | 	sub	objptr, #4
02594     D4 86 02 FB | 	rdlong	muldiva_, objptr
02598     3C A8 05 F1 | 	add	objptr, #60
0259c     D4 88 02 FB | 	rdlong	muldivb_, objptr
025a0     CC A8 85 F1 | 	sub	objptr, #204
025a4     C5 00 A0 FD | 	call	#divide_
025a8     00 86 0E F2 | 	cmp	muldiva_, #0 wz
025ac     28 00 90 5D |  if_ne	jmp	#LR__0115
025b0                 | '     cpl:=cpl/xzoom
025b0     90 A8 05 F1 | 	add	objptr, #144
025b4     D4 86 02 FB | 	rdlong	muldiva_, objptr
025b8     3C A8 05 F1 | 	add	objptr, #60
025bc     D4 88 02 FB | 	rdlong	muldivb_, objptr
025c0     CC A8 85 F1 | 	sub	objptr, #204
025c4     C5 00 A0 FD | 	call	#divide_
025c8     90 A8 05 F1 | 	add	objptr, #144
025cc     D4 88 62 FC | 	wrlong	muldivb_, objptr
025d0     90 A8 85 F1 | 	sub	objptr, #144
025d4                 | '   else
025d4     2C 00 90 FD | 	jmp	#LR__0116
025d8                 | LR__0115
025d8     90 A8 05 F1 | 	add	objptr, #144
025dc     D4 86 02 FB | 	rdlong	muldiva_, objptr
025e0     3C A8 05 F1 | 	add	objptr, #60
025e4     D4 88 02 FB | 	rdlong	muldivb_, objptr
025e8     CC A8 85 F1 | 	sub	objptr, #204
025ec     C5 00 A0 FD | 	call	#divide_
025f0     44 21 02 F6 | 	mov	local29, muldivb_
025f4     01 20 06 F1 | 	add	local29, #1
025f8                 | '     cpl:=cpl/xzoom+1
025f8     90 A8 05 F1 | 	add	objptr, #144
025fc     D4 20 62 FC | 	wrlong	local29, objptr
02600     90 A8 85 F1 | 	sub	objptr, #144
02604                 | LR__0116
02604                 | LR__0117
02604     90 A8 05 F1 | 	add	objptr, #144
02608     D4 F6 01 FB | 	rdlong	local08, objptr
0260c     04 A8 05 F1 | 	add	objptr, #4
02610     D4 EE 01 FB | 	rdlong	local04, objptr
02614     F7 F6 01 FD | 	qmul	local08, local04
02618     18 22 62 FD | 	getqx	local30
0261c                 | ' 
0261c                 | ' buflen:=(cpl*lines)
0261c     64 A8 85 F1 | 	sub	objptr, #100
02620     D4 22 62 FC | 	wrlong	local30, objptr
02624     30 A8 85 F1 | 	sub	objptr, #48
02628     02 22 66 F0 | 	shl	local30, #2
0262c     13 24 C6 F9 | 	decod	local31, #19
02630     11 25 82 F1 | 	sub	local31, local30
02634                 | ' 
02634                 | ' buf_ptr:=$80000-4*buflen
02634     D4 24 62 FC | 	wrlong	local31, objptr
02638     50 A8 05 F1 | 	add	objptr, #80
0263c     D4 26 02 F6 | 	mov	local32, objptr
02640                 | ' mode_ptr:=@timings
02640     3C A8 85 F1 | 	sub	objptr, #60
02644     D4 26 62 FC | 	wrlong	local32, objptr
02648                 | ' graphmode:=mode
02648     B0 A8 05 F1 | 	add	objptr, #176
0264c     D4 E8 61 FC | 	wrlong	local01, objptr
02650     C4 A8 85 F1 | 	sub	objptr, #196
02654                 | ' makedl(mode)
02654     F4 DE 01 F6 | 	mov	arg01, local01
02658                 | ' 
02658                 | ' ''--%aaaa_aaaa_aaaa_aaaa_aazz_nnnn_llll_ll_01 - txt
02658                 | '   '' aaaa_aaaa_aaaa_aaaa_aazz_rrrr_rrrr_cc_10 - graph
02658                 | '   '' aaaa_aaaa_aaaa-aaaa_aarr_rrrr_rrrr_rr_11 - extended, next long to read
02658                 | ' 
02658                 | ' '   0 - display a up/down border line
02658                 | ' 
02658                 | ' '  ' aaaa_aaaa_aaaa_aaaa_aazz_nnnn_llll_ll_01 - text line
02658                 | ' '    aaaa_aaaa_aaaa_aaaa_aa00 - buffer start, has to be aligned, 1 long for char, ff_bb_rr_cc, foreground, background,reserved, charcode
02658                 | ' '    zz - zoom, 00-x1, 01-x2, 10-x4, 11-blank line
02658                 | ' '    nnnn - font line to display, 0..15
02658                 | ' '    llllll - character line, determines the cursor Y position
02658                 | ' 
02658                 | ' 
02658                 | ' if (mode &256==0)
02658     00 DF CD F7 | 	test	arg01, #256 wz
0265c     1C 00 90 5D |  if_ne	jmp	#LR__0118
02660     D4 28 02 FB | 	rdlong	local33, objptr
02664     04 00 00 FF 
02668     00 29 86 F1 | 	sub	local33, ##2304
0266c                 | '   dl_ptr:=buf_ptr-4*576
0266c     1C A8 05 F1 | 	add	objptr, #28
02670     D4 28 62 FC | 	wrlong	local33, objptr
02674     1C A8 85 F1 | 	sub	objptr, #28
02678                 | ' else
02678     18 00 90 FD | 	jmp	#LR__0119
0267c                 | LR__0118
0267c     D4 2A 02 FB | 	rdlong	local34, objptr
02680     03 00 00 FF 
02684     C0 2B 86 F1 | 	sub	local34, ##1984
02688                 | '   dl_ptr:=buf_ptr-4*496
02688     1C A8 05 F1 | 	add	objptr, #28
0268c     D4 2A 62 FC | 	wrlong	local34, objptr
02690     1C A8 85 F1 | 	sub	objptr, #28
02694                 | LR__0119
02694     EF 2C 02 F6 | 	mov	local35, arg01
02698     02 2C 46 F0 | 	shr	local35, #2
0269c     03 2C 06 F5 | 	and	local35, #3
026a0                 | ' 
026a0                 | ' vzoom:=((mode>>2) & 3)
026a0                 | ' 
026a0                 | ' 
026a0                 | ' if mode<512 '' text modes
026a0     01 00 00 FF 
026a4     00 DE 5D F2 | 	cmps	arg01, ##512 wcz
026a8     E4 01 90 3D |  if_ae	jmp	#LR__0127
026ac                 | ' 
026ac                 | '   if timings[6]>0 'borders
026ac     68 A8 05 F1 | 	add	objptr, #104
026b0     D4 2E 02 FB | 	rdlong	local36, objptr
026b4     68 A8 85 F1 | 	sub	objptr, #104
026b8     00 2E 5E F2 | 	cmps	local36, #0 wcz
026bc     D4 00 90 ED |  if_be	jmp	#LR__0124
026c0                 | '     repeat i from 0 to timings[6]-1 '0 to -1
026c0     00 30 06 F6 | 	mov	local37, #0
026c4     68 A8 05 F1 | 	add	objptr, #104
026c8     D4 32 02 FB | 	rdlong	local38, objptr
026cc     68 A8 85 F1 | 	sub	objptr, #104
026d0     01 32 86 F1 | 	sub	local38, #1
026d4     00 32 5E F2 | 	cmps	local38, #0 wcz
026d8     01 34 06 16 |  if_a	mov	local39, #1
026dc     01 34 66 E6 |  if_be	neg	local39, #1
026e0     1A 37 02 F6 | 	mov	local40, local39
026e4     1A 33 02 F1 | 	add	local38, local39
026e8     3C D9 9F FE | 	loc	pa,	#(@LR__0121-@LR__0120)
026ec     95 00 A0 FD | 	call	#FCACHE_LOAD_
026f0                 | LR__0120
026f0     18 39 02 F6 | 	mov	local41, local37
026f4     02 38 66 F0 | 	shl	local41, #2
026f8     1C A8 05 F1 | 	add	objptr, #28
026fc     D4 3A 02 FB | 	rdlong	local42, objptr
02700     1C A8 85 F1 | 	sub	objptr, #28
02704     1C 3B 02 F1 | 	add	local42, local41
02708                 | '       long[dl_ptr+4*i]:=$0
02708     1D 01 68 FC | 	wrlong	#0, local42
0270c     1B 31 02 F1 | 	add	local37, local40
02710     19 31 0A F2 | 	cmp	local37, local38 wz
02714     D8 FF 9F 5D |  if_ne	jmp	#LR__0120
02718                 | LR__0121
02718                 | '     repeat i from timings[6]+timings[12] to timings[15]-1
02718     68 A8 05 F1 | 	add	objptr, #104
0271c     D4 30 02 FB | 	rdlong	local37, objptr
02720     18 A8 05 F1 | 	add	objptr, #24
02724     D4 34 02 FB | 	rdlong	local39, objptr
02728     1A 31 02 F1 | 	add	local37, local39
0272c     0C A8 05 F1 | 	add	objptr, #12
02730     D4 3C 02 FB | 	rdlong	local43, objptr
02734     01 3C 86 F1 | 	sub	local43, #1
02738     24 A8 85 F1 | 	sub	objptr, #36
0273c     D4 3E 02 FB | 	rdlong	local44, objptr
02740     18 A8 05 F1 | 	add	objptr, #24
02744     D4 40 02 FB | 	rdlong	local45, objptr
02748     80 A8 85 F1 | 	sub	objptr, #128
0274c     20 3F 02 F1 | 	add	local44, local45
02750     1F 3D 5A F2 | 	cmps	local43, local44 wcz
02754     01 42 06 16 |  if_a	mov	local46, #1
02758     01 42 66 E6 |  if_be	neg	local46, #1
0275c     21 45 02 F6 | 	mov	local47, local46
02760     21 3D 02 F1 | 	add	local43, local46
02764     C0 D8 9F FE | 	loc	pa,	#(@LR__0123-@LR__0122)
02768     95 00 A0 FD | 	call	#FCACHE_LOAD_
0276c                 | LR__0122
0276c     18 47 02 F6 | 	mov	local48, local37
02770     02 46 66 F0 | 	shl	local48, #2
02774     1C A8 05 F1 | 	add	objptr, #28
02778     D4 48 02 FB | 	rdlong	local49, objptr
0277c     1C A8 85 F1 | 	sub	objptr, #28
02780     23 49 02 F1 | 	add	local49, local48
02784                 | '       long[dl_ptr+4*i]:=$0
02784     24 01 68 FC | 	wrlong	#0, local49
02788     22 31 02 F1 | 	add	local37, local47
0278c     1E 31 0A F2 | 	cmp	local37, local43 wz
02790     D8 FF 9F 5D |  if_ne	jmp	#LR__0122
02794                 | LR__0123
02794                 | LR__0124
02794     10 4A 06 F6 | 	mov	local50, #16
02798     16 4B 62 F0 | 	shl	local50, local35
0279c                 | '   lpc:=16<<vzoom
0279c                 | '   repeat i from timings[6] to timings[6]+timings[12]-1
0279c     68 A8 05 F1 | 	add	objptr, #104
027a0     D4 30 02 FB | 	rdlong	local37, objptr
027a4     18 4D 02 F6 | 	mov	local51, local37
027a8     18 A8 05 F1 | 	add	objptr, #24
027ac     D4 4E 02 FB | 	rdlong	local52, objptr
027b0     27 4D 02 F1 | 	add	local51, local52
027b4     01 4C 86 F1 | 	sub	local51, #1
027b8     18 A8 85 F1 | 	sub	objptr, #24
027bc     D4 42 02 FB | 	rdlong	local46, objptr
027c0     68 A8 85 F1 | 	sub	objptr, #104
027c4     21 4D 5A F2 | 	cmps	local51, local46 wcz
027c8     01 50 06 16 |  if_a	mov	local53, #1
027cc     01 50 66 E6 |  if_be	neg	local53, #1
027d0     28 53 02 F6 | 	mov	local54, local53
027d4     28 4D 02 F1 | 	add	local51, local53
027d8     D4 D8 9F FE | 	loc	pa,	#(@LR__0126-@LR__0125)
027dc     95 00 A0 FD | 	call	#FCACHE_LOAD_
027e0                 | LR__0125
027e0     18 87 02 F6 | 	mov	muldiva_, local37
027e4     68 A8 05 F1 | 	add	objptr, #104
027e8     D4 54 02 FB | 	rdlong	local55, objptr
027ec     68 A8 85 F1 | 	sub	objptr, #104
027f0     2A 87 82 F1 | 	sub	muldiva_, local55
027f4     25 89 02 F6 | 	mov	muldivb_, local50
027f8     C1 00 A0 FD | 	call	#unsdivide_
027fc     16 87 42 F0 | 	shr	muldiva_, local35
02800                 | '     fontline2:=((i-timings[6])+//lpc)>>vzoom
02800     43 57 02 F6 | 	mov	local56, muldiva_
02804     18 87 02 F6 | 	mov	muldiva_, local37
02808     68 A8 05 F1 | 	add	objptr, #104
0280c     D4 54 02 FB | 	rdlong	local55, objptr
02810     68 A8 85 F1 | 	sub	objptr, #104
02814     2A 87 82 F1 | 	sub	muldiva_, local55
02818     25 89 02 F6 | 	mov	muldivb_, local50
0281c     C1 00 A0 FD | 	call	#unsdivide_
02820     44 59 02 F6 | 	mov	local57, muldivb_
02824                 | '     charline:=(i-timings[6])+/lpc
02824     90 A8 05 F1 | 	add	objptr, #144
02828     D4 54 02 FB | 	rdlong	local55, objptr
0282c     90 A8 85 F1 | 	sub	objptr, #144
02830     2C 55 02 FD | 	qmul	local55, local57
02834     18 5A 62 FD | 	getqx	local58
02838     02 5A 66 F0 | 	shl	local58, #2
0283c     D4 5C 02 FB | 	rdlong	local59, objptr
02840     2D 5D 02 F1 | 	add	local59, local58
02844     EF 5E 02 F6 | 	mov	local60, arg01
02848     03 5E 06 F5 | 	and	local60, #3
0284c     2F 5D 02 F1 | 	add	local59, local60
02850                 | '     bufstart:=buf_ptr+4*((cpl)*charline)+(mode&3)
02850     0C 5C 66 F0 | 	shl	local59, #12
02854     08 56 66 F0 | 	shl	local56, #8
02858     2B 5D 02 F1 | 	add	local59, local56
0285c     02 58 66 F0 | 	shl	local57, #2
02860     2C 5D 02 F1 | 	add	local59, local57
02864     01 5C 06 F1 | 	add	local59, #1
02868     18 61 02 F6 | 	mov	local61, local37
0286c     02 60 66 F0 | 	shl	local61, #2
02870     1C A8 05 F1 | 	add	objptr, #28
02874     D4 62 02 FB | 	rdlong	local62, objptr
02878     1C A8 85 F1 | 	sub	objptr, #28
0287c     30 63 02 F1 | 	add	local62, local61
02880                 | '     long[dl_ptr+4*i]:=(bufstart<<12)+(fontline2<<8)+(charline<<2)+1
02880     31 5D 62 FC | 	wrlong	local59, local62
02884     29 31 02 F1 | 	add	local37, local54
02888     26 31 0A F2 | 	cmp	local37, local51 wz
0288c     50 FF 9F 5D |  if_ne	jmp	#LR__0125
02890                 | LR__0126
02890                 | LR__0127
02890                 | ' 
02890                 | ' 
02890                 | ' 
02890                 | ' if (mode>=512)' and (mode & (%10_00_00_0000))==(%10_00_00_0000) ' graphics -> all modes TODO :mode 560+192=752 = 10_11_11_0000 impossib,e because out of memory
02890     01 00 00 FF 
02894     00 DE 5D F2 | 	cmps	arg01, ##512 wcz
02898     AC 01 90 CD |  if_b	jmp	#LR__0135
0289c                 | ' 
0289c                 | '   if timings[6]>0 'borders
0289c     68 A8 05 F1 | 	add	objptr, #104
028a0     D4 2E 02 FB | 	rdlong	local36, objptr
028a4     68 A8 85 F1 | 	sub	objptr, #104
028a8     00 2E 5E F2 | 	cmps	local36, #0 wcz
028ac     D4 00 90 ED |  if_be	jmp	#LR__0132
028b0                 | '     repeat i from 0 to timings[6]-1 '0 to -1
028b0     00 30 06 F6 | 	mov	local37, #0
028b4     68 A8 05 F1 | 	add	objptr, #104
028b8     D4 64 02 FB | 	rdlong	local63, objptr
028bc     68 A8 85 F1 | 	sub	objptr, #104
028c0     01 64 86 F1 | 	sub	local63, #1
028c4     00 64 5E F2 | 	cmps	local63, #0 wcz
028c8     01 34 06 16 |  if_a	mov	local39, #1
028cc     01 34 66 E6 |  if_be	neg	local39, #1
028d0     1A 67 02 F6 | 	mov	local64, local39
028d4     1A 65 02 F1 | 	add	local63, local39
028d8     4C D7 9F FE | 	loc	pa,	#(@LR__0129-@LR__0128)
028dc     95 00 A0 FD | 	call	#FCACHE_LOAD_
028e0                 | LR__0128
028e0     18 69 02 F6 | 	mov	local65, local37
028e4     02 68 66 F0 | 	shl	local65, #2
028e8     1C A8 05 F1 | 	add	objptr, #28
028ec     D4 6A 02 FB | 	rdlong	local66, objptr
028f0     1C A8 85 F1 | 	sub	objptr, #28
028f4     34 6B 02 F1 | 	add	local66, local65
028f8                 | '       long[dl_ptr+4*i]:=$0
028f8     35 01 68 FC | 	wrlong	#0, local66
028fc     33 31 02 F1 | 	add	local37, local64
02900     32 31 0A F2 | 	cmp	local37, local63 wz
02904     D8 FF 9F 5D |  if_ne	jmp	#LR__0128
02908                 | LR__0129
02908                 | '     repeat i from timings[6]+timings[12] to timings[15]-1
02908     68 A8 05 F1 | 	add	objptr, #104
0290c     D4 30 02 FB | 	rdlong	local37, objptr
02910     18 A8 05 F1 | 	add	objptr, #24
02914     D4 34 02 FB | 	rdlong	local39, objptr
02918     1A 31 02 F1 | 	add	local37, local39
0291c     0C A8 05 F1 | 	add	objptr, #12
02920     D4 6C 02 FB | 	rdlong	local67, objptr
02924     01 6C 86 F1 | 	sub	local67, #1
02928     24 A8 85 F1 | 	sub	objptr, #36
0292c     D4 3E 02 FB | 	rdlong	local44, objptr
02930     18 A8 05 F1 | 	add	objptr, #24
02934     D4 40 02 FB | 	rdlong	local45, objptr
02938     80 A8 85 F1 | 	sub	objptr, #128
0293c     20 3F 02 F1 | 	add	local44, local45
02940     1F 6D 5A F2 | 	cmps	local67, local44 wcz
02944     01 42 06 16 |  if_a	mov	local46, #1
02948     01 42 66 E6 |  if_be	neg	local46, #1
0294c     21 6F 02 F6 | 	mov	local68, local46
02950     21 6D 02 F1 | 	add	local67, local46
02954     D0 D6 9F FE | 	loc	pa,	#(@LR__0131-@LR__0130)
02958     95 00 A0 FD | 	call	#FCACHE_LOAD_
0295c                 | LR__0130
0295c     18 71 02 F6 | 	mov	local69, local37
02960     02 70 66 F0 | 	shl	local69, #2
02964     1C A8 05 F1 | 	add	objptr, #28
02968     D4 72 02 FB | 	rdlong	local70, objptr
0296c     1C A8 85 F1 | 	sub	objptr, #28
02970     38 73 02 F1 | 	add	local70, local69
02974                 | '       long[dl_ptr+4*i]:=$0
02974     39 01 68 FC | 	wrlong	#0, local70
02978     37 31 02 F1 | 	add	local37, local68
0297c     36 31 0A F2 | 	cmp	local37, local67 wz
02980     D8 FF 9F 5D |  if_ne	jmp	#LR__0130
02984                 | LR__0131
02984                 | LR__0132
02984                 | '   repeat i from timings[6] to timings[6]+timings[12]-1
02984     68 A8 05 F1 | 	add	objptr, #104
02988     D4 30 02 FB | 	rdlong	local37, objptr
0298c     18 75 02 F6 | 	mov	local71, local37
02990     18 A8 05 F1 | 	add	objptr, #24
02994     D4 4E 02 FB | 	rdlong	local52, objptr
02998     27 75 02 F1 | 	add	local71, local52
0299c     01 74 86 F1 | 	sub	local71, #1
029a0     18 A8 85 F1 | 	sub	objptr, #24
029a4     D4 42 02 FB | 	rdlong	local46, objptr
029a8     68 A8 85 F1 | 	sub	objptr, #104
029ac     21 75 5A F2 | 	cmps	local71, local46 wcz
029b0     01 50 06 16 |  if_a	mov	local53, #1
029b4     01 50 66 E6 |  if_be	neg	local53, #1
029b8     28 77 02 F6 | 	mov	local72, local53
029bc     28 75 02 F1 | 	add	local71, local53
029c0     BC D6 9F FE | 	loc	pa,	#(@LR__0134-@LR__0133)
029c4     95 00 A0 FD | 	call	#FCACHE_LOAD_
029c8                 | LR__0133
029c8     18 79 02 F6 | 	mov	local73, local37
029cc     68 A8 05 F1 | 	add	objptr, #104
029d0     D4 54 02 FB | 	rdlong	local55, objptr
029d4     2A 79 82 F1 | 	sub	local73, local55
029d8     16 79 42 F0 | 	shr	local73, local35
029dc     28 A8 05 F1 | 	add	objptr, #40
029e0     D4 54 02 FB | 	rdlong	local55, objptr
029e4     90 A8 85 F1 | 	sub	objptr, #144
029e8     3C 55 02 FD | 	qmul	local55, local73
029ec     18 7A 62 FD | 	getqx	local74
029f0     02 7A 66 F0 | 	shl	local74, #2
029f4     D4 7C 02 FB | 	rdlong	local75, objptr
029f8     3D 7D 02 F1 | 	add	local75, local74
029fc     EF 7E 02 F6 | 	mov	local76, arg01
02a00     03 7E 06 F5 | 	and	local76, #3
02a04     3F 7D 02 F1 | 	add	local75, local76
02a08                 | '     bufstart:=buf_ptr+4*(cpl*((i-timings[6])>>vzoom))+(mode&3)
02a08     0C 7C 66 F0 | 	shl	local75, #12
02a0c     02 7C 06 F1 | 	add	local75, #2
02a10     EF 80 02 F6 | 	mov	local77, arg01
02a14     30 80 06 F5 | 	and	local77, #48
02a18     02 80 46 F0 | 	shr	local77, #2
02a1c     40 7D 02 F1 | 	add	local75, local77
02a20     18 83 02 F6 | 	mov	local78, local37
02a24     02 82 66 F0 | 	shl	local78, #2
02a28     1C A8 05 F1 | 	add	objptr, #28
02a2c     D4 84 02 FB | 	rdlong	local79, objptr
02a30     1C A8 85 F1 | 	sub	objptr, #28
02a34     41 85 02 F1 | 	add	local79, local78
02a38                 | '     long[dl_ptr+4*i]:=(bufstart<<12)+2+(mode &48)>>2
02a38     42 7D 62 FC | 	wrlong	local75, local79
02a3c     3B 31 02 F1 | 	add	local37, local72
02a40     3A 31 0A F2 | 	cmp	local37, local71 wz
02a44     80 FF 9F 5D |  if_ne	jmp	#LR__0133
02a48                 | LR__0134
02a48                 | LR__0135
02a48                 | LR__0136
02a48     A4 F0 03 F6 | 	mov	ptra, fp
02a4c     B4 00 A0 FD | 	call	#popregs_
02a50                 | _hng025_setmode_ret
02a50     2D 00 64 FD | 	ret
02a54                 | hubexit
02a54     83 00 80 FD | 	jmp	#cogexit
02a58                 | 
02a58                 | __system___setbaud
02a58     14 86 06 FB | 	rdlong	muldiva_, #20
02a5c     EF 88 02 F6 | 	mov	muldivb_, arg01
02a60     C5 00 A0 FD | 	call	#divide_
02a64     40 7C 64 FD | 	dirl	#62
02a68     40 7E 64 FD | 	dirl	#63
02a6c     D6 88 62 FC | 	wrlong	muldivb_, ptr___system__dat__
02a70     10 88 66 F0 | 	shl	muldivb_, #16
02a74     07 E0 05 F6 | 	mov	arg02, #7
02a78     44 E1 01 F1 | 	add	arg02, muldivb_
02a7c     3E F8 0C FC | 	wrpin	#124, #62
02a80     3E E0 15 FC | 	wxpin	arg02, #62
02a84     3F 7C 0C FC | 	wrpin	#62, #63
02a88     14 E0 05 F1 | 	add	arg02, #20
02a8c     3F E0 15 FC | 	wxpin	arg02, #63
02a90     41 7C 64 FD | 	dirh	#62
02a94     41 7E 64 FD | 	dirh	#63
02a98                 | __system___setbaud_ret
02a98     2D 00 64 FD | 	ret
02a9c                 | 
02a9c                 | __system___txraw
02a9c     02 44 05 F6 | 	mov	COUNT_, #2
02aa0     A5 00 A0 FD | 	call	#pushregs_
02aa4     EF E8 01 F6 | 	mov	local01, arg01
02aa8     D6 EA 09 FB | 	rdlong	local02, ptr___system__dat__ wz
02aac     0C 00 90 5D |  if_ne	jmp	#LR__0137
02ab0     42 0F 00 FF 
02ab4     80 DE 05 F6 | 	mov	arg01, ##2000000
02ab8     9C FF BF FD | 	call	#__system___setbaud
02abc                 | LR__0137
02abc     3E E8 25 FC | 	wypin	local01, #62
02ac0     1F 02 64 FD | 	waitx	#1
02ac4     40 D5 9F FE | 	loc	pa,	#(@LR__0139-@LR__0138)
02ac8     95 00 A0 FD | 	call	#FCACHE_LOAD_
02acc                 | LR__0138
02acc     40 7C 74 FD | 	testp	#62 wc
02ad0     F8 FF 9F 3D |  if_nc	jmp	#LR__0138
02ad4                 | LR__0139
02ad4     01 BA 05 F6 | 	mov	result1, #1
02ad8     A4 F0 03 F6 | 	mov	ptra, fp
02adc     B4 00 A0 FD | 	call	#popregs_
02ae0                 | __system___txraw_ret
02ae0     2D 00 64 FD | 	ret
02ae4                 | 
02ae4                 | __system____builtin_memset
02ae4     EF BE 01 F6 | 	mov	_var01, arg01
02ae8     F0 C0 01 F6 | 	mov	_var02, arg02
02aec     08 C0 65 F0 | 	shl	_var02, #8
02af0     F0 C0 41 F5 | 	or	_var02, arg02
02af4     E0 C2 01 F6 | 	mov	_var03, _var02
02af8     10 C2 65 F0 | 	shl	_var03, #16
02afc     E0 C2 41 F5 | 	or	_var03, _var02
02b00     14 D5 9F FE | 	loc	pa,	#(@LR__0141-@LR__0140)
02b04     95 00 A0 FD | 	call	#FCACHE_LOAD_
02b08                 | LR__0140
02b08     03 E2 5D F2 | 	cmps	arg03, #3 wcz
02b0c     10 00 90 ED |  if_be	jmp	#LR__0142
02b10     EF C2 61 FC | 	wrlong	_var03, arg01
02b14     04 DE 05 F1 | 	add	arg01, #4
02b18     04 E2 85 F1 | 	sub	arg03, #4
02b1c     E8 FF 9F FD | 	jmp	#LR__0140
02b20                 | LR__0141
02b20                 | LR__0142
02b20     00 E2 0D F2 | 	cmp	arg03, #0 wz
02b24     14 00 90 AD |  if_e	jmp	#LR__0147
02b28     E0 D4 9F FE | 	loc	pa,	#(@LR__0145-@LR__0143)
02b2c     95 00 A0 FD | 	call	#FCACHE_LOAD_
02b30                 | LR__0143
02b30     F1 04 D8 FC | 	rep	@LR__0146, arg03
02b34                 | LR__0144
02b34     EF E0 41 FC | 	wrbyte	arg02, arg01
02b38     01 DE 05 F1 | 	add	arg01, #1
02b3c                 | LR__0145
02b3c                 | LR__0146
02b3c                 | LR__0147
02b3c     DF BA 01 F6 | 	mov	result1, _var01
02b40                 | __system____builtin_memset_ret
02b40     2D 00 64 FD | 	ret
02b44                 | 
02b44                 | __system____builtin_memmove
02b44     EF BE 01 F6 | 	mov	_var01, arg01
02b48     F0 DE 59 F2 | 	cmps	arg01, arg02 wcz
02b4c     50 00 90 3D |  if_ae	jmp	#LR__0155
02b50     CC D4 9F FE | 	loc	pa,	#(@LR__0149-@LR__0148)
02b54     95 00 A0 FD | 	call	#FCACHE_LOAD_
02b58                 | LR__0148
02b58     03 E2 5D F2 | 	cmps	arg03, #3 wcz
02b5c     18 00 90 ED |  if_be	jmp	#LR__0150
02b60     F0 C0 01 FB | 	rdlong	_var02, arg02
02b64     EF C0 61 FC | 	wrlong	_var02, arg01
02b68     04 DE 05 F1 | 	add	arg01, #4
02b6c     04 E0 05 F1 | 	add	arg02, #4
02b70     04 E2 85 F1 | 	sub	arg03, #4
02b74     E0 FF 9F FD | 	jmp	#LR__0148
02b78                 | LR__0149
02b78                 | LR__0150
02b78     F1 C2 09 F6 | 	mov	_var03, arg03 wz
02b7c     4C 00 90 AD |  if_e	jmp	#LR__0161
02b80     90 D4 9F FE | 	loc	pa,	#(@LR__0153-@LR__0151)
02b84     95 00 A0 FD | 	call	#FCACHE_LOAD_
02b88                 | LR__0151
02b88     E1 08 D8 FC | 	rep	@LR__0154, _var03
02b8c                 | LR__0152
02b8c     F0 C0 C1 FA | 	rdbyte	_var02, arg02
02b90     EF C0 41 FC | 	wrbyte	_var02, arg01
02b94     01 DE 05 F1 | 	add	arg01, #1
02b98     01 E0 05 F1 | 	add	arg02, #1
02b9c                 | LR__0153
02b9c                 | LR__0154
02b9c     2C 00 90 FD | 	jmp	#LR__0161
02ba0                 | LR__0155
02ba0     F1 DE 01 F1 | 	add	arg01, arg03
02ba4     F1 E0 01 F1 | 	add	arg02, arg03
02ba8     F1 C4 09 F6 | 	mov	_var04, arg03 wz
02bac     1C 00 90 AD |  if_e	jmp	#LR__0160
02bb0     60 D4 9F FE | 	loc	pa,	#(@LR__0158-@LR__0156)
02bb4     95 00 A0 FD | 	call	#FCACHE_LOAD_
02bb8                 | LR__0156
02bb8     E2 08 D8 FC | 	rep	@LR__0159, _var04
02bbc                 | LR__0157
02bbc     01 DE 85 F1 | 	sub	arg01, #1
02bc0     01 E0 85 F1 | 	sub	arg02, #1
02bc4     F0 C0 C1 FA | 	rdbyte	_var02, arg02
02bc8     EF C0 41 FC | 	wrbyte	_var02, arg01
02bcc                 | LR__0158
02bcc                 | LR__0159
02bcc                 | LR__0160
02bcc                 | LR__0161
02bcc     DF BA 01 F6 | 	mov	result1, _var01
02bd0                 | __system____builtin_memmove_ret
02bd0     2D 00 64 FD | 	ret
02bd4                 | 
02bd4                 | __system__longmove
02bd4     EF BE 01 F6 | 	mov	_var01, arg01
02bd8     F0 DE 59 F2 | 	cmps	arg01, arg02 wcz
02bdc     28 00 90 3D |  if_ae	jmp	#LR__0166
02be0     F1 C0 09 F6 | 	mov	_var02, arg03 wz
02be4     54 00 90 AD |  if_e	jmp	#LR__0172
02be8     28 D4 9F FE | 	loc	pa,	#(@LR__0164-@LR__0162)
02bec     95 00 A0 FD | 	call	#FCACHE_LOAD_
02bf0                 | LR__0162
02bf0     E0 08 D8 FC | 	rep	@LR__0165, _var02
02bf4                 | LR__0163
02bf4     F0 C2 01 FB | 	rdlong	_var03, arg02
02bf8     EF C2 61 FC | 	wrlong	_var03, arg01
02bfc     04 DE 05 F1 | 	add	arg01, #4
02c00     04 E0 05 F1 | 	add	arg02, #4
02c04                 | LR__0164
02c04                 | LR__0165
02c04     34 00 90 FD | 	jmp	#LR__0172
02c08                 | LR__0166
02c08     F1 C4 01 F6 | 	mov	_var04, arg03
02c0c     02 C4 65 F0 | 	shl	_var04, #2
02c10     E2 DE 01 F1 | 	add	arg01, _var04
02c14     E2 E0 01 F1 | 	add	arg02, _var04
02c18     F1 C6 09 F6 | 	mov	_var05, arg03 wz
02c1c     1C 00 90 AD |  if_e	jmp	#LR__0171
02c20     F0 D3 9F FE | 	loc	pa,	#(@LR__0169-@LR__0167)
02c24     95 00 A0 FD | 	call	#FCACHE_LOAD_
02c28                 | LR__0167
02c28     E3 08 D8 FC | 	rep	@LR__0170, _var05
02c2c                 | LR__0168
02c2c     04 DE 85 F1 | 	sub	arg01, #4
02c30     04 E0 85 F1 | 	sub	arg02, #4
02c34     F0 C2 01 FB | 	rdlong	_var03, arg02
02c38     EF C2 61 FC | 	wrlong	_var03, arg01
02c3c                 | LR__0169
02c3c                 | LR__0170
02c3c                 | LR__0171
02c3c                 | LR__0172
02c3c     DF BA 01 F6 | 	mov	result1, _var01
02c40                 | __system__longmove_ret
02c40     2D 00 64 FD | 	ret
02c44                 | 
02c44                 | __system____topofstack
02c44     00 44 05 F6 | 	mov	COUNT_, #0
02c48     A5 00 A0 FD | 	call	#pushregs_
02c4c     0C F0 07 F1 | 	add	ptra, #12
02c50     04 48 05 F1 | 	add	fp, #4
02c54     A4 DE 61 FC | 	wrlong	arg01, fp
02c58     A4 BA 01 F6 | 	mov	result1, fp
02c5c     04 48 85 F1 | 	sub	fp, #4
02c60     A4 F0 03 F6 | 	mov	ptra, fp
02c64     B4 00 A0 FD | 	call	#popregs_
02c68                 | __system____topofstack_ret
02c68     2D 00 64 FD | 	ret
02c6c                 | 
02c6c                 | __system___make_methodptr
02c6c     04 44 05 F6 | 	mov	COUNT_, #4
02c70     A5 00 A0 FD | 	call	#pushregs_
02c74     EF E8 01 F6 | 	mov	local01, arg01
02c78     F0 EA 01 F6 | 	mov	local02, arg02
02c7c     08 DE 05 F6 | 	mov	arg01, #8
02c80     18 04 B0 FD | 	call	#__system___gc_alloc_managed
02c84     DD EC 09 F6 | 	mov	local03, result1 wz
02c88     10 00 90 AD |  if_e	jmp	#LR__0173
02c8c     F6 E8 61 FC | 	wrlong	local01, local03
02c90     F6 EE 01 F6 | 	mov	local04, local03
02c94     04 EE 05 F1 | 	add	local04, #4
02c98     F7 EA 61 FC | 	wrlong	local02, local04
02c9c                 | LR__0173
02c9c     F6 BA 01 F6 | 	mov	result1, local03
02ca0     A4 F0 03 F6 | 	mov	ptra, fp
02ca4     B4 00 A0 FD | 	call	#popregs_
02ca8                 | __system___make_methodptr_ret
02ca8     2D 00 64 FD | 	ret
02cac                 | 
02cac                 | __system___tx
02cac     02 44 05 F6 | 	mov	COUNT_, #2
02cb0     A5 00 A0 FD | 	call	#pushregs_
02cb4     EF E8 01 F6 | 	mov	local01, arg01
02cb8     0A E8 0D F2 | 	cmp	local01, #10 wz
02cbc     20 00 90 5D |  if_ne	jmp	#LR__0174
02cc0     08 AC 05 F1 | 	add	ptr___system__dat__, #8
02cc4     D6 EA 01 FB | 	rdlong	local02, ptr___system__dat__
02cc8     08 AC 85 F1 | 	sub	ptr___system__dat__, #8
02ccc     02 EA CD F7 | 	test	local02, #2 wz
02cd0     0C 00 90 AD |  if_e	jmp	#LR__0174
02cd4     0D EA 05 F6 | 	mov	local02, #13
02cd8     0D DE 05 F6 | 	mov	arg01, #13
02cdc     BC FD BF FD | 	call	#__system___txraw
02ce0                 | LR__0174
02ce0     F4 DE 01 F6 | 	mov	arg01, local01
02ce4     B4 FD BF FD | 	call	#__system___txraw
02ce8     A4 F0 03 F6 | 	mov	ptra, fp
02cec     B4 00 A0 FD | 	call	#popregs_
02cf0                 | __system___tx_ret
02cf0     2D 00 64 FD | 	ret
02cf4                 | 
02cf4                 | __system___lockmem
02cf4     02 44 05 F6 | 	mov	COUNT_, #2
02cf8     A5 00 A0 FD | 	call	#pushregs_
02cfc     D0 BA 01 F6 | 	mov	result1, __lockreg
02d00     DD E8 01 F6 | 	mov	local01, result1
02d04     28 D3 9F FE | 	loc	pa,	#(@LR__0177-@LR__0175)
02d08     95 00 A0 FD | 	call	#FCACHE_LOAD_
02d0c                 | LR__0175
02d0c                 | LR__0176
02d0c     06 E8 71 FD | 	locktry	local01 wc
02d10     FF FF 7F FF 
02d14     FF BB A5 F5 | 	muxnc	result1, ##-1
02d18     00 BA 0D F2 | 	cmp	result1, #0 wz
02d1c     EC FF 9F 5D |  if_ne	jmp	#LR__0176
02d20     EF EA C9 FA | 	rdbyte	local02, arg01 wz
02d24     EF 02 48 AC |  if_e	wrbyte	#1, arg01
02d28     07 E8 71 FD | 	lockrel	local01 wc
02d2c     FF FF 7F FF 
02d30     FF BB 85 F5 | 	muxc	result1, ##-1
02d34     00 EA 0D F2 | 	cmp	local02, #0 wz
02d38     D0 FF 9F 5D |  if_ne	jmp	#LR__0175
02d3c                 | LR__0177
02d3c     A4 F0 03 F6 | 	mov	ptra, fp
02d40     B4 00 A0 FD | 	call	#popregs_
02d44                 | __system___lockmem_ret
02d44     2D 00 64 FD | 	ret
02d48                 | 
02d48                 | __system___waitms
02d48     02 44 05 F6 | 	mov	COUNT_, #2
02d4c     A5 00 A0 FD | 	call	#pushregs_
02d50     EF E8 01 F6 | 	mov	local01, arg01
02d54     14 EA 05 FB | 	rdlong	local02, #20
02d58     BC D2 9F FE | 	loc	pa,	#(@LR__0179-@LR__0178)
02d5c     95 00 A0 FD | 	call	#FCACHE_LOAD_
02d60                 | LR__0178
02d60     01 00 00 FF 
02d64     E8 E9 5D F2 | 	cmps	local01, ##1000 wcz
02d68     1F EA 61 1D |  if_a	waitx	local02
02d6c     01 00 00 1F 
02d70     E8 E9 85 11 |  if_a	sub	local01, ##1000
02d74     E8 FF 9F 1D |  if_a	jmp	#LR__0178
02d78                 | LR__0179
02d78     00 E8 5D F2 | 	cmps	local01, #0 wcz
02d7c     1C 00 90 ED |  if_be	jmp	#LR__0180
02d80     F5 86 02 F6 | 	mov	muldiva_, local02
02d84     01 00 00 FF 
02d88     E8 89 06 F6 | 	mov	muldivb_, ##1000
02d8c     C5 00 A0 FD | 	call	#divide_
02d90     44 E9 01 FD | 	qmul	local01, muldivb_
02d94     18 DE 61 FD | 	getqx	arg01
02d98     1F DE 61 FD | 	waitx	arg01
02d9c                 | LR__0180
02d9c     A4 F0 03 F6 | 	mov	ptra, fp
02da0     B4 00 A0 FD | 	call	#popregs_
02da4                 | __system___waitms_ret
02da4     2D 00 64 FD | 	ret
02da8                 | 
02da8                 | __system___gc_ptrs
02da8     0A 44 05 F6 | 	mov	COUNT_, #10
02dac     A5 00 A0 FD | 	call	#pushregs_
02db0     CF E8 01 F6 | 	mov	local01, __heap_ptr
02db4     F4 EA 01 F6 | 	mov	local02, local01
02db8     07 00 00 FF 
02dbc     F8 EB 05 F1 | 	add	local02, ##4088
02dc0     F4 EC 09 FB | 	rdlong	local03, local01 wz
02dc4     74 00 90 5D |  if_ne	jmp	#LR__0181
02dc8     F5 EE 01 F6 | 	mov	local04, local02
02dcc     F4 EE 81 F1 | 	sub	local04, local01
02dd0     F4 02 58 FC | 	wrword	#1, local01
02dd4     F4 F0 01 F6 | 	mov	local05, local01
02dd8     02 F0 05 F1 | 	add	local05, #2
02ddc     36 00 80 FF 
02de0     F8 20 59 FC | 	wrword	##27792, local05
02de4     F4 F2 01 F6 | 	mov	local06, local01
02de8     04 F2 05 F1 | 	add	local06, #4
02dec     F9 00 58 FC | 	wrword	#0, local06
02df0     F4 F4 01 F6 | 	mov	local07, local01
02df4     06 F4 05 F1 | 	add	local07, #6
02df8     FA 02 58 FC | 	wrword	#1, local07
02dfc     10 E8 05 F1 | 	add	local01, #16
02e00     F7 EC 51 F6 | 	abs	local03, local04 wc
02e04     04 EC 45 F0 | 	shr	local03, #4
02e08     F6 EC 61 C6 |  if_b	neg	local03, local03
02e0c     F4 EC 51 FC | 	wrword	local03, local01
02e10     F4 F6 01 F6 | 	mov	local08, local01
02e14     02 F6 05 F1 | 	add	local08, #2
02e18     36 00 80 FF 
02e1c     FB 1E 59 FC | 	wrword	##27791, local08
02e20     F4 F8 01 F6 | 	mov	local09, local01
02e24     04 F8 05 F1 | 	add	local09, #4
02e28     FC 00 58 FC | 	wrword	#0, local09
02e2c     F4 FA 01 F6 | 	mov	local10, local01
02e30     06 FA 05 F1 | 	add	local10, #6
02e34     FD 00 58 FC | 	wrword	#0, local10
02e38     10 E8 85 F1 | 	sub	local01, #16
02e3c                 | LR__0181
02e3c     F5 BC 01 F6 | 	mov	result2, local02
02e40     F4 BA 01 F6 | 	mov	result1, local01
02e44     A4 F0 03 F6 | 	mov	ptra, fp
02e48     B4 00 A0 FD | 	call	#popregs_
02e4c                 | __system___gc_ptrs_ret
02e4c     2D 00 64 FD | 	ret
02e50                 | 
02e50                 | __system___gc_nextBlockPtr
02e50     02 44 05 F6 | 	mov	COUNT_, #2
02e54     A5 00 A0 FD | 	call	#pushregs_
02e58     EF E8 01 F6 | 	mov	local01, arg01
02e5c     F4 EA E9 FA | 	rdword	local02, local01 wz
02e60     10 00 90 5D |  if_ne	jmp	#LR__0182
02e64     1B 00 00 FF 
02e68     50 DE 05 F6 | 	mov	arg01, ##@LR__0225
02e6c     F8 01 B0 FD | 	call	#__system___gc_errmsg
02e70     0C 00 90 FD | 	jmp	#LR__0183
02e74                 | LR__0182
02e74     04 EA 65 F0 | 	shl	local02, #4
02e78     F4 BA 01 F6 | 	mov	result1, local01
02e7c     F5 BA 01 F1 | 	add	result1, local02
02e80                 | LR__0183
02e80     A4 F0 03 F6 | 	mov	ptra, fp
02e84     B4 00 A0 FD | 	call	#popregs_
02e88                 | __system___gc_nextBlockPtr_ret
02e88     2D 00 64 FD | 	ret
02e8c                 | 
02e8c                 | __system___gc_tryalloc
02e8c     1B 44 05 F6 | 	mov	COUNT_, #27
02e90     A5 00 A0 FD | 	call	#pushregs_
02e94     EF E8 01 F6 | 	mov	local01, arg01
02e98     F0 EA 01 F6 | 	mov	local02, arg02
02e9c     08 FF BF FD | 	call	#__system___gc_ptrs
02ea0     DD EC 01 F6 | 	mov	local03, result1
02ea4     DE EE 01 F6 | 	mov	local04, result2
02ea8     F6 F0 01 F6 | 	mov	local05, local03
02eac     00 F2 05 F6 | 	mov	local06, #0
02eb0     A4 D1 9F FE | 	loc	pa,	#(@LR__0185-@LR__0184)
02eb4     95 00 A0 FD | 	call	#FCACHE_LOAD_
02eb8                 | LR__0184
02eb8     F8 F4 01 F6 | 	mov	local07, local05
02ebc     06 F0 05 F1 | 	add	local05, #6
02ec0     F8 F6 01 F6 | 	mov	local08, local05
02ec4     F6 F8 01 F6 | 	mov	local09, local03
02ec8     FB FA E1 FA | 	rdword	local10, local08
02ecc     FC DE 01 F6 | 	mov	arg01, local09
02ed0     FD E0 09 F6 | 	mov	arg02, local10 wz
02ed4     00 BA 05 A6 |  if_e	mov	result1, #0
02ed8     04 E0 65 50 |  if_ne	shl	arg02, #4
02edc     F0 DE 01 51 |  if_ne	add	arg01, arg02
02ee0     EF BA 01 56 |  if_ne	mov	result1, arg01
02ee4     DD FC 01 F6 | 	mov	local11, result1
02ee8     FE F0 09 F6 | 	mov	local05, local11 wz
02eec     F8 F8 01 56 |  if_ne	mov	local09, local05
02ef0     FC FE 01 56 |  if_ne	mov	local12, local09
02ef4     FF F2 E1 5A |  if_ne	rdword	local06, local12
02ef8     00 F0 0D F2 | 	cmp	local05, #0 wz
02efc     10 00 90 AD |  if_e	jmp	#LR__0186
02f00     F7 F0 59 F2 | 	cmps	local05, local04 wcz
02f04     08 00 90 3D |  if_ae	jmp	#LR__0186
02f08     F9 E8 59 F2 | 	cmps	local01, local06 wcz
02f0c     A8 FF 9F 1D |  if_a	jmp	#LR__0184
02f10                 | LR__0185
02f10                 | LR__0186
02f10     00 F0 0D F2 | 	cmp	local05, #0 wz
02f14     F8 BA 01 A6 |  if_e	mov	result1, local05
02f18     40 01 90 AD |  if_e	jmp	#LR__0189
02f1c     F8 00 02 F6 | 	mov	local13, local05
02f20     06 00 06 F1 | 	add	local13, #6
02f24     00 03 E2 FA | 	rdword	local14, local13
02f28     F9 E8 59 F2 | 	cmps	local01, local06 wcz
02f2c     CC 00 90 3D |  if_ae	jmp	#LR__0188
02f30     F8 04 02 F6 | 	mov	local15, local05
02f34     02 E9 51 FC | 	wrword	local01, local15
02f38     F4 06 02 F6 | 	mov	local16, local01
02f3c     04 06 66 F0 | 	shl	local16, #4
02f40     F8 08 02 F6 | 	mov	local17, local05
02f44     03 09 02 F1 | 	add	local17, local16
02f48     F9 0A 02 F6 | 	mov	local18, local06
02f4c     F4 0A 82 F1 | 	sub	local18, local01
02f50     04 0D 02 F6 | 	mov	local19, local17
02f54     06 0B 52 FC | 	wrword	local18, local19
02f58     04 0F 02 F6 | 	mov	local20, local17
02f5c     02 0E 06 F1 | 	add	local20, #2
02f60     36 00 80 FF 
02f64     07 1F 59 FC | 	wrword	##27791, local20
02f68     04 11 02 F6 | 	mov	local21, local17
02f6c     04 10 06 F1 | 	add	local21, #4
02f70     F8 E0 09 F6 | 	mov	arg02, local05 wz
02f74     00 BA 05 A6 |  if_e	mov	result1, #0
02f78     F6 E0 81 51 |  if_ne	sub	arg02, local03
02f7c     04 E0 45 50 |  if_ne	shr	arg02, #4
02f80     F0 BA 01 56 |  if_ne	mov	result1, arg02
02f84     08 BB 51 FC | 	wrword	result1, local21
02f88     04 13 02 F6 | 	mov	local22, local17
02f8c     00 F9 E1 FA | 	rdword	local09, local13
02f90     06 12 06 F1 | 	add	local22, #6
02f94     09 F9 51 FC | 	wrword	local09, local22
02f98     04 15 02 F6 | 	mov	local23, local17
02f9c     0A E1 09 F6 | 	mov	arg02, local23 wz
02fa0     00 BA 05 A6 |  if_e	mov	result1, #0
02fa4     F6 E0 81 51 |  if_ne	sub	arg02, local03
02fa8     04 E0 45 50 |  if_ne	shr	arg02, #4
02fac     F0 BA 01 56 |  if_ne	mov	result1, arg02
02fb0     DD 02 02 F6 | 	mov	local14, result1
02fb4     04 DF 01 F6 | 	mov	arg01, local17
02fb8     94 FE BF FD | 	call	#__system___gc_nextBlockPtr
02fbc     DD 16 0A F6 | 	mov	local24, result1 wz
02fc0     38 00 90 AD |  if_e	jmp	#LR__0187
02fc4     F7 16 5A F2 | 	cmps	local24, local04 wcz
02fc8     30 00 90 3D |  if_ae	jmp	#LR__0187
02fcc     0B 19 02 F6 | 	mov	local25, local24
02fd0     04 18 06 F1 | 	add	local25, #4
02fd4     F6 F8 01 F6 | 	mov	local09, local03
02fd8     0A FB 01 F6 | 	mov	local10, local23
02fdc     FC DE 01 F6 | 	mov	arg01, local09
02fe0     FD E0 09 F6 | 	mov	arg02, local10 wz
02fe4     00 BA 05 A6 |  if_e	mov	result1, #0
02fe8     EF E0 81 51 |  if_ne	sub	arg02, arg01
02fec     04 E0 45 50 |  if_ne	shr	arg02, #4
02ff0     F0 BA 01 56 |  if_ne	mov	result1, arg02
02ff4     DD FC 01 F6 | 	mov	local11, result1
02ff8     0C FD 51 FC | 	wrword	local11, local25
02ffc                 | LR__0187
02ffc                 | LR__0188
02ffc     06 F4 05 F1 | 	add	local07, #6
03000     FA 02 52 FC | 	wrword	local14, local07
03004     36 00 00 FF 
03008     80 F8 05 F6 | 	mov	local09, ##27776
0300c     F5 F8 41 F5 | 	or	local09, local02
03010     F8 1A 02 F6 | 	mov	local26, local05
03014     02 1A 06 F1 | 	add	local26, #2
03018     01 BA 61 FD | 	cogid	result1
0301c     DD F8 41 F5 | 	or	local09, result1
03020     0D F9 51 FC | 	wrword	local09, local26
03024     F6 1C 02 F6 | 	mov	local27, local03
03028     08 1C 06 F1 | 	add	local27, #8
0302c     0E F9 E1 FA | 	rdword	local09, local27
03030     00 F9 51 FC | 	wrword	local09, local13
03034     F8 E0 09 F6 | 	mov	arg02, local05 wz
03038     00 BA 05 A6 |  if_e	mov	result1, #0
0303c     F6 E0 81 51 |  if_ne	sub	arg02, local03
03040     04 E0 45 50 |  if_ne	shr	arg02, #4
03044     F0 BA 01 56 |  if_ne	mov	result1, arg02
03048     0E BB 51 FC | 	wrword	result1, local27
0304c     08 F0 05 F1 | 	add	local05, #8
03050     F8 BA 01 F6 | 	mov	result1, local05
03054     00 C0 31 FF 
03058     00 BA 45 F5 | 	or	result1, ##1669332992
0305c                 | LR__0189
0305c     A4 F0 03 F6 | 	mov	ptra, fp
03060     B4 00 A0 FD | 	call	#popregs_
03064                 | __system___gc_tryalloc_ret
03064     2D 00 64 FD | 	ret
03068                 | 
03068                 | __system___gc_errmsg
03068     02 44 05 F6 | 	mov	COUNT_, #2
0306c     A5 00 A0 FD | 	call	#pushregs_
03070     EF E8 01 F6 | 	mov	local01, arg01
03074                 | LR__0190
03074     F4 EA C9 FA | 	rdbyte	local02, local01 wz
03078     01 E8 05 F1 | 	add	local01, #1
0307c     0C 00 90 AD |  if_e	jmp	#LR__0191
03080     F5 DE 01 F6 | 	mov	arg01, local02
03084     24 FC BF FD | 	call	#__system___tx
03088     E8 FF 9F FD | 	jmp	#LR__0190
0308c                 | LR__0191
0308c     00 BA 05 F6 | 	mov	result1, #0
03090     A4 F0 03 F6 | 	mov	ptra, fp
03094     B4 00 A0 FD | 	call	#popregs_
03098                 | __system___gc_errmsg_ret
03098     2D 00 64 FD | 	ret
0309c                 | 
0309c                 | __system___gc_alloc_managed
0309c     02 44 05 F6 | 	mov	COUNT_, #2
030a0     A5 00 A0 FD | 	call	#pushregs_
030a4     EF E8 01 F6 | 	mov	local01, arg01
030a8     00 E0 05 F6 | 	mov	arg02, #0
030ac     30 00 B0 FD | 	call	#__system___gc_doalloc
030b0     DD EA 09 F6 | 	mov	local02, result1 wz
030b4     18 00 90 5D |  if_ne	jmp	#LR__0192
030b8     00 E8 5D F2 | 	cmps	local01, #0 wcz
030bc     10 00 90 ED |  if_be	jmp	#LR__0192
030c0     1B 00 00 FF 
030c4     6C DE 05 F6 | 	mov	arg01, ##@LR__0226
030c8     9C FF BF FD | 	call	#__system___gc_errmsg
030cc     04 00 90 FD | 	jmp	#LR__0193
030d0                 | LR__0192
030d0     F5 BA 01 F6 | 	mov	result1, local02
030d4                 | LR__0193
030d4     A4 F0 03 F6 | 	mov	ptra, fp
030d8     B4 00 A0 FD | 	call	#popregs_
030dc                 | __system___gc_alloc_managed_ret
030dc     2D 00 64 FD | 	ret
030e0                 | 
030e0                 | __system___gc_doalloc
030e0     07 44 05 F6 | 	mov	COUNT_, #7
030e4     A5 00 A0 FD | 	call	#pushregs_
030e8     EF E8 09 F6 | 	mov	local01, arg01 wz
030ec     F0 EA 01 F6 | 	mov	local02, arg02
030f0     00 BA 05 A6 |  if_e	mov	result1, #0
030f4     8C 00 90 AD |  if_e	jmp	#LR__0201
030f8     17 E8 05 F1 | 	add	local01, #23
030fc     0F E8 25 F5 | 	andn	local01, #15
03100     04 E8 45 F0 | 	shr	local01, #4
03104     0C AC 05 F1 | 	add	ptr___system__dat__, #12
03108     D6 EC 01 F6 | 	mov	local03, ptr___system__dat__
0310c     F6 DE 01 F6 | 	mov	arg01, local03
03110     0C AC 85 F1 | 	sub	ptr___system__dat__, #12
03114     DC FB BF FD | 	call	#__system___lockmem
03118     F4 DE 01 F6 | 	mov	arg01, local01
0311c     F5 E0 01 F6 | 	mov	arg02, local02
03120     68 FD BF FD | 	call	#__system___gc_tryalloc
03124     DD EE 09 F6 | 	mov	local04, result1 wz
03128     14 00 90 5D |  if_ne	jmp	#LR__0194
0312c     10 03 B0 FD | 	call	#__system___gc_docollect
03130     F4 DE 01 F6 | 	mov	arg01, local01
03134     F5 E0 01 F6 | 	mov	arg02, local02
03138     50 FD BF FD | 	call	#__system___gc_tryalloc
0313c     DD EE 01 F6 | 	mov	local04, result1
03140                 | LR__0194
03140     F6 00 48 FC | 	wrbyte	#0, local03
03144     00 EE 0D F2 | 	cmp	local04, #0 wz
03148     34 00 90 AD |  if_e	jmp	#LR__0200
0314c     04 E8 65 F0 | 	shl	local01, #4
03150     08 E8 85 F1 | 	sub	local01, #8
03154     F4 F0 51 F6 | 	abs	local05, local01 wc
03158     02 F0 45 F0 | 	shr	local05, #2
0315c     F8 F0 61 C6 |  if_b	neg	local05, local05
03160     F8 F2 09 F6 | 	mov	local06, local05 wz
03164     F7 F4 01 F6 | 	mov	local07, local04
03168     14 00 90 AD |  if_e	jmp	#LR__0199
0316c     9C CE 9F FE | 	loc	pa,	#(@LR__0197-@LR__0195)
03170     95 00 A0 FD | 	call	#FCACHE_LOAD_
03174                 | LR__0195
03174     F9 04 D8 FC | 	rep	@LR__0198, local06
03178                 | LR__0196
03178     FA 00 68 FC | 	wrlong	#0, local07
0317c     04 F4 05 F1 | 	add	local07, #4
03180                 | LR__0197
03180                 | LR__0198
03180                 | LR__0199
03180                 | LR__0200
03180     F7 BA 01 F6 | 	mov	result1, local04
03184                 | LR__0201
03184     A4 F0 03 F6 | 	mov	ptra, fp
03188     B4 00 A0 FD | 	call	#popregs_
0318c                 | __system___gc_doalloc_ret
0318c     2D 00 64 FD | 	ret
03190                 | 
03190                 | __system___gc_isvalidptr
03190     F1 BE 01 F6 | 	mov	_var01, arg03
03194     DF C0 01 F6 | 	mov	_var02, _var01
03198     00 F8 7F FF 
0319c     00 C0 05 F5 | 	and	_var02, ##-1048576
031a0     00 C0 31 FF 
031a4     00 C0 0D F2 | 	cmp	_var02, ##1669332992 wz
031a8     00 BA 05 56 |  if_ne	mov	result1, #0
031ac     60 00 90 5D |  if_ne	jmp	#__system___gc_isvalidptr_ret
031b0     08 BE 85 F1 | 	sub	_var01, #8
031b4     DF C2 01 F6 | 	mov	_var03, _var01
031b8     00 F8 7F FF 
031bc     00 C2 25 F5 | 	andn	_var03, ##-1048576
031c0     EF C2 59 F2 | 	cmps	_var03, arg01 wcz
031c4     08 00 90 CD |  if_b	jmp	#LR__0202
031c8     F0 C2 59 F2 | 	cmps	_var03, arg02 wcz
031cc     08 00 90 CD |  if_b	jmp	#LR__0203
031d0                 | LR__0202
031d0     00 BA 05 F6 | 	mov	result1, #0
031d4     38 00 90 FD | 	jmp	#__system___gc_isvalidptr_ret
031d8                 | LR__0203
031d8     E1 C0 01 F6 | 	mov	_var02, _var03
031dc     EF C0 61 F5 | 	xor	_var02, arg01
031e0     0F C0 0D F5 | 	and	_var02, #15 wz
031e4     00 BA 05 56 |  if_ne	mov	result1, #0
031e8     24 00 90 5D |  if_ne	jmp	#__system___gc_isvalidptr_ret
031ec     E1 C4 01 F6 | 	mov	_var04, _var03
031f0     02 C4 05 F1 | 	add	_var04, #2
031f4     E2 C0 E1 FA | 	rdword	_var02, _var04
031f8     7F 00 00 FF 
031fc     C0 C1 05 F5 | 	and	_var02, ##65472
03200     36 00 00 FF 
03204     80 C0 0D F2 | 	cmp	_var02, ##27776 wz
03208     00 BA 05 56 |  if_ne	mov	result1, #0
0320c     E1 BA 01 A6 |  if_e	mov	result1, _var03
03210                 | __system___gc_isvalidptr_ret
03210     2D 00 64 FD | 	ret
03214                 | 
03214                 | __system___gc_dofree
03214     1A 44 05 F6 | 	mov	COUNT_, #26
03218     A5 00 A0 FD | 	call	#pushregs_
0321c     EF E8 01 F6 | 	mov	local01, arg01
03220     84 FB BF FD | 	call	#__system___gc_ptrs
03224     DE EA 01 F6 | 	mov	local02, result2
03228     DD EC 01 F6 | 	mov	local03, result1
0322c     F4 EE 01 F6 | 	mov	local04, local01
03230     02 EE 05 F1 | 	add	local04, #2
03234     36 00 80 FF 
03238     F7 1E 59 FC | 	wrword	##27791, local04
0323c     F4 F0 01 F6 | 	mov	local05, local01
03240     F4 DE 01 F6 | 	mov	arg01, local01
03244     08 FC BF FD | 	call	#__system___gc_nextBlockPtr
03248     DD F2 01 F6 | 	mov	local06, result1
0324c     00 CE 9F FE | 	loc	pa,	#(@LR__0205-@LR__0204)
03250     95 00 A0 FD | 	call	#FCACHE_LOAD_
03254                 | LR__0204
03254     04 F0 05 F1 | 	add	local05, #4
03258     F8 F4 01 F6 | 	mov	local07, local05
0325c     FA E0 E9 FA | 	rdword	arg02, local07 wz
03260     F6 DE 01 F6 | 	mov	arg01, local03
03264     00 BA 05 A6 |  if_e	mov	result1, #0
03268     04 E0 65 50 |  if_ne	shl	arg02, #4
0326c     F0 DE 01 51 |  if_ne	add	arg01, arg02
03270     EF BA 01 56 |  if_ne	mov	result1, arg01
03274     DD F0 09 F6 | 	mov	local05, result1 wz
03278     28 00 90 AD |  if_e	jmp	#LR__0206
0327c     F8 DE 01 F6 | 	mov	arg01, local05
03280     00 F6 05 F6 | 	mov	local08, #0
03284     02 DE 05 F1 | 	add	arg01, #2
03288     EF F8 E1 FA | 	rdword	local09, arg01
0328c     36 00 00 FF 
03290     8F F8 0D F2 | 	cmp	local09, ##27791 wz
03294     01 F6 65 A6 |  if_e	neg	local08, #1
03298     FB BA 01 F6 | 	mov	result1, local08
0329c     DD FA 09 F6 | 	mov	local10, result1 wz
032a0     B0 FF 9F AD |  if_e	jmp	#LR__0204
032a4                 | LR__0205
032a4                 | LR__0206
032a4     00 F0 0D F2 | 	cmp	local05, #0 wz
032a8     F6 F0 01 A6 |  if_e	mov	local05, local03
032ac     F8 FC 01 F6 | 	mov	local11, local05
032b0     06 FC 05 F1 | 	add	local11, #6
032b4     F4 FE 01 F6 | 	mov	local12, local01
032b8     FE 00 E2 FA | 	rdword	local13, local11
032bc     06 FE 05 F1 | 	add	local12, #6
032c0     FF 00 52 FC | 	wrword	local13, local12
032c4     F4 E0 09 F6 | 	mov	arg02, local01 wz
032c8     00 BA 05 A6 |  if_e	mov	result1, #0
032cc     F6 E0 81 51 |  if_ne	sub	arg02, local03
032d0     04 E0 45 50 |  if_ne	shr	arg02, #4
032d4     F0 BA 01 56 |  if_ne	mov	result1, arg02
032d8     DD 02 02 F6 | 	mov	local14, result1
032dc     FE 02 52 FC | 	wrword	local14, local11
032e0     F6 F0 09 F2 | 	cmp	local05, local03 wz
032e4     74 00 90 AD |  if_e	jmp	#LR__0209
032e8     F8 DE 01 F6 | 	mov	arg01, local05
032ec     60 FB BF FD | 	call	#__system___gc_nextBlockPtr
032f0     F4 BA 09 F2 | 	cmp	result1, local01 wz
032f4     64 00 90 5D |  if_ne	jmp	#LR__0208
032f8     F8 04 02 F6 | 	mov	local15, local05
032fc     02 07 E2 FA | 	rdword	local16, local15
03300     F4 08 02 F6 | 	mov	local17, local01
03304     04 FB E1 FA | 	rdword	local10, local17
03308     FD 06 02 F1 | 	add	local16, local10
0330c     02 07 52 FC | 	wrword	local16, local15
03310     F7 00 58 FC | 	wrword	#0, local04
03314     F4 DE 01 F6 | 	mov	arg01, local01
03318     34 FB BF FD | 	call	#__system___gc_nextBlockPtr
0331c     DD F2 01 F6 | 	mov	local06, result1
03320     F5 F2 59 F2 | 	cmps	local06, local02 wcz
03324     24 00 90 3D |  if_ae	jmp	#LR__0207
03328     F9 0A 02 F6 | 	mov	local18, local06
0332c     04 0A 06 F1 | 	add	local18, #4
03330     F8 E0 09 F6 | 	mov	arg02, local05 wz
03334     00 BA 05 A6 |  if_e	mov	result1, #0
03338     F6 E0 81 51 |  if_ne	sub	arg02, local03
0333c     04 E0 45 50 |  if_ne	shr	arg02, #4
03340     F0 BA 01 56 |  if_ne	mov	result1, arg02
03344     DD 02 02 F6 | 	mov	local14, result1
03348     05 03 52 FC | 	wrword	local14, local18
0334c                 | LR__0207
0334c     FF 00 E2 FA | 	rdword	local13, local12
03350     FE 00 52 FC | 	wrword	local13, local11
03354     FF 00 58 FC | 	wrword	#0, local12
03358     F8 E8 01 F6 | 	mov	local01, local05
0335c                 | LR__0208
0335c                 | LR__0209
0335c     F4 DE 01 F6 | 	mov	arg01, local01
03360     EC FA BF FD | 	call	#__system___gc_nextBlockPtr
03364     DD 0C 0A F6 | 	mov	local19, result1 wz
03368     C4 00 90 AD |  if_e	jmp	#LR__0211
0336c     F5 0C 5A F2 | 	cmps	local19, local02 wcz
03370     BC 00 90 3D |  if_ae	jmp	#LR__0211
03374     06 DF 01 F6 | 	mov	arg01, local19
03378     00 F6 05 F6 | 	mov	local08, #0
0337c     02 DE 05 F1 | 	add	arg01, #2
03380     EF F8 E1 FA | 	rdword	local09, arg01
03384     36 00 00 FF 
03388     8F F8 0D F2 | 	cmp	local09, ##27791 wz
0338c     01 F6 65 A6 |  if_e	neg	local08, #1
03390     FB BA 09 F6 | 	mov	result1, local08 wz
03394     98 00 90 AD |  if_e	jmp	#LR__0211
03398     F4 F0 01 F6 | 	mov	local05, local01
0339c     06 E9 01 F6 | 	mov	local01, local19
033a0     F8 0E 02 F6 | 	mov	local20, local05
033a4     07 11 E2 FA | 	rdword	local21, local20
033a8     F4 12 02 F6 | 	mov	local22, local01
033ac     09 FB E1 FA | 	rdword	local10, local22
033b0     FD 10 02 F1 | 	add	local21, local10
033b4     07 11 52 FC | 	wrword	local21, local20
033b8     F4 14 02 F6 | 	mov	local23, local01
033bc     06 14 06 F1 | 	add	local23, #6
033c0     F8 16 02 F6 | 	mov	local24, local05
033c4     0A 01 E2 FA | 	rdword	local13, local23
033c8     06 16 06 F1 | 	add	local24, #6
033cc     0B 01 52 FC | 	wrword	local13, local24
033d0     F4 18 02 F6 | 	mov	local25, local01
033d4     02 18 06 F1 | 	add	local25, #2
033d8     0C 55 59 FC | 	wrword	#170, local25
033dc     0A 01 58 FC | 	wrword	#0, local23
033e0     F4 00 02 F6 | 	mov	local13, local01
033e4     00 DF 01 F6 | 	mov	arg01, local13
033e8     64 FA BF FD | 	call	#__system___gc_nextBlockPtr
033ec     DD FA 01 F6 | 	mov	local10, result1
033f0     FD F2 09 F6 | 	mov	local06, local10 wz
033f4     38 00 90 AD |  if_e	jmp	#LR__0210
033f8     F5 F2 59 F2 | 	cmps	local06, local02 wcz
033fc     30 00 90 3D |  if_ae	jmp	#LR__0210
03400     F9 1A 02 F6 | 	mov	local26, local06
03404     04 1A 06 F1 | 	add	local26, #4
03408     F6 00 02 F6 | 	mov	local13, local03
0340c     F8 FA 01 F6 | 	mov	local10, local05
03410     00 DF 01 F6 | 	mov	arg01, local13
03414     FD E0 09 F6 | 	mov	arg02, local10 wz
03418     00 BA 05 A6 |  if_e	mov	result1, #0
0341c     EF E0 81 51 |  if_ne	sub	arg02, arg01
03420     04 E0 45 50 |  if_ne	shr	arg02, #4
03424     F0 BA 01 56 |  if_ne	mov	result1, arg02
03428     DD 02 02 F6 | 	mov	local14, result1
0342c     0D 03 52 FC | 	wrword	local14, local26
03430                 | LR__0210
03430                 | LR__0211
03430     F9 BA 01 F6 | 	mov	result1, local06
03434     A4 F0 03 F6 | 	mov	ptra, fp
03438     B4 00 A0 FD | 	call	#popregs_
0343c                 | __system___gc_dofree_ret
0343c     2D 00 64 FD | 	ret
03440                 | 
03440                 | __system___gc_docollect
03440     0C 44 05 F6 | 	mov	COUNT_, #12
03444     A5 00 A0 FD | 	call	#pushregs_
03448     5C F9 BF FD | 	call	#__system___gc_ptrs
0344c     DE E8 01 F6 | 	mov	local01, result2
03450     DD EA 01 F6 | 	mov	local02, result1
03454     F5 DE 01 F6 | 	mov	arg01, local02
03458     F4 F9 BF FD | 	call	#__system___gc_nextBlockPtr
0345c     DD EC 09 F6 | 	mov	local03, result1 wz
03460     01 BA 61 FD | 	cogid	result1
03464     DD EE 01 F6 | 	mov	local04, result1
03468     2C 00 90 AD |  if_e	jmp	#LR__0213
0346c                 | LR__0212
0346c     F4 EC 59 F2 | 	cmps	local03, local01 wcz
03470     24 00 90 3D |  if_ae	jmp	#LR__0213
03474     F6 F0 01 F6 | 	mov	local05, local03
03478     02 F0 05 F1 | 	add	local05, #2
0347c     F8 F2 E1 FA | 	rdword	local06, local05
03480     20 F2 25 F5 | 	andn	local06, #32
03484     F8 F2 51 FC | 	wrword	local06, local05
03488     F6 DE 01 F6 | 	mov	arg01, local03
0348c     C0 F9 BF FD | 	call	#__system___gc_nextBlockPtr
03490     DD EC 09 F6 | 	mov	local03, result1 wz
03494     D4 FF 9F 5D |  if_ne	jmp	#LR__0212
03498                 | LR__0213
03498     00 F4 05 F6 | 	mov	local07, #0
0349c     00 DE 05 F6 | 	mov	arg01, #0
034a0     A0 F7 BF FD | 	call	#__system____topofstack
034a4     DD F6 01 F6 | 	mov	local08, result1
034a8     FA DE 01 F6 | 	mov	arg01, local07
034ac     FB E0 01 F6 | 	mov	arg02, local08
034b0     A0 00 B0 FD | 	call	#__system___gc_markhub
034b4     2C 01 B0 FD | 	call	#__system___gc_markcog
034b8     F5 DE 01 F6 | 	mov	arg01, local02
034bc     90 F9 BF FD | 	call	#__system___gc_nextBlockPtr
034c0     DD F8 09 F6 | 	mov	local09, result1 wz
034c4     10 00 90 5D |  if_ne	jmp	#LR__0214
034c8     1B 00 00 FF 
034cc     89 DE 05 F6 | 	mov	arg01, ##@LR__0227
034d0     94 FB BF FD | 	call	#__system___gc_errmsg
034d4     70 00 90 FD | 	jmp	#LR__0220
034d8                 | LR__0214
034d8                 | LR__0215
034d8     FC EC 01 F6 | 	mov	local03, local09
034dc     F6 DE 01 F6 | 	mov	arg01, local03
034e0     6C F9 BF FD | 	call	#__system___gc_nextBlockPtr
034e4     DD F8 01 F6 | 	mov	local09, result1
034e8     F6 FA 01 F6 | 	mov	local10, local03
034ec     02 FA 05 F1 | 	add	local10, #2
034f0     FD FC E1 FA | 	rdword	local11, local10
034f4     20 FC CD F7 | 	test	local11, #32 wz
034f8     3C 00 90 5D |  if_ne	jmp	#LR__0218
034fc     FE FE 01 F6 | 	mov	local12, local11
03500     10 FE 0D F5 | 	and	local12, #16 wz
03504     30 00 90 5D |  if_ne	jmp	#LR__0218
03508     FE F4 01 F6 | 	mov	local07, local11
0350c     0F F4 05 F5 | 	and	local07, #15
03510     FA FC 01 F6 | 	mov	local11, local07
03514     F7 FC 09 F2 | 	cmp	local11, local04 wz
03518     08 00 90 AD |  if_e	jmp	#LR__0216
0351c     0E FC 0D F2 | 	cmp	local11, #14 wz
03520     14 00 90 5D |  if_ne	jmp	#LR__0217
03524                 | LR__0216
03524     F6 F4 01 F6 | 	mov	local07, local03
03528     FA DE 01 F6 | 	mov	arg01, local07
0352c     E4 FC BF FD | 	call	#__system___gc_dofree
03530     DD FE 01 F6 | 	mov	local12, result1
03534     FF F8 01 F6 | 	mov	local09, local12
03538                 | LR__0217
03538                 | LR__0218
03538     00 F8 0D F2 | 	cmp	local09, #0 wz
0353c     08 00 90 AD |  if_e	jmp	#LR__0219
03540     F4 F8 59 F2 | 	cmps	local09, local01 wcz
03544     90 FF 9F CD |  if_b	jmp	#LR__0215
03548                 | LR__0219
03548                 | LR__0220
03548     A4 F0 03 F6 | 	mov	ptra, fp
0354c     B4 00 A0 FD | 	call	#popregs_
03550                 | __system___gc_docollect_ret
03550     2D 00 64 FD | 	ret
03554                 | 
03554                 | __system___gc_markhub
03554     0A 44 05 F6 | 	mov	COUNT_, #10
03558     A5 00 A0 FD | 	call	#pushregs_
0355c     EF E8 01 F6 | 	mov	local01, arg01
03560     F0 EA 01 F6 | 	mov	local02, arg02
03564     40 F8 BF FD | 	call	#__system___gc_ptrs
03568     DD EC 01 F6 | 	mov	local03, result1
0356c     DE EE 01 F6 | 	mov	local04, result2
03570                 | LR__0221
03570     F5 E8 59 F2 | 	cmps	local01, local02 wcz
03574     60 00 90 3D |  if_ae	jmp	#LR__0222
03578     F4 E2 01 FB | 	rdlong	arg03, local01
0357c     04 E8 05 F1 | 	add	local01, #4
03580     F6 DE 01 F6 | 	mov	arg01, local03
03584     F7 E0 01 F6 | 	mov	arg02, local04
03588     04 FC BF FD | 	call	#__system___gc_isvalidptr
0358c     DD F0 09 F6 | 	mov	local05, result1 wz
03590     DC FF 9F AD |  if_e	jmp	#LR__0221
03594     F8 DE 01 F6 | 	mov	arg01, local05
03598     00 F2 05 F6 | 	mov	local06, #0
0359c     02 DE 05 F1 | 	add	arg01, #2
035a0     EF F4 E1 FA | 	rdword	local07, arg01
035a4     36 00 00 FF 
035a8     8F F4 0D F2 | 	cmp	local07, ##27791 wz
035ac     01 F2 65 A6 |  if_e	neg	local06, #1
035b0     F9 BA 01 F6 | 	mov	result1, local06
035b4     DD F6 09 F6 | 	mov	local08, result1 wz
035b8     B4 FF 9F 5D |  if_ne	jmp	#LR__0221
035bc     F8 F8 01 F6 | 	mov	local09, local05
035c0     02 F8 05 F1 | 	add	local09, #2
035c4     FC FA E1 FA | 	rdword	local10, local09
035c8     0F FA 25 F5 | 	andn	local10, #15
035cc     2E FA 45 F5 | 	or	local10, #46
035d0     FC FA 51 FC | 	wrword	local10, local09
035d4     98 FF 9F FD | 	jmp	#LR__0221
035d8                 | LR__0222
035d8     A4 F0 03 F6 | 	mov	ptra, fp
035dc     B4 00 A0 FD | 	call	#popregs_
035e0                 | __system___gc_markhub_ret
035e0     2D 00 64 FD | 	ret
035e4                 | 
035e4                 | __system___gc_markcog
035e4     06 44 05 F6 | 	mov	COUNT_, #6
035e8     A5 00 A0 FD | 	call	#pushregs_
035ec     B8 F7 BF FD | 	call	#__system___gc_ptrs
035f0     DD E8 01 F6 | 	mov	local01, result1
035f4     DE EA 01 F6 | 	mov	local02, result2
035f8     00 EC 05 F6 | 	mov	local03, #0
035fc                 | LR__0223
035fc     F0 EF 05 F6 | 	mov	local04, #496
03600     F6 EE 81 F1 | 	sub	local04, local03
03604     F0 EF 05 F1 | 	add	local04, #496
03608                 | 	'.live	local04
03608     00 EE 95 F9 | 	alts	local04, #0
0360c     F7 F0 01 F6 | 	mov	local05, local04
03610     F5 E0 01 F6 | 	mov	arg02, local02
03614     F4 DE 01 F6 | 	mov	arg01, local01
03618     F8 E2 01 F6 | 	mov	arg03, local05
0361c     70 FB BF FD | 	call	#__system___gc_isvalidptr
03620     DD F0 09 F6 | 	mov	local05, result1 wz
03624     10 00 90 AD |  if_e	jmp	#LR__0224
03628     02 F0 05 F1 | 	add	local05, #2
0362c     F8 F2 E1 FA | 	rdword	local06, local05
03630     20 F2 45 F5 | 	or	local06, #32
03634     F8 F2 51 FC | 	wrword	local06, local05
03638                 | LR__0224
03638     01 EC 05 F1 | 	add	local03, #1
0363c     F0 ED 5D F2 | 	cmps	local03, #496 wcz
03640     B8 FF 9F CD |  if_b	jmp	#LR__0223
03644     A4 F0 03 F6 | 	mov	ptra, fp
03648     B4 00 A0 FD | 	call	#popregs_
0364c                 | __system___gc_markcog_ret
0364c     2D 00 64 FD | 	ret
03650                 | 
03650                 | LR__0225
03650     20 21 21 21 
03654     20 63 6F 72 
03658     72 75 70 74 
0365c     65 64 20 68 
03660     65 61 70 3F 
03664     3F 3F 20 21 
03668     21 21 20    | 	byte	" !!! corrupted heap??? !!! "
0366b     00          | 	byte	0
0366c                 | LR__0226
0366c     20 21 21 21 
03670     20 6F 75 74 
03674     20 6F 66 20 
03678     68 65 61 70 
0367c     20 6D 65 6D 
03680     6F 72 79 20 
03684     21 21 21 20 | 	byte	" !!! out of heap memory !!! "
03688     00          | 	byte	0
03689                 | LR__0227
03689     20 21 21 21 
0368d     20 63 6F 72 
03691     72 75 70 74 
03695     65 64 20 68 
03699     65 61 70 20 
0369d     21 21 21 20 | 	byte	" !!! corrupted heap !!! "
036a1     00          | 	byte	0
036a2                 | LR__0228
036a2     20          | 	byte	" "
036a3     00          | 	byte	0
036a4                 | LR__0229
036a4     20          | 	byte	" "
036a5     00          | 	byte	0
036a6                 | LR__0230
036a6     20          | 	byte	" "
036a7     00          | 	byte	0
036a8                 | LR__0231
036a8     20          | 	byte	" "
036a9     00          | 	byte	0
036aa                 | LR__0232
036aa     20          | 	byte	" "
036ab     00          | 	byte	0
036ac                 | LR__0233
036ac     20          | 	byte	" "
036ad     00          | 	byte	0
036ae                 | LR__0234
036ae     20          | 	byte	" "
036af     00          | 	byte	0
036b0                 | LR__0235
036b0     20          | 	byte	" "
036b1     00          | 	byte	0
036b2                 | LR__0236
036b2     20          | 	byte	" "
036b3     00          | 	byte	0
036b4                 | LR__0237
036b4     20          | 	byte	" "
036b5     00          | 	byte	0
036b6                 | LR__0238
036b6     20          | 	byte	" "
036b7     00          | 	byte	0
036b8                 | 	alignl
036b8                 | _hng025_dat_
036b8     00 00 00 00 
036bc     00 00 00 00 
036c0     00 00 00 00 
036c4     00 00 00 00 
036c8     00 00 00    | vga_font       file "vgafont.def"
036cb     7E 81 A5 81 
036cf     81 BD 99 81 
036d3     81 7E 00 00 
036d7     00 00 00 00 | 	byte	$7e, $81, $a5, $81, $81, $bd, $99, $81, $81, $7e, $00, $00, $00, $00, $00, $00
036db     7E FF DB FF 
036df     FF C3 E7 FF 
036e3     FF 7E 00 00 
036e7     00 00 00 00 | 	byte	$7e, $ff, $db, $ff, $ff, $c3, $e7, $ff, $ff, $7e, $00, $00, $00, $00, $00, $00
036eb     00 36 7F 7F 
036ef     7F 7F 3E 1C 
036f3     08 00 00 00 
036f7     00 00 00 00 | 	byte	$00, $36, $7f, $7f, $7f, $7f, $3e, $1c, $08, $00, $00, $00, $00, $00, $00, $00
036fb     00 08 1C 3E 
036ff     7F 3E 1C 08 
03703     00 00 00 00 
03707     00 00 00 00 | 	byte	$00, $08, $1c, $3e, $7f, $3e, $1c, $08, $00, $00, $00, $00, $00, $00, $00, $00
0370b     18 3C 3C E7 
0370f     E7 E7 18 18 
03713     3C 00 00 00 
03717     00 00 00 00 | 	byte	$18, $3c, $3c, $e7, $e7, $e7, $18, $18, $3c, $00, $00, $00, $00, $00, $00, $00
0371b     18 3C 7E FF 
0371f     FF 7E 18 18 
03723     3C 00 00 00 
03727     00 00 00 00 | 	byte	$18, $3c, $7e, $ff, $ff, $7e, $18, $18, $3c, $00, $00, $00, $00, $00, $00, $00
0372b     00 00 00 18 
0372f     3C 3C 18 00 
03733     00 00 00 00 
03737     00 FF FF FF | 	byte	$00, $00, $00, $18, $3c, $3c, $18, $00, $00, $00, $00, $00, $00, $ff, $ff, $ff
0373b     FF FF FF E7 
0373f     C3 C3 E7 FF 
03743     FF FF FF FF 
03747     FF 00 00 00 | 	byte	$ff, $ff, $ff, $e7, $c3, $c3, $e7, $ff, $ff, $ff, $ff, $ff, $ff, $00, $00, $00
0374b     00 00 3C 66 
0374f     42 42 66 3C 
03753     00 00 00 00 
03757     00 FF FF FF | 	byte	$00, $00, $3c, $66, $42, $42, $66, $3c, $00, $00, $00, $00, $00, $ff, $ff, $ff
0375b     FF FF C3 99 
0375f     BD BD 99 C3 
03763     FF FF FF FF 
03767     FF 00 00 00 | 	byte	$ff, $ff, $c3, $99, $bd, $bd, $99, $c3, $ff, $ff, $ff, $ff, $ff, $00, $00, $00
0376b     78 70 58 4C 
0376f     1E 33 33 33 
03773     33 1E 00 00 
03777     00 00 00 00 | 	byte	$78, $70, $58, $4c, $1e, $33, $33, $33, $33, $1e, $00, $00, $00, $00, $00, $00
0377b     3C 66 66 66 
0377f     66 3C 18 7E 
03783     18 18 00 00 
03787     00 00 00 00 | 	byte	$3c, $66, $66, $66, $66, $3c, $18, $7e, $18, $18, $00, $00, $00, $00, $00, $00
0378b     FC CC FC 0C 
0378f     0C 0C 0C 0E 
03793     0F 07 00 00 
03797     00 00 00 00 | 	byte	$fc, $cc, $fc, $0c, $0c, $0c, $0c, $0e, $0f, $07, $00, $00, $00, $00, $00, $00
0379b     FE C6 FE C6 
0379f     C6 C6 C6 E6 
037a3     E7 67 03 00 
037a7     00 00 00 00 | 	byte	$fe, $c6, $fe, $c6, $c6, $c6, $c6, $e6, $e7, $67, $03, $00, $00, $00, $00, $00
037ab     18 18 DB 3C 
037af     E7 3C DB 18 
037b3     18 00 00 00 
037b7     00 00 00 01 | 	byte	$18, $18, $db, $3c, $e7, $3c, $db, $18, $18, $00, $00, $00, $00, $00, $00, $01
037bb     03 07 0F 1F 
037bf     7F 1F 0F 07 
037c3     03 01 00 00 
037c7     00 00 00 40 | 	byte	$03, $07, $0f, $1f, $7f, $1f, $0f, $07, $03, $01, $00, $00, $00, $00, $00, $40
037cb     60 70 78 7C 
037cf     7F 7C 78 70 
037d3     60 40 00 00 
037d7     00 00 00 00 | 	byte	$60, $70, $78, $7c, $7f, $7c, $78, $70, $60, $40, $00, $00, $00, $00, $00, $00
037db     18 3C 7E 18 
037df     18 18 7E 3C 
037e3     18 00 00 00 
037e7     00 00 00 00 | 	byte	$18, $3c, $7e, $18, $18, $18, $7e, $3c, $18, $00, $00, $00, $00, $00, $00, $00
037eb     66 66 66 66 
037ef     66 66 66    | 	byte	$66[7]
037f2     00 66 66 00 
037f6     00 00 00 00 
037fa     00 FE DB DB 
037fe     DB DE D8 D8 | 	byte	$00, $66, $66, $00, $00, $00, $00, $00, $00, $fe, $db, $db, $db, $de, $d8, $d8
03802     D8 D8 D8 00 
03806     00 00 00 3E 
0380a     63 06 1C 36 
0380e     63 63 36 1C | 	byte	$d8, $d8, $d8, $00, $00, $00, $00, $3e, $63, $06, $1c, $36, $63, $63, $36, $1c
03812     30 63 3E 00 
03816     00 00 00 00 
0381a     00 00 00 00 
0381e     00 00 00 7F | 	byte	$30, $63, $3e, $00, $00, $00, $00, $00, $00, $00, $00, $00, $00, $00, $00, $7f
03822     7F 7F 7F 00 
03826     00 00 00 00 
0382a     00 18 3C 7E 
0382e     18 18 18 7E | 	byte	$7f, $7f, $7f, $00, $00, $00, $00, $00, $00, $18, $3c, $7e, $18, $18, $18, $7e
03832     3C 18 7E 00 
03836     00 00 00 00 
0383a     00 18 3C 7E 
0383e     18 18 18 18 | 	byte	$3c, $18, $7e, $00, $00, $00, $00, $00, $00, $18, $3c, $7e, $18, $18, $18, $18
03842     18 18 18 00 
03846     00 00 00 00 
0384a     00 18 18 18 
0384e     18 18 18 18 | 	byte	$18, $18, $18, $00, $00, $00, $00, $00, $00, $18, $18, $18, $18, $18, $18, $18
03852     7E 3C 18 00 
03856     00 00 00 00 
0385a     00 00 00 18 
0385e     30 7F 30 18 | 	byte	$7e, $3c, $18, $00, $00, $00, $00, $00, $00, $00, $00, $18, $30, $7f, $30, $18
03862     00 00 00 00 
03866     00 00 00 00 
0386a     00 00 00    | 	byte	$00[11]
0386d     0C 06 7F 06 
03871     0C 00 00 00 
03875     00 00 00 00 
03879     00 00 00 00 | 	byte	$0c, $06, $7f, $06, $0c, $00, $00, $00, $00, $00, $00, $00, $00, $00, $00, $00
0387d     00 03 03 03 
03881     7F 00 00 00 
03885     00 00 00 00 
03889     00 00 00 00 | 	byte	$00, $03, $03, $03, $7f, $00, $00, $00, $00, $00, $00, $00, $00, $00, $00, $00
0388d     14 36 7F 36 
03891     14 00 00 00 
03895     00 00 00 00 
03899     00 00 00 08 | 	byte	$14, $36, $7f, $36, $14, $00, $00, $00, $00, $00, $00, $00, $00, $00, $00, $08
0389d     1C 1C 3E 3E 
038a1     7F 7F 00 00 
038a5     00 00 00 00 
038a9     00 00 00 7F | 	byte	$1c, $1c, $3e, $3e, $7f, $7f, $00, $00, $00, $00, $00, $00, $00, $00, $00, $7f
038ad     7F 3E 3E 1C 
038b1     1C 08 00 00 
038b5     00 00 00 00 
038b9     00 00 00 00 | 	byte	$7f, $3e, $3e, $1c, $1c, $08, $00, $00, $00, $00, $00, $00, $00, $00, $00, $00
038bd     00 00 00 00 
038c1     00 00 00 00 
038c5     00 00 00 00 
038c9     00 00       | 	byte	$00[14]
038cb     18 3C 3C 3C 
038cf     18 18 18 00 
038d3     18 18 00 00 
038d7     00 00 66 66 | 	byte	$18, $3c, $3c, $3c, $18, $18, $18, $00, $18, $18, $00, $00, $00, $00, $66, $66
038db     66 24 00 00 
038df     00 00 00 00 
038e3     00 00 00 00 
038e7     00 00 00 00 | 	byte	$66, $24, $00, $00, $00, $00, $00, $00, $00, $00, $00, $00, $00, $00, $00, $00
038eb     00 36 36 7F 
038ef     36 36 36 7F 
038f3     36 36 00 00 
038f7     00 00 18 18 | 	byte	$00, $36, $36, $7f, $36, $36, $36, $7f, $36, $36, $00, $00, $00, $00, $18, $18
038fb     3E 63 43 03 
038ff     3E 60 60 61 
03903     63 3E 18 18 
03907     00 00 00 00 | 	byte	$3e, $63, $43, $03, $3e, $60, $60, $61, $63, $3e, $18, $18, $00, $00, $00, $00
0390b     00 00 43 63 
0390f     30 18 0C 06 
03913     63 61 00 00 
03917     00 00 00 00 | 	byte	$00, $00, $43, $63, $30, $18, $0c, $06, $63, $61, $00, $00, $00, $00, $00, $00
0391b     1C 36 36 1C 
0391f     6E 3B 33 33 
03923     33 6E 00 00 
03927     00 00 00 00 | 	byte	$1c, $36, $36, $1c, $6e, $3b, $33, $33, $33, $6e, $00, $00, $00, $00, $00, $00
0392b     0C 0C 0C 06 
0392f     00 00 00 00 
03933     00 00 00 00 
03937     00 00 00 00 | 	byte	$0c, $0c, $0c, $06, $00, $00, $00, $00, $00, $00, $00, $00, $00, $00, $00, $00
0393b     30 18 0C 0C 
0393f     0C 0C 0C 0C 
03943     18 30 00 00 
03947     00 00 00 00 | 	byte	$30, $18, $0c, $0c, $0c, $0c, $0c, $0c, $18, $30, $00, $00, $00, $00, $00, $00
0394b     0C 18 30 30 
0394f     30 30 30 30 
03953     18 0C 00 00 
03957     00 00 00 00 | 	byte	$0c, $18, $30, $30, $30, $30, $30, $30, $18, $0c, $00, $00, $00, $00, $00, $00
0395b     00 00 00 66 
0395f     3C FF 3C 66 
03963     00 00 00 00 
03967     00 00 00 00 | 	byte	$00, $00, $00, $66, $3c, $ff, $3c, $66, $00, $00, $00, $00, $00, $00, $00, $00
0396b     00 00 00 18 
0396f     18 7E 18 18 
03973     00 00 00 00 
03977     00 00 00 00 | 	byte	$00, $00, $00, $18, $18, $7e, $18, $18, $00, $00, $00, $00, $00, $00, $00, $00
0397b     00 00 00 00 
0397f     00 00 00 00 | 	byte	$00[8]
03983     18 18 18 0C 
03987     00 00 00 00 
0398b     00 00 00 00 
0398f     00 7F 00 00 | 	byte	$18, $18, $18, $0c, $00, $00, $00, $00, $00, $00, $00, $00, $00, $7f, $00, $00
03993     00 00 00 00 
03997     00 00 00 00 
0399b     00 00 00 00 
0399f     00 00 00 00 | 	byte	$00[16]
039a3     18 18 00 00 
039a7     00 00 00 00 
039ab     00 00 40 60 
039af     30 18 0C 06 | 	byte	$18, $18, $00, $00, $00, $00, $00, $00, $00, $00, $40, $60, $30, $18, $0c, $06
039b3     03 01 00 00 
039b7     00 00 00 00 
039bb     1C 36 63 63 
039bf     6B 6B 63 63 | 	byte	$03, $01, $00, $00, $00, $00, $00, $00, $1c, $36, $63, $63, $6b, $6b, $63, $63
039c3     36 1C 00 00 
039c7     00 00 00 00 
039cb     18 1C 1E 18 
039cf     18 18 18 18 | 	byte	$36, $1c, $00, $00, $00, $00, $00, $00, $18, $1c, $1e, $18, $18, $18, $18, $18
039d3     18 7E 00 00 
039d7     00 00 00 00 
039db     3E 63 60 30 
039df     18 0C 06 03 | 	byte	$18, $7e, $00, $00, $00, $00, $00, $00, $3e, $63, $60, $30, $18, $0c, $06, $03
039e3     63 7F 00 00 
039e7     00 00 00 00 
039eb     3E 63 60 60 
039ef     3C 60 60 60 | 	byte	$63, $7f, $00, $00, $00, $00, $00, $00, $3e, $63, $60, $60, $3c, $60, $60, $60
039f3     63 3E 00 00 
039f7     00 00 00 00 
039fb     30 38 3C 36 
039ff     33 7F 30 30 | 	byte	$63, $3e, $00, $00, $00, $00, $00, $00, $30, $38, $3c, $36, $33, $7f, $30, $30
03a03     30 78 00 00 
03a07     00 00 00 00 
03a0b     7F 03 03 03 
03a0f     3F 60 60 60 | 	byte	$30, $78, $00, $00, $00, $00, $00, $00, $7f, $03, $03, $03, $3f, $60, $60, $60
03a13     63 3E 00 00 
03a17     00 00 00 00 
03a1b     1C 06 03 03 
03a1f     3F 63 63 63 | 	byte	$63, $3e, $00, $00, $00, $00, $00, $00, $1c, $06, $03, $03, $3f, $63, $63, $63
03a23     63 3E 00 00 
03a27     00 00 00 00 
03a2b     7F 63 60 60 
03a2f     30 18 0C 0C | 	byte	$63, $3e, $00, $00, $00, $00, $00, $00, $7f, $63, $60, $60, $30, $18, $0c, $0c
03a33     0C 0C 00 00 
03a37     00 00 00 00 
03a3b     3E 63 63 63 
03a3f     3E 63 63 63 | 	byte	$0c, $0c, $00, $00, $00, $00, $00, $00, $3e, $63, $63, $63, $3e, $63, $63, $63
03a43     63 3E 00 00 
03a47     00 00 00 00 
03a4b     3E 63 63 63 
03a4f     7E 60 60 60 | 	byte	$63, $3e, $00, $00, $00, $00, $00, $00, $3e, $63, $63, $63, $7e, $60, $60, $60
03a53     30 1E 00 00 
03a57     00 00 00 00 
03a5b     00 00 00 18 
03a5f     18 00 00 00 | 	byte	$30, $1e, $00, $00, $00, $00, $00, $00, $00, $00, $00, $18, $18, $00, $00, $00
03a63     18 18 00 00 
03a67     00 00 00 00 
03a6b     00 00 00 18 
03a6f     18 00 00 00 | 	byte	$18, $18, $00, $00, $00, $00, $00, $00, $00, $00, $00, $18, $18, $00, $00, $00
03a73     18 18 0C 00 
03a77     00 00 00 00 
03a7b     00 60 30 18 
03a7f     0C 06 0C 18 | 	byte	$18, $18, $0c, $00, $00, $00, $00, $00, $00, $60, $30, $18, $0c, $06, $0c, $18
03a83     30 60 00 00 
03a87     00 00 00 00 
03a8b     00 00 00 7E 
03a8f     00 00 7E 00 | 	byte	$30, $60, $00, $00, $00, $00, $00, $00, $00, $00, $00, $7e, $00, $00, $7e, $00
03a93     00 00 00 00 
03a97     00 00 00 00 
03a9b     00          | 	byte	$00[9]
03a9c     06 0C 18 30 
03aa0     60 30 18 0C 
03aa4     06 00 00 00 
03aa8     00 00 00 3E | 	byte	$06, $0c, $18, $30, $60, $30, $18, $0c, $06, $00, $00, $00, $00, $00, $00, $3e
03aac     63 63 30 18 
03ab0     18 18 00 18 
03ab4     18 00 00 00 
03ab8     00 00 00 00 | 	byte	$63, $63, $30, $18, $18, $18, $00, $18, $18, $00, $00, $00, $00, $00, $00, $00
03abc     3E 63 63 7B 
03ac0     7B 7B 3B 03 
03ac4     3E 00 00 00 
03ac8     00 00 00 08 | 	byte	$3e, $63, $63, $7b, $7b, $7b, $3b, $03, $3e, $00, $00, $00, $00, $00, $00, $08
03acc     1C 36 63 63 
03ad0     7F 63 63 63 
03ad4     63 00 00 00 
03ad8     00 00 00 3F | 	byte	$1c, $36, $63, $63, $7f, $63, $63, $63, $63, $00, $00, $00, $00, $00, $00, $3f
03adc     66 66 66 3E 
03ae0     66 66 66 66 
03ae4     3F 00 00 00 
03ae8     00 00 00 3C | 	byte	$66, $66, $66, $3e, $66, $66, $66, $66, $3f, $00, $00, $00, $00, $00, $00, $3c
03aec     66 43 03 03 
03af0     03 03 43 66 
03af4     3C 00 00 00 
03af8     00 00 00 1F | 	byte	$66, $43, $03, $03, $03, $03, $43, $66, $3c, $00, $00, $00, $00, $00, $00, $1f
03afc     36 66 66 66 
03b00     66 66 66 36 
03b04     1F 00 00 00 
03b08     00 00 00 7F | 	byte	$36, $66, $66, $66, $66, $66, $66, $36, $1f, $00, $00, $00, $00, $00, $00, $7f
03b0c     66 46 16 1E 
03b10     16 06 46 66 
03b14     7F 00 00 00 
03b18     00 00 00 7F | 	byte	$66, $46, $16, $1e, $16, $06, $46, $66, $7f, $00, $00, $00, $00, $00, $00, $7f
03b1c     66 46 16 1E 
03b20     16 06 06 06 
03b24     0F 00 00 00 
03b28     00 00 00 3C | 	byte	$66, $46, $16, $1e, $16, $06, $06, $06, $0f, $00, $00, $00, $00, $00, $00, $3c
03b2c     66 43 03 03 
03b30     7B 63 63 66 
03b34     5C 00 00 00 
03b38     00 00 00 63 | 	byte	$66, $43, $03, $03, $7b, $63, $63, $66, $5c, $00, $00, $00, $00, $00, $00, $63
03b3c     63 63 63 7F 
03b40     63 63 63 63 
03b44     63 00 00 00 
03b48     00 00 00 3C | 	byte	$63, $63, $63, $7f, $63, $63, $63, $63, $63, $00, $00, $00, $00, $00, $00, $3c
03b4c     18 18 18 18 
03b50     18 18 18 18 | 	byte	$18[8]
03b54     3C 00 00 00 
03b58     00 00 00 78 
03b5c     30 30 30 30 
03b60     30 33 33 33 | 	byte	$3c, $00, $00, $00, $00, $00, $00, $78, $30, $30, $30, $30, $30, $33, $33, $33
03b64     1E 00 00 00 
03b68     00 00 00 67 
03b6c     66 66 36 1E 
03b70     1E 36 66 66 | 	byte	$1e, $00, $00, $00, $00, $00, $00, $67, $66, $66, $36, $1e, $1e, $36, $66, $66
03b74     67 00 00 00 
03b78     00 00 00 0F 
03b7c     06 06 06 06 
03b80     06 06 46 66 | 	byte	$67, $00, $00, $00, $00, $00, $00, $0f, $06, $06, $06, $06, $06, $06, $46, $66
03b84     7F 00 00 00 
03b88     00 00 00 63 
03b8c     77 7F 7F 6B 
03b90     63 63 63 63 | 	byte	$7f, $00, $00, $00, $00, $00, $00, $63, $77, $7f, $7f, $6b, $63, $63, $63, $63
03b94     63 00 00 00 
03b98     00 00 00 63 
03b9c     67 6F 7F 7B 
03ba0     73 63 63 63 | 	byte	$63, $00, $00, $00, $00, $00, $00, $63, $67, $6f, $7f, $7b, $73, $63, $63, $63
03ba4     63 00 00 00 
03ba8     00 00 00 3E 
03bac     63 63 63 63 
03bb0     63 63 63 63 | 	byte	$63, $00, $00, $00, $00, $00, $00, $3e, $63, $63, $63, $63, $63, $63, $63, $63
03bb4     3E 00 00 00 
03bb8     00 00 00 3F 
03bbc     66 66 66 3E 
03bc0     06 06 06 06 | 	byte	$3e, $00, $00, $00, $00, $00, $00, $3f, $66, $66, $66, $3e, $06, $06, $06, $06
03bc4     0F 00 00 00 
03bc8     00 00 00 3E 
03bcc     63 63 63 63 
03bd0     63 63 6B 7B | 	byte	$0f, $00, $00, $00, $00, $00, $00, $3e, $63, $63, $63, $63, $63, $63, $6b, $7b
03bd4     3E 30 70 00 
03bd8     00 00 00 3F 
03bdc     66 66 66 3E 
03be0     36 66 66 66 | 	byte	$3e, $30, $70, $00, $00, $00, $00, $3f, $66, $66, $66, $3e, $36, $66, $66, $66
03be4     67 00 00 00 
03be8     00 00 00 3E 
03bec     63 63 06 1C 
03bf0     30 60 63 63 | 	byte	$67, $00, $00, $00, $00, $00, $00, $3e, $63, $63, $06, $1c, $30, $60, $63, $63
03bf4     3E 00 00 00 
03bf8     00 00 00 7E 
03bfc     7E 5A 18 18 
03c00     18 18 18 18 | 	byte	$3e, $00, $00, $00, $00, $00, $00, $7e, $7e, $5a, $18, $18, $18, $18, $18, $18
03c04     3C 00 00 00 
03c08     00 00 00 63 
03c0c     63 63 63 63 
03c10     63 63 63 63 | 	byte	$3c, $00, $00, $00, $00, $00, $00, $63, $63, $63, $63, $63, $63, $63, $63, $63
03c14     3E 00 00 00 
03c18     00 00 00 63 
03c1c     63 63 63 63 
03c20     63 63 36 1C | 	byte	$3e, $00, $00, $00, $00, $00, $00, $63, $63, $63, $63, $63, $63, $63, $36, $1c
03c24     08 00 00 00 
03c28     00 00 00 63 
03c2c     63 63 63 6B 
03c30     6B 6B 7F 77 | 	byte	$08, $00, $00, $00, $00, $00, $00, $63, $63, $63, $63, $6b, $6b, $6b, $7f, $77
03c34     36 00 00 00 
03c38     00 00 00 63 
03c3c     63 36 3E 1C 
03c40     1C 3E 36 63 | 	byte	$36, $00, $00, $00, $00, $00, $00, $63, $63, $36, $3e, $1c, $1c, $3e, $36, $63
03c44     63 00 00 00 
03c48     00 00 00 66 
03c4c     66 66 66 3C 
03c50     18 18 18 18 | 	byte	$63, $00, $00, $00, $00, $00, $00, $66, $66, $66, $66, $3c, $18, $18, $18, $18
03c54     3C 00 00 00 
03c58     00 00 00 7F 
03c5c     63 61 30 18 
03c60     0C 06 43 63 | 	byte	$3c, $00, $00, $00, $00, $00, $00, $7f, $63, $61, $30, $18, $0c, $06, $43, $63
03c64     7F 00 00 00 
03c68     00 00 00 3C 
03c6c     0C 0C 0C 0C 
03c70     0C 0C 0C 0C | 	byte	$7f, $00, $00, $00, $00, $00, $00, $3c, $0c, $0c, $0c, $0c, $0c, $0c, $0c, $0c
03c74     3C 00 00 00 
03c78     00 00 00 00 
03c7c     01 03 07 0E 
03c80     1C 38 70 60 | 	byte	$3c, $00, $00, $00, $00, $00, $00, $00, $01, $03, $07, $0e, $1c, $38, $70, $60
03c84     40 00 00 00 
03c88     00 00 00 3C 
03c8c     30 30 30 30 
03c90     30 30 30 30 | 	byte	$40, $00, $00, $00, $00, $00, $00, $3c, $30, $30, $30, $30, $30, $30, $30, $30
03c94     3C 00 00 00 
03c98     1C 36 00 00 
03c9c     00 00 00 00 
03ca0     00 00 00 00 | 	byte	$3c, $00, $00, $00, $1c, $36, $00, $00, $00, $00, $00, $00, $00, $00, $00, $00
03ca4     00 00 00 00 
03ca8     00 00 00 00 
03cac     00 00 00 00 
03cb0     00 00 00 00 
03cb4     00          | 	byte	$00[17]
03cb5     FF 00 00 0C 
03cb9     18 00 00 00 
03cbd     00 00 00 00 
03cc1     00 00 00 00 | 	byte	$ff, $00, $00, $0c, $18, $00, $00, $00, $00, $00, $00, $00, $00, $00, $00, $00
03cc5     00 00 00 00 
03cc9     00 00 00 00 
03ccd     00          | 	byte	$00[9]
03cce     1E 30 3E 33 
03cd2     33 33 6E 00 
03cd6     00 00 00 00 
03cda     00 07 06 06 | 	byte	$1e, $30, $3e, $33, $33, $33, $6e, $00, $00, $00, $00, $00, $00, $07, $06, $06
03cde     1E 36 66 66 
03ce2     66 66 3E 00 
03ce6     00 00 00 00 
03cea     00 00 00 00 | 	byte	$1e, $36, $66, $66, $66, $66, $3e, $00, $00, $00, $00, $00, $00, $00, $00, $00
03cee     3E 63 03 03 
03cf2     03 63 3E 00 
03cf6     00 00 00 00 
03cfa     00 38 30 30 | 	byte	$3e, $63, $03, $03, $03, $63, $3e, $00, $00, $00, $00, $00, $00, $38, $30, $30
03cfe     3C 36 33 33 
03d02     33 33 6E 00 
03d06     00 00 00 00 
03d0a     00 00 00 00 | 	byte	$3c, $36, $33, $33, $33, $33, $6e, $00, $00, $00, $00, $00, $00, $00, $00, $00
03d0e     3E 63 7F 03 
03d12     03 63 3E 00 
03d16     00 00 00 00 
03d1a     00 38 6C 4C | 	byte	$3e, $63, $7f, $03, $03, $63, $3e, $00, $00, $00, $00, $00, $00, $38, $6c, $4c
03d1e     0C 1E 0C 0C 
03d22     0C 0C 1E 00 
03d26     00 00 00 00 
03d2a     00 00 00 00 | 	byte	$0c, $1e, $0c, $0c, $0c, $0c, $1e, $00, $00, $00, $00, $00, $00, $00, $00, $00
03d2e     6E 33 33 33 
03d32     33 33 3E 30 
03d36     33 1E 00 00 
03d3a     00 07 06 06 | 	byte	$6e, $33, $33, $33, $33, $33, $3e, $30, $33, $1e, $00, $00, $00, $07, $06, $06
03d3e     36 6E 66 66 
03d42     66 66 67 00 
03d46     00 00 00 00 
03d4a     00 18 18 00 | 	byte	$36, $6e, $66, $66, $66, $66, $67, $00, $00, $00, $00, $00, $00, $18, $18, $00
03d4e     1C 18 18 18 
03d52     18 18 3C 00 
03d56     00 00 00 00 
03d5a     00 60 60 00 | 	byte	$1c, $18, $18, $18, $18, $18, $3c, $00, $00, $00, $00, $00, $00, $60, $60, $00
03d5e     70 60 60 60 
03d62     60 60 60 66 
03d66     66 3C 00 00 
03d6a     00 07 06 06 | 	byte	$70, $60, $60, $60, $60, $60, $60, $66, $66, $3c, $00, $00, $00, $07, $06, $06
03d6e     66 36 1E 1E 
03d72     36 66 67 00 
03d76     00 00 00 00 
03d7a     00 1C 18 18 | 	byte	$66, $36, $1e, $1e, $36, $66, $67, $00, $00, $00, $00, $00, $00, $1c, $18, $18
03d7e     18 18 18 18 
03d82     18 18       | 	byte	$18[6]
03d84     3C 00 00 00 
03d88     00 00 00 00 
03d8c     00 00 37 7F 
03d90     6B 6B 6B 6B | 	byte	$3c, $00, $00, $00, $00, $00, $00, $00, $00, $00, $37, $7f, $6b, $6b, $6b, $6b
03d94     63 00 00 00 
03d98     00 00 00 00 
03d9c     00 00 3B 66 
03da0     66 66 66 66 | 	byte	$63, $00, $00, $00, $00, $00, $00, $00, $00, $00, $3b, $66, $66, $66, $66, $66
03da4     66 00 00 00 
03da8     00 00 00 00 
03dac     00 00 3E 63 
03db0     63 63 63 63 | 	byte	$66, $00, $00, $00, $00, $00, $00, $00, $00, $00, $3e, $63, $63, $63, $63, $63
03db4     3E 00 00 00 
03db8     00 00 00 00 
03dbc     00 00 3B 66 
03dc0     66 66 66 66 | 	byte	$3e, $00, $00, $00, $00, $00, $00, $00, $00, $00, $3b, $66, $66, $66, $66, $66
03dc4     3E 06 06 0F 
03dc8     00 00 00 00 
03dcc     00 00 6E 33 
03dd0     33 33 33 33 | 	byte	$3e, $06, $06, $0f, $00, $00, $00, $00, $00, $00, $6e, $33, $33, $33, $33, $33
03dd4     3E 30 30 78 
03dd8     00 00 00 00 
03ddc     00 00 3B 6E 
03de0     66 06 06 06 | 	byte	$3e, $30, $30, $78, $00, $00, $00, $00, $00, $00, $3b, $6e, $66, $06, $06, $06
03de4     0F 00 00 00 
03de8     00 00 00 00 
03dec     00 00 3E 63 
03df0     06 1C 30 63 | 	byte	$0f, $00, $00, $00, $00, $00, $00, $00, $00, $00, $3e, $63, $06, $1c, $30, $63
03df4     3E 00 00 00 
03df8     00 00 00 08 
03dfc     0C 0C 3F 0C 
03e00     0C 0C 0C 6C | 	byte	$3e, $00, $00, $00, $00, $00, $00, $08, $0c, $0c, $3f, $0c, $0c, $0c, $0c, $6c
03e04     38 00 00 00 
03e08     00 00 00 00 
03e0c     00 00 33 33 
03e10     33 33 33 33 | 	byte	$38, $00, $00, $00, $00, $00, $00, $00, $00, $00, $33, $33, $33, $33, $33, $33
03e14     6E 00 00 00 
03e18     00 00 00 00 
03e1c     00 00 63 63 
03e20     63 63 63 36 | 	byte	$6e, $00, $00, $00, $00, $00, $00, $00, $00, $00, $63, $63, $63, $63, $63, $36
03e24     1C 00 00 00 
03e28     00 00 00 00 
03e2c     00 00 63 63 
03e30     6B 6B 6B 7F | 	byte	$1c, $00, $00, $00, $00, $00, $00, $00, $00, $00, $63, $63, $6b, $6b, $6b, $7f
03e34     36 00 00 00 
03e38     00 00 00 00 
03e3c     00 00 63 36 
03e40     1C 1C 1C 36 | 	byte	$36, $00, $00, $00, $00, $00, $00, $00, $00, $00, $63, $36, $1c, $1c, $1c, $36
03e44     63 00 00 00 
03e48     00 00 00 00 
03e4c     00 00 63 63 
03e50     63 63 63 63 | 	byte	$63, $00, $00, $00, $00, $00, $00, $00, $00, $00, $63, $63, $63, $63, $63, $63
03e54     7E 60 30 1F 
03e58     00 00 00 00 
03e5c     00 00 7F 33 
03e60     18 0C 06 63 | 	byte	$7e, $60, $30, $1f, $00, $00, $00, $00, $00, $00, $7f, $33, $18, $0c, $06, $63
03e64     7F 00 00 00 
03e68     00 00 00 70 
03e6c     18 18 18 0E 
03e70     18 18 18 18 | 	byte	$7f, $00, $00, $00, $00, $00, $00, $70, $18, $18, $18, $0e, $18, $18, $18, $18
03e74     70 00 00 00 
03e78     00 00 00 18 
03e7c     18 18 18 18 
03e80     18 18 18 18 | 	byte	$70, $00, $00, $00, $00, $00, $00, $18, $18, $18, $18, $18, $18, $18, $18, $18
03e84     18 00 00 00 
03e88     00 00 00 0E 
03e8c     18 18 18 70 
03e90     18 18 18 18 | 	byte	$18, $00, $00, $00, $00, $00, $00, $0e, $18, $18, $18, $70, $18, $18, $18, $18
03e94     0E 00 00 00 
03e98     6E 3B 00 00 
03e9c     00 00 00 00 
03ea0     00 00 00 00 | 	byte	$0e, $00, $00, $00, $6e, $3b, $00, $00, $00, $00, $00, $00, $00, $00, $00, $00
03ea4     00 00 00 00 
03ea8     00 00 00 00 
03eac     00 00       | 	byte	$00[10]
03eae     08 1C 36 63 
03eb2     63 63 7F 00 
03eb6     00 00 00 00 
03eba     00 3C 66 43 | 	byte	$08, $1c, $36, $63, $63, $63, $7f, $00, $00, $00, $00, $00, $00, $3c, $66, $43
03ebe     03 03 03 03 
03ec2     43 66 3C 18 
03ec6     30 1E 00 00 
03eca     00 00 33 00 | 	byte	$03, $03, $03, $03, $43, $66, $3c, $18, $30, $1e, $00, $00, $00, $00, $33, $00
03ece     33 33 33 33 
03ed2     33 33       | 	byte	$33[6]
03ed4     6E 00 00 00 
03ed8     00 00 60 30 
03edc     18 00 3E 63 
03ee0     7F 03 03 63 | 	byte	$6e, $00, $00, $00, $00, $00, $60, $30, $18, $00, $3e, $63, $7f, $03, $03, $63
03ee4     3E 00 00 00 
03ee8     00 00 08 1C 
03eec     36 00 1E 30 
03ef0     3E 33 33 33 | 	byte	$3e, $00, $00, $00, $00, $00, $08, $1c, $36, $00, $1e, $30, $3e, $33, $33, $33
03ef4     6E 00 00 00 
03ef8     00 00 00 00 
03efc     33 00 1E 30 
03f00     3E 33 33 33 | 	byte	$6e, $00, $00, $00, $00, $00, $00, $00, $33, $00, $1e, $30, $3e, $33, $33, $33
03f04     6E 00 00 00 
03f08     00 00 1C 36 
03f0c     1C 00 33 33 
03f10     33 33 33 33 | 	byte	$6e, $00, $00, $00, $00, $00, $1c, $36, $1c, $00, $33, $33, $33, $33, $33, $33
03f14     6E 00 00 00 
03f18     00 00 60 30 
03f1c     18 00 3E 63 
03f20     03 03 03 63 | 	byte	$6e, $00, $00, $00, $00, $00, $60, $30, $18, $00, $3e, $63, $03, $03, $03, $63
03f24     3E 00 00 00 
03f28     00 00 00 00 
03f2c     00 00 3E 63 
03f30     03 03 03 63 | 	byte	$3e, $00, $00, $00, $00, $00, $00, $00, $00, $00, $3e, $63, $03, $03, $03, $63
03f34     3E 18 30 1E 
03f38     00 00 00 1C 
03f3c     58 78 38 18 
03f40     1C 1E 1A 18 | 	byte	$3e, $18, $30, $1e, $00, $00, $00, $1c, $58, $78, $38, $18, $1c, $1e, $1a, $18
03f44     3C 00 00 00 
03f48     00 00 00 00 
03f4c     63 00 3E 63 
03f50     7F 03 03 63 | 	byte	$3c, $00, $00, $00, $00, $00, $00, $00, $63, $00, $3e, $63, $7f, $03, $03, $63
03f54     3E 00 00 00 
03f58     66 33 00 3E 
03f5c     63 63 63 63 
03f60     63 63 63 63 | 	byte	$3e, $00, $00, $00, $66, $33, $00, $3e, $63, $63, $63, $63, $63, $63, $63, $63
03f64     3E 00 00 00 
03f68     00 00 CC 66 
03f6c     33 00 3E 63 
03f70     63 63 63 63 | 	byte	$3e, $00, $00, $00, $00, $00, $cc, $66, $33, $00, $3e, $63, $63, $63, $63, $63
03f74     3E 00 00 00 
03f78     00 00 18 3C 
03f7c     66 00 1C 18 
03f80     18 18 18 18 | 	byte	$3e, $00, $00, $00, $00, $00, $18, $3c, $66, $00, $1c, $18, $18, $18, $18, $18
03f84     3C 00 00 00 
03f88     30 18 00 7F 
03f8c     63 61 30 18 
03f90     0C 06 43 63 | 	byte	$3c, $00, $00, $00, $30, $18, $00, $7f, $63, $61, $30, $18, $0c, $06, $43, $63
03f94     7F 00 00 00 
03f98     00 63 00 08 
03f9c     1C 36 63 63 
03fa0     7F 63 63 63 | 	byte	$7f, $00, $00, $00, $00, $63, $00, $08, $1c, $36, $63, $63, $7f, $63, $63, $63
03fa4     63 00 00 00 
03fa8     30 18 00 3C 
03fac     66 43 03 03 
03fb0     03 03 43 66 | 	byte	$63, $00, $00, $00, $30, $18, $00, $3c, $66, $43, $03, $03, $03, $03, $43, $66
03fb4     3C 00 00 00 
03fb8     30 18 00 7F 
03fbc     66 46 16 1E 
03fc0     16 06 46 66 | 	byte	$3c, $00, $00, $00, $30, $18, $00, $7f, $66, $46, $16, $1e, $16, $06, $46, $66
03fc4     7F 00 00 00 
03fc8     0C 06 00 0F 
03fcc     06 06 06 06 
03fd0     06 06 46 66 | 	byte	$7f, $00, $00, $00, $0c, $06, $00, $0f, $06, $06, $06, $06, $06, $06, $46, $66
03fd4     7F 00 00 00 
03fd8     30 18 00 1C 
03fdc     18 18 18 18 
03fe0     18 18 18 18 | 	byte	$7f, $00, $00, $00, $30, $18, $00, $1c, $18, $18, $18, $18, $18, $18, $18, $18
03fe4     3C 00 00 00 
03fe8     00 00 08 1C 
03fec     36 00 3E 63 
03ff0     63 63 63 63 | 	byte	$3c, $00, $00, $00, $00, $00, $08, $1c, $36, $00, $3e, $63, $63, $63, $63, $63
03ff4     3E 00 00 00 
03ff8     00 00 00 00 
03ffc     63 00 3E 63 
04000     63 63 63 63 | 	byte	$3e, $00, $00, $00, $00, $00, $00, $00, $63, $00, $3e, $63, $63, $63, $63, $63
04004     3E 00 00 00 
04008     00 00 00 6F 
0400c     46 26 06 06 
04010     06 06 46 66 | 	byte	$3e, $00, $00, $00, $00, $00, $00, $6f, $46, $26, $06, $06, $06, $06, $46, $66
04014     7F 00 00 00 
04018     00 00 00 6E 
0401c     4C 2C 0C 0C 
04020     0C 0C 0C 0C | 	byte	$7f, $00, $00, $00, $00, $00, $00, $6e, $4c, $2c, $0c, $0c, $0c, $0c, $0c, $0c
04024     1E 00 00 00 
04028     30 18 00 3E 
0402c     63 63 06 1C 
04030     30 60 63 63 | 	byte	$1e, $00, $00, $00, $30, $18, $00, $3e, $63, $63, $06, $1c, $30, $60, $63, $63
04034     3E 00 00 00 
04038     00 00 60 30 
0403c     18 00 3E 63 
04040     06 1C 30 63 | 	byte	$3e, $00, $00, $00, $00, $00, $60, $30, $18, $00, $3e, $63, $06, $1c, $30, $63
04044     3E 00 00 00 
04048     00 63 00 3E 
0404c     63 63 63 63 
04050     63 63 63 63 | 	byte	$3e, $00, $00, $00, $00, $63, $00, $3e, $63, $63, $63, $63, $63, $63, $63, $63
04054     3E 00 00 00 
04058     00 63 00 63 
0405c     63 63 63 63 
04060     63 63 63 63 | 	byte	$3e, $00, $00, $00, $00, $63, $00, $63, $63, $63, $63, $63, $63, $63, $63, $63
04064     3E 00 00 00 
04068     6C 38 00 7E 
0406c     7E 5A 18 18 
04070     18 18 18 18 | 	byte	$3e, $00, $00, $00, $6c, $38, $00, $7e, $7e, $5a, $18, $18, $18, $18, $18, $18
04074     3C 00 00 00 
04078     00 00 60 48 
0407c     2C 0C 3F 0C 
04080     0C 0C 0C 6C | 	byte	$3c, $00, $00, $00, $00, $00, $60, $48, $2c, $0c, $3f, $0c, $0c, $0c, $0c, $6c
04084     38 00 00 00 
04088     00 00 00 0F 
0408c     26 36 1E 0E 
04090     07 07 46 66 | 	byte	$38, $00, $00, $00, $00, $00, $00, $0f, $26, $36, $1e, $0e, $07, $07, $46, $66
04094     7F 00 00 00 
04098     00 00 00 00 
0409c     00 63 36 1C 
040a0     1C 36 63 00 | 	byte	$7f, $00, $00, $00, $00, $00, $00, $00, $00, $63, $36, $1c, $1c, $36, $63, $00
040a4     00 00 00 00 
040a8     00 00       | 	byte	$00[6]
040aa     36 1C 08 00 
040ae     3E 63 03 03 
040b2     03 63 3E 00 
040b6     00 00 00 00 | 	byte	$36, $1c, $08, $00, $3e, $63, $03, $03, $03, $63, $3e, $00, $00, $00, $00, $00
040ba     30 18 0C 00 
040be     1E 30 3E 33 
040c2     33 33 6E 00 
040c6     00 00 00 00 | 	byte	$30, $18, $0c, $00, $1e, $30, $3e, $33, $33, $33, $6e, $00, $00, $00, $00, $00
040ca     60 30 18 00 
040ce     1C 18 18 18 
040d2     18 18 3C 00 
040d6     00 00 00 00 | 	byte	$60, $30, $18, $00, $1c, $18, $18, $18, $18, $18, $3c, $00, $00, $00, $00, $00
040da     60 30 18 00 
040de     3E 63 63 63 
040e2     63 63 3E 00 
040e6     00 00 00 00 | 	byte	$60, $30, $18, $00, $3e, $63, $63, $63, $63, $63, $3e, $00, $00, $00, $00, $00
040ea     30 18 0C 00 
040ee     33 33 33 33 
040f2     33 33 6E 00 
040f6     00 00 00 00 | 	byte	$30, $18, $0c, $00, $33, $33, $33, $33, $33, $33, $6e, $00, $00, $00, $00, $00
040fa     00 08 1C 36 
040fe     63 63 7F 63 
04102     63 63 63 18 
04106     0C 78 00 00 | 	byte	$00, $08, $1c, $36, $63, $63, $7f, $63, $63, $63, $63, $18, $0c, $78, $00, $00
0410a     00 00 00 00 
0410e     1E 30 3E 33 
04112     33 33 6E 18 
04116     0C 78 36 1C | 	byte	$00, $00, $00, $00, $1e, $30, $3e, $33, $33, $33, $6e, $18, $0c, $78, $36, $1c
0411a     00 7F 63 61 
0411e     30 18 0C 06 
04122     43 63 7F 00 
04126     00 00 00 00 | 	byte	$00, $7f, $63, $61, $30, $18, $0c, $06, $43, $63, $7f, $00, $00, $00, $00, $00
0412a     36 1C 08 00 
0412e     7F 33 18 0C 
04132     06 63 7F 00 
04136     00 00 00 00 | 	byte	$36, $1c, $08, $00, $7f, $33, $18, $0c, $06, $63, $7f, $00, $00, $00, $00, $00
0413a     00 7F 66 46 
0413e     16 1E 16 06 
04142     46 66 7F 18 
04146     0C 78 00 00 | 	byte	$00, $7f, $66, $46, $16, $1e, $16, $06, $46, $66, $7f, $18, $0c, $78, $00, $00
0414a     00 00 00 00 
0414e     3E 63 7F 03 
04152     03 63 3E 18 
04156     0C 78 00 00 | 	byte	$00, $00, $00, $00, $3e, $63, $7f, $03, $03, $63, $3e, $18, $0c, $78, $00, $00
0415a     00 3C 66 03 
0415e     1F 03 0F 03 
04162     03 66 3C 00 
04166     00 00 00 00 | 	byte	$00, $3c, $66, $03, $1f, $03, $0f, $03, $03, $66, $3c, $00, $00, $00, $00, $00
0416a     60 30 18 00 
0416e     7F 33 18 0C 
04172     06 63 7F 00 
04176     00 00 6C 38 | 	byte	$60, $30, $18, $00, $7f, $33, $18, $0c, $06, $63, $7f, $00, $00, $00, $6c, $38
0417a     00 3C 66 43 
0417e     03 03 03 03 
04182     43 66 3C 00 
04186     00 00 00 00 | 	byte	$00, $3c, $66, $43, $03, $03, $03, $03, $43, $66, $3c, $00, $00, $00, $00, $00
0418a     00 00 00 00 
0418e     3E 63 06 1C 
04192     30 63 3E 18 
04196     30 1E 00 00 | 	byte	$00, $00, $00, $00, $3e, $63, $06, $1c, $30, $63, $3e, $18, $30, $1e, $00, $00
0419a     00 00 00 00 
0419e     00 00       | 	byte	$00[6]
041a0     6C 36 1B 36 
041a4     6C 00 00 00 
041a8     00 00 00 00 
041ac     00 00 00 00 | 	byte	$6c, $36, $1b, $36, $6c, $00, $00, $00, $00, $00, $00, $00, $00, $00, $00, $00
041b0     1B 36 6C 36 
041b4     1B 00 00 00 
041b8     88 22 88 22 
041bc     88 22 88 22 | 	byte	$1b, $36, $6c, $36, $1b, $00, $00, $00, $88, $22, $88, $22, $88, $22, $88, $22
041c0     88 22 88 22 
041c4     88 22 88 22 
041c8     AA 55 AA 55 
041cc     AA 55 AA 55 | 	byte	$88, $22, $88, $22, $88, $22, $88, $22, $aa, $55, $aa, $55, $aa, $55, $aa, $55
041d0     AA 55 AA 55 
041d4     AA 55 AA 55 
041d8     BB EE BB EE 
041dc     BB EE BB EE | 	byte	$aa, $55, $aa, $55, $aa, $55, $aa, $55, $bb, $ee, $bb, $ee, $bb, $ee, $bb, $ee
041e0     BB EE BB EE 
041e4     BB EE BB EE 
041e8     18 18 18 18 
041ec     18 18 18 18 | 	byte	$bb, $ee, $bb, $ee, $bb, $ee, $bb, $ee, $18, $18, $18, $18, $18, $18, $18, $18
041f0     18 18 18 18 
041f4     18 18 18 18 
041f8     18 18 18 18 
041fc     18 18 18    | 	byte	$18[15]
041ff     1F 18 18 18 
04203     18 18 18 18 
04207     18 30 18 00 
0420b     08 1C 36 63 | 	byte	$1f, $18, $18, $18, $18, $18, $18, $18, $18, $30, $18, $00, $08, $1c, $36, $63
0420f     63 7F 63 63 
04213     63 63 00 00 
04217     00 1C 36 00 
0421b     08 1C 36 63 | 	byte	$63, $7f, $63, $63, $63, $63, $00, $00, $00, $1c, $36, $00, $08, $1c, $36, $63
0421f     63 7F 63 63 
04223     63 63 00 00 
04227     00 36 1C 00 
0422b     7F 66 46 16 | 	byte	$63, $7f, $63, $63, $63, $63, $00, $00, $00, $36, $1c, $00, $7f, $66, $46, $16
0422f     1E 16 06 46 
04233     66 7F 00 00 
04237     00 00 00 00 
0423b     3E 63 63 06 | 	byte	$1e, $16, $06, $46, $66, $7f, $00, $00, $00, $00, $00, $00, $3e, $63, $63, $06
0423f     1C 30 60 63 
04243     63 3E 18 30 
04247     1E 6C 6C 6C 
0424b     6C 6C 6F 60 | 	byte	$1c, $30, $60, $63, $63, $3e, $18, $30, $1e, $6c, $6c, $6c, $6c, $6c, $6f, $60
0424f     6F 6C 6C 6C 
04253     6C 6C 6C 6C 
04257     6C 6C 6C 6C 
0425b     6C 6C 6C 6C | 	byte	$6f, $6c, $6c, $6c, $6c, $6c, $6c, $6c, $6c, $6c, $6c, $6c, $6c, $6c, $6c, $6c
0425f     6C 6C 6C 6C 
04263     6C 6C 6C 6C 
04267     6C          | 	byte	$6c[9]
04268     00 00 00 00 
0426c     00          | 	byte	$00[5]
0426d     7F 60 6F 6C 
04271     6C 6C 6C 6C 
04275     6C 6C 6C 6C 
04279     6C 6C 6C 6C | 	byte	$7f, $60, $6f, $6c, $6c, $6c, $6c, $6c, $6c, $6c, $6c, $6c, $6c, $6c, $6c, $6c
0427d     6F 60 7F 00 
04281     00 00 00 00 
04285     00 00 00 18 
04289     18 00 7F 63 | 	byte	$6f, $60, $7f, $00, $00, $00, $00, $00, $00, $00, $00, $18, $18, $00, $7f, $63
0428d     61 30 18 0C 
04291     06 43 63 7F 
04295     00 00 00 00 
04299     00 00 18 18 | 	byte	$61, $30, $18, $0c, $06, $43, $63, $7f, $00, $00, $00, $00, $00, $00, $18, $18
0429d     00 7F 33 18 
042a1     0C 06 63 7F 
042a5     00 00 00 00 
042a9     00 00 00 00 | 	byte	$00, $7f, $33, $18, $0c, $06, $63, $7f, $00, $00, $00, $00, $00, $00, $00, $00
042ad     00 00 1F 18 
042b1     18 18 18 18 
042b5     18 18 18 18 
042b9     18 18 18 18 | 	byte	$00, $00, $1f, $18, $18, $18, $18, $18, $18, $18, $18, $18, $18, $18, $18, $18
042bd     18 18 F8 00 
042c1     00 00 00 00 
042c5     00 00 00 18 
042c9     18 18 18 18 | 	byte	$18, $18, $f8, $00, $00, $00, $00, $00, $00, $00, $00, $18, $18, $18, $18, $18
042cd     18 18 FF 00 
042d1     00 00 00 00 
042d5     00 00 00 00 
042d9     00 00 00 00 | 	byte	$18, $18, $ff, $00, $00, $00, $00, $00, $00, $00, $00, $00, $00, $00, $00, $00
042dd     00 00 FF 18 
042e1     18 18 18 18 
042e5     18 18 18 18 
042e9     18 18 18 18 | 	byte	$00, $00, $ff, $18, $18, $18, $18, $18, $18, $18, $18, $18, $18, $18, $18, $18
042ed     18 18 F8 18 
042f1     18 18 18 18 
042f5     18 18 18 00 
042f9     00 00 00 00 | 	byte	$18, $18, $f8, $18, $18, $18, $18, $18, $18, $18, $18, $00, $00, $00, $00, $00
042fd     00 00 FF 00 
04301     00 00 00 00 
04305     00 00 00 18 
04309     18 18 18 18 | 	byte	$00, $00, $ff, $00, $00, $00, $00, $00, $00, $00, $00, $18, $18, $18, $18, $18
0430d     18 18 FF 18 
04311     18 18 18 18 
04315     18 18 18 63 
04319     3E 00 08 1C | 	byte	$18, $18, $ff, $18, $18, $18, $18, $18, $18, $18, $18, $63, $3e, $00, $08, $1c
0431d     36 63 63 7F 
04321     63 63 63 63 
04325     00 00 00 00 
04329     00 00 63 3E | 	byte	$36, $63, $63, $7f, $63, $63, $63, $63, $00, $00, $00, $00, $00, $00, $63, $3e
0432d     00 1E 30 3E 
04331     33 33 33 6E 
04335     00 00 00 6C 
04339     6C 6C 6C 6C | 	byte	$00, $1e, $30, $3e, $33, $33, $33, $6e, $00, $00, $00, $6c, $6c, $6c, $6c, $6c
0433d     EC 0C FC 00 
04341     00 00 00 00 
04345     00 00 00 00 
04349     00 00 00 00 | 	byte	$ec, $0c, $fc, $00, $00, $00, $00, $00, $00, $00, $00, $00, $00, $00, $00, $00
0434d     FC 0C EC 6C 
04351     6C 6C 6C 6C 
04355     6C 6C 6C 6C 
04359     6C 6C 6C 6C | 	byte	$fc, $0c, $ec, $6c, $6c, $6c, $6c, $6c, $6c, $6c, $6c, $6c, $6c, $6c, $6c, $6c
0435d     EF 00 FF 00 
04361     00 00 00 00 
04365     00 00 00 00 
04369     00 00 00 00 | 	byte	$ef, $00, $ff, $00, $00, $00, $00, $00, $00, $00, $00, $00, $00, $00, $00, $00
0436d     FF 00 EF 6C 
04371     6C 6C 6C 6C 
04375     6C 6C 6C 6C 
04379     6C 6C 6C 6C | 	byte	$ff, $00, $ef, $6c, $6c, $6c, $6c, $6c, $6c, $6c, $6c, $6c, $6c, $6c, $6c, $6c
0437d     EC 0C EC 6C 
04381     6C 6C 6C 6C 
04385     6C 6C 6C 00 
04389     00 00 00 00 | 	byte	$ec, $0c, $ec, $6c, $6c, $6c, $6c, $6c, $6c, $6c, $6c, $00, $00, $00, $00, $00
0438d     FF 00 FF 00 
04391     00 00 00 00 
04395     00 00 00 6C 
04399     6C 6C 6C 6C | 	byte	$ff, $00, $ff, $00, $00, $00, $00, $00, $00, $00, $00, $6c, $6c, $6c, $6c, $6c
0439d     EF 00 EF 6C 
043a1     6C 6C 6C 6C 
043a5     6C 6C 6C 00 
043a9     00 00 00 00 | 	byte	$ef, $00, $ef, $6c, $6c, $6c, $6c, $6c, $6c, $6c, $6c, $00, $00, $00, $00, $00
043ad     63 3E 63 63 
043b1     63 63 3E 63 
043b5     00 00 00 00 
043b9     00 00 30 7E | 	byte	$63, $3e, $63, $63, $63, $63, $3e, $63, $00, $00, $00, $00, $00, $00, $30, $7e
043bd     30 3C 36 33 
043c1     33 33 33 6E 
043c5     00 00 00 00 
043c9     00 00 1F 36 | 	byte	$30, $3c, $36, $33, $33, $33, $33, $6e, $00, $00, $00, $00, $00, $00, $1f, $36
043cd     66 66 6F 66 
043d1     66 66 36 1F 
043d5     00 00 00 36 
043d9     1C 00 1F 36 | 	byte	$66, $66, $6f, $66, $66, $66, $36, $1f, $00, $00, $00, $36, $1c, $00, $1f, $36
043dd     66 66 66 66 
043e1     66 66       | 	byte	$66[6]
043e3     36 1F 00 00 
043e7     00 00 63 00 
043eb     7F 66 46 16 
043ef     1E 16 06 46 | 	byte	$36, $1f, $00, $00, $00, $00, $63, $00, $7f, $66, $46, $16, $1e, $16, $06, $46
043f3     66 7F 00 00 
043f7     00 6C 38 00 
043fb     38 30 30 3C 
043ff     36 33 33 33 | 	byte	$66, $7f, $00, $00, $00, $6c, $38, $00, $38, $30, $30, $3c, $36, $33, $33, $33
04403     33 6E 00 00 
04407     00 36 1C 00 
0440b     63 67 6F 7F 
0440f     7B 73 63 63 | 	byte	$33, $6e, $00, $00, $00, $36, $1c, $00, $63, $67, $6f, $7f, $7b, $73, $63, $63
04413     63 63 00 00 
04417     00 30 18 00 
0441b     3C 18 18 18 
0441f     18 18 18 18 | 	byte	$63, $63, $00, $00, $00, $30, $18, $00, $3c, $18, $18, $18, $18, $18, $18, $18
04423     18 3C 00 00 
04427     00 3C 66 00 
0442b     3C 18 18 18 
0442f     18 18 18 18 | 	byte	$18, $3c, $00, $00, $00, $3c, $66, $00, $3c, $18, $18, $18, $18, $18, $18, $18
04433     18 3C 00 00 
04437     00 00 00 36 
0443b     1C 08 00 3E 
0443f     63 7F 03 03 | 	byte	$18, $3c, $00, $00, $00, $00, $00, $36, $1c, $08, $00, $3e, $63, $7f, $03, $03
04443     63 3E 00 00 
04447     00 18 18 18 
0444b     18 18 18 18 
0444f     1F 00 00 00 | 	byte	$63, $3e, $00, $00, $00, $18, $18, $18, $18, $18, $18, $18, $1f, $00, $00, $00
04453     00 00 00 00 
04457     00 00 00 00 
0445b     00 00 00 00 | 	byte	$00[12]
0445f     F8 18 18 18 
04463     18 18 18 18 
04467     18 FF FF FF 
0446b     FF FF FF FF | 	byte	$f8, $18, $18, $18, $18, $18, $18, $18, $18, $ff, $ff, $ff, $ff, $ff, $ff, $ff
0446f     FF FF FF FF 
04473     FF FF FF FF 
04477     FF          | 	byte	$ff[9]
04478     00 00 00 00 
0447c     00 00 00    | 	byte	$00[7]
0447f     FF FF FF FF 
04483     FF FF FF FF 
04487     FF          | 	byte	$ff[9]
04488     00 00 00 7E 
0448c     7E 5A 18 18 
04490     18 18 18 18 
04494     3C 18 30 1E | 	byte	$00, $00, $00, $7e, $7e, $5a, $18, $18, $18, $18, $18, $18, $3c, $18, $30, $1e
04498     1C 36 1C 63 
0449c     63 63 63 63 
044a0     63 63 63 63 
044a4     3E 00 00 00 | 	byte	$1c, $36, $1c, $63, $63, $63, $63, $63, $63, $63, $63, $63, $3e, $00, $00, $00
044a8     FF FF FF FF 
044ac     FF FF FF    | 	byte	$ff[7]
044af     00 00 00 00 
044b3     00 00 00 00 
044b7     00          | 	byte	$00[9]
044b8     30 18 00 3E 
044bc     63 63 63 63 
044c0     63 63 63 63 
044c4     3E 00 00 00 | 	byte	$30, $18, $00, $3e, $63, $63, $63, $63, $63, $63, $63, $63, $3e, $00, $00, $00
044c8     00 00 00 1E 
044cc     33 33 33 1B 
044d0     33 63 63 63 
044d4     33 00 00 00 | 	byte	$00, $00, $00, $1e, $33, $33, $33, $1b, $33, $63, $63, $63, $33, $00, $00, $00
044d8     1C 36 00 3E 
044dc     63 63 63 63 
044e0     63 63 63 63 
044e4     3E 00 00 00 | 	byte	$1c, $36, $00, $3e, $63, $63, $63, $63, $63, $63, $63, $63, $3e, $00, $00, $00
044e8     30 18 00 63 
044ec     67 6F 7F 7B 
044f0     73 63 63 63 
044f4     63 00 00 00 | 	byte	$30, $18, $00, $63, $67, $6f, $7f, $7b, $73, $63, $63, $63, $63, $00, $00, $00
044f8     00 00 60 30 
044fc     18 00 3B 66 
04500     66 66 66 66 
04504     66 00 00 00 | 	byte	$00, $00, $60, $30, $18, $00, $3b, $66, $66, $66, $66, $66, $66, $00, $00, $00
04508     00 00 36 1C 
0450c     08 00 3B 66 
04510     66 66 66 66 
04514     66 00 00 00 | 	byte	$00, $00, $36, $1c, $08, $00, $3b, $66, $66, $66, $66, $66, $66, $00, $00, $00
04518     36 1C 00 3E 
0451c     63 63 06 1C 
04520     30 60 63 63 
04524     3E 00 00 00 | 	byte	$36, $1c, $00, $3e, $63, $63, $06, $1c, $30, $60, $63, $63, $3e, $00, $00, $00
04528     00 00 36 1C 
0452c     08 00 3E 63 
04530     06 1C 30 63 
04534     3E 00 00 00 | 	byte	$00, $00, $36, $1c, $08, $00, $3e, $63, $06, $1c, $30, $63, $3e, $00, $00, $00
04538     30 18 00 3F 
0453c     66 66 66 3E 
04540     36 66 66 66 
04544     6F 00 00 00 | 	byte	$30, $18, $00, $3f, $66, $66, $66, $3e, $36, $66, $66, $66, $6f, $00, $00, $00
04548     30 18 00 63 
0454c     63 63 63 63 
04550     63 63 63 63 
04554     3E 00 00 00 | 	byte	$30, $18, $00, $63, $63, $63, $63, $63, $63, $63, $63, $63, $3e, $00, $00, $00
04558     00 00 60 30 
0455c     18 00 3B 6E 
04560     66 06 06 06 
04564     0F 00 00 00 | 	byte	$00, $00, $60, $30, $18, $00, $3b, $6e, $66, $06, $06, $06, $0f, $00, $00, $00
04568     66 33 00 63 
0456c     63 63 63 63 
04570     63 63 63 63 
04574     3E 00 00 00 | 	byte	$66, $33, $00, $63, $63, $63, $63, $63, $63, $63, $63, $63, $3e, $00, $00, $00
04578     00 00 60 30 
0457c     18 00 63 63 
04580     63 63 63 63 
04584     7E 60 30 1F | 	byte	$00, $00, $60, $30, $18, $00, $63, $63, $63, $63, $63, $63, $7e, $60, $30, $1f
04588     30 18 00 66 
0458c     66 66 66 3C 
04590     18 18 18 18 
04594     3C 00 00 00 | 	byte	$30, $18, $00, $66, $66, $66, $66, $3c, $18, $18, $18, $18, $3c, $00, $00, $00
04598     00 00 00 08 
0459c     0C 0C 3F 0C 
045a0     0C 0C 0C 6C 
045a4     38 18 30 1E | 	byte	$00, $00, $00, $08, $0c, $0c, $3f, $0c, $0c, $0c, $0c, $6c, $38, $18, $30, $1e
045a8     30 18 00 00 
045ac     00 00 00 00 
045b0     00 00 00 00 
045b4     00 00 00 00 | 	byte	$30, $18, $00, $00, $00, $00, $00, $00, $00, $00, $00, $00, $00, $00, $00, $00
045b8     00 00 00 00 
045bc     00 00 00 00 | 	byte	$00[8]
045c0     7F 00 00 00 
045c4     00 00 00 00 
045c8     66 33 00 00 
045cc     00 00 00 00 | 	byte	$7f, $00, $00, $00, $00, $00, $00, $00, $66, $33, $00, $00, $00, $00, $00, $00
045d0     00 00 00 00 
045d4     00 00 00 00 
045d8     00 00 00 00 
045dc     00 00 00 00 
045e0     00 00 00 00 
045e4     00          | 	byte	$00[21]
045e5     0C 06 3C 36 
045e9     1C 00 00 00 
045ed     00 00 00 00 
045f1     00 00 00 00 | 	byte	$0c, $06, $3c, $36, $1c, $00, $00, $00, $00, $00, $00, $00, $00, $00, $00, $00
045f5     00 00 00 63 
045f9     3E 00 00 00 
045fd     00 00 00 00 
04601     00 00 00 00 | 	byte	$00, $00, $00, $63, $3e, $00, $00, $00, $00, $00, $00, $00, $00, $00, $00, $00
04605     00 00 00 00 
04609     3E 63 06 1C 
0460d     36 63 63 36 
04611     1C 30 63 3E | 	byte	$00, $00, $00, $00, $3e, $63, $06, $1c, $36, $63, $63, $36, $1c, $30, $63, $3e
04615     00 00 00 00 
04619     00 00 00 00 | 	byte	$00[8]
0461d     18 00 7E 00 
04621     18 00 00 00 
04625     00 00 00 00 
04629     00 00 00 00 | 	byte	$18, $00, $7e, $00, $18, $00, $00, $00, $00, $00, $00, $00, $00, $00, $00, $00
0462d     00 00 00 00 
04631     00 00 00 00 | 	byte	$00[8]
04635     18 30 1E 00 
04639     00 00 1C 36 
0463d     36 1C 00 00 
04641     00 00 00 00 | 	byte	$18, $30, $1e, $00, $00, $00, $1c, $36, $36, $1c, $00, $00, $00, $00, $00, $00
04645     00 00 00 00 
04649     63 00 00 00 
0464d     00 00 00 00 
04651     00 00 00 00 | 	byte	$00, $00, $00, $00, $63, $00, $00, $00, $00, $00, $00, $00, $00, $00, $00, $00
04655     00 00 00 18 
04659     18 00 00 00 
0465d     00 00 00 00 
04661     00 00 00 00 | 	byte	$00, $00, $00, $18, $18, $00, $00, $00, $00, $00, $00, $00, $00, $00, $00, $00
04665     00 00 00 00 
04669     00          | 	byte	$00[5]
0466a     CC 66 33 00 
0466e     33 33 33 33 
04672     33 33 6E 00 
04676     00 00 36 1C | 	byte	$cc, $66, $33, $00, $33, $33, $33, $33, $33, $33, $6e, $00, $00, $00, $36, $1c
0467a     00 3F 66 66 
0467e     66 3E 36 66 
04682     66 66 6F 00 
04686     00 00 00 00 | 	byte	$00, $3f, $66, $66, $66, $3e, $36, $66, $66, $66, $6f, $00, $00, $00, $00, $00
0468a     36 1C 08 00 
0468e     3B 6E 66 06 
04692     06 06 0F 00 
04696     00 00 00 00 | 	byte	$36, $1c, $08, $00, $3b, $6e, $66, $06, $06, $06, $0f, $00, $00, $00, $00, $00
0469a     00 00 00 7E 
0469e     7E 7E 7E 7E 
046a2     7E 7E 00 00 
046a6     00 00 00 00 | 	byte	$00, $00, $00, $7e, $7e, $7e, $7e, $7e, $7e, $7e, $00, $00, $00, $00, $00, $00
046aa     00 00 00 00 
046ae     00 00 00 00 
046b2     00 00 00 00 
046b6     00 00       | 	byte	$00, $00, $00, $00, $00, $00, $00, $00, $00, $00, $00, $00, $00, $00
046b8     00 00 00 00 
      ...             
046e8     00 00 00 00 
046ec     00 00 00    | st_font        file "st4font.def"
046ef     FF FF 00 00 
046f3     00 00 00 00 
046f7     00 18 18 18 
046fb     18 18 18 18 | 	byte	$ff, $ff, $00, $00, $00, $00, $00, $00, $00, $18, $18, $18, $18, $18, $18, $18
046ff     18 18 18 18 
04703     18 18 18 18 
04707     18          | 	byte	$18[9]
04708     00 00 00 00 
0470c     00 00 00    | 	byte	$00[7]
0470f     FF FF 18 18 
04713     18 18 18 18 
04717     18 18 18 18 
0471b     18 18 18 18 | 	byte	$ff, $ff, $18, $18, $18, $18, $18, $18, $18, $18, $18, $18, $18, $18, $18, $18
0471f     FF FF 00 00 
04723     00 00 00 00 
04727     00 18 18 18 
0472b     18 18 18 18 | 	byte	$ff, $ff, $00, $00, $00, $00, $00, $00, $00, $18, $18, $18, $18, $18, $18, $18
0472f     1F 1F 18 18 
04733     18 18 18 18 
04737     18 18 18 18 
0473b     18 18 18 18 | 	byte	$1f, $1f, $18, $18, $18, $18, $18, $18, $18, $18, $18, $18, $18, $18, $18, $18
0473f     F8 F8 18 18 
04743     18 18 18 18 
04747     18 00 00 00 
0474b     00 00 00 00 | 	byte	$f8, $f8, $18, $18, $18, $18, $18, $18, $18, $00, $00, $00, $00, $00, $00, $00
0474f     1F 1F 18 18 
04753     18 18 18 18 
04757     18 00 00 00 
0475b     00 00 00 00 | 	byte	$1f, $1f, $18, $18, $18, $18, $18, $18, $18, $00, $00, $00, $00, $00, $00, $00
0475f     F8 F8 18 18 
04763     18 18 18 18 
04767     18 18 18 18 
0476b     18 18 18 18 | 	byte	$f8, $f8, $18, $18, $18, $18, $18, $18, $18, $18, $18, $18, $18, $18, $18, $18
0476f     1F 1F 00 00 
04773     00 00 00 00 
04777     00 18 18 18 
0477b     18 18 18 18 | 	byte	$1f, $1f, $00, $00, $00, $00, $00, $00, $00, $18, $18, $18, $18, $18, $18, $18
0477f     F8 F8 00 00 
04783     00 00 00 00 
04787     00 18 18 18 
0478b     18 18 18 18 | 	byte	$f8, $f8, $00, $00, $00, $00, $00, $00, $00, $18, $18, $18, $18, $18, $18, $18
0478f     FF FF 18 18 
04793     18 18 18 18 
04797     18 00 00 18 
0479b     3C 7E 66 66 | 	byte	$ff, $ff, $18, $18, $18, $18, $18, $18, $18, $00, $00, $18, $3c, $7e, $66, $66
0479f     66 7E 7E 66 
047a3     66 66 66 30 
047a7     18 00 00 7E 
047ab     7E 06 06 3E | 	byte	$66, $7e, $7e, $66, $66, $66, $66, $30, $18, $00, $00, $7e, $7e, $06, $06, $3e
047af     3E 06 06 06 
047b3     06 7E 7E 18 
047b7     0C 30 18 3C 
047bb     7E 66 66 06 | 	byte	$3e, $06, $06, $06, $06, $7e, $7e, $18, $0c, $30, $18, $3c, $7e, $66, $66, $06
047bf     06 06 06 66 
047c3     66 7E 3C 00 
047c7     00 30 18 66 
047cb     66 66 6E 6E | 	byte	$06, $06, $06, $66, $66, $7e, $3c, $00, $00, $30, $18, $66, $66, $66, $6e, $6e
047cf     7E 7E 76 76 
047d3     66 66 66 00 
047d7     00 30 18 7C 
047db     7E 06 06 0E | 	byte	$7e, $7e, $76, $76, $66, $66, $66, $00, $00, $30, $18, $7c, $7e, $06, $06, $0e
047df     1C 38 70 60 
047e3     60 7E 3E 00 
047e7     00 30 18 7E 
047eb     7E 30 30 18 | 	byte	$1c, $38, $70, $60, $60, $7e, $3e, $00, $00, $30, $18, $7e, $7e, $30, $30, $18
047ef     18 0C 0C 06 
047f3     06 7E 7E 00 
047f7     00 18 18 00 
047fb     7E 7E 30 30 | 	byte	$18, $0c, $0c, $06, $06, $7e, $7e, $00, $00, $18, $18, $00, $7e, $7e, $30, $30
047ff     18 18 0C 0C 
04803     06 7E 7E 00 
04807     00 30 18 3C 
0480b     7E 66 66 66 | 	byte	$18, $18, $0c, $0c, $06, $7e, $7e, $00, $00, $30, $18, $3c, $7e, $66, $66, $66
0480f     66 66 66 66 
04813     66          | 	byte	$66[5]
04814     7E 3C 00 00 
04818     00 00 06 06 
0481c     06 06 16 1E 
04820     0E 06 06 06 | 	byte	$7e, $3c, $00, $00, $00, $00, $06, $06, $06, $06, $16, $1e, $0e, $06, $06, $06
04824     7E 7E 00 00 
04828     00 00 00 00 
0482c     00 3C 7C 60 
04830     7C 7E 66 66 | 	byte	$7e, $7e, $00, $00, $00, $00, $00, $00, $00, $3c, $7c, $60, $7c, $7e, $66, $66
04834     7E 7C 30 18 
04838     00 00 00 00 
0483c     00 3C 7E 66 
04840     66 7E 06 06 | 	byte	$7e, $7c, $30, $18, $00, $00, $00, $00, $00, $3c, $7e, $66, $66, $7e, $06, $06
04844     7E 7C 18 0C 
04848     00 00 30 18 
0484c     00 3C 3E 06 
04850     06 06 06 06 | 	byte	$7e, $7c, $18, $0c, $00, $00, $30, $18, $00, $3c, $3e, $06, $06, $06, $06, $06
04854     7E 7C 00 00 
04858     00 00 30 18 
0485c     00 3E 7E 66 
04860     66 66 66 66 | 	byte	$7e, $7c, $00, $00, $00, $00, $30, $18, $00, $3e, $7e, $66, $66, $66, $66, $66
04864     66 66 00 00 
04868     00 00 30 18 
0486c     00 7C 7E 06 
04870     0E 3C 70 60 | 	byte	$66, $66, $00, $00, $00, $00, $30, $18, $00, $7c, $7e, $06, $0e, $3c, $70, $60
04874     7E 3E 00 00 
04878     00 00 30 18 
0487c     00 7E 7E 30 
04880     18 18 0C 0C | 	byte	$7e, $3e, $00, $00, $00, $00, $30, $18, $00, $7e, $7e, $30, $18, $18, $0c, $0c
04884     7E 7E 00 00 
04888     00 00 18 18 
0488c     00 7E 7E 30 
04890     18 18 0C 0C | 	byte	$7e, $7e, $00, $00, $00, $00, $18, $18, $00, $7e, $7e, $30, $18, $18, $0c, $0c
04894     7E 7E 00 00 
04898     00 00 30 18 
0489c     00 3C 7E 66 
048a0     66 66 66 66 | 	byte	$7e, $7e, $00, $00, $00, $00, $30, $18, $00, $3c, $7e, $66, $66, $66, $66, $66
048a4     7E 3C 00 00 
048a8     00 00 1C 1C 
048ac     18 18 38 3C 
048b0     1C 18 18 18 | 	byte	$7e, $3c, $00, $00, $00, $00, $1c, $1c, $18, $18, $38, $3c, $1c, $18, $18, $18
048b4     3C 3C 00 00 
048b8     00 00 00 00 
048bc     00 00 00 00 
048c0     00 00 00 00 | 	byte	$3c, $3c, $00, $00, $00, $00, $00, $00, $00, $00, $00, $00, $00, $00, $00, $00
048c4     00 00 00 00 
048c8     00 00       | 	byte	$00[6]
048ca     18 18 18 18 
048ce     18 18 18 18 | 	byte	$18[8]
048d2     00 00 18 18 
048d6     00 00 00 00 
048da     66 66 66 66 
048de     00 00 00 00 | 	byte	$00, $00, $18, $18, $00, $00, $00, $00, $66, $66, $66, $66, $00, $00, $00, $00
048e2     00 00 00 00 
048e6     00 00 00 00 
048ea     00          | 	byte	$00[9]
048eb     66 66 FF FF 
048ef     66 66 FF FF 
048f3     66 66 00 00 
048f7     00 00 18 18 | 	byte	$66, $66, $ff, $ff, $66, $66, $ff, $ff, $66, $66, $00, $00, $00, $00, $18, $18
048fb     7C 7E 06 06 
048ff     3E 7C 60 60 
04903     7E 3E 18 18 
04907     00 00 00 66 | 	byte	$7c, $7e, $06, $06, $3e, $7c, $60, $60, $7e, $3e, $18, $18, $00, $00, $00, $66
0490b     66 30 30 18 
0490f     18 0C 0C 66 
04913     66 00 00 00 
04917     00 00 3C 7E | 	byte	$66, $30, $30, $18, $18, $0c, $0c, $66, $66, $00, $00, $00, $00, $00, $3c, $7e
0491b     66 66 3C 1C 
0491f     1C FC FE 66 
04923     66 FE FC 00 
04927     00 00 00 18 | 	byte	$66, $66, $3c, $1c, $1c, $fc, $fe, $66, $66, $fe, $fc, $00, $00, $00, $00, $18
0492b     18 18 18 18 
0492f     00 00 00 00 
04933     00 00 00 00 
04937     00 00 00 30 | 	byte	$18, $18, $18, $18, $00, $00, $00, $00, $00, $00, $00, $00, $00, $00, $00, $30
0493b     18 1C 0C 0C 
0493f     0C 0C 0C 0C 
04943     1C 18 30 00 
04947     00 00 00 0C | 	byte	$18, $1c, $0c, $0c, $0c, $0c, $0c, $0c, $1c, $18, $30, $00, $00, $00, $00, $0c
0494b     18 38 30 30 
0494f     30 30 30 30 
04953     38 18 0C 00 
04957     00 00 00 00 | 	byte	$18, $38, $30, $30, $30, $30, $30, $30, $38, $18, $0c, $00, $00, $00, $00, $00
0495b     66 66 3C 3C 
0495f     FF FF 3C 3C 
04963     66 66 00 00 
04967     00 00 00 00 | 	byte	$66, $66, $3c, $3c, $ff, $ff, $3c, $3c, $66, $66, $00, $00, $00, $00, $00, $00
0496b     00 18 18 18 
0496f     7E 7E 18 18 
04973     18 00 00 00 
04977     00 00 00 00 | 	byte	$00, $18, $18, $18, $7e, $7e, $18, $18, $18, $00, $00, $00, $00, $00, $00, $00
0497b     00 00 00 00 
0497f     00 00       | 	byte	$00[6]
04981     18 18 18 18 
04985     18          | 	byte	$18[5]
04986     0C 04 00 00 
0498a     00 00 00 00 
0498e     7E 7E 00 00 
04992     00 00 00 00 | 	byte	$0c, $04, $00, $00, $00, $00, $00, $00, $7e, $7e, $00, $00, $00, $00, $00, $00
04996     00 00 00 00 
0499a     00 00 00 00 
0499e     00 00 00 00 
049a2     00          | 	byte	$00[13]
049a3     18 18 18 00 
049a7     00 00 00 60 
049ab     60 60 30 30 
049af     18 18 0C 0C | 	byte	$18, $18, $18, $00, $00, $00, $00, $60, $60, $60, $30, $30, $18, $18, $0c, $0c
049b3     06 06 06 00 
049b7     00 00 00 3C 
049bb     7E 66 66 66 
049bf     76 6E 66 66 | 	byte	$06, $06, $06, $00, $00, $00, $00, $3c, $7e, $66, $66, $66, $76, $6e, $66, $66
049c3     66 7E 3C 00 
049c7     00 00 00 18 
049cb     18 1C 1C 18 
049cf     18 18 18 18 | 	byte	$66, $7e, $3c, $00, $00, $00, $00, $18, $18, $1c, $1c, $18, $18, $18, $18, $18
049d3     18 7E 7E 00 
049d7     00 00 00 3C 
049db     7E 66 66 30 
049df     30 18 18 0C | 	byte	$18, $7e, $7e, $00, $00, $00, $00, $3c, $7e, $66, $66, $30, $30, $18, $18, $0c
049e3     0C 7E 7E 00 
049e7     00 00 00 7E 
049eb     7E 30 30 18 
049ef     18 30 30 66 | 	byte	$0c, $7e, $7e, $00, $00, $00, $00, $7e, $7e, $30, $30, $18, $18, $30, $30, $66
049f3     66 7E 3C 00 
049f7     00 00 00 30 
049fb     30 38 38 3C 
049ff     3C 36 36 7E | 	byte	$66, $7e, $3c, $00, $00, $00, $00, $30, $30, $38, $38, $3c, $3c, $36, $36, $7e
04a03     7E 30 30 00 
04a07     00 00 00 7E 
04a0b     7E 06 06 3E 
04a0f     7E 60 60 60 | 	byte	$7e, $30, $30, $00, $00, $00, $00, $7e, $7e, $06, $06, $3e, $7e, $60, $60, $60
04a13     66 7E 3C 00 
04a17     00 00 00 38 
04a1b     3C 0E 06 06 
04a1f     3E 7E 66 66 | 	byte	$66, $7e, $3c, $00, $00, $00, $00, $38, $3c, $0e, $06, $06, $3e, $7e, $66, $66
04a23     66 7E 3C 00 
04a27     00 00 00 7E 
04a2b     7E 60 60 30 
04a2f     30 18 18 0C | 	byte	$66, $7e, $3c, $00, $00, $00, $00, $7e, $7e, $60, $60, $30, $30, $18, $18, $0c
04a33     0C 0C 0C 00 
04a37     00 00 00 3C 
04a3b     7E 66 66 3C 
04a3f     3C 66 66 66 | 	byte	$0c, $0c, $0c, $00, $00, $00, $00, $3c, $7e, $66, $66, $3c, $3c, $66, $66, $66
04a43     66 7E 3C 00 
04a47     00 00 00 3C 
04a4b     7E 66 66 7E 
04a4f     7C 60 60 60 | 	byte	$66, $7e, $3c, $00, $00, $00, $00, $3c, $7e, $66, $66, $7e, $7c, $60, $60, $60
04a53     70 3C 1C 00 
04a57     00 00 00 00 
04a5b     00 00 18 18 
04a5f     18 00 00 00 | 	byte	$70, $3c, $1c, $00, $00, $00, $00, $00, $00, $00, $18, $18, $18, $00, $00, $00
04a63     18 18 18 00 
04a67     00 00 00 00 
04a6b     00 00 18 18 
04a6f     18 00 00 18 | 	byte	$18, $18, $18, $00, $00, $00, $00, $00, $00, $00, $18, $18, $18, $00, $00, $18
04a73     18 18 18 0C 
04a77     04 00 00 00 
04a7b     70 38 1C 0E 
04a7f     07 0E 1C 38 | 	byte	$18, $18, $18, $0c, $04, $00, $00, $00, $70, $38, $1c, $0e, $07, $0e, $1c, $38
04a83     70 00 00 00 
04a87     00 00 00 00 
04a8b     00 00 7E 7E 
04a8f     00 00 7E 7E | 	byte	$70, $00, $00, $00, $00, $00, $00, $00, $00, $00, $7e, $7e, $00, $00, $7e, $7e
04a93     00 00 00 00 
04a97     00 00 00 00 | 	byte	$00[8]
04a9b     0E 1C 38 70 
04a9f     E0 70 38 1C 
04aa3     0E 00 00 00 
04aa7     00 00 00 3C | 	byte	$0e, $1c, $38, $70, $e0, $70, $38, $1c, $0e, $00, $00, $00, $00, $00, $00, $3c
04aab     7E 66 66 30 
04aaf     30 18 18 18 
04ab3     00 18 18 00 
04ab7     00 00 00 3C | 	byte	$7e, $66, $66, $30, $30, $18, $18, $18, $00, $18, $18, $00, $00, $00, $00, $3c
04abb     7E 66 66 66 
04abf     66 36 06 66 
04ac3     66 7E 3C 00 
04ac7     00 00 00 18 | 	byte	$7e, $66, $66, $66, $66, $36, $06, $66, $66, $7e, $3c, $00, $00, $00, $00, $18
04acb     3C 7E 66 66 
04acf     66 7E 7E 66 
04ad3     66 66 66 00 
04ad7     00 00 00 3E | 	byte	$3c, $7e, $66, $66, $66, $7e, $7e, $66, $66, $66, $66, $00, $00, $00, $00, $3e
04adb     7E 66 66 7E 
04adf     3E 66 66 66 
04ae3     66 7E 3E 00 
04ae7     00 00 00 3C | 	byte	$7e, $66, $66, $7e, $3e, $66, $66, $66, $66, $7e, $3e, $00, $00, $00, $00, $3c
04aeb     7E 66 66 06 
04aef     06 06 06 66 
04af3     66 7E 3C 00 
04af7     00 00 00 3E | 	byte	$7e, $66, $66, $06, $06, $06, $06, $66, $66, $7e, $3c, $00, $00, $00, $00, $3e
04afb     7E 66 66 66 
04aff     66 66 66 66 
04b03     66 7E 3E 00 
04b07     00 00 00 7E | 	byte	$7e, $66, $66, $66, $66, $66, $66, $66, $66, $7e, $3e, $00, $00, $00, $00, $7e
04b0b     7E 06 06 3E 
04b0f     3E 06 06 06 
04b13     06 7E 7E 00 
04b17     00 00 00 7E | 	byte	$7e, $06, $06, $3e, $3e, $06, $06, $06, $06, $7e, $7e, $00, $00, $00, $00, $7e
04b1b     7E 06 06 3E 
04b1f     3E 06 06 06 
04b23     06 06 06 00 
04b27     00 00 00 7C | 	byte	$7e, $06, $06, $3e, $3e, $06, $06, $06, $06, $06, $06, $00, $00, $00, $00, $7c
04b2b     7E 06 06 76 
04b2f     76 66 66 66 
04b33     66 7E 3C 00 
04b37     00 00 00 66 | 	byte	$7e, $06, $06, $76, $76, $66, $66, $66, $66, $7e, $3c, $00, $00, $00, $00, $66
04b3b     66 66 66 7E 
04b3f     7E 66 66 66 
04b43     66 66 66 00 
04b47     00 00 00 7E | 	byte	$66, $66, $66, $7e, $7e, $66, $66, $66, $66, $66, $66, $00, $00, $00, $00, $7e
04b4b     7E 18 18 18 
04b4f     18 18 18 18 
04b53     18 7E 7E 00 
04b57     00 00 00 60 | 	byte	$7e, $18, $18, $18, $18, $18, $18, $18, $18, $7e, $7e, $00, $00, $00, $00, $60
04b5b     60 60 60 60 
04b5f     60 60 60    | 	byte	$60[7]
04b62     66 66 7E 3C 
04b66     00 00 00 00 
04b6a     66 66 36 36 
04b6e     1E 1E 36 36 | 	byte	$66, $66, $7e, $3c, $00, $00, $00, $00, $66, $66, $36, $36, $1e, $1e, $36, $36
04b72     66 66 C6 C6 
04b76     00 00 00 00 
04b7a     06 06 06 06 
04b7e     06 06 06 06 | 	byte	$66, $66, $c6, $c6, $00, $00, $00, $00, $06, $06, $06, $06, $06, $06, $06, $06
04b82     06 06 7E 7E 
04b86     00 00 00 00 
04b8a     C6 C6 EE EE 
04b8e     FE D6 D6 C6 | 	byte	$06, $06, $7e, $7e, $00, $00, $00, $00, $c6, $c6, $ee, $ee, $fe, $d6, $d6, $c6
04b92     C6 C6 C6 C6 
04b96     00 00 00 00 
04b9a     66 66 66 6E 
04b9e     6E 7E 7E 76 | 	byte	$c6, $c6, $c6, $c6, $00, $00, $00, $00, $66, $66, $66, $6e, $6e, $7e, $7e, $76
04ba2     76 66 66 66 
04ba6     00 00 00 00 
04baa     3C 7E 66 66 
04bae     66 66 66 66 | 	byte	$76, $66, $66, $66, $00, $00, $00, $00, $3c, $7e, $66, $66, $66, $66, $66, $66
04bb2     66 66 7E 3C 
04bb6     00 00 00 00 
04bba     3E 7E 66 66 
04bbe     66 66 7E 3E | 	byte	$66, $66, $7e, $3c, $00, $00, $00, $00, $3e, $7e, $66, $66, $66, $66, $7e, $3e
04bc2     06 06 06 06 
04bc6     00 00 00 00 
04bca     3C 7E 66 66 
04bce     66 66 66 66 | 	byte	$06, $06, $06, $06, $00, $00, $00, $00, $3c, $7e, $66, $66, $66, $66, $66, $66
04bd2     66 56 3E 6C 
04bd6     00 00 00 00 
04bda     3E 7E 66 66 
04bde     66 7E 3E 36 | 	byte	$66, $56, $3e, $6c, $00, $00, $00, $00, $3e, $7e, $66, $66, $66, $7e, $3e, $36
04be2     66 66 C6 C6 
04be6     00 00 00 00 
04bea     7C 7E 06 06 
04bee     0E 1C 38 70 | 	byte	$66, $66, $c6, $c6, $00, $00, $00, $00, $7c, $7e, $06, $06, $0e, $1c, $38, $70
04bf2     60 60 7E 3E 
04bf6     00 00 00 00 
04bfa     7E 7E 18 18 
04bfe     18 18 18 18 | 	byte	$60, $60, $7e, $3e, $00, $00, $00, $00, $7e, $7e, $18, $18, $18, $18, $18, $18
04c02     18 18 18 18 
04c06     00 00 00 00 
04c0a     66 66 66 66 
04c0e     66 66 66 66 | 	byte	$18, $18, $18, $18, $00, $00, $00, $00, $66, $66, $66, $66, $66, $66, $66, $66
04c12     66 66 7E 3C 
04c16     00 00 00 00 
04c1a     66 66 66 66 
04c1e     66 66 66 66 | 	byte	$66, $66, $7e, $3c, $00, $00, $00, $00, $66, $66, $66, $66, $66, $66, $66, $66
04c22     3C 3C 18 18 
04c26     00 00 00 00 
04c2a     C6 C6 C6 C6 
04c2e     C6 D6 D6 FE | 	byte	$3c, $3c, $18, $18, $00, $00, $00, $00, $c6, $c6, $c6, $c6, $c6, $d6, $d6, $fe
04c32     FE EE C6 82 
04c36     00 00 00 00 
04c3a     66 66 66 3C 
04c3e     3C 18 18 3C | 	byte	$fe, $ee, $c6, $82, $00, $00, $00, $00, $66, $66, $66, $3c, $3c, $18, $18, $3c
04c42     3C 66 66 66 
04c46     00 00 00 00 
04c4a     66 66 66 66 
04c4e     66 3C 3C 18 | 	byte	$3c, $66, $66, $66, $00, $00, $00, $00, $66, $66, $66, $66, $66, $3c, $3c, $18
04c52     18 18 18 18 
04c56     00 00 00 00 
04c5a     7E 7E 30 30 
04c5e     18 18 0C 0C | 	byte	$18, $18, $18, $18, $00, $00, $00, $00, $7e, $7e, $30, $30, $18, $18, $0c, $0c
04c62     06 06 7E 7E 
04c66     00 00 00 00 
04c6a     3C 3C 0C 0C 
04c6e     0C 0C 0C 0C | 	byte	$06, $06, $7e, $7e, $00, $00, $00, $00, $3c, $3c, $0c, $0c, $0c, $0c, $0c, $0c
04c72     0C 0C 3C 3C 
04c76     00 00 00 00 
04c7a     06 06 0C 0C 
04c7e     18 18 30 30 | 	byte	$0c, $0c, $3c, $3c, $00, $00, $00, $00, $06, $06, $0c, $0c, $18, $18, $30, $30
04c82     60 60 C0 C0 
04c86     00 00 00 00 
04c8a     3C 3C 30 30 
04c8e     30 30 30 30 | 	byte	$60, $60, $c0, $c0, $00, $00, $00, $00, $3c, $3c, $30, $30, $30, $30, $30, $30
04c92     30 30 3C 3C 
04c96     00 00 00 00 
04c9a     18 18 3C 3C 
04c9e     66 66 00 00 | 	byte	$30, $30, $3c, $3c, $00, $00, $00, $00, $18, $18, $3c, $3c, $66, $66, $00, $00
04ca2     00 00 00 00 
04ca6     00 00 00 00 
04caa     00 00 00 00 
04cae     00 00 00 00 
04cb2     00 00       | 	byte	$00[18]
04cb4     FE FE 00 00 
04cb8     00 00 0C 0C 
04cbc     18 18 00 00 
04cc0     00 00 00 00 | 	byte	$fe, $fe, $00, $00, $00, $00, $0c, $0c, $18, $18, $00, $00, $00, $00, $00, $00
04cc4     00 00 00 00 
04cc8     00 00 00 00 
04ccc     00          | 	byte	$00[9]
04ccd     3C 7C 60 7C 
04cd1     7E 66 66 7E 
04cd5     7C 00 00 00 
04cd9     00 06 06 06 | 	byte	$3c, $7c, $60, $7c, $7e, $66, $66, $7e, $7c, $00, $00, $00, $00, $06, $06, $06
04cdd     3E 7E 66 66 
04ce1     66 66 66 7E 
04ce5     3E 00 00 00 
04ce9     00 00 00 00 | 	byte	$3e, $7e, $66, $66, $66, $66, $66, $7e, $3e, $00, $00, $00, $00, $00, $00, $00
04ced     3C 3E 06 06 
04cf1     06 06 06 7E 
04cf5     7C 00 00 00 
04cf9     00 60 60 60 | 	byte	$3c, $3e, $06, $06, $06, $06, $06, $7e, $7c, $00, $00, $00, $00, $60, $60, $60
04cfd     7C 7E 66 66 
04d01     66 66 66 7E 
04d05     7C 00 00 00 
04d09     00 00 00 00 | 	byte	$7c, $7e, $66, $66, $66, $66, $66, $7e, $7c, $00, $00, $00, $00, $00, $00, $00
04d0d     3C 7E 66 66 
04d11     7E 06 06 7E 
04d15     7C 00 00 00 
04d19     00 70 78 18 | 	byte	$3c, $7e, $66, $66, $7e, $06, $06, $7e, $7c, $00, $00, $00, $00, $70, $78, $18
04d1d     18 7E 7E 18 
04d21     18 18 18 18 
04d25     18 00 00 00 
04d29     00 00 00 00 | 	byte	$18, $7e, $7e, $18, $18, $18, $18, $18, $18, $00, $00, $00, $00, $00, $00, $00
04d2d     7C 7E 66 66 
04d31     66 66 7E 7C 
04d35     60 7E 3E 00 
04d39     00 06 06 06 | 	byte	$7c, $7e, $66, $66, $66, $66, $7e, $7c, $60, $7e, $3e, $00, $00, $06, $06, $06
04d3d     3E 7E 66 66 
04d41     66 66 66 66 
04d45     66 00 00 00 
04d49     00 18 18 00 | 	byte	$3e, $7e, $66, $66, $66, $66, $66, $66, $66, $00, $00, $00, $00, $18, $18, $00
04d4d     1C 1C 18 18 
04d51     18 18 18 3C 
04d55     3C 00 00 00 
04d59     00 30 30 00 | 	byte	$1c, $1c, $18, $18, $18, $18, $18, $3c, $3c, $00, $00, $00, $00, $30, $30, $00
04d5d     30 30 30 30 
04d61     30 30 30 30 
04d65     30          | 	byte	$30[9]
04d66     3E 1E 00 00 
04d6a     06 06 06 36 
04d6e     36 1E 1E 1E 
04d72     36 36 66 66 | 	byte	$3e, $1e, $00, $00, $06, $06, $06, $36, $36, $1e, $1e, $1e, $36, $36, $66, $66
04d76     00 00 00 00 
04d7a     1C 1C 18 18 
04d7e     18 18 18 18 
04d82     18 18 3C 3C | 	byte	$00, $00, $00, $00, $1c, $1c, $18, $18, $18, $18, $18, $18, $18, $18, $3c, $3c
04d86     00 00 00 00 
04d8a     00 00 00    | 	byte	$00[7]
04d8d     6C FE FE D6 
04d91     D6 C6 C6 C6 
04d95     C6 00 00 00 
04d99     00 00 00 00 | 	byte	$6c, $fe, $fe, $d6, $d6, $c6, $c6, $c6, $c6, $00, $00, $00, $00, $00, $00, $00
04d9d     3E 7E 66 66 
04da1     66 66 66 66 
04da5     66 00 00 00 
04da9     00 00 00 00 | 	byte	$3e, $7e, $66, $66, $66, $66, $66, $66, $66, $00, $00, $00, $00, $00, $00, $00
04dad     3C 7E 66 66 
04db1     66 66 66 7E 
04db5     3C 00 00 00 
04db9     00 00 00 00 | 	byte	$3c, $7e, $66, $66, $66, $66, $66, $7e, $3c, $00, $00, $00, $00, $00, $00, $00
04dbd     3E 7E 66 66 
04dc1     66 66 66 7E 
04dc5     3E 06 06 00 
04dc9     00 00 00 00 | 	byte	$3e, $7e, $66, $66, $66, $66, $66, $7e, $3e, $06, $06, $00, $00, $00, $00, $00
04dcd     7C 7E 66 66 
04dd1     66 66 66 7E 
04dd5     7C 60 60 00 
04dd9     00 00 00 00 | 	byte	$7c, $7e, $66, $66, $66, $66, $66, $7e, $7c, $60, $60, $00, $00, $00, $00, $00
04ddd     3E 7E 66 06 
04de1     06 06 06 06 
04de5     06 00 00 00 
04de9     00 00 00 00 | 	byte	$3e, $7e, $66, $06, $06, $06, $06, $06, $06, $00, $00, $00, $00, $00, $00, $00
04ded     7C 7E 06 0E 
04df1     3C 70 60 7E 
04df5     3E 00 00 00 
04df9     00 00 18 18 | 	byte	$7c, $7e, $06, $0e, $3c, $70, $60, $7e, $3e, $00, $00, $00, $00, $00, $18, $18
04dfd     7E 7E 18 18 
04e01     18 18 18 78 
04e05     70 00 00 00 
04e09     00 00 00 00 | 	byte	$7e, $7e, $18, $18, $18, $18, $18, $78, $70, $00, $00, $00, $00, $00, $00, $00
04e0d     66 66 66 66 
04e11     66 66 66    | 	byte	$66[7]
04e14     7E 7C 00 00 
04e18     00 00 00 00 
04e1c     00 66 66 66 
04e20     66 66 3C 3C | 	byte	$7e, $7c, $00, $00, $00, $00, $00, $00, $00, $66, $66, $66, $66, $66, $3c, $3c
04e24     18 18 00 00 
04e28     00 00 00 00 
04e2c     00 C6 C6 D6 
04e30     D6 FE FE EE | 	byte	$18, $18, $00, $00, $00, $00, $00, $00, $00, $c6, $c6, $d6, $d6, $fe, $fe, $ee
04e34     C6 82 00 00 
04e38     00 00 00 00 
04e3c     00 66 66 3C 
04e40     3C 18 3C 3C | 	byte	$c6, $82, $00, $00, $00, $00, $00, $00, $00, $66, $66, $3c, $3c, $18, $3c, $3c
04e44     66 66 00 00 
04e48     00 00 00 00 
04e4c     00 66 66 66 
04e50     66 66 66 7E | 	byte	$66, $66, $00, $00, $00, $00, $00, $00, $00, $66, $66, $66, $66, $66, $66, $7e
04e54     7C 60 7E 3E 
04e58     00 00 00 00 
04e5c     00 7E 7E 30 
04e60     18 18 0C 0C | 	byte	$7c, $60, $7e, $3e, $00, $00, $00, $00, $00, $7e, $7e, $30, $18, $18, $0c, $0c
04e64     7E 7E 00 00 
04e68     00 00 30 18 
04e6c     18 18 18 0C 
04e70     0C 18 18 18 | 	byte	$7e, $7e, $00, $00, $00, $00, $30, $18, $18, $18, $18, $0c, $0c, $18, $18, $18
04e74     18 30 00 00 
04e78     00 00 18 18 
04e7c     18 18 18 18 
04e80     18 18 18 18 | 	byte	$18, $30, $00, $00, $00, $00, $18, $18, $18, $18, $18, $18, $18, $18, $18, $18
04e84     18 18 00 00 
04e88     00 00 0C 18 
04e8c     18 18 18 30 
04e90     30 18 18 18 | 	byte	$18, $18, $00, $00, $00, $00, $0c, $18, $18, $18, $18, $30, $30, $18, $18, $18
04e94     18 0C 00 00 
04e98     00 00 6C 7E 
04e9c     36 00 00 00 
04ea0     00 00 00 00 | 	byte	$18, $0c, $00, $00, $00, $00, $6c, $7e, $36, $00, $00, $00, $00, $00, $00, $00
04ea4     00 00 00 00 
04ea8     00 00 00 00 
04eac     00          | 	byte	$00[9]
04ead     18 18 18 18 
04eb1     18 18 00 00 
04eb5     00 00 00    | 	byte	$18, $18, $18, $18, $18, $18, $00, $00, $00, $00, $00
04eb8     00 00 00 00 
04ebc     00 FF FF FF | twocolors      long  $00000000,$FFFFFF00
04ec0     00 00 00 00 
04ec4     00 80 80 80 
04ec8     00 00 00 FF 
04ecc     00 FF FF FF | fourcolors     long  $00000000,$80808000,$FF000000,$FFFFFF00 'black,red,gray,white
04ed0     00 00 00 00 
04ed4     00          | vga16          long  $00000000,$00008000,$00800000,$00808000,$80000000,$80008000,$80400000,$AAAAAA00,$55555500,$0000FF00,$00FF0000,$00FFFF00,$FF000000,$FF00FF00,$FFFF0000,$FFFFFF00
04ed5     80 00 00 00 
04ed9     00 80 00 00 
04edd     80 80 00 00 
04ee1     00 00 80 00 | 	byte	$80, $00, $00, $00, $00, $80, $00, $00, $80, $80, $00, $00, $00, $00, $80, $00
04ee5     80 00 80 00 
04ee9     00 40 80 00 
04eed     AA AA AA 00 
04ef1     55 55 55 00 | 	byte	$80, $00, $80, $00, $00, $40, $80, $00, $aa, $aa, $aa, $00, $55, $55, $55, $00
04ef5     FF 00 00 00 
04ef9     00 FF 00 00 
04efd     FF FF 00 00 
04f01     00 00 FF 00 | 	byte	$ff, $00, $00, $00, $00, $ff, $00, $00, $ff, $ff, $00, $00, $00, $00, $ff, $00
04f05     FF 00 FF 00 
04f09     00 FF FF 00 
04f0d     FF FF FF    | 	byte	$ff, $00, $ff, $00, $00, $ff, $ff, $00, $ff, $ff, $ff
04f10     00 00 00 00 
04f14     00          | ataripalette   file "ataripalettep2.def"
04f15     11 11 11 00 
04f19     22 22 22 00 
04f1d     33 33 33 00 
04f21     44 44 44 00 | 	byte	$11, $11, $11, $00, $22, $22, $22, $00, $33, $33, $33, $00, $44, $44, $44, $00
04f25     55 55 55 00 
04f29     66 66 66 00 
04f2d     77 77 77 00 
04f31     88 88 88 00 | 	byte	$55, $55, $55, $00, $66, $66, $66, $00, $77, $77, $77, $00, $88, $88, $88, $00
04f35     99 99 99 00 
04f39     AA AA AA 00 
04f3d     BB BB BB 00 
04f41     CC CC CC 00 | 	byte	$99, $99, $99, $00, $aa, $aa, $aa, $00, $bb, $bb, $bb, $00, $cc, $cc, $cc, $00
04f45     DD DD DD 00 
04f49     EE EE EE 00 
04f4d     FF FF FF 00 
04f51     00 0A 20 00 | 	byte	$dd, $dd, $dd, $00, $ee, $ee, $ee, $00, $ff, $ff, $ff, $00, $00, $0a, $20, $00
04f55     00 14 40 00 
04f59     00 1E 60 00 
04f5d     00 28 80 00 
04f61     00 32 9F 00 | 	byte	$00, $14, $40, $00, $00, $1e, $60, $00, $00, $28, $80, $00, $00, $32, $9f, $00
04f65     00 3C BF 00 
04f69     00 46 DF 00 
04f6d     00 50 FF 00 
04f71     1C 63 FF 00 | 	byte	$00, $3c, $bf, $00, $00, $46, $df, $00, $00, $50, $ff, $00, $1c, $63, $ff, $00
04f75     39 77 FF 00 
04f79     55 8A FF 00 
04f7d     71 9E FF 00 
04f81     8E B1 FF 00 | 	byte	$39, $77, $ff, $00, $55, $8a, $ff, $00, $71, $9e, $ff, $00, $8e, $b1, $ff, $00
04f85     AA C5 FF 00 
04f89     C6 D8 FF 00 
04f8d     E3 EC FF 00 
04f91     00 00 20 00 | 	byte	$aa, $c5, $ff, $00, $c6, $d8, $ff, $00, $e3, $ec, $ff, $00, $00, $00, $20, $00
04f95     00 00 40 00 
04f99     00 00 60 00 
04f9d     00 00 80 00 
04fa1     00 00 9F 00 | 	byte	$00, $00, $40, $00, $00, $00, $60, $00, $00, $00, $80, $00, $00, $00, $9f, $00
04fa5     00 00 BF 00 
04fa9     00 00 DF 00 
04fad     00 00 FF 00 
04fb1     1C 1C FF 00 | 	byte	$00, $00, $bf, $00, $00, $00, $df, $00, $00, $00, $ff, $00, $1c, $1c, $ff, $00
04fb5     39 39 FF 00 
04fb9     55 55 FF 00 
04fbd     71 71 FF 00 
04fc1     8E 8E FF 00 | 	byte	$39, $39, $ff, $00, $55, $55, $ff, $00, $71, $71, $ff, $00, $8e, $8e, $ff, $00
04fc5     AA AA FF 00 
04fc9     C6 C6 FF 00 
04fcd     E3 E3 FF 00 
04fd1     10 00 20 00 | 	byte	$aa, $aa, $ff, $00, $c6, $c6, $ff, $00, $e3, $e3, $ff, $00, $10, $00, $20, $00
04fd5     20 00 40 00 
04fd9     30 00 60 00 
04fdd     40 00 80 00 
04fe1     50 00 9F 00 | 	byte	$20, $00, $40, $00, $30, $00, $60, $00, $40, $00, $80, $00, $50, $00, $9f, $00
04fe5     60 00 BF 00 
04fe9     70 00 DF 00 
04fed     80 00 FF 00 
04ff1     8E 1C FF 00 | 	byte	$60, $00, $bf, $00, $70, $00, $df, $00, $80, $00, $ff, $00, $8e, $1c, $ff, $00
04ff5     9C 39 FF 00 
04ff9     AA 55 FF 00 
04ffd     B8 71 FF 00 
05001     C7 8E FF 00 | 	byte	$9c, $39, $ff, $00, $aa, $55, $ff, $00, $b8, $71, $ff, $00, $c7, $8e, $ff, $00
05005     D5 AA FF 00 
05009     E3 C6 FF 00 
0500d     F1 E3 FF 00 
05011     20 00 20 00 | 	byte	$d5, $aa, $ff, $00, $e3, $c6, $ff, $00, $f1, $e3, $ff, $00, $20, $00, $20, $00
05015     40 00 40 00 
05019     60 00 60 00 
0501d     80 00 80 00 
05021     9F 00 9F 00 | 	byte	$40, $00, $40, $00, $60, $00, $60, $00, $80, $00, $80, $00, $9f, $00, $9f, $00
05025     BF 00 BF 00 
05029     DF 00 DF 00 
0502d     FF 00 FF 00 
05031     FF 1C FF 00 | 	byte	$bf, $00, $bf, $00, $df, $00, $df, $00, $ff, $00, $ff, $00, $ff, $1c, $ff, $00
05035     FF 39 FF 00 
05039     FF 55 FF 00 
0503d     FF 71 FF 00 
05041     FF 8E FF 00 | 	byte	$ff, $39, $ff, $00, $ff, $55, $ff, $00, $ff, $71, $ff, $00, $ff, $8e, $ff, $00
05045     FF AA FF 00 
05049     FF C6 FF 00 
0504d     FF E3 FF 00 
05051     20 00 10 00 | 	byte	$ff, $aa, $ff, $00, $ff, $c6, $ff, $00, $ff, $e3, $ff, $00, $20, $00, $10, $00
05055     40 00 20 00 
05059     60 00 30 00 
0505d     80 00 40 00 
05061     9F 00 50 00 | 	byte	$40, $00, $20, $00, $60, $00, $30, $00, $80, $00, $40, $00, $9f, $00, $50, $00
05065     BF 00 60 00 
05069     DF 00 70 00 
0506d     FF 00 80 00 
05071     FF 1C 8E 00 | 	byte	$bf, $00, $60, $00, $df, $00, $70, $00, $ff, $00, $80, $00, $ff, $1c, $8e, $00
05075     FF 39 9C 00 
05079     FF 55 AA 00 
0507d     FF 71 B8 00 
05081     FF 8E C7 00 | 	byte	$ff, $39, $9c, $00, $ff, $55, $aa, $00, $ff, $71, $b8, $00, $ff, $8e, $c7, $00
05085     FF AA D5 00 
05089     FF C6 E3 00 
0508d     FF E3 F1 00 
05091     20 00 00 00 | 	byte	$ff, $aa, $d5, $00, $ff, $c6, $e3, $00, $ff, $e3, $f1, $00, $20, $00, $00, $00
05095     40 00 00 00 
05099     60 00 00 00 
0509d     80 00 00 00 
050a1     9F 00 00 00 | 	byte	$40, $00, $00, $00, $60, $00, $00, $00, $80, $00, $00, $00, $9f, $00, $00, $00
050a5     BF 00 00 00 
050a9     DF 00 00 00 
050ad     FF 00 00 00 
050b1     FF 1C 1C 00 | 	byte	$bf, $00, $00, $00, $df, $00, $00, $00, $ff, $00, $00, $00, $ff, $1c, $1c, $00
050b5     FF 39 39 00 
050b9     FF 55 55 00 
050bd     FF 71 71 00 
050c1     FF 8E 8E 00 | 	byte	$ff, $39, $39, $00, $ff, $55, $55, $00, $ff, $71, $71, $00, $ff, $8e, $8e, $00
050c5     FF AA AA 00 
050c9     FF C6 C6 00 
050cd     FF E3 E3 00 
050d1     20 08 00 00 | 	byte	$ff, $aa, $aa, $00, $ff, $c6, $c6, $00, $ff, $e3, $e3, $00, $20, $08, $00, $00
050d5     40 10 00 00 
050d9     60 18 00 00 
050dd     80 20 00 00 
050e1     9F 28 00 00 | 	byte	$40, $10, $00, $00, $60, $18, $00, $00, $80, $20, $00, $00, $9f, $28, $00, $00
050e5     BF 30 00 00 
050e9     DF 38 00 00 
050ed     FF 40 00 00 
050f1     FF 55 1C 00 | 	byte	$bf, $30, $00, $00, $df, $38, $00, $00, $ff, $40, $00, $00, $ff, $55, $1c, $00
050f5     FF 6A 39 00 
050f9     FF 80 55 00 
050fd     FF 95 71 00 
05101     FF AA 8E 00 | 	byte	$ff, $6a, $39, $00, $ff, $80, $55, $00, $ff, $95, $71, $00, $ff, $aa, $8e, $00
05105     FF BF AA 00 
05109     FF D5 C6 00 
0510d     FF EA E3 00 
05111     20 10 00 00 | 	byte	$ff, $bf, $aa, $00, $ff, $d5, $c6, $00, $ff, $ea, $e3, $00, $20, $10, $00, $00
05115     40 20 00 00 
05119     60 30 00 00 
0511d     80 40 00 00 
05121     9F 50 00 00 | 	byte	$40, $20, $00, $00, $60, $30, $00, $00, $80, $40, $00, $00, $9f, $50, $00, $00
05125     BF 60 00 00 
05129     DF 70 00 00 
0512d     FF 80 00 00 
05131     FF 8E 1C 00 | 	byte	$bf, $60, $00, $00, $df, $70, $00, $00, $ff, $80, $00, $00, $ff, $8e, $1c, $00
05135     FF 9C 39 00 
05139     FF AA 55 00 
0513d     FF B8 71 00 
05141     FF C7 8E 00 | 	byte	$ff, $9c, $39, $00, $ff, $aa, $55, $00, $ff, $b8, $71, $00, $ff, $c7, $8e, $00
05145     FF D5 AA 00 
05149     FF E3 C6 00 
0514d     FF F1 E3 00 
05151     20 18 00 00 | 	byte	$ff, $d5, $aa, $00, $ff, $e3, $c6, $00, $ff, $f1, $e3, $00, $20, $18, $00, $00
05155     40 30 00 00 
05159     60 48 00 00 
0515d     80 60 00 00 
05161     9F 78 00 00 | 	byte	$40, $30, $00, $00, $60, $48, $00, $00, $80, $60, $00, $00, $9f, $78, $00, $00
05165     BF 90 00 00 
05169     DF A8 00 00 
0516d     FF C0 00 00 
05171     FF C7 1C 00 | 	byte	$bf, $90, $00, $00, $df, $a8, $00, $00, $ff, $c0, $00, $00, $ff, $c7, $1c, $00
05175     FF CE 39 00 
05179     FF D5 55 00 
0517d     FF DC 71 00 
05181     FF E3 8E 00 | 	byte	$ff, $ce, $39, $00, $ff, $d5, $55, $00, $ff, $dc, $71, $00, $ff, $e3, $8e, $00
05185     FF EA AA 00 
05189     FF F1 C6 00 
0518d     FF F8 E3 00 
05191     18 20 00 00 | 	byte	$ff, $ea, $aa, $00, $ff, $f1, $c6, $00, $ff, $f8, $e3, $00, $18, $20, $00, $00
05195     30 40 00 00 
05199     48 60 00 00 
0519d     60 80 00 00 
051a1     78 9F 00 00 | 	byte	$30, $40, $00, $00, $48, $60, $00, $00, $60, $80, $00, $00, $78, $9f, $00, $00
051a5     90 BF 00 00 
051a9     A8 DF 00 00 
051ad     C0 FF 00 00 
051b1     C7 FF 1C 00 | 	byte	$90, $bf, $00, $00, $a8, $df, $00, $00, $c0, $ff, $00, $00, $c7, $ff, $1c, $00
051b5     CE FF 39 00 
051b9     D5 FF 55 00 
051bd     DC FF 71 00 
051c1     E3 FF 8E 00 | 	byte	$ce, $ff, $39, $00, $d5, $ff, $55, $00, $dc, $ff, $71, $00, $e3, $ff, $8e, $00
051c5     EA FF AA 00 
051c9     F1 FF C6 00 
051cd     F8 FF E3 00 
051d1     00 20 00 00 | 	byte	$ea, $ff, $aa, $00, $f1, $ff, $c6, $00, $f8, $ff, $e3, $00, $00, $20, $00, $00
051d5     00 40 00 00 
051d9     00 60 00 00 
051dd     00 80 00 00 
051e1     00 9F 00 00 | 	byte	$00, $40, $00, $00, $00, $60, $00, $00, $00, $80, $00, $00, $00, $9f, $00, $00
051e5     00 BF 00 00 
051e9     00 DF 00 00 
051ed     00 FF 00 00 
051f1     1C FF 1C 00 | 	byte	$00, $bf, $00, $00, $00, $df, $00, $00, $00, $ff, $00, $00, $1c, $ff, $1c, $00
051f5     39 FF 39 00 
051f9     55 FF 55 00 
051fd     71 FF 71 00 
05201     8E FF 8E 00 | 	byte	$39, $ff, $39, $00, $55, $ff, $55, $00, $71, $ff, $71, $00, $8e, $ff, $8e, $00
05205     AA FF AA 00 
05209     C6 FF C6 00 
0520d     E3 FF E3 00 
05211     00 20 0A 00 | 	byte	$aa, $ff, $aa, $00, $c6, $ff, $c6, $00, $e3, $ff, $e3, $00, $00, $20, $0a, $00
05215     00 40 14 00 
05219     00 60 1E 00 
0521d     00 80 28 00 
05221     00 9F 32 00 | 	byte	$00, $40, $14, $00, $00, $60, $1e, $00, $00, $80, $28, $00, $00, $9f, $32, $00
05225     00 BF 3C 00 
05229     00 DF 46 00 
0522d     00 FF 50 00 
05231     1C FF 63 00 | 	byte	$00, $bf, $3c, $00, $00, $df, $46, $00, $00, $ff, $50, $00, $1c, $ff, $63, $00
05235     39 FF 77 00 
05239     55 FF 8A 00 
0523d     71 FF 9E 00 
05241     8E FF B1 00 | 	byte	$39, $ff, $77, $00, $55, $ff, $8a, $00, $71, $ff, $9e, $00, $8e, $ff, $b1, $00
05245     AA FF C5 00 
05249     C6 FF D8 00 
0524d     E3 FF EC 00 
05251     00 20 14 00 | 	byte	$aa, $ff, $c5, $00, $c6, $ff, $d8, $00, $e3, $ff, $ec, $00, $00, $20, $14, $00
05255     00 40 28 00 
05259     00 60 3C 00 
0525d     00 80 50 00 
05261     00 9F 64 00 | 	byte	$00, $40, $28, $00, $00, $60, $3c, $00, $00, $80, $50, $00, $00, $9f, $64, $00
05265     00 BF 78 00 
05269     00 DF 8C 00 
0526d     00 FF A0 00 
05271     1C FF AB 00 | 	byte	$00, $bf, $78, $00, $00, $df, $8c, $00, $00, $ff, $a0, $00, $1c, $ff, $ab, $00
05275     39 FF B5 00 
05279     55 FF C0 00 
0527d     71 FF CA 00 
05281     8E FF D5 00 | 	byte	$39, $ff, $b5, $00, $55, $ff, $c0, $00, $71, $ff, $ca, $00, $8e, $ff, $d5, $00
05285     AA FF DF 00 
05289     C6 FF EA 00 
0528d     E3 FF F4 00 
05291     00 20 20 00 | 	byte	$aa, $ff, $df, $00, $c6, $ff, $ea, $00, $e3, $ff, $f4, $00, $00, $20, $20, $00
05295     00 40 40 00 
05299     00 60 60 00 
0529d     00 80 80 00 
052a1     00 9F 9F 00 | 	byte	$00, $40, $40, $00, $00, $60, $60, $00, $00, $80, $80, $00, $00, $9f, $9f, $00
052a5     00 BF BF 00 
052a9     00 DF DF 00 
052ad     00 FF FF 00 
052b1     1C FF FF 00 | 	byte	$00, $bf, $bf, $00, $00, $df, $df, $00, $00, $ff, $ff, $00, $1c, $ff, $ff, $00
052b5     39 FF FF 00 
052b9     55 FF FF 00 
052bd     71 FF FF 00 
052c1     8E FF FF 00 | 	byte	$39, $ff, $ff, $00, $55, $ff, $ff, $00, $71, $ff, $ff, $00, $8e, $ff, $ff, $00
052c5     AA FF FF 00 
052c9     C6 FF FF 00 
052cd     E3 FF FF 00 
052d1     00 14 20 00 | 	byte	$aa, $ff, $ff, $00, $c6, $ff, $ff, $00, $e3, $ff, $ff, $00, $00, $14, $20, $00
052d5     00 28 40 00 
052d9     00 3C 60 00 
052dd     00 50 80 00 
052e1     00 64 9F 00 | 	byte	$00, $28, $40, $00, $00, $3c, $60, $00, $00, $50, $80, $00, $00, $64, $9f, $00
052e5     00 78 BF 00 
052e9     00 8C DF 00 
052ed     00 A0 FF 00 
052f1     1C AB FF 00 | 	byte	$00, $78, $bf, $00, $00, $8c, $df, $00, $00, $a0, $ff, $00, $1c, $ab, $ff, $00
052f5     39 B5 FF 00 
052f9     55 C0 FF 00 
052fd     71 CA FF 00 
05301     8E D5 FF 00 | 	byte	$39, $b5, $ff, $00, $55, $c0, $ff, $00, $71, $ca, $ff, $00, $8e, $d5, $ff, $00
05305     AA DF FF 00 
05309     C6 EA FF 00 
0530d     E3 F4 FF    | 	byte	$aa, $df, $ff, $00, $c6, $ea, $ff, $00, $e3, $f4, $ff
05310                 | '**********************************************************************************
05310                 | '
05310                 | '        Timings and colors definitions
05310                 | '
05310                 | '**********************************************************************************
05310                 | 
05310                 |    'streamer sets for text mode, to add to timings[0..5]
05310                 | 
05310                 | 
05310                 | '                     bf.hs, hs,  bf.vis  visible, lr bord, pixel, ud bord,  up p., vsync, down p., mode, cpl, scanlines,  clock,                  hubset                  total vis lines
05310     10 00 00 00 
05314     50 00 00 00 
05318     14 00 00 00 
0531c     00 04 00 00 | timings000      long   16,   80,    20,    1024,    112,     8,     48,      16,      16,    16,      0,  100,   480,     354693878,   %1_110000__11_0110_1100__1111_1011,   576
05320     70 00 00 00 
05324     08 00 00 00 
05328     30 00 00 00 
0532c     10 00 00 00 | 	byte	$70, $00, $00, $00, $08, $00, $00, $00, $30, $00, $00, $00, $10, $00, $00, $00
05330     10 00 00 00 
05334     10 00 00 00 
05338     00 00 00 00 
0533c     64 00 00 00 | 	byte	$10, $00, $00, $00, $10, $00, $00, $00, $00, $00, $00, $00, $64, $00, $00, $00
05340     E0 01 00 00 
05344     F6 32 24 15 
05348     FB 6C C3 01 
0534c     40 02 00 00 | 	byte	$e0, $01, $00, $00, $f6, $32, $24, $15, $fb, $6c, $c3, $01, $40, $02, $00, $00
05350     12 00 00 00 
05354     30 00 00 00 
05358     10 00 00 00 
0535c     B0 03 00 00 | timings064      long   18,   48,    16,     944,     24,     8,     24,      24,      32,    24,     64,  112,   496,     319215686,   %1_110010__11_0010_1101__1111_1011,   544
05360     18 00 00 00 
05364     08 00 00 00 
05368     18 00 00 00 
0536c     18 00 00 00 | 	byte	$18, $00, $00, $00, $08, $00, $00, $00, $18, $00, $00, $00, $18, $00, $00, $00
05370     20 00 00 00 
05374     18 00 00 00 
05378     40 00 00 00 
0537c     70 00 00 00 | 	byte	$20, $00, $00, $00, $18, $00, $00, $00, $40, $00, $00, $00, $70, $00, $00, $00
05380     F0 01 00 00 
05384     46 D8 06 13 
05388     FB 2D CB 01 
0538c     20 02 00 00 | 	byte	$f0, $01, $00, $00, $46, $d8, $06, $13, $fb, $2d, $cb, $01, $20, $02, $00, $00
05390     10 00 00 00 
05394     40 00 00 00 
05398     10 00 00 00 
0539c     30 03 00 00 | timings128      long   16,   64,    16,     816,      8,     8,     8,       32,      64,    32,    128,  100,   480,     283750000,   %1_111111__11_1000_1011__1111_1011,   496
053a0     08 00 00 00 
053a4     08 00 00 00 
053a8     08 00 00 00 
053ac     20 00 00 00 | 	byte	$08, $00, $00, $00, $08, $00, $00, $00, $08, $00, $00, $00, $20, $00, $00, $00
053b0     40 00 00 00 
053b4     20 00 00 00 
053b8     80 00 00 00 
053bc     64 00 00 00 | 	byte	$40, $00, $00, $00, $20, $00, $00, $00, $80, $00, $00, $00, $64, $00, $00, $00
053c0     E0 01 00 00 
053c4     70 AE E9 10 
053c8     FB 8B FF 01 
053cc     F0 01 00 00 | 	byte	$e0, $01, $00, $00, $70, $ae, $e9, $10, $fb, $8b, $ff, $01, $f0, $01, $00, $00
053d0     10 00 00 00 
053d4     50 00 00 00 
053d8     14 00 00 00 
053dc     00 04 00 00 | timings192      long   16,   80,    20,    1024,      0,     8,     0,       16,      16,    16,    192,  128,   576,     354693878,   %1_110000__11_0110_1100__1111_1011,   576
053e0     00 00 00 00 
053e4     08 00 00 00 
053e8     00 00 00 00 
053ec     10 00 00 00 | 	byte	$00, $00, $00, $00, $08, $00, $00, $00, $00, $00, $00, $00, $10, $00, $00, $00
053f0     10 00 00 00 
053f4     10 00 00 00 
053f8     C0 00 00 00 
053fc     80 00 00 00 | 	byte	$10, $00, $00, $00, $10, $00, $00, $00, $c0, $00, $00, $00, $80, $00, $00, $00
05400     40 02 00 00 
05404     F6 32 24 15 
05408     FB 6C C3 01 
0540c     40 02 00 00 | 	byte	$40, $02, $00, $00, $f6, $32, $24, $15, $fb, $6c, $c3, $01, $40, $02, $00, $00
05410     50 00 00 00 
05414     A0 00 00 00 
05418     54 00 00 00 
0541c     30 03 00 00 | timings256      long   80,  160,    84,     816,      8,     8,     8,        8,      12,     8,    256,  100,   480,     357959184,   %1_110000__11_0110_0100__1111_1011,   496
05420     08 00 00 00 
05424     08 00 00 00 
05428     08 00 00 00 
0542c     08 00 00 00 | 	byte	$08, $00, $00, $00, $08, $00, $00, $00, $08, $00, $00, $00, $08, $00, $00, $00
05430     0C 00 00 00 
05434     08 00 00 00 
05438     00 01 00 00 
0543c     64 00 00 00 | 	byte	$0c, $00, $00, $00, $08, $00, $00, $00, $00, $01, $00, $00, $64, $00, $00, $00
05440     E0 01 00 00 
05444     10 06 56 15 
05448     FB 64 C3 01 
0544c     F0 01 00 00 | 	byte	$e0, $01, $00, $00, $10, $06, $56, $15, $fb, $64, $c3, $01, $f0, $01, $00, $00
05450     50 00 00 00 
05454     32 00 00 00 
05458     50 00 00 00 
0545c     30 03 00 00 | timings320      long   80,   50,    80,     816,      8,     8,     8,        8,      12,     8,    320,  100,   480,     322162162,   %1_100100__10_0101_0011__1111_1011,   496
05460     08 00 00 00 
05464     08 00 00 00 
05468     08 00 00 00 
0546c     08 00 00 00 | 	byte	$08, $00, $00, $00, $08, $00, $00, $00, $08, $00, $00, $00, $08, $00, $00, $00
05470     0C 00 00 00 
05474     08 00 00 00 
05478     40 01 00 00 
0547c     64 00 00 00 | 	byte	$0c, $00, $00, $00, $08, $00, $00, $00, $40, $01, $00, $00, $64, $00, $00, $00
05480     E0 01 00 00 
05484     F2 CD 33 13 
05488     FB 53 92 01 
0548c     F0 01 00 00 | 	byte	$e0, $01, $00, $00, $f2, $cd, $33, $13, $fb, $53, $92, $01, $f0, $01, $00, $00
05490     18 00 00 00 
05494     30 00 00 00 
05498     18 00 00 00 
0549c     30 03 00 00 | timings384      long   24,   48,    24,     816,      8,     8,     8,        8,      12,     8,    384,  100,   480,     286363636,   %1_010101__01_0011_1010__1111_1011,   496
054a0     08 00 00 00 
054a4     08 00 00 00 
054a8     08 00 00 00 
054ac     08 00 00 00 | 	byte	$08, $00, $00, $00, $08, $00, $00, $00, $08, $00, $00, $00, $08, $00, $00, $00
054b0     0C 00 00 00 
054b4     08 00 00 00 
054b8     80 01 00 00 
054bc     64 00 00 00 | 	byte	$0c, $00, $00, $00, $08, $00, $00, $00, $80, $01, $00, $00, $64, $00, $00, $00
054c0     E0 01 00 00 
054c4     F4 8F 11 11 
054c8     FB 3A 55 01 
054cc     F0 01 00 00 | 	byte	$e0, $01, $00, $00, $f4, $8f, $11, $11, $fb, $3a, $55, $01, $f0, $01, $00, $00
054d0     20 00 00 00 
054d4     40 00 00 00 
054d8     22 00 00 00 
054dc     80 03 00 00 | timings448      long   32,   64,    34,     896,      0,     8,     0,        8,      12,     8,    448,  112,   496,     322162162,   %1_100100__10_0101_0011__1111_1011,   496
054e0     00 00 00 00 
054e4     08 00 00 00 
054e8     00 00 00 00 
054ec     08 00 00 00 | 	byte	$00, $00, $00, $00, $08, $00, $00, $00, $00, $00, $00, $00, $08, $00, $00, $00
054f0     0C 00 00 00 
054f4     08 00 00 00 
054f8     C0 01 00 00 
054fc     70 00 00 00 | 	byte	$0c, $00, $00, $00, $08, $00, $00, $00, $c0, $01, $00, $00, $70, $00, $00, $00
05500     F0 01 00 00 
05504     F2 CD 33 13 
05508     FB 53 92 01 
0550c     F0 01 00 00 | 	byte	$f0, $01, $00, $00, $f2, $cd, $33, $13, $fb, $53, $92, $01, $f0, $01, $00, $00
05510                 | 'timings999      long    0,    0,     0,       0,      0,     0,     0,        0,       0,     0,      0,    0,     0,             0,                                    0,     0
05510     00 75 C7 97 
05514     27 47 F6 0A 
05518     05 79 CB 9B 
0551c     2B 4B EA 0F | vgacolors       byte   0, 117, 199, 151, 39, 71, 246, 10, 5, 121, 203, 155, 43, 75, 234, 15
05520                 | 
05520     28 12 64 FD | hdmi            setq    #9
05524     00 E1 06 FB |                 rdlong  framebuf,  ptra                  'read pointers
05528                 | 
05528     00 28 6F FC |                 wrlong  #aend,#0                         'write driver length to hub#0: DEBUG/demo
0552c     3C 00 66 FD |                 setcmod #$100                            'enable HDMI mode
05530     C0 FB 06 F6 |                 mov     ii,#448                          '7 << 6          
05534     79 FB 02 F1 |                 add     ii,hbase
05538     58 FA 62 FD |                 drvl    ii                                 '#7<<6 + hdmi_base      ' enable HDMI pins
0553c     7B 0B 80 FF 
05540     7D 01 0B FC |                 wrpin   ##%10110_1111_0111_10_00000_0, ii  '#7<<6 + hdmi_base      ' a '123 ohm BITDAC for pins
05544                 | 
05544     66 66 86 FF 
05548     1D 9A 65 FD |                 setxfrq ##$0CCCCCCC+1                   'set streamer freq to 1/10th clk
0554c                 | 
0554c                 | 
0554c                 | ''--------  frame rendering main loop  ---------------------------------------------------
0554c                 | 
0554c                 | p101
0554c     28 14 64 FD |                 setq    #10
05550     00 E1 06 FB |                 rdlong  framebuf,  ptra
05554     28 1E 64 FD |                 setq    #15
05558     75 9D 02 FB |                 rdlong  m_bs,modeptr                     ' read timings
0555c     72 9B 02 FB |                 rdlong  border,borderptr
05560                 | 
05560     01 C6 06 F1 |                 add     frames,#1
05564     77 F7 02 F6 |                 mov     dlptr2,dlptr
05568                 | 
05568     74 C9 02 FB |                 rdlong  cursorx, cursorptr               ' read cursor position
0556c     64 CB EA F8 |                 getbyte cursory, cursorx,#1              ' y position at byte #1
05570     64 C5 F2 F8 |                 getbyte cursorsh,cursorx,#2              ' shape at byte #2
05574     FF C8 06 F5 |                 and     cursorx,#255                     ' clear the cursor x varioble from y and shape
05578                 |  '' up porch
05578                 | 
05578     49 FF 02 F6 |                 mov     hsync0,sync_000                  '
0557c     4A 01 03 F6 |                 mov     hsync1,sync_001
05580     37 AA 46 FB |                 callpa  i_upporch ,#blank
05584     73 01 68 FC |                 wrlong  #0,vblankptr
05588                 |                 
05588     1F EC 16 F4 |                 testb   paletteptr,#31 wc
0558c     29 FE 65 3D |          if_nc  setq2   #255
05590     76 01 00 3B |          if_nc  rdlong  $000, paletteptr                'read palette
05594                 | 
05594                 | '' cursor blinking
05594                 | 
05594     04 C6 0E F4 |                 testb   frames,#4 wz                     ' cursor blinks at framerate/16, todo: define
05598     81 C8 06 A6 |          if_z   mov     cursorx,#129                     ' to switch the cursor off, move it out of the screen
0559c                 | 
0559c                 | '' main screen
0559c                 | 
0559c     00 C0 06 F6 |                 mov linenum,#0
055a0     00 1A 07 F6 |                 mov rcnt,#0
055a4     00 1E 07 F6 |                 mov rcnt2a,#0
055a8                 | 
055a8                 | 
055a8     00 1A 0F F2 | p301            cmp rcnt,#0 wz
055ac     18 00 90 AD |         if_z    jmp #p306
055b0     01 1A 87 F1 |                 sub rcnt,#1
055b4     91 F9 02 F6 |                 mov dl,rdl
055b8     8E 1F 0B F7 |                incmod rcnt2a,rcnt2 wz
055bc     90 F9 02 A1 |    if_z        add dl,roffset  
055c0     7C 23 03 F6 |                 mov rdl,dl
055c4     04 00 90 FD |                 jmp #p307          
055c8                 |           
055c8                 |                 
055c8     7B F9 02 FB | p306            rdlong  dl,dlptr2
055cc     7C FD 1A F6 | p307            mov     framebuf2,dl wcz                  'read a line start in the framebuffer from DL entry
055d0     6A FC 7A FD |                 rczr    framebuf2 wcz                     'but only if not %11 at lowest bits which means special DL entry
055d4     34 00 90 7D |    if_nz_or_nc  jmp     #p303                        
055d8                 | 
055d8                 | '' Special entry:
055d8                 | '' - repeat                 %nnnn_nnnn_nnnn_qqqq_mmmm_mmmm_mmmm_0111    repeat the next dl line n times, after q lines add offset m
055d8                 | '' - reload palette         %mmmm_mmmm_nnnn_nnnn_qqqq_qqqq_qqqq_1011    reload n palette entries from m color from palette_ptr+q
055d8                 | '' - set border color       %rrrr_rrrr_gggg_gggg_bbbb_bbbb_0001_0011    set border to rgb
055d8                 | '' - set border color       %0000_0000_0000_0000_pppp_pppp_0001_1011    set border color to palette entry #p
055d8                 | '' todo: set horizontal scroll (if needed)
055d8                 | 
055d8     02 FC 66 F0 |                 shl framebuf2,#2
055dc     7E 25 43 F8 |                 getnib dlc,framebuf2,#0
055e0     04 24 0F F2 |                 cmp dlc,#%100 wz
055e4                 |   
055e4                 |                 
055e4     04 F6 06 F1 |                 add dlptr2,#4
055e8     BC FF 9F 5D |                              if_nz  jmp #p301  '' now ignore unknown instruction 
055ec     7B 23 03 FB |                  rdlong rdl,dlptr2
055f0     7E 1B 3B F9 |                  getword rcnt,framebuf2,#1 
055f4     04 1A 47 F0 |                  shr rcnt,#4
055f8                 |              
055f8     7E 1D 63 F8 |                  getnib rcnt2,framebuf2,#4
055fc     7E 21 33 F9 |                  getword roffset,framebuf2,#0
05600                 |                 
05600     04 20 47 F0 |                  shr roffset,#4
05604     0C 20 67 F0 |                  shl roffset,#12
05608                 |   
05608     9C FF 9F FD |                  jmp #p301
0560c                 |                  
0560c                 |                  
0560c                 | p303           ' mov     framebuf2,dl                    ' read a line start in the framebuffer from DL entry
0560c     0C FC 46 F0 |                 shr     framebuf2,#12
05610     02 FC 66 F0 |                 shl     framebuf2,#2
05614                 | 
05614     7C 05 E3 F8 |                 getbyte t1,dl,#0
05618     00 04 0F F2 |                 cmp     t1,#0 wz
0561c     34 00 90 AD |     if_z        jmp     #borderline
05620                 | 
05620     00 F8 16 F4 |                  testb   dl,#0  wc     ' bit 0 set = text OR extended:TODO
05624     50 00 90 CD |           if_c   jmp     #textline
05628     50 02 90 3D |           if_nc  jmp     #graphline
0562c                 | '
0562c     01 C0 06 F1 | p302            add     linenum,#1
05630     04 F6 06 F1 |                 add     dlptr2,#4
05634     5D C1 0A F2 |                 cmp     linenum,i_totalvis  wz
05638     6C FF 9F 5D |          if_nz  jmp     #p301
0563c                 | 
0563c     73 03 68 FC | p112            wrlong  #1,vblankptr
05640     07 AE 46 FB |                 callpa  i_downporch ,#blank             'bottom blanks
05644                 | 
05644     4B FF 02 F6 |                 mov     hsync0,sync_222                 'vsync on
05648     4C 01 03 F6 |                 mov     hsync1,sync_223
0564c     04 AC 46 FB |                 callpa  i_vsync,#blank                  'vertical sync blanks
05650     F8 FE 9F FD |                 jmp     #p101
05654                 | 
05654                 | '' ---------------  END of frame rendering loop -------------------------------------------
05654                 | 
05654                 | 
05654     14 00 B0 FD | borderline      call    #hsync                      ' make a border
05658     4D A3 C2 FC |                 xcont   m_vi,border
0565c     CC FF 9F FD |                 jmp     #p302
05660                 | 
05660                 | 
05660     08 00 B0 FD | blank           call    #hsync                          'blank lines
05664     7F A3 C2 FC |                 xcont   m_vi,hsync0
05668     FD ED 6F 0B |         _ret_   djnz    pa,#blank
0566c                 | 
0566c     7F 9D C2 FC | hsync           xcont   m_bs,hsync0                     'horizontal sync
05670     80 9F B2 FC |                 xzero   m_sn,hsync1
05674     7F A1 C2 0C |         _ret_   xcont   m_bv,hsync0
05678                 | 
05678                 | 
05678                 | 
05678                 | ''--%aaaa_aaaa_aaaa_aaaa_aazz_nnnn_llll_ll_01 - txt
05678                 |   '' aaaa_aaaa_aaaa_aaaa_aazz_rrrr_rrrr_cc_10 - graph
05678                 |   '' aaaa_aaaa_aaaa-aaaa_aarr_rrrr_rrrr_rr_11 - extended, next long to read
05678                 | 
05678                 | '' Display a text line DL[31..12]=addr, nibble #1=textline, zoom: todo
05678                 | 
05678     64 CF 02 F6 | textline        mov     cursorpos2,cursorx              ' we need another var for cursor as this code will repeat 16x for every char line
0567c                 | 
0567c     7C 03 53 F8 |                 getnib  fontline,dl,#2                 ' fontline is 0 to 15, a line in font def
05680     7C 19 5B F8 |                 getnib  zoom, dl,#3
05684     03 18 07 F5 |                 and             zoom, #3
05688                 | 
05688                 | 
05688                 | 
05688     7C BF 02 F6 |                 mov     linestart,dl                    ' linestart will be used for checking cursor y and compute line start addr in the buffer
0568c     02 BE 46 F0 |                 shr     linestart,#2                    ' scanline to char line
05690     3F BE 06 F5 |                 and     linestart,#63
05694     65 BF 0A F2 |                 cmp     linestart,cursory wz            ' if the cursor is not here
05698     81 CE 06 56 |           if_nz mov     cursorpos2,#129                 ' move it out of the screen
0569c                 | 
0569c     CC FF BF FD |                 call    #hsync                          ' now call hsync to gain some time between xconts
056a0                 | 
056a0                 |                        ' if fontline =0, get a border color
056a0                 | 
056a0     52 05 33 F9 | p102            getword t1,m_border,#0
056a4     00 04 0F F2 |                 cmp     t1, #0 wz
056a8     4D A5 C2 5C |           if_nz xcont   m_border,border                 ' display a left border if exists
056ac                 | 
056ac     62 03 1B F2 |                 cmp     fontline,cursorsh wcz           ' if the cursor have to be not displayed due to its shape
056b0     81 CC 06 C6 |           if_c  mov     cursorpos,#129                  ' move it out of the screen
056b4     67 CD 02 36 |          if_nc  mov     cursorpos,cursorpos2
056b8     01 CC 06 F1 |                 add     cursorpos,#1                    ' we will substract #1 below so compensate this here
056bc     71 07 03 F6 |                 mov     t2,fontbuf                      ' font definition pointer
056c0     81 07 03 F1 |                 add     t2,fontline                     ' add a current font line
056c4     53 BD 02 F6 |                 mov m_lut2, m_lut1
056c8     6B BD 02 F1 |                 add m_lut2, lutt1
056cc     59 11 03 F6 |                 mov cpl2,i_cpl
056d0                 | 
056d0     02 18 0F F2 |                cmp zoom,#2 wz
056d4     E4 00 90 AD |           if_z jmp #p420
056d8     01 18 0F F2 |                cmp zoom,#1 wz
056dc     64 00 90 AD |           if_z jmp #p410
056e0     00 18 0F F2 |                 cmp zoom,#0 wz
056e4     04 00 90 AD |           if_z jmp #p400
056e8     50 01 90 FD |                jmp #p430
056ec                 | 
056ec                 |                    '
056ec                 |  ''---------------------------------------------------------------------------------------------------------
056ec     7E 13 03 FB |  p400                   rdlong  char,framebuf2          ' read a long char                          '1
056f0     89 15 F3 F8 |                         getbyte backcolor,char,#2       ' byte #2 - background color                '2
056f4     89 17 FB F8 |                         getbyte charcolor,char,#3       ' byte #3 - foreground color                '3
056f8     89 13 E3 F8 |                         getbyte char,char, #0           ' word #0 - char code                       '4
056fc     04 FC 06 F1 |                         add     framebuf2,#4            ' point to the next long                    '5
05700     04 12 67 F0 |                         shl     char,#4                 ' 1 char=16 bytes in font def               '6
05704     83 13 03 F1 |                         add     char,t2                 ' add this to font/line pointer             '7
05708     89 05 C3 FA |                         rdbyte  t1,char                 ' and get 8 pixels prom there               '8
0570c     01 CC 8E F1 |                         sub     cursorpos,#1 wz         ' if there is a cursor                      '9
05710     FF 04 67 A5 |                   if_z  xor     t1, #$FF                ' reverse the colors                        '10
05714                 | 
05714     82 BD C2 FC |                         xcont m_lut2,t1
05718                 | 
05718     8A 0D A3 FA |                         rdlut   t5,backcolor            ' read a background color from palette      '13
0571c     61 0D 33 FC |                         wrlut   t5,lutaddr              ' and write it to LUT #0 or #32             '14
05720     01 C2 06 F1 |                         add     lutaddr,#1                                                          '15
05724     8B 0D A3 FA |                         rdlut   t5,charcolor            ' the same for the foreground               '16
05728     61 0D 33 FC |                         wrlut   t5,lutaddr                                                          '17
0572c     01 C2 86 F1 |                         sub     lutaddr,#1
05730                 | 
05730     10 BC E6 F4 |                         bitnot  m_lut2,#16                                                          '19
05734     10 A6 E6 F4 |                         bitnot  m_lut1,#16                                                          '19
05738     20 C2 66 F5 |                         xor     lutaddr,#32             ' use LUT #0-1 and 32-33                    '20
0573c                 | 
0573c     EB 11 6F FB |                         djnz   cpl2,#p400
05740     28 01 90 FD |  p401                   jmp    #p103
05744                 | 
05744                 | ''------------------------------------------------------------------------------------------------------------
05744                 | 
05744     01 10 47 F0 |  p410                   shr cpl2,#1
05748                 | 
05748                 | ''---------------------------------------------------------------------------------------------------------
05748     7E 13 03 FB |  p412                   rdlong  char,framebuf2          ' read a long char                          '1
0574c     89 15 F3 F8 |                         getbyte backcolor,char,#2       ' byte #2 - background color                '2
05750     89 17 FB F8 |                         getbyte charcolor,char,#3       ' byte #3 - foreground color                '3
05754     89 13 E3 F8 |                         getbyte char,char, #0           ' word #0 - char code                       '4
05758     04 FC 06 F1 |                         add     framebuf2,#4            ' point to the next long                    '5
0575c     04 12 67 F0 |                         shl     char,#4                 ' 1 char=16 bytes in font def               '6
05760     83 13 03 F1 |                         add     char,t2                 ' add this to font/line pointer             '7
05764     89 05 C3 FA |                         rdbyte  t1,char                 ' and get 8 pixels prom there               '8
05768     01 CC 8E F1 |                         sub     cursorpos,#1 wz         ' if there is a cursor                      '9
0576c     FF 04 67 A5 |                   if_z  xor     t1, #$FF                ' reverse the colors                        '10
05770                 | 
05770                 | 
05770     82 09 4B F8 |                         getnib t3,t1,#1                   ' 4 pixels to t3                                              '1  - +
05774     82 05 43 F8 |                         getnib t1,t1,#0                   ' 4 pixels to t1                                                      '2  - +
05778     63 04 63 FD |                         mergew t1                         ' make 01010101 from 1111                                     '3  - +
0577c     03 04 07 FA |                         mul t1,#3
05780     82 BD C2 FC |                         xcont m_lut2,t1
05784     8A 0D A3 FA |                         rdlut   t5,backcolor            ' read a background color from palette      '13
05788     61 0D 33 FC |                         wrlut   t5,lutaddr              ' and write it to LUT #0 or #32             '14
0578c     01 C2 06 F1 |                         add     lutaddr,#1                                                          '15
05790     8B 0D A3 FA |                         rdlut   t5,charcolor            ' the same for the foreground               '16
05794     61 0D 33 FC |                         wrlut   t5,lutaddr                                                          '17
05798     01 C2 86 F1 |                         sub     lutaddr,#1
0579c     63 08 63 FD |                         mergew t3
057a0     03 08 07 FA |                         mul t3,#3
057a4     84 BD C2 FC |                         xcont m_lut2,t3
057a8                 | 
057a8     10 BC E6 F4 |                         bitnot  m_lut2,#16                                                          '19
057ac     10 A6 E6 F4 |                         bitnot  m_lut1,#16                                                          '19
057b0                 | 
057b0     20 C2 66 F5 |                         xor     lutaddr,#32             ' use LUT #0-1 and 32-33                    '20
057b4                 | 
057b4     E4 11 6F FB |                         djnz   cpl2,#p412
057b8     B0 00 90 FD |  p411                   jmp    #p103
057bc                 | 
057bc                 | ''------------------------------------------------------------------------------------------------------------
057bc                 | 
057bc     02 10 47 F0 |  p420                   shr cpl2,#2
057c0                 | 
057c0                 | ''---------------------------------------------------------------------------------------
057c0     7E 13 03 FB |  p422                   rdlong  char,framebuf2          ' read a long char                          '1
057c4     89 15 F3 F8 |                         getbyte backcolor,char,#2       ' byte #2 - background color                '2
057c8     89 17 FB F8 |                         getbyte charcolor,char,#3       ' byte #3 - foreground color                '3
057cc     89 13 E3 F8 |                         getbyte char,char, #0           ' word #0 - char code                       '4
057d0     04 FC 06 F1 |                         add     framebuf2,#4            ' point to the next long                    '5
057d4     04 12 67 F0 |                         shl     char,#4                 ' 1 char=16 bytes in font def               '6
057d8     83 13 03 F1 |                         add     char,t2                 ' add this to font/line pointer             '7
057dc     89 05 C3 FA |                         rdbyte  t1,char                 ' and get 8 pixels prom there               '8
057e0     01 CC 8E F1 |                         sub     cursorpos,#1 wz         ' if there is a cursor                      '9
057e4     FF 04 67 A5 |                   if_z  xor     t1, #$FF                ' reverse the colors                        '10
057e8                 | 
057e8     61 04 63 FD |                         mergeb t1
057ec     82 09 3B F9 |                         getword t3,t1,#1
057f0     0F 04 07 FA |                         mul t1,#15
057f4     82 BD C2 FC |                         xcont m_lut2,t1
057f8                 | 
057f8     8A 0D A3 FA |                         rdlut   t5,backcolor            ' read a background color from palette      '13
057fc     61 0D 33 FC |                         wrlut   t5,lutaddr              ' and write it to LUT #0 or #32             '14
05800     01 C2 06 F1 |                         add     lutaddr,#1                                                          '15
05804     8B 0D A3 FA |                         rdlut   t5,charcolor            ' the same for the foreground               '16
05808     61 0D 33 FC |                         wrlut   t5,lutaddr                                                          '17
0580c     01 C2 86 F1 |                         sub     lutaddr,#1
05810                 | 
05810     82 0B EB F8 |                         getbyte t4,t1,#1        '
05814     85 BD C2 FC |                         xcont m_lut2,t4                                                                                                           '
05818                 | 
05818     0F 08 07 FA |                         mul t3,#15
0581c     84 BD C2 FC |                         xcont m_lut2,t3
05820                 | 
05820     84 0D EB F8 |                         getbyte t5,t3,#1
05824     86 BD C2 FC |                         xcont m_lut2, t5
05828     10 BC E6 F4 |                         bitnot  m_lut2,#16                                                          '19
0582c     10 A6 E6 F4 |                         bitnot  m_lut1,#16                                                          '19
05830                 | 
05830     20 C2 66 F5 |                         xor     lutaddr,#32             ' use LUT #0-1 and 32-33                    '20
05834                 | 
05834     E2 11 6F FB |                         djnz   cpl2,#p422
05838     30 00 90 FD |  p421                   jmp    #p103
0583c                 | 
0583c                 | '--------------------------------------------------------------------------------------------------------------
0583c                 | 
0583c     7E 13 03 FB |  p430                   rdlong  char,framebuf2          ' read a long char                          '1
05840     89 15 F3 F8 |                         getbyte backcolor,char,#2       ' byte #2 - background color                '2
05844     89 17 FB F8 |                         getbyte charcolor,char,#3       ' byte #3 - foreground color                '3
05848                 | 
05848     00 BC C6 FC |                         xcont m_lut2,#0
0584c                 | 
0584c     8A 0D A3 FA |                         rdlut   t5,backcolor            ' read a background color from palette      '13
05850     61 0D 33 FC |                         wrlut   t5,lutaddr              ' and write it to LUT #0 or #32             '14
05854     01 C2 06 F1 |                         add     lutaddr,#1                                                          '15
05858     8B 0D A3 FA |                         rdlut   t5,charcolor            ' the same for the foreground               '16
0585c     61 0D 33 FC |                         wrlut   t5,lutaddr                                                          '17
05860     01 C2 86 F1 |                         sub     lutaddr,#1
05864                 | 
05864     F5 11 6F FB |                         djnz   cpl2,#p430
05868     00 00 90 FD |  p431                   jmp    #p103
0586c                 | 
0586c                 | ''------------------------------------------------------------------------------------------------------------
0586c                 | 
0586c                 | 
0586c                 | 
0586c     52 27 33 F9 | p103            getword  mb2,m_border,#0
05870     00 26 0F F2 |                 cmp      mb2, #0 wz
05874     4D A5 C2 5C |                 if_nz    xcont   m_border,border            'display a right border if exists
05878                 | 
05878     B0 FD 9F FD |                 jmp #p302
0587c                 | 
0587c                 | '' -------------------------------------- END of text line ---------------------------------
0587c                 | 
0587c                 |   '' aaaa_aaaa_aaaa_aaaa_aazz_rrrr_rrrr_cc_10 - graph - display a graphics line
0587c                 | 
0587c     EC FD BF FD | graphline       call    #hsync                          ' now call hsync to gain some time between xconts
05880                 | 
05880                 | 
05880     52 27 33 F9 | p202            getword mb2,m_border,#0
05884     00 26 0F F2 |                 cmp     mb2, #0 wz
05888     4D A5 C2 5C |           if_nz xcont   m_border,border                 ' display a left border if exists
0588c                 | 
0588c                 | '----------------------------------------- display pixels
0588c                 | 
0588c     53 BD 02 F6 |                 mov     m_lut2,m_lut1                   ' m_lut1 loaded from hub timing block, pixel per long
05890     59 11 03 F6 |                 mov     cpl2,i_cpl                      ' i_cpl in graphic modes is longs per line
05894                 | 
05894     7C 19 5B F8 |                 getnib  zoom, dl,#3
05898     03 18 07 F5 |                 and             zoom, #3                        ' get a horizontal zoom for the line
0589c                 | 
0589c     7C BF 02 F6 |                 mov     colordepth,dl                   ' get a color depth, reuse linestart var f         '
058a0     0C BE 06 F5 |                 and     colordepth,#12
058a4                 | 
058a4     00 BE 0E F2 |                 cmp     colordepth,#%0000 wz            ' 1 bpp modes
058a8     6C BD 02 A1 |           if_z  add     m_lut2,lutg1
058ac     68 00 90 AD |           if_z  jmp     #p240
058b0                 | 
058b0     04 BE 0E F2 |                 cmp     colordepth,#%0100 wz            ' 2 bpp modes
058b4     6D BD 02 A1 |           if_z  add     m_lut2,lutg2
058b8     9C 00 90 AD |           if_z  jmp     #p250
058bc                 | 
058bc     08 BE 0E F2 |                 cmp     colordepth,#%1000 wz            ' 4 bpp modes
058c0     6E BD 02 A1 |           if_z  add     m_lut2,lutg4
058c4     00 01 90 AD |           if_z  jmp     #p260
058c8                 | 
058c8     6F BD 02 F1 |                 add m_lut2,lutg8                        ' 8 bpp modes
058cc                 | 
058cc                 | '' --- 8 bit color modes
058cc                 | 
058cc     00 18 0F F2 |                 cmp zoom, #%00 wz   '256 colors, zoom x1
058d0     54 01 90 AD |                 if_z jmp #p251      'there is an universal loop for 1x zoom at p251, saves one long of skip pattern
058d4                 | 
058d4     01 18 0F F2 |                 cmp zoom, #%01 wz   '256 colors, zoom x2
058d8     2A 0E 07 A6 |                 if_z mov skippattern,#%101010
058dc     10 00 90 AD |                 if_z jmp #p235
058e0                 |  '  
058e0     02 18 0F F2 |                 cmp zoom, #%10 wz   '256 colors, zoom x4
058e4     25 0E 07 A6 |                 if_z mov skippattern,#%100101
058e8                 |     
058e8                 |  
058e8     05 0E 07 56 |                 if_nz mov skippattern,#%000101
058ec     01 10 47 50 |                 if_nz shr cpl2,#1         ' if 8x zoom, 2 xconts used in one loop, so divide loop count by 2
058f0                 |         
058f0                 | 
058f0                 |         
058f0     7E 13 03 FB | p235               rdlong  char,framebuf2
058f4     32 0E 63 FD |                    skipf skippattern
058f8     02 FC 06 F1 |                    add     framebuf2,#2             '0 1 1
058fc     01 FC 06 F1 |                    add     framebuf2,#1             '1 0 0
05900     50 12 FF F9 |                    movbyts char,#%01010000          '0 1 1
05904     00 12 FF F9 |                    movbyts char,#%00000000          '1 0 0
05908     89 BD C2 FC |                    xcont   m_lut2,char              '0 0 0
0590c     89 BD C2 FC |                    xcont   m_lut2,char              '1 1 0
05910     F7 11 6F FB |                    djnz    cpl2,#p235
05914                 | 
05914     20 01 90 FD |                jmp    #p203
05918                 |                   
05918                 | 
05918                 | 
05918                 | '' --- 1 bit color modes
05918                 | 
05918     00 18 0F F2 | p240          cmp zoom, #%00 wz     '2 colors, zoom x1
0591c     08 01 90 AD |        if_z   jmp #p251              'there is an universal loop for 1x zoom at p251, saves one long of skip pattern
05920                 | 
05920     01 18 0F F2 |               cmp zoom, #%01 wz     '2 colors, zoom x2
05924     13 0E 07 A6 |        if_z   mov skippattern,#%10011
05928     08 0E 07 56 |        if_nz  mov skippattern,#%01000
0592c                 | 
0592c                 | 
0592c     7E 13 E3 FA | p241               rdword  char,framebuf2
05930     44 12 FF F9 |                    movbyts char,#%01000100
05934     63 12 63 FD |                    mergew  char
05938     32 0E 63 FD |                    skipf skippattern
0593c     44 12 FF F9 |                    movbyts char,#%01000100         ' 1 0
05940     63 12 63 FD |                    mergew  char                    ' 1 0
05944     89 BD C2 FC |                    xcont   m_lut2,char             ' 0 0
05948     02 FC 06 F1 |                    add     framebuf2,#2                    ' 0 1
0594c     01 FC 06 F1 |                    add     framebuf2,#1                ' 1 0
05950     F6 11 6F FB |                    djnz   cpl2,#p241
05954                 | 
05954                 | 
05954     E0 00 90 FD |                jmp    #p203
05958                 | 
05958                 | '' --- 2 bit color modes
05958                 | 
05958     00 18 0F F2 | p250          cmp zoom, #%00 wz     '4 colors, zoom x1
0595c     C8 00 90 AD |        if_z   jmp #p251
05960                 | 
05960     01 18 0F F2 |               cmp zoom, #%01 wz     '4 colors, zoom x2
05964     30 00 90 AD |        if_z   jmp #p252
05968                 | 
05968                 | 
05968     7E 13 C3 FA | p254               rdbyte char,framebuf2
0596c     04 0C 07 F6 |                    mov  t5,#4
05970     02 12 67 F0 | p255               shl  char,#2
05974     89 05 53 F8 |                    getnib  t1,char,#2
05978     03 04 07 F5 |                    and     t1,#3
0597c     55 04 07 FA |                    mul     t1,#$55
05980     82 07 03 F9 |                    rolbyte  t2,t1,#0
05984     FA 0D 6F FB |                    djnz    t5,#p255
05988     83 BD C2 FC |                    xcont   m_lut2,t2
0598c     01 FC 06 F1 |                    add     framebuf2,#1
05990     F5 11 6F FB |                    djnz    cpl2,#p254
05994     A0 00 90 FD |                    jmp     #p203
05998                 | 
05998     7E 13 E3 FA | p252               rdword char,framebuf2
0599c     08 0C 07 F6 |                    mov  t5,#8
059a0     02 12 67 F0 | p253               shl  char,#2
059a4     89 05 63 F8 |                    getnib  t1,char,#4
059a8     03 04 07 F5 |                    and     t1,#3
059ac     05 04 07 FA |                    mul     t1,#5
059b0     82 07 83 F8 |                    rolnib  t2,t1,#0
059b4     FA 0D 6F FB |                    djnz    t5,#p253
059b8     83 BD C2 FC |                    xcont   m_lut2,t2
059bc     02 FC 06 F1 |                    add     framebuf2,#2
059c0     F5 11 6F FB |                    djnz    cpl2,#p252
059c4     70 00 90 FD |                    jmp     #p203
059c8                 | 
059c8                 | '' ------ 4 bit color modes
059c8                 | 
059c8     00 18 0F F2 | p260          cmp zoom, #%00 wz     '4 colors, zoom x1, the same loop as 2bpp
059cc     58 00 90 AD |        if_z   jmp #p251
059d0                 | 
059d0     01 18 0F F2 |               cmp zoom, #%01 wz     '4 colors, zoom x2
059d4     2C 00 90 AD |        if_z   jmp #p262
059d8                 | 
059d8                 | 
059d8     7E 13 C3 FA | p263               rdbyte char,framebuf2
059dc     02 0A DC FC |                            rep #5,#2
059e0     89 07 8B F8 |                              rolnib t2,char,#1
059e4     89 07 8B F8 |                                  rolnib t2,char,#1
059e8     89 07 8B F8 |                              rolnib t2,char,#1
059ec     89 07 8B F8 |                                  rolnib t2,char,#1
059f0     04 12 67 F0 |                              shl char,#4
059f4     83 BD C2 FC |                    xcont   m_lut2,t2
059f8     01 FC 06 F1 |                    add     framebuf2,#1
059fc     F6 11 6F FB |                    djnz    cpl2,#p263
05a00     34 00 90 FD |                    jmp     #p203
05a04                 | 
05a04     7E 13 E3 FA | p262               rdword  char,framebuf2
05a08     04 06 DC FC |                            rep #3,#4
05a0c     89 07 9B F8 |                              rolnib t2,char,#3
05a10     89 07 9B F8 |                                  rolnib t2,char,#3
05a14     04 12 67 F0 |                              shl char,#4
05a18     83 BD C2 FC |                    xcont   m_lut2,t2
05a1c     02 FC 06 F1 |                    add     framebuf2,#2
05a20     F8 11 6F FB |                    djnz    cpl2,#p262
05a24     10 00 90 FD |                    jmp     #p203
05a28                 | 
05a28                 | ''---------- all color modes without zoom
05a28                 | 
05a28     88 07 D8 FC | p251               rep  #3,cpl2
05a2c     7E 13 03 FB |                    rdlong  char,framebuf2
05a30     04 FC 06 F1 |                    add     framebuf2,#4
05a34     89 BD C2 FC |                    xcont   m_lut2,char
05a38                 |           
05a38                 |  ''-----------------------------------------------------------------------------------------
05a38                 | p203           ' getword  mb2,m_border,#0
05a38     00 26 0F F2 |                 cmp      mb2, #0 wz
05a3c     4D A5 C2 5C |                 if_nz    xcont   m_border,border            'display a right border if exists
05a40                 | 
05a40     E8 FB 9F FD |                 jmp #p302
05a44                 | 
05a44                 | '' -------------------------------------- END of graph  line ---------------------------------
05a44                 | 
05a44                 | '' consts and vars
05a44                 | 
05a44     52 4D 35 D5 | sync_000        long    %1101010100_1101010100_1101010100_10    '
05a48     AE 42 35 D5 | sync_001        long    %1101010100_1101010100_0010101011_10    '        hsync
05a4c     52 45 15 55 | sync_222        long    %0101010100_0101010100_0101010100_10    'vsync
05a50     AE 4A 15 55 | sync_223        long    %0101010100_0101010100_1010101011_10    'vsync + hsync
05a54                 | 
05a54     00 2C 1A 00 | border          long    %00000000_00011010_00101100_00000000
05a58                 | 
05a58                 | '------ these longs will be set by setmode function
05a58                 | 
05a58     00 00 00 00 | m_bs            long    0        'blanks before sync
05a5c     00 00 00 00 | m_sn            long    0        'sync
05a60     00 00 00 00 | m_bv            long    0        'blanks before visible
05a64     00 00 00 00 | m_vi            long    0        'visible pixels #
05a68     00 00 00 00 | m_border        long    0        'left/right borders
05a6c     00 00 00 00 | m_lut1          long    0        'characters
05a70     00 00 00 00 | i_vborder       long    0        'up/down borders
05a74     00 00 00 00 | i_upporch       long    0        'up porch lines
05a78     00 00 00 00 | i_vsync         long    0        'vsync lines
05a7c     00 00 00 00 | i_downporch     long    0        'down porch lines
05a80     00 00 00 00 | i_modenum       long    0        'mode #
05a84     00 00 00 00 | i_cpl           long    0        'chars/longs per line
05a88     00 00 00 00 | i_lines         long    0        'scanlines #
05a8c     00 00 00 00 | i_clock         long    0
05a90     00 00 00 00 | i_hubset        long    0
05a94     00 00 00 00 | i_totalvis      long    0
05a98                 | 
05a98                 | '-------------------------------------
05a98                 | 
05a98     00 00 00 00 | m_lut2          long    0
05a9c                 | 
05a9c                 | colordepth
05a9c     00 00 00 00 | linestart       long    0
05aa0     00 00 00 00 | linenum         long    0
05aa4     00 01 00 00 | lutaddr         long    256
05aa8                 | 
05aa8     0E 00 00 00 | cursorsh        long    14
05aac     00 00 00 00 | frames          long    0
05ab0     00 00 00 00 | cursorx         long    0
05ab4     00 00 00 00 | cursory         long    0
05ab8     00 00 00 00 | cursorpos       long    0
05abc     00 00 00 00 | cursorpos2      long    0
05ac0     00 00 00 00 | fontstart       long    0
05ac4     00 00 00 00 | border2         long 0
05ac8     00 00 81 70 | lutiv           long $70810000
05acc     00 00 88 00 | lutt1           long $00880000
05ad0     00 00 80 00 | lutg1           long $00800000
05ad4     00 00 80 10 | lutg2           long $10800000
05ad8     00 00 80 20 | lutg4           long $20800000
05adc     00 00 80 30 | lutg8           long $30800000
05ae0     00 00 00 00 | framebuf        long 0
05ae4     00 00 00 00 | fontbuf         long 0
05ae8     00 00 00 00 | borderptr       long 0
05aec     00 00 00 00 | vblankptr       long 0
05af0     00 00 00 00 | cursorptr       long 0
05af4     00 00 00 00 | modeptr         long 0
05af8     00 00 00 00 | paletteptr      long 0
05afc     00 00 00 00 | dlptr           long 0
05b00                 | fontnumptr      res     1
05b00                 | fontnumptr      res     1
05b00                 | hbase           res     1
05b00                 | hbase           res     1
05b00                 | borderptr2      res     1
05b00                 | borderptr2      res     1
05b00                 | dlptr2 res 1
05b00                 | dlptr2 res 1
05b00                 | dl              res 1
05b00                 | dl              res 1
05b00                 | ii              res     1
05b00                 | ii              res     1
05b00                 | framebuf2       res     1
05b00                 | framebuf2       res     1
05b00                 | hsync0          res     1
05b00                 | hsync0          res     1
05b00                 | hsync1          res     1
05b00                 | hsync1          res     1
05b00                 | fontline        res     1
05b00                 | fontline        res     1
05b00                 | t1              res     1
05b00                 | t1              res     1
05b00                 | t2              res     1
05b00                 | t2              res     1
05b00                 | t3 res 1
05b00                 | t3 res 1
05b00                 | t4 res 1
05b00                 | t4 res 1
05b00                 | t5 res 1
05b00                 | t5 res 1
05b00                 | skippattern res 1
05b00                 | skippattern res 1
05b00                 | cpl2 res 1
05b00                 | cpl2 res 1
05b00                 | char            res     1
05b00                 | char            res     1
05b00                 | backcolor       res     1
05b00                 | backcolor       res     1
05b00                 | charcolor       res     1
05b00                 | charcolor       res     1
05b00                 | zoom res 1
05b00                 | zoom res 1
05b00     00 00 00 00 | rcnt long 0 'dl repeat count
05b04     00 00 00 00 | rcnt2 long 0
05b08     00 00 00 00 | rcnt2a long 0
05b0c     00 00 00 00 | roffset long 0
05b10     00 00 00 00 | rdl long 0  'dl repeat line
05b14     00 00 00 00 | dlc long 0 'dl command
05b18     00 00 00 00 | mb2 long 0
05b1c     00 00 00 00 | aend             long 0
05b20                 |                 fit     496                     '
05b20                 | __system__dat_
05b20     00 00 00 00 
05b24     00 00 00 00 
05b28     03 00 00 00 
05b2c     00 00 00 00 | 	byte	$00, $00, $00, $00, $00, $00, $00, $00, $03, $00, $00, $00, $00, $00, $00, $00
05b30                 | __heap_base
05b30     00 00 00 00 
      ...             
06b30     00 00 00 00 
06b34     00 00 00 00 | 	long	0[1026]
06b38                 | objmem
06b38     00 00 00 00 | 	long	0[1]
06b3c 0df             | 	org	COG_BSS_START
06b3c 0df             | _var01
06b3c 0df             | 	res	1
06b3c 0e0             | _var02
06b3c 0e0             | 	res	1
06b3c 0e1             | _var03
06b3c 0e1             | 	res	1
06b3c 0e2             | _var04
06b3c 0e2             | 	res	1
06b3c 0e3             | _var05
06b3c 0e3             | 	res	1
06b3c 0e4             | _var06
06b3c 0e4             | 	res	1
06b3c 0e5             | _var07
06b3c 0e5             | 	res	1
06b3c 0e6             | _var08
06b3c 0e6             | 	res	1
06b3c 0e7             | _var09
06b3c 0e7             | 	res	1
06b3c 0e8             | _var10
06b3c 0e8             | 	res	1
06b3c 0e9             | _var11
06b3c 0e9             | 	res	1
06b3c 0ea             | _var12
06b3c 0ea             | 	res	1
06b3c 0eb             | _var13
06b3c 0eb             | 	res	1
06b3c 0ec             | _var14
06b3c 0ec             | 	res	1
06b3c 0ed             | _var15
06b3c 0ed             | 	res	1
06b3c 0ee             | _var16
06b3c 0ee             | 	res	1
06b3c 0ef             | arg01
06b3c 0ef             | 	res	1
06b3c 0f0             | arg02
06b3c 0f0             | 	res	1
06b3c 0f1             | arg03
06b3c 0f1             | 	res	1
06b3c 0f2             | arg04
06b3c 0f2             | 	res	1
06b3c 0f3             | arg05
06b3c 0f3             | 	res	1
06b3c 0f4             | local01
06b3c 0f4             | 	res	1
06b3c 0f5             | local02
06b3c 0f5             | 	res	1
06b3c 0f6             | local03
06b3c 0f6             | 	res	1
06b3c 0f7             | local04
06b3c 0f7             | 	res	1
06b3c 0f8             | local05
06b3c 0f8             | 	res	1
06b3c 0f9             | local06
06b3c 0f9             | 	res	1
06b3c 0fa             | local07
06b3c 0fa             | 	res	1
06b3c 0fb             | local08
06b3c 0fb             | 	res	1
06b3c 0fc             | local09
06b3c 0fc             | 	res	1
06b3c 0fd             | local10
06b3c 0fd             | 	res	1
06b3c 0fe             | local11
06b3c 0fe             | 	res	1
06b3c 0ff             | local12
06b3c 0ff             | 	res	1
06b3c 100             | local13
06b3c 100             | 	res	1
06b3c 101             | local14
06b3c 101             | 	res	1
06b3c 102             | local15
06b3c 102             | 	res	1
06b3c 103             | local16
06b3c 103             | 	res	1
06b3c 104             | local17
06b3c 104             | 	res	1
06b3c 105             | local18
06b3c 105             | 	res	1
06b3c 106             | local19
06b3c 106             | 	res	1
06b3c 107             | local20
06b3c 107             | 	res	1
06b3c 108             | local21
06b3c 108             | 	res	1
06b3c 109             | local22
06b3c 109             | 	res	1
06b3c 10a             | local23
06b3c 10a             | 	res	1
06b3c 10b             | local24
06b3c 10b             | 	res	1
06b3c 10c             | local25
06b3c 10c             | 	res	1
06b3c 10d             | local26
06b3c 10d             | 	res	1
06b3c 10e             | local27
06b3c 10e             | 	res	1
06b3c 10f             | local28
06b3c 10f             | 	res	1
06b3c 110             | local29
06b3c 110             | 	res	1
06b3c 111             | local30
06b3c 111             | 	res	1
06b3c 112             | local31
06b3c 112             | 	res	1
06b3c 113             | local32
06b3c 113             | 	res	1
06b3c 114             | local33
06b3c 114             | 	res	1
06b3c 115             | local34
06b3c 115             | 	res	1
06b3c 116             | local35
06b3c 116             | 	res	1
06b3c 117             | local36
06b3c 117             | 	res	1
06b3c 118             | local37
06b3c 118             | 	res	1
06b3c 119             | local38
06b3c 119             | 	res	1
06b3c 11a             | local39
06b3c 11a             | 	res	1
06b3c 11b             | local40
06b3c 11b             | 	res	1
06b3c 11c             | local41
06b3c 11c             | 	res	1
06b3c 11d             | local42
06b3c 11d             | 	res	1
06b3c 11e             | local43
06b3c 11e             | 	res	1
06b3c 11f             | local44
06b3c 11f             | 	res	1
06b3c 120             | local45
06b3c 120             | 	res	1
06b3c 121             | local46
06b3c 121             | 	res	1
06b3c 122             | local47
06b3c 122             | 	res	1
06b3c 123             | local48
06b3c 123             | 	res	1
06b3c 124             | local49
06b3c 124             | 	res	1
06b3c 125             | local50
06b3c 125             | 	res	1
06b3c 126             | local51
06b3c 126             | 	res	1
06b3c 127             | local52
06b3c 127             | 	res	1
06b3c 128             | local53
06b3c 128             | 	res	1
06b3c 129             | local54
06b3c 129             | 	res	1
06b3c 12a             | local55
06b3c 12a             | 	res	1
06b3c 12b             | local56
06b3c 12b             | 	res	1
06b3c 12c             | local57
06b3c 12c             | 	res	1
06b3c 12d             | local58
06b3c 12d             | 	res	1
06b3c 12e             | local59
06b3c 12e             | 	res	1
06b3c 12f             | local60
06b3c 12f             | 	res	1
06b3c 130             | local61
06b3c 130             | 	res	1
06b3c 131             | local62
06b3c 131             | 	res	1
06b3c 132             | local63
06b3c 132             | 	res	1
06b3c 133             | local64
06b3c 133             | 	res	1
06b3c 134             | local65
06b3c 134             | 	res	1
06b3c 135             | local66
06b3c 135             | 	res	1
06b3c 136             | local67
06b3c 136             | 	res	1
06b3c 137             | local68
06b3c 137             | 	res	1
06b3c 138             | local69
06b3c 138             | 	res	1
06b3c 139             | local70
06b3c 139             | 	res	1
06b3c 13a             | local71
06b3c 13a             | 	res	1
06b3c 13b             | local72
06b3c 13b             | 	res	1
06b3c 13c             | local73
06b3c 13c             | 	res	1
06b3c 13d             | local74
06b3c 13d             | 	res	1
06b3c 13e             | local75
06b3c 13e             | 	res	1
06b3c 13f             | local76
06b3c 13f             | 	res	1
06b3c 140             | local77
06b3c 140             | 	res	1
06b3c 141             | local78
06b3c 141             | 	res	1
06b3c 142             | local79
06b3c 142             | 	res	1
06b3c 143             | muldiva_
06b3c 143             | 	res	1
06b3c 144             | muldivb_
06b3c 144             | 	res	1
06b3c 145             | 	fit	480
06b3c 145             | 
