00000                 | 
00000                 | #line 1 "D:/Programowanie/ultibo-propeller/robuv001/robuv001.p2asm"
00000                 | ' 
00000                 | ' 	CLK_FREQ = 354693878                                      	' system freq as a constant
00000                 | con
00000                 | 	CLK_FREQ = 354693878
00000                 | ' 	_clkfreq = CLK_FREQ                                           	' set system clock
00000                 | 	_clkfreq = 354693878
00000                 | ' 	SBUS_RX  = 7                                                  	' S.BUS serial input
00000                 | 	SBUS_RX = 7
00000                 | '  
00000                 | ' 	SBUS_CFG  = P_ASYNC_RX | P_INVERT_IN                          	' inverted serial input
00000                 | 	SBUS_CFG = 32830
00000                 | ' 	SBUS_BAUD = (CLK_FREQ / 100_000) << 16 | (9-1)                	' 100K baud, 9 bits (8 data + parity)  
00000                 | 	SBUS_BAUD = 232390664
00000                 | ' 	baudrate        = 4000000
00000                 | 	baudrate = 4000000
00000                 | '  rxpin           = 56
00000                 | 	rxpin = 56
00000                 | '  txpin           = 57
00000                 | 	txpin = 57
00000                 | dat
00000 000 00 00 00 00 | 	nop
00004 001 01 EC 63 FD | 	cogid	pa
00008 002 02 00 00 FF 
0000c 003 04 EC E7 FC | 	coginit	pa,##$404
00010                 | 	orgh	$10
00010     00 00 00 00 | 	long	0	'reserved
00014     00 00 00 00 | 	long	0 ' clock frequency: will default to 354693647
00018     00 00 00 00 | 	long	0 ' clock mode: will default to $1c364fb
0001c     00 00 00 00 
      ...             
003f8     00 00 00 00 
003fc     00 00 00 00 | 	orgh	$400
00400     00 BC 05 06 |  _ret_	mov	result1, #0
00404 000             | 	org	0
00404 000             | entry
00404 000 00 F0 0F F2 | 	cmp	ptra, #0 wz
00408 001 14 02 90 5D |  if_ne	jmp	#spininit
0040c 002 D4 F0 03 F6 | 	mov	ptra, objptr
00410 003 02 00 00 FF 
00414 004 44 F0 07 F1 | 	add	ptra, ##1092
00418 005 14 EC 0F FB | 	rdlong	pa, #20 wz
0041c 006 E4 01 90 5D |  if_ne	jmp	#skip_clock_set_
00420 007 00 00 64 FD | 	hubset	#0
00424 008 B2 E1 80 FF 
00428 009 00 F0 65 FD | 	hubset	##29582584
0042c 00a 86 01 80 FF 
00430 00b 1F 80 66 FD | 	waitx	##200000
00434 00c B2 E1 00 FF 
00438 00d FB EC 07 F6 | 	mov	pa, ##29582587
0043c 00e 00 EC 63 FD | 	hubset	pa
00440 00f 18 EC 67 FC | 	wrlong	pa, #24
00444 010 19 92 8A FF 
00448 011 14 1E 6C FC | 	wrlong	##354693647, #20
0044c 012 B4 01 90 FD | 	jmp	#skip_clock_set_
00450 013 00 00 00 00 
      ...             
005fc 07e 00 00 00 00 
00600 07f 00 00 00 00 | 	orgf	128
00604 080             | skip_clock_set_
00604 080 04 A0 61 FD | 	locknew	__lockreg
00608 081 D5 A0 61 FC | 	wrlong	__lockreg, ptr___lockreg_
0060c 082 84 07 A0 FD | 	call	#_main
00610 083             | cogexit
00610 083 38 01 80 FF 
00614 084 1F 00 66 FD | 	waitx	##160000
00618 085 01 E0 61 FD | 	cogid	arg01
0061c 086 03 E0 61 FD | 	cogstop	arg01
00620 087             | spininit
00620 087 00 A9 05 FB | 	rdlong	objptr, ptra
00624 088 04 F0 07 F1 | 	add	ptra, #4
00628 089 00 BD 05 FB | 	rdlong	result1, ptra
0062c 08a 04 F0 07 F1 | 	add	ptra, #4
00630 08b 00 E1 05 FB | 	rdlong	arg01, ptra
00634 08c 04 F0 07 F1 | 	add	ptra, #4
00638 08d 00 E3 05 FB | 	rdlong	arg02, ptra
0063c 08e 04 F0 07 F1 | 	add	ptra, #4
00640 08f 00 E5 05 FB | 	rdlong	arg03, ptra
00644 090 04 F0 07 F1 | 	add	ptra, #4
00648 091 00 E7 05 FB | 	rdlong	arg04, ptra
0064c 092 10 F0 87 F1 | 	sub	ptra, #16
00650 093 2D BC 61 FD | 	call	result1
00654 094 B8 FF 9F FD | 	jmp	#cogexit
00658 095             | FCACHE_LOAD_
00658 095 2B 42 61 FD |     pop	fcache_tmpb_
0065c 096 F6 43 01 F1 |     add	fcache_tmpb_, pa
00660 097 2A 42 61 FD |     push	fcache_tmpb_
00664 098 F6 43 81 F1 |     sub	fcache_tmpb_, pa
00668 099 02 EC 47 F0 |     shr	pa, #2
0066c 09a 00 EC 8F F9 |     altd	pa
00670 09b A0 00 00 F6 |     mov	 0-0, ret_instr_
00674 09c 01 EC 87 F1 |     sub	pa, #1
00678 09d 28 EC 63 FD |     setq	pa
0067c 09e A1 00 00 FB |     rdlong	$0, fcache_tmpb_
00680 09f 00 00 80 FD |     jmp	#\$0 ' jmp to cache
00684 0a0             | ret_instr_
00684 0a0 2D 00 64 FD |     ret
00688 0a1             | fcache_tmpb_
00688 0a1 00 00 00 00 |     long 0
0068c 0a2             | COUNT_
0068c 0a2 00 00 00 00 |     long 0
00690 0a3             | RETADDR_
00690 0a3 00 00 00 00 |     long 0
00694 0a4             | fp
00694 0a4 00 00 00 00 |     long 0
00698 0a5             | pushregs_
00698 0a5 2B EC 63 FD |     pop  pa
0069c 0a6 2B 46 61 FD |     pop  RETADDR_
006a0 0a7 04 44 95 FB |     tjz  COUNT_, #pushregs_done_
006a4 0a8 01 44 85 F1 |     sub  COUNT_, #1
006a8 0a9 28 44 61 FD |     setq COUNT_
006ac 0aa 00 EB 65 FC |     wrlong local01, ptra
006b0 0ab 01 44 05 F1 |     add  COUNT_, #1
006b4 0ac             | pushregs_done_
006b4 0ac 02 44 65 F0 |     shl  COUNT_, #2
006b8 0ad A2 F0 03 F1 |     add  ptra, COUNT_
006bc 0ae 02 44 45 F0 |     shr  COUNT_, #2
006c0 0af 28 04 64 FD |     setq #2 ' push 3 registers starting at COUNT_
006c4 0b0 00 45 65 FC |     wrlong COUNT_, ptra
006c8 0b1 0C F0 07 F1 |     add    ptra, #12
006cc 0b2 F8 49 01 F6 |     mov    fp, ptra
006d0 0b3 2C EC 63 FD |     jmp  pa
006d4 0b4             |  popregs_
006d4 0b4 2B EC 63 FD |     pop    pa
006d8 0b5 0C F0 87 F1 |     sub    ptra, #12
006dc 0b6 28 04 64 FD |     setq   #2
006e0 0b7 00 45 05 FB |     rdlong COUNT_, ptra
006e4 0b8 06 44 95 FB |     tjz    COUNT_, #popregs__ret
006e8 0b9 02 44 65 F0 |     shl    COUNT_, #2
006ec 0ba A2 F0 83 F1 |     sub    ptra, COUNT_
006f0 0bb 02 44 45 F0 |     shr    COUNT_, #2
006f4 0bc 01 44 85 F1 |     sub    COUNT_, #1
006f8 0bd 28 44 61 FD |     setq   COUNT_
006fc 0be 00 EB 05 FB |     rdlong local01, ptra
00700 0bf             | popregs__ret
00700 0bf 2A 46 61 FD |     push   RETADDR_
00704 0c0 2C EC 63 FD |     jmp    pa
00708 0c1             | 
00708 0c1             | unsdivide_
00708 0c1 28 00 64 FD |        setq    #0
0070c 0c2 45 89 12 FD |        qdiv    muldiva_, muldivb_
00710 0c3 18 8A 62 FD |        getqx   muldivb_
00714 0c4 19 88 62 0D |  _ret_ getqy   muldiva_
00718 0c5             | 
00718 0c5             | divide_
00718 0c5 44 89 52 F6 |        abs     muldiva_,muldiva_     wc       'abs(x)
0071c 0c6 03 A6 85 F5 |        muxc    itmp2_,#%11                    'store sign of x
00720 0c7 45 8B 5A F6 |        abs     muldivb_,muldivb_     wcz      'abs(y)
00724 0c8 02 A6 65 C5 |  if_c  xor     itmp2_,#%10                    'store sign of y
00728 0c9 2D 00 64 AD |  if_z  ret
0072c 0ca D8 FF BF FD |        call    #unsdivide_
00730 0cb 01 A6 D5 F7 |        test    itmp2_,#1        wc       'restore sign, remainder
00734 0cc 44 89 82 F6 |        negc    muldiva_,muldiva_ 
00738 0cd 02 A6 D5 F7 |        test    itmp2_,#%10      wc       'restore sign, division result
0073c 0ce 45 8B 82 06 |  _ret_ negc    muldivb_,muldivb_
00740 0cf             | 
00740 0cf             | __heap_ptr
00740 0cf 48 55 00 00 | 	long	@__heap_base
00744 0d0             | __lockreg
00744 0d0 00 00 00 00 | 	long	0
00748 0d1             | entryptr__
00748 0d1 04 04 00 00 | 	long	@entry
0074c 0d2             | itmp1_
0074c 0d2 00 00 00 00 | 	long	0
00750 0d3             | itmp2_
00750 0d3 00 00 00 00 | 	long	0
00754 0d4             | objptr
00754 0d4 50 65 00 00 | 	long	@objmem
00758 0d5             | ptr___lockreg_
00758 0d5 44 07 00 00 | 	long	@__lockreg
0075c 0d6             | ptr___system__dat__
0075c 0d6 38 55 00 00 | 	long	@__system__dat_
00760 0d7             | ptr__display_lidar_
00760 0d7 58 0C 00 00 | 	long	@_display_lidar
00764 0d8             | ptr__hng025_dat__
00764 0d8 D0 30 00 00 | 	long	@_hng025_dat_
00768 0d9             | ptr__hng025_putpixel1_
00768 0d9 0C 15 00 00 | 	long	@_hng025_putpixel1
0076c 0da             | ptr__hng025_putpixel2_
0076c 0da F4 15 00 00 | 	long	@_hng025_putpixel2
00770 0db             | ptr__hng025_putpixel4_
00770 0db CC 16 00 00 | 	long	@_hng025_putpixel4
00774 0dc             | ptr__hng025_putpixel8_
00774 0dc A4 17 00 00 | 	long	@_hng025_putpixel8
00778 0dd             | ptr__serialcog_
00778 0dd 64 14 00 00 | 	long	@_serialcog
0077c 0de             | result1
0077c 0de 00 00 00 00 | 	long	0
00780 0df             | result2
00780 0df 00 00 00 00 | 	long	0
00784 0e0             | COG_BSS_START
00784 0e0             | 	fit	480
00784                 | 	orgh
00784                 | hubentry
00784                 | 
00784                 | ' 
00784                 | ' pub main() | t11, i11, h11,h12,h21,h22
00784                 | _main
00784     11 44 05 F6 | 	mov	COUNT_, #17
00788     A5 00 A0 FD | 	call	#pushregs_
0078c                 | ' 
0078c                 | ' v.start(512+48+15+192,8)
0078c     01 00 00 FF 
00790     FF EA 05 F6 | 	mov	local01, ##767
00794     01 00 00 FF 
00798     84 A9 05 F1 | 	add	objptr, ##900
0079c     D4 EC 01 F6 | 	mov	local02, objptr
007a0                 | ' 
007a0                 | ' ' initialize pointers and variables
007a0                 | ' 
007a0                 | ' border_ptr:=@bordercolor
007a0     24 A8 85 F1 | 	sub	objptr, #36
007a4     D4 EC 61 FC | 	wrlong	local02, objptr
007a8     08 00 00 FF 
007ac     00 B0 05 F1 | 	add	ptr__hng025_dat__, ##4096
007b0                 | ' font_ptr:=@st_font
007b0     04 A8 85 F1 | 	sub	objptr, #4
007b4     D4 B0 61 FC | 	wrlong	ptr__hng025_dat__, objptr
007b8                 | ' hdmibase:=base
007b8     20 A8 05 F1 | 	add	objptr, #32
007bc     D4 10 68 FC | 	wrlong	#8, objptr
007c0     24 A8 85 F1 | 	sub	objptr, #36
007c4     D9 E2 01 F6 | 	mov	arg02, ptr__hng025_putpixel1_
007c8                 | ' p1:=@putpixel1
007c8     D4 E0 01 F6 | 	mov	arg01, objptr
007cc     08 00 00 FF 
007d0     00 B0 85 F1 | 	sub	ptr__hng025_dat__, ##4096
007d4     40 1E B0 FD | 	call	#__system___make_methodptr
007d8     DE EE 01 F6 | 	mov	local03, result1
007dc     DC A8 05 F1 | 	add	objptr, #220
007e0     D4 EE 61 FC | 	wrlong	local03, objptr
007e4     DC A8 85 F1 | 	sub	objptr, #220
007e8     DA E2 01 F6 | 	mov	arg02, ptr__hng025_putpixel2_
007ec                 | ' p2:=@putpixel2
007ec     D4 E0 01 F6 | 	mov	arg01, objptr
007f0     24 1E B0 FD | 	call	#__system___make_methodptr
007f4     DE EE 01 F6 | 	mov	local03, result1
007f8     E0 A8 05 F1 | 	add	objptr, #224
007fc     D4 EE 61 FC | 	wrlong	local03, objptr
00800     E0 A8 85 F1 | 	sub	objptr, #224
00804     DB E2 01 F6 | 	mov	arg02, ptr__hng025_putpixel4_
00808                 | ' p4:=@putpixel4
00808     D4 E0 01 F6 | 	mov	arg01, objptr
0080c     08 1E B0 FD | 	call	#__system___make_methodptr
00810     DE EE 01 F6 | 	mov	local03, result1
00814     E4 A8 05 F1 | 	add	objptr, #228
00818     D4 EE 61 FC | 	wrlong	local03, objptr
0081c     E4 A8 85 F1 | 	sub	objptr, #228
00820     DC E2 01 F6 | 	mov	arg02, ptr__hng025_putpixel8_
00824                 | ' p8:=@putpixel8
00824     D4 E0 01 F6 | 	mov	arg01, objptr
00828     EC 1D B0 FD | 	call	#__system___make_methodptr
0082c     DE EE 01 F6 | 	mov	local03, result1
00830     E8 A8 05 F1 | 	add	objptr, #232
00834     D4 EE 61 FC | 	wrlong	local03, objptr
00838     E8 A8 85 F1 | 	sub	objptr, #232
0083c                 | ' 
0083c                 | ' 
0083c                 | ' ' the mode has to be set here to enable computing the buffer length
0083c                 | ' 
0083c                 | ' setmode(mode)
0083c     01 00 00 FF 
00840     FF E0 05 F6 | 	mov	arg01, ##767
00844     A4 11 B0 FD | 	call	#_hng025_setmode
00848     40 A8 05 F1 | 	add	objptr, #64
0084c     D4 F0 01 F6 | 	mov	local04, objptr
00850                 | ' 
00850                 | ' vblank_ptr:=@vblank
00850     34 A8 85 F1 | 	sub	objptr, #52
00854     D4 F0 61 FC | 	wrlong	local04, objptr
00858     28 A8 05 F1 | 	add	objptr, #40
0085c     D4 F2 01 F6 | 	mov	local05, objptr
00860                 | ' cursor_ptr:=@cursor_x
00860     24 A8 85 F1 | 	sub	objptr, #36
00864     D4 F2 61 FC | 	wrlong	local05, objptr
00868     88 A8 05 F1 | 	add	objptr, #136
0086c     D4 F4 01 F6 | 	mov	local06, objptr
00870                 | ' 
00870                 | ' fontnum_ptr:=@fontnum
00870     78 A8 85 F1 | 	sub	objptr, #120
00874     D4 F4 61 FC | 	wrlong	local06, objptr
00878                 | ' 
00878                 | ' fontnum:=0  ' PC type font ' TODO: font# in buffer byte #1
00878     78 A8 05 F1 | 	add	objptr, #120
0087c     D4 00 68 FC | 	wrlong	#0, objptr
00880     1C A8 05 F1 | 	add	objptr, #28
00884     D4 E0 01 F6 | 	mov	arg01, objptr
00888     B4 A8 85 F1 | 	sub	objptr, #180
0088c     0F 00 00 FF 
00890     58 B0 05 F1 | 	add	ptr__hng025_dat__, ##7768
00894     D8 E2 01 F6 | 	mov	arg02, ptr__hng025_dat__
00898     0F 00 00 FF 
0089c     58 B0 85 F1 | 	sub	ptr__hng025_dat__, ##7768
008a0                 | ' bytemove(@colors,@vgacolors,16)
008a0     10 E4 05 F6 | 	mov	arg03, #16
008a4     48 1C B0 FD | 	call	#__system____builtin_memmove
008a8                 | ' 
008a8                 | ' ' initialize a cursor
008a8                 | ' 
008a8                 | ' cursor_x:=0
008a8     34 A8 05 F1 | 	add	objptr, #52
008ac     D4 00 48 FC | 	wrbyte	#0, objptr
008b0                 | ' cursor_y:=0
008b0     01 A8 05 F1 | 	add	objptr, #1
008b4     D4 00 48 FC | 	wrbyte	#0, objptr
008b8                 | ' cursor_sh:=14
008b8     01 A8 05 F1 | 	add	objptr, #1
008bc     D4 1C 48 FC | 	wrbyte	#14, objptr
008c0     36 A8 85 F1 | 	sub	objptr, #54
008c4                 | ' 
008c4                 | ' 
008c4                 | ' ' start the cog
008c4                 | ' 
008c4                 | ' cog:=coginit(16,@hdmi, @buf_ptr)
008c4     0F 00 00 FF 
008c8     68 B0 05 F1 | 	add	ptr__hng025_dat__, ##7784
008cc     D8 E2 01 F6 | 	mov	arg02, ptr__hng025_dat__
008d0     0F 00 00 FF 
008d4     68 B0 85 F1 | 	sub	ptr__hng025_dat__, ##7784
008d8     D4 E4 01 F6 | 	mov	arg03, objptr
008dc     10 E0 05 F6 | 	mov	arg01, #16
008e0     28 E4 61 FD | 	setq	arg03
008e4     F1 E0 F1 FC | 	coginit	arg01, arg02 wc
008e8     01 E0 65 C6 |  if_b	neg	arg01, #1
008ec     F0 BC 01 F6 | 	mov	result1, arg01
008f0     DE F6 01 F6 | 	mov	local07, result1
008f4     28 A8 05 F1 | 	add	objptr, #40
008f8     D4 F6 61 FC | 	wrlong	local07, objptr
008fc     28 A8 85 F1 | 	sub	objptr, #40
00900                 | ' waitms(20)
00900     14 E0 05 F6 | 	mov	arg01, #20
00904     0C 1E B0 FD | 	call	#__system___waitms
00908                 | ' 
00908                 | ' ' clear the screen and set the colors to green on black
00908                 | ' 
00908                 | ' cls(c_green,c_black)
00908     C7 E0 05 F6 | 	mov	arg01, #199
0090c     00 E2 05 F6 | 	mov	arg02, #0
00910     88 0F B0 FD | 	call	#_hng025_cls
00914                 | ' setbordercolor(0,0,128)
00914     0F E4 C5 F9 | 	decod	arg03, #15
00918                 | ' 
00918                 | ' color:=r<<24+g<<16+b<<8
00918                 | ' bordercolor:=color
00918     2C A8 05 F1 | 	add	objptr, #44
0091c     40 00 80 FF 
00920     D4 00 68 FC | 	wrlong	##32768, objptr
00924                 | ' setwritecolors(c_green,c_black)
00924                 | ' 
00924                 | ' 
00924                 | ' write_color:=ff
00924     0C A8 05 F1 | 	add	objptr, #12
00928     D4 8E 69 FC | 	wrlong	#199, objptr
0092c                 | ' write_background:=bb
0092c     04 A8 05 F1 | 	add	objptr, #4
00930     D4 00 68 FC | 	wrlong	#0, objptr
00934                 | ' 
00934                 | ' return cog
00934     14 A8 85 F1 | 	sub	objptr, #20
00938     D4 BC 01 FB | 	rdlong	result1, objptr
0093c     28 A8 85 F1 | 	sub	objptr, #40
00940                 | ' v.cls(154,147)
00940     9A E0 05 F6 | 	mov	arg01, #154
00944     93 E2 05 F6 | 	mov	arg02, #147
00948     50 0F B0 FD | 	call	#_hng025_cls
0094c                 | ' v.setfontfamily(4)
0094c                 | ' 
0094c                 | ' font_family:=afontnum
0094c     C8 A8 05 F1 | 	add	objptr, #200
00950     D4 08 68 FC | 	wrlong	#4, objptr
00954     C8 A8 85 F1 | 	sub	objptr, #200
00958                 | ' v.waitvbl(100)
00958     64 E0 05 F6 | 	mov	arg01, #100
0095c     C8 0E B0 FD | 	call	#_hng025_waitvbl
00960     01 00 00 FF 
00964     58 A9 85 F1 | 	sub	objptr, ##856
00968                 | ' dacinit()
00968     E8 09 B0 FD | 	call	#_dacinit
0096c                 | ' dacset($8000,$8000)
0096c     0F E0 C5 F9 | 	decod	arg01, #15
00970     0F E2 C5 F9 | 	decod	arg02, #15
00974     04 0A B0 FD | 	call	#_dacset
00978                 | ' cogspin(16,display_lidar(),@lidarstack)
00978     D4 F8 01 F6 | 	mov	local08, objptr
0097c     01 00 00 FF 
00980     58 A8 05 F1 | 	add	objptr, ##600
00984     D4 FA 01 F6 | 	mov	local09, objptr
00988     FD F8 61 FC | 	wrlong	local08, local09
0098c     04 FA 05 F1 | 	add	local09, #4
00990     FD AE 61 FC | 	wrlong	ptr__display_lidar_, local09
00994     D1 E2 01 F6 | 	mov	arg02, entryptr__
00998     D4 FC 01 F6 | 	mov	local10, objptr
0099c     10 E0 05 F6 | 	mov	arg01, #16
009a0     FE E4 01 F6 | 	mov	arg03, local10
009a4     01 00 00 FF 
009a8     58 A8 85 F1 | 	sub	objptr, ##600
009ac     28 E4 61 FD | 	setq	arg03
009b0     F1 E0 F1 FC | 	coginit	arg01, arg02 wc
009b4     01 E0 65 C6 |  if_b	neg	arg01, #1
009b8     F0 BC 01 F6 | 	mov	result1, arg01
009bc     DE FE 01 F6 | 	mov	local11, result1
009c0                 | ' repeat
009c0                 | LR__0001
009c0                 | '   v.waitvbl(1)
009c0     01 E0 05 F6 | 	mov	arg01, #1
009c4     01 00 00 FF 
009c8     58 A9 05 F1 | 	add	objptr, ##856
009cc     58 0E B0 FD | 	call	#_hng025_waitvbl
009d0     01 00 00 FF 
009d4     58 A9 85 F1 | 	sub	objptr, ##856
009d8                 | '   if (receive_sbus(SBUS_RX, @frame))                          ' get s.bus frame
009d8     D4 E2 01 F6 | 	mov	arg02, objptr
009dc     07 E0 05 F6 | 	mov	arg01, #7
009e0     38 06 B0 FD | 	call	#_receive_sbus
009e4     DE 00 0A F6 | 	mov	local12, result1 wz
009e8     D4 FF 9F AD |  if_e	jmp	#LR__0001
009ec     D4 E0 01 F6 | 	mov	arg01, objptr
009f0     1C A8 05 F1 | 	add	objptr, #28
009f4                 | '     decode_sbus(@frame, @channel)                             ' convert to channel values
009f4     D4 E2 01 F6 | 	mov	arg02, objptr
009f8     1C A8 85 F1 | 	sub	objptr, #28
009fc     D0 07 B0 FD | 	call	#_decode_sbus
00a00                 | ' '    repeat i11 from 0 to 15                                     ' display channel values
00a00                 | ' '      v.outtextxycg(0,16*i11,v.inttostr(i11),154,147)
00a00                 | ' '      v.outtextxycg(88,16*i11,string(" "),154,147)      
00a00                 | ' '      v.outtextxycg(64,16*i11,v.inttostr(channel[i11]),154,147)
00a00                 | '      
00a00                 | '     h11:=channel[0] 
00a00     1C A8 05 F1 | 	add	objptr, #28
00a04     D4 02 E2 FA | 	rdword	local13, objptr
00a08                 | '     h12:=channel[1]
00a08     02 A8 05 F1 | 	add	objptr, #2
00a0c     D4 04 E2 FA | 	rdword	local14, objptr
00a10     1E A8 85 F1 | 	sub	objptr, #30
00a14                 | '      
00a14                 | '  ' 1 joy do przodu, robot jedzie, 0203= h11=0   
00a14                 | '     
00a14                 | '     if (h11>1500) & (h12>300) & (h12<1500)
00a14     00 F8 05 F6 | 	mov	local08, #0
00a18     02 00 00 FF 
00a1c     DC 03 5E F2 | 	cmps	local13, ##1500 wcz
00a20     01 F8 65 16 |  if_a	neg	local08, #1
00a24     00 FA 05 F6 | 	mov	local09, #0
00a28     2C 05 5E F2 | 	cmps	local14, #300 wcz
00a2c     01 FA 65 16 |  if_a	neg	local09, #1
00a30     FD F8 01 F5 | 	and	local08, local09
00a34     00 06 06 F6 | 	mov	local15, #0
00a38     02 00 00 FF 
00a3c     DC 05 5E F2 | 	cmps	local14, ##1500 wcz
00a40     01 06 66 C6 |  if_b	neg	local15, #1
00a44     03 F9 C9 F7 | 	test	local08, local15 wz
00a48                 | '       h21:=$2800
00a48     14 00 00 5F 
00a4c     00 08 06 56 |  if_ne	mov	local16, ##10240
00a50                 | '       h22:=$2800
00a50     14 00 00 5F 
00a54     00 0A 06 56 |  if_ne	mov	local17, ##10240
00a58     9C 01 90 5D |  if_ne	jmp	#LR__0008
00a5c                 | ' 
00a5c                 | ' ' 2. joy do tyłu, robot do tyłu
00a5c                 | ' 
00a5c                 | '     elseif (h11<300) & (h12>300) & (h12<1500)
00a5c     00 F8 05 F6 | 	mov	local08, #0
00a60     2C 03 5E F2 | 	cmps	local13, #300 wcz
00a64     01 F8 65 C6 |  if_b	neg	local08, #1
00a68     00 FA 05 F6 | 	mov	local09, #0
00a6c     2C 05 5E F2 | 	cmps	local14, #300 wcz
00a70     01 FA 65 16 |  if_a	neg	local09, #1
00a74     FD F8 01 F5 | 	and	local08, local09
00a78     00 06 06 F6 | 	mov	local15, #0
00a7c     02 00 00 FF 
00a80     DC 05 5E F2 | 	cmps	local14, ##1500 wcz
00a84     01 06 66 C6 |  if_b	neg	local15, #1
00a88     03 F9 C9 F7 | 	test	local08, local15 wz
00a8c                 | '       h21:=$D800
00a8c     6C 00 00 5F 
00a90     00 08 06 56 |  if_ne	mov	local16, ##55296
00a94                 | '       h22:=$D800
00a94     6C 00 00 5F 
00a98     00 0A 06 56 |  if_ne	mov	local17, ##55296
00a9c     58 01 90 5D |  if_ne	jmp	#LR__0007
00aa0                 | ' 
00aa0                 | '   '3,4  joy w bok
00aa0                 | '   
00aa0                 | '     elseif (h12>1500) & (h11<1500) & (h11>300)  ''lewo
00aa0     00 F8 05 F6 | 	mov	local08, #0
00aa4     02 00 00 FF 
00aa8     DC 05 5E F2 | 	cmps	local14, ##1500 wcz
00aac     01 F8 65 16 |  if_a	neg	local08, #1
00ab0     00 FA 05 F6 | 	mov	local09, #0
00ab4     02 00 00 FF 
00ab8     DC 03 5E F2 | 	cmps	local13, ##1500 wcz
00abc     01 FA 65 C6 |  if_b	neg	local09, #1
00ac0     FD F8 01 F5 | 	and	local08, local09
00ac4     00 06 06 F6 | 	mov	local15, #0
00ac8     2C 03 5E F2 | 	cmps	local13, #300 wcz
00acc     01 06 66 16 |  if_a	neg	local15, #1
00ad0     03 F9 C9 F7 | 	test	local08, local15 wz
00ad4                 | '       h21:=$2800
00ad4     14 00 00 5F 
00ad8     00 08 06 56 |  if_ne	mov	local16, ##10240
00adc                 | '       h22:=$D800
00adc     6C 00 00 5F 
00ae0     00 0A 06 56 |  if_ne	mov	local17, ##55296
00ae4     10 01 90 5D |  if_ne	jmp	#LR__0006
00ae8                 | '     
00ae8                 | '     
00ae8                 | '     elseif (h12<300) & (h11<1500) & (h11>300)   ''prawo
00ae8     00 F8 05 F6 | 	mov	local08, #0
00aec     2C 05 5E F2 | 	cmps	local14, #300 wcz
00af0     01 F8 65 C6 |  if_b	neg	local08, #1
00af4     00 FA 05 F6 | 	mov	local09, #0
00af8     02 00 00 FF 
00afc     DC 03 5E F2 | 	cmps	local13, ##1500 wcz
00b00     01 FA 65 C6 |  if_b	neg	local09, #1
00b04     FD F8 01 F5 | 	and	local08, local09
00b08     00 06 06 F6 | 	mov	local15, #0
00b0c     2C 03 5E F2 | 	cmps	local13, #300 wcz
00b10     01 06 66 16 |  if_a	neg	local15, #1
00b14     03 F9 C9 F7 | 	test	local08, local15 wz
00b18                 | '       h21:=$D800
00b18     6C 00 00 5F 
00b1c     00 08 06 56 |  if_ne	mov	local16, ##55296
00b20                 | '       h22:=$2800
00b20     14 00 00 5F 
00b24     00 0A 06 56 |  if_ne	mov	local17, ##10240
00b28     CC 00 90 5D |  if_ne	jmp	#LR__0005
00b2c                 | '     
00b2c                 | '     elseif (h12>1500) & (h11>1500) '' lewo góra   
00b2c     00 F8 05 F6 | 	mov	local08, #0
00b30     02 00 00 FF 
00b34     DC 05 5E F2 | 	cmps	local14, ##1500 wcz
00b38     01 F8 65 16 |  if_a	neg	local08, #1
00b3c     00 FA 05 F6 | 	mov	local09, #0
00b40     02 00 00 FF 
00b44     DC 03 5E F2 | 	cmps	local13, ##1500 wcz
00b48     01 FA 65 16 |  if_a	neg	local09, #1
00b4c     FD F8 C9 F7 | 	test	local08, local09 wz
00b50                 | '       h21:=$2800
00b50     14 00 00 5F 
00b54     00 08 06 56 |  if_ne	mov	local16, ##10240
00b58                 | '       h22:=$4000
00b58     0E 0A C6 59 |  if_ne	decod	local17, #14
00b5c     98 00 90 5D |  if_ne	jmp	#LR__0004
00b60                 | '     
00b60                 | '     elseif (h12>1500) & (h11<300) ''  lewo dół
00b60     00 F8 05 F6 | 	mov	local08, #0
00b64     02 00 00 FF 
00b68     DC 05 5E F2 | 	cmps	local14, ##1500 wcz
00b6c     01 F8 65 16 |  if_a	neg	local08, #1
00b70     00 FA 05 F6 | 	mov	local09, #0
00b74     2C 03 5E F2 | 	cmps	local13, #300 wcz
00b78     01 FA 65 C6 |  if_b	neg	local09, #1
00b7c     FD F8 C9 F7 | 	test	local08, local09 wz
00b80                 | '       h21:=$c000
00b80     60 00 00 5F 
00b84     00 08 06 56 |  if_ne	mov	local16, ##49152
00b88                 | '       h22:=$D800  
00b88     6C 00 00 5F 
00b8c     00 0A 06 56 |  if_ne	mov	local17, ##55296
00b90     64 00 90 5D |  if_ne	jmp	#LR__0003
00b94                 | '     
00b94                 | '     elseif (h12<300) & (h11>1500)    '' prawo góra
00b94     00 F8 05 F6 | 	mov	local08, #0
00b98     2C 05 5E F2 | 	cmps	local14, #300 wcz
00b9c     01 F8 65 C6 |  if_b	neg	local08, #1
00ba0     00 FA 05 F6 | 	mov	local09, #0
00ba4     02 00 00 FF 
00ba8     DC 03 5E F2 | 	cmps	local13, ##1500 wcz
00bac     01 FA 65 16 |  if_a	neg	local09, #1
00bb0     FD F8 C9 F7 | 	test	local08, local09 wz
00bb4                 | '       h21:=$4000
00bb4     0E 08 C6 59 |  if_ne	decod	local16, #14
00bb8                 | '       h22:=$2800
00bb8     14 00 00 5F 
00bbc     00 0A 06 56 |  if_ne	mov	local17, ##10240
00bc0     34 00 90 5D |  if_ne	jmp	#LR__0002
00bc4                 | ' 
00bc4                 | '     elseif (h12<300) & (h11<300)  '' prawo dół
00bc4     00 F8 05 F6 | 	mov	local08, #0
00bc8     2C 05 5E F2 | 	cmps	local14, #300 wcz
00bcc     01 F8 65 C6 |  if_b	neg	local08, #1
00bd0     00 FA 05 F6 | 	mov	local09, #0
00bd4     2C 03 5E F2 | 	cmps	local13, #300 wcz
00bd8     01 FA 65 C6 |  if_b	neg	local09, #1
00bdc     FD F8 C9 F7 | 	test	local08, local09 wz
00be0                 | '       h21:=$d800
00be0     6C 00 00 5F 
00be4     00 08 06 56 |  if_ne	mov	local16, ##55296
00be8                 | '       h22:=$c000  
00be8     60 00 00 5F 
00bec     00 0A 06 56 |  if_ne	mov	local17, ##49152
00bf0                 | '       
00bf0                 | '     else
00bf0                 | '       h21:=$8000
00bf0     0F 08 C6 A9 |  if_e	decod	local16, #15
00bf4                 | '       h22:=$8000  
00bf4     0F 0A C6 A9 |  if_e	decod	local17, #15
00bf8                 | LR__0002
00bf8                 | LR__0003
00bf8                 | LR__0004
00bf8                 | LR__0005
00bf8                 | LR__0006
00bf8                 | LR__0007
00bf8                 | LR__0008
00bf8                 | '  
00bf8                 | '     dacset(h21,h22)    
00bf8     04 E1 01 F6 | 	mov	arg01, local16
00bfc     05 E3 01 F6 | 	mov	arg02, local17
00c00     78 07 B0 FD | 	call	#_dacset
00c04                 | '   
00c04                 | '     if (channel[7]>1000)
00c04     2A A8 05 F1 | 	add	objptr, #42
00c08     D4 F8 E1 FA | 	rdword	local08, objptr
00c0c     2A A8 85 F1 | 	sub	objptr, #42
00c10     01 00 00 FF 
00c14     E8 F9 5D F2 | 	cmps	local08, ##1000 wcz
00c18     18 00 90 ED |  if_be	jmp	#LR__0009
00c1c                 | '       pinwrite(2,0)
00c1c     00 E2 05 F6 | 	mov	arg02, #0
00c20     01 E2 D5 F7 | 	test	arg02, #1 wc
00c24     5A 04 64 FD | 	drvc	#2
00c28                 | '       pinwrite(3,0)
00c28     01 E2 D5 F7 | 	test	arg02, #1 wc
00c2c     5A 06 64 FD | 	drvc	#3
00c30                 | '     else
00c30     8C FD 9F FD | 	jmp	#LR__0001
00c34                 | LR__0009
00c34                 | '       pinwrite(2,1)
00c34     01 E2 05 F6 | 	mov	arg02, #1
00c38     01 E2 D5 F7 | 	test	arg02, #1 wc
00c3c     5A 04 64 FD | 	drvc	#2
00c40                 | '       pinwrite(3,1)
00c40     01 E2 D5 F7 | 	test	arg02, #1 wc
00c44     5A 06 64 FD | 	drvc	#3
00c48     74 FD 9F FD | 	jmp	#LR__0001
00c4c     A4 F0 03 F6 | 	mov	ptra, fp
00c50     B4 00 A0 FD | 	call	#popregs_
00c54                 | _main_ret
00c54     2D 00 64 FD | 	ret
00c58                 | 
00c58                 | ' 
00c58                 | '   
00c58                 | '   
00c58                 | ' pub display_lidar()  | xxx,yyy,rr
00c58                 | _display_lidar
00c58     2C 44 05 F6 | 	mov	COUNT_, #44
00c5c     A5 00 A0 FD | 	call	#pushregs_
00c60                 | ' 
00c60                 | ' serial_start(rxpin, txpin, baudrate)
00c60     38 E0 05 F6 | 	mov	arg01, #56
00c64     39 E2 05 F6 | 	mov	arg02, #57
00c68     84 1E 00 FF 
00c6c     00 E5 05 F6 | 	mov	arg03, ##4000000
00c70     1C 07 B0 FD | 	call	#_serial_start
00c74                 | ' rxflush()
00c74                 | ' 
00c74                 | ' '' Clear serial input
00c74                 | ' 
00c74                 | '   repeat
00c74                 | LR__0010
00c74     A0 07 B0 FD | 	call	#_rxcheck
00c78     00 BC 5D F2 | 	cmps	result1, #0 wcz
00c7c     F4 FF 9F 3D |  if_ae	jmp	#LR__0010
00c80                 | ' 
00c80                 | ' cogspin(16,serialcog(),@serialstack)
00c80     D4 EA 01 F6 | 	mov	local01, objptr
00c84     58 A9 05 F1 | 	add	objptr, #344
00c88     D4 EC 01 F6 | 	mov	local02, objptr
00c8c     F6 EA 61 FC | 	wrlong	local01, local02
00c90     04 EC 05 F1 | 	add	local02, #4
00c94     F6 BA 61 FC | 	wrlong	ptr__serialcog_, local02
00c98     10 E0 05 F6 | 	mov	arg01, #16
00c9c     28 A8 61 FD | 	setq	objptr
00ca0     D1 E0 F1 FC | 	coginit	arg01, entryptr__ wc
00ca4     01 E0 65 C6 |  if_b	neg	arg01, #1
00ca8     F0 BC 01 F6 | 	mov	result1, arg01
00cac                 | ' 
00cac                 | ' v.setwritecolors(154,146)
00cac                 | ' 
00cac                 | ' 
00cac                 | ' write_color:=ff
00cac     01 00 00 FF 
00cb0     38 A8 05 F1 | 	add	objptr, ##568
00cb4     D4 34 69 FC | 	wrlong	#154, objptr
00cb8                 | ' write_background:=bb
00cb8     04 A8 05 F1 | 	add	objptr, #4
00cbc     D4 24 69 FC | 	wrlong	#146, objptr
00cc0     3C A8 85 F1 | 	sub	objptr, #60
00cc4                 | ' v.outtextxycg(0,0,v.inttostr(v.buf_ptr),154,146)
00cc4     00 EA 05 F6 | 	mov	local01, #0
00cc8     00 EC 05 F6 | 	mov	local02, #0
00ccc     D4 EE 01 FB | 	rdlong	local03, objptr
00cd0                 | ' 
00cd0                 | ' j:=i
00cd0     F7 F0 09 F6 | 	mov	local04, local03 wz
00cd4                 | ' pos:=10
00cd4     0A F2 05 F6 | 	mov	local05, #10
00cd8                 | ' k:=0
00cd8     00 F4 05 F6 | 	mov	local06, #0
00cdc                 | ' 
00cdc                 | ' if (j==0)
00cdc     18 00 90 5D |  if_ne	jmp	#LR__0011
00ce0                 | '   n_string[0]:=48
00ce0     44 A8 05 F1 | 	add	objptr, #68
00ce4     D4 60 48 FC | 	wrbyte	#48, objptr
00ce8                 | '   n_string[1]:=0
00ce8     01 A8 05 F1 | 	add	objptr, #1
00cec     D4 00 48 FC | 	wrbyte	#0, objptr
00cf0     45 A8 85 F1 | 	sub	objptr, #69
00cf4                 | ' 
00cf4                 | ' else
00cf4     C4 00 90 FD | 	jmp	#LR__0018
00cf8                 | LR__0011
00cf8                 | '   if (j<0)
00cf8     00 F0 5D F2 | 	cmps	local04, #0 wcz
00cfc                 | '     j:=0-j
00cfc     F8 F0 61 C6 |  if_b	neg	local04, local04
00d00                 | '     k:=45
00d00     2D F4 05 C6 |  if_b	mov	local06, #45
00d04                 | ' 
00d04                 | '   n_string[11]:=0
00d04     4F A8 05 F1 | 	add	objptr, #79
00d08     D4 00 48 FC | 	wrbyte	#0, objptr
00d0c     4F A8 85 F1 | 	sub	objptr, #79
00d10     2C F3 9F FE | 	loc	pa,	#(@LR__0013-@LR__0012)
00d14     95 00 A0 FD | 	call	#FCACHE_LOAD_
00d18                 | '   repeat while (pos>-1)
00d18                 | LR__0012
00d18     FF FF 7F FF 
00d1c     FF F3 5D F2 | 	cmps	local05, ##-1 wcz
00d20     34 00 90 ED |  if_be	jmp	#LR__0014
00d24     F8 88 02 F6 | 	mov	muldiva_, local04
00d28     0A 8A 06 F6 | 	mov	muldivb_, #10
00d2c     C5 00 A0 FD | 	call	#divide_
00d30     44 F7 01 F6 | 	mov	local07, muldiva_
00d34                 | '     q:=j//10
00d34                 | '     q:=48+q
00d34     30 F6 05 F1 | 	add	local07, #48
00d38     F9 F8 01 F6 | 	mov	local08, local05
00d3c     44 A8 05 F1 | 	add	objptr, #68
00d40     D4 F8 01 F1 | 	add	local08, objptr
00d44                 | '     n_string[pos]:=q
00d44     FC F6 41 FC | 	wrbyte	local07, local08
00d48                 | '     j:=j/10
00d48     45 F1 01 F6 | 	mov	local04, muldivb_
00d4c                 | '     pos-=1
00d4c     01 F2 85 F1 | 	sub	local05, #1
00d50     44 A8 85 F1 | 	sub	objptr, #68
00d54     C0 FF 9F FD | 	jmp	#LR__0012
00d58                 | LR__0013
00d58                 | LR__0014
00d58                 | '   repeat while n_string[0]==48
00d58                 | LR__0015
00d58     44 A8 05 F1 | 	add	objptr, #68
00d5c     D4 FA C1 FA | 	rdbyte	local09, objptr
00d60     44 A8 85 F1 | 	sub	objptr, #68
00d64     30 FA 0D F2 | 	cmp	local09, #48 wz
00d68     20 00 90 5D |  if_ne	jmp	#LR__0016
00d6c     44 A8 05 F1 | 	add	objptr, #68
00d70     D4 E0 01 F6 | 	mov	arg01, objptr
00d74     44 A8 85 F1 | 	sub	objptr, #68
00d78     F0 E2 01 F6 | 	mov	arg02, arg01
00d7c     01 E2 05 F1 | 	add	arg02, #1
00d80                 | '     bytemove(@n_string,@n_string+1,12)
00d80     0C E4 05 F6 | 	mov	arg03, #12
00d84     68 17 B0 FD | 	call	#__system____builtin_memmove
00d88     CC FF 9F FD | 	jmp	#LR__0015
00d8c                 | LR__0016
00d8c                 | ' 
00d8c                 | '   if k==45
00d8c     2D F4 0D F2 | 	cmp	local06, #45 wz
00d90     28 00 90 5D |  if_ne	jmp	#LR__0017
00d94     44 A8 05 F1 | 	add	objptr, #68
00d98     D4 E2 01 F6 | 	mov	arg02, objptr
00d9c     44 A8 85 F1 | 	sub	objptr, #68
00da0     F1 E0 01 F6 | 	mov	arg01, arg02
00da4     01 E0 05 F1 | 	add	arg01, #1
00da8                 | '      bytemove(@n_string+1,@n_string,12)
00da8     0C E4 05 F6 | 	mov	arg03, #12
00dac     40 17 B0 FD | 	call	#__system____builtin_memmove
00db0                 | '      n_string[0]:=k
00db0     44 A8 05 F1 | 	add	objptr, #68
00db4     D4 F4 41 FC | 	wrbyte	local06, objptr
00db8     44 A8 85 F1 | 	sub	objptr, #68
00dbc                 | LR__0017
00dbc                 | LR__0018
00dbc     44 A8 05 F1 | 	add	objptr, #68
00dc0     D4 FC 01 F6 | 	mov	local10, objptr
00dc4                 | ' 
00dc4                 | ' q:=@n_string
00dc4                 | ' return q
00dc4     F6 FE 01 F6 | 	mov	local11, local02
00dc8     F5 00 02 F6 | 	mov	local12, local01
00dcc     9A 02 06 F6 | 	mov	local13, #154
00dd0     92 04 06 F6 | 	mov	local14, #146
00dd4                 | ' 
00dd4                 | ' repeat iii from 0 to strsize(text)-1
00dd4     00 06 06 F6 | 	mov	local15, #0
00dd8     FE E0 01 F6 | 	mov	arg01, local10
00ddc     00 08 06 F6 | 	mov	local16, #0
00de0     44 A8 85 F1 | 	sub	objptr, #68
00de4     28 F2 9F FE | 	loc	pa,	#(@LR__0020-@LR__0019)
00de8     95 00 A0 FD | 	call	#FCACHE_LOAD_
00dec                 | LR__0019
00dec     F0 0A CA FA | 	rdbyte	local17, arg01 wz
00df0     01 08 06 51 |  if_ne	add	local16, #1
00df4     01 E0 05 51 |  if_ne	add	arg01, #1
00df8     F0 FF 9F 5D |  if_ne	jmp	#LR__0019
00dfc                 | LR__0020
00dfc     04 BD 01 F6 | 	mov	result1, local16
00e00     DE 0C 02 F6 | 	mov	local18, result1
00e04     01 0C 86 F1 | 	sub	local18, #1
00e08     00 0C 5E F2 | 	cmps	local18, #0 wcz
00e0c     01 0E 06 16 |  if_a	mov	local19, #1
00e10     01 0E 66 E6 |  if_be	neg	local19, #1
00e14     07 0D 02 F1 | 	add	local18, local19
00e18                 | LR__0021
00e18     03 11 02 F6 | 	mov	local20, local15
00e1c     03 10 66 F0 | 	shl	local20, #3
00e20     00 13 02 F6 | 	mov	local21, local12
00e24     08 13 02 F1 | 	add	local21, local20
00e28     FE 14 02 F6 | 	mov	local22, local10
00e2c     03 15 02 F1 | 	add	local22, local15
00e30                 | '   putcharxycg(x+8*iii,y,byte[text+iii],f,b)
00e30     FF 16 02 F6 | 	mov	local23, local11
00e34     0A 19 C2 FA | 	rdbyte	local24, local22
00e38     9A E6 05 F6 | 	mov	arg04, #154
00e3c     92 E8 05 F6 | 	mov	arg05, #146
00e40     9A 1A 06 F6 | 	mov	local25, #154
00e44     92 1C 06 F6 | 	mov	local26, #146
00e48     04 18 66 F0 | 	shl	local24, #4
00e4c     00 1E 06 F6 | 	mov	local27, #0
00e50                 | LR__0022
00e50     D8 20 02 F6 | 	mov	local28, ptr__hng025_dat__
00e54     C8 A8 05 F1 | 	add	objptr, #200
00e58     D4 22 02 FB | 	rdlong	local29, objptr
00e5c     C8 A8 85 F1 | 	sub	objptr, #200
00e60     0A 22 66 F0 | 	shl	local29, #10
00e64     11 21 02 F1 | 	add	local28, local29
00e68     0C 21 02 F1 | 	add	local28, local24
00e6c     0F 21 02 F1 | 	add	local28, local27
00e70                 | '   bb:=byte[@vga_font+font_family<<10+achar<<4+yy]
00e70     10 25 C2 FA | 	rdbyte	local30, local28
00e74                 | '   repeat xx from 0 to 7
00e74     00 26 06 F6 | 	mov	local31, #0
00e78                 | LR__0023
00e78                 | '     if (bb&(1<<xx))<>0
00e78     13 29 C2 F9 | 	decod	local32, local31
00e7c     14 25 CA F7 | 	test	local30, local32 wz
00e80     40 00 90 AD |  if_e	jmp	#LR__0024
00e84     13 E1 01 F6 | 	mov	arg01, local31
00e88     09 E1 01 F1 | 	add	arg01, local21
00e8c     0F E3 01 F6 | 	mov	arg02, local27
00e90     0B E3 01 F1 | 	add	arg02, local23
00e94                 | '       putpixel(xx+x,yy+y,f)
00e94     D8 A8 05 F1 | 	add	objptr, #216
00e98     D4 2A 02 FB | 	rdlong	local33, objptr
00e9c     D8 A8 85 F1 | 	sub	objptr, #216
00ea0     15 29 02 FB | 	rdlong	local32, local33
00ea4     04 2A 06 F1 | 	add	local33, #4
00ea8     15 2D 02 FB | 	rdlong	local34, local33
00eac     9A E4 05 F6 | 	mov	arg03, #154
00eb0     D4 2E 02 F6 | 	mov	local35, objptr
00eb4     14 A9 01 F6 | 	mov	objptr, local32
00eb8     2D 2C 62 FD | 	call	local34
00ebc     17 A9 01 F6 | 	mov	objptr, local35
00ec0                 | '     else
00ec0     3C 00 90 FD | 	jmp	#LR__0025
00ec4                 | LR__0024
00ec4     13 E1 01 F6 | 	mov	arg01, local31
00ec8     09 E1 01 F1 | 	add	arg01, local21
00ecc     0F E3 01 F6 | 	mov	arg02, local27
00ed0     0B E3 01 F1 | 	add	arg02, local23
00ed4                 | '       putpixel(xx+x,yy+y,b)
00ed4     D8 A8 05 F1 | 	add	objptr, #216
00ed8     D4 2A 02 FB | 	rdlong	local33, objptr
00edc     D8 A8 85 F1 | 	sub	objptr, #216
00ee0     15 29 02 FB | 	rdlong	local32, local33
00ee4     04 2A 06 F1 | 	add	local33, #4
00ee8     15 2D 02 FB | 	rdlong	local34, local33
00eec     92 E4 05 F6 | 	mov	arg03, #146
00ef0     D4 2E 02 F6 | 	mov	local35, objptr
00ef4     14 A9 01 F6 | 	mov	objptr, local32
00ef8     2D 2C 62 FD | 	call	local34
00efc     17 A9 01 F6 | 	mov	objptr, local35
00f00                 | LR__0025
00f00     01 26 06 F1 | 	add	local31, #1
00f04     08 26 5E F2 | 	cmps	local31, #8 wcz
00f08     6C FF 9F CD |  if_b	jmp	#LR__0023
00f0c     01 1E 06 F1 | 	add	local27, #1
00f10     10 1E 5E F2 | 	cmps	local27, #16 wcz
00f14     38 FF 9F CD |  if_b	jmp	#LR__0022
00f18     07 07 02 F1 | 	add	local15, local19
00f1c     06 07 0A F2 | 	cmp	local15, local18 wz
00f20     F4 FE 9F 5D |  if_ne	jmp	#LR__0021
00f24     01 00 00 FF 
00f28     58 A9 85 F1 | 	sub	objptr, ##856
00f2c                 | ' 
00f2c                 | ' xxx:=0 
00f2c     00 30 06 F6 | 	mov	local36, #0
00f30                 | ' yyy:=0
00f30     00 32 06 F6 | 	mov	local37, #0
00f34                 | ' 
00f34                 | ' repeat
00f34                 | '   repeat
00f34                 | LR__0026
00f34     34 F1 9F FE | 	loc	pa,	#(@LR__0030-@LR__0027)
00f38     95 00 A0 FD | 	call	#FCACHE_LOAD_
00f3c                 | '     rr:=serialblockingread()
00f3c                 | ' 
00f3c                 | ' repeat
00f3c                 | LR__0027
00f3c                 | '   r:=serialread()
00f3c                 | ' 
00f3c                 | ' if serialfront<>serialtail
00f3c     54 A9 05 F1 | 	add	objptr, #340
00f40     D4 0A 02 FB | 	rdlong	local17, objptr
00f44     04 A8 85 F1 | 	sub	objptr, #4
00f48     D4 34 02 FB | 	rdlong	local38, objptr
00f4c     50 A9 85 F1 | 	sub	objptr, #336
00f50     1A 0B 0A F2 | 	cmp	local17, local38 wz
00f54     3C 00 90 AD |  if_e	jmp	#LR__0028
00f58     50 A9 05 F1 | 	add	objptr, #336
00f5c     D4 36 02 FB | 	rdlong	local39, objptr
00f60     02 36 66 F0 | 	shl	local39, #2
00f64     00 A9 85 F1 | 	sub	objptr, #256
00f68     D4 36 02 F1 | 	add	local39, objptr
00f6c                 | '   r:=serialbuf[serialtail]
00f6c     1B 39 02 FB | 	rdlong	local40, local39
00f70     00 A9 05 F1 | 	add	objptr, #256
00f74     D4 3A 02 FB | 	rdlong	local41, objptr
00f78     01 3A 06 F1 | 	add	local41, #1
00f7c     1D 0B 52 F6 | 	abs	local17, local41 wc
00f80     1F 0A 06 F5 | 	and	local17, #31
00f84     05 0B 62 C6 |  if_b	neg	local17, local17
00f88                 | '   serialtail:=(serialtail+1)//32
00f88     D4 0A 62 FC | 	wrlong	local17, objptr
00f8c     50 A9 85 F1 | 	sub	objptr, #336
00f90                 | ' else
00f90     04 00 90 FD | 	jmp	#LR__0029
00f94                 | LR__0028
00f94                 | '   r:=-1
00f94     01 38 66 F6 | 	neg	local40, #1
00f98                 | LR__0029
00f98                 | ' return r
00f98     1C 3D 02 F6 | 	mov	local42, local40
00f9c     FF FF 7F FF 
00fa0     FF 3D 0E F2 | 	cmp	local42, ##-1 wz
00fa4     94 FF 9F AD |  if_e	jmp	#LR__0027
00fa8                 | LR__0030
00fa8                 | ' until r<>-1
00fa8                 | ' return r
00fa8     1E BD 01 F6 | 	mov	result1, local42
00fac     DE 3E 02 F6 | 	mov	local43, result1
00fb0                 | '     if rr==255
00fb0     FF 3E 0E F2 | 	cmp	local43, #255 wz
00fb4                 | '       xxx:=0
00fb4     00 30 06 A6 |  if_e	mov	local36, #0
00fb8                 | '       yyy:=0
00fb8     00 32 06 A6 |  if_e	mov	local37, #0
00fbc                 | '     else  
00fbc     74 FF 9F AD |  if_e	jmp	#LR__0026
00fc0     19 41 02 F6 | 	mov	local44, local37
00fc4     07 40 66 F0 | 	shl	local44, #7
00fc8                 | '       byte[v.buf_ptr+(yyy<<7)+xxx]:=rr
00fc8     01 00 00 FF 
00fcc     58 A9 05 F1 | 	add	objptr, ##856
00fd0     D4 EA 01 FB | 	rdlong	local01, objptr
00fd4     01 00 00 FF 
00fd8     58 A9 85 F1 | 	sub	objptr, ##856
00fdc     20 EB 01 F1 | 	add	local01, local44
00fe0     18 EB 01 F1 | 	add	local01, local36
00fe4     F5 3E 42 FC | 	wrbyte	local43, local01
00fe8                 | '       xxx++
00fe8     01 30 06 F1 | 	add	local36, #1
00fec                 | '       if (xxx>79)
00fec     4F 30 5E F2 | 	cmps	local36, #79 wcz
00ff0     40 FF 9F ED |  if_be	jmp	#LR__0026
00ff4                 | '         xxx:=0
00ff4     00 30 06 F6 | 	mov	local36, #0
00ff8     01 32 06 F1 | 	add	local37, #1
00ffc     19 89 02 F6 | 	mov	muldiva_, local37
01000     3C 8A 06 F6 | 	mov	muldivb_, #60
01004     C1 00 A0 FD | 	call	#unsdivide_
01008                 | '         yyy:=(yyy+1)+//60
01008     44 33 02 F6 | 	mov	local37, muldiva_
0100c     24 FF 9F FD | 	jmp	#LR__0026
01010     A4 F0 03 F6 | 	mov	ptra, fp
01014     B4 00 A0 FD | 	call	#popregs_
01018                 | _display_lidar_ret
01018     2D 00 64 FD | 	ret
0101c                 | 
0101c                 | '         
0101c                 | '   
0101c                 | ' pub receive_sbus(p, p_sbus) : success | x, b, byte buffer[25]   ' blocks if no signal!!!
0101c                 | _receive_sbus
0101c     06 44 05 F6 | 	mov	COUNT_, #6
01020     A5 00 A0 FD | 	call	#pushregs_
01024     3C F0 07 F1 | 	add	ptra, #60
01028     04 48 05 F1 | 	add	fp, #4
0102c     A4 E0 61 FC | 	wrlong	arg01, fp
01030     04 48 05 F1 | 	add	fp, #4
01034     A4 E2 61 FC | 	wrlong	arg02, fp
01038     08 48 85 F1 | 	sub	fp, #8
0103c     A4 00 68 FC | 	wrlong	#0, fp
01040                 | ' 
01040                 | '   pinclear(p)                                                   ' force to tri-state mode
01040     04 48 05 F1 | 	add	fp, #4
01044     A4 E0 01 FB | 	rdlong	arg01, fp
01048     50 E0 61 FD | 	fltl	arg01
0104c     F0 00 08 FC | 	wrpin	#0, arg01
01050                 | ' 
01050                 | '   x := 0                                                        ' find inter-frame gap
01050     08 48 05 F1 | 	add	fp, #8
01054     A4 00 68 FC | 	wrlong	#0, fp
01058     0C 48 85 F1 | 	sub	fp, #12
0105c                 | '   repeat
0105c                 | LR__0031
0105c                 | '     if (pinread(p) == 0)
0105c     04 48 05 F1 | 	add	fp, #4
01060     A4 E0 01 FB | 	rdlong	arg01, fp
01064     04 48 85 F1 | 	sub	fp, #4
01068     88 16 B0 FD | 	call	#__system___pinread
0106c     00 BC 0D F2 | 	cmp	result1, #0 wz
01070     20 00 90 5D |  if_ne	jmp	#LR__0032
01074                 | '       if (++x == 250)
01074     0C 48 05 F1 | 	add	fp, #12
01078     A4 EA 01 FB | 	rdlong	local01, fp
0107c     01 EA 05 F1 | 	add	local01, #1
01080     A4 EA 61 FC | 	wrlong	local01, fp
01084     0C 48 85 F1 | 	sub	fp, #12
01088     FA EA 0D F2 | 	cmp	local01, #250 wz
0108c                 | '         quit
0108c     14 00 90 AD |  if_e	jmp	#LR__0033
01090                 | '     else
01090     C8 FF 9F FD | 	jmp	#LR__0031
01094                 | LR__0032
01094                 | '       x := 0
01094     0C 48 05 F1 | 	add	fp, #12
01098     A4 00 68 FC | 	wrlong	#0, fp
0109c     0C 48 85 F1 | 	sub	fp, #12
010a0     B8 FF 9F FD | 	jmp	#LR__0031
010a4                 | LR__0033
010a4                 | ' 
010a4                 | '   pinstart(p, SBUS_CFG, SBUS_BAUD, 0)                           ' configure for S.BUS serial
010a4     04 48 05 F1 | 	add	fp, #4
010a8     A4 E0 01 FB | 	rdlong	arg01, fp
010ac     40 00 00 FF 
010b0     3E E2 05 F6 | 	mov	arg02, ##32830
010b4     00 ED 06 FF 
010b8     08 E4 05 F6 | 	mov	arg03, ##232390664
010bc     00 E6 05 F6 | 	mov	arg04, #0
010c0     40 E0 61 FD | 	dirl	arg01
010c4     40 00 80 FF 
010c8     F0 7C 08 FC | 	wrpin	##32830, arg01
010cc     00 ED 86 FF 
010d0     F0 10 18 FC | 	wxpin	##232390664, arg01
010d4     F0 00 28 FC | 	wypin	#0, arg01
010d8     41 E0 61 FD | 	dirh	arg01
010dc                 | ' 
010dc                 | '   repeat x from 0 to 24                                         ' get s.bus frame
010dc     08 48 05 F1 | 	add	fp, #8
010e0     A4 00 68 FC | 	wrlong	#0, fp
010e4     0C 48 85 F1 | 	sub	fp, #12
010e8                 | LR__0034
010e8                 | '     repeat until (pinread(p))                                   ' wait for byte
010e8                 | LR__0035
010e8     04 48 05 F1 | 	add	fp, #4
010ec     A4 E0 01 FB | 	rdlong	arg01, fp
010f0     04 48 85 F1 | 	sub	fp, #4
010f4     FC 15 B0 FD | 	call	#__system___pinread
010f8     00 BC 0D F2 | 	cmp	result1, #0 wz
010fc     E8 FF 9F AD |  if_e	jmp	#LR__0035
01100                 | '     b := rdpin(p) >> 23                                         ' get data + parity
01100     04 48 05 F1 | 	add	fp, #4
01104     A4 E0 01 FB | 	rdlong	arg01, fp
01108     00 BC 05 F6 | 	mov	result1, #0
0110c     F0 BC 89 FA | 	rdpin	result1, arg01
01110     DE E0 01 F6 | 	mov	arg01, result1
01114     17 E0 45 F0 | 	shr	arg01, #23
01118     0C 48 05 F1 | 	add	fp, #12
0111c     A4 E0 61 FC | 	wrlong	arg01, fp
01120                 | '     if (ones(b) & 1)                                            ' if odd parity
01120     10 48 85 F1 | 	sub	fp, #16
01124     00 BC 05 F6 | 	mov	result1, #0
01128     F0 BC A1 F7 | 	ones	result1, arg01
0112c     01 BC CD F7 | 	test	result1, #1 wz
01130                 | '       return false                                              '  return error
01130     00 BC 05 56 |  if_ne	mov	result1, #0
01134     8C 00 90 5D |  if_ne	jmp	#LR__0038
01138                 | '     else                                                        ' else
01138     10 48 05 F1 | 	add	fp, #16
0113c     A4 EC 01 FB | 	rdlong	local02, fp
01140     FF EC 05 F5 | 	and	local02, #255
01144     04 48 85 F1 | 	sub	fp, #4
01148     A4 EE 01 FB | 	rdlong	local03, fp
0114c     08 48 05 F1 | 	add	fp, #8
01150     A4 EE 01 F1 | 	add	local03, fp
01154                 | '       buffer[x] := b & $FF                                      '  save to buffer
01154     F7 EC 41 FC | 	wrbyte	local02, local03
01158     08 48 85 F1 | 	sub	fp, #8
0115c     A4 F0 01 FB | 	rdlong	local04, fp
01160     01 F0 05 F1 | 	add	local04, #1
01164     A4 F0 61 FC | 	wrlong	local04, fp
01168     0C 48 85 F1 | 	sub	fp, #12
0116c     19 F0 5D F2 | 	cmps	local04, #25 wcz
01170     74 FF 9F CD |  if_b	jmp	#LR__0034
01174                 | ' 
01174                 | '   if (buffer[0] <> $0F) || (buffer[24] <> $00)                  ' check header & footer bytes
01174     14 48 05 F1 | 	add	fp, #20
01178     A4 F2 C1 FA | 	rdbyte	local05, fp
0117c     14 48 85 F1 | 	sub	fp, #20
01180     0F F2 0D F2 | 	cmp	local05, #15 wz
01184     14 00 90 5D |  if_ne	jmp	#LR__0036
01188     2C 48 05 F1 | 	add	fp, #44
0118c     A4 F4 C1 FA | 	rdbyte	local06, fp
01190     2C 48 85 F1 | 	sub	fp, #44
01194     FA EA 09 F6 | 	mov	local01, local06 wz
01198     08 00 90 AD |  if_e	jmp	#LR__0037
0119c                 | LR__0036
0119c                 | '     return false
0119c     00 BC 05 F6 | 	mov	result1, #0
011a0     20 00 90 FD | 	jmp	#LR__0038
011a4                 | LR__0037
011a4     14 48 05 F1 | 	add	fp, #20
011a8     A4 E2 01 F6 | 	mov	arg02, fp
011ac                 | ' 
011ac                 | '   bytemove(p_sbus, @buffer, 25)                                 ' success; copy to destination
011ac     0C 48 85 F1 | 	sub	fp, #12
011b0     A4 E0 01 FB | 	rdlong	arg01, fp
011b4     08 48 85 F1 | 	sub	fp, #8
011b8     19 E4 05 F6 | 	mov	arg03, #25
011bc     30 13 B0 FD | 	call	#__system____builtin_memmove
011c0                 | ' 
011c0                 | '   return true
011c0     01 BC 65 F6 | 	neg	result1, #1
011c4                 | LR__0038
011c4     A4 F0 03 F6 | 	mov	ptra, fp
011c8     B4 00 A0 FD | 	call	#popregs_
011cc                 | _receive_sbus_ret
011cc     2D 00 64 FD | 	ret
011d0                 | 
011d0                 | ' 
011d0                 | ' 
011d0                 | ' pub decode_sbus(p_sbus, p_chans) | ch, work, bc, flags
011d0                 | _decode_sbus
011d0     0C 44 05 F6 | 	mov	COUNT_, #12
011d4     A5 00 A0 FD | 	call	#pushregs_
011d8     3C F0 07 F1 | 	add	ptra, #60
011dc     A4 E0 61 FC | 	wrlong	arg01, fp
011e0     04 48 05 F1 | 	add	fp, #4
011e4     A4 E2 61 FC | 	wrlong	arg02, fp
011e8     04 48 85 F1 | 	sub	fp, #4
011ec                 | ' 
011ec                 | '   p_sbus += 1                                                   ' point to data byte #1
011ec     A4 EA 01 FB | 	rdlong	local01, fp
011f0     01 EA 05 F1 | 	add	local01, #1
011f4     A4 EA 61 FC | 	wrlong	local01, fp
011f8     08 48 05 F1 | 	add	fp, #8
011fc     A4 E0 01 F6 | 	mov	arg01, fp
01200     08 48 85 F1 | 	sub	fp, #8
01204                 | ' 
01204                 | '   longfill(@ch, 0, 3)                                           ' clear locals
01204     00 E2 05 F6 | 	mov	arg02, #0
01208     00 EE 9F FE | 	loc	pa,	#(@LR__0041-@LR__0039)
0120c     95 00 A0 FD | 	call	#FCACHE_LOAD_
01210                 | LR__0039
01210     03 04 DC FC | 	rep	@LR__0042, #3
01214                 | LR__0040
01214     F0 E2 61 FC | 	wrlong	arg02, arg01
01218     04 E0 05 F1 | 	add	arg01, #4
0121c                 | LR__0041
0121c                 | LR__0042
0121c     B0 EE 9F FE | 	loc	pa,	#(@LR__0046-@LR__0043)
01220     95 00 A0 FD | 	call	#FCACHE_LOAD_
01224                 | ' 
01224                 | '   repeat while (ch <= 15)                                       ' Ch 1-16 decoding
01224                 | LR__0043
01224     08 48 05 F1 | 	add	fp, #8
01228     A4 EA 01 FB | 	rdlong	local01, fp
0122c     08 48 85 F1 | 	sub	fp, #8
01230     0F EA 5D F2 | 	cmps	local01, #15 wcz
01234     BC 00 90 1D |  if_a	jmp	#LR__0047
01238                 | '     repeat while (bc < 11)                                      ' collect enough bits for channel
01238                 | LR__0044
01238     10 48 05 F1 | 	add	fp, #16
0123c     A4 EA 01 FB | 	rdlong	local01, fp
01240     10 48 85 F1 | 	sub	fp, #16
01244     0B EA 5D F2 | 	cmps	local01, #11 wcz
01248     48 00 90 3D |  if_ae	jmp	#LR__0045
0124c                 | '       work |= (byte[p_sbus++] << bc)                            ' get byte, position, add to work
0124c     A4 EC 01 FB | 	rdlong	local02, fp
01250     F6 EE 01 F6 | 	mov	local03, local02
01254     01 EE 05 F1 | 	add	local03, #1
01258     A4 EE 61 FC | 	wrlong	local03, fp
0125c     F6 F0 C1 FA | 	rdbyte	local04, local02
01260     10 48 05 F1 | 	add	fp, #16
01264     A4 F2 01 FB | 	rdlong	local05, fp
01268     F9 F0 61 F0 | 	shl	local04, local05
0126c     04 48 85 F1 | 	sub	fp, #4
01270     A4 F4 01 FB | 	rdlong	local06, fp
01274     F8 F4 41 F5 | 	or	local06, local04
01278     A4 F4 61 FC | 	wrlong	local06, fp
0127c                 | '       bc += 8                                                   ' bump bit count
0127c     04 48 05 F1 | 	add	fp, #4
01280     A4 EA 01 FB | 	rdlong	local01, fp
01284     08 EA 05 F1 | 	add	local01, #8
01288     A4 EA 61 FC | 	wrlong	local01, fp
0128c     10 48 85 F1 | 	sub	fp, #16
01290     A4 FF 9F FD | 	jmp	#LR__0044
01294                 | LR__0045
01294     0C 48 05 F1 | 	add	fp, #12
01298     A4 F6 01 FB | 	rdlong	local07, fp
0129c     03 00 00 FF 
012a0     FF F7 05 F5 | 	and	local07, ##2047
012a4                 | '     word[p_chans][ch++] := work & $07FF                         ' extract and save channel
012a4     08 48 85 F1 | 	sub	fp, #8
012a8     A4 F8 01 FB | 	rdlong	local08, fp
012ac     04 48 05 F1 | 	add	fp, #4
012b0     A4 FA 01 FB | 	rdlong	local09, fp
012b4     FD FC 01 F6 | 	mov	local10, local09
012b8     01 FC 05 F1 | 	add	local10, #1
012bc     A4 FC 61 FC | 	wrlong	local10, fp
012c0     01 FA 65 F0 | 	shl	local09, #1
012c4     FC FA 01 F1 | 	add	local09, local08
012c8     FD F6 51 FC | 	wrword	local07, local09
012cc                 | '     work >>= 11                                                 ' remove channel, re-align lsb
012cc     04 48 05 F1 | 	add	fp, #4
012d0     A4 EA 01 FB | 	rdlong	local01, fp
012d4     0B EA 45 F0 | 	shr	local01, #11
012d8     A4 EA 61 FC | 	wrlong	local01, fp
012dc                 | '     bc -= 11                                                    ' fix bit count
012dc     04 48 05 F1 | 	add	fp, #4
012e0     A4 EA 01 FB | 	rdlong	local01, fp
012e4     0B EA 85 F1 | 	sub	local01, #11
012e8     A4 EA 61 FC | 	wrlong	local01, fp
012ec     10 48 85 F1 | 	sub	fp, #16
012f0     30 FF 9F FD | 	jmp	#LR__0043
012f4                 | LR__0046
012f4                 | LR__0047
012f4                 | ' 
012f4                 | '   flags := byte[p_sbus]
012f4     A4 EA 01 FB | 	rdlong	local01, fp
012f8     F5 FE C1 FA | 	rdbyte	local11, local01
012fc     14 48 05 F1 | 	add	fp, #20
01300     A4 FE 61 FC | 	wrlong	local11, fp
01304     01 FE CD F7 | 	test	local11, #1 wz
01308                 | ' 
01308                 | '   word[p_chans][16] := (flags & %0001) ? $07FF : 0              ' convert ch17 bit
01308     0A EA CD 59 |  if_ne	bmask	local01, #10
0130c     00 EA 05 A6 |  if_e	mov	local01, #0
01310     10 48 85 F1 | 	sub	fp, #16
01314     A4 EC 01 FB | 	rdlong	local02, fp
01318     20 EC 05 F1 | 	add	local02, #32
0131c     F6 EA 51 FC | 	wrword	local01, local02
01320     10 48 05 F1 | 	add	fp, #16
01324     A4 00 02 FB | 	rdlong	local12, fp
01328     02 00 CE F7 | 	test	local12, #2 wz
0132c                 | '   word[p_chans][17] := (flags & %0010) ? $07FF : 0              ' convert ch18 bit
0132c     0A EA CD 59 |  if_ne	bmask	local01, #10
01330     00 EA 05 A6 |  if_e	mov	local01, #0
01334     10 48 85 F1 | 	sub	fp, #16
01338     A4 EC 01 FB | 	rdlong	local02, fp
0133c     04 48 85 F1 | 	sub	fp, #4
01340     22 EC 05 F1 | 	add	local02, #34
01344     F6 EA 51 FC | 	wrword	local01, local02
01348     A4 F0 03 F6 | 	mov	ptra, fp
0134c     B4 00 A0 FD | 	call	#popregs_
01350                 | _decode_sbus_ret
01350     2D 00 64 FD | 	ret
01354                 | 
01354                 | '  
01354                 | ' pub dacinit() | dac
01354                 | _dacinit
01354                 | ' 
01354                 | ' dac:=%10110_00000000_01_00011_0  
01354                 | ' 
01354                 | ' 
01354                 | ' org
01354     C4 EC 9F FE | 	loc	pa,	#(@LR__0049-@LR__0048)
01358     95 00 A0 FD | 	call	#FCACHE_LOAD_
0135c                 | LR__0048
0135c 000             | 	org	0
0135c 000 00 0B 80 FF 
01360 001 00 8C 0C FC | 	wrpin	##1441862, #0
01364 002 00 00 1E FC | 	wxpin	#256, #0
01368 003 00 0B 80 FF 
0136c 004 01 8C 0C FC | 	wrpin	##1441862, #1
01370 005 01 00 1E FC | 	wxpin	#256, #1
01374 006 41 80 64 FD | 	dirh	#64
01378 007             | LR__0049
01378                 | 	orgh
01378                 | _dacinit_ret
01378     2D 00 64 FD | 	ret
0137c                 | 
0137c                 | ' 
0137c                 | '    
0137c                 | ' pub dacset(lll,rrr)
0137c                 | _dacset
0137c                 | '    
0137c                 | ' org   
0137c     88 EC 9F FE | 	loc	pa,	#(@LR__0051-@LR__0050)
01380     95 00 A0 FD | 	call	#FCACHE_LOAD_
01384                 | LR__0050
01384 000             | 	org	0
01384 000 00 E0 25 FC | 	wypin	arg01, #0
01388 001 01 E2 25 FC | 	wypin	arg02, #1
0138c 002             | LR__0051
0138c                 | 	orgh
0138c                 | _dacset_ret
0138c     2D 00 64 FD | 	ret
01390                 | 
01390                 | ' 
01390                 | ' 
01390                 | ' ''---------------------- Serial functions from jm_serial.spin2
01390                 | ' 
01390                 | ' pub serial_start(rxpin2, txpin2, baud) | bitmode
01390                 | _serial_start
01390     05 44 05 F6 | 	mov	COUNT_, #5
01394     A5 00 A0 FD | 	call	#pushregs_
01398     F0 EA 01 F6 | 	mov	local01, arg01
0139c     F1 EC 01 F6 | 	mov	local02, arg02
013a0                 | ' 
013a0                 | ' '' Start simple serial coms on rxpin and txpin at baud
013a0                 | ' 
013a0                 | ' '  longmove(@rxp, @rxpin2, 2)                                     ' save pins
013a0                 | ' 
013a0                 | '   rxp:=rxpin2
013a0     40 A8 05 F1 | 	add	objptr, #64
013a4     D4 EA 61 FC | 	wrlong	local01, objptr
013a8                 | '   txp:=txpin2
013a8     04 A8 05 F1 | 	add	objptr, #4
013ac     D4 EC 61 FC | 	wrlong	local02, objptr
013b0     44 A8 85 F1 | 	sub	objptr, #68
013b4                 | ' 
013b4                 | '   bitmode := muldiv64(clkfreq, $1_0000, baud) & $FFFFFC00       ' set bit timing
013b4     14 E0 05 FB | 	rdlong	arg01, #20
013b8     10 E2 C5 F9 | 	decod	arg02, #16
013bc     F1 E0 01 FD | 	qmul	arg01, arg02
013c0     19 EE 61 FD | 	getqy	local03
013c4     18 F0 61 FD | 	getqx	local04
013c8     28 EE 61 FD | 	setq	local03
013cc     F2 F0 11 FD | 	qdiv	local04, arg03
013d0     18 BC 61 FD | 	getqx	result1
013d4     DE F2 01 F6 | 	mov	local05, result1
013d8     FE FF 7F FF 
013dc     00 F2 05 F5 | 	and	local05, ##-1024
013e0                 | '   bitmode |= 7                                                  ' set bits (8)
013e0     07 F2 45 F5 | 	or	local05, #7
013e4                 | ' 
013e4                 | '   org
013e4     38 EC 9F FE | 	loc	pa,	#(@LR__0053-@LR__0052)
013e8     95 00 A0 FD | 	call	#FCACHE_LOAD_
013ec                 | LR__0052
013ec 000             | 	org	0
013ec 000 50 EA 61 FD | 	fltl	local01
013f0 001 F5 7C 08 FC | 	wrpin	#62, local01
013f4 002 F5 F2 11 FC | 	wxpin	local05, local01
013f8 003 58 EA 61 FD | 	drvl	local01
013fc 004 50 EC 61 FD | 	fltl	local02
01400 005 F6 F8 08 FC | 	wrpin	#124, local02
01404 006 F6 F2 11 FC | 	wxpin	local05, local02
01408 007 58 EC 61 FD | 	drvl	local02
0140c 008             | LR__0053
0140c                 | 	orgh
0140c     A4 F0 03 F6 | 	mov	ptra, fp
01410     B4 00 A0 FD | 	call	#popregs_
01414                 | _serial_start_ret
01414     2D 00 64 FD | 	ret
01418                 | 
01418                 | '   while (rxcheck() >= 0)
01418                 | ' 
01418                 | ' 
01418                 | ' pub rxcheck() : rxbyte | check
01418                 | _rxcheck
01418     02 44 05 F6 | 	mov	COUNT_, #2
0141c     A5 00 A0 FD | 	call	#pushregs_
01420                 | ' 
01420                 | ' '' Check for serial input
01420                 | ' '' -- returns -1 if nothing available
01420                 | ' 
01420                 | '   rxbyte := -1
01420     01 EA 65 F6 | 	neg	local01, #1
01424                 | '   check := pinr(rxp)
01424     40 A8 05 F1 | 	add	objptr, #64
01428     D4 E0 01 FB | 	rdlong	arg01, objptr
0142c     40 A8 85 F1 | 	sub	objptr, #64
01430     C0 12 B0 FD | 	call	#__system___pinread
01434     DE EC 09 F6 | 	mov	local02, result1 wz
01438                 | '   if (check)
01438     18 00 90 AD |  if_e	jmp	#LR__0054
0143c                 | '     rxbyte := rdpin(rxp) >> 24
0143c     40 A8 05 F1 | 	add	objptr, #64
01440     D4 E0 01 FB | 	rdlong	arg01, objptr
01444     40 A8 85 F1 | 	sub	objptr, #64
01448     00 EA 05 F6 | 	mov	local01, #0
0144c     F0 EA 89 FA | 	rdpin	local01, arg01
01450     18 EA 45 F0 | 	shr	local01, #24
01454                 | LR__0054
01454     F5 BC 01 F6 | 	mov	result1, local01
01458     A4 F0 03 F6 | 	mov	ptra, fp
0145c     B4 00 A0 FD | 	call	#popregs_
01460                 | _rxcheck_ret
01460     2D 00 64 FD | 	ret
01464                 | 
01464                 | '   while (check == 0)
01464                 | ' 
01464                 | '   
01464                 | '   
01464                 | ' pub serialcog()|q
01464                 | _serialcog
01464     06 44 05 F6 | 	mov	COUNT_, #6
01468     A5 00 A0 FD | 	call	#pushregs_
0146c                 | ' 
0146c                 | ' serialfront:=0
0146c     00 EA 05 F6 | 	mov	local01, #0
01470     54 A9 05 F1 | 	add	objptr, #340
01474     D4 00 68 FC | 	wrlong	#0, objptr
01478                 | ' serialtail:=0
01478     04 A8 85 F1 | 	sub	objptr, #4
0147c     D4 00 68 FC | 	wrlong	#0, objptr
01480     50 A9 85 F1 | 	sub	objptr, #336
01484                 | ' 
01484                 | ' repeat
01484                 | LR__0055
01484                 | '   if serialfront<>((serialtail-1) //32)
01484     50 A9 05 F1 | 	add	objptr, #336
01488     D4 EA 01 FB | 	rdlong	local01, objptr
0148c     01 EA 85 F1 | 	sub	local01, #1
01490     F5 EC 51 F6 | 	abs	local02, local01 wc
01494     1F EC 05 F5 | 	and	local02, #31
01498     F6 EC 61 C6 |  if_b	neg	local02, local02
0149c     04 A8 05 F1 | 	add	objptr, #4
014a0     D4 EE 01 FB | 	rdlong	local03, objptr
014a4     54 A9 85 F1 | 	sub	objptr, #340
014a8     F6 EE 09 F2 | 	cmp	local03, local02 wz
014ac     D4 FF 9F AD |  if_e	jmp	#LR__0055
014b0                 | '     q:=rxcheck()
014b0     64 FF BF FD | 	call	#_rxcheck
014b4     DE F0 01 F6 | 	mov	local04, result1
014b8                 | '     if q>=0
014b8     00 F0 5D F2 | 	cmps	local04, #0 wcz
014bc     C4 FF 9F CD |  if_b	jmp	#LR__0055
014c0     54 A9 05 F1 | 	add	objptr, #340
014c4     D4 F2 01 FB | 	rdlong	local05, objptr
014c8     02 F2 65 F0 | 	shl	local05, #2
014cc     04 A9 85 F1 | 	sub	objptr, #260
014d0     D4 F2 01 F1 | 	add	local05, objptr
014d4                 | '      serialbuf[serialfront]:=q
014d4     F9 F0 61 FC | 	wrlong	local04, local05
014d8                 | '      serialfront+=1
014d8     04 A9 05 F1 | 	add	objptr, #260
014dc     D4 F4 01 FB | 	rdlong	local06, objptr
014e0     01 F4 05 F1 | 	add	local06, #1
014e4     D4 F4 61 FC | 	wrlong	local06, objptr
014e8                 | '      serialfront:=serialfront // 32
014e8     FA EA 51 F6 | 	abs	local01, local06 wc
014ec     1F EA 05 F5 | 	and	local01, #31
014f0     F5 EA 61 C6 |  if_b	neg	local01, local01
014f4     D4 EA 61 FC | 	wrlong	local01, objptr
014f8     54 A9 85 F1 | 	sub	objptr, #340
014fc     84 FF 9F FD | 	jmp	#LR__0055
01500     A4 F0 03 F6 | 	mov	ptra, fp
01504     B4 00 A0 FD | 	call	#popregs_
01508                 | _serialcog_ret
01508     2D 00 64 FD | 	ret
0150c                 | 
0150c                 | ' 
0150c                 | ' 
0150c                 | ' ''---------- putpixel - put a pixel on the screen
0150c                 | ' 
0150c                 | ' pub putpixel1(x,y,c) |byte b
0150c                 | _hng025_putpixel1
0150c                 | ' 
0150c                 | ' 
0150c                 | ' if ((x>=0) & (x<32*cpl) & (y>=0) & (y<lines))
0150c     00 C0 05 F6 | 	mov	_var01, #0
01510     00 E0 5D F2 | 	cmps	arg01, #0 wcz
01514     01 C0 65 36 |  if_ae	neg	_var01, #1
01518     00 C2 05 F6 | 	mov	_var02, #0
0151c     90 A8 05 F1 | 	add	objptr, #144
01520     D4 C4 01 FB | 	rdlong	_var03, objptr
01524     05 C4 65 F0 | 	shl	_var03, #5
01528     E2 E0 59 F2 | 	cmps	arg01, _var03 wcz
0152c     01 C2 65 C6 |  if_b	neg	_var02, #1
01530     E1 C0 01 F5 | 	and	_var01, _var02
01534     00 C6 05 F6 | 	mov	_var04, #0
01538     00 E2 5D F2 | 	cmps	arg02, #0 wcz
0153c     01 C6 65 36 |  if_ae	neg	_var04, #1
01540     E3 C0 01 F5 | 	and	_var01, _var04
01544     00 C8 05 F6 | 	mov	_var05, #0
01548     04 A8 05 F1 | 	add	objptr, #4
0154c     D4 CA 01 FB | 	rdlong	_var06, objptr
01550     94 A8 85 F1 | 	sub	objptr, #148
01554     E5 E2 59 F2 | 	cmps	arg02, _var06 wcz
01558     01 C8 65 C6 |  if_b	neg	_var05, #1
0155c     E4 C0 C9 F7 | 	test	_var01, _var05 wz
01560     8C 00 90 AD |  if_e	jmp	#LR__0058
01564     90 A8 05 F1 | 	add	objptr, #144
01568     D4 CC 01 FB | 	rdlong	_var07, objptr
0156c     90 A8 85 F1 | 	sub	objptr, #144
01570     02 CC 65 F0 | 	shl	_var07, #2
01574     F1 CC 01 FD | 	qmul	_var07, arg02
01578     18 CE 61 FD | 	getqx	_var08
0157c     D4 D0 01 FB | 	rdlong	_var09, objptr
01580     E7 D0 01 F1 | 	add	_var09, _var08
01584     F0 D2 01 F6 | 	mov	_var10, arg01
01588     03 D2 45 F0 | 	shr	_var10, #3
0158c     E9 D0 01 F1 | 	add	_var09, _var10
01590                 | '     b:=byte[buf_ptr+4*cpl*y+(x>>3)]
01590     E8 D4 C1 FA | 	rdbyte	_var11, _var09
01594                 | '     if (c==0)
01594     00 E4 0D F2 | 	cmp	arg03, #0 wz
01598     18 00 90 5D |  if_ne	jmp	#LR__0056
0159c     F0 C0 51 F6 | 	abs	_var01, arg01 wc
015a0     07 C0 05 F5 | 	and	_var01, #7
015a4     E0 C0 61 C6 |  if_b	neg	_var01, _var01
015a8     E0 D6 C1 F9 | 	decod	_var12, _var01
015ac                 | '       b:=b & !(1<<(x//8))
015ac     EB D4 21 F5 | 	andn	_var11, _var12
015b0                 | '     else
015b0     14 00 90 FD | 	jmp	#LR__0057
015b4                 | LR__0056
015b4     F0 C0 51 F6 | 	abs	_var01, arg01 wc
015b8     07 C0 05 F5 | 	and	_var01, #7
015bc     E0 C0 61 C6 |  if_b	neg	_var01, _var01
015c0     E0 D8 C1 F9 | 	decod	_var13, _var01
015c4                 | '       b:=b |(1<<(x//8))
015c4     EC D4 41 F5 | 	or	_var11, _var13
015c8                 | LR__0057
015c8     90 A8 05 F1 | 	add	objptr, #144
015cc     D4 DA 01 FB | 	rdlong	_var14, objptr
015d0     90 A8 85 F1 | 	sub	objptr, #144
015d4     02 DA 65 F0 | 	shl	_var14, #2
015d8     F1 DA 01 FD | 	qmul	_var14, arg02
015dc     18 DC 61 FD | 	getqx	_var15
015e0     D4 DE 01 FB | 	rdlong	_var16, objptr
015e4     EE DE 01 F1 | 	add	_var16, _var15
015e8     E9 DE 01 F1 | 	add	_var16, _var10
015ec                 | '     byte[buf_ptr+4*cpl*y+(x>>3)]:=b
015ec     EF D4 41 FC | 	wrbyte	_var11, _var16
015f0                 | LR__0058
015f0                 | _hng025_putpixel1_ret
015f0     2D 00 64 FD | 	ret
015f4                 | 
015f4                 | ' 
015f4                 | ' 
015f4                 | ' pub putpixel2(x,y,c) |byte b
015f4                 | _hng025_putpixel2
015f4                 | ' 
015f4                 | ' 
015f4                 | ' if ((x>=0) & (x<16*cpl) & (y>=0) & (y<lines))
015f4     00 C0 05 F6 | 	mov	_var01, #0
015f8     00 E0 5D F2 | 	cmps	arg01, #0 wcz
015fc     01 C0 65 36 |  if_ae	neg	_var01, #1
01600     00 C2 05 F6 | 	mov	_var02, #0
01604     90 A8 05 F1 | 	add	objptr, #144
01608     D4 C4 01 FB | 	rdlong	_var03, objptr
0160c     04 C4 65 F0 | 	shl	_var03, #4
01610     E2 E0 59 F2 | 	cmps	arg01, _var03 wcz
01614     01 C2 65 C6 |  if_b	neg	_var02, #1
01618     E1 C0 01 F5 | 	and	_var01, _var02
0161c     00 C6 05 F6 | 	mov	_var04, #0
01620     00 E2 5D F2 | 	cmps	arg02, #0 wcz
01624     01 C6 65 36 |  if_ae	neg	_var04, #1
01628     E3 C0 01 F5 | 	and	_var01, _var04
0162c     00 C8 05 F6 | 	mov	_var05, #0
01630     04 A8 05 F1 | 	add	objptr, #4
01634     D4 CA 01 FB | 	rdlong	_var06, objptr
01638     94 A8 85 F1 | 	sub	objptr, #148
0163c     E5 E2 59 F2 | 	cmps	arg02, _var06 wcz
01640     01 C8 65 C6 |  if_b	neg	_var05, #1
01644     E4 C0 C9 F7 | 	test	_var01, _var05 wz
01648     7C 00 90 AD |  if_e	jmp	#LR__0059
0164c     90 A8 05 F1 | 	add	objptr, #144
01650     D4 CC 01 FB | 	rdlong	_var07, objptr
01654     90 A8 85 F1 | 	sub	objptr, #144
01658     02 CC 65 F0 | 	shl	_var07, #2
0165c     F1 CC 01 FD | 	qmul	_var07, arg02
01660     18 CE 61 FD | 	getqx	_var08
01664     D4 D0 01 FB | 	rdlong	_var09, objptr
01668     E7 D0 01 F1 | 	add	_var09, _var08
0166c     F0 D2 01 F6 | 	mov	_var10, arg01
01670     02 D2 45 F0 | 	shr	_var10, #2
01674     E9 D0 01 F1 | 	add	_var09, _var10
01678                 | '     b:=byte[buf_ptr+4*cpl*y+(x>>2)]
01678     E8 D4 C1 FA | 	rdbyte	_var11, _var09
0167c     F0 C0 51 F6 | 	abs	_var01, arg01 wc
01680     03 C0 05 F5 | 	and	_var01, #3
01684     E0 C0 61 C6 |  if_b	neg	_var01, _var01
01688     01 C0 65 F0 | 	shl	_var01, #1
0168c     03 D6 05 F6 | 	mov	_var12, #3
01690     E0 D6 61 F0 | 	shl	_var12, _var01
01694                 | '     b:=b & !(%11<<((x//4)<<1))
01694     EB D4 21 F5 | 	andn	_var11, _var12
01698     E0 E4 61 F0 | 	shl	arg03, _var01
0169c                 | '     b:=b |(c<<((x//4)<<1))
0169c     F2 D4 41 F5 | 	or	_var11, arg03
016a0     90 A8 05 F1 | 	add	objptr, #144
016a4     D4 D8 01 FB | 	rdlong	_var13, objptr
016a8     90 A8 85 F1 | 	sub	objptr, #144
016ac     02 D8 65 F0 | 	shl	_var13, #2
016b0     F1 D8 01 FD | 	qmul	_var13, arg02
016b4     18 DA 61 FD | 	getqx	_var14
016b8     D4 DC 01 FB | 	rdlong	_var15, objptr
016bc     ED DC 01 F1 | 	add	_var15, _var14
016c0     E9 DC 01 F1 | 	add	_var15, _var10
016c4                 | '     byte[buf_ptr+4*cpl*y+(x>>2)]:=b
016c4     EE D4 41 FC | 	wrbyte	_var11, _var15
016c8                 | LR__0059
016c8                 | _hng025_putpixel2_ret
016c8     2D 00 64 FD | 	ret
016cc                 | 
016cc                 | ' 
016cc                 | ' 
016cc                 | ' pub putpixel4(x,y,c) |byte b
016cc                 | _hng025_putpixel4
016cc                 | ' 
016cc                 | ' if ((x>=0) & (x<16*cpl) & (y>=0) & (y<lines))
016cc     00 C0 05 F6 | 	mov	_var01, #0
016d0     00 E0 5D F2 | 	cmps	arg01, #0 wcz
016d4     01 C0 65 36 |  if_ae	neg	_var01, #1
016d8     00 C2 05 F6 | 	mov	_var02, #0
016dc     90 A8 05 F1 | 	add	objptr, #144
016e0     D4 C4 01 FB | 	rdlong	_var03, objptr
016e4     04 C4 65 F0 | 	shl	_var03, #4
016e8     E2 E0 59 F2 | 	cmps	arg01, _var03 wcz
016ec     01 C2 65 C6 |  if_b	neg	_var02, #1
016f0     E1 C0 01 F5 | 	and	_var01, _var02
016f4     00 C6 05 F6 | 	mov	_var04, #0
016f8     00 E2 5D F2 | 	cmps	arg02, #0 wcz
016fc     01 C6 65 36 |  if_ae	neg	_var04, #1
01700     E3 C0 01 F5 | 	and	_var01, _var04
01704     00 C8 05 F6 | 	mov	_var05, #0
01708     04 A8 05 F1 | 	add	objptr, #4
0170c     D4 CA 01 FB | 	rdlong	_var06, objptr
01710     94 A8 85 F1 | 	sub	objptr, #148
01714     E5 E2 59 F2 | 	cmps	arg02, _var06 wcz
01718     01 C8 65 C6 |  if_b	neg	_var05, #1
0171c     E4 C0 C9 F7 | 	test	_var01, _var05 wz
01720     7C 00 90 AD |  if_e	jmp	#LR__0060
01724     90 A8 05 F1 | 	add	objptr, #144
01728     D4 CC 01 FB | 	rdlong	_var07, objptr
0172c     90 A8 85 F1 | 	sub	objptr, #144
01730     02 CC 65 F0 | 	shl	_var07, #2
01734     F1 CC 01 FD | 	qmul	_var07, arg02
01738     18 CE 61 FD | 	getqx	_var08
0173c     D4 D0 01 FB | 	rdlong	_var09, objptr
01740     E7 D0 01 F1 | 	add	_var09, _var08
01744     F0 D2 01 F6 | 	mov	_var10, arg01
01748     01 D2 45 F0 | 	shr	_var10, #1
0174c     E9 D0 01 F1 | 	add	_var09, _var10
01750                 | '     b:=byte[buf_ptr+4*cpl*y+(x>>1)]
01750     E8 D4 C1 FA | 	rdbyte	_var11, _var09
01754     F0 C0 51 F6 | 	abs	_var01, arg01 wc
01758     01 C0 05 F5 | 	and	_var01, #1
0175c     E0 C0 61 C6 |  if_b	neg	_var01, _var01
01760     02 C0 65 F0 | 	shl	_var01, #2
01764     0F D6 05 F6 | 	mov	_var12, #15
01768     E0 D6 61 F0 | 	shl	_var12, _var01
0176c                 | '     b:=b & !(%1111<<((x//2)<<2))
0176c     EB D4 21 F5 | 	andn	_var11, _var12
01770     E0 E4 61 F0 | 	shl	arg03, _var01
01774                 | '     b:=b |(c<<((x//2)<<2))
01774     F2 D4 41 F5 | 	or	_var11, arg03
01778     90 A8 05 F1 | 	add	objptr, #144
0177c     D4 D8 01 FB | 	rdlong	_var13, objptr
01780     90 A8 85 F1 | 	sub	objptr, #144
01784     02 D8 65 F0 | 	shl	_var13, #2
01788     F1 D8 01 FD | 	qmul	_var13, arg02
0178c     18 DA 61 FD | 	getqx	_var14
01790     D4 DC 01 FB | 	rdlong	_var15, objptr
01794     ED DC 01 F1 | 	add	_var15, _var14
01798     E9 DC 01 F1 | 	add	_var15, _var10
0179c                 | '     byte[buf_ptr+4*cpl*y+(x>>1)]:=b
0179c     EE D4 41 FC | 	wrbyte	_var11, _var15
017a0                 | LR__0060
017a0                 | _hng025_putpixel4_ret
017a0     2D 00 64 FD | 	ret
017a4                 | 
017a4                 | ' 
017a4                 | ' 
017a4                 | ' pub putpixel8(x,y,c)
017a4                 | _hng025_putpixel8
017a4                 | ' 
017a4                 | ' if ((x>=0) & (x<4*cpl) & (y>=0) & (y<lines))
017a4     00 C0 05 F6 | 	mov	_var01, #0
017a8     00 E0 5D F2 | 	cmps	arg01, #0 wcz
017ac     01 C0 65 36 |  if_ae	neg	_var01, #1
017b0     00 C2 05 F6 | 	mov	_var02, #0
017b4     90 A8 05 F1 | 	add	objptr, #144
017b8     D4 C4 01 FB | 	rdlong	_var03, objptr
017bc     02 C4 65 F0 | 	shl	_var03, #2
017c0     E2 E0 59 F2 | 	cmps	arg01, _var03 wcz
017c4     01 C2 65 C6 |  if_b	neg	_var02, #1
017c8     E1 C0 01 F5 | 	and	_var01, _var02
017cc     00 C6 05 F6 | 	mov	_var04, #0
017d0     00 E2 5D F2 | 	cmps	arg02, #0 wcz
017d4     01 C6 65 36 |  if_ae	neg	_var04, #1
017d8     E3 C0 01 F5 | 	and	_var01, _var04
017dc     00 C8 05 F6 | 	mov	_var05, #0
017e0     04 A8 05 F1 | 	add	objptr, #4
017e4     D4 CA 01 FB | 	rdlong	_var06, objptr
017e8     94 A8 85 F1 | 	sub	objptr, #148
017ec     E5 E2 59 F2 | 	cmps	arg02, _var06 wcz
017f0     01 C8 65 C6 |  if_b	neg	_var05, #1
017f4     E4 C0 C9 F7 | 	test	_var01, _var05 wz
017f8     28 00 90 AD |  if_e	jmp	#LR__0061
017fc     90 A8 05 F1 | 	add	objptr, #144
01800     D4 CC 01 FB | 	rdlong	_var07, objptr
01804     90 A8 85 F1 | 	sub	objptr, #144
01808     02 CC 65 F0 | 	shl	_var07, #2
0180c     F1 CC 01 FD | 	qmul	_var07, arg02
01810     18 CE 61 FD | 	getqx	_var08
01814     D4 D0 01 FB | 	rdlong	_var09, objptr
01818     E7 D0 01 F1 | 	add	_var09, _var08
0181c     F0 D0 01 F1 | 	add	_var09, arg01
01820                 | '     byte[buf_ptr+4*cpl*y+x]:=c
01820     E8 E4 41 FC | 	wrbyte	arg03, _var09
01824                 | LR__0061
01824                 | _hng025_putpixel8_ret
01824     2D 00 64 FD | 	ret
01828                 | 
01828                 | ' 
01828                 | ' '*************************************************************************
01828                 | ' '                                                                        *
01828                 | ' '  VBlank functions                                                      *
01828                 | ' '                                                                        *
01828                 | ' '*************************************************************************
01828                 | ' 
01828                 | ' pub waitvbl(amount) | i
01828                 | _hng025_waitvbl
01828     04 44 05 F6 | 	mov	COUNT_, #4
0182c     A5 00 A0 FD | 	call	#pushregs_
01830     F0 EA 01 F6 | 	mov	local01, arg01
01834                 | ' 
01834                 | ' ''---------- Wait for start of vblank. Amount=delay in frames
01834                 | ' 
01834                 | ' repeat i from 1 to amount
01834     01 EC 05 F6 | 	mov	local02, #1
01838     01 EA 5D F2 | 	cmps	local01, #1 wcz
0183c     01 EE 05 16 |  if_a	mov	local03, #1
01840     01 EE 65 E6 |  if_be	neg	local03, #1
01844     F7 EA 01 F1 | 	add	local01, local03
01848                 | LR__0062
01848                 | '   repeat until vblank==0
01848                 | LR__0063
01848     40 A8 05 F1 | 	add	objptr, #64
0184c     D4 F0 09 FB | 	rdlong	local04, objptr wz
01850     40 A8 85 F1 | 	sub	objptr, #64
01854     0C 00 90 AD |  if_e	jmp	#LR__0064
01858                 | '     waitus(100)
01858     64 E0 05 F6 | 	mov	arg01, #100
0185c     14 0F B0 FD | 	call	#__system___waitus
01860     E4 FF 9F FD | 	jmp	#LR__0063
01864                 | LR__0064
01864                 | '   repeat until vblank==1
01864                 | LR__0065
01864     40 A8 05 F1 | 	add	objptr, #64
01868     D4 F0 01 FB | 	rdlong	local04, objptr
0186c     40 A8 85 F1 | 	sub	objptr, #64
01870     01 F0 0D F2 | 	cmp	local04, #1 wz
01874     0C 00 90 AD |  if_e	jmp	#LR__0066
01878                 | '     waitus(100)
01878     64 E0 05 F6 | 	mov	arg01, #100
0187c     F4 0E B0 FD | 	call	#__system___waitus
01880     E0 FF 9F FD | 	jmp	#LR__0065
01884                 | LR__0066
01884     F7 EC 01 F1 | 	add	local02, local03
01888     F5 EC 09 F2 | 	cmp	local02, local01 wz
0188c     B8 FF 9F 5D |  if_ne	jmp	#LR__0062
01890     A4 F0 03 F6 | 	mov	ptra, fp
01894     B4 00 A0 FD | 	call	#popregs_
01898                 | _hng025_waitvbl_ret
01898     2D 00 64 FD | 	ret
0189c                 | 
0189c                 | ' 
0189c                 | ' 
0189c                 | ' '*************************************************************************
0189c                 | ' '                                                                        *
0189c                 | ' '  Text functions                                                        *
0189c                 | ' '                                                                        *
0189c                 | ' '*************************************************************************
0189c                 | ' 
0189c                 | ' ''---------- Clear the screen, set its foreground/background color
0189c                 | ' 
0189c                 | ' pub cls(fc,bc)   :c
0189c                 | _hng025_cls
0189c     07 44 05 F6 | 	mov	COUNT_, #7
018a0     A5 00 A0 FD | 	call	#pushregs_
018a4     F0 EA 01 F6 | 	mov	local01, arg01
018a8     F1 EC 01 F6 | 	mov	local02, arg02
018ac                 | ' 
018ac                 | ' if (graphmode<512)
018ac     C4 A8 05 F1 | 	add	objptr, #196
018b0     D4 EE 01 FB | 	rdlong	local03, objptr
018b4     C4 A8 85 F1 | 	sub	objptr, #196
018b8     01 00 00 FF 
018bc     00 EE 5D F2 | 	cmps	local03, ##512 wcz
018c0     48 00 90 3D |  if_ae	jmp	#LR__0071
018c4     F5 F0 01 F6 | 	mov	local04, local01
018c8     18 F0 65 F0 | 	shl	local04, #24
018cc     F6 F2 01 F6 | 	mov	local05, local02
018d0     10 F2 65 F0 | 	shl	local05, #16
018d4     F9 F0 01 F1 | 	add	local04, local05
018d8     20 F0 05 F1 | 	add	local04, #32
018dc                 | '   c:=fc<<24+bc<<16+$20
018dc                 | '   longfill(buf_ptr,c,buflen)
018dc     D4 E0 01 FB | 	rdlong	arg01, objptr
018e0     30 A8 05 F1 | 	add	objptr, #48
018e4     D4 E4 09 FB | 	rdlong	arg03, objptr wz
018e8     30 A8 85 F1 | 	sub	objptr, #48
018ec     F8 E2 01 F6 | 	mov	arg02, local04
018f0     C4 00 90 AD |  if_e	jmp	#LR__0077
018f4     14 E7 9F FE | 	loc	pa,	#(@LR__0069-@LR__0067)
018f8     95 00 A0 FD | 	call	#FCACHE_LOAD_
018fc                 | LR__0067
018fc     F2 04 D8 FC | 	rep	@LR__0070, arg03
01900                 | LR__0068
01900     F0 E2 61 FC | 	wrlong	arg02, arg01
01904     04 E0 05 F1 | 	add	arg01, #4
01908                 | LR__0069
01908                 | LR__0070
01908                 | ' else
01908     AC 00 90 FD | 	jmp	#LR__0077
0190c                 | LR__0071
0190c                 | '   if (graphmode & 48) ==48
0190c     C4 A8 05 F1 | 	add	objptr, #196
01910     D4 EE 01 FB | 	rdlong	local03, objptr
01914     C4 A8 85 F1 | 	sub	objptr, #196
01918     30 EE 05 F5 | 	and	local03, #48
0191c     30 EE 0D F2 | 	cmp	local03, #48 wz
01920                 | '     c:=bc
01920     F6 F0 01 A6 |  if_e	mov	local04, local02
01924     74 00 90 AD |  if_e	jmp	#LR__0076
01928                 | '   elseif (graphmode & 48) ==32
01928     C4 A8 05 F1 | 	add	objptr, #196
0192c     D4 EE 01 FB | 	rdlong	local03, objptr
01930     C4 A8 85 F1 | 	sub	objptr, #196
01934     30 EE 05 F5 | 	and	local03, #48
01938     20 EE 0D F2 | 	cmp	local03, #32 wz
0193c     10 00 90 5D |  if_ne	jmp	#LR__0072
01940     F6 F0 01 F6 | 	mov	local04, local02
01944     04 F0 65 F0 | 	shl	local04, #4
01948     F6 F0 01 F1 | 	add	local04, local02
0194c                 | '     c:=bc<<4+bc
0194c     4C 00 90 FD | 	jmp	#LR__0075
01950                 | LR__0072
01950                 | '   elseif (graphmode & 48) ==16
01950     C4 A8 05 F1 | 	add	objptr, #196
01954     D4 EE 01 FB | 	rdlong	local03, objptr
01958     C4 A8 85 F1 | 	sub	objptr, #196
0195c     30 EE 05 F5 | 	and	local03, #48
01960     10 EE 0D F2 | 	cmp	local03, #16 wz
01964     28 00 90 5D |  if_ne	jmp	#LR__0073
01968     F6 F0 01 F6 | 	mov	local04, local02
0196c     06 F0 65 F0 | 	shl	local04, #6
01970     F6 F4 01 F6 | 	mov	local06, local02
01974     04 F4 65 F0 | 	shl	local06, #4
01978     FA F0 01 F1 | 	add	local04, local06
0197c     F6 F6 01 F6 | 	mov	local07, local02
01980     02 F6 65 F0 | 	shl	local07, #2
01984     FB F0 01 F1 | 	add	local04, local07
01988     F6 F0 01 F1 | 	add	local04, local02
0198c                 | '     c:=bc<<6+bc<<4+bc<<2+bc
0198c                 | '   else
0198c     0C 00 90 FD | 	jmp	#LR__0074
01990                 | LR__0073
01990                 | '     if bc==1
01990     01 EC 0D F2 | 	cmp	local02, #1 wz
01994                 | '       c:=255
01994     FF F0 05 A6 |  if_e	mov	local04, #255
01998                 | '     else
01998                 | '       c:=0
01998     00 F0 05 56 |  if_ne	mov	local04, #0
0199c                 | LR__0074
0199c                 | LR__0075
0199c                 | LR__0076
0199c     30 A8 05 F1 | 	add	objptr, #48
019a0     D4 E4 01 FB | 	rdlong	arg03, objptr
019a4     30 A8 85 F1 | 	sub	objptr, #48
019a8     02 E4 65 F0 | 	shl	arg03, #2
019ac                 | '   bytefill(buf_ptr,c,buflen*4)
019ac     D4 E0 01 FB | 	rdlong	arg01, objptr
019b0     F8 E2 01 F6 | 	mov	arg02, local04
019b4     D8 0A B0 FD | 	call	#__system____builtin_memset
019b8                 | LR__0077
019b8                 | ' setwritecolors(fc,bc)
019b8                 | ' 
019b8                 | ' 
019b8                 | ' write_color:=ff
019b8     38 A8 05 F1 | 	add	objptr, #56
019bc     D4 EA 61 FC | 	wrlong	local01, objptr
019c0                 | ' write_background:=bb
019c0     04 A8 05 F1 | 	add	objptr, #4
019c4     D4 EC 61 FC | 	wrlong	local02, objptr
019c8                 | ' cursor_x:=0
019c8     08 A8 85 F1 | 	sub	objptr, #8
019cc     D4 00 48 FC | 	wrbyte	#0, objptr
019d0                 | ' cursor_y:=0
019d0     01 A8 05 F1 | 	add	objptr, #1
019d4     D4 00 48 FC | 	wrbyte	#0, objptr
019d8     35 A8 85 F1 | 	sub	objptr, #53
019dc     F8 BC 01 F6 | 	mov	result1, local04
019e0     A4 F0 03 F6 | 	mov	ptra, fp
019e4     B4 00 A0 FD | 	call	#popregs_
019e8                 | _hng025_cls_ret
019e8     2D 00 64 FD | 	ret
019ec                 | 
019ec                 | ' 
019ec                 | ' 
019ec                 | ' 
019ec                 | ' '*************************************************************************
019ec                 | ' '                                                                        *
019ec                 | ' '  Mode setting and driver start                                                          *
019ec                 | ' '                                                                        *
019ec                 | ' '*************************************************************************
019ec                 | ' 
019ec                 | ' ''---------  Set the graphics mode
019ec                 | ' 
019ec                 | ' 
019ec                 | ' 
019ec                 | ' pub setmode(mode) | i', 'xzoom, yzoom, azoom
019ec                 | _hng025_setmode
019ec     4F 44 05 F6 | 	mov	COUNT_, #79
019f0     A5 00 A0 FD | 	call	#pushregs_
019f4     F0 EA 01 F6 | 	mov	local01, arg01
019f8                 | ' 
019f8                 | ' '' mode:tn_bb_cc_vv_hh
019f8                 | ' '' hh - h.zoom, vv-v.zoom, cc-c.depth,
019f8                 | ' '' bb - borders/total pixels, 00-wide/1140, 01 medium/1026, 10 narrow/912, 11 no border, 1024 px PAL, 880 px NTSC
019f8                 | ' 
019f8                 | ' if mode==(512+192+48)
019f8     01 00 00 FF 
019fc     F0 EA 0D F2 | 	cmp	local01, ##752 wz
01a00                 | '   return 'no RAM
01a00     F0 09 90 AD |  if_e	jmp	#LR__0117
01a04                 | ' 
01a04                 | ' case_fast (mode>>6) & 7 ' timings are the same for graphic and text
01a04     F5 EC 01 F6 | 	mov	local02, local01
01a08     06 EC 45 F0 | 	shr	local02, #6
01a0c     07 EC 05 F5 | 	and	local02, #7
01a10     08 EC 25 F3 | 	fle	local02, #8
01a14     F6 EE 01 F6 | 	mov	local03, local02
01a18     30 EE 61 FD | 	jmprel	local03
01a1c                 | LR__0078
01a1c     20 00 90 FD | 	jmp	#LR__0079
01a20     58 00 90 FD | 	jmp	#LR__0080
01a24     90 00 90 FD | 	jmp	#LR__0081
01a28     C8 00 90 FD | 	jmp	#LR__0082
01a2c     00 01 90 FD | 	jmp	#LR__0083
01a30     38 01 90 FD | 	jmp	#LR__0084
01a34     70 01 90 FD | 	jmp	#LR__0085
01a38     A8 01 90 FD | 	jmp	#LR__0086
01a3c     E4 01 90 FD | 	jmp	#LR__0087
01a40                 | LR__0079
01a40                 | ' 
01a40                 | '     0:  longmove(@timings,@timings000,16)   'PAL 50 Hz signaling 1140x624, active 800x480, 100x30 text, wide border, 2 colors per pixel, 00_00_00_00_00=0, 354_693_878 Hz
01a40     50 A8 05 F1 | 	add	objptr, #80
01a44     D4 E0 01 F6 | 	mov	arg01, objptr
01a48     50 A8 85 F1 | 	sub	objptr, #80
01a4c     0E 00 00 FF 
01a50     58 B0 05 F1 | 	add	ptr__hng025_dat__, ##7256
01a54     D8 F0 01 F6 | 	mov	local04, ptr__hng025_dat__
01a58     F8 F2 01 F6 | 	mov	local05, local04
01a5c     10 F4 05 F6 | 	mov	local06, #16
01a60     F9 E2 01 F6 | 	mov	arg02, local05
01a64     10 E4 05 F6 | 	mov	arg03, #16
01a68     0E 00 00 FF 
01a6c     58 B0 85 F1 | 	sub	ptr__hng025_dat__, ##7256
01a70     0C 0B B0 FD | 	call	#__system__longmove
01a74     DE F6 01 F6 | 	mov	local07, result1
01a78     A8 01 90 FD | 	jmp	#LR__0087
01a7c                 | LR__0080
01a7c                 | '     1:  longmove(@timings,@timings064,16)   'PAL 50 Hz signaling 1026x624, active 880x496, 110x31 text, medium border, 2 colors per pixel 00_01_00_00_00=64, 319_215_686 Hz
01a7c     50 A8 05 F1 | 	add	objptr, #80
01a80     D4 E0 01 F6 | 	mov	arg01, objptr
01a84     50 A8 85 F1 | 	sub	objptr, #80
01a88     0E 00 00 FF 
01a8c     98 B0 05 F1 | 	add	ptr__hng025_dat__, ##7320
01a90     D8 F0 01 F6 | 	mov	local04, ptr__hng025_dat__
01a94     F8 F2 01 F6 | 	mov	local05, local04
01a98     10 F4 05 F6 | 	mov	local06, #16
01a9c     F9 E2 01 F6 | 	mov	arg02, local05
01aa0     10 E4 05 F6 | 	mov	arg03, #16
01aa4     0E 00 00 FF 
01aa8     98 B0 85 F1 | 	sub	ptr__hng025_dat__, ##7320
01aac     D0 0A B0 FD | 	call	#__system__longmove
01ab0     DE F6 01 F6 | 	mov	local07, result1
01ab4     6C 01 90 FD | 	jmp	#LR__0087
01ab8                 | LR__0081
01ab8                 | '     2:  longmove(@timings,@timings128,16)   'PAL 50 Hz signaling 912x624, active 800x480, 100x30 text, medium border, 2 colors per pixel 00_10_00_00_00=64, 283750000z
01ab8     50 A8 05 F1 | 	add	objptr, #80
01abc     D4 E0 01 F6 | 	mov	arg01, objptr
01ac0     50 A8 85 F1 | 	sub	objptr, #80
01ac4     0E 00 00 FF 
01ac8     D8 B0 05 F1 | 	add	ptr__hng025_dat__, ##7384
01acc     D8 F0 01 F6 | 	mov	local04, ptr__hng025_dat__
01ad0     F8 F2 01 F6 | 	mov	local05, local04
01ad4     10 F4 05 F6 | 	mov	local06, #16
01ad8     F9 E2 01 F6 | 	mov	arg02, local05
01adc     10 E4 05 F6 | 	mov	arg03, #16
01ae0     0E 00 00 FF 
01ae4     D8 B0 85 F1 | 	sub	ptr__hng025_dat__, ##7384
01ae8     94 0A B0 FD | 	call	#__system__longmove
01aec     DE F6 01 F6 | 	mov	local07, result1
01af0     30 01 90 FD | 	jmp	#LR__0087
01af4                 | LR__0082
01af4                 | '     3:  longmove(@timings,@timings192,16)   'PAL 50 Hz signaling 1140x624, active 1024x576, 128x36 text, borderless, 2 colors per pixel 00_11_00_00_00=6192, 354_693_878 Hz
01af4     50 A8 05 F1 | 	add	objptr, #80
01af8     D4 E0 01 F6 | 	mov	arg01, objptr
01afc     50 A8 85 F1 | 	sub	objptr, #80
01b00     0E 00 00 FF 
01b04     18 B1 05 F1 | 	add	ptr__hng025_dat__, ##7448
01b08     D8 F0 01 F6 | 	mov	local04, ptr__hng025_dat__
01b0c     F8 F2 01 F6 | 	mov	local05, local04
01b10     10 F4 05 F6 | 	mov	local06, #16
01b14     F9 E2 01 F6 | 	mov	arg02, local05
01b18     10 E4 05 F6 | 	mov	arg03, #16
01b1c     0E 00 00 FF 
01b20     18 B1 85 F1 | 	sub	ptr__hng025_dat__, ##7448
01b24     58 0A B0 FD | 	call	#__system__longmove
01b28     DE F6 01 F6 | 	mov	local07, result1
01b2c     F4 00 90 FD | 	jmp	#LR__0087
01b30                 | LR__0083
01b30                 | '     4:  longmove(@timings,@timings256,16)   'NTSC 50 Hz signaling 1140x524, active 800x480, 100x30 text, NO PLACE FOR wide border, 2 colors per pixel, 01_00_00_00_00=256, 357959184 Hz
01b30     50 A8 05 F1 | 	add	objptr, #80
01b34     D4 E0 01 F6 | 	mov	arg01, objptr
01b38     50 A8 85 F1 | 	sub	objptr, #80
01b3c     0E 00 00 FF 
01b40     58 B1 05 F1 | 	add	ptr__hng025_dat__, ##7512
01b44     D8 F0 01 F6 | 	mov	local04, ptr__hng025_dat__
01b48     F8 F2 01 F6 | 	mov	local05, local04
01b4c     10 F4 05 F6 | 	mov	local06, #16
01b50     F9 E2 01 F6 | 	mov	arg02, local05
01b54     10 E4 05 F6 | 	mov	arg03, #16
01b58     0E 00 00 FF 
01b5c     58 B1 85 F1 | 	sub	ptr__hng025_dat__, ##7512
01b60     1C 0A B0 FD | 	call	#__system__longmove
01b64     DE F6 01 F6 | 	mov	local07, result1
01b68     B8 00 90 FD | 	jmp	#LR__0087
01b6c                 | LR__0084
01b6c                 | '     5:  longmove(@timings,@timings320,16)   'NTSC 50 Hz signaling 1026x524, active 800x480, 100x30 text, NO PLACE FOR wide border, 2 colors per pixel, 01_01_00_00_00=320, 322162162 Hz
01b6c     50 A8 05 F1 | 	add	objptr, #80
01b70     D4 E0 01 F6 | 	mov	arg01, objptr
01b74     50 A8 85 F1 | 	sub	objptr, #80
01b78     0E 00 00 FF 
01b7c     98 B1 05 F1 | 	add	ptr__hng025_dat__, ##7576
01b80     D8 F0 01 F6 | 	mov	local04, ptr__hng025_dat__
01b84     F8 F2 01 F6 | 	mov	local05, local04
01b88     10 F4 05 F6 | 	mov	local06, #16
01b8c     F9 E2 01 F6 | 	mov	arg02, local05
01b90     10 E4 05 F6 | 	mov	arg03, #16
01b94     0E 00 00 FF 
01b98     98 B1 85 F1 | 	sub	ptr__hng025_dat__, ##7576
01b9c     E0 09 B0 FD | 	call	#__system__longmove
01ba0     DE F6 01 F6 | 	mov	local07, result1
01ba4     7C 00 90 FD | 	jmp	#LR__0087
01ba8                 | LR__0085
01ba8                 | '     6:  longmove(@timings,@timings384,16)   'NTSC 50 Hz signaling 912x524, active 800x480, 100x30 text, NO PLACE FOR wide border, 2 colors per pixel, 01_10_00_00_00=384, 286363636 Hz
01ba8     50 A8 05 F1 | 	add	objptr, #80
01bac     D4 E0 01 F6 | 	mov	arg01, objptr
01bb0     50 A8 85 F1 | 	sub	objptr, #80
01bb4     0E 00 00 FF 
01bb8     D8 B1 05 F1 | 	add	ptr__hng025_dat__, ##7640
01bbc     D8 F0 01 F6 | 	mov	local04, ptr__hng025_dat__
01bc0     F8 F2 01 F6 | 	mov	local05, local04
01bc4     10 F4 05 F6 | 	mov	local06, #16
01bc8     F9 E2 01 F6 | 	mov	arg02, local05
01bcc     10 E4 05 F6 | 	mov	arg03, #16
01bd0     0E 00 00 FF 
01bd4     D8 B1 85 F1 | 	sub	ptr__hng025_dat__, ##7640
01bd8     A4 09 B0 FD | 	call	#__system__longmove
01bdc     DE F6 01 F6 | 	mov	local07, result1
01be0     40 00 90 FD | 	jmp	#LR__0087
01be4                 | LR__0086
01be4                 | '     7:  longmove(@timings,@timings448,16)   'NTSC 50 Hz signaling 1026x524, active 880x496, 110x31 text, borderless, 2 colors per pixel, 01_11_00_00_00=496, 322162162 Hz
01be4     50 A8 05 F1 | 	add	objptr, #80
01be8     D4 F8 01 F6 | 	mov	local08, objptr
01bec     FC FA 01 F6 | 	mov	local09, local08
01bf0     0F 00 00 FF 
01bf4     18 B0 05 F1 | 	add	ptr__hng025_dat__, ##7704
01bf8     D8 F0 01 F6 | 	mov	local04, ptr__hng025_dat__
01bfc     F8 F2 01 F6 | 	mov	local05, local04
01c00     10 F4 05 F6 | 	mov	local06, #16
01c04     FD E0 01 F6 | 	mov	arg01, local09
01c08     F9 E2 01 F6 | 	mov	arg02, local05
01c0c     10 E4 05 F6 | 	mov	arg03, #16
01c10     50 A8 85 F1 | 	sub	objptr, #80
01c14     0F 00 00 FF 
01c18     18 B0 85 F1 | 	sub	ptr__hng025_dat__, ##7704
01c1c     60 09 B0 FD | 	call	#__system__longmove
01c20     DE F6 01 F6 | 	mov	local07, result1
01c24                 | LR__0087
01c24                 | ' 
01c24                 | ' ' 4-bit graphics: do nothing with timings :)
01c24                 | ' 
01c24                 | ' if (mode & (%10_00_11_0000))==(%10_00_11_0000) ' 8bit graphics, 4 pixels per long instead of 8, cpp x2
01c24     F5 EC 01 F6 | 	mov	local02, local01
01c28     01 00 00 FF 
01c2c     30 EC 05 F5 | 	and	local02, ##560
01c30     01 00 00 FF 
01c34     30 EC 0D F2 | 	cmp	local02, ##560 wz
01c38     48 00 90 5D |  if_ne	jmp	#LR__0088
01c3c                 | '   timings[5]:=4
01c3c     64 A8 05 F1 | 	add	objptr, #100
01c40     D4 08 68 FC | 	wrlong	#4, objptr
01c44     18 A8 05 F1 | 	add	objptr, #24
01c48     D4 FC 01 FB | 	rdlong	local10, objptr
01c4c     01 FC 65 F0 | 	shl	local10, #1
01c50                 | '   timings[11]:=timings[11]<<1
01c50     D4 FC 61 FC | 	wrlong	local10, objptr
01c54                 | '   putpixel:=p8
01c54     6C A8 05 F1 | 	add	objptr, #108
01c58     D4 EC 01 FB | 	rdlong	local02, objptr
01c5c     10 A8 85 F1 | 	sub	objptr, #16
01c60     D4 EC 61 FC | 	wrlong	local02, objptr
01c64     0C 00 00 FF 
01c68     58 B0 05 F1 | 	add	ptr__hng025_dat__, ##6232
01c6c     D8 FE 01 F6 | 	mov	local11, ptr__hng025_dat__
01c70                 | '   palette_ptr:=@ataripalette
01c70     C0 A8 85 F1 | 	sub	objptr, #192
01c74     D4 FE 61 FC | 	wrlong	local11, objptr
01c78     18 A8 85 F1 | 	sub	objptr, #24
01c7c     0C 00 00 FF 
01c80     58 B0 85 F1 | 	sub	ptr__hng025_dat__, ##6232
01c84                 | LR__0088
01c84                 | ' 
01c84                 | ' if (mode & (%10_00_11_0000))==(%10_00_01_0000) ' 2bit graphics, 16 pixels per long instead of 8, cpp /2
01c84     F5 EC 01 F6 | 	mov	local02, local01
01c88     01 00 00 FF 
01c8c     30 EC 05 F5 | 	and	local02, ##560
01c90     01 00 00 FF 
01c94     10 EC 0D F2 | 	cmp	local02, ##528 wz
01c98     48 00 90 5D |  if_ne	jmp	#LR__0089
01c9c                 | '   timings[5]:=16
01c9c     64 A8 05 F1 | 	add	objptr, #100
01ca0     D4 20 68 FC | 	wrlong	#16, objptr
01ca4     18 A8 05 F1 | 	add	objptr, #24
01ca8     D4 00 02 FB | 	rdlong	local12, objptr
01cac     01 00 46 F0 | 	shr	local12, #1
01cb0                 | '   timings[11]:=timings[11]>>1
01cb0     D4 00 62 FC | 	wrlong	local12, objptr
01cb4                 | '   putpixel:=p2
01cb4     64 A8 05 F1 | 	add	objptr, #100
01cb8     D4 EC 01 FB | 	rdlong	local02, objptr
01cbc     08 A8 85 F1 | 	sub	objptr, #8
01cc0     D4 EC 61 FC | 	wrlong	local02, objptr
01cc4     0C 00 00 FF 
01cc8     08 B0 05 F1 | 	add	ptr__hng025_dat__, ##6152
01ccc     D8 02 02 F6 | 	mov	local13, ptr__hng025_dat__
01cd0                 | '   palette_ptr:=@fourcolors
01cd0     C0 A8 85 F1 | 	sub	objptr, #192
01cd4     D4 02 62 FC | 	wrlong	local13, objptr
01cd8     18 A8 85 F1 | 	sub	objptr, #24
01cdc     0C 00 00 FF 
01ce0     08 B0 85 F1 | 	sub	ptr__hng025_dat__, ##6152
01ce4                 | LR__0089
01ce4                 | ' 
01ce4                 | ' if (mode & (%10_00_11_0000))==(%10_00_00_0000) ' 1bit graphics, 32 pixels per long instead of 8, cpp /4
01ce4     F5 EC 01 F6 | 	mov	local02, local01
01ce8     01 00 00 FF 
01cec     30 EC 05 F5 | 	and	local02, ##560
01cf0     01 00 00 FF 
01cf4     00 EC 0D F2 | 	cmp	local02, ##512 wz
01cf8     48 00 90 5D |  if_ne	jmp	#LR__0090
01cfc                 | '   timings[5]:=32
01cfc     64 A8 05 F1 | 	add	objptr, #100
01d00     D4 40 68 FC | 	wrlong	#32, objptr
01d04     18 A8 05 F1 | 	add	objptr, #24
01d08     D4 04 02 FB | 	rdlong	local14, objptr
01d0c     02 04 46 F0 | 	shr	local14, #2
01d10                 | '   timings[11]:=timings[11]>>2
01d10     D4 04 62 FC | 	wrlong	local14, objptr
01d14                 | '   putpixel:=p1
01d14     60 A8 05 F1 | 	add	objptr, #96
01d18     D4 EC 01 FB | 	rdlong	local02, objptr
01d1c     04 A8 85 F1 | 	sub	objptr, #4
01d20     D4 EC 61 FC | 	wrlong	local02, objptr
01d24     0C 00 00 FF 
01d28     00 B0 05 F1 | 	add	ptr__hng025_dat__, ##6144
01d2c     D8 06 02 F6 | 	mov	local15, ptr__hng025_dat__
01d30                 | '   palette_ptr:=@twocolors
01d30     C0 A8 85 F1 | 	sub	objptr, #192
01d34     D4 06 62 FC | 	wrlong	local15, objptr
01d38     18 A8 85 F1 | 	sub	objptr, #24
01d3c     0C 00 00 FF 
01d40     00 B0 85 F1 | 	sub	ptr__hng025_dat__, ##6144
01d44                 | LR__0090
01d44                 | ' 
01d44                 | ' if (mode & (%10_00_11_0000))==(%10_00_10_0000) ' 4bit graphics,
01d44     F5 EC 01 F6 | 	mov	local02, local01
01d48     01 00 00 FF 
01d4c     30 EC 05 F5 | 	and	local02, ##560
01d50     01 00 00 FF 
01d54     20 EC 0D F2 | 	cmp	local02, ##544 wz
01d58     30 00 90 5D |  if_ne	jmp	#LR__0091
01d5c                 | '   putpixel:=p4
01d5c     E4 A8 05 F1 | 	add	objptr, #228
01d60     D4 EC 01 FB | 	rdlong	local02, objptr
01d64     0C A8 85 F1 | 	sub	objptr, #12
01d68     D4 EC 61 FC | 	wrlong	local02, objptr
01d6c     0C 00 00 FF 
01d70     18 B0 05 F1 | 	add	ptr__hng025_dat__, ##6168
01d74     D8 08 02 F6 | 	mov	local16, ptr__hng025_dat__
01d78                 | '   palette_ptr:=@vga16
01d78     C0 A8 85 F1 | 	sub	objptr, #192
01d7c     D4 08 62 FC | 	wrlong	local16, objptr
01d80     18 A8 85 F1 | 	sub	objptr, #24
01d84     0C 00 00 FF 
01d88     18 B0 85 F1 | 	sub	ptr__hng025_dat__, ##6168
01d8c                 | LR__0091
01d8c                 | ' 
01d8c                 | ' repeat i from 0 to 4
01d8c     00 0A 06 F6 | 	mov	local17, #0
01d90     B0 E2 9F FE | 	loc	pa,	#(@LR__0093-@LR__0092)
01d94     95 00 A0 FD | 	call	#FCACHE_LOAD_
01d98                 | LR__0092
01d98     05 0D 02 F6 | 	mov	local18, local17
01d9c     02 0C 66 F0 | 	shl	local18, #2
01da0     50 A8 05 F1 | 	add	objptr, #80
01da4     D4 0C 02 F1 | 	add	local18, objptr
01da8     2C A8 85 F1 | 	sub	objptr, #44
01dac     D4 0E 02 FB | 	rdlong	local19, objptr
01db0     24 A8 85 F1 | 	sub	objptr, #36
01db4     11 0E 66 F0 | 	shl	local19, #17
01db8     06 11 02 FB | 	rdlong	local20, local18
01dbc     07 11 02 F1 | 	add	local20, local19
01dc0     08 13 02 F6 | 	mov	local21, local20
01dc4     80 40 38 FF 
01dc8     00 12 06 F1 | 	add	local21, ##1887502336
01dcc                 | '   timings[i]:=timings[i]+hdmibase<<17+ timingsxxt
01dcc     06 13 62 FC | 	wrlong	local21, local18
01dd0     01 0A 06 F1 | 	add	local17, #1
01dd4     05 0A 5E F2 | 	cmps	local17, #5 wcz
01dd8     BC FF 9F CD |  if_b	jmp	#LR__0092
01ddc                 | LR__0093
01ddc     24 A8 05 F1 | 	add	objptr, #36
01de0     D4 14 02 FB | 	rdlong	local22, objptr
01de4     11 14 66 F0 | 	shl	local22, #17
01de8     40 A8 05 F1 | 	add	objptr, #64
01dec     D4 16 02 FB | 	rdlong	local23, objptr
01df0     0A 17 02 F1 | 	add	local23, local22
01df4                 | ' timings[5]:=timings[5]+hdmibase<<17
01df4     D4 16 62 FC | 	wrlong	local23, objptr
01df8                 | ' clkfreq:=timings[13]
01df8     20 A8 05 F1 | 	add	objptr, #32
01dfc     D4 EC 01 FB | 	rdlong	local02, objptr
01e00     14 EC 65 FC | 	wrlong	local02, #20
01e04                 | ' hubset(timings[14])
01e04     04 A8 05 F1 | 	add	objptr, #4
01e08     D4 E0 01 FB | 	rdlong	arg01, objptr
01e0c     88 A8 85 F1 | 	sub	objptr, #136
01e10     00 E0 61 FD | 	hubset	arg01
01e14                 | ' waitms(1)
01e14     01 E0 05 F6 | 	mov	arg01, #1
01e18     F8 08 B0 FD | 	call	#__system___waitms
01e1c     F5 18 02 F6 | 	mov	local24, local01
01e20     03 18 06 F5 | 	and	local24, #3
01e24     0C 1B C2 F9 | 	decod	local25, local24
01e28                 | ' 
01e28                 | ' 
01e28                 | ' xzoom:=1<<(mode & 3)
01e28     CC A8 05 F1 | 	add	objptr, #204
01e2c     D4 1A 62 FC | 	wrlong	local25, objptr
01e30                 | ' 
01e30                 | ' if (xzoom==8) && (((mode>>4)&3)<>3)
01e30     0D F9 01 F6 | 	mov	local08, local25
01e34     CC A8 85 F1 | 	sub	objptr, #204
01e38     08 F8 0D F2 | 	cmp	local08, #8 wz
01e3c     24 00 90 5D |  if_ne	jmp	#LR__0094
01e40     F5 FA 01 F6 | 	mov	local09, local01
01e44     04 FA 45 F0 | 	shr	local09, #4
01e48     03 FA 05 F5 | 	and	local09, #3
01e4c     03 FA 0D F2 | 	cmp	local09, #3 wz
01e50     10 00 90 AD |  if_e	jmp	#LR__0094
01e54                 | '   xzoom:=4
01e54     04 EC 05 F6 | 	mov	local02, #4
01e58     CC A8 05 F1 | 	add	objptr, #204
01e5c     D4 08 68 FC | 	wrlong	#4, objptr
01e60     CC A8 85 F1 | 	sub	objptr, #204
01e64                 | LR__0094
01e64     F5 1C 02 F6 | 	mov	local26, local01
01e68     02 1C 46 F0 | 	shr	local26, #2
01e6c     03 1C 06 F5 | 	and	local26, #3
01e70     0E 1F C2 F9 | 	decod	local27, local26
01e74                 | ' 
01e74                 | ' yzoom:=1<<((mode>>2) & 3)
01e74     D0 A8 05 F1 | 	add	objptr, #208
01e78     D4 1E 62 FC | 	wrlong	local27, objptr
01e7c     04 A8 85 F1 | 	sub	objptr, #4
01e80     D4 F8 01 FB | 	rdlong	local08, objptr
01e84     04 A8 05 F1 | 	add	objptr, #4
01e88     D4 F0 01 FB | 	rdlong	local04, objptr
01e8c     F8 F8 01 FD | 	qmul	local08, local04
01e90     18 20 62 FD | 	getqx	local28
01e94                 | ' azoom:=xzoom*yzoom
01e94     04 A8 05 F1 | 	add	objptr, #4
01e98     D4 20 62 FC | 	wrlong	local28, objptr
01e9c                 | ' 
01e9c                 | ' cpl:=timings[11]
01e9c     58 A8 85 F1 | 	sub	objptr, #88
01ea0     D4 EC 01 FB | 	rdlong	local02, objptr
01ea4     14 A8 05 F1 | 	add	objptr, #20
01ea8     D4 EC 61 FC | 	wrlong	local02, objptr
01eac     90 A8 85 F1 | 	sub	objptr, #144
01eb0                 | ' if (mode<512)
01eb0     01 00 00 FF 
01eb4     00 EA 5D F2 | 	cmps	local01, ##512 wcz
01eb8     60 00 90 3D |  if_ae	jmp	#LR__0095
01ebc     80 A8 05 F1 | 	add	objptr, #128
01ec0     D4 88 02 FB | 	rdlong	muldiva_, objptr
01ec4     04 88 46 F0 | 	shr	muldiva_, #4
01ec8     50 A8 05 F1 | 	add	objptr, #80
01ecc     D4 8A 02 FB | 	rdlong	muldivb_, objptr
01ed0     D0 A8 85 F1 | 	sub	objptr, #208
01ed4     C1 00 A0 FD | 	call	#unsdivide_
01ed8                 | '   lines:=(timings[12]>>4)+/yzoom
01ed8     94 A8 05 F1 | 	add	objptr, #148
01edc     D4 8A 62 FC | 	wrlong	muldivb_, objptr
01ee0                 | '   if ((timings[12]>>4)+//yzoom) <>0
01ee0     14 A8 85 F1 | 	sub	objptr, #20
01ee4     D4 88 02 FB | 	rdlong	muldiva_, objptr
01ee8     04 88 46 F0 | 	shr	muldiva_, #4
01eec     50 A8 05 F1 | 	add	objptr, #80
01ef0     D4 8A 02 FB | 	rdlong	muldivb_, objptr
01ef4     D0 A8 85 F1 | 	sub	objptr, #208
01ef8     C1 00 A0 FD | 	call	#unsdivide_
01efc     00 88 0E F2 | 	cmp	muldiva_, #0 wz
01f00     AC 00 90 AD |  if_e	jmp	#LR__0098
01f04                 | '     lines +=1
01f04     94 A8 05 F1 | 	add	objptr, #148
01f08     D4 EC 01 FB | 	rdlong	local02, objptr
01f0c     01 EC 05 F1 | 	add	local02, #1
01f10     D4 EC 61 FC | 	wrlong	local02, objptr
01f14     94 A8 85 F1 | 	sub	objptr, #148
01f18                 | ' 
01f18                 | ' else
01f18     94 00 90 FD | 	jmp	#LR__0098
01f1c                 | LR__0095
01f1c     80 A8 05 F1 | 	add	objptr, #128
01f20     D4 88 02 FB | 	rdlong	muldiva_, objptr
01f24     50 A8 05 F1 | 	add	objptr, #80
01f28     D4 8A 02 FB | 	rdlong	muldivb_, objptr
01f2c     D0 A8 85 F1 | 	sub	objptr, #208
01f30     C5 00 A0 FD | 	call	#divide_
01f34                 | '   lines:=timings[12]/yzoom
01f34     94 A8 05 F1 | 	add	objptr, #148
01f38     D4 8A 62 FC | 	wrlong	muldivb_, objptr
01f3c                 | '   if cpl//xzoom==0
01f3c     04 A8 85 F1 | 	sub	objptr, #4
01f40     D4 88 02 FB | 	rdlong	muldiva_, objptr
01f44     3C A8 05 F1 | 	add	objptr, #60
01f48     D4 8A 02 FB | 	rdlong	muldivb_, objptr
01f4c     CC A8 85 F1 | 	sub	objptr, #204
01f50     C5 00 A0 FD | 	call	#divide_
01f54     00 88 0E F2 | 	cmp	muldiva_, #0 wz
01f58     28 00 90 5D |  if_ne	jmp	#LR__0096
01f5c                 | '     cpl:=cpl/xzoom
01f5c     90 A8 05 F1 | 	add	objptr, #144
01f60     D4 88 02 FB | 	rdlong	muldiva_, objptr
01f64     3C A8 05 F1 | 	add	objptr, #60
01f68     D4 8A 02 FB | 	rdlong	muldivb_, objptr
01f6c     CC A8 85 F1 | 	sub	objptr, #204
01f70     C5 00 A0 FD | 	call	#divide_
01f74     90 A8 05 F1 | 	add	objptr, #144
01f78     D4 8A 62 FC | 	wrlong	muldivb_, objptr
01f7c     90 A8 85 F1 | 	sub	objptr, #144
01f80                 | '   else
01f80     2C 00 90 FD | 	jmp	#LR__0097
01f84                 | LR__0096
01f84     90 A8 05 F1 | 	add	objptr, #144
01f88     D4 88 02 FB | 	rdlong	muldiva_, objptr
01f8c     3C A8 05 F1 | 	add	objptr, #60
01f90     D4 8A 02 FB | 	rdlong	muldivb_, objptr
01f94     CC A8 85 F1 | 	sub	objptr, #204
01f98     C5 00 A0 FD | 	call	#divide_
01f9c     45 23 02 F6 | 	mov	local29, muldivb_
01fa0     01 22 06 F1 | 	add	local29, #1
01fa4                 | '     cpl:=cpl/xzoom+1
01fa4     90 A8 05 F1 | 	add	objptr, #144
01fa8     D4 22 62 FC | 	wrlong	local29, objptr
01fac     90 A8 85 F1 | 	sub	objptr, #144
01fb0                 | LR__0097
01fb0                 | LR__0098
01fb0     90 A8 05 F1 | 	add	objptr, #144
01fb4     D4 F8 01 FB | 	rdlong	local08, objptr
01fb8     04 A8 05 F1 | 	add	objptr, #4
01fbc     D4 F0 01 FB | 	rdlong	local04, objptr
01fc0     F8 F8 01 FD | 	qmul	local08, local04
01fc4     18 24 62 FD | 	getqx	local30
01fc8                 | ' 
01fc8                 | ' buflen:=(cpl*lines)
01fc8     64 A8 85 F1 | 	sub	objptr, #100
01fcc     D4 24 62 FC | 	wrlong	local30, objptr
01fd0     30 A8 85 F1 | 	sub	objptr, #48
01fd4     02 24 66 F0 | 	shl	local30, #2
01fd8     13 26 C6 F9 | 	decod	local31, #19
01fdc     12 27 82 F1 | 	sub	local31, local30
01fe0                 | ' 
01fe0                 | ' buf_ptr:=$80000-4*buflen
01fe0     D4 26 62 FC | 	wrlong	local31, objptr
01fe4     50 A8 05 F1 | 	add	objptr, #80
01fe8     D4 28 02 F6 | 	mov	local32, objptr
01fec                 | ' mode_ptr:=@timings
01fec     3C A8 85 F1 | 	sub	objptr, #60
01ff0     D4 28 62 FC | 	wrlong	local32, objptr
01ff4                 | ' graphmode:=mode
01ff4     B0 A8 05 F1 | 	add	objptr, #176
01ff8     D4 EA 61 FC | 	wrlong	local01, objptr
01ffc     C4 A8 85 F1 | 	sub	objptr, #196
02000                 | ' makedl(mode)
02000     F5 E0 01 F6 | 	mov	arg01, local01
02004                 | ' 
02004                 | ' ''--%aaaa_aaaa_aaaa_aaaa_aazz_nnnn_llll_ll_01 - txt
02004                 | '   '' aaaa_aaaa_aaaa_aaaa_aazz_rrrr_rrrr_cc_10 - graph
02004                 | '   '' aaaa_aaaa_aaaa-aaaa_aarr_rrrr_rrrr_rr_11 - extended, next long to read
02004                 | ' 
02004                 | ' '   0 - display a up/down border line
02004                 | ' 
02004                 | ' '  ' aaaa_aaaa_aaaa_aaaa_aazz_nnnn_llll_ll_01 - text line
02004                 | ' '    aaaa_aaaa_aaaa_aaaa_aa00 - buffer start, has to be aligned, 1 long for char, ff_bb_rr_cc, foreground, background,reserved, charcode
02004                 | ' '    zz - zoom, 00-x1, 01-x2, 10-x4, 11-blank line
02004                 | ' '    nnnn - font line to display, 0..15
02004                 | ' '    llllll - character line, determines the cursor Y position
02004                 | ' 
02004                 | ' 
02004                 | ' if (mode &256==0)
02004     00 E1 CD F7 | 	test	arg01, #256 wz
02008     1C 00 90 5D |  if_ne	jmp	#LR__0099
0200c     D4 2A 02 FB | 	rdlong	local33, objptr
02010     04 00 00 FF 
02014     00 2B 86 F1 | 	sub	local33, ##2304
02018                 | '   dl_ptr:=buf_ptr-4*576
02018     1C A8 05 F1 | 	add	objptr, #28
0201c     D4 2A 62 FC | 	wrlong	local33, objptr
02020     1C A8 85 F1 | 	sub	objptr, #28
02024                 | ' else
02024     18 00 90 FD | 	jmp	#LR__0100
02028                 | LR__0099
02028     D4 2C 02 FB | 	rdlong	local34, objptr
0202c     03 00 00 FF 
02030     C0 2D 86 F1 | 	sub	local34, ##1984
02034                 | '   dl_ptr:=buf_ptr-4*496
02034     1C A8 05 F1 | 	add	objptr, #28
02038     D4 2C 62 FC | 	wrlong	local34, objptr
0203c     1C A8 85 F1 | 	sub	objptr, #28
02040                 | LR__0100
02040     F0 2E 02 F6 | 	mov	local35, arg01
02044     02 2E 46 F0 | 	shr	local35, #2
02048     03 2E 06 F5 | 	and	local35, #3
0204c                 | ' 
0204c                 | ' vzoom:=((mode>>2) & 3)
0204c                 | ' 
0204c                 | ' 
0204c                 | ' if mode<512 '' text modes
0204c     01 00 00 FF 
02050     00 E0 5D F2 | 	cmps	arg01, ##512 wcz
02054     E4 01 90 3D |  if_ae	jmp	#LR__0108
02058                 | ' 
02058                 | '   if timings[6]>0 'borders
02058     68 A8 05 F1 | 	add	objptr, #104
0205c     D4 30 02 FB | 	rdlong	local36, objptr
02060     68 A8 85 F1 | 	sub	objptr, #104
02064     00 30 5E F2 | 	cmps	local36, #0 wcz
02068     D4 00 90 ED |  if_be	jmp	#LR__0105
0206c                 | '     repeat i from 0 to timings[6]-1 '0 to -1
0206c     00 32 06 F6 | 	mov	local37, #0
02070     68 A8 05 F1 | 	add	objptr, #104
02074     D4 34 02 FB | 	rdlong	local38, objptr
02078     68 A8 85 F1 | 	sub	objptr, #104
0207c     01 34 86 F1 | 	sub	local38, #1
02080     00 34 5E F2 | 	cmps	local38, #0 wcz
02084     01 36 06 16 |  if_a	mov	local39, #1
02088     01 36 66 E6 |  if_be	neg	local39, #1
0208c     1B 39 02 F6 | 	mov	local40, local39
02090     1B 35 02 F1 | 	add	local38, local39
02094     90 DF 9F FE | 	loc	pa,	#(@LR__0102-@LR__0101)
02098     95 00 A0 FD | 	call	#FCACHE_LOAD_
0209c                 | LR__0101
0209c     19 3B 02 F6 | 	mov	local41, local37
020a0     02 3A 66 F0 | 	shl	local41, #2
020a4     1C A8 05 F1 | 	add	objptr, #28
020a8     D4 3C 02 FB | 	rdlong	local42, objptr
020ac     1C A8 85 F1 | 	sub	objptr, #28
020b0     1D 3D 02 F1 | 	add	local42, local41
020b4                 | '       long[dl_ptr+4*i]:=$0
020b4     1E 01 68 FC | 	wrlong	#0, local42
020b8     1C 33 02 F1 | 	add	local37, local40
020bc     1A 33 0A F2 | 	cmp	local37, local38 wz
020c0     D8 FF 9F 5D |  if_ne	jmp	#LR__0101
020c4                 | LR__0102
020c4                 | '     repeat i from timings[6]+timings[12] to timings[15]-1
020c4     68 A8 05 F1 | 	add	objptr, #104
020c8     D4 32 02 FB | 	rdlong	local37, objptr
020cc     18 A8 05 F1 | 	add	objptr, #24
020d0     D4 36 02 FB | 	rdlong	local39, objptr
020d4     1B 33 02 F1 | 	add	local37, local39
020d8     0C A8 05 F1 | 	add	objptr, #12
020dc     D4 3E 02 FB | 	rdlong	local43, objptr
020e0     01 3E 86 F1 | 	sub	local43, #1
020e4     24 A8 85 F1 | 	sub	objptr, #36
020e8     D4 40 02 FB | 	rdlong	local44, objptr
020ec     18 A8 05 F1 | 	add	objptr, #24
020f0     D4 42 02 FB | 	rdlong	local45, objptr
020f4     80 A8 85 F1 | 	sub	objptr, #128
020f8     21 41 02 F1 | 	add	local44, local45
020fc     20 3F 5A F2 | 	cmps	local43, local44 wcz
02100     01 44 06 16 |  if_a	mov	local46, #1
02104     01 44 66 E6 |  if_be	neg	local46, #1
02108     22 47 02 F6 | 	mov	local47, local46
0210c     22 3F 02 F1 | 	add	local43, local46
02110     14 DF 9F FE | 	loc	pa,	#(@LR__0104-@LR__0103)
02114     95 00 A0 FD | 	call	#FCACHE_LOAD_
02118                 | LR__0103
02118     19 49 02 F6 | 	mov	local48, local37
0211c     02 48 66 F0 | 	shl	local48, #2
02120     1C A8 05 F1 | 	add	objptr, #28
02124     D4 4A 02 FB | 	rdlong	local49, objptr
02128     1C A8 85 F1 | 	sub	objptr, #28
0212c     24 4B 02 F1 | 	add	local49, local48
02130                 | '       long[dl_ptr+4*i]:=$0
02130     25 01 68 FC | 	wrlong	#0, local49
02134     23 33 02 F1 | 	add	local37, local47
02138     1F 33 0A F2 | 	cmp	local37, local43 wz
0213c     D8 FF 9F 5D |  if_ne	jmp	#LR__0103
02140                 | LR__0104
02140                 | LR__0105
02140     10 4C 06 F6 | 	mov	local50, #16
02144     17 4D 62 F0 | 	shl	local50, local35
02148                 | '   lpc:=16<<vzoom
02148                 | '   repeat i from timings[6] to timings[6]+timings[12]-1
02148     68 A8 05 F1 | 	add	objptr, #104
0214c     D4 32 02 FB | 	rdlong	local37, objptr
02150     19 4F 02 F6 | 	mov	local51, local37
02154     18 A8 05 F1 | 	add	objptr, #24
02158     D4 50 02 FB | 	rdlong	local52, objptr
0215c     28 4F 02 F1 | 	add	local51, local52
02160     01 4E 86 F1 | 	sub	local51, #1
02164     18 A8 85 F1 | 	sub	objptr, #24
02168     D4 44 02 FB | 	rdlong	local46, objptr
0216c     68 A8 85 F1 | 	sub	objptr, #104
02170     22 4F 5A F2 | 	cmps	local51, local46 wcz
02174     01 52 06 16 |  if_a	mov	local53, #1
02178     01 52 66 E6 |  if_be	neg	local53, #1
0217c     29 55 02 F6 | 	mov	local54, local53
02180     29 4F 02 F1 | 	add	local51, local53
02184     28 DF 9F FE | 	loc	pa,	#(@LR__0107-@LR__0106)
02188     95 00 A0 FD | 	call	#FCACHE_LOAD_
0218c                 | LR__0106
0218c     19 89 02 F6 | 	mov	muldiva_, local37
02190     68 A8 05 F1 | 	add	objptr, #104
02194     D4 56 02 FB | 	rdlong	local55, objptr
02198     68 A8 85 F1 | 	sub	objptr, #104
0219c     2B 89 82 F1 | 	sub	muldiva_, local55
021a0     26 8B 02 F6 | 	mov	muldivb_, local50
021a4     C1 00 A0 FD | 	call	#unsdivide_
021a8     17 89 42 F0 | 	shr	muldiva_, local35
021ac                 | '     fontline2:=((i-timings[6])+//lpc)>>vzoom
021ac     44 59 02 F6 | 	mov	local56, muldiva_
021b0     19 89 02 F6 | 	mov	muldiva_, local37
021b4     68 A8 05 F1 | 	add	objptr, #104
021b8     D4 56 02 FB | 	rdlong	local55, objptr
021bc     68 A8 85 F1 | 	sub	objptr, #104
021c0     2B 89 82 F1 | 	sub	muldiva_, local55
021c4     26 8B 02 F6 | 	mov	muldivb_, local50
021c8     C1 00 A0 FD | 	call	#unsdivide_
021cc     45 5B 02 F6 | 	mov	local57, muldivb_
021d0                 | '     charline:=(i-timings[6])+/lpc
021d0     90 A8 05 F1 | 	add	objptr, #144
021d4     D4 56 02 FB | 	rdlong	local55, objptr
021d8     90 A8 85 F1 | 	sub	objptr, #144
021dc     2D 57 02 FD | 	qmul	local55, local57
021e0     18 5C 62 FD | 	getqx	local58
021e4     02 5C 66 F0 | 	shl	local58, #2
021e8     D4 5E 02 FB | 	rdlong	local59, objptr
021ec     2E 5F 02 F1 | 	add	local59, local58
021f0     F0 60 02 F6 | 	mov	local60, arg01
021f4     03 60 06 F5 | 	and	local60, #3
021f8     30 5F 02 F1 | 	add	local59, local60
021fc                 | '     bufstart:=buf_ptr+4*((cpl)*charline)+(mode&3)
021fc     0C 5E 66 F0 | 	shl	local59, #12
02200     08 58 66 F0 | 	shl	local56, #8
02204     2C 5F 02 F1 | 	add	local59, local56
02208     02 5A 66 F0 | 	shl	local57, #2
0220c     2D 5F 02 F1 | 	add	local59, local57
02210     01 5E 06 F1 | 	add	local59, #1
02214     19 63 02 F6 | 	mov	local61, local37
02218     02 62 66 F0 | 	shl	local61, #2
0221c     1C A8 05 F1 | 	add	objptr, #28
02220     D4 64 02 FB | 	rdlong	local62, objptr
02224     1C A8 85 F1 | 	sub	objptr, #28
02228     31 65 02 F1 | 	add	local62, local61
0222c                 | '     long[dl_ptr+4*i]:=(bufstart<<12)+(fontline2<<8)+(charline<<2)+1
0222c     32 5F 62 FC | 	wrlong	local59, local62
02230     2A 33 02 F1 | 	add	local37, local54
02234     27 33 0A F2 | 	cmp	local37, local51 wz
02238     50 FF 9F 5D |  if_ne	jmp	#LR__0106
0223c                 | LR__0107
0223c                 | LR__0108
0223c                 | ' 
0223c                 | ' 
0223c                 | ' 
0223c                 | ' if (mode>=512)' and (mode & (%10_00_00_0000))==(%10_00_00_0000) ' graphics -> all modes TODO :mode 560+192=752 = 10_11_11_0000 impossib,e because out of memory
0223c     01 00 00 FF 
02240     00 E0 5D F2 | 	cmps	arg01, ##512 wcz
02244     AC 01 90 CD |  if_b	jmp	#LR__0116
02248                 | ' 
02248                 | '   if timings[6]>0 'borders
02248     68 A8 05 F1 | 	add	objptr, #104
0224c     D4 30 02 FB | 	rdlong	local36, objptr
02250     68 A8 85 F1 | 	sub	objptr, #104
02254     00 30 5E F2 | 	cmps	local36, #0 wcz
02258     D4 00 90 ED |  if_be	jmp	#LR__0113
0225c                 | '     repeat i from 0 to timings[6]-1 '0 to -1
0225c     00 32 06 F6 | 	mov	local37, #0
02260     68 A8 05 F1 | 	add	objptr, #104
02264     D4 66 02 FB | 	rdlong	local63, objptr
02268     68 A8 85 F1 | 	sub	objptr, #104
0226c     01 66 86 F1 | 	sub	local63, #1
02270     00 66 5E F2 | 	cmps	local63, #0 wcz
02274     01 36 06 16 |  if_a	mov	local39, #1
02278     01 36 66 E6 |  if_be	neg	local39, #1
0227c     1B 69 02 F6 | 	mov	local64, local39
02280     1B 67 02 F1 | 	add	local63, local39
02284     A0 DD 9F FE | 	loc	pa,	#(@LR__0110-@LR__0109)
02288     95 00 A0 FD | 	call	#FCACHE_LOAD_
0228c                 | LR__0109
0228c     19 6B 02 F6 | 	mov	local65, local37
02290     02 6A 66 F0 | 	shl	local65, #2
02294     1C A8 05 F1 | 	add	objptr, #28
02298     D4 6C 02 FB | 	rdlong	local66, objptr
0229c     1C A8 85 F1 | 	sub	objptr, #28
022a0     35 6D 02 F1 | 	add	local66, local65
022a4                 | '       long[dl_ptr+4*i]:=$0
022a4     36 01 68 FC | 	wrlong	#0, local66
022a8     34 33 02 F1 | 	add	local37, local64
022ac     33 33 0A F2 | 	cmp	local37, local63 wz
022b0     D8 FF 9F 5D |  if_ne	jmp	#LR__0109
022b4                 | LR__0110
022b4                 | '     repeat i from timings[6]+timings[12] to timings[15]-1
022b4     68 A8 05 F1 | 	add	objptr, #104
022b8     D4 32 02 FB | 	rdlong	local37, objptr
022bc     18 A8 05 F1 | 	add	objptr, #24
022c0     D4 36 02 FB | 	rdlong	local39, objptr
022c4     1B 33 02 F1 | 	add	local37, local39
022c8     0C A8 05 F1 | 	add	objptr, #12
022cc     D4 6E 02 FB | 	rdlong	local67, objptr
022d0     01 6E 86 F1 | 	sub	local67, #1
022d4     24 A8 85 F1 | 	sub	objptr, #36
022d8     D4 40 02 FB | 	rdlong	local44, objptr
022dc     18 A8 05 F1 | 	add	objptr, #24
022e0     D4 42 02 FB | 	rdlong	local45, objptr
022e4     80 A8 85 F1 | 	sub	objptr, #128
022e8     21 41 02 F1 | 	add	local44, local45
022ec     20 6F 5A F2 | 	cmps	local67, local44 wcz
022f0     01 44 06 16 |  if_a	mov	local46, #1
022f4     01 44 66 E6 |  if_be	neg	local46, #1
022f8     22 71 02 F6 | 	mov	local68, local46
022fc     22 6F 02 F1 | 	add	local67, local46
02300     24 DD 9F FE | 	loc	pa,	#(@LR__0112-@LR__0111)
02304     95 00 A0 FD | 	call	#FCACHE_LOAD_
02308                 | LR__0111
02308     19 73 02 F6 | 	mov	local69, local37
0230c     02 72 66 F0 | 	shl	local69, #2
02310     1C A8 05 F1 | 	add	objptr, #28
02314     D4 74 02 FB | 	rdlong	local70, objptr
02318     1C A8 85 F1 | 	sub	objptr, #28
0231c     39 75 02 F1 | 	add	local70, local69
02320                 | '       long[dl_ptr+4*i]:=$0
02320     3A 01 68 FC | 	wrlong	#0, local70
02324     38 33 02 F1 | 	add	local37, local68
02328     37 33 0A F2 | 	cmp	local37, local67 wz
0232c     D8 FF 9F 5D |  if_ne	jmp	#LR__0111
02330                 | LR__0112
02330                 | LR__0113
02330                 | '   repeat i from timings[6] to timings[6]+timings[12]-1
02330     68 A8 05 F1 | 	add	objptr, #104
02334     D4 32 02 FB | 	rdlong	local37, objptr
02338     19 77 02 F6 | 	mov	local71, local37
0233c     18 A8 05 F1 | 	add	objptr, #24
02340     D4 50 02 FB | 	rdlong	local52, objptr
02344     28 77 02 F1 | 	add	local71, local52
02348     01 76 86 F1 | 	sub	local71, #1
0234c     18 A8 85 F1 | 	sub	objptr, #24
02350     D4 44 02 FB | 	rdlong	local46, objptr
02354     68 A8 85 F1 | 	sub	objptr, #104
02358     22 77 5A F2 | 	cmps	local71, local46 wcz
0235c     01 52 06 16 |  if_a	mov	local53, #1
02360     01 52 66 E6 |  if_be	neg	local53, #1
02364     29 79 02 F6 | 	mov	local72, local53
02368     29 77 02 F1 | 	add	local71, local53
0236c     10 DD 9F FE | 	loc	pa,	#(@LR__0115-@LR__0114)
02370     95 00 A0 FD | 	call	#FCACHE_LOAD_
02374                 | LR__0114
02374     19 7B 02 F6 | 	mov	local73, local37
02378     68 A8 05 F1 | 	add	objptr, #104
0237c     D4 56 02 FB | 	rdlong	local55, objptr
02380     2B 7B 82 F1 | 	sub	local73, local55
02384     17 7B 42 F0 | 	shr	local73, local35
02388     28 A8 05 F1 | 	add	objptr, #40
0238c     D4 56 02 FB | 	rdlong	local55, objptr
02390     90 A8 85 F1 | 	sub	objptr, #144
02394     3D 57 02 FD | 	qmul	local55, local73
02398     18 7C 62 FD | 	getqx	local74
0239c     02 7C 66 F0 | 	shl	local74, #2
023a0     D4 7E 02 FB | 	rdlong	local75, objptr
023a4     3E 7F 02 F1 | 	add	local75, local74
023a8     F0 80 02 F6 | 	mov	local76, arg01
023ac     03 80 06 F5 | 	and	local76, #3
023b0     40 7F 02 F1 | 	add	local75, local76
023b4                 | '     bufstart:=buf_ptr+4*(cpl*((i-timings[6])>>vzoom))+(mode&3)
023b4     0C 7E 66 F0 | 	shl	local75, #12
023b8     02 7E 06 F1 | 	add	local75, #2
023bc     F0 82 02 F6 | 	mov	local77, arg01
023c0     30 82 06 F5 | 	and	local77, #48
023c4     02 82 46 F0 | 	shr	local77, #2
023c8     41 7F 02 F1 | 	add	local75, local77
023cc     19 85 02 F6 | 	mov	local78, local37
023d0     02 84 66 F0 | 	shl	local78, #2
023d4     1C A8 05 F1 | 	add	objptr, #28
023d8     D4 86 02 FB | 	rdlong	local79, objptr
023dc     1C A8 85 F1 | 	sub	objptr, #28
023e0     42 87 02 F1 | 	add	local79, local78
023e4                 | '     long[dl_ptr+4*i]:=(bufstart<<12)+2+(mode &48)>>2
023e4     43 7F 62 FC | 	wrlong	local75, local79
023e8     3C 33 02 F1 | 	add	local37, local72
023ec     3B 33 0A F2 | 	cmp	local37, local71 wz
023f0     80 FF 9F 5D |  if_ne	jmp	#LR__0114
023f4                 | LR__0115
023f4                 | LR__0116
023f4                 | LR__0117
023f4     A4 F0 03 F6 | 	mov	ptra, fp
023f8     B4 00 A0 FD | 	call	#popregs_
023fc                 | _hng025_setmode_ret
023fc     2D 00 64 FD | 	ret
02400                 | hubexit
02400     83 00 80 FD | 	jmp	#cogexit
02404                 | 
02404                 | __system___setbaud
02404     14 88 06 FB | 	rdlong	muldiva_, #20
02408     F0 8A 02 F6 | 	mov	muldivb_, arg01
0240c     C5 00 A0 FD | 	call	#divide_
02410     40 7C 64 FD | 	dirl	#62
02414     40 7E 64 FD | 	dirl	#63
02418     D6 8A 62 FC | 	wrlong	muldivb_, ptr___system__dat__
0241c     10 8A 66 F0 | 	shl	muldivb_, #16
02420     07 E2 05 F6 | 	mov	arg02, #7
02424     45 E3 01 F1 | 	add	arg02, muldivb_
02428     3E F8 0C FC | 	wrpin	#124, #62
0242c     3E E2 15 FC | 	wxpin	arg02, #62
02430     3F 7C 0C FC | 	wrpin	#62, #63
02434     14 E2 05 F1 | 	add	arg02, #20
02438     3F E2 15 FC | 	wxpin	arg02, #63
0243c     41 7C 64 FD | 	dirh	#62
02440     41 7E 64 FD | 	dirh	#63
02444                 | __system___setbaud_ret
02444     2D 00 64 FD | 	ret
02448                 | 
02448                 | __system___txraw
02448     02 44 05 F6 | 	mov	COUNT_, #2
0244c     A5 00 A0 FD | 	call	#pushregs_
02450     F0 EA 01 F6 | 	mov	local01, arg01
02454     D6 EC 09 FB | 	rdlong	local02, ptr___system__dat__ wz
02458     0C 00 90 5D |  if_ne	jmp	#LR__0118
0245c     42 0F 00 FF 
02460     80 E0 05 F6 | 	mov	arg01, ##2000000
02464     9C FF BF FD | 	call	#__system___setbaud
02468                 | LR__0118
02468     3E EA 25 FC | 	wypin	local01, #62
0246c     1F 02 64 FD | 	waitx	#1
02470     94 DB 9F FE | 	loc	pa,	#(@LR__0120-@LR__0119)
02474     95 00 A0 FD | 	call	#FCACHE_LOAD_
02478                 | LR__0119
02478     40 7C 74 FD | 	testp	#62 wc
0247c     F8 FF 9F 3D |  if_nc	jmp	#LR__0119
02480                 | LR__0120
02480     01 BC 05 F6 | 	mov	result1, #1
02484     A4 F0 03 F6 | 	mov	ptra, fp
02488     B4 00 A0 FD | 	call	#popregs_
0248c                 | __system___txraw_ret
0248c     2D 00 64 FD | 	ret
02490                 | 
02490                 | __system____builtin_memset
02490     F0 C0 01 F6 | 	mov	_var01, arg01
02494     F1 C2 01 F6 | 	mov	_var02, arg02
02498     08 C2 65 F0 | 	shl	_var02, #8
0249c     F1 C2 41 F5 | 	or	_var02, arg02
024a0     E1 C4 01 F6 | 	mov	_var03, _var02
024a4     10 C4 65 F0 | 	shl	_var03, #16
024a8     E1 C4 41 F5 | 	or	_var03, _var02
024ac     68 DB 9F FE | 	loc	pa,	#(@LR__0122-@LR__0121)
024b0     95 00 A0 FD | 	call	#FCACHE_LOAD_
024b4                 | LR__0121
024b4     03 E4 5D F2 | 	cmps	arg03, #3 wcz
024b8     10 00 90 ED |  if_be	jmp	#LR__0123
024bc     F0 C4 61 FC | 	wrlong	_var03, arg01
024c0     04 E0 05 F1 | 	add	arg01, #4
024c4     04 E4 85 F1 | 	sub	arg03, #4
024c8     E8 FF 9F FD | 	jmp	#LR__0121
024cc                 | LR__0122
024cc                 | LR__0123
024cc     00 E4 0D F2 | 	cmp	arg03, #0 wz
024d0     14 00 90 AD |  if_e	jmp	#LR__0128
024d4     34 DB 9F FE | 	loc	pa,	#(@LR__0126-@LR__0124)
024d8     95 00 A0 FD | 	call	#FCACHE_LOAD_
024dc                 | LR__0124
024dc     F2 04 D8 FC | 	rep	@LR__0127, arg03
024e0                 | LR__0125
024e0     F0 E2 41 FC | 	wrbyte	arg02, arg01
024e4     01 E0 05 F1 | 	add	arg01, #1
024e8                 | LR__0126
024e8                 | LR__0127
024e8                 | LR__0128
024e8     E0 BC 01 F6 | 	mov	result1, _var01
024ec                 | __system____builtin_memset_ret
024ec     2D 00 64 FD | 	ret
024f0                 | 
024f0                 | __system____builtin_memmove
024f0     F0 C0 01 F6 | 	mov	_var01, arg01
024f4     F1 E0 59 F2 | 	cmps	arg01, arg02 wcz
024f8     50 00 90 3D |  if_ae	jmp	#LR__0136
024fc     20 DB 9F FE | 	loc	pa,	#(@LR__0130-@LR__0129)
02500     95 00 A0 FD | 	call	#FCACHE_LOAD_
02504                 | LR__0129
02504     03 E4 5D F2 | 	cmps	arg03, #3 wcz
02508     18 00 90 ED |  if_be	jmp	#LR__0131
0250c     F1 C2 01 FB | 	rdlong	_var02, arg02
02510     F0 C2 61 FC | 	wrlong	_var02, arg01
02514     04 E0 05 F1 | 	add	arg01, #4
02518     04 E2 05 F1 | 	add	arg02, #4
0251c     04 E4 85 F1 | 	sub	arg03, #4
02520     E0 FF 9F FD | 	jmp	#LR__0129
02524                 | LR__0130
02524                 | LR__0131
02524     F2 C4 09 F6 | 	mov	_var03, arg03 wz
02528     4C 00 90 AD |  if_e	jmp	#LR__0142
0252c     E4 DA 9F FE | 	loc	pa,	#(@LR__0134-@LR__0132)
02530     95 00 A0 FD | 	call	#FCACHE_LOAD_
02534                 | LR__0132
02534     E2 08 D8 FC | 	rep	@LR__0135, _var03
02538                 | LR__0133
02538     F1 C2 C1 FA | 	rdbyte	_var02, arg02
0253c     F0 C2 41 FC | 	wrbyte	_var02, arg01
02540     01 E0 05 F1 | 	add	arg01, #1
02544     01 E2 05 F1 | 	add	arg02, #1
02548                 | LR__0134
02548                 | LR__0135
02548     2C 00 90 FD | 	jmp	#LR__0142
0254c                 | LR__0136
0254c     F2 E0 01 F1 | 	add	arg01, arg03
02550     F2 E2 01 F1 | 	add	arg02, arg03
02554     F2 C6 09 F6 | 	mov	_var04, arg03 wz
02558     1C 00 90 AD |  if_e	jmp	#LR__0141
0255c     B4 DA 9F FE | 	loc	pa,	#(@LR__0139-@LR__0137)
02560     95 00 A0 FD | 	call	#FCACHE_LOAD_
02564                 | LR__0137
02564     E3 08 D8 FC | 	rep	@LR__0140, _var04
02568                 | LR__0138
02568     01 E0 85 F1 | 	sub	arg01, #1
0256c     01 E2 85 F1 | 	sub	arg02, #1
02570     F1 C2 C1 FA | 	rdbyte	_var02, arg02
02574     F0 C2 41 FC | 	wrbyte	_var02, arg01
02578                 | LR__0139
02578                 | LR__0140
02578                 | LR__0141
02578                 | LR__0142
02578     E0 BC 01 F6 | 	mov	result1, _var01
0257c                 | __system____builtin_memmove_ret
0257c     2D 00 64 FD | 	ret
02580                 | 
02580                 | __system__longmove
02580     F0 C0 01 F6 | 	mov	_var01, arg01
02584     F1 E0 59 F2 | 	cmps	arg01, arg02 wcz
02588     28 00 90 3D |  if_ae	jmp	#LR__0147
0258c     F2 C2 09 F6 | 	mov	_var02, arg03 wz
02590     54 00 90 AD |  if_e	jmp	#LR__0153
02594     7C DA 9F FE | 	loc	pa,	#(@LR__0145-@LR__0143)
02598     95 00 A0 FD | 	call	#FCACHE_LOAD_
0259c                 | LR__0143
0259c     E1 08 D8 FC | 	rep	@LR__0146, _var02
025a0                 | LR__0144
025a0     F1 C4 01 FB | 	rdlong	_var03, arg02
025a4     F0 C4 61 FC | 	wrlong	_var03, arg01
025a8     04 E0 05 F1 | 	add	arg01, #4
025ac     04 E2 05 F1 | 	add	arg02, #4
025b0                 | LR__0145
025b0                 | LR__0146
025b0     34 00 90 FD | 	jmp	#LR__0153
025b4                 | LR__0147
025b4     F2 C6 01 F6 | 	mov	_var04, arg03
025b8     02 C6 65 F0 | 	shl	_var04, #2
025bc     E3 E0 01 F1 | 	add	arg01, _var04
025c0     E3 E2 01 F1 | 	add	arg02, _var04
025c4     F2 C8 09 F6 | 	mov	_var05, arg03 wz
025c8     1C 00 90 AD |  if_e	jmp	#LR__0152
025cc     44 DA 9F FE | 	loc	pa,	#(@LR__0150-@LR__0148)
025d0     95 00 A0 FD | 	call	#FCACHE_LOAD_
025d4                 | LR__0148
025d4     E4 08 D8 FC | 	rep	@LR__0151, _var05
025d8                 | LR__0149
025d8     04 E0 85 F1 | 	sub	arg01, #4
025dc     04 E2 85 F1 | 	sub	arg02, #4
025e0     F1 C4 01 FB | 	rdlong	_var03, arg02
025e4     F0 C4 61 FC | 	wrlong	_var03, arg01
025e8                 | LR__0150
025e8                 | LR__0151
025e8                 | LR__0152
025e8                 | LR__0153
025e8     E0 BC 01 F6 | 	mov	result1, _var01
025ec                 | __system__longmove_ret
025ec     2D 00 64 FD | 	ret
025f0                 | 
025f0                 | __system____topofstack
025f0     00 44 05 F6 | 	mov	COUNT_, #0
025f4     A5 00 A0 FD | 	call	#pushregs_
025f8     0C F0 07 F1 | 	add	ptra, #12
025fc     04 48 05 F1 | 	add	fp, #4
02600     A4 E0 61 FC | 	wrlong	arg01, fp
02604     A4 BC 01 F6 | 	mov	result1, fp
02608     04 48 85 F1 | 	sub	fp, #4
0260c     A4 F0 03 F6 | 	mov	ptra, fp
02610     B4 00 A0 FD | 	call	#popregs_
02614                 | __system____topofstack_ret
02614     2D 00 64 FD | 	ret
02618                 | 
02618                 | __system___make_methodptr
02618     04 44 05 F6 | 	mov	COUNT_, #4
0261c     A5 00 A0 FD | 	call	#pushregs_
02620     F0 EA 01 F6 | 	mov	local01, arg01
02624     F1 EC 01 F6 | 	mov	local02, arg02
02628     08 E0 05 F6 | 	mov	arg01, #8
0262c     98 04 B0 FD | 	call	#__system___gc_alloc_managed
02630     DE EE 09 F6 | 	mov	local03, result1 wz
02634     10 00 90 AD |  if_e	jmp	#LR__0154
02638     F7 EA 61 FC | 	wrlong	local01, local03
0263c     F7 F0 01 F6 | 	mov	local04, local03
02640     04 F0 05 F1 | 	add	local04, #4
02644     F8 EC 61 FC | 	wrlong	local02, local04
02648                 | LR__0154
02648     F7 BC 01 F6 | 	mov	result1, local03
0264c     A4 F0 03 F6 | 	mov	ptra, fp
02650     B4 00 A0 FD | 	call	#popregs_
02654                 | __system___make_methodptr_ret
02654     2D 00 64 FD | 	ret
02658                 | 
02658                 | __system___tx
02658     02 44 05 F6 | 	mov	COUNT_, #2
0265c     A5 00 A0 FD | 	call	#pushregs_
02660     F0 EA 01 F6 | 	mov	local01, arg01
02664     0A EA 0D F2 | 	cmp	local01, #10 wz
02668     20 00 90 5D |  if_ne	jmp	#LR__0155
0266c     08 AC 05 F1 | 	add	ptr___system__dat__, #8
02670     D6 EC 01 FB | 	rdlong	local02, ptr___system__dat__
02674     08 AC 85 F1 | 	sub	ptr___system__dat__, #8
02678     02 EC CD F7 | 	test	local02, #2 wz
0267c     0C 00 90 AD |  if_e	jmp	#LR__0155
02680     0D EC 05 F6 | 	mov	local02, #13
02684     0D E0 05 F6 | 	mov	arg01, #13
02688     BC FD BF FD | 	call	#__system___txraw
0268c                 | LR__0155
0268c     F5 E0 01 F6 | 	mov	arg01, local01
02690     B4 FD BF FD | 	call	#__system___txraw
02694     A4 F0 03 F6 | 	mov	ptra, fp
02698     B4 00 A0 FD | 	call	#popregs_
0269c                 | __system___tx_ret
0269c     2D 00 64 FD | 	ret
026a0                 | 
026a0                 | __system___lockmem
026a0     02 44 05 F6 | 	mov	COUNT_, #2
026a4     A5 00 A0 FD | 	call	#pushregs_
026a8     D0 BC 01 F6 | 	mov	result1, __lockreg
026ac     DE EA 01 F6 | 	mov	local01, result1
026b0     7C D9 9F FE | 	loc	pa,	#(@LR__0158-@LR__0156)
026b4     95 00 A0 FD | 	call	#FCACHE_LOAD_
026b8                 | LR__0156
026b8                 | LR__0157
026b8     06 EA 71 FD | 	locktry	local01 wc
026bc     FF FF 7F FF 
026c0     FF BD A5 F5 | 	muxnc	result1, ##-1
026c4     00 BC 0D F2 | 	cmp	result1, #0 wz
026c8     EC FF 9F 5D |  if_ne	jmp	#LR__0157
026cc     F0 EC C9 FA | 	rdbyte	local02, arg01 wz
026d0     F0 02 48 AC |  if_e	wrbyte	#1, arg01
026d4     07 EA 71 FD | 	lockrel	local01 wc
026d8     FF FF 7F FF 
026dc     FF BD 85 F5 | 	muxc	result1, ##-1
026e0     00 EC 0D F2 | 	cmp	local02, #0 wz
026e4     D0 FF 9F 5D |  if_ne	jmp	#LR__0156
026e8                 | LR__0158
026e8     A4 F0 03 F6 | 	mov	ptra, fp
026ec     B4 00 A0 FD | 	call	#popregs_
026f0                 | __system___lockmem_ret
026f0     2D 00 64 FD | 	ret
026f4                 | 
026f4                 | __system___pinread
026f4     20 E0 CD F7 | 	test	arg01, #32 wz
026f8     FF C1 01 56 |  if_ne	mov	_var01, inb
026fc     FE C1 01 A6 |  if_e	mov	_var01, ina
02700     E0 BC 01 F6 | 	mov	result1, _var01
02704     F0 BC 41 F0 | 	shr	result1, arg01
02708     06 E0 45 F0 | 	shr	arg01, #6
0270c     F0 BC 41 F7 | 	zerox	result1, arg01
02710                 | __system___pinread_ret
02710     2D 00 64 FD | 	ret
02714                 | 
02714                 | __system___waitms
02714     02 44 05 F6 | 	mov	COUNT_, #2
02718     A5 00 A0 FD | 	call	#pushregs_
0271c     F0 EA 01 F6 | 	mov	local01, arg01
02720     14 EC 05 FB | 	rdlong	local02, #20
02724     F0 D8 9F FE | 	loc	pa,	#(@LR__0160-@LR__0159)
02728     95 00 A0 FD | 	call	#FCACHE_LOAD_
0272c                 | LR__0159
0272c     01 00 00 FF 
02730     E8 EB 5D F2 | 	cmps	local01, ##1000 wcz
02734     1F EC 61 1D |  if_a	waitx	local02
02738     01 00 00 1F 
0273c     E8 EB 85 11 |  if_a	sub	local01, ##1000
02740     E8 FF 9F 1D |  if_a	jmp	#LR__0159
02744                 | LR__0160
02744     00 EA 5D F2 | 	cmps	local01, #0 wcz
02748     1C 00 90 ED |  if_be	jmp	#LR__0161
0274c     F6 88 02 F6 | 	mov	muldiva_, local02
02750     01 00 00 FF 
02754     E8 8B 06 F6 | 	mov	muldivb_, ##1000
02758     C5 00 A0 FD | 	call	#divide_
0275c     45 EB 01 FD | 	qmul	local01, muldivb_
02760     18 E0 61 FD | 	getqx	arg01
02764     1F E0 61 FD | 	waitx	arg01
02768                 | LR__0161
02768     A4 F0 03 F6 | 	mov	ptra, fp
0276c     B4 00 A0 FD | 	call	#popregs_
02770                 | __system___waitms_ret
02770     2D 00 64 FD | 	ret
02774                 | 
02774                 | __system___waitus
02774     02 44 05 F6 | 	mov	COUNT_, #2
02778     A5 00 A0 FD | 	call	#pushregs_
0277c     F0 EA 01 F6 | 	mov	local01, arg01
02780     14 EC 05 FB | 	rdlong	local02, #20
02784     90 D8 9F FE | 	loc	pa,	#(@LR__0163-@LR__0162)
02788     95 00 A0 FD | 	call	#FCACHE_LOAD_
0278c                 | LR__0162
0278c     A1 07 00 FF 
02790     40 EA 5D F2 | 	cmps	local01, ##1000000 wcz
02794     1F EC 61 1D |  if_a	waitx	local02
02798     A1 07 00 1F 
0279c     40 EA 85 11 |  if_a	sub	local01, ##1000000
027a0     E8 FF 9F 1D |  if_a	jmp	#LR__0162
027a4                 | LR__0163
027a4     00 EA 5D F2 | 	cmps	local01, #0 wcz
027a8     1C 00 90 ED |  if_be	jmp	#LR__0164
027ac     F6 88 02 F6 | 	mov	muldiva_, local02
027b0     A1 07 00 FF 
027b4     40 8A 06 F6 | 	mov	muldivb_, ##1000000
027b8     C5 00 A0 FD | 	call	#divide_
027bc     45 EB 01 FD | 	qmul	local01, muldivb_
027c0     18 E0 61 FD | 	getqx	arg01
027c4     1F E0 61 FD | 	waitx	arg01
027c8                 | LR__0164
027c8     A4 F0 03 F6 | 	mov	ptra, fp
027cc     B4 00 A0 FD | 	call	#popregs_
027d0                 | __system___waitus_ret
027d0     2D 00 64 FD | 	ret
027d4                 | 
027d4                 | __system___gc_ptrs
027d4     0A 44 05 F6 | 	mov	COUNT_, #10
027d8     A5 00 A0 FD | 	call	#pushregs_
027dc     CF EA 01 F6 | 	mov	local01, __heap_ptr
027e0     F5 EC 01 F6 | 	mov	local02, local01
027e4     07 00 00 FF 
027e8     F8 ED 05 F1 | 	add	local02, ##4088
027ec     F5 EE 09 FB | 	rdlong	local03, local01 wz
027f0     74 00 90 5D |  if_ne	jmp	#LR__0165
027f4     F6 F0 01 F6 | 	mov	local04, local02
027f8     F5 F0 81 F1 | 	sub	local04, local01
027fc     F5 02 58 FC | 	wrword	#1, local01
02800     F5 F2 01 F6 | 	mov	local05, local01
02804     02 F2 05 F1 | 	add	local05, #2
02808     36 00 80 FF 
0280c     F9 20 59 FC | 	wrword	##27792, local05
02810     F5 F4 01 F6 | 	mov	local06, local01
02814     04 F4 05 F1 | 	add	local06, #4
02818     FA 00 58 FC | 	wrword	#0, local06
0281c     F5 F6 01 F6 | 	mov	local07, local01
02820     06 F6 05 F1 | 	add	local07, #6
02824     FB 02 58 FC | 	wrword	#1, local07
02828     10 EA 05 F1 | 	add	local01, #16
0282c     F8 EE 51 F6 | 	abs	local03, local04 wc
02830     04 EE 45 F0 | 	shr	local03, #4
02834     F7 EE 61 C6 |  if_b	neg	local03, local03
02838     F5 EE 51 FC | 	wrword	local03, local01
0283c     F5 F8 01 F6 | 	mov	local08, local01
02840     02 F8 05 F1 | 	add	local08, #2
02844     36 00 80 FF 
02848     FC 1E 59 FC | 	wrword	##27791, local08
0284c     F5 FA 01 F6 | 	mov	local09, local01
02850     04 FA 05 F1 | 	add	local09, #4
02854     FD 00 58 FC | 	wrword	#0, local09
02858     F5 FC 01 F6 | 	mov	local10, local01
0285c     06 FC 05 F1 | 	add	local10, #6
02860     FE 00 58 FC | 	wrword	#0, local10
02864     10 EA 85 F1 | 	sub	local01, #16
02868                 | LR__0165
02868     F6 BE 01 F6 | 	mov	result2, local02
0286c     F5 BC 01 F6 | 	mov	result1, local01
02870     A4 F0 03 F6 | 	mov	ptra, fp
02874     B4 00 A0 FD | 	call	#popregs_
02878                 | __system___gc_ptrs_ret
02878     2D 00 64 FD | 	ret
0287c                 | 
0287c                 | __system___gc_nextBlockPtr
0287c     02 44 05 F6 | 	mov	COUNT_, #2
02880     A5 00 A0 FD | 	call	#pushregs_
02884     F0 EA 01 F6 | 	mov	local01, arg01
02888     F5 EC E9 FA | 	rdword	local02, local01 wz
0288c     10 00 90 5D |  if_ne	jmp	#LR__0166
02890     18 00 00 FF 
02894     7C E0 05 F6 | 	mov	arg01, ##@LR__0209
02898     F8 01 B0 FD | 	call	#__system___gc_errmsg
0289c     0C 00 90 FD | 	jmp	#LR__0167
028a0                 | LR__0166
028a0     04 EC 65 F0 | 	shl	local02, #4
028a4     F5 BC 01 F6 | 	mov	result1, local01
028a8     F6 BC 01 F1 | 	add	result1, local02
028ac                 | LR__0167
028ac     A4 F0 03 F6 | 	mov	ptra, fp
028b0     B4 00 A0 FD | 	call	#popregs_
028b4                 | __system___gc_nextBlockPtr_ret
028b4     2D 00 64 FD | 	ret
028b8                 | 
028b8                 | __system___gc_tryalloc
028b8     1B 44 05 F6 | 	mov	COUNT_, #27
028bc     A5 00 A0 FD | 	call	#pushregs_
028c0     F0 EA 01 F6 | 	mov	local01, arg01
028c4     F1 EC 01 F6 | 	mov	local02, arg02
028c8     08 FF BF FD | 	call	#__system___gc_ptrs
028cc     DE EE 01 F6 | 	mov	local03, result1
028d0     DF F0 01 F6 | 	mov	local04, result2
028d4     F7 F2 01 F6 | 	mov	local05, local03
028d8     00 F4 05 F6 | 	mov	local06, #0
028dc     78 D7 9F FE | 	loc	pa,	#(@LR__0169-@LR__0168)
028e0     95 00 A0 FD | 	call	#FCACHE_LOAD_
028e4                 | LR__0168
028e4     F9 F6 01 F6 | 	mov	local07, local05
028e8     06 F2 05 F1 | 	add	local05, #6
028ec     F9 F8 01 F6 | 	mov	local08, local05
028f0     F7 FA 01 F6 | 	mov	local09, local03
028f4     FC FC E1 FA | 	rdword	local10, local08
028f8     FD E0 01 F6 | 	mov	arg01, local09
028fc     FE E2 09 F6 | 	mov	arg02, local10 wz
02900     00 BC 05 A6 |  if_e	mov	result1, #0
02904     04 E2 65 50 |  if_ne	shl	arg02, #4
02908     F1 E0 01 51 |  if_ne	add	arg01, arg02
0290c     F0 BC 01 56 |  if_ne	mov	result1, arg01
02910     DE FE 01 F6 | 	mov	local11, result1
02914     FF F2 09 F6 | 	mov	local05, local11 wz
02918     F9 FA 01 56 |  if_ne	mov	local09, local05
0291c     FD 00 02 56 |  if_ne	mov	local12, local09
02920     00 F5 E1 5A |  if_ne	rdword	local06, local12
02924     00 F2 0D F2 | 	cmp	local05, #0 wz
02928     10 00 90 AD |  if_e	jmp	#LR__0170
0292c     F8 F2 59 F2 | 	cmps	local05, local04 wcz
02930     08 00 90 3D |  if_ae	jmp	#LR__0170
02934     FA EA 59 F2 | 	cmps	local01, local06 wcz
02938     A8 FF 9F 1D |  if_a	jmp	#LR__0168
0293c                 | LR__0169
0293c                 | LR__0170
0293c     00 F2 0D F2 | 	cmp	local05, #0 wz
02940     F9 BC 01 A6 |  if_e	mov	result1, local05
02944     40 01 90 AD |  if_e	jmp	#LR__0173
02948     F9 02 02 F6 | 	mov	local13, local05
0294c     06 02 06 F1 | 	add	local13, #6
02950     01 05 E2 FA | 	rdword	local14, local13
02954     FA EA 59 F2 | 	cmps	local01, local06 wcz
02958     CC 00 90 3D |  if_ae	jmp	#LR__0172
0295c     F9 06 02 F6 | 	mov	local15, local05
02960     03 EB 51 FC | 	wrword	local01, local15
02964     F5 08 02 F6 | 	mov	local16, local01
02968     04 08 66 F0 | 	shl	local16, #4
0296c     F9 0A 02 F6 | 	mov	local17, local05
02970     04 0B 02 F1 | 	add	local17, local16
02974     FA 0C 02 F6 | 	mov	local18, local06
02978     F5 0C 82 F1 | 	sub	local18, local01
0297c     05 0F 02 F6 | 	mov	local19, local17
02980     07 0D 52 FC | 	wrword	local18, local19
02984     05 11 02 F6 | 	mov	local20, local17
02988     02 10 06 F1 | 	add	local20, #2
0298c     36 00 80 FF 
02990     08 1F 59 FC | 	wrword	##27791, local20
02994     05 13 02 F6 | 	mov	local21, local17
02998     04 12 06 F1 | 	add	local21, #4
0299c     F9 E2 09 F6 | 	mov	arg02, local05 wz
029a0     00 BC 05 A6 |  if_e	mov	result1, #0
029a4     F7 E2 81 51 |  if_ne	sub	arg02, local03
029a8     04 E2 45 50 |  if_ne	shr	arg02, #4
029ac     F1 BC 01 56 |  if_ne	mov	result1, arg02
029b0     09 BD 51 FC | 	wrword	result1, local21
029b4     05 15 02 F6 | 	mov	local22, local17
029b8     01 FB E1 FA | 	rdword	local09, local13
029bc     06 14 06 F1 | 	add	local22, #6
029c0     0A FB 51 FC | 	wrword	local09, local22
029c4     05 17 02 F6 | 	mov	local23, local17
029c8     0B E3 09 F6 | 	mov	arg02, local23 wz
029cc     00 BC 05 A6 |  if_e	mov	result1, #0
029d0     F7 E2 81 51 |  if_ne	sub	arg02, local03
029d4     04 E2 45 50 |  if_ne	shr	arg02, #4
029d8     F1 BC 01 56 |  if_ne	mov	result1, arg02
029dc     DE 04 02 F6 | 	mov	local14, result1
029e0     05 E1 01 F6 | 	mov	arg01, local17
029e4     94 FE BF FD | 	call	#__system___gc_nextBlockPtr
029e8     DE 18 0A F6 | 	mov	local24, result1 wz
029ec     38 00 90 AD |  if_e	jmp	#LR__0171
029f0     F8 18 5A F2 | 	cmps	local24, local04 wcz
029f4     30 00 90 3D |  if_ae	jmp	#LR__0171
029f8     0C 1B 02 F6 | 	mov	local25, local24
029fc     04 1A 06 F1 | 	add	local25, #4
02a00     F7 FA 01 F6 | 	mov	local09, local03
02a04     0B FD 01 F6 | 	mov	local10, local23
02a08     FD E0 01 F6 | 	mov	arg01, local09
02a0c     FE E2 09 F6 | 	mov	arg02, local10 wz
02a10     00 BC 05 A6 |  if_e	mov	result1, #0
02a14     F0 E2 81 51 |  if_ne	sub	arg02, arg01
02a18     04 E2 45 50 |  if_ne	shr	arg02, #4
02a1c     F1 BC 01 56 |  if_ne	mov	result1, arg02
02a20     DE FE 01 F6 | 	mov	local11, result1
02a24     0D FF 51 FC | 	wrword	local11, local25
02a28                 | LR__0171
02a28                 | LR__0172
02a28     06 F6 05 F1 | 	add	local07, #6
02a2c     FB 04 52 FC | 	wrword	local14, local07
02a30     36 00 00 FF 
02a34     80 FA 05 F6 | 	mov	local09, ##27776
02a38     F6 FA 41 F5 | 	or	local09, local02
02a3c     F9 1C 02 F6 | 	mov	local26, local05
02a40     02 1C 06 F1 | 	add	local26, #2
02a44     01 BC 61 FD | 	cogid	result1
02a48     DE FA 41 F5 | 	or	local09, result1
02a4c     0E FB 51 FC | 	wrword	local09, local26
02a50     F7 1E 02 F6 | 	mov	local27, local03
02a54     08 1E 06 F1 | 	add	local27, #8
02a58     0F FB E1 FA | 	rdword	local09, local27
02a5c     01 FB 51 FC | 	wrword	local09, local13
02a60     F9 E2 09 F6 | 	mov	arg02, local05 wz
02a64     00 BC 05 A6 |  if_e	mov	result1, #0
02a68     F7 E2 81 51 |  if_ne	sub	arg02, local03
02a6c     04 E2 45 50 |  if_ne	shr	arg02, #4
02a70     F1 BC 01 56 |  if_ne	mov	result1, arg02
02a74     0F BD 51 FC | 	wrword	result1, local27
02a78     08 F2 05 F1 | 	add	local05, #8
02a7c     F9 BC 01 F6 | 	mov	result1, local05
02a80     00 C0 31 FF 
02a84     00 BC 45 F5 | 	or	result1, ##1669332992
02a88                 | LR__0173
02a88     A4 F0 03 F6 | 	mov	ptra, fp
02a8c     B4 00 A0 FD | 	call	#popregs_
02a90                 | __system___gc_tryalloc_ret
02a90     2D 00 64 FD | 	ret
02a94                 | 
02a94                 | __system___gc_errmsg
02a94     02 44 05 F6 | 	mov	COUNT_, #2
02a98     A5 00 A0 FD | 	call	#pushregs_
02a9c     F0 EA 01 F6 | 	mov	local01, arg01
02aa0                 | LR__0174
02aa0     F5 EC C9 FA | 	rdbyte	local02, local01 wz
02aa4     01 EA 05 F1 | 	add	local01, #1
02aa8     0C 00 90 AD |  if_e	jmp	#LR__0175
02aac     F6 E0 01 F6 | 	mov	arg01, local02
02ab0     A4 FB BF FD | 	call	#__system___tx
02ab4     E8 FF 9F FD | 	jmp	#LR__0174
02ab8                 | LR__0175
02ab8     00 BC 05 F6 | 	mov	result1, #0
02abc     A4 F0 03 F6 | 	mov	ptra, fp
02ac0     B4 00 A0 FD | 	call	#popregs_
02ac4                 | __system___gc_errmsg_ret
02ac4     2D 00 64 FD | 	ret
02ac8                 | 
02ac8                 | __system___gc_alloc_managed
02ac8     02 44 05 F6 | 	mov	COUNT_, #2
02acc     A5 00 A0 FD | 	call	#pushregs_
02ad0     F0 EA 01 F6 | 	mov	local01, arg01
02ad4     00 E2 05 F6 | 	mov	arg02, #0
02ad8     30 00 B0 FD | 	call	#__system___gc_doalloc
02adc     DE EC 09 F6 | 	mov	local02, result1 wz
02ae0     18 00 90 5D |  if_ne	jmp	#LR__0176
02ae4     00 EA 5D F2 | 	cmps	local01, #0 wcz
02ae8     10 00 90 ED |  if_be	jmp	#LR__0176
02aec     18 00 00 FF 
02af0     98 E0 05 F6 | 	mov	arg01, ##@LR__0210
02af4     9C FF BF FD | 	call	#__system___gc_errmsg
02af8     04 00 90 FD | 	jmp	#LR__0177
02afc                 | LR__0176
02afc     F6 BC 01 F6 | 	mov	result1, local02
02b00                 | LR__0177
02b00     A4 F0 03 F6 | 	mov	ptra, fp
02b04     B4 00 A0 FD | 	call	#popregs_
02b08                 | __system___gc_alloc_managed_ret
02b08     2D 00 64 FD | 	ret
02b0c                 | 
02b0c                 | __system___gc_doalloc
02b0c     07 44 05 F6 | 	mov	COUNT_, #7
02b10     A5 00 A0 FD | 	call	#pushregs_
02b14     F0 EA 09 F6 | 	mov	local01, arg01 wz
02b18     F1 EC 01 F6 | 	mov	local02, arg02
02b1c     00 BC 05 A6 |  if_e	mov	result1, #0
02b20     8C 00 90 AD |  if_e	jmp	#LR__0185
02b24     17 EA 05 F1 | 	add	local01, #23
02b28     0F EA 25 F5 | 	andn	local01, #15
02b2c     04 EA 45 F0 | 	shr	local01, #4
02b30     0C AC 05 F1 | 	add	ptr___system__dat__, #12
02b34     D6 EE 01 F6 | 	mov	local03, ptr___system__dat__
02b38     F7 E0 01 F6 | 	mov	arg01, local03
02b3c     0C AC 85 F1 | 	sub	ptr___system__dat__, #12
02b40     5C FB BF FD | 	call	#__system___lockmem
02b44     F5 E0 01 F6 | 	mov	arg01, local01
02b48     F6 E2 01 F6 | 	mov	arg02, local02
02b4c     68 FD BF FD | 	call	#__system___gc_tryalloc
02b50     DE F0 09 F6 | 	mov	local04, result1 wz
02b54     14 00 90 5D |  if_ne	jmp	#LR__0178
02b58     10 03 B0 FD | 	call	#__system___gc_docollect
02b5c     F5 E0 01 F6 | 	mov	arg01, local01
02b60     F6 E2 01 F6 | 	mov	arg02, local02
02b64     50 FD BF FD | 	call	#__system___gc_tryalloc
02b68     DE F0 01 F6 | 	mov	local04, result1
02b6c                 | LR__0178
02b6c     F7 00 48 FC | 	wrbyte	#0, local03
02b70     00 F0 0D F2 | 	cmp	local04, #0 wz
02b74     34 00 90 AD |  if_e	jmp	#LR__0184
02b78     04 EA 65 F0 | 	shl	local01, #4
02b7c     08 EA 85 F1 | 	sub	local01, #8
02b80     F5 F2 51 F6 | 	abs	local05, local01 wc
02b84     02 F2 45 F0 | 	shr	local05, #2
02b88     F9 F2 61 C6 |  if_b	neg	local05, local05
02b8c     F9 F4 09 F6 | 	mov	local06, local05 wz
02b90     F8 F6 01 F6 | 	mov	local07, local04
02b94     14 00 90 AD |  if_e	jmp	#LR__0183
02b98     70 D4 9F FE | 	loc	pa,	#(@LR__0181-@LR__0179)
02b9c     95 00 A0 FD | 	call	#FCACHE_LOAD_
02ba0                 | LR__0179
02ba0     FA 04 D8 FC | 	rep	@LR__0182, local06
02ba4                 | LR__0180
02ba4     FB 00 68 FC | 	wrlong	#0, local07
02ba8     04 F6 05 F1 | 	add	local07, #4
02bac                 | LR__0181
02bac                 | LR__0182
02bac                 | LR__0183
02bac                 | LR__0184
02bac     F8 BC 01 F6 | 	mov	result1, local04
02bb0                 | LR__0185
02bb0     A4 F0 03 F6 | 	mov	ptra, fp
02bb4     B4 00 A0 FD | 	call	#popregs_
02bb8                 | __system___gc_doalloc_ret
02bb8     2D 00 64 FD | 	ret
02bbc                 | 
02bbc                 | __system___gc_isvalidptr
02bbc     F2 C0 01 F6 | 	mov	_var01, arg03
02bc0     E0 C2 01 F6 | 	mov	_var02, _var01
02bc4     00 F8 7F FF 
02bc8     00 C2 05 F5 | 	and	_var02, ##-1048576
02bcc     00 C0 31 FF 
02bd0     00 C2 0D F2 | 	cmp	_var02, ##1669332992 wz
02bd4     00 BC 05 56 |  if_ne	mov	result1, #0
02bd8     60 00 90 5D |  if_ne	jmp	#__system___gc_isvalidptr_ret
02bdc     08 C0 85 F1 | 	sub	_var01, #8
02be0     E0 C4 01 F6 | 	mov	_var03, _var01
02be4     00 F8 7F FF 
02be8     00 C4 25 F5 | 	andn	_var03, ##-1048576
02bec     F0 C4 59 F2 | 	cmps	_var03, arg01 wcz
02bf0     08 00 90 CD |  if_b	jmp	#LR__0186
02bf4     F1 C4 59 F2 | 	cmps	_var03, arg02 wcz
02bf8     08 00 90 CD |  if_b	jmp	#LR__0187
02bfc                 | LR__0186
02bfc     00 BC 05 F6 | 	mov	result1, #0
02c00     38 00 90 FD | 	jmp	#__system___gc_isvalidptr_ret
02c04                 | LR__0187
02c04     E2 C2 01 F6 | 	mov	_var02, _var03
02c08     F0 C2 61 F5 | 	xor	_var02, arg01
02c0c     0F C2 0D F5 | 	and	_var02, #15 wz
02c10     00 BC 05 56 |  if_ne	mov	result1, #0
02c14     24 00 90 5D |  if_ne	jmp	#__system___gc_isvalidptr_ret
02c18     E2 C6 01 F6 | 	mov	_var04, _var03
02c1c     02 C6 05 F1 | 	add	_var04, #2
02c20     E3 C2 E1 FA | 	rdword	_var02, _var04
02c24     7F 00 00 FF 
02c28     C0 C3 05 F5 | 	and	_var02, ##65472
02c2c     36 00 00 FF 
02c30     80 C2 0D F2 | 	cmp	_var02, ##27776 wz
02c34     00 BC 05 56 |  if_ne	mov	result1, #0
02c38     E2 BC 01 A6 |  if_e	mov	result1, _var03
02c3c                 | __system___gc_isvalidptr_ret
02c3c     2D 00 64 FD | 	ret
02c40                 | 
02c40                 | __system___gc_dofree
02c40     1A 44 05 F6 | 	mov	COUNT_, #26
02c44     A5 00 A0 FD | 	call	#pushregs_
02c48     F0 EA 01 F6 | 	mov	local01, arg01
02c4c     84 FB BF FD | 	call	#__system___gc_ptrs
02c50     DF EC 01 F6 | 	mov	local02, result2
02c54     DE EE 01 F6 | 	mov	local03, result1
02c58     F5 F0 01 F6 | 	mov	local04, local01
02c5c     02 F0 05 F1 | 	add	local04, #2
02c60     36 00 80 FF 
02c64     F8 1E 59 FC | 	wrword	##27791, local04
02c68     F5 F2 01 F6 | 	mov	local05, local01
02c6c     F5 E0 01 F6 | 	mov	arg01, local01
02c70     08 FC BF FD | 	call	#__system___gc_nextBlockPtr
02c74     DE F4 01 F6 | 	mov	local06, result1
02c78     D4 D3 9F FE | 	loc	pa,	#(@LR__0189-@LR__0188)
02c7c     95 00 A0 FD | 	call	#FCACHE_LOAD_
02c80                 | LR__0188
02c80     04 F2 05 F1 | 	add	local05, #4
02c84     F9 F6 01 F6 | 	mov	local07, local05
02c88     FB E2 E9 FA | 	rdword	arg02, local07 wz
02c8c     F7 E0 01 F6 | 	mov	arg01, local03
02c90     00 BC 05 A6 |  if_e	mov	result1, #0
02c94     04 E2 65 50 |  if_ne	shl	arg02, #4
02c98     F1 E0 01 51 |  if_ne	add	arg01, arg02
02c9c     F0 BC 01 56 |  if_ne	mov	result1, arg01
02ca0     DE F2 09 F6 | 	mov	local05, result1 wz
02ca4     28 00 90 AD |  if_e	jmp	#LR__0190
02ca8     F9 E0 01 F6 | 	mov	arg01, local05
02cac     00 F8 05 F6 | 	mov	local08, #0
02cb0     02 E0 05 F1 | 	add	arg01, #2
02cb4     F0 FA E1 FA | 	rdword	local09, arg01
02cb8     36 00 00 FF 
02cbc     8F FA 0D F2 | 	cmp	local09, ##27791 wz
02cc0     01 F8 65 A6 |  if_e	neg	local08, #1
02cc4     FC BC 01 F6 | 	mov	result1, local08
02cc8     DE FC 09 F6 | 	mov	local10, result1 wz
02ccc     B0 FF 9F AD |  if_e	jmp	#LR__0188
02cd0                 | LR__0189
02cd0                 | LR__0190
02cd0     00 F2 0D F2 | 	cmp	local05, #0 wz
02cd4     F7 F2 01 A6 |  if_e	mov	local05, local03
02cd8     F9 FE 01 F6 | 	mov	local11, local05
02cdc     06 FE 05 F1 | 	add	local11, #6
02ce0     F5 00 02 F6 | 	mov	local12, local01
02ce4     FF 02 E2 FA | 	rdword	local13, local11
02ce8     06 00 06 F1 | 	add	local12, #6
02cec     00 03 52 FC | 	wrword	local13, local12
02cf0     F5 E2 09 F6 | 	mov	arg02, local01 wz
02cf4     00 BC 05 A6 |  if_e	mov	result1, #0
02cf8     F7 E2 81 51 |  if_ne	sub	arg02, local03
02cfc     04 E2 45 50 |  if_ne	shr	arg02, #4
02d00     F1 BC 01 56 |  if_ne	mov	result1, arg02
02d04     DE 04 02 F6 | 	mov	local14, result1
02d08     FF 04 52 FC | 	wrword	local14, local11
02d0c     F7 F2 09 F2 | 	cmp	local05, local03 wz
02d10     74 00 90 AD |  if_e	jmp	#LR__0193
02d14     F9 E0 01 F6 | 	mov	arg01, local05
02d18     60 FB BF FD | 	call	#__system___gc_nextBlockPtr
02d1c     F5 BC 09 F2 | 	cmp	result1, local01 wz
02d20     64 00 90 5D |  if_ne	jmp	#LR__0192
02d24     F9 06 02 F6 | 	mov	local15, local05
02d28     03 09 E2 FA | 	rdword	local16, local15
02d2c     F5 0A 02 F6 | 	mov	local17, local01
02d30     05 FD E1 FA | 	rdword	local10, local17
02d34     FE 08 02 F1 | 	add	local16, local10
02d38     03 09 52 FC | 	wrword	local16, local15
02d3c     F8 00 58 FC | 	wrword	#0, local04
02d40     F5 E0 01 F6 | 	mov	arg01, local01
02d44     34 FB BF FD | 	call	#__system___gc_nextBlockPtr
02d48     DE F4 01 F6 | 	mov	local06, result1
02d4c     F6 F4 59 F2 | 	cmps	local06, local02 wcz
02d50     24 00 90 3D |  if_ae	jmp	#LR__0191
02d54     FA 0C 02 F6 | 	mov	local18, local06
02d58     04 0C 06 F1 | 	add	local18, #4
02d5c     F9 E2 09 F6 | 	mov	arg02, local05 wz
02d60     00 BC 05 A6 |  if_e	mov	result1, #0
02d64     F7 E2 81 51 |  if_ne	sub	arg02, local03
02d68     04 E2 45 50 |  if_ne	shr	arg02, #4
02d6c     F1 BC 01 56 |  if_ne	mov	result1, arg02
02d70     DE 04 02 F6 | 	mov	local14, result1
02d74     06 05 52 FC | 	wrword	local14, local18
02d78                 | LR__0191
02d78     00 03 E2 FA | 	rdword	local13, local12
02d7c     FF 02 52 FC | 	wrword	local13, local11
02d80     00 01 58 FC | 	wrword	#0, local12
02d84     F9 EA 01 F6 | 	mov	local01, local05
02d88                 | LR__0192
02d88                 | LR__0193
02d88     F5 E0 01 F6 | 	mov	arg01, local01
02d8c     EC FA BF FD | 	call	#__system___gc_nextBlockPtr
02d90     DE 0E 0A F6 | 	mov	local19, result1 wz
02d94     C4 00 90 AD |  if_e	jmp	#LR__0195
02d98     F6 0E 5A F2 | 	cmps	local19, local02 wcz
02d9c     BC 00 90 3D |  if_ae	jmp	#LR__0195
02da0     07 E1 01 F6 | 	mov	arg01, local19
02da4     00 F8 05 F6 | 	mov	local08, #0
02da8     02 E0 05 F1 | 	add	arg01, #2
02dac     F0 FA E1 FA | 	rdword	local09, arg01
02db0     36 00 00 FF 
02db4     8F FA 0D F2 | 	cmp	local09, ##27791 wz
02db8     01 F8 65 A6 |  if_e	neg	local08, #1
02dbc     FC BC 09 F6 | 	mov	result1, local08 wz
02dc0     98 00 90 AD |  if_e	jmp	#LR__0195
02dc4     F5 F2 01 F6 | 	mov	local05, local01
02dc8     07 EB 01 F6 | 	mov	local01, local19
02dcc     F9 10 02 F6 | 	mov	local20, local05
02dd0     08 13 E2 FA | 	rdword	local21, local20
02dd4     F5 14 02 F6 | 	mov	local22, local01
02dd8     0A FD E1 FA | 	rdword	local10, local22
02ddc     FE 12 02 F1 | 	add	local21, local10
02de0     08 13 52 FC | 	wrword	local21, local20
02de4     F5 16 02 F6 | 	mov	local23, local01
02de8     06 16 06 F1 | 	add	local23, #6
02dec     F9 18 02 F6 | 	mov	local24, local05
02df0     0B 03 E2 FA | 	rdword	local13, local23
02df4     06 18 06 F1 | 	add	local24, #6
02df8     0C 03 52 FC | 	wrword	local13, local24
02dfc     F5 1A 02 F6 | 	mov	local25, local01
02e00     02 1A 06 F1 | 	add	local25, #2
02e04     0D 55 59 FC | 	wrword	#170, local25
02e08     0B 01 58 FC | 	wrword	#0, local23
02e0c     F5 02 02 F6 | 	mov	local13, local01
02e10     01 E1 01 F6 | 	mov	arg01, local13
02e14     64 FA BF FD | 	call	#__system___gc_nextBlockPtr
02e18     DE FC 01 F6 | 	mov	local10, result1
02e1c     FE F4 09 F6 | 	mov	local06, local10 wz
02e20     38 00 90 AD |  if_e	jmp	#LR__0194
02e24     F6 F4 59 F2 | 	cmps	local06, local02 wcz
02e28     30 00 90 3D |  if_ae	jmp	#LR__0194
02e2c     FA 1C 02 F6 | 	mov	local26, local06
02e30     04 1C 06 F1 | 	add	local26, #4
02e34     F7 02 02 F6 | 	mov	local13, local03
02e38     F9 FC 01 F6 | 	mov	local10, local05
02e3c     01 E1 01 F6 | 	mov	arg01, local13
02e40     FE E2 09 F6 | 	mov	arg02, local10 wz
02e44     00 BC 05 A6 |  if_e	mov	result1, #0
02e48     F0 E2 81 51 |  if_ne	sub	arg02, arg01
02e4c     04 E2 45 50 |  if_ne	shr	arg02, #4
02e50     F1 BC 01 56 |  if_ne	mov	result1, arg02
02e54     DE 04 02 F6 | 	mov	local14, result1
02e58     0E 05 52 FC | 	wrword	local14, local26
02e5c                 | LR__0194
02e5c                 | LR__0195
02e5c     FA BC 01 F6 | 	mov	result1, local06
02e60     A4 F0 03 F6 | 	mov	ptra, fp
02e64     B4 00 A0 FD | 	call	#popregs_
02e68                 | __system___gc_dofree_ret
02e68     2D 00 64 FD | 	ret
02e6c                 | 
02e6c                 | __system___gc_docollect
02e6c     0C 44 05 F6 | 	mov	COUNT_, #12
02e70     A5 00 A0 FD | 	call	#pushregs_
02e74     5C F9 BF FD | 	call	#__system___gc_ptrs
02e78     DF EA 01 F6 | 	mov	local01, result2
02e7c     DE EC 01 F6 | 	mov	local02, result1
02e80     F6 E0 01 F6 | 	mov	arg01, local02
02e84     F4 F9 BF FD | 	call	#__system___gc_nextBlockPtr
02e88     DE EE 09 F6 | 	mov	local03, result1 wz
02e8c     01 BC 61 FD | 	cogid	result1
02e90     DE F0 01 F6 | 	mov	local04, result1
02e94     2C 00 90 AD |  if_e	jmp	#LR__0197
02e98                 | LR__0196
02e98     F5 EE 59 F2 | 	cmps	local03, local01 wcz
02e9c     24 00 90 3D |  if_ae	jmp	#LR__0197
02ea0     F7 F2 01 F6 | 	mov	local05, local03
02ea4     02 F2 05 F1 | 	add	local05, #2
02ea8     F9 F4 E1 FA | 	rdword	local06, local05
02eac     20 F4 25 F5 | 	andn	local06, #32
02eb0     F9 F4 51 FC | 	wrword	local06, local05
02eb4     F7 E0 01 F6 | 	mov	arg01, local03
02eb8     C0 F9 BF FD | 	call	#__system___gc_nextBlockPtr
02ebc     DE EE 09 F6 | 	mov	local03, result1 wz
02ec0     D4 FF 9F 5D |  if_ne	jmp	#LR__0196
02ec4                 | LR__0197
02ec4     00 F6 05 F6 | 	mov	local07, #0
02ec8     00 E0 05 F6 | 	mov	arg01, #0
02ecc     20 F7 BF FD | 	call	#__system____topofstack
02ed0     DE F8 01 F6 | 	mov	local08, result1
02ed4     FB E0 01 F6 | 	mov	arg01, local07
02ed8     FC E2 01 F6 | 	mov	arg02, local08
02edc     A0 00 B0 FD | 	call	#__system___gc_markhub
02ee0     2C 01 B0 FD | 	call	#__system___gc_markcog
02ee4     F6 E0 01 F6 | 	mov	arg01, local02
02ee8     90 F9 BF FD | 	call	#__system___gc_nextBlockPtr
02eec     DE FA 09 F6 | 	mov	local09, result1 wz
02ef0     10 00 90 5D |  if_ne	jmp	#LR__0198
02ef4     18 00 00 FF 
02ef8     B5 E0 05 F6 | 	mov	arg01, ##@LR__0211
02efc     94 FB BF FD | 	call	#__system___gc_errmsg
02f00     70 00 90 FD | 	jmp	#LR__0204
02f04                 | LR__0198
02f04                 | LR__0199
02f04     FD EE 01 F6 | 	mov	local03, local09
02f08     F7 E0 01 F6 | 	mov	arg01, local03
02f0c     6C F9 BF FD | 	call	#__system___gc_nextBlockPtr
02f10     DE FA 01 F6 | 	mov	local09, result1
02f14     F7 FC 01 F6 | 	mov	local10, local03
02f18     02 FC 05 F1 | 	add	local10, #2
02f1c     FE FE E1 FA | 	rdword	local11, local10
02f20     20 FE CD F7 | 	test	local11, #32 wz
02f24     3C 00 90 5D |  if_ne	jmp	#LR__0202
02f28     FF 00 02 F6 | 	mov	local12, local11
02f2c     10 00 0E F5 | 	and	local12, #16 wz
02f30     30 00 90 5D |  if_ne	jmp	#LR__0202
02f34     FF F6 01 F6 | 	mov	local07, local11
02f38     0F F6 05 F5 | 	and	local07, #15
02f3c     FB FE 01 F6 | 	mov	local11, local07
02f40     F8 FE 09 F2 | 	cmp	local11, local04 wz
02f44     08 00 90 AD |  if_e	jmp	#LR__0200
02f48     0E FE 0D F2 | 	cmp	local11, #14 wz
02f4c     14 00 90 5D |  if_ne	jmp	#LR__0201
02f50                 | LR__0200
02f50     F7 F6 01 F6 | 	mov	local07, local03
02f54     FB E0 01 F6 | 	mov	arg01, local07
02f58     E4 FC BF FD | 	call	#__system___gc_dofree
02f5c     DE 00 02 F6 | 	mov	local12, result1
02f60     00 FB 01 F6 | 	mov	local09, local12
02f64                 | LR__0201
02f64                 | LR__0202
02f64     00 FA 0D F2 | 	cmp	local09, #0 wz
02f68     08 00 90 AD |  if_e	jmp	#LR__0203
02f6c     F5 FA 59 F2 | 	cmps	local09, local01 wcz
02f70     90 FF 9F CD |  if_b	jmp	#LR__0199
02f74                 | LR__0203
02f74                 | LR__0204
02f74     A4 F0 03 F6 | 	mov	ptra, fp
02f78     B4 00 A0 FD | 	call	#popregs_
02f7c                 | __system___gc_docollect_ret
02f7c     2D 00 64 FD | 	ret
02f80                 | 
02f80                 | __system___gc_markhub
02f80     0A 44 05 F6 | 	mov	COUNT_, #10
02f84     A5 00 A0 FD | 	call	#pushregs_
02f88     F0 EA 01 F6 | 	mov	local01, arg01
02f8c     F1 EC 01 F6 | 	mov	local02, arg02
02f90     40 F8 BF FD | 	call	#__system___gc_ptrs
02f94     DE EE 01 F6 | 	mov	local03, result1
02f98     DF F0 01 F6 | 	mov	local04, result2
02f9c                 | LR__0205
02f9c     F6 EA 59 F2 | 	cmps	local01, local02 wcz
02fa0     60 00 90 3D |  if_ae	jmp	#LR__0206
02fa4     F5 E4 01 FB | 	rdlong	arg03, local01
02fa8     04 EA 05 F1 | 	add	local01, #4
02fac     F7 E0 01 F6 | 	mov	arg01, local03
02fb0     F8 E2 01 F6 | 	mov	arg02, local04
02fb4     04 FC BF FD | 	call	#__system___gc_isvalidptr
02fb8     DE F2 09 F6 | 	mov	local05, result1 wz
02fbc     DC FF 9F AD |  if_e	jmp	#LR__0205
02fc0     F9 E0 01 F6 | 	mov	arg01, local05
02fc4     00 F4 05 F6 | 	mov	local06, #0
02fc8     02 E0 05 F1 | 	add	arg01, #2
02fcc     F0 F6 E1 FA | 	rdword	local07, arg01
02fd0     36 00 00 FF 
02fd4     8F F6 0D F2 | 	cmp	local07, ##27791 wz
02fd8     01 F4 65 A6 |  if_e	neg	local06, #1
02fdc     FA BC 01 F6 | 	mov	result1, local06
02fe0     DE F8 09 F6 | 	mov	local08, result1 wz
02fe4     B4 FF 9F 5D |  if_ne	jmp	#LR__0205
02fe8     F9 FA 01 F6 | 	mov	local09, local05
02fec     02 FA 05 F1 | 	add	local09, #2
02ff0     FD FC E1 FA | 	rdword	local10, local09
02ff4     0F FC 25 F5 | 	andn	local10, #15
02ff8     2E FC 45 F5 | 	or	local10, #46
02ffc     FD FC 51 FC | 	wrword	local10, local09
03000     98 FF 9F FD | 	jmp	#LR__0205
03004                 | LR__0206
03004     A4 F0 03 F6 | 	mov	ptra, fp
03008     B4 00 A0 FD | 	call	#popregs_
0300c                 | __system___gc_markhub_ret
0300c     2D 00 64 FD | 	ret
03010                 | 
03010                 | __system___gc_markcog
03010     06 44 05 F6 | 	mov	COUNT_, #6
03014     A5 00 A0 FD | 	call	#pushregs_
03018     B8 F7 BF FD | 	call	#__system___gc_ptrs
0301c     DE EA 01 F6 | 	mov	local01, result1
03020     DF EC 01 F6 | 	mov	local02, result2
03024     00 EE 05 F6 | 	mov	local03, #0
03028                 | LR__0207
03028     F0 F1 05 F6 | 	mov	local04, #496
0302c     F7 F0 81 F1 | 	sub	local04, local03
03030     F0 F1 05 F1 | 	add	local04, #496
03034                 | 	'.live	local04
03034     00 F0 95 F9 | 	alts	local04, #0
03038     F8 F2 01 F6 | 	mov	local05, local04
0303c     F6 E2 01 F6 | 	mov	arg02, local02
03040     F5 E0 01 F6 | 	mov	arg01, local01
03044     F9 E4 01 F6 | 	mov	arg03, local05
03048     70 FB BF FD | 	call	#__system___gc_isvalidptr
0304c     DE F2 09 F6 | 	mov	local05, result1 wz
03050     10 00 90 AD |  if_e	jmp	#LR__0208
03054     02 F2 05 F1 | 	add	local05, #2
03058     F9 F4 E1 FA | 	rdword	local06, local05
0305c     20 F4 45 F5 | 	or	local06, #32
03060     F9 F4 51 FC | 	wrword	local06, local05
03064                 | LR__0208
03064     01 EE 05 F1 | 	add	local03, #1
03068     F0 EF 5D F2 | 	cmps	local03, #496 wcz
0306c     B8 FF 9F CD |  if_b	jmp	#LR__0207
03070     A4 F0 03 F6 | 	mov	ptra, fp
03074     B4 00 A0 FD | 	call	#popregs_
03078                 | __system___gc_markcog_ret
03078     2D 00 64 FD | 	ret
0307c                 | 
0307c                 | LR__0209
0307c     20 21 21 21 
03080     20 63 6F 72 
03084     72 75 70 74 
03088     65 64 20 68 
0308c     65 61 70 3F 
03090     3F 3F 20 21 
03094     21 21 20    | 	byte	" !!! corrupted heap??? !!! "
03097     00          | 	byte	0
03098                 | LR__0210
03098     20 21 21 21 
0309c     20 6F 75 74 
030a0     20 6F 66 20 
030a4     68 65 61 70 
030a8     20 6D 65 6D 
030ac     6F 72 79 20 
030b0     21 21 21 20 | 	byte	" !!! out of heap memory !!! "
030b4     00          | 	byte	0
030b5                 | LR__0211
030b5     20 21 21 21 
030b9     20 63 6F 72 
030bd     72 75 70 74 
030c1     65 64 20 68 
030c5     65 61 70 20 
030c9     21 21 21 20 | 	byte	" !!! corrupted heap !!! "
030cd     00          | 	byte	0
030ce     00 00       | 	alignl
030d0                 | _hng025_dat_
030d0     00 00 00 00 
030d4     00 00 00 00 
030d8     00 00 00 00 
030dc     00 00 00 00 
030e0     00 00 00    | vga_font       file "vgafont.def"
030e3     7E 81 A5 81 
030e7     81 BD 99 81 
030eb     81 7E 00 00 
030ef     00 00 00 00 | 	byte	$7e, $81, $a5, $81, $81, $bd, $99, $81, $81, $7e, $00, $00, $00, $00, $00, $00
030f3     7E FF DB FF 
030f7     FF C3 E7 FF 
030fb     FF 7E 00 00 
030ff     00 00 00 00 | 	byte	$7e, $ff, $db, $ff, $ff, $c3, $e7, $ff, $ff, $7e, $00, $00, $00, $00, $00, $00
03103     00 36 7F 7F 
03107     7F 7F 3E 1C 
0310b     08 00 00 00 
0310f     00 00 00 00 | 	byte	$00, $36, $7f, $7f, $7f, $7f, $3e, $1c, $08, $00, $00, $00, $00, $00, $00, $00
03113     00 08 1C 3E 
03117     7F 3E 1C 08 
0311b     00 00 00 00 
0311f     00 00 00 00 | 	byte	$00, $08, $1c, $3e, $7f, $3e, $1c, $08, $00, $00, $00, $00, $00, $00, $00, $00
03123     18 3C 3C E7 
03127     E7 E7 18 18 
0312b     3C 00 00 00 
0312f     00 00 00 00 | 	byte	$18, $3c, $3c, $e7, $e7, $e7, $18, $18, $3c, $00, $00, $00, $00, $00, $00, $00
03133     18 3C 7E FF 
03137     FF 7E 18 18 
0313b     3C 00 00 00 
0313f     00 00 00 00 | 	byte	$18, $3c, $7e, $ff, $ff, $7e, $18, $18, $3c, $00, $00, $00, $00, $00, $00, $00
03143     00 00 00 18 
03147     3C 3C 18 00 
0314b     00 00 00 00 
0314f     00 FF FF FF | 	byte	$00, $00, $00, $18, $3c, $3c, $18, $00, $00, $00, $00, $00, $00, $ff, $ff, $ff
03153     FF FF FF E7 
03157     C3 C3 E7 FF 
0315b     FF FF FF FF 
0315f     FF 00 00 00 | 	byte	$ff, $ff, $ff, $e7, $c3, $c3, $e7, $ff, $ff, $ff, $ff, $ff, $ff, $00, $00, $00
03163     00 00 3C 66 
03167     42 42 66 3C 
0316b     00 00 00 00 
0316f     00 FF FF FF | 	byte	$00, $00, $3c, $66, $42, $42, $66, $3c, $00, $00, $00, $00, $00, $ff, $ff, $ff
03173     FF FF C3 99 
03177     BD BD 99 C3 
0317b     FF FF FF FF 
0317f     FF 00 00 00 | 	byte	$ff, $ff, $c3, $99, $bd, $bd, $99, $c3, $ff, $ff, $ff, $ff, $ff, $00, $00, $00
03183     78 70 58 4C 
03187     1E 33 33 33 
0318b     33 1E 00 00 
0318f     00 00 00 00 | 	byte	$78, $70, $58, $4c, $1e, $33, $33, $33, $33, $1e, $00, $00, $00, $00, $00, $00
03193     3C 66 66 66 
03197     66 3C 18 7E 
0319b     18 18 00 00 
0319f     00 00 00 00 | 	byte	$3c, $66, $66, $66, $66, $3c, $18, $7e, $18, $18, $00, $00, $00, $00, $00, $00
031a3     FC CC FC 0C 
031a7     0C 0C 0C 0E 
031ab     0F 07 00 00 
031af     00 00 00 00 | 	byte	$fc, $cc, $fc, $0c, $0c, $0c, $0c, $0e, $0f, $07, $00, $00, $00, $00, $00, $00
031b3     FE C6 FE C6 
031b7     C6 C6 C6 E6 
031bb     E7 67 03 00 
031bf     00 00 00 00 | 	byte	$fe, $c6, $fe, $c6, $c6, $c6, $c6, $e6, $e7, $67, $03, $00, $00, $00, $00, $00
031c3     18 18 DB 3C 
031c7     E7 3C DB 18 
031cb     18 00 00 00 
031cf     00 00 00 01 | 	byte	$18, $18, $db, $3c, $e7, $3c, $db, $18, $18, $00, $00, $00, $00, $00, $00, $01
031d3     03 07 0F 1F 
031d7     7F 1F 0F 07 
031db     03 01 00 00 
031df     00 00 00 40 | 	byte	$03, $07, $0f, $1f, $7f, $1f, $0f, $07, $03, $01, $00, $00, $00, $00, $00, $40
031e3     60 70 78 7C 
031e7     7F 7C 78 70 
031eb     60 40 00 00 
031ef     00 00 00 00 | 	byte	$60, $70, $78, $7c, $7f, $7c, $78, $70, $60, $40, $00, $00, $00, $00, $00, $00
031f3     18 3C 7E 18 
031f7     18 18 7E 3C 
031fb     18 00 00 00 
031ff     00 00 00 00 | 	byte	$18, $3c, $7e, $18, $18, $18, $7e, $3c, $18, $00, $00, $00, $00, $00, $00, $00
03203     66 66 66 66 
03207     66 66 66    | 	byte	$66[7]
0320a     00 66 66 00 
0320e     00 00 00 00 
03212     00 FE DB DB 
03216     DB DE D8 D8 | 	byte	$00, $66, $66, $00, $00, $00, $00, $00, $00, $fe, $db, $db, $db, $de, $d8, $d8
0321a     D8 D8 D8 00 
0321e     00 00 00 3E 
03222     63 06 1C 36 
03226     63 63 36 1C | 	byte	$d8, $d8, $d8, $00, $00, $00, $00, $3e, $63, $06, $1c, $36, $63, $63, $36, $1c
0322a     30 63 3E 00 
0322e     00 00 00 00 
03232     00 00 00 00 
03236     00 00 00 7F | 	byte	$30, $63, $3e, $00, $00, $00, $00, $00, $00, $00, $00, $00, $00, $00, $00, $7f
0323a     7F 7F 7F 00 
0323e     00 00 00 00 
03242     00 18 3C 7E 
03246     18 18 18 7E | 	byte	$7f, $7f, $7f, $00, $00, $00, $00, $00, $00, $18, $3c, $7e, $18, $18, $18, $7e
0324a     3C 18 7E 00 
0324e     00 00 00 00 
03252     00 18 3C 7E 
03256     18 18 18 18 | 	byte	$3c, $18, $7e, $00, $00, $00, $00, $00, $00, $18, $3c, $7e, $18, $18, $18, $18
0325a     18 18 18 00 
0325e     00 00 00 00 
03262     00 18 18 18 
03266     18 18 18 18 | 	byte	$18, $18, $18, $00, $00, $00, $00, $00, $00, $18, $18, $18, $18, $18, $18, $18
0326a     7E 3C 18 00 
0326e     00 00 00 00 
03272     00 00 00 18 
03276     30 7F 30 18 | 	byte	$7e, $3c, $18, $00, $00, $00, $00, $00, $00, $00, $00, $18, $30, $7f, $30, $18
0327a     00 00 00 00 
0327e     00 00 00 00 
03282     00 00 00    | 	byte	$00[11]
03285     0C 06 7F 06 
03289     0C 00 00 00 
0328d     00 00 00 00 
03291     00 00 00 00 | 	byte	$0c, $06, $7f, $06, $0c, $00, $00, $00, $00, $00, $00, $00, $00, $00, $00, $00
03295     00 03 03 03 
03299     7F 00 00 00 
0329d     00 00 00 00 
032a1     00 00 00 00 | 	byte	$00, $03, $03, $03, $7f, $00, $00, $00, $00, $00, $00, $00, $00, $00, $00, $00
032a5     14 36 7F 36 
032a9     14 00 00 00 
032ad     00 00 00 00 
032b1     00 00 00 08 | 	byte	$14, $36, $7f, $36, $14, $00, $00, $00, $00, $00, $00, $00, $00, $00, $00, $08
032b5     1C 1C 3E 3E 
032b9     7F 7F 00 00 
032bd     00 00 00 00 
032c1     00 00 00 7F | 	byte	$1c, $1c, $3e, $3e, $7f, $7f, $00, $00, $00, $00, $00, $00, $00, $00, $00, $7f
032c5     7F 3E 3E 1C 
032c9     1C 08 00 00 
032cd     00 00 00 00 
032d1     00 00 00 00 | 	byte	$7f, $3e, $3e, $1c, $1c, $08, $00, $00, $00, $00, $00, $00, $00, $00, $00, $00
032d5     00 00 00 00 
032d9     00 00 00 00 
032dd     00 00 00 00 
032e1     00 00       | 	byte	$00[14]
032e3     18 3C 3C 3C 
032e7     18 18 18 00 
032eb     18 18 00 00 
032ef     00 00 66 66 | 	byte	$18, $3c, $3c, $3c, $18, $18, $18, $00, $18, $18, $00, $00, $00, $00, $66, $66
032f3     66 24 00 00 
032f7     00 00 00 00 
032fb     00 00 00 00 
032ff     00 00 00 00 | 	byte	$66, $24, $00, $00, $00, $00, $00, $00, $00, $00, $00, $00, $00, $00, $00, $00
03303     00 36 36 7F 
03307     36 36 36 7F 
0330b     36 36 00 00 
0330f     00 00 18 18 | 	byte	$00, $36, $36, $7f, $36, $36, $36, $7f, $36, $36, $00, $00, $00, $00, $18, $18
03313     3E 63 43 03 
03317     3E 60 60 61 
0331b     63 3E 18 18 
0331f     00 00 00 00 | 	byte	$3e, $63, $43, $03, $3e, $60, $60, $61, $63, $3e, $18, $18, $00, $00, $00, $00
03323     00 00 43 63 
03327     30 18 0C 06 
0332b     63 61 00 00 
0332f     00 00 00 00 | 	byte	$00, $00, $43, $63, $30, $18, $0c, $06, $63, $61, $00, $00, $00, $00, $00, $00
03333     1C 36 36 1C 
03337     6E 3B 33 33 
0333b     33 6E 00 00 
0333f     00 00 00 00 | 	byte	$1c, $36, $36, $1c, $6e, $3b, $33, $33, $33, $6e, $00, $00, $00, $00, $00, $00
03343     0C 0C 0C 06 
03347     00 00 00 00 
0334b     00 00 00 00 
0334f     00 00 00 00 | 	byte	$0c, $0c, $0c, $06, $00, $00, $00, $00, $00, $00, $00, $00, $00, $00, $00, $00
03353     30 18 0C 0C 
03357     0C 0C 0C 0C 
0335b     18 30 00 00 
0335f     00 00 00 00 | 	byte	$30, $18, $0c, $0c, $0c, $0c, $0c, $0c, $18, $30, $00, $00, $00, $00, $00, $00
03363     0C 18 30 30 
03367     30 30 30 30 
0336b     18 0C 00 00 
0336f     00 00 00 00 | 	byte	$0c, $18, $30, $30, $30, $30, $30, $30, $18, $0c, $00, $00, $00, $00, $00, $00
03373     00 00 00 66 
03377     3C FF 3C 66 
0337b     00 00 00 00 
0337f     00 00 00 00 | 	byte	$00, $00, $00, $66, $3c, $ff, $3c, $66, $00, $00, $00, $00, $00, $00, $00, $00
03383     00 00 00 18 
03387     18 7E 18 18 
0338b     00 00 00 00 
0338f     00 00 00 00 | 	byte	$00, $00, $00, $18, $18, $7e, $18, $18, $00, $00, $00, $00, $00, $00, $00, $00
03393     00 00 00 00 
03397     00 00 00 00 | 	byte	$00[8]
0339b     18 18 18 0C 
0339f     00 00 00 00 
033a3     00 00 00 00 
033a7     00 7F 00 00 | 	byte	$18, $18, $18, $0c, $00, $00, $00, $00, $00, $00, $00, $00, $00, $7f, $00, $00
033ab     00 00 00 00 
033af     00 00 00 00 
033b3     00 00 00 00 
033b7     00 00 00 00 | 	byte	$00[16]
033bb     18 18 00 00 
033bf     00 00 00 00 
033c3     00 00 40 60 
033c7     30 18 0C 06 | 	byte	$18, $18, $00, $00, $00, $00, $00, $00, $00, $00, $40, $60, $30, $18, $0c, $06
033cb     03 01 00 00 
033cf     00 00 00 00 
033d3     1C 36 63 63 
033d7     6B 6B 63 63 | 	byte	$03, $01, $00, $00, $00, $00, $00, $00, $1c, $36, $63, $63, $6b, $6b, $63, $63
033db     36 1C 00 00 
033df     00 00 00 00 
033e3     18 1C 1E 18 
033e7     18 18 18 18 | 	byte	$36, $1c, $00, $00, $00, $00, $00, $00, $18, $1c, $1e, $18, $18, $18, $18, $18
033eb     18 7E 00 00 
033ef     00 00 00 00 
033f3     3E 63 60 30 
033f7     18 0C 06 03 | 	byte	$18, $7e, $00, $00, $00, $00, $00, $00, $3e, $63, $60, $30, $18, $0c, $06, $03
033fb     63 7F 00 00 
033ff     00 00 00 00 
03403     3E 63 60 60 
03407     3C 60 60 60 | 	byte	$63, $7f, $00, $00, $00, $00, $00, $00, $3e, $63, $60, $60, $3c, $60, $60, $60
0340b     63 3E 00 00 
0340f     00 00 00 00 
03413     30 38 3C 36 
03417     33 7F 30 30 | 	byte	$63, $3e, $00, $00, $00, $00, $00, $00, $30, $38, $3c, $36, $33, $7f, $30, $30
0341b     30 78 00 00 
0341f     00 00 00 00 
03423     7F 03 03 03 
03427     3F 60 60 60 | 	byte	$30, $78, $00, $00, $00, $00, $00, $00, $7f, $03, $03, $03, $3f, $60, $60, $60
0342b     63 3E 00 00 
0342f     00 00 00 00 
03433     1C 06 03 03 
03437     3F 63 63 63 | 	byte	$63, $3e, $00, $00, $00, $00, $00, $00, $1c, $06, $03, $03, $3f, $63, $63, $63
0343b     63 3E 00 00 
0343f     00 00 00 00 
03443     7F 63 60 60 
03447     30 18 0C 0C | 	byte	$63, $3e, $00, $00, $00, $00, $00, $00, $7f, $63, $60, $60, $30, $18, $0c, $0c
0344b     0C 0C 00 00 
0344f     00 00 00 00 
03453     3E 63 63 63 
03457     3E 63 63 63 | 	byte	$0c, $0c, $00, $00, $00, $00, $00, $00, $3e, $63, $63, $63, $3e, $63, $63, $63
0345b     63 3E 00 00 
0345f     00 00 00 00 
03463     3E 63 63 63 
03467     7E 60 60 60 | 	byte	$63, $3e, $00, $00, $00, $00, $00, $00, $3e, $63, $63, $63, $7e, $60, $60, $60
0346b     30 1E 00 00 
0346f     00 00 00 00 
03473     00 00 00 18 
03477     18 00 00 00 | 	byte	$30, $1e, $00, $00, $00, $00, $00, $00, $00, $00, $00, $18, $18, $00, $00, $00
0347b     18 18 00 00 
0347f     00 00 00 00 
03483     00 00 00 18 
03487     18 00 00 00 | 	byte	$18, $18, $00, $00, $00, $00, $00, $00, $00, $00, $00, $18, $18, $00, $00, $00
0348b     18 18 0C 00 
0348f     00 00 00 00 
03493     00 60 30 18 
03497     0C 06 0C 18 | 	byte	$18, $18, $0c, $00, $00, $00, $00, $00, $00, $60, $30, $18, $0c, $06, $0c, $18
0349b     30 60 00 00 
0349f     00 00 00 00 
034a3     00 00 00 7E 
034a7     00 00 7E 00 | 	byte	$30, $60, $00, $00, $00, $00, $00, $00, $00, $00, $00, $7e, $00, $00, $7e, $00
034ab     00 00 00 00 
034af     00 00 00 00 
034b3     00          | 	byte	$00[9]
034b4     06 0C 18 30 
034b8     60 30 18 0C 
034bc     06 00 00 00 
034c0     00 00 00 3E | 	byte	$06, $0c, $18, $30, $60, $30, $18, $0c, $06, $00, $00, $00, $00, $00, $00, $3e
034c4     63 63 30 18 
034c8     18 18 00 18 
034cc     18 00 00 00 
034d0     00 00 00 00 | 	byte	$63, $63, $30, $18, $18, $18, $00, $18, $18, $00, $00, $00, $00, $00, $00, $00
034d4     3E 63 63 7B 
034d8     7B 7B 3B 03 
034dc     3E 00 00 00 
034e0     00 00 00 08 | 	byte	$3e, $63, $63, $7b, $7b, $7b, $3b, $03, $3e, $00, $00, $00, $00, $00, $00, $08
034e4     1C 36 63 63 
034e8     7F 63 63 63 
034ec     63 00 00 00 
034f0     00 00 00 3F | 	byte	$1c, $36, $63, $63, $7f, $63, $63, $63, $63, $00, $00, $00, $00, $00, $00, $3f
034f4     66 66 66 3E 
034f8     66 66 66 66 
034fc     3F 00 00 00 
03500     00 00 00 3C | 	byte	$66, $66, $66, $3e, $66, $66, $66, $66, $3f, $00, $00, $00, $00, $00, $00, $3c
03504     66 43 03 03 
03508     03 03 43 66 
0350c     3C 00 00 00 
03510     00 00 00 1F | 	byte	$66, $43, $03, $03, $03, $03, $43, $66, $3c, $00, $00, $00, $00, $00, $00, $1f
03514     36 66 66 66 
03518     66 66 66 36 
0351c     1F 00 00 00 
03520     00 00 00 7F | 	byte	$36, $66, $66, $66, $66, $66, $66, $36, $1f, $00, $00, $00, $00, $00, $00, $7f
03524     66 46 16 1E 
03528     16 06 46 66 
0352c     7F 00 00 00 
03530     00 00 00 7F | 	byte	$66, $46, $16, $1e, $16, $06, $46, $66, $7f, $00, $00, $00, $00, $00, $00, $7f
03534     66 46 16 1E 
03538     16 06 06 06 
0353c     0F 00 00 00 
03540     00 00 00 3C | 	byte	$66, $46, $16, $1e, $16, $06, $06, $06, $0f, $00, $00, $00, $00, $00, $00, $3c
03544     66 43 03 03 
03548     7B 63 63 66 
0354c     5C 00 00 00 
03550     00 00 00 63 | 	byte	$66, $43, $03, $03, $7b, $63, $63, $66, $5c, $00, $00, $00, $00, $00, $00, $63
03554     63 63 63 7F 
03558     63 63 63 63 
0355c     63 00 00 00 
03560     00 00 00 3C | 	byte	$63, $63, $63, $7f, $63, $63, $63, $63, $63, $00, $00, $00, $00, $00, $00, $3c
03564     18 18 18 18 
03568     18 18 18 18 | 	byte	$18[8]
0356c     3C 00 00 00 
03570     00 00 00 78 
03574     30 30 30 30 
03578     30 33 33 33 | 	byte	$3c, $00, $00, $00, $00, $00, $00, $78, $30, $30, $30, $30, $30, $33, $33, $33
0357c     1E 00 00 00 
03580     00 00 00 67 
03584     66 66 36 1E 
03588     1E 36 66 66 | 	byte	$1e, $00, $00, $00, $00, $00, $00, $67, $66, $66, $36, $1e, $1e, $36, $66, $66
0358c     67 00 00 00 
03590     00 00 00 0F 
03594     06 06 06 06 
03598     06 06 46 66 | 	byte	$67, $00, $00, $00, $00, $00, $00, $0f, $06, $06, $06, $06, $06, $06, $46, $66
0359c     7F 00 00 00 
035a0     00 00 00 63 
035a4     77 7F 7F 6B 
035a8     63 63 63 63 | 	byte	$7f, $00, $00, $00, $00, $00, $00, $63, $77, $7f, $7f, $6b, $63, $63, $63, $63
035ac     63 00 00 00 
035b0     00 00 00 63 
035b4     67 6F 7F 7B 
035b8     73 63 63 63 | 	byte	$63, $00, $00, $00, $00, $00, $00, $63, $67, $6f, $7f, $7b, $73, $63, $63, $63
035bc     63 00 00 00 
035c0     00 00 00 3E 
035c4     63 63 63 63 
035c8     63 63 63 63 | 	byte	$63, $00, $00, $00, $00, $00, $00, $3e, $63, $63, $63, $63, $63, $63, $63, $63
035cc     3E 00 00 00 
035d0     00 00 00 3F 
035d4     66 66 66 3E 
035d8     06 06 06 06 | 	byte	$3e, $00, $00, $00, $00, $00, $00, $3f, $66, $66, $66, $3e, $06, $06, $06, $06
035dc     0F 00 00 00 
035e0     00 00 00 3E 
035e4     63 63 63 63 
035e8     63 63 6B 7B | 	byte	$0f, $00, $00, $00, $00, $00, $00, $3e, $63, $63, $63, $63, $63, $63, $6b, $7b
035ec     3E 30 70 00 
035f0     00 00 00 3F 
035f4     66 66 66 3E 
035f8     36 66 66 66 | 	byte	$3e, $30, $70, $00, $00, $00, $00, $3f, $66, $66, $66, $3e, $36, $66, $66, $66
035fc     67 00 00 00 
03600     00 00 00 3E 
03604     63 63 06 1C 
03608     30 60 63 63 | 	byte	$67, $00, $00, $00, $00, $00, $00, $3e, $63, $63, $06, $1c, $30, $60, $63, $63
0360c     3E 00 00 00 
03610     00 00 00 7E 
03614     7E 5A 18 18 
03618     18 18 18 18 | 	byte	$3e, $00, $00, $00, $00, $00, $00, $7e, $7e, $5a, $18, $18, $18, $18, $18, $18
0361c     3C 00 00 00 
03620     00 00 00 63 
03624     63 63 63 63 
03628     63 63 63 63 | 	byte	$3c, $00, $00, $00, $00, $00, $00, $63, $63, $63, $63, $63, $63, $63, $63, $63
0362c     3E 00 00 00 
03630     00 00 00 63 
03634     63 63 63 63 
03638     63 63 36 1C | 	byte	$3e, $00, $00, $00, $00, $00, $00, $63, $63, $63, $63, $63, $63, $63, $36, $1c
0363c     08 00 00 00 
03640     00 00 00 63 
03644     63 63 63 6B 
03648     6B 6B 7F 77 | 	byte	$08, $00, $00, $00, $00, $00, $00, $63, $63, $63, $63, $6b, $6b, $6b, $7f, $77
0364c     36 00 00 00 
03650     00 00 00 63 
03654     63 36 3E 1C 
03658     1C 3E 36 63 | 	byte	$36, $00, $00, $00, $00, $00, $00, $63, $63, $36, $3e, $1c, $1c, $3e, $36, $63
0365c     63 00 00 00 
03660     00 00 00 66 
03664     66 66 66 3C 
03668     18 18 18 18 | 	byte	$63, $00, $00, $00, $00, $00, $00, $66, $66, $66, $66, $3c, $18, $18, $18, $18
0366c     3C 00 00 00 
03670     00 00 00 7F 
03674     63 61 30 18 
03678     0C 06 43 63 | 	byte	$3c, $00, $00, $00, $00, $00, $00, $7f, $63, $61, $30, $18, $0c, $06, $43, $63
0367c     7F 00 00 00 
03680     00 00 00 3C 
03684     0C 0C 0C 0C 
03688     0C 0C 0C 0C | 	byte	$7f, $00, $00, $00, $00, $00, $00, $3c, $0c, $0c, $0c, $0c, $0c, $0c, $0c, $0c
0368c     3C 00 00 00 
03690     00 00 00 00 
03694     01 03 07 0E 
03698     1C 38 70 60 | 	byte	$3c, $00, $00, $00, $00, $00, $00, $00, $01, $03, $07, $0e, $1c, $38, $70, $60
0369c     40 00 00 00 
036a0     00 00 00 3C 
036a4     30 30 30 30 
036a8     30 30 30 30 | 	byte	$40, $00, $00, $00, $00, $00, $00, $3c, $30, $30, $30, $30, $30, $30, $30, $30
036ac     3C 00 00 00 
036b0     1C 36 00 00 
036b4     00 00 00 00 
036b8     00 00 00 00 | 	byte	$3c, $00, $00, $00, $1c, $36, $00, $00, $00, $00, $00, $00, $00, $00, $00, $00
036bc     00 00 00 00 
036c0     00 00 00 00 
036c4     00 00 00 00 
036c8     00 00 00 00 
036cc     00          | 	byte	$00[17]
036cd     FF 00 00 0C 
036d1     18 00 00 00 
036d5     00 00 00 00 
036d9     00 00 00 00 | 	byte	$ff, $00, $00, $0c, $18, $00, $00, $00, $00, $00, $00, $00, $00, $00, $00, $00
036dd     00 00 00 00 
036e1     00 00 00 00 
036e5     00          | 	byte	$00[9]
036e6     1E 30 3E 33 
036ea     33 33 6E 00 
036ee     00 00 00 00 
036f2     00 07 06 06 | 	byte	$1e, $30, $3e, $33, $33, $33, $6e, $00, $00, $00, $00, $00, $00, $07, $06, $06
036f6     1E 36 66 66 
036fa     66 66 3E 00 
036fe     00 00 00 00 
03702     00 00 00 00 | 	byte	$1e, $36, $66, $66, $66, $66, $3e, $00, $00, $00, $00, $00, $00, $00, $00, $00
03706     3E 63 03 03 
0370a     03 63 3E 00 
0370e     00 00 00 00 
03712     00 38 30 30 | 	byte	$3e, $63, $03, $03, $03, $63, $3e, $00, $00, $00, $00, $00, $00, $38, $30, $30
03716     3C 36 33 33 
0371a     33 33 6E 00 
0371e     00 00 00 00 
03722     00 00 00 00 | 	byte	$3c, $36, $33, $33, $33, $33, $6e, $00, $00, $00, $00, $00, $00, $00, $00, $00
03726     3E 63 7F 03 
0372a     03 63 3E 00 
0372e     00 00 00 00 
03732     00 38 6C 4C | 	byte	$3e, $63, $7f, $03, $03, $63, $3e, $00, $00, $00, $00, $00, $00, $38, $6c, $4c
03736     0C 1E 0C 0C 
0373a     0C 0C 1E 00 
0373e     00 00 00 00 
03742     00 00 00 00 | 	byte	$0c, $1e, $0c, $0c, $0c, $0c, $1e, $00, $00, $00, $00, $00, $00, $00, $00, $00
03746     6E 33 33 33 
0374a     33 33 3E 30 
0374e     33 1E 00 00 
03752     00 07 06 06 | 	byte	$6e, $33, $33, $33, $33, $33, $3e, $30, $33, $1e, $00, $00, $00, $07, $06, $06
03756     36 6E 66 66 
0375a     66 66 67 00 
0375e     00 00 00 00 
03762     00 18 18 00 | 	byte	$36, $6e, $66, $66, $66, $66, $67, $00, $00, $00, $00, $00, $00, $18, $18, $00
03766     1C 18 18 18 
0376a     18 18 3C 00 
0376e     00 00 00 00 
03772     00 60 60 00 | 	byte	$1c, $18, $18, $18, $18, $18, $3c, $00, $00, $00, $00, $00, $00, $60, $60, $00
03776     70 60 60 60 
0377a     60 60 60 66 
0377e     66 3C 00 00 
03782     00 07 06 06 | 	byte	$70, $60, $60, $60, $60, $60, $60, $66, $66, $3c, $00, $00, $00, $07, $06, $06
03786     66 36 1E 1E 
0378a     36 66 67 00 
0378e     00 00 00 00 
03792     00 1C 18 18 | 	byte	$66, $36, $1e, $1e, $36, $66, $67, $00, $00, $00, $00, $00, $00, $1c, $18, $18
03796     18 18 18 18 
0379a     18 18       | 	byte	$18[6]
0379c     3C 00 00 00 
037a0     00 00 00 00 
037a4     00 00 37 7F 
037a8     6B 6B 6B 6B | 	byte	$3c, $00, $00, $00, $00, $00, $00, $00, $00, $00, $37, $7f, $6b, $6b, $6b, $6b
037ac     63 00 00 00 
037b0     00 00 00 00 
037b4     00 00 3B 66 
037b8     66 66 66 66 | 	byte	$63, $00, $00, $00, $00, $00, $00, $00, $00, $00, $3b, $66, $66, $66, $66, $66
037bc     66 00 00 00 
037c0     00 00 00 00 
037c4     00 00 3E 63 
037c8     63 63 63 63 | 	byte	$66, $00, $00, $00, $00, $00, $00, $00, $00, $00, $3e, $63, $63, $63, $63, $63
037cc     3E 00 00 00 
037d0     00 00 00 00 
037d4     00 00 3B 66 
037d8     66 66 66 66 | 	byte	$3e, $00, $00, $00, $00, $00, $00, $00, $00, $00, $3b, $66, $66, $66, $66, $66
037dc     3E 06 06 0F 
037e0     00 00 00 00 
037e4     00 00 6E 33 
037e8     33 33 33 33 | 	byte	$3e, $06, $06, $0f, $00, $00, $00, $00, $00, $00, $6e, $33, $33, $33, $33, $33
037ec     3E 30 30 78 
037f0     00 00 00 00 
037f4     00 00 3B 6E 
037f8     66 06 06 06 | 	byte	$3e, $30, $30, $78, $00, $00, $00, $00, $00, $00, $3b, $6e, $66, $06, $06, $06
037fc     0F 00 00 00 
03800     00 00 00 00 
03804     00 00 3E 63 
03808     06 1C 30 63 | 	byte	$0f, $00, $00, $00, $00, $00, $00, $00, $00, $00, $3e, $63, $06, $1c, $30, $63
0380c     3E 00 00 00 
03810     00 00 00 08 
03814     0C 0C 3F 0C 
03818     0C 0C 0C 6C | 	byte	$3e, $00, $00, $00, $00, $00, $00, $08, $0c, $0c, $3f, $0c, $0c, $0c, $0c, $6c
0381c     38 00 00 00 
03820     00 00 00 00 
03824     00 00 33 33 
03828     33 33 33 33 | 	byte	$38, $00, $00, $00, $00, $00, $00, $00, $00, $00, $33, $33, $33, $33, $33, $33
0382c     6E 00 00 00 
03830     00 00 00 00 
03834     00 00 63 63 
03838     63 63 63 36 | 	byte	$6e, $00, $00, $00, $00, $00, $00, $00, $00, $00, $63, $63, $63, $63, $63, $36
0383c     1C 00 00 00 
03840     00 00 00 00 
03844     00 00 63 63 
03848     6B 6B 6B 7F | 	byte	$1c, $00, $00, $00, $00, $00, $00, $00, $00, $00, $63, $63, $6b, $6b, $6b, $7f
0384c     36 00 00 00 
03850     00 00 00 00 
03854     00 00 63 36 
03858     1C 1C 1C 36 | 	byte	$36, $00, $00, $00, $00, $00, $00, $00, $00, $00, $63, $36, $1c, $1c, $1c, $36
0385c     63 00 00 00 
03860     00 00 00 00 
03864     00 00 63 63 
03868     63 63 63 63 | 	byte	$63, $00, $00, $00, $00, $00, $00, $00, $00, $00, $63, $63, $63, $63, $63, $63
0386c     7E 60 30 1F 
03870     00 00 00 00 
03874     00 00 7F 33 
03878     18 0C 06 63 | 	byte	$7e, $60, $30, $1f, $00, $00, $00, $00, $00, $00, $7f, $33, $18, $0c, $06, $63
0387c     7F 00 00 00 
03880     00 00 00 70 
03884     18 18 18 0E 
03888     18 18 18 18 | 	byte	$7f, $00, $00, $00, $00, $00, $00, $70, $18, $18, $18, $0e, $18, $18, $18, $18
0388c     70 00 00 00 
03890     00 00 00 18 
03894     18 18 18 18 
03898     18 18 18 18 | 	byte	$70, $00, $00, $00, $00, $00, $00, $18, $18, $18, $18, $18, $18, $18, $18, $18
0389c     18 00 00 00 
038a0     00 00 00 0E 
038a4     18 18 18 70 
038a8     18 18 18 18 | 	byte	$18, $00, $00, $00, $00, $00, $00, $0e, $18, $18, $18, $70, $18, $18, $18, $18
038ac     0E 00 00 00 
038b0     6E 3B 00 00 
038b4     00 00 00 00 
038b8     00 00 00 00 | 	byte	$0e, $00, $00, $00, $6e, $3b, $00, $00, $00, $00, $00, $00, $00, $00, $00, $00
038bc     00 00 00 00 
038c0     00 00 00 00 
038c4     00 00       | 	byte	$00[10]
038c6     08 1C 36 63 
038ca     63 63 7F 00 
038ce     00 00 00 00 
038d2     00 3C 66 43 | 	byte	$08, $1c, $36, $63, $63, $63, $7f, $00, $00, $00, $00, $00, $00, $3c, $66, $43
038d6     03 03 03 03 
038da     43 66 3C 18 
038de     30 1E 00 00 
038e2     00 00 33 00 | 	byte	$03, $03, $03, $03, $43, $66, $3c, $18, $30, $1e, $00, $00, $00, $00, $33, $00
038e6     33 33 33 33 
038ea     33 33       | 	byte	$33[6]
038ec     6E 00 00 00 
038f0     00 00 60 30 
038f4     18 00 3E 63 
038f8     7F 03 03 63 | 	byte	$6e, $00, $00, $00, $00, $00, $60, $30, $18, $00, $3e, $63, $7f, $03, $03, $63
038fc     3E 00 00 00 
03900     00 00 08 1C 
03904     36 00 1E 30 
03908     3E 33 33 33 | 	byte	$3e, $00, $00, $00, $00, $00, $08, $1c, $36, $00, $1e, $30, $3e, $33, $33, $33
0390c     6E 00 00 00 
03910     00 00 00 00 
03914     33 00 1E 30 
03918     3E 33 33 33 | 	byte	$6e, $00, $00, $00, $00, $00, $00, $00, $33, $00, $1e, $30, $3e, $33, $33, $33
0391c     6E 00 00 00 
03920     00 00 1C 36 
03924     1C 00 33 33 
03928     33 33 33 33 | 	byte	$6e, $00, $00, $00, $00, $00, $1c, $36, $1c, $00, $33, $33, $33, $33, $33, $33
0392c     6E 00 00 00 
03930     00 00 60 30 
03934     18 00 3E 63 
03938     03 03 03 63 | 	byte	$6e, $00, $00, $00, $00, $00, $60, $30, $18, $00, $3e, $63, $03, $03, $03, $63
0393c     3E 00 00 00 
03940     00 00 00 00 
03944     00 00 3E 63 
03948     03 03 03 63 | 	byte	$3e, $00, $00, $00, $00, $00, $00, $00, $00, $00, $3e, $63, $03, $03, $03, $63
0394c     3E 18 30 1E 
03950     00 00 00 1C 
03954     58 78 38 18 
03958     1C 1E 1A 18 | 	byte	$3e, $18, $30, $1e, $00, $00, $00, $1c, $58, $78, $38, $18, $1c, $1e, $1a, $18
0395c     3C 00 00 00 
03960     00 00 00 00 
03964     63 00 3E 63 
03968     7F 03 03 63 | 	byte	$3c, $00, $00, $00, $00, $00, $00, $00, $63, $00, $3e, $63, $7f, $03, $03, $63
0396c     3E 00 00 00 
03970     66 33 00 3E 
03974     63 63 63 63 
03978     63 63 63 63 | 	byte	$3e, $00, $00, $00, $66, $33, $00, $3e, $63, $63, $63, $63, $63, $63, $63, $63
0397c     3E 00 00 00 
03980     00 00 CC 66 
03984     33 00 3E 63 
03988     63 63 63 63 | 	byte	$3e, $00, $00, $00, $00, $00, $cc, $66, $33, $00, $3e, $63, $63, $63, $63, $63
0398c     3E 00 00 00 
03990     00 00 18 3C 
03994     66 00 1C 18 
03998     18 18 18 18 | 	byte	$3e, $00, $00, $00, $00, $00, $18, $3c, $66, $00, $1c, $18, $18, $18, $18, $18
0399c     3C 00 00 00 
039a0     30 18 00 7F 
039a4     63 61 30 18 
039a8     0C 06 43 63 | 	byte	$3c, $00, $00, $00, $30, $18, $00, $7f, $63, $61, $30, $18, $0c, $06, $43, $63
039ac     7F 00 00 00 
039b0     00 63 00 08 
039b4     1C 36 63 63 
039b8     7F 63 63 63 | 	byte	$7f, $00, $00, $00, $00, $63, $00, $08, $1c, $36, $63, $63, $7f, $63, $63, $63
039bc     63 00 00 00 
039c0     30 18 00 3C 
039c4     66 43 03 03 
039c8     03 03 43 66 | 	byte	$63, $00, $00, $00, $30, $18, $00, $3c, $66, $43, $03, $03, $03, $03, $43, $66
039cc     3C 00 00 00 
039d0     30 18 00 7F 
039d4     66 46 16 1E 
039d8     16 06 46 66 | 	byte	$3c, $00, $00, $00, $30, $18, $00, $7f, $66, $46, $16, $1e, $16, $06, $46, $66
039dc     7F 00 00 00 
039e0     0C 06 00 0F 
039e4     06 06 06 06 
039e8     06 06 46 66 | 	byte	$7f, $00, $00, $00, $0c, $06, $00, $0f, $06, $06, $06, $06, $06, $06, $46, $66
039ec     7F 00 00 00 
039f0     30 18 00 1C 
039f4     18 18 18 18 
039f8     18 18 18 18 | 	byte	$7f, $00, $00, $00, $30, $18, $00, $1c, $18, $18, $18, $18, $18, $18, $18, $18
039fc     3C 00 00 00 
03a00     00 00 08 1C 
03a04     36 00 3E 63 
03a08     63 63 63 63 | 	byte	$3c, $00, $00, $00, $00, $00, $08, $1c, $36, $00, $3e, $63, $63, $63, $63, $63
03a0c     3E 00 00 00 
03a10     00 00 00 00 
03a14     63 00 3E 63 
03a18     63 63 63 63 | 	byte	$3e, $00, $00, $00, $00, $00, $00, $00, $63, $00, $3e, $63, $63, $63, $63, $63
03a1c     3E 00 00 00 
03a20     00 00 00 6F 
03a24     46 26 06 06 
03a28     06 06 46 66 | 	byte	$3e, $00, $00, $00, $00, $00, $00, $6f, $46, $26, $06, $06, $06, $06, $46, $66
03a2c     7F 00 00 00 
03a30     00 00 00 6E 
03a34     4C 2C 0C 0C 
03a38     0C 0C 0C 0C | 	byte	$7f, $00, $00, $00, $00, $00, $00, $6e, $4c, $2c, $0c, $0c, $0c, $0c, $0c, $0c
03a3c     1E 00 00 00 
03a40     30 18 00 3E 
03a44     63 63 06 1C 
03a48     30 60 63 63 | 	byte	$1e, $00, $00, $00, $30, $18, $00, $3e, $63, $63, $06, $1c, $30, $60, $63, $63
03a4c     3E 00 00 00 
03a50     00 00 60 30 
03a54     18 00 3E 63 
03a58     06 1C 30 63 | 	byte	$3e, $00, $00, $00, $00, $00, $60, $30, $18, $00, $3e, $63, $06, $1c, $30, $63
03a5c     3E 00 00 00 
03a60     00 63 00 3E 
03a64     63 63 63 63 
03a68     63 63 63 63 | 	byte	$3e, $00, $00, $00, $00, $63, $00, $3e, $63, $63, $63, $63, $63, $63, $63, $63
03a6c     3E 00 00 00 
03a70     00 63 00 63 
03a74     63 63 63 63 
03a78     63 63 63 63 | 	byte	$3e, $00, $00, $00, $00, $63, $00, $63, $63, $63, $63, $63, $63, $63, $63, $63
03a7c     3E 00 00 00 
03a80     6C 38 00 7E 
03a84     7E 5A 18 18 
03a88     18 18 18 18 | 	byte	$3e, $00, $00, $00, $6c, $38, $00, $7e, $7e, $5a, $18, $18, $18, $18, $18, $18
03a8c     3C 00 00 00 
03a90     00 00 60 48 
03a94     2C 0C 3F 0C 
03a98     0C 0C 0C 6C | 	byte	$3c, $00, $00, $00, $00, $00, $60, $48, $2c, $0c, $3f, $0c, $0c, $0c, $0c, $6c
03a9c     38 00 00 00 
03aa0     00 00 00 0F 
03aa4     26 36 1E 0E 
03aa8     07 07 46 66 | 	byte	$38, $00, $00, $00, $00, $00, $00, $0f, $26, $36, $1e, $0e, $07, $07, $46, $66
03aac     7F 00 00 00 
03ab0     00 00 00 00 
03ab4     00 63 36 1C 
03ab8     1C 36 63 00 | 	byte	$7f, $00, $00, $00, $00, $00, $00, $00, $00, $63, $36, $1c, $1c, $36, $63, $00
03abc     00 00 00 00 
03ac0     00 00       | 	byte	$00[6]
03ac2     36 1C 08 00 
03ac6     3E 63 03 03 
03aca     03 63 3E 00 
03ace     00 00 00 00 | 	byte	$36, $1c, $08, $00, $3e, $63, $03, $03, $03, $63, $3e, $00, $00, $00, $00, $00
03ad2     30 18 0C 00 
03ad6     1E 30 3E 33 
03ada     33 33 6E 00 
03ade     00 00 00 00 | 	byte	$30, $18, $0c, $00, $1e, $30, $3e, $33, $33, $33, $6e, $00, $00, $00, $00, $00
03ae2     60 30 18 00 
03ae6     1C 18 18 18 
03aea     18 18 3C 00 
03aee     00 00 00 00 | 	byte	$60, $30, $18, $00, $1c, $18, $18, $18, $18, $18, $3c, $00, $00, $00, $00, $00
03af2     60 30 18 00 
03af6     3E 63 63 63 
03afa     63 63 3E 00 
03afe     00 00 00 00 | 	byte	$60, $30, $18, $00, $3e, $63, $63, $63, $63, $63, $3e, $00, $00, $00, $00, $00
03b02     30 18 0C 00 
03b06     33 33 33 33 
03b0a     33 33 6E 00 
03b0e     00 00 00 00 | 	byte	$30, $18, $0c, $00, $33, $33, $33, $33, $33, $33, $6e, $00, $00, $00, $00, $00
03b12     00 08 1C 36 
03b16     63 63 7F 63 
03b1a     63 63 63 18 
03b1e     0C 78 00 00 | 	byte	$00, $08, $1c, $36, $63, $63, $7f, $63, $63, $63, $63, $18, $0c, $78, $00, $00
03b22     00 00 00 00 
03b26     1E 30 3E 33 
03b2a     33 33 6E 18 
03b2e     0C 78 36 1C | 	byte	$00, $00, $00, $00, $1e, $30, $3e, $33, $33, $33, $6e, $18, $0c, $78, $36, $1c
03b32     00 7F 63 61 
03b36     30 18 0C 06 
03b3a     43 63 7F 00 
03b3e     00 00 00 00 | 	byte	$00, $7f, $63, $61, $30, $18, $0c, $06, $43, $63, $7f, $00, $00, $00, $00, $00
03b42     36 1C 08 00 
03b46     7F 33 18 0C 
03b4a     06 63 7F 00 
03b4e     00 00 00 00 | 	byte	$36, $1c, $08, $00, $7f, $33, $18, $0c, $06, $63, $7f, $00, $00, $00, $00, $00
03b52     00 7F 66 46 
03b56     16 1E 16 06 
03b5a     46 66 7F 18 
03b5e     0C 78 00 00 | 	byte	$00, $7f, $66, $46, $16, $1e, $16, $06, $46, $66, $7f, $18, $0c, $78, $00, $00
03b62     00 00 00 00 
03b66     3E 63 7F 03 
03b6a     03 63 3E 18 
03b6e     0C 78 00 00 | 	byte	$00, $00, $00, $00, $3e, $63, $7f, $03, $03, $63, $3e, $18, $0c, $78, $00, $00
03b72     00 3C 66 03 
03b76     1F 03 0F 03 
03b7a     03 66 3C 00 
03b7e     00 00 00 00 | 	byte	$00, $3c, $66, $03, $1f, $03, $0f, $03, $03, $66, $3c, $00, $00, $00, $00, $00
03b82     60 30 18 00 
03b86     7F 33 18 0C 
03b8a     06 63 7F 00 
03b8e     00 00 6C 38 | 	byte	$60, $30, $18, $00, $7f, $33, $18, $0c, $06, $63, $7f, $00, $00, $00, $6c, $38
03b92     00 3C 66 43 
03b96     03 03 03 03 
03b9a     43 66 3C 00 
03b9e     00 00 00 00 | 	byte	$00, $3c, $66, $43, $03, $03, $03, $03, $43, $66, $3c, $00, $00, $00, $00, $00
03ba2     00 00 00 00 
03ba6     3E 63 06 1C 
03baa     30 63 3E 18 
03bae     30 1E 00 00 | 	byte	$00, $00, $00, $00, $3e, $63, $06, $1c, $30, $63, $3e, $18, $30, $1e, $00, $00
03bb2     00 00 00 00 
03bb6     00 00       | 	byte	$00[6]
03bb8     6C 36 1B 36 
03bbc     6C 00 00 00 
03bc0     00 00 00 00 
03bc4     00 00 00 00 | 	byte	$6c, $36, $1b, $36, $6c, $00, $00, $00, $00, $00, $00, $00, $00, $00, $00, $00
03bc8     1B 36 6C 36 
03bcc     1B 00 00 00 
03bd0     88 22 88 22 
03bd4     88 22 88 22 | 	byte	$1b, $36, $6c, $36, $1b, $00, $00, $00, $88, $22, $88, $22, $88, $22, $88, $22
03bd8     88 22 88 22 
03bdc     88 22 88 22 
03be0     AA 55 AA 55 
03be4     AA 55 AA 55 | 	byte	$88, $22, $88, $22, $88, $22, $88, $22, $aa, $55, $aa, $55, $aa, $55, $aa, $55
03be8     AA 55 AA 55 
03bec     AA 55 AA 55 
03bf0     BB EE BB EE 
03bf4     BB EE BB EE | 	byte	$aa, $55, $aa, $55, $aa, $55, $aa, $55, $bb, $ee, $bb, $ee, $bb, $ee, $bb, $ee
03bf8     BB EE BB EE 
03bfc     BB EE BB EE 
03c00     18 18 18 18 
03c04     18 18 18 18 | 	byte	$bb, $ee, $bb, $ee, $bb, $ee, $bb, $ee, $18, $18, $18, $18, $18, $18, $18, $18
03c08     18 18 18 18 
03c0c     18 18 18 18 
03c10     18 18 18 18 
03c14     18 18 18    | 	byte	$18[15]
03c17     1F 18 18 18 
03c1b     18 18 18 18 
03c1f     18 30 18 00 
03c23     08 1C 36 63 | 	byte	$1f, $18, $18, $18, $18, $18, $18, $18, $18, $30, $18, $00, $08, $1c, $36, $63
03c27     63 7F 63 63 
03c2b     63 63 00 00 
03c2f     00 1C 36 00 
03c33     08 1C 36 63 | 	byte	$63, $7f, $63, $63, $63, $63, $00, $00, $00, $1c, $36, $00, $08, $1c, $36, $63
03c37     63 7F 63 63 
03c3b     63 63 00 00 
03c3f     00 36 1C 00 
03c43     7F 66 46 16 | 	byte	$63, $7f, $63, $63, $63, $63, $00, $00, $00, $36, $1c, $00, $7f, $66, $46, $16
03c47     1E 16 06 46 
03c4b     66 7F 00 00 
03c4f     00 00 00 00 
03c53     3E 63 63 06 | 	byte	$1e, $16, $06, $46, $66, $7f, $00, $00, $00, $00, $00, $00, $3e, $63, $63, $06
03c57     1C 30 60 63 
03c5b     63 3E 18 30 
03c5f     1E 6C 6C 6C 
03c63     6C 6C 6F 60 | 	byte	$1c, $30, $60, $63, $63, $3e, $18, $30, $1e, $6c, $6c, $6c, $6c, $6c, $6f, $60
03c67     6F 6C 6C 6C 
03c6b     6C 6C 6C 6C 
03c6f     6C 6C 6C 6C 
03c73     6C 6C 6C 6C | 	byte	$6f, $6c, $6c, $6c, $6c, $6c, $6c, $6c, $6c, $6c, $6c, $6c, $6c, $6c, $6c, $6c
03c77     6C 6C 6C 6C 
03c7b     6C 6C 6C 6C 
03c7f     6C          | 	byte	$6c[9]
03c80     00 00 00 00 
03c84     00          | 	byte	$00[5]
03c85     7F 60 6F 6C 
03c89     6C 6C 6C 6C 
03c8d     6C 6C 6C 6C 
03c91     6C 6C 6C 6C | 	byte	$7f, $60, $6f, $6c, $6c, $6c, $6c, $6c, $6c, $6c, $6c, $6c, $6c, $6c, $6c, $6c
03c95     6F 60 7F 00 
03c99     00 00 00 00 
03c9d     00 00 00 18 
03ca1     18 00 7F 63 | 	byte	$6f, $60, $7f, $00, $00, $00, $00, $00, $00, $00, $00, $18, $18, $00, $7f, $63
03ca5     61 30 18 0C 
03ca9     06 43 63 7F 
03cad     00 00 00 00 
03cb1     00 00 18 18 | 	byte	$61, $30, $18, $0c, $06, $43, $63, $7f, $00, $00, $00, $00, $00, $00, $18, $18
03cb5     00 7F 33 18 
03cb9     0C 06 63 7F 
03cbd     00 00 00 00 
03cc1     00 00 00 00 | 	byte	$00, $7f, $33, $18, $0c, $06, $63, $7f, $00, $00, $00, $00, $00, $00, $00, $00
03cc5     00 00 1F 18 
03cc9     18 18 18 18 
03ccd     18 18 18 18 
03cd1     18 18 18 18 | 	byte	$00, $00, $1f, $18, $18, $18, $18, $18, $18, $18, $18, $18, $18, $18, $18, $18
03cd5     18 18 F8 00 
03cd9     00 00 00 00 
03cdd     00 00 00 18 
03ce1     18 18 18 18 | 	byte	$18, $18, $f8, $00, $00, $00, $00, $00, $00, $00, $00, $18, $18, $18, $18, $18
03ce5     18 18 FF 00 
03ce9     00 00 00 00 
03ced     00 00 00 00 
03cf1     00 00 00 00 | 	byte	$18, $18, $ff, $00, $00, $00, $00, $00, $00, $00, $00, $00, $00, $00, $00, $00
03cf5     00 00 FF 18 
03cf9     18 18 18 18 
03cfd     18 18 18 18 
03d01     18 18 18 18 | 	byte	$00, $00, $ff, $18, $18, $18, $18, $18, $18, $18, $18, $18, $18, $18, $18, $18
03d05     18 18 F8 18 
03d09     18 18 18 18 
03d0d     18 18 18 00 
03d11     00 00 00 00 | 	byte	$18, $18, $f8, $18, $18, $18, $18, $18, $18, $18, $18, $00, $00, $00, $00, $00
03d15     00 00 FF 00 
03d19     00 00 00 00 
03d1d     00 00 00 18 
03d21     18 18 18 18 | 	byte	$00, $00, $ff, $00, $00, $00, $00, $00, $00, $00, $00, $18, $18, $18, $18, $18
03d25     18 18 FF 18 
03d29     18 18 18 18 
03d2d     18 18 18 63 
03d31     3E 00 08 1C | 	byte	$18, $18, $ff, $18, $18, $18, $18, $18, $18, $18, $18, $63, $3e, $00, $08, $1c
03d35     36 63 63 7F 
03d39     63 63 63 63 
03d3d     00 00 00 00 
03d41     00 00 63 3E | 	byte	$36, $63, $63, $7f, $63, $63, $63, $63, $00, $00, $00, $00, $00, $00, $63, $3e
03d45     00 1E 30 3E 
03d49     33 33 33 6E 
03d4d     00 00 00 6C 
03d51     6C 6C 6C 6C | 	byte	$00, $1e, $30, $3e, $33, $33, $33, $6e, $00, $00, $00, $6c, $6c, $6c, $6c, $6c
03d55     EC 0C FC 00 
03d59     00 00 00 00 
03d5d     00 00 00 00 
03d61     00 00 00 00 | 	byte	$ec, $0c, $fc, $00, $00, $00, $00, $00, $00, $00, $00, $00, $00, $00, $00, $00
03d65     FC 0C EC 6C 
03d69     6C 6C 6C 6C 
03d6d     6C 6C 6C 6C 
03d71     6C 6C 6C 6C | 	byte	$fc, $0c, $ec, $6c, $6c, $6c, $6c, $6c, $6c, $6c, $6c, $6c, $6c, $6c, $6c, $6c
03d75     EF 00 FF 00 
03d79     00 00 00 00 
03d7d     00 00 00 00 
03d81     00 00 00 00 | 	byte	$ef, $00, $ff, $00, $00, $00, $00, $00, $00, $00, $00, $00, $00, $00, $00, $00
03d85     FF 00 EF 6C 
03d89     6C 6C 6C 6C 
03d8d     6C 6C 6C 6C 
03d91     6C 6C 6C 6C | 	byte	$ff, $00, $ef, $6c, $6c, $6c, $6c, $6c, $6c, $6c, $6c, $6c, $6c, $6c, $6c, $6c
03d95     EC 0C EC 6C 
03d99     6C 6C 6C 6C 
03d9d     6C 6C 6C 00 
03da1     00 00 00 00 | 	byte	$ec, $0c, $ec, $6c, $6c, $6c, $6c, $6c, $6c, $6c, $6c, $00, $00, $00, $00, $00
03da5     FF 00 FF 00 
03da9     00 00 00 00 
03dad     00 00 00 6C 
03db1     6C 6C 6C 6C | 	byte	$ff, $00, $ff, $00, $00, $00, $00, $00, $00, $00, $00, $6c, $6c, $6c, $6c, $6c
03db5     EF 00 EF 6C 
03db9     6C 6C 6C 6C 
03dbd     6C 6C 6C 00 
03dc1     00 00 00 00 | 	byte	$ef, $00, $ef, $6c, $6c, $6c, $6c, $6c, $6c, $6c, $6c, $00, $00, $00, $00, $00
03dc5     63 3E 63 63 
03dc9     63 63 3E 63 
03dcd     00 00 00 00 
03dd1     00 00 30 7E | 	byte	$63, $3e, $63, $63, $63, $63, $3e, $63, $00, $00, $00, $00, $00, $00, $30, $7e
03dd5     30 3C 36 33 
03dd9     33 33 33 6E 
03ddd     00 00 00 00 
03de1     00 00 1F 36 | 	byte	$30, $3c, $36, $33, $33, $33, $33, $6e, $00, $00, $00, $00, $00, $00, $1f, $36
03de5     66 66 6F 66 
03de9     66 66 36 1F 
03ded     00 00 00 36 
03df1     1C 00 1F 36 | 	byte	$66, $66, $6f, $66, $66, $66, $36, $1f, $00, $00, $00, $36, $1c, $00, $1f, $36
03df5     66 66 66 66 
03df9     66 66       | 	byte	$66[6]
03dfb     36 1F 00 00 
03dff     00 00 63 00 
03e03     7F 66 46 16 
03e07     1E 16 06 46 | 	byte	$36, $1f, $00, $00, $00, $00, $63, $00, $7f, $66, $46, $16, $1e, $16, $06, $46
03e0b     66 7F 00 00 
03e0f     00 6C 38 00 
03e13     38 30 30 3C 
03e17     36 33 33 33 | 	byte	$66, $7f, $00, $00, $00, $6c, $38, $00, $38, $30, $30, $3c, $36, $33, $33, $33
03e1b     33 6E 00 00 
03e1f     00 36 1C 00 
03e23     63 67 6F 7F 
03e27     7B 73 63 63 | 	byte	$33, $6e, $00, $00, $00, $36, $1c, $00, $63, $67, $6f, $7f, $7b, $73, $63, $63
03e2b     63 63 00 00 
03e2f     00 30 18 00 
03e33     3C 18 18 18 
03e37     18 18 18 18 | 	byte	$63, $63, $00, $00, $00, $30, $18, $00, $3c, $18, $18, $18, $18, $18, $18, $18
03e3b     18 3C 00 00 
03e3f     00 3C 66 00 
03e43     3C 18 18 18 
03e47     18 18 18 18 | 	byte	$18, $3c, $00, $00, $00, $3c, $66, $00, $3c, $18, $18, $18, $18, $18, $18, $18
03e4b     18 3C 00 00 
03e4f     00 00 00 36 
03e53     1C 08 00 3E 
03e57     63 7F 03 03 | 	byte	$18, $3c, $00, $00, $00, $00, $00, $36, $1c, $08, $00, $3e, $63, $7f, $03, $03
03e5b     63 3E 00 00 
03e5f     00 18 18 18 
03e63     18 18 18 18 
03e67     1F 00 00 00 | 	byte	$63, $3e, $00, $00, $00, $18, $18, $18, $18, $18, $18, $18, $1f, $00, $00, $00
03e6b     00 00 00 00 
03e6f     00 00 00 00 
03e73     00 00 00 00 | 	byte	$00[12]
03e77     F8 18 18 18 
03e7b     18 18 18 18 
03e7f     18 FF FF FF 
03e83     FF FF FF FF | 	byte	$f8, $18, $18, $18, $18, $18, $18, $18, $18, $ff, $ff, $ff, $ff, $ff, $ff, $ff
03e87     FF FF FF FF 
03e8b     FF FF FF FF 
03e8f     FF          | 	byte	$ff[9]
03e90     00 00 00 00 
03e94     00 00 00    | 	byte	$00[7]
03e97     FF FF FF FF 
03e9b     FF FF FF FF 
03e9f     FF          | 	byte	$ff[9]
03ea0     00 00 00 7E 
03ea4     7E 5A 18 18 
03ea8     18 18 18 18 
03eac     3C 18 30 1E | 	byte	$00, $00, $00, $7e, $7e, $5a, $18, $18, $18, $18, $18, $18, $3c, $18, $30, $1e
03eb0     1C 36 1C 63 
03eb4     63 63 63 63 
03eb8     63 63 63 63 
03ebc     3E 00 00 00 | 	byte	$1c, $36, $1c, $63, $63, $63, $63, $63, $63, $63, $63, $63, $3e, $00, $00, $00
03ec0     FF FF FF FF 
03ec4     FF FF FF    | 	byte	$ff[7]
03ec7     00 00 00 00 
03ecb     00 00 00 00 
03ecf     00          | 	byte	$00[9]
03ed0     30 18 00 3E 
03ed4     63 63 63 63 
03ed8     63 63 63 63 
03edc     3E 00 00 00 | 	byte	$30, $18, $00, $3e, $63, $63, $63, $63, $63, $63, $63, $63, $3e, $00, $00, $00
03ee0     00 00 00 1E 
03ee4     33 33 33 1B 
03ee8     33 63 63 63 
03eec     33 00 00 00 | 	byte	$00, $00, $00, $1e, $33, $33, $33, $1b, $33, $63, $63, $63, $33, $00, $00, $00
03ef0     1C 36 00 3E 
03ef4     63 63 63 63 
03ef8     63 63 63 63 
03efc     3E 00 00 00 | 	byte	$1c, $36, $00, $3e, $63, $63, $63, $63, $63, $63, $63, $63, $3e, $00, $00, $00
03f00     30 18 00 63 
03f04     67 6F 7F 7B 
03f08     73 63 63 63 
03f0c     63 00 00 00 | 	byte	$30, $18, $00, $63, $67, $6f, $7f, $7b, $73, $63, $63, $63, $63, $00, $00, $00
03f10     00 00 60 30 
03f14     18 00 3B 66 
03f18     66 66 66 66 
03f1c     66 00 00 00 | 	byte	$00, $00, $60, $30, $18, $00, $3b, $66, $66, $66, $66, $66, $66, $00, $00, $00
03f20     00 00 36 1C 
03f24     08 00 3B 66 
03f28     66 66 66 66 
03f2c     66 00 00 00 | 	byte	$00, $00, $36, $1c, $08, $00, $3b, $66, $66, $66, $66, $66, $66, $00, $00, $00
03f30     36 1C 00 3E 
03f34     63 63 06 1C 
03f38     30 60 63 63 
03f3c     3E 00 00 00 | 	byte	$36, $1c, $00, $3e, $63, $63, $06, $1c, $30, $60, $63, $63, $3e, $00, $00, $00
03f40     00 00 36 1C 
03f44     08 00 3E 63 
03f48     06 1C 30 63 
03f4c     3E 00 00 00 | 	byte	$00, $00, $36, $1c, $08, $00, $3e, $63, $06, $1c, $30, $63, $3e, $00, $00, $00
03f50     30 18 00 3F 
03f54     66 66 66 3E 
03f58     36 66 66 66 
03f5c     6F 00 00 00 | 	byte	$30, $18, $00, $3f, $66, $66, $66, $3e, $36, $66, $66, $66, $6f, $00, $00, $00
03f60     30 18 00 63 
03f64     63 63 63 63 
03f68     63 63 63 63 
03f6c     3E 00 00 00 | 	byte	$30, $18, $00, $63, $63, $63, $63, $63, $63, $63, $63, $63, $3e, $00, $00, $00
03f70     00 00 60 30 
03f74     18 00 3B 6E 
03f78     66 06 06 06 
03f7c     0F 00 00 00 | 	byte	$00, $00, $60, $30, $18, $00, $3b, $6e, $66, $06, $06, $06, $0f, $00, $00, $00
03f80     66 33 00 63 
03f84     63 63 63 63 
03f88     63 63 63 63 
03f8c     3E 00 00 00 | 	byte	$66, $33, $00, $63, $63, $63, $63, $63, $63, $63, $63, $63, $3e, $00, $00, $00
03f90     00 00 60 30 
03f94     18 00 63 63 
03f98     63 63 63 63 
03f9c     7E 60 30 1F | 	byte	$00, $00, $60, $30, $18, $00, $63, $63, $63, $63, $63, $63, $7e, $60, $30, $1f
03fa0     30 18 00 66 
03fa4     66 66 66 3C 
03fa8     18 18 18 18 
03fac     3C 00 00 00 | 	byte	$30, $18, $00, $66, $66, $66, $66, $3c, $18, $18, $18, $18, $3c, $00, $00, $00
03fb0     00 00 00 08 
03fb4     0C 0C 3F 0C 
03fb8     0C 0C 0C 6C 
03fbc     38 18 30 1E | 	byte	$00, $00, $00, $08, $0c, $0c, $3f, $0c, $0c, $0c, $0c, $6c, $38, $18, $30, $1e
03fc0     30 18 00 00 
03fc4     00 00 00 00 
03fc8     00 00 00 00 
03fcc     00 00 00 00 | 	byte	$30, $18, $00, $00, $00, $00, $00, $00, $00, $00, $00, $00, $00, $00, $00, $00
03fd0     00 00 00 00 
03fd4     00 00 00 00 | 	byte	$00[8]
03fd8     7F 00 00 00 
03fdc     00 00 00 00 
03fe0     66 33 00 00 
03fe4     00 00 00 00 | 	byte	$7f, $00, $00, $00, $00, $00, $00, $00, $66, $33, $00, $00, $00, $00, $00, $00
03fe8     00 00 00 00 
03fec     00 00 00 00 
03ff0     00 00 00 00 
03ff4     00 00 00 00 
03ff8     00 00 00 00 
03ffc     00          | 	byte	$00[21]
03ffd     0C 06 3C 36 
04001     1C 00 00 00 
04005     00 00 00 00 
04009     00 00 00 00 | 	byte	$0c, $06, $3c, $36, $1c, $00, $00, $00, $00, $00, $00, $00, $00, $00, $00, $00
0400d     00 00 00 63 
04011     3E 00 00 00 
04015     00 00 00 00 
04019     00 00 00 00 | 	byte	$00, $00, $00, $63, $3e, $00, $00, $00, $00, $00, $00, $00, $00, $00, $00, $00
0401d     00 00 00 00 
04021     3E 63 06 1C 
04025     36 63 63 36 
04029     1C 30 63 3E | 	byte	$00, $00, $00, $00, $3e, $63, $06, $1c, $36, $63, $63, $36, $1c, $30, $63, $3e
0402d     00 00 00 00 
04031     00 00 00 00 | 	byte	$00[8]
04035     18 00 7E 00 
04039     18 00 00 00 
0403d     00 00 00 00 
04041     00 00 00 00 | 	byte	$18, $00, $7e, $00, $18, $00, $00, $00, $00, $00, $00, $00, $00, $00, $00, $00
04045     00 00 00 00 
04049     00 00 00 00 | 	byte	$00[8]
0404d     18 30 1E 00 
04051     00 00 1C 36 
04055     36 1C 00 00 
04059     00 00 00 00 | 	byte	$18, $30, $1e, $00, $00, $00, $1c, $36, $36, $1c, $00, $00, $00, $00, $00, $00
0405d     00 00 00 00 
04061     63 00 00 00 
04065     00 00 00 00 
04069     00 00 00 00 | 	byte	$00, $00, $00, $00, $63, $00, $00, $00, $00, $00, $00, $00, $00, $00, $00, $00
0406d     00 00 00 18 
04071     18 00 00 00 
04075     00 00 00 00 
04079     00 00 00 00 | 	byte	$00, $00, $00, $18, $18, $00, $00, $00, $00, $00, $00, $00, $00, $00, $00, $00
0407d     00 00 00 00 
04081     00          | 	byte	$00[5]
04082     CC 66 33 00 
04086     33 33 33 33 
0408a     33 33 6E 00 
0408e     00 00 36 1C | 	byte	$cc, $66, $33, $00, $33, $33, $33, $33, $33, $33, $6e, $00, $00, $00, $36, $1c
04092     00 3F 66 66 
04096     66 3E 36 66 
0409a     66 66 6F 00 
0409e     00 00 00 00 | 	byte	$00, $3f, $66, $66, $66, $3e, $36, $66, $66, $66, $6f, $00, $00, $00, $00, $00
040a2     36 1C 08 00 
040a6     3B 6E 66 06 
040aa     06 06 0F 00 
040ae     00 00 00 00 | 	byte	$36, $1c, $08, $00, $3b, $6e, $66, $06, $06, $06, $0f, $00, $00, $00, $00, $00
040b2     00 00 00 7E 
040b6     7E 7E 7E 7E 
040ba     7E 7E 00 00 
040be     00 00 00 00 | 	byte	$00, $00, $00, $7e, $7e, $7e, $7e, $7e, $7e, $7e, $00, $00, $00, $00, $00, $00
040c2     00 00 00 00 
040c6     00 00 00 00 
040ca     00 00 00 00 
040ce     00 00       | 	byte	$00, $00, $00, $00, $00, $00, $00, $00, $00, $00, $00, $00, $00, $00
040d0     00 00 00 00 
      ...             
04100     00 00 00 00 
04104     00 00 00    | st_font        file "st4font.def"
04107     FF FF 00 00 
0410b     00 00 00 00 
0410f     00 18 18 18 
04113     18 18 18 18 | 	byte	$ff, $ff, $00, $00, $00, $00, $00, $00, $00, $18, $18, $18, $18, $18, $18, $18
04117     18 18 18 18 
0411b     18 18 18 18 
0411f     18          | 	byte	$18[9]
04120     00 00 00 00 
04124     00 00 00    | 	byte	$00[7]
04127     FF FF 18 18 
0412b     18 18 18 18 
0412f     18 18 18 18 
04133     18 18 18 18 | 	byte	$ff, $ff, $18, $18, $18, $18, $18, $18, $18, $18, $18, $18, $18, $18, $18, $18
04137     FF FF 00 00 
0413b     00 00 00 00 
0413f     00 18 18 18 
04143     18 18 18 18 | 	byte	$ff, $ff, $00, $00, $00, $00, $00, $00, $00, $18, $18, $18, $18, $18, $18, $18
04147     1F 1F 18 18 
0414b     18 18 18 18 
0414f     18 18 18 18 
04153     18 18 18 18 | 	byte	$1f, $1f, $18, $18, $18, $18, $18, $18, $18, $18, $18, $18, $18, $18, $18, $18
04157     F8 F8 18 18 
0415b     18 18 18 18 
0415f     18 00 00 00 
04163     00 00 00 00 | 	byte	$f8, $f8, $18, $18, $18, $18, $18, $18, $18, $00, $00, $00, $00, $00, $00, $00
04167     1F 1F 18 18 
0416b     18 18 18 18 
0416f     18 00 00 00 
04173     00 00 00 00 | 	byte	$1f, $1f, $18, $18, $18, $18, $18, $18, $18, $00, $00, $00, $00, $00, $00, $00
04177     F8 F8 18 18 
0417b     18 18 18 18 
0417f     18 18 18 18 
04183     18 18 18 18 | 	byte	$f8, $f8, $18, $18, $18, $18, $18, $18, $18, $18, $18, $18, $18, $18, $18, $18
04187     1F 1F 00 00 
0418b     00 00 00 00 
0418f     00 18 18 18 
04193     18 18 18 18 | 	byte	$1f, $1f, $00, $00, $00, $00, $00, $00, $00, $18, $18, $18, $18, $18, $18, $18
04197     F8 F8 00 00 
0419b     00 00 00 00 
0419f     00 18 18 18 
041a3     18 18 18 18 | 	byte	$f8, $f8, $00, $00, $00, $00, $00, $00, $00, $18, $18, $18, $18, $18, $18, $18
041a7     FF FF 18 18 
041ab     18 18 18 18 
041af     18 00 00 18 
041b3     3C 7E 66 66 | 	byte	$ff, $ff, $18, $18, $18, $18, $18, $18, $18, $00, $00, $18, $3c, $7e, $66, $66
041b7     66 7E 7E 66 
041bb     66 66 66 30 
041bf     18 00 00 7E 
041c3     7E 06 06 3E | 	byte	$66, $7e, $7e, $66, $66, $66, $66, $30, $18, $00, $00, $7e, $7e, $06, $06, $3e
041c7     3E 06 06 06 
041cb     06 7E 7E 18 
041cf     0C 30 18 3C 
041d3     7E 66 66 06 | 	byte	$3e, $06, $06, $06, $06, $7e, $7e, $18, $0c, $30, $18, $3c, $7e, $66, $66, $06
041d7     06 06 06 66 
041db     66 7E 3C 00 
041df     00 30 18 66 
041e3     66 66 6E 6E | 	byte	$06, $06, $06, $66, $66, $7e, $3c, $00, $00, $30, $18, $66, $66, $66, $6e, $6e
041e7     7E 7E 76 76 
041eb     66 66 66 00 
041ef     00 30 18 7C 
041f3     7E 06 06 0E | 	byte	$7e, $7e, $76, $76, $66, $66, $66, $00, $00, $30, $18, $7c, $7e, $06, $06, $0e
041f7     1C 38 70 60 
041fb     60 7E 3E 00 
041ff     00 30 18 7E 
04203     7E 30 30 18 | 	byte	$1c, $38, $70, $60, $60, $7e, $3e, $00, $00, $30, $18, $7e, $7e, $30, $30, $18
04207     18 0C 0C 06 
0420b     06 7E 7E 00 
0420f     00 18 18 00 
04213     7E 7E 30 30 | 	byte	$18, $0c, $0c, $06, $06, $7e, $7e, $00, $00, $18, $18, $00, $7e, $7e, $30, $30
04217     18 18 0C 0C 
0421b     06 7E 7E 00 
0421f     00 30 18 3C 
04223     7E 66 66 66 | 	byte	$18, $18, $0c, $0c, $06, $7e, $7e, $00, $00, $30, $18, $3c, $7e, $66, $66, $66
04227     66 66 66 66 
0422b     66          | 	byte	$66[5]
0422c     7E 3C 00 00 
04230     00 00 06 06 
04234     06 06 16 1E 
04238     0E 06 06 06 | 	byte	$7e, $3c, $00, $00, $00, $00, $06, $06, $06, $06, $16, $1e, $0e, $06, $06, $06
0423c     7E 7E 00 00 
04240     00 00 00 00 
04244     00 3C 7C 60 
04248     7C 7E 66 66 | 	byte	$7e, $7e, $00, $00, $00, $00, $00, $00, $00, $3c, $7c, $60, $7c, $7e, $66, $66
0424c     7E 7C 30 18 
04250     00 00 00 00 
04254     00 3C 7E 66 
04258     66 7E 06 06 | 	byte	$7e, $7c, $30, $18, $00, $00, $00, $00, $00, $3c, $7e, $66, $66, $7e, $06, $06
0425c     7E 7C 18 0C 
04260     00 00 30 18 
04264     00 3C 3E 06 
04268     06 06 06 06 | 	byte	$7e, $7c, $18, $0c, $00, $00, $30, $18, $00, $3c, $3e, $06, $06, $06, $06, $06
0426c     7E 7C 00 00 
04270     00 00 30 18 
04274     00 3E 7E 66 
04278     66 66 66 66 | 	byte	$7e, $7c, $00, $00, $00, $00, $30, $18, $00, $3e, $7e, $66, $66, $66, $66, $66
0427c     66 66 00 00 
04280     00 00 30 18 
04284     00 7C 7E 06 
04288     0E 3C 70 60 | 	byte	$66, $66, $00, $00, $00, $00, $30, $18, $00, $7c, $7e, $06, $0e, $3c, $70, $60
0428c     7E 3E 00 00 
04290     00 00 30 18 
04294     00 7E 7E 30 
04298     18 18 0C 0C | 	byte	$7e, $3e, $00, $00, $00, $00, $30, $18, $00, $7e, $7e, $30, $18, $18, $0c, $0c
0429c     7E 7E 00 00 
042a0     00 00 18 18 
042a4     00 7E 7E 30 
042a8     18 18 0C 0C | 	byte	$7e, $7e, $00, $00, $00, $00, $18, $18, $00, $7e, $7e, $30, $18, $18, $0c, $0c
042ac     7E 7E 00 00 
042b0     00 00 30 18 
042b4     00 3C 7E 66 
042b8     66 66 66 66 | 	byte	$7e, $7e, $00, $00, $00, $00, $30, $18, $00, $3c, $7e, $66, $66, $66, $66, $66
042bc     7E 3C 00 00 
042c0     00 00 1C 1C 
042c4     18 18 38 3C 
042c8     1C 18 18 18 | 	byte	$7e, $3c, $00, $00, $00, $00, $1c, $1c, $18, $18, $38, $3c, $1c, $18, $18, $18
042cc     3C 3C 00 00 
042d0     00 00 00 00 
042d4     00 00 00 00 
042d8     00 00 00 00 | 	byte	$3c, $3c, $00, $00, $00, $00, $00, $00, $00, $00, $00, $00, $00, $00, $00, $00
042dc     00 00 00 00 
042e0     00 00       | 	byte	$00[6]
042e2     18 18 18 18 
042e6     18 18 18 18 | 	byte	$18[8]
042ea     00 00 18 18 
042ee     00 00 00 00 
042f2     66 66 66 66 
042f6     00 00 00 00 | 	byte	$00, $00, $18, $18, $00, $00, $00, $00, $66, $66, $66, $66, $00, $00, $00, $00
042fa     00 00 00 00 
042fe     00 00 00 00 
04302     00          | 	byte	$00[9]
04303     66 66 FF FF 
04307     66 66 FF FF 
0430b     66 66 00 00 
0430f     00 00 18 18 | 	byte	$66, $66, $ff, $ff, $66, $66, $ff, $ff, $66, $66, $00, $00, $00, $00, $18, $18
04313     7C 7E 06 06 
04317     3E 7C 60 60 
0431b     7E 3E 18 18 
0431f     00 00 00 66 | 	byte	$7c, $7e, $06, $06, $3e, $7c, $60, $60, $7e, $3e, $18, $18, $00, $00, $00, $66
04323     66 30 30 18 
04327     18 0C 0C 66 
0432b     66 00 00 00 
0432f     00 00 3C 7E | 	byte	$66, $30, $30, $18, $18, $0c, $0c, $66, $66, $00, $00, $00, $00, $00, $3c, $7e
04333     66 66 3C 1C 
04337     1C FC FE 66 
0433b     66 FE FC 00 
0433f     00 00 00 18 | 	byte	$66, $66, $3c, $1c, $1c, $fc, $fe, $66, $66, $fe, $fc, $00, $00, $00, $00, $18
04343     18 18 18 18 
04347     00 00 00 00 
0434b     00 00 00 00 
0434f     00 00 00 30 | 	byte	$18, $18, $18, $18, $00, $00, $00, $00, $00, $00, $00, $00, $00, $00, $00, $30
04353     18 1C 0C 0C 
04357     0C 0C 0C 0C 
0435b     1C 18 30 00 
0435f     00 00 00 0C | 	byte	$18, $1c, $0c, $0c, $0c, $0c, $0c, $0c, $1c, $18, $30, $00, $00, $00, $00, $0c
04363     18 38 30 30 
04367     30 30 30 30 
0436b     38 18 0C 00 
0436f     00 00 00 00 | 	byte	$18, $38, $30, $30, $30, $30, $30, $30, $38, $18, $0c, $00, $00, $00, $00, $00
04373     66 66 3C 3C 
04377     FF FF 3C 3C 
0437b     66 66 00 00 
0437f     00 00 00 00 | 	byte	$66, $66, $3c, $3c, $ff, $ff, $3c, $3c, $66, $66, $00, $00, $00, $00, $00, $00
04383     00 18 18 18 
04387     7E 7E 18 18 
0438b     18 00 00 00 
0438f     00 00 00 00 | 	byte	$00, $18, $18, $18, $7e, $7e, $18, $18, $18, $00, $00, $00, $00, $00, $00, $00
04393     00 00 00 00 
04397     00 00       | 	byte	$00[6]
04399     18 18 18 18 
0439d     18          | 	byte	$18[5]
0439e     0C 04 00 00 
043a2     00 00 00 00 
043a6     7E 7E 00 00 
043aa     00 00 00 00 | 	byte	$0c, $04, $00, $00, $00, $00, $00, $00, $7e, $7e, $00, $00, $00, $00, $00, $00
043ae     00 00 00 00 
043b2     00 00 00 00 
043b6     00 00 00 00 
043ba     00          | 	byte	$00[13]
043bb     18 18 18 00 
043bf     00 00 00 60 
043c3     60 60 30 30 
043c7     18 18 0C 0C | 	byte	$18, $18, $18, $00, $00, $00, $00, $60, $60, $60, $30, $30, $18, $18, $0c, $0c
043cb     06 06 06 00 
043cf     00 00 00 3C 
043d3     7E 66 66 66 
043d7     76 6E 66 66 | 	byte	$06, $06, $06, $00, $00, $00, $00, $3c, $7e, $66, $66, $66, $76, $6e, $66, $66
043db     66 7E 3C 00 
043df     00 00 00 18 
043e3     18 1C 1C 18 
043e7     18 18 18 18 | 	byte	$66, $7e, $3c, $00, $00, $00, $00, $18, $18, $1c, $1c, $18, $18, $18, $18, $18
043eb     18 7E 7E 00 
043ef     00 00 00 3C 
043f3     7E 66 66 30 
043f7     30 18 18 0C | 	byte	$18, $7e, $7e, $00, $00, $00, $00, $3c, $7e, $66, $66, $30, $30, $18, $18, $0c
043fb     0C 7E 7E 00 
043ff     00 00 00 7E 
04403     7E 30 30 18 
04407     18 30 30 66 | 	byte	$0c, $7e, $7e, $00, $00, $00, $00, $7e, $7e, $30, $30, $18, $18, $30, $30, $66
0440b     66 7E 3C 00 
0440f     00 00 00 30 
04413     30 38 38 3C 
04417     3C 36 36 7E | 	byte	$66, $7e, $3c, $00, $00, $00, $00, $30, $30, $38, $38, $3c, $3c, $36, $36, $7e
0441b     7E 30 30 00 
0441f     00 00 00 7E 
04423     7E 06 06 3E 
04427     7E 60 60 60 | 	byte	$7e, $30, $30, $00, $00, $00, $00, $7e, $7e, $06, $06, $3e, $7e, $60, $60, $60
0442b     66 7E 3C 00 
0442f     00 00 00 38 
04433     3C 0E 06 06 
04437     3E 7E 66 66 | 	byte	$66, $7e, $3c, $00, $00, $00, $00, $38, $3c, $0e, $06, $06, $3e, $7e, $66, $66
0443b     66 7E 3C 00 
0443f     00 00 00 7E 
04443     7E 60 60 30 
04447     30 18 18 0C | 	byte	$66, $7e, $3c, $00, $00, $00, $00, $7e, $7e, $60, $60, $30, $30, $18, $18, $0c
0444b     0C 0C 0C 00 
0444f     00 00 00 3C 
04453     7E 66 66 3C 
04457     3C 66 66 66 | 	byte	$0c, $0c, $0c, $00, $00, $00, $00, $3c, $7e, $66, $66, $3c, $3c, $66, $66, $66
0445b     66 7E 3C 00 
0445f     00 00 00 3C 
04463     7E 66 66 7E 
04467     7C 60 60 60 | 	byte	$66, $7e, $3c, $00, $00, $00, $00, $3c, $7e, $66, $66, $7e, $7c, $60, $60, $60
0446b     70 3C 1C 00 
0446f     00 00 00 00 
04473     00 00 18 18 
04477     18 00 00 00 | 	byte	$70, $3c, $1c, $00, $00, $00, $00, $00, $00, $00, $18, $18, $18, $00, $00, $00
0447b     18 18 18 00 
0447f     00 00 00 00 
04483     00 00 18 18 
04487     18 00 00 18 | 	byte	$18, $18, $18, $00, $00, $00, $00, $00, $00, $00, $18, $18, $18, $00, $00, $18
0448b     18 18 18 0C 
0448f     04 00 00 00 
04493     70 38 1C 0E 
04497     07 0E 1C 38 | 	byte	$18, $18, $18, $0c, $04, $00, $00, $00, $70, $38, $1c, $0e, $07, $0e, $1c, $38
0449b     70 00 00 00 
0449f     00 00 00 00 
044a3     00 00 7E 7E 
044a7     00 00 7E 7E | 	byte	$70, $00, $00, $00, $00, $00, $00, $00, $00, $00, $7e, $7e, $00, $00, $7e, $7e
044ab     00 00 00 00 
044af     00 00 00 00 | 	byte	$00[8]
044b3     0E 1C 38 70 
044b7     E0 70 38 1C 
044bb     0E 00 00 00 
044bf     00 00 00 3C | 	byte	$0e, $1c, $38, $70, $e0, $70, $38, $1c, $0e, $00, $00, $00, $00, $00, $00, $3c
044c3     7E 66 66 30 
044c7     30 18 18 18 
044cb     00 18 18 00 
044cf     00 00 00 3C | 	byte	$7e, $66, $66, $30, $30, $18, $18, $18, $00, $18, $18, $00, $00, $00, $00, $3c
044d3     7E 66 66 66 
044d7     66 36 06 66 
044db     66 7E 3C 00 
044df     00 00 00 18 | 	byte	$7e, $66, $66, $66, $66, $36, $06, $66, $66, $7e, $3c, $00, $00, $00, $00, $18
044e3     3C 7E 66 66 
044e7     66 7E 7E 66 
044eb     66 66 66 00 
044ef     00 00 00 3E | 	byte	$3c, $7e, $66, $66, $66, $7e, $7e, $66, $66, $66, $66, $00, $00, $00, $00, $3e
044f3     7E 66 66 7E 
044f7     3E 66 66 66 
044fb     66 7E 3E 00 
044ff     00 00 00 3C | 	byte	$7e, $66, $66, $7e, $3e, $66, $66, $66, $66, $7e, $3e, $00, $00, $00, $00, $3c
04503     7E 66 66 06 
04507     06 06 06 66 
0450b     66 7E 3C 00 
0450f     00 00 00 3E | 	byte	$7e, $66, $66, $06, $06, $06, $06, $66, $66, $7e, $3c, $00, $00, $00, $00, $3e
04513     7E 66 66 66 
04517     66 66 66 66 
0451b     66 7E 3E 00 
0451f     00 00 00 7E | 	byte	$7e, $66, $66, $66, $66, $66, $66, $66, $66, $7e, $3e, $00, $00, $00, $00, $7e
04523     7E 06 06 3E 
04527     3E 06 06 06 
0452b     06 7E 7E 00 
0452f     00 00 00 7E | 	byte	$7e, $06, $06, $3e, $3e, $06, $06, $06, $06, $7e, $7e, $00, $00, $00, $00, $7e
04533     7E 06 06 3E 
04537     3E 06 06 06 
0453b     06 06 06 00 
0453f     00 00 00 7C | 	byte	$7e, $06, $06, $3e, $3e, $06, $06, $06, $06, $06, $06, $00, $00, $00, $00, $7c
04543     7E 06 06 76 
04547     76 66 66 66 
0454b     66 7E 3C 00 
0454f     00 00 00 66 | 	byte	$7e, $06, $06, $76, $76, $66, $66, $66, $66, $7e, $3c, $00, $00, $00, $00, $66
04553     66 66 66 7E 
04557     7E 66 66 66 
0455b     66 66 66 00 
0455f     00 00 00 7E | 	byte	$66, $66, $66, $7e, $7e, $66, $66, $66, $66, $66, $66, $00, $00, $00, $00, $7e
04563     7E 18 18 18 
04567     18 18 18 18 
0456b     18 7E 7E 00 
0456f     00 00 00 60 | 	byte	$7e, $18, $18, $18, $18, $18, $18, $18, $18, $7e, $7e, $00, $00, $00, $00, $60
04573     60 60 60 60 
04577     60 60 60    | 	byte	$60[7]
0457a     66 66 7E 3C 
0457e     00 00 00 00 
04582     66 66 36 36 
04586     1E 1E 36 36 | 	byte	$66, $66, $7e, $3c, $00, $00, $00, $00, $66, $66, $36, $36, $1e, $1e, $36, $36
0458a     66 66 C6 C6 
0458e     00 00 00 00 
04592     06 06 06 06 
04596     06 06 06 06 | 	byte	$66, $66, $c6, $c6, $00, $00, $00, $00, $06, $06, $06, $06, $06, $06, $06, $06
0459a     06 06 7E 7E 
0459e     00 00 00 00 
045a2     C6 C6 EE EE 
045a6     FE D6 D6 C6 | 	byte	$06, $06, $7e, $7e, $00, $00, $00, $00, $c6, $c6, $ee, $ee, $fe, $d6, $d6, $c6
045aa     C6 C6 C6 C6 
045ae     00 00 00 00 
045b2     66 66 66 6E 
045b6     6E 7E 7E 76 | 	byte	$c6, $c6, $c6, $c6, $00, $00, $00, $00, $66, $66, $66, $6e, $6e, $7e, $7e, $76
045ba     76 66 66 66 
045be     00 00 00 00 
045c2     3C 7E 66 66 
045c6     66 66 66 66 | 	byte	$76, $66, $66, $66, $00, $00, $00, $00, $3c, $7e, $66, $66, $66, $66, $66, $66
045ca     66 66 7E 3C 
045ce     00 00 00 00 
045d2     3E 7E 66 66 
045d6     66 66 7E 3E | 	byte	$66, $66, $7e, $3c, $00, $00, $00, $00, $3e, $7e, $66, $66, $66, $66, $7e, $3e
045da     06 06 06 06 
045de     00 00 00 00 
045e2     3C 7E 66 66 
045e6     66 66 66 66 | 	byte	$06, $06, $06, $06, $00, $00, $00, $00, $3c, $7e, $66, $66, $66, $66, $66, $66
045ea     66 56 3E 6C 
045ee     00 00 00 00 
045f2     3E 7E 66 66 
045f6     66 7E 3E 36 | 	byte	$66, $56, $3e, $6c, $00, $00, $00, $00, $3e, $7e, $66, $66, $66, $7e, $3e, $36
045fa     66 66 C6 C6 
045fe     00 00 00 00 
04602     7C 7E 06 06 
04606     0E 1C 38 70 | 	byte	$66, $66, $c6, $c6, $00, $00, $00, $00, $7c, $7e, $06, $06, $0e, $1c, $38, $70
0460a     60 60 7E 3E 
0460e     00 00 00 00 
04612     7E 7E 18 18 
04616     18 18 18 18 | 	byte	$60, $60, $7e, $3e, $00, $00, $00, $00, $7e, $7e, $18, $18, $18, $18, $18, $18
0461a     18 18 18 18 
0461e     00 00 00 00 
04622     66 66 66 66 
04626     66 66 66 66 | 	byte	$18, $18, $18, $18, $00, $00, $00, $00, $66, $66, $66, $66, $66, $66, $66, $66
0462a     66 66 7E 3C 
0462e     00 00 00 00 
04632     66 66 66 66 
04636     66 66 66 66 | 	byte	$66, $66, $7e, $3c, $00, $00, $00, $00, $66, $66, $66, $66, $66, $66, $66, $66
0463a     3C 3C 18 18 
0463e     00 00 00 00 
04642     C6 C6 C6 C6 
04646     C6 D6 D6 FE | 	byte	$3c, $3c, $18, $18, $00, $00, $00, $00, $c6, $c6, $c6, $c6, $c6, $d6, $d6, $fe
0464a     FE EE C6 82 
0464e     00 00 00 00 
04652     66 66 66 3C 
04656     3C 18 18 3C | 	byte	$fe, $ee, $c6, $82, $00, $00, $00, $00, $66, $66, $66, $3c, $3c, $18, $18, $3c
0465a     3C 66 66 66 
0465e     00 00 00 00 
04662     66 66 66 66 
04666     66 3C 3C 18 | 	byte	$3c, $66, $66, $66, $00, $00, $00, $00, $66, $66, $66, $66, $66, $3c, $3c, $18
0466a     18 18 18 18 
0466e     00 00 00 00 
04672     7E 7E 30 30 
04676     18 18 0C 0C | 	byte	$18, $18, $18, $18, $00, $00, $00, $00, $7e, $7e, $30, $30, $18, $18, $0c, $0c
0467a     06 06 7E 7E 
0467e     00 00 00 00 
04682     3C 3C 0C 0C 
04686     0C 0C 0C 0C | 	byte	$06, $06, $7e, $7e, $00, $00, $00, $00, $3c, $3c, $0c, $0c, $0c, $0c, $0c, $0c
0468a     0C 0C 3C 3C 
0468e     00 00 00 00 
04692     06 06 0C 0C 
04696     18 18 30 30 | 	byte	$0c, $0c, $3c, $3c, $00, $00, $00, $00, $06, $06, $0c, $0c, $18, $18, $30, $30
0469a     60 60 C0 C0 
0469e     00 00 00 00 
046a2     3C 3C 30 30 
046a6     30 30 30 30 | 	byte	$60, $60, $c0, $c0, $00, $00, $00, $00, $3c, $3c, $30, $30, $30, $30, $30, $30
046aa     30 30 3C 3C 
046ae     00 00 00 00 
046b2     18 18 3C 3C 
046b6     66 66 00 00 | 	byte	$30, $30, $3c, $3c, $00, $00, $00, $00, $18, $18, $3c, $3c, $66, $66, $00, $00
046ba     00 00 00 00 
046be     00 00 00 00 
046c2     00 00 00 00 
046c6     00 00 00 00 
046ca     00 00       | 	byte	$00[18]
046cc     FE FE 00 00 
046d0     00 00 0C 0C 
046d4     18 18 00 00 
046d8     00 00 00 00 | 	byte	$fe, $fe, $00, $00, $00, $00, $0c, $0c, $18, $18, $00, $00, $00, $00, $00, $00
046dc     00 00 00 00 
046e0     00 00 00 00 
046e4     00          | 	byte	$00[9]
046e5     3C 7C 60 7C 
046e9     7E 66 66 7E 
046ed     7C 00 00 00 
046f1     00 06 06 06 | 	byte	$3c, $7c, $60, $7c, $7e, $66, $66, $7e, $7c, $00, $00, $00, $00, $06, $06, $06
046f5     3E 7E 66 66 
046f9     66 66 66 7E 
046fd     3E 00 00 00 
04701     00 00 00 00 | 	byte	$3e, $7e, $66, $66, $66, $66, $66, $7e, $3e, $00, $00, $00, $00, $00, $00, $00
04705     3C 3E 06 06 
04709     06 06 06 7E 
0470d     7C 00 00 00 
04711     00 60 60 60 | 	byte	$3c, $3e, $06, $06, $06, $06, $06, $7e, $7c, $00, $00, $00, $00, $60, $60, $60
04715     7C 7E 66 66 
04719     66 66 66 7E 
0471d     7C 00 00 00 
04721     00 00 00 00 | 	byte	$7c, $7e, $66, $66, $66, $66, $66, $7e, $7c, $00, $00, $00, $00, $00, $00, $00
04725     3C 7E 66 66 
04729     7E 06 06 7E 
0472d     7C 00 00 00 
04731     00 70 78 18 | 	byte	$3c, $7e, $66, $66, $7e, $06, $06, $7e, $7c, $00, $00, $00, $00, $70, $78, $18
04735     18 7E 7E 18 
04739     18 18 18 18 
0473d     18 00 00 00 
04741     00 00 00 00 | 	byte	$18, $7e, $7e, $18, $18, $18, $18, $18, $18, $00, $00, $00, $00, $00, $00, $00
04745     7C 7E 66 66 
04749     66 66 7E 7C 
0474d     60 7E 3E 00 
04751     00 06 06 06 | 	byte	$7c, $7e, $66, $66, $66, $66, $7e, $7c, $60, $7e, $3e, $00, $00, $06, $06, $06
04755     3E 7E 66 66 
04759     66 66 66 66 
0475d     66 00 00 00 
04761     00 18 18 00 | 	byte	$3e, $7e, $66, $66, $66, $66, $66, $66, $66, $00, $00, $00, $00, $18, $18, $00
04765     1C 1C 18 18 
04769     18 18 18 3C 
0476d     3C 00 00 00 
04771     00 30 30 00 | 	byte	$1c, $1c, $18, $18, $18, $18, $18, $3c, $3c, $00, $00, $00, $00, $30, $30, $00
04775     30 30 30 30 
04779     30 30 30 30 
0477d     30          | 	byte	$30[9]
0477e     3E 1E 00 00 
04782     06 06 06 36 
04786     36 1E 1E 1E 
0478a     36 36 66 66 | 	byte	$3e, $1e, $00, $00, $06, $06, $06, $36, $36, $1e, $1e, $1e, $36, $36, $66, $66
0478e     00 00 00 00 
04792     1C 1C 18 18 
04796     18 18 18 18 
0479a     18 18 3C 3C | 	byte	$00, $00, $00, $00, $1c, $1c, $18, $18, $18, $18, $18, $18, $18, $18, $3c, $3c
0479e     00 00 00 00 
047a2     00 00 00    | 	byte	$00[7]
047a5     6C FE FE D6 
047a9     D6 C6 C6 C6 
047ad     C6 00 00 00 
047b1     00 00 00 00 | 	byte	$6c, $fe, $fe, $d6, $d6, $c6, $c6, $c6, $c6, $00, $00, $00, $00, $00, $00, $00
047b5     3E 7E 66 66 
047b9     66 66 66 66 
047bd     66 00 00 00 
047c1     00 00 00 00 | 	byte	$3e, $7e, $66, $66, $66, $66, $66, $66, $66, $00, $00, $00, $00, $00, $00, $00
047c5     3C 7E 66 66 
047c9     66 66 66 7E 
047cd     3C 00 00 00 
047d1     00 00 00 00 | 	byte	$3c, $7e, $66, $66, $66, $66, $66, $7e, $3c, $00, $00, $00, $00, $00, $00, $00
047d5     3E 7E 66 66 
047d9     66 66 66 7E 
047dd     3E 06 06 00 
047e1     00 00 00 00 | 	byte	$3e, $7e, $66, $66, $66, $66, $66, $7e, $3e, $06, $06, $00, $00, $00, $00, $00
047e5     7C 7E 66 66 
047e9     66 66 66 7E 
047ed     7C 60 60 00 
047f1     00 00 00 00 | 	byte	$7c, $7e, $66, $66, $66, $66, $66, $7e, $7c, $60, $60, $00, $00, $00, $00, $00
047f5     3E 7E 66 06 
047f9     06 06 06 06 
047fd     06 00 00 00 
04801     00 00 00 00 | 	byte	$3e, $7e, $66, $06, $06, $06, $06, $06, $06, $00, $00, $00, $00, $00, $00, $00
04805     7C 7E 06 0E 
04809     3C 70 60 7E 
0480d     3E 00 00 00 
04811     00 00 18 18 | 	byte	$7c, $7e, $06, $0e, $3c, $70, $60, $7e, $3e, $00, $00, $00, $00, $00, $18, $18
04815     7E 7E 18 18 
04819     18 18 18 78 
0481d     70 00 00 00 
04821     00 00 00 00 | 	byte	$7e, $7e, $18, $18, $18, $18, $18, $78, $70, $00, $00, $00, $00, $00, $00, $00
04825     66 66 66 66 
04829     66 66 66    | 	byte	$66[7]
0482c     7E 7C 00 00 
04830     00 00 00 00 
04834     00 66 66 66 
04838     66 66 3C 3C | 	byte	$7e, $7c, $00, $00, $00, $00, $00, $00, $00, $66, $66, $66, $66, $66, $3c, $3c
0483c     18 18 00 00 
04840     00 00 00 00 
04844     00 C6 C6 D6 
04848     D6 FE FE EE | 	byte	$18, $18, $00, $00, $00, $00, $00, $00, $00, $c6, $c6, $d6, $d6, $fe, $fe, $ee
0484c     C6 82 00 00 
04850     00 00 00 00 
04854     00 66 66 3C 
04858     3C 18 3C 3C | 	byte	$c6, $82, $00, $00, $00, $00, $00, $00, $00, $66, $66, $3c, $3c, $18, $3c, $3c
0485c     66 66 00 00 
04860     00 00 00 00 
04864     00 66 66 66 
04868     66 66 66 7E | 	byte	$66, $66, $00, $00, $00, $00, $00, $00, $00, $66, $66, $66, $66, $66, $66, $7e
0486c     7C 60 7E 3E 
04870     00 00 00 00 
04874     00 7E 7E 30 
04878     18 18 0C 0C | 	byte	$7c, $60, $7e, $3e, $00, $00, $00, $00, $00, $7e, $7e, $30, $18, $18, $0c, $0c
0487c     7E 7E 00 00 
04880     00 00 30 18 
04884     18 18 18 0C 
04888     0C 18 18 18 | 	byte	$7e, $7e, $00, $00, $00, $00, $30, $18, $18, $18, $18, $0c, $0c, $18, $18, $18
0488c     18 30 00 00 
04890     00 00 18 18 
04894     18 18 18 18 
04898     18 18 18 18 | 	byte	$18, $30, $00, $00, $00, $00, $18, $18, $18, $18, $18, $18, $18, $18, $18, $18
0489c     18 18 00 00 
048a0     00 00 0C 18 
048a4     18 18 18 30 
048a8     30 18 18 18 | 	byte	$18, $18, $00, $00, $00, $00, $0c, $18, $18, $18, $18, $30, $30, $18, $18, $18
048ac     18 0C 00 00 
048b0     00 00 6C 7E 
048b4     36 00 00 00 
048b8     00 00 00 00 | 	byte	$18, $0c, $00, $00, $00, $00, $6c, $7e, $36, $00, $00, $00, $00, $00, $00, $00
048bc     00 00 00 00 
048c0     00 00 00 00 
048c4     00          | 	byte	$00[9]
048c5     18 18 18 18 
048c9     18 18 00 00 
048cd     00 00 00    | 	byte	$18, $18, $18, $18, $18, $18, $00, $00, $00, $00, $00
048d0     00 00 00 00 
048d4     00 FF FF FF | twocolors      long  $00000000,$FFFFFF00
048d8     00 00 00 00 
048dc     00 80 80 80 
048e0     00 00 00 FF 
048e4     00 FF FF FF | fourcolors     long  $00000000,$80808000,$FF000000,$FFFFFF00 'black,red,gray,white
048e8     00 00 00 00 
048ec     00          | vga16          long  $00000000,$00008000,$00800000,$00808000,$80000000,$80008000,$80400000,$AAAAAA00,$55555500,$0000FF00,$00FF0000,$00FFFF00,$FF000000,$FF00FF00,$FFFF0000,$FFFFFF00
048ed     80 00 00 00 
048f1     00 80 00 00 
048f5     80 80 00 00 
048f9     00 00 80 00 | 	byte	$80, $00, $00, $00, $00, $80, $00, $00, $80, $80, $00, $00, $00, $00, $80, $00
048fd     80 00 80 00 
04901     00 40 80 00 
04905     AA AA AA 00 
04909     55 55 55 00 | 	byte	$80, $00, $80, $00, $00, $40, $80, $00, $aa, $aa, $aa, $00, $55, $55, $55, $00
0490d     FF 00 00 00 
04911     00 FF 00 00 
04915     FF FF 00 00 
04919     00 00 FF 00 | 	byte	$ff, $00, $00, $00, $00, $ff, $00, $00, $ff, $ff, $00, $00, $00, $00, $ff, $00
0491d     FF 00 FF 00 
04921     00 FF FF 00 
04925     FF FF FF    | 	byte	$ff, $00, $ff, $00, $00, $ff, $ff, $00, $ff, $ff, $ff
04928     00 00 00 00 
0492c     00          | ataripalette   file "ataripalettep2.def"
0492d     11 11 11 00 
04931     22 22 22 00 
04935     33 33 33 00 
04939     44 44 44 00 | 	byte	$11, $11, $11, $00, $22, $22, $22, $00, $33, $33, $33, $00, $44, $44, $44, $00
0493d     55 55 55 00 
04941     66 66 66 00 
04945     77 77 77 00 
04949     88 88 88 00 | 	byte	$55, $55, $55, $00, $66, $66, $66, $00, $77, $77, $77, $00, $88, $88, $88, $00
0494d     99 99 99 00 
04951     AA AA AA 00 
04955     BB BB BB 00 
04959     CC CC CC 00 | 	byte	$99, $99, $99, $00, $aa, $aa, $aa, $00, $bb, $bb, $bb, $00, $cc, $cc, $cc, $00
0495d     DD DD DD 00 
04961     EE EE EE 00 
04965     FF FF FF 00 
04969     00 0A 20 00 | 	byte	$dd, $dd, $dd, $00, $ee, $ee, $ee, $00, $ff, $ff, $ff, $00, $00, $0a, $20, $00
0496d     00 14 40 00 
04971     00 1E 60 00 
04975     00 28 80 00 
04979     00 32 9F 00 | 	byte	$00, $14, $40, $00, $00, $1e, $60, $00, $00, $28, $80, $00, $00, $32, $9f, $00
0497d     00 3C BF 00 
04981     00 46 DF 00 
04985     00 50 FF 00 
04989     1C 63 FF 00 | 	byte	$00, $3c, $bf, $00, $00, $46, $df, $00, $00, $50, $ff, $00, $1c, $63, $ff, $00
0498d     39 77 FF 00 
04991     55 8A FF 00 
04995     71 9E FF 00 
04999     8E B1 FF 00 | 	byte	$39, $77, $ff, $00, $55, $8a, $ff, $00, $71, $9e, $ff, $00, $8e, $b1, $ff, $00
0499d     AA C5 FF 00 
049a1     C6 D8 FF 00 
049a5     E3 EC FF 00 
049a9     00 00 20 00 | 	byte	$aa, $c5, $ff, $00, $c6, $d8, $ff, $00, $e3, $ec, $ff, $00, $00, $00, $20, $00
049ad     00 00 40 00 
049b1     00 00 60 00 
049b5     00 00 80 00 
049b9     00 00 9F 00 | 	byte	$00, $00, $40, $00, $00, $00, $60, $00, $00, $00, $80, $00, $00, $00, $9f, $00
049bd     00 00 BF 00 
049c1     00 00 DF 00 
049c5     00 00 FF 00 
049c9     1C 1C FF 00 | 	byte	$00, $00, $bf, $00, $00, $00, $df, $00, $00, $00, $ff, $00, $1c, $1c, $ff, $00
049cd     39 39 FF 00 
049d1     55 55 FF 00 
049d5     71 71 FF 00 
049d9     8E 8E FF 00 | 	byte	$39, $39, $ff, $00, $55, $55, $ff, $00, $71, $71, $ff, $00, $8e, $8e, $ff, $00
049dd     AA AA FF 00 
049e1     C6 C6 FF 00 
049e5     E3 E3 FF 00 
049e9     10 00 20 00 | 	byte	$aa, $aa, $ff, $00, $c6, $c6, $ff, $00, $e3, $e3, $ff, $00, $10, $00, $20, $00
049ed     20 00 40 00 
049f1     30 00 60 00 
049f5     40 00 80 00 
049f9     50 00 9F 00 | 	byte	$20, $00, $40, $00, $30, $00, $60, $00, $40, $00, $80, $00, $50, $00, $9f, $00
049fd     60 00 BF 00 
04a01     70 00 DF 00 
04a05     80 00 FF 00 
04a09     8E 1C FF 00 | 	byte	$60, $00, $bf, $00, $70, $00, $df, $00, $80, $00, $ff, $00, $8e, $1c, $ff, $00
04a0d     9C 39 FF 00 
04a11     AA 55 FF 00 
04a15     B8 71 FF 00 
04a19     C7 8E FF 00 | 	byte	$9c, $39, $ff, $00, $aa, $55, $ff, $00, $b8, $71, $ff, $00, $c7, $8e, $ff, $00
04a1d     D5 AA FF 00 
04a21     E3 C6 FF 00 
04a25     F1 E3 FF 00 
04a29     20 00 20 00 | 	byte	$d5, $aa, $ff, $00, $e3, $c6, $ff, $00, $f1, $e3, $ff, $00, $20, $00, $20, $00
04a2d     40 00 40 00 
04a31     60 00 60 00 
04a35     80 00 80 00 
04a39     9F 00 9F 00 | 	byte	$40, $00, $40, $00, $60, $00, $60, $00, $80, $00, $80, $00, $9f, $00, $9f, $00
04a3d     BF 00 BF 00 
04a41     DF 00 DF 00 
04a45     FF 00 FF 00 
04a49     FF 1C FF 00 | 	byte	$bf, $00, $bf, $00, $df, $00, $df, $00, $ff, $00, $ff, $00, $ff, $1c, $ff, $00
04a4d     FF 39 FF 00 
04a51     FF 55 FF 00 
04a55     FF 71 FF 00 
04a59     FF 8E FF 00 | 	byte	$ff, $39, $ff, $00, $ff, $55, $ff, $00, $ff, $71, $ff, $00, $ff, $8e, $ff, $00
04a5d     FF AA FF 00 
04a61     FF C6 FF 00 
04a65     FF E3 FF 00 
04a69     20 00 10 00 | 	byte	$ff, $aa, $ff, $00, $ff, $c6, $ff, $00, $ff, $e3, $ff, $00, $20, $00, $10, $00
04a6d     40 00 20 00 
04a71     60 00 30 00 
04a75     80 00 40 00 
04a79     9F 00 50 00 | 	byte	$40, $00, $20, $00, $60, $00, $30, $00, $80, $00, $40, $00, $9f, $00, $50, $00
04a7d     BF 00 60 00 
04a81     DF 00 70 00 
04a85     FF 00 80 00 
04a89     FF 1C 8E 00 | 	byte	$bf, $00, $60, $00, $df, $00, $70, $00, $ff, $00, $80, $00, $ff, $1c, $8e, $00
04a8d     FF 39 9C 00 
04a91     FF 55 AA 00 
04a95     FF 71 B8 00 
04a99     FF 8E C7 00 | 	byte	$ff, $39, $9c, $00, $ff, $55, $aa, $00, $ff, $71, $b8, $00, $ff, $8e, $c7, $00
04a9d     FF AA D5 00 
04aa1     FF C6 E3 00 
04aa5     FF E3 F1 00 
04aa9     20 00 00 00 | 	byte	$ff, $aa, $d5, $00, $ff, $c6, $e3, $00, $ff, $e3, $f1, $00, $20, $00, $00, $00
04aad     40 00 00 00 
04ab1     60 00 00 00 
04ab5     80 00 00 00 
04ab9     9F 00 00 00 | 	byte	$40, $00, $00, $00, $60, $00, $00, $00, $80, $00, $00, $00, $9f, $00, $00, $00
04abd     BF 00 00 00 
04ac1     DF 00 00 00 
04ac5     FF 00 00 00 
04ac9     FF 1C 1C 00 | 	byte	$bf, $00, $00, $00, $df, $00, $00, $00, $ff, $00, $00, $00, $ff, $1c, $1c, $00
04acd     FF 39 39 00 
04ad1     FF 55 55 00 
04ad5     FF 71 71 00 
04ad9     FF 8E 8E 00 | 	byte	$ff, $39, $39, $00, $ff, $55, $55, $00, $ff, $71, $71, $00, $ff, $8e, $8e, $00
04add     FF AA AA 00 
04ae1     FF C6 C6 00 
04ae5     FF E3 E3 00 
04ae9     20 08 00 00 | 	byte	$ff, $aa, $aa, $00, $ff, $c6, $c6, $00, $ff, $e3, $e3, $00, $20, $08, $00, $00
04aed     40 10 00 00 
04af1     60 18 00 00 
04af5     80 20 00 00 
04af9     9F 28 00 00 | 	byte	$40, $10, $00, $00, $60, $18, $00, $00, $80, $20, $00, $00, $9f, $28, $00, $00
04afd     BF 30 00 00 
04b01     DF 38 00 00 
04b05     FF 40 00 00 
04b09     FF 55 1C 00 | 	byte	$bf, $30, $00, $00, $df, $38, $00, $00, $ff, $40, $00, $00, $ff, $55, $1c, $00
04b0d     FF 6A 39 00 
04b11     FF 80 55 00 
04b15     FF 95 71 00 
04b19     FF AA 8E 00 | 	byte	$ff, $6a, $39, $00, $ff, $80, $55, $00, $ff, $95, $71, $00, $ff, $aa, $8e, $00
04b1d     FF BF AA 00 
04b21     FF D5 C6 00 
04b25     FF EA E3 00 
04b29     20 10 00 00 | 	byte	$ff, $bf, $aa, $00, $ff, $d5, $c6, $00, $ff, $ea, $e3, $00, $20, $10, $00, $00
04b2d     40 20 00 00 
04b31     60 30 00 00 
04b35     80 40 00 00 
04b39     9F 50 00 00 | 	byte	$40, $20, $00, $00, $60, $30, $00, $00, $80, $40, $00, $00, $9f, $50, $00, $00
04b3d     BF 60 00 00 
04b41     DF 70 00 00 
04b45     FF 80 00 00 
04b49     FF 8E 1C 00 | 	byte	$bf, $60, $00, $00, $df, $70, $00, $00, $ff, $80, $00, $00, $ff, $8e, $1c, $00
04b4d     FF 9C 39 00 
04b51     FF AA 55 00 
04b55     FF B8 71 00 
04b59     FF C7 8E 00 | 	byte	$ff, $9c, $39, $00, $ff, $aa, $55, $00, $ff, $b8, $71, $00, $ff, $c7, $8e, $00
04b5d     FF D5 AA 00 
04b61     FF E3 C6 00 
04b65     FF F1 E3 00 
04b69     20 18 00 00 | 	byte	$ff, $d5, $aa, $00, $ff, $e3, $c6, $00, $ff, $f1, $e3, $00, $20, $18, $00, $00
04b6d     40 30 00 00 
04b71     60 48 00 00 
04b75     80 60 00 00 
04b79     9F 78 00 00 | 	byte	$40, $30, $00, $00, $60, $48, $00, $00, $80, $60, $00, $00, $9f, $78, $00, $00
04b7d     BF 90 00 00 
04b81     DF A8 00 00 
04b85     FF C0 00 00 
04b89     FF C7 1C 00 | 	byte	$bf, $90, $00, $00, $df, $a8, $00, $00, $ff, $c0, $00, $00, $ff, $c7, $1c, $00
04b8d     FF CE 39 00 
04b91     FF D5 55 00 
04b95     FF DC 71 00 
04b99     FF E3 8E 00 | 	byte	$ff, $ce, $39, $00, $ff, $d5, $55, $00, $ff, $dc, $71, $00, $ff, $e3, $8e, $00
04b9d     FF EA AA 00 
04ba1     FF F1 C6 00 
04ba5     FF F8 E3 00 
04ba9     18 20 00 00 | 	byte	$ff, $ea, $aa, $00, $ff, $f1, $c6, $00, $ff, $f8, $e3, $00, $18, $20, $00, $00
04bad     30 40 00 00 
04bb1     48 60 00 00 
04bb5     60 80 00 00 
04bb9     78 9F 00 00 | 	byte	$30, $40, $00, $00, $48, $60, $00, $00, $60, $80, $00, $00, $78, $9f, $00, $00
04bbd     90 BF 00 00 
04bc1     A8 DF 00 00 
04bc5     C0 FF 00 00 
04bc9     C7 FF 1C 00 | 	byte	$90, $bf, $00, $00, $a8, $df, $00, $00, $c0, $ff, $00, $00, $c7, $ff, $1c, $00
04bcd     CE FF 39 00 
04bd1     D5 FF 55 00 
04bd5     DC FF 71 00 
04bd9     E3 FF 8E 00 | 	byte	$ce, $ff, $39, $00, $d5, $ff, $55, $00, $dc, $ff, $71, $00, $e3, $ff, $8e, $00
04bdd     EA FF AA 00 
04be1     F1 FF C6 00 
04be5     F8 FF E3 00 
04be9     00 20 00 00 | 	byte	$ea, $ff, $aa, $00, $f1, $ff, $c6, $00, $f8, $ff, $e3, $00, $00, $20, $00, $00
04bed     00 40 00 00 
04bf1     00 60 00 00 
04bf5     00 80 00 00 
04bf9     00 9F 00 00 | 	byte	$00, $40, $00, $00, $00, $60, $00, $00, $00, $80, $00, $00, $00, $9f, $00, $00
04bfd     00 BF 00 00 
04c01     00 DF 00 00 
04c05     00 FF 00 00 
04c09     1C FF 1C 00 | 	byte	$00, $bf, $00, $00, $00, $df, $00, $00, $00, $ff, $00, $00, $1c, $ff, $1c, $00
04c0d     39 FF 39 00 
04c11     55 FF 55 00 
04c15     71 FF 71 00 
04c19     8E FF 8E 00 | 	byte	$39, $ff, $39, $00, $55, $ff, $55, $00, $71, $ff, $71, $00, $8e, $ff, $8e, $00
04c1d     AA FF AA 00 
04c21     C6 FF C6 00 
04c25     E3 FF E3 00 
04c29     00 20 0A 00 | 	byte	$aa, $ff, $aa, $00, $c6, $ff, $c6, $00, $e3, $ff, $e3, $00, $00, $20, $0a, $00
04c2d     00 40 14 00 
04c31     00 60 1E 00 
04c35     00 80 28 00 
04c39     00 9F 32 00 | 	byte	$00, $40, $14, $00, $00, $60, $1e, $00, $00, $80, $28, $00, $00, $9f, $32, $00
04c3d     00 BF 3C 00 
04c41     00 DF 46 00 
04c45     00 FF 50 00 
04c49     1C FF 63 00 | 	byte	$00, $bf, $3c, $00, $00, $df, $46, $00, $00, $ff, $50, $00, $1c, $ff, $63, $00
04c4d     39 FF 77 00 
04c51     55 FF 8A 00 
04c55     71 FF 9E 00 
04c59     8E FF B1 00 | 	byte	$39, $ff, $77, $00, $55, $ff, $8a, $00, $71, $ff, $9e, $00, $8e, $ff, $b1, $00
04c5d     AA FF C5 00 
04c61     C6 FF D8 00 
04c65     E3 FF EC 00 
04c69     00 20 14 00 | 	byte	$aa, $ff, $c5, $00, $c6, $ff, $d8, $00, $e3, $ff, $ec, $00, $00, $20, $14, $00
04c6d     00 40 28 00 
04c71     00 60 3C 00 
04c75     00 80 50 00 
04c79     00 9F 64 00 | 	byte	$00, $40, $28, $00, $00, $60, $3c, $00, $00, $80, $50, $00, $00, $9f, $64, $00
04c7d     00 BF 78 00 
04c81     00 DF 8C 00 
04c85     00 FF A0 00 
04c89     1C FF AB 00 | 	byte	$00, $bf, $78, $00, $00, $df, $8c, $00, $00, $ff, $a0, $00, $1c, $ff, $ab, $00
04c8d     39 FF B5 00 
04c91     55 FF C0 00 
04c95     71 FF CA 00 
04c99     8E FF D5 00 | 	byte	$39, $ff, $b5, $00, $55, $ff, $c0, $00, $71, $ff, $ca, $00, $8e, $ff, $d5, $00
04c9d     AA FF DF 00 
04ca1     C6 FF EA 00 
04ca5     E3 FF F4 00 
04ca9     00 20 20 00 | 	byte	$aa, $ff, $df, $00, $c6, $ff, $ea, $00, $e3, $ff, $f4, $00, $00, $20, $20, $00
04cad     00 40 40 00 
04cb1     00 60 60 00 
04cb5     00 80 80 00 
04cb9     00 9F 9F 00 | 	byte	$00, $40, $40, $00, $00, $60, $60, $00, $00, $80, $80, $00, $00, $9f, $9f, $00
04cbd     00 BF BF 00 
04cc1     00 DF DF 00 
04cc5     00 FF FF 00 
04cc9     1C FF FF 00 | 	byte	$00, $bf, $bf, $00, $00, $df, $df, $00, $00, $ff, $ff, $00, $1c, $ff, $ff, $00
04ccd     39 FF FF 00 
04cd1     55 FF FF 00 
04cd5     71 FF FF 00 
04cd9     8E FF FF 00 | 	byte	$39, $ff, $ff, $00, $55, $ff, $ff, $00, $71, $ff, $ff, $00, $8e, $ff, $ff, $00
04cdd     AA FF FF 00 
04ce1     C6 FF FF 00 
04ce5     E3 FF FF 00 
04ce9     00 14 20 00 | 	byte	$aa, $ff, $ff, $00, $c6, $ff, $ff, $00, $e3, $ff, $ff, $00, $00, $14, $20, $00
04ced     00 28 40 00 
04cf1     00 3C 60 00 
04cf5     00 50 80 00 
04cf9     00 64 9F 00 | 	byte	$00, $28, $40, $00, $00, $3c, $60, $00, $00, $50, $80, $00, $00, $64, $9f, $00
04cfd     00 78 BF 00 
04d01     00 8C DF 00 
04d05     00 A0 FF 00 
04d09     1C AB FF 00 | 	byte	$00, $78, $bf, $00, $00, $8c, $df, $00, $00, $a0, $ff, $00, $1c, $ab, $ff, $00
04d0d     39 B5 FF 00 
04d11     55 C0 FF 00 
04d15     71 CA FF 00 
04d19     8E D5 FF 00 | 	byte	$39, $b5, $ff, $00, $55, $c0, $ff, $00, $71, $ca, $ff, $00, $8e, $d5, $ff, $00
04d1d     AA DF FF 00 
04d21     C6 EA FF 00 
04d25     E3 F4 FF    | 	byte	$aa, $df, $ff, $00, $c6, $ea, $ff, $00, $e3, $f4, $ff
04d28                 | '**********************************************************************************
04d28                 | '
04d28                 | '        Timings and colors definitions
04d28                 | '
04d28                 | '**********************************************************************************
04d28                 | 
04d28                 |    'streamer sets for text mode, to add to timings[0..5]
04d28                 | 
04d28                 | 
04d28                 | '                     bf.hs, hs,  bf.vis  visible, lr bord, pixel, ud bord,  up p., vsync, down p., mode, cpl, scanlines,  clock,                  hubset                  total vis lines
04d28     10 00 00 00 
04d2c     50 00 00 00 
04d30     14 00 00 00 
04d34     00 04 00 00 | timings000      long   16,   80,    20,    1024,    112,     8,     48,      16,      16,    16,      0,  100,   480,     354693878,   %1_110000__11_0110_1100__1111_1011,   576
04d38     70 00 00 00 
04d3c     08 00 00 00 
04d40     30 00 00 00 
04d44     10 00 00 00 | 	byte	$70, $00, $00, $00, $08, $00, $00, $00, $30, $00, $00, $00, $10, $00, $00, $00
04d48     10 00 00 00 
04d4c     10 00 00 00 
04d50     00 00 00 00 
04d54     64 00 00 00 | 	byte	$10, $00, $00, $00, $10, $00, $00, $00, $00, $00, $00, $00, $64, $00, $00, $00
04d58     E0 01 00 00 
04d5c     F6 32 24 15 
04d60     FB 6C C3 01 
04d64     40 02 00 00 | 	byte	$e0, $01, $00, $00, $f6, $32, $24, $15, $fb, $6c, $c3, $01, $40, $02, $00, $00
04d68     12 00 00 00 
04d6c     30 00 00 00 
04d70     10 00 00 00 
04d74     B0 03 00 00 | timings064      long   18,   48,    16,     944,     24,     8,     24,      24,      32,    24,     64,  112,   496,     319215686,   %1_110010__11_0010_1101__1111_1011,   544
04d78     18 00 00 00 
04d7c     08 00 00 00 
04d80     18 00 00 00 
04d84     18 00 00 00 | 	byte	$18, $00, $00, $00, $08, $00, $00, $00, $18, $00, $00, $00, $18, $00, $00, $00
04d88     20 00 00 00 
04d8c     18 00 00 00 
04d90     40 00 00 00 
04d94     70 00 00 00 | 	byte	$20, $00, $00, $00, $18, $00, $00, $00, $40, $00, $00, $00, $70, $00, $00, $00
04d98     F0 01 00 00 
04d9c     46 D8 06 13 
04da0     FB 2D CB 01 
04da4     20 02 00 00 | 	byte	$f0, $01, $00, $00, $46, $d8, $06, $13, $fb, $2d, $cb, $01, $20, $02, $00, $00
04da8     10 00 00 00 
04dac     40 00 00 00 
04db0     10 00 00 00 
04db4     30 03 00 00 | timings128      long   16,   64,    16,     816,      8,     8,     8,       32,      64,    32,    128,  100,   480,     283750000,   %1_111111__11_1000_1011__1111_1011,   496
04db8     08 00 00 00 
04dbc     08 00 00 00 
04dc0     08 00 00 00 
04dc4     20 00 00 00 | 	byte	$08, $00, $00, $00, $08, $00, $00, $00, $08, $00, $00, $00, $20, $00, $00, $00
04dc8     40 00 00 00 
04dcc     20 00 00 00 
04dd0     80 00 00 00 
04dd4     64 00 00 00 | 	byte	$40, $00, $00, $00, $20, $00, $00, $00, $80, $00, $00, $00, $64, $00, $00, $00
04dd8     E0 01 00 00 
04ddc     70 AE E9 10 
04de0     FB 8B FF 01 
04de4     F0 01 00 00 | 	byte	$e0, $01, $00, $00, $70, $ae, $e9, $10, $fb, $8b, $ff, $01, $f0, $01, $00, $00
04de8     10 00 00 00 
04dec     50 00 00 00 
04df0     14 00 00 00 
04df4     00 04 00 00 | timings192      long   16,   80,    20,    1024,      0,     8,     0,       16,      16,    16,    192,  128,   576,     354693878,   %1_110000__11_0110_1100__1111_1011,   576
04df8     00 00 00 00 
04dfc     08 00 00 00 
04e00     00 00 00 00 
04e04     10 00 00 00 | 	byte	$00, $00, $00, $00, $08, $00, $00, $00, $00, $00, $00, $00, $10, $00, $00, $00
04e08     10 00 00 00 
04e0c     10 00 00 00 
04e10     C0 00 00 00 
04e14     80 00 00 00 | 	byte	$10, $00, $00, $00, $10, $00, $00, $00, $c0, $00, $00, $00, $80, $00, $00, $00
04e18     40 02 00 00 
04e1c     F6 32 24 15 
04e20     FB 6C C3 01 
04e24     40 02 00 00 | 	byte	$40, $02, $00, $00, $f6, $32, $24, $15, $fb, $6c, $c3, $01, $40, $02, $00, $00
04e28     50 00 00 00 
04e2c     A0 00 00 00 
04e30     54 00 00 00 
04e34     30 03 00 00 | timings256      long   80,  160,    84,     816,      8,     8,     8,        8,      12,     8,    256,  100,   480,     357959184,   %1_110000__11_0110_0100__1111_1011,   496
04e38     08 00 00 00 
04e3c     08 00 00 00 
04e40     08 00 00 00 
04e44     08 00 00 00 | 	byte	$08, $00, $00, $00, $08, $00, $00, $00, $08, $00, $00, $00, $08, $00, $00, $00
04e48     0C 00 00 00 
04e4c     08 00 00 00 
04e50     00 01 00 00 
04e54     64 00 00 00 | 	byte	$0c, $00, $00, $00, $08, $00, $00, $00, $00, $01, $00, $00, $64, $00, $00, $00
04e58     E0 01 00 00 
04e5c     10 06 56 15 
04e60     FB 64 C3 01 
04e64     F0 01 00 00 | 	byte	$e0, $01, $00, $00, $10, $06, $56, $15, $fb, $64, $c3, $01, $f0, $01, $00, $00
04e68     50 00 00 00 
04e6c     32 00 00 00 
04e70     50 00 00 00 
04e74     30 03 00 00 | timings320      long   80,   50,    80,     816,      8,     8,     8,        8,      12,     8,    320,  100,   480,     322162162,   %1_100100__10_0101_0011__1111_1011,   496
04e78     08 00 00 00 
04e7c     08 00 00 00 
04e80     08 00 00 00 
04e84     08 00 00 00 | 	byte	$08, $00, $00, $00, $08, $00, $00, $00, $08, $00, $00, $00, $08, $00, $00, $00
04e88     0C 00 00 00 
04e8c     08 00 00 00 
04e90     40 01 00 00 
04e94     64 00 00 00 | 	byte	$0c, $00, $00, $00, $08, $00, $00, $00, $40, $01, $00, $00, $64, $00, $00, $00
04e98     E0 01 00 00 
04e9c     F2 CD 33 13 
04ea0     FB 53 92 01 
04ea4     F0 01 00 00 | 	byte	$e0, $01, $00, $00, $f2, $cd, $33, $13, $fb, $53, $92, $01, $f0, $01, $00, $00
04ea8     18 00 00 00 
04eac     30 00 00 00 
04eb0     18 00 00 00 
04eb4     30 03 00 00 | timings384      long   24,   48,    24,     816,      8,     8,     8,        8,      12,     8,    384,  100,   480,     286363636,   %1_010101__01_0011_1010__1111_1011,   496
04eb8     08 00 00 00 
04ebc     08 00 00 00 
04ec0     08 00 00 00 
04ec4     08 00 00 00 | 	byte	$08, $00, $00, $00, $08, $00, $00, $00, $08, $00, $00, $00, $08, $00, $00, $00
04ec8     0C 00 00 00 
04ecc     08 00 00 00 
04ed0     80 01 00 00 
04ed4     64 00 00 00 | 	byte	$0c, $00, $00, $00, $08, $00, $00, $00, $80, $01, $00, $00, $64, $00, $00, $00
04ed8     E0 01 00 00 
04edc     F4 8F 11 11 
04ee0     FB 3A 55 01 
04ee4     F0 01 00 00 | 	byte	$e0, $01, $00, $00, $f4, $8f, $11, $11, $fb, $3a, $55, $01, $f0, $01, $00, $00
04ee8     20 00 00 00 
04eec     40 00 00 00 
04ef0     22 00 00 00 
04ef4     80 03 00 00 | timings448      long   32,   64,    34,     896,      0,     8,     0,        8,      12,     8,    448,  112,   496,     322162162,   %1_100100__10_0101_0011__1111_1011,   496
04ef8     00 00 00 00 
04efc     08 00 00 00 
04f00     00 00 00 00 
04f04     08 00 00 00 | 	byte	$00, $00, $00, $00, $08, $00, $00, $00, $00, $00, $00, $00, $08, $00, $00, $00
04f08     0C 00 00 00 
04f0c     08 00 00 00 
04f10     C0 01 00 00 
04f14     70 00 00 00 | 	byte	$0c, $00, $00, $00, $08, $00, $00, $00, $c0, $01, $00, $00, $70, $00, $00, $00
04f18     F0 01 00 00 
04f1c     F2 CD 33 13 
04f20     FB 53 92 01 
04f24     F0 01 00 00 | 	byte	$f0, $01, $00, $00, $f2, $cd, $33, $13, $fb, $53, $92, $01, $f0, $01, $00, $00
04f28                 | 'timings999      long    0,    0,     0,       0,      0,     0,     0,        0,       0,     0,      0,    0,     0,             0,                                    0,     0
04f28     00 75 C7 97 
04f2c     27 47 F6 0A 
04f30     05 79 CB 9B 
04f34     2B 4B EA 0F | vgacolors       byte   0, 117, 199, 151, 39, 71, 246, 10, 5, 121, 203, 155, 43, 75, 234, 15
04f38                 | 
04f38     28 12 64 FD | hdmi            setq    #9
04f3c     00 E1 06 FB |                 rdlong  framebuf,  ptra                  'read pointers
04f40                 | 
04f40     00 28 6F FC |                 wrlong  #aend,#0                         'write driver length to hub#0: DEBUG/demo
04f44     3C 00 66 FD |                 setcmod #$100                            'enable HDMI mode
04f48     C0 FB 06 F6 |                 mov     ii,#448                          '7 << 6          
04f4c     79 FB 02 F1 |                 add     ii,hbase
04f50     58 FA 62 FD |                 drvl    ii                                 '#7<<6 + hdmi_base      ' enable HDMI pins
04f54     7B 0B 80 FF 
04f58     7D 01 0B FC |                 wrpin   ##%10110_1111_0111_10_00000_0, ii  '#7<<6 + hdmi_base      ' a '123 ohm BITDAC for pins
04f5c                 | 
04f5c     66 66 86 FF 
04f60     1D 9A 65 FD |                 setxfrq ##$0CCCCCCC+1                   'set streamer freq to 1/10th clk
04f64                 | 
04f64                 | 
04f64                 | ''--------  frame rendering main loop  ---------------------------------------------------
04f64                 | 
04f64                 | p101
04f64     28 14 64 FD |                 setq    #10
04f68     00 E1 06 FB |                 rdlong  framebuf,  ptra
04f6c     28 1E 64 FD |                 setq    #15
04f70     75 9D 02 FB |                 rdlong  m_bs,modeptr                     ' read timings
04f74     72 9B 02 FB |                 rdlong  border,borderptr
04f78                 | 
04f78     01 C6 06 F1 |                 add     frames,#1
04f7c     77 F7 02 F6 |                 mov     dlptr2,dlptr
04f80                 | 
04f80     74 C9 02 FB |                 rdlong  cursorx, cursorptr               ' read cursor position
04f84     64 CB EA F8 |                 getbyte cursory, cursorx,#1              ' y position at byte #1
04f88     64 C5 F2 F8 |                 getbyte cursorsh,cursorx,#2              ' shape at byte #2
04f8c     FF C8 06 F5 |                 and     cursorx,#255                     ' clear the cursor x varioble from y and shape
04f90                 |  '' up porch
04f90                 | 
04f90     49 FF 02 F6 |                 mov     hsync0,sync_000                  '
04f94     4A 01 03 F6 |                 mov     hsync1,sync_001
04f98     37 AA 46 FB |                 callpa  i_upporch ,#blank
04f9c     73 01 68 FC |                 wrlong  #0,vblankptr
04fa0                 |                 
04fa0     1F EC 16 F4 |                 testb   paletteptr,#31 wc
04fa4     29 FE 65 3D |          if_nc  setq2   #255
04fa8     76 01 00 3B |          if_nc  rdlong  $000, paletteptr                'read palette
04fac                 | 
04fac                 | '' cursor blinking
04fac                 | 
04fac     04 C6 0E F4 |                 testb   frames,#4 wz                     ' cursor blinks at framerate/16, todo: define
04fb0     81 C8 06 A6 |          if_z   mov     cursorx,#129                     ' to switch the cursor off, move it out of the screen
04fb4                 | 
04fb4                 | '' main screen
04fb4                 | 
04fb4     00 C0 06 F6 |                 mov linenum,#0
04fb8     00 1A 07 F6 |                 mov rcnt,#0
04fbc     00 1E 07 F6 |                 mov rcnt2a,#0
04fc0                 | 
04fc0                 | 
04fc0     00 1A 0F F2 | p301            cmp rcnt,#0 wz
04fc4     18 00 90 AD |         if_z    jmp #p306
04fc8     01 1A 87 F1 |                 sub rcnt,#1
04fcc     91 F9 02 F6 |                 mov dl,rdl
04fd0     8E 1F 0B F7 |                incmod rcnt2a,rcnt2 wz
04fd4     90 F9 02 A1 |    if_z        add dl,roffset  
04fd8     7C 23 03 F6 |                 mov rdl,dl
04fdc     04 00 90 FD |                 jmp #p307          
04fe0                 |           
04fe0                 |                 
04fe0     7B F9 02 FB | p306            rdlong  dl,dlptr2
04fe4     7C FD 1A F6 | p307            mov     framebuf2,dl wcz                  'read a line start in the framebuffer from DL entry
04fe8     6A FC 7A FD |                 rczr    framebuf2 wcz                     'but only if not %11 at lowest bits which means special DL entry
04fec     34 00 90 7D |    if_nz_or_nc  jmp     #p303                        
04ff0                 | 
04ff0                 | '' Special entry:
04ff0                 | '' - repeat                 %nnnn_nnnn_nnnn_qqqq_mmmm_mmmm_mmmm_0111    repeat the next dl line n times, after q lines add offset m
04ff0                 | '' - reload palette         %mmmm_mmmm_nnnn_nnnn_qqqq_qqqq_qqqq_1011    reload n palette entries from m color from palette_ptr+q
04ff0                 | '' - set border color       %rrrr_rrrr_gggg_gggg_bbbb_bbbb_0001_0011    set border to rgb
04ff0                 | '' - set border color       %0000_0000_0000_0000_pppp_pppp_0001_1011    set border color to palette entry #p
04ff0                 | '' todo: set horizontal scroll (if needed)
04ff0                 | 
04ff0     02 FC 66 F0 |                 shl framebuf2,#2
04ff4     7E 25 43 F8 |                 getnib dlc,framebuf2,#0
04ff8     04 24 0F F2 |                 cmp dlc,#%100 wz
04ffc                 |   
04ffc                 |                 
04ffc     04 F6 06 F1 |                 add dlptr2,#4
05000     BC FF 9F 5D |                              if_nz  jmp #p301  '' now ignore unknown instruction 
05004     7B 23 03 FB |                  rdlong rdl,dlptr2
05008     7E 1B 3B F9 |                  getword rcnt,framebuf2,#1 
0500c     04 1A 47 F0 |                  shr rcnt,#4
05010                 |              
05010     7E 1D 63 F8 |                  getnib rcnt2,framebuf2,#4
05014     7E 21 33 F9 |                  getword roffset,framebuf2,#0
05018                 |                 
05018     04 20 47 F0 |                  shr roffset,#4
0501c     0C 20 67 F0 |                  shl roffset,#12
05020                 |   
05020     9C FF 9F FD |                  jmp #p301
05024                 |                  
05024                 |                  
05024                 | p303           ' mov     framebuf2,dl                    ' read a line start in the framebuffer from DL entry
05024     0C FC 46 F0 |                 shr     framebuf2,#12
05028     02 FC 66 F0 |                 shl     framebuf2,#2
0502c                 | 
0502c     7C 05 E3 F8 |                 getbyte t1,dl,#0
05030     00 04 0F F2 |                 cmp     t1,#0 wz
05034     34 00 90 AD |     if_z        jmp     #borderline
05038                 | 
05038     00 F8 16 F4 |                  testb   dl,#0  wc     ' bit 0 set = text OR extended:TODO
0503c     50 00 90 CD |           if_c   jmp     #textline
05040     50 02 90 3D |           if_nc  jmp     #graphline
05044                 | '
05044     01 C0 06 F1 | p302            add     linenum,#1
05048     04 F6 06 F1 |                 add     dlptr2,#4
0504c     5D C1 0A F2 |                 cmp     linenum,i_totalvis  wz
05050     6C FF 9F 5D |          if_nz  jmp     #p301
05054                 | 
05054     73 03 68 FC | p112            wrlong  #1,vblankptr
05058     07 AE 46 FB |                 callpa  i_downporch ,#blank             'bottom blanks
0505c                 | 
0505c     4B FF 02 F6 |                 mov     hsync0,sync_222                 'vsync on
05060     4C 01 03 F6 |                 mov     hsync1,sync_223
05064     04 AC 46 FB |                 callpa  i_vsync,#blank                  'vertical sync blanks
05068     F8 FE 9F FD |                 jmp     #p101
0506c                 | 
0506c                 | '' ---------------  END of frame rendering loop -------------------------------------------
0506c                 | 
0506c                 | 
0506c     14 00 B0 FD | borderline      call    #hsync                      ' make a border
05070     4D A3 C2 FC |                 xcont   m_vi,border
05074     CC FF 9F FD |                 jmp     #p302
05078                 | 
05078                 | 
05078     08 00 B0 FD | blank           call    #hsync                          'blank lines
0507c     7F A3 C2 FC |                 xcont   m_vi,hsync0
05080     FD ED 6F 0B |         _ret_   djnz    pa,#blank
05084                 | 
05084     7F 9D C2 FC | hsync           xcont   m_bs,hsync0                     'horizontal sync
05088     80 9F B2 FC |                 xzero   m_sn,hsync1
0508c     7F A1 C2 0C |         _ret_   xcont   m_bv,hsync0
05090                 | 
05090                 | 
05090                 | 
05090                 | ''--%aaaa_aaaa_aaaa_aaaa_aazz_nnnn_llll_ll_01 - txt
05090                 |   '' aaaa_aaaa_aaaa_aaaa_aazz_rrrr_rrrr_cc_10 - graph
05090                 |   '' aaaa_aaaa_aaaa-aaaa_aarr_rrrr_rrrr_rr_11 - extended, next long to read
05090                 | 
05090                 | '' Display a text line DL[31..12]=addr, nibble #1=textline, zoom: todo
05090                 | 
05090     64 CF 02 F6 | textline        mov     cursorpos2,cursorx              ' we need another var for cursor as this code will repeat 16x for every char line
05094                 | 
05094     7C 03 53 F8 |                 getnib  fontline,dl,#2                 ' fontline is 0 to 15, a line in font def
05098     7C 19 5B F8 |                 getnib  zoom, dl,#3
0509c     03 18 07 F5 |                 and             zoom, #3
050a0                 | 
050a0                 | 
050a0                 | 
050a0     7C BF 02 F6 |                 mov     linestart,dl                    ' linestart will be used for checking cursor y and compute line start addr in the buffer
050a4     02 BE 46 F0 |                 shr     linestart,#2                    ' scanline to char line
050a8     3F BE 06 F5 |                 and     linestart,#63
050ac     65 BF 0A F2 |                 cmp     linestart,cursory wz            ' if the cursor is not here
050b0     81 CE 06 56 |           if_nz mov     cursorpos2,#129                 ' move it out of the screen
050b4                 | 
050b4     CC FF BF FD |                 call    #hsync                          ' now call hsync to gain some time between xconts
050b8                 | 
050b8                 |                        ' if fontline =0, get a border color
050b8                 | 
050b8     52 05 33 F9 | p102            getword t1,m_border,#0
050bc     00 04 0F F2 |                 cmp     t1, #0 wz
050c0     4D A5 C2 5C |           if_nz xcont   m_border,border                 ' display a left border if exists
050c4                 | 
050c4     62 03 1B F2 |                 cmp     fontline,cursorsh wcz           ' if the cursor have to be not displayed due to its shape
050c8     81 CC 06 C6 |           if_c  mov     cursorpos,#129                  ' move it out of the screen
050cc     67 CD 02 36 |          if_nc  mov     cursorpos,cursorpos2
050d0     01 CC 06 F1 |                 add     cursorpos,#1                    ' we will substract #1 below so compensate this here
050d4     71 07 03 F6 |                 mov     t2,fontbuf                      ' font definition pointer
050d8     81 07 03 F1 |                 add     t2,fontline                     ' add a current font line
050dc     53 BD 02 F6 |                 mov m_lut2, m_lut1
050e0     6B BD 02 F1 |                 add m_lut2, lutt1
050e4     59 11 03 F6 |                 mov cpl2,i_cpl
050e8                 | 
050e8     02 18 0F F2 |                cmp zoom,#2 wz
050ec     E4 00 90 AD |           if_z jmp #p420
050f0     01 18 0F F2 |                cmp zoom,#1 wz
050f4     64 00 90 AD |           if_z jmp #p410
050f8     00 18 0F F2 |                 cmp zoom,#0 wz
050fc     04 00 90 AD |           if_z jmp #p400
05100     50 01 90 FD |                jmp #p430
05104                 | 
05104                 |                    '
05104                 |  ''---------------------------------------------------------------------------------------------------------
05104     7E 13 03 FB |  p400                   rdlong  char,framebuf2          ' read a long char                          '1
05108     89 15 F3 F8 |                         getbyte backcolor,char,#2       ' byte #2 - background color                '2
0510c     89 17 FB F8 |                         getbyte charcolor,char,#3       ' byte #3 - foreground color                '3
05110     89 13 E3 F8 |                         getbyte char,char, #0           ' word #0 - char code                       '4
05114     04 FC 06 F1 |                         add     framebuf2,#4            ' point to the next long                    '5
05118     04 12 67 F0 |                         shl     char,#4                 ' 1 char=16 bytes in font def               '6
0511c     83 13 03 F1 |                         add     char,t2                 ' add this to font/line pointer             '7
05120     89 05 C3 FA |                         rdbyte  t1,char                 ' and get 8 pixels prom there               '8
05124     01 CC 8E F1 |                         sub     cursorpos,#1 wz         ' if there is a cursor                      '9
05128     FF 04 67 A5 |                   if_z  xor     t1, #$FF                ' reverse the colors                        '10
0512c                 | 
0512c     82 BD C2 FC |                         xcont m_lut2,t1
05130                 | 
05130     8A 0D A3 FA |                         rdlut   t5,backcolor            ' read a background color from palette      '13
05134     61 0D 33 FC |                         wrlut   t5,lutaddr              ' and write it to LUT #0 or #32             '14
05138     01 C2 06 F1 |                         add     lutaddr,#1                                                          '15
0513c     8B 0D A3 FA |                         rdlut   t5,charcolor            ' the same for the foreground               '16
05140     61 0D 33 FC |                         wrlut   t5,lutaddr                                                          '17
05144     01 C2 86 F1 |                         sub     lutaddr,#1
05148                 | 
05148     10 BC E6 F4 |                         bitnot  m_lut2,#16                                                          '19
0514c     10 A6 E6 F4 |                         bitnot  m_lut1,#16                                                          '19
05150     20 C2 66 F5 |                         xor     lutaddr,#32             ' use LUT #0-1 and 32-33                    '20
05154                 | 
05154     EB 11 6F FB |                         djnz   cpl2,#p400
05158     28 01 90 FD |  p401                   jmp    #p103
0515c                 | 
0515c                 | ''------------------------------------------------------------------------------------------------------------
0515c                 | 
0515c     01 10 47 F0 |  p410                   shr cpl2,#1
05160                 | 
05160                 | ''---------------------------------------------------------------------------------------------------------
05160     7E 13 03 FB |  p412                   rdlong  char,framebuf2          ' read a long char                          '1
05164     89 15 F3 F8 |                         getbyte backcolor,char,#2       ' byte #2 - background color                '2
05168     89 17 FB F8 |                         getbyte charcolor,char,#3       ' byte #3 - foreground color                '3
0516c     89 13 E3 F8 |                         getbyte char,char, #0           ' word #0 - char code                       '4
05170     04 FC 06 F1 |                         add     framebuf2,#4            ' point to the next long                    '5
05174     04 12 67 F0 |                         shl     char,#4                 ' 1 char=16 bytes in font def               '6
05178     83 13 03 F1 |                         add     char,t2                 ' add this to font/line pointer             '7
0517c     89 05 C3 FA |                         rdbyte  t1,char                 ' and get 8 pixels prom there               '8
05180     01 CC 8E F1 |                         sub     cursorpos,#1 wz         ' if there is a cursor                      '9
05184     FF 04 67 A5 |                   if_z  xor     t1, #$FF                ' reverse the colors                        '10
05188                 | 
05188                 | 
05188     82 09 4B F8 |                         getnib t3,t1,#1                   ' 4 pixels to t3                                              '1  - +
0518c     82 05 43 F8 |                         getnib t1,t1,#0                   ' 4 pixels to t1                                                      '2  - +
05190     63 04 63 FD |                         mergew t1                         ' make 01010101 from 1111                                     '3  - +
05194     03 04 07 FA |                         mul t1,#3
05198     82 BD C2 FC |                         xcont m_lut2,t1
0519c     8A 0D A3 FA |                         rdlut   t5,backcolor            ' read a background color from palette      '13
051a0     61 0D 33 FC |                         wrlut   t5,lutaddr              ' and write it to LUT #0 or #32             '14
051a4     01 C2 06 F1 |                         add     lutaddr,#1                                                          '15
051a8     8B 0D A3 FA |                         rdlut   t5,charcolor            ' the same for the foreground               '16
051ac     61 0D 33 FC |                         wrlut   t5,lutaddr                                                          '17
051b0     01 C2 86 F1 |                         sub     lutaddr,#1
051b4     63 08 63 FD |                         mergew t3
051b8     03 08 07 FA |                         mul t3,#3
051bc     84 BD C2 FC |                         xcont m_lut2,t3
051c0                 | 
051c0     10 BC E6 F4 |                         bitnot  m_lut2,#16                                                          '19
051c4     10 A6 E6 F4 |                         bitnot  m_lut1,#16                                                          '19
051c8                 | 
051c8     20 C2 66 F5 |                         xor     lutaddr,#32             ' use LUT #0-1 and 32-33                    '20
051cc                 | 
051cc     E4 11 6F FB |                         djnz   cpl2,#p412
051d0     B0 00 90 FD |  p411                   jmp    #p103
051d4                 | 
051d4                 | ''------------------------------------------------------------------------------------------------------------
051d4                 | 
051d4     02 10 47 F0 |  p420                   shr cpl2,#2
051d8                 | 
051d8                 | ''---------------------------------------------------------------------------------------
051d8     7E 13 03 FB |  p422                   rdlong  char,framebuf2          ' read a long char                          '1
051dc     89 15 F3 F8 |                         getbyte backcolor,char,#2       ' byte #2 - background color                '2
051e0     89 17 FB F8 |                         getbyte charcolor,char,#3       ' byte #3 - foreground color                '3
051e4     89 13 E3 F8 |                         getbyte char,char, #0           ' word #0 - char code                       '4
051e8     04 FC 06 F1 |                         add     framebuf2,#4            ' point to the next long                    '5
051ec     04 12 67 F0 |                         shl     char,#4                 ' 1 char=16 bytes in font def               '6
051f0     83 13 03 F1 |                         add     char,t2                 ' add this to font/line pointer             '7
051f4     89 05 C3 FA |                         rdbyte  t1,char                 ' and get 8 pixels prom there               '8
051f8     01 CC 8E F1 |                         sub     cursorpos,#1 wz         ' if there is a cursor                      '9
051fc     FF 04 67 A5 |                   if_z  xor     t1, #$FF                ' reverse the colors                        '10
05200                 | 
05200     61 04 63 FD |                         mergeb t1
05204     82 09 3B F9 |                         getword t3,t1,#1
05208     0F 04 07 FA |                         mul t1,#15
0520c     82 BD C2 FC |                         xcont m_lut2,t1
05210                 | 
05210     8A 0D A3 FA |                         rdlut   t5,backcolor            ' read a background color from palette      '13
05214     61 0D 33 FC |                         wrlut   t5,lutaddr              ' and write it to LUT #0 or #32             '14
05218     01 C2 06 F1 |                         add     lutaddr,#1                                                          '15
0521c     8B 0D A3 FA |                         rdlut   t5,charcolor            ' the same for the foreground               '16
05220     61 0D 33 FC |                         wrlut   t5,lutaddr                                                          '17
05224     01 C2 86 F1 |                         sub     lutaddr,#1
05228                 | 
05228     82 0B EB F8 |                         getbyte t4,t1,#1        '
0522c     85 BD C2 FC |                         xcont m_lut2,t4                                                                                                           '
05230                 | 
05230     0F 08 07 FA |                         mul t3,#15
05234     84 BD C2 FC |                         xcont m_lut2,t3
05238                 | 
05238     84 0D EB F8 |                         getbyte t5,t3,#1
0523c     86 BD C2 FC |                         xcont m_lut2, t5
05240     10 BC E6 F4 |                         bitnot  m_lut2,#16                                                          '19
05244     10 A6 E6 F4 |                         bitnot  m_lut1,#16                                                          '19
05248                 | 
05248     20 C2 66 F5 |                         xor     lutaddr,#32             ' use LUT #0-1 and 32-33                    '20
0524c                 | 
0524c     E2 11 6F FB |                         djnz   cpl2,#p422
05250     30 00 90 FD |  p421                   jmp    #p103
05254                 | 
05254                 | '--------------------------------------------------------------------------------------------------------------
05254                 | 
05254     7E 13 03 FB |  p430                   rdlong  char,framebuf2          ' read a long char                          '1
05258     89 15 F3 F8 |                         getbyte backcolor,char,#2       ' byte #2 - background color                '2
0525c     89 17 FB F8 |                         getbyte charcolor,char,#3       ' byte #3 - foreground color                '3
05260                 | 
05260     00 BC C6 FC |                         xcont m_lut2,#0
05264                 | 
05264     8A 0D A3 FA |                         rdlut   t5,backcolor            ' read a background color from palette      '13
05268     61 0D 33 FC |                         wrlut   t5,lutaddr              ' and write it to LUT #0 or #32             '14
0526c     01 C2 06 F1 |                         add     lutaddr,#1                                                          '15
05270     8B 0D A3 FA |                         rdlut   t5,charcolor            ' the same for the foreground               '16
05274     61 0D 33 FC |                         wrlut   t5,lutaddr                                                          '17
05278     01 C2 86 F1 |                         sub     lutaddr,#1
0527c                 | 
0527c     F5 11 6F FB |                         djnz   cpl2,#p430
05280     00 00 90 FD |  p431                   jmp    #p103
05284                 | 
05284                 | ''------------------------------------------------------------------------------------------------------------
05284                 | 
05284                 | 
05284                 | 
05284     52 27 33 F9 | p103            getword  mb2,m_border,#0
05288     00 26 0F F2 |                 cmp      mb2, #0 wz
0528c     4D A5 C2 5C |                 if_nz    xcont   m_border,border            'display a right border if exists
05290                 | 
05290     B0 FD 9F FD |                 jmp #p302
05294                 | 
05294                 | '' -------------------------------------- END of text line ---------------------------------
05294                 | 
05294                 |   '' aaaa_aaaa_aaaa_aaaa_aazz_rrrr_rrrr_cc_10 - graph - display a graphics line
05294                 | 
05294     EC FD BF FD | graphline       call    #hsync                          ' now call hsync to gain some time between xconts
05298                 | 
05298                 | 
05298     52 27 33 F9 | p202            getword mb2,m_border,#0
0529c     00 26 0F F2 |                 cmp     mb2, #0 wz
052a0     4D A5 C2 5C |           if_nz xcont   m_border,border                 ' display a left border if exists
052a4                 | 
052a4                 | '----------------------------------------- display pixels
052a4                 | 
052a4     53 BD 02 F6 |                 mov     m_lut2,m_lut1                   ' m_lut1 loaded from hub timing block, pixel per long
052a8     59 11 03 F6 |                 mov     cpl2,i_cpl                      ' i_cpl in graphic modes is longs per line
052ac                 | 
052ac     7C 19 5B F8 |                 getnib  zoom, dl,#3
052b0     03 18 07 F5 |                 and             zoom, #3                        ' get a horizontal zoom for the line
052b4                 | 
052b4     7C BF 02 F6 |                 mov     colordepth,dl                   ' get a color depth, reuse linestart var f         '
052b8     0C BE 06 F5 |                 and     colordepth,#12
052bc                 | 
052bc     00 BE 0E F2 |                 cmp     colordepth,#%0000 wz            ' 1 bpp modes
052c0     6C BD 02 A1 |           if_z  add     m_lut2,lutg1
052c4     68 00 90 AD |           if_z  jmp     #p240
052c8                 | 
052c8     04 BE 0E F2 |                 cmp     colordepth,#%0100 wz            ' 2 bpp modes
052cc     6D BD 02 A1 |           if_z  add     m_lut2,lutg2
052d0     9C 00 90 AD |           if_z  jmp     #p250
052d4                 | 
052d4     08 BE 0E F2 |                 cmp     colordepth,#%1000 wz            ' 4 bpp modes
052d8     6E BD 02 A1 |           if_z  add     m_lut2,lutg4
052dc     00 01 90 AD |           if_z  jmp     #p260
052e0                 | 
052e0     6F BD 02 F1 |                 add m_lut2,lutg8                        ' 8 bpp modes
052e4                 | 
052e4                 | '' --- 8 bit color modes
052e4                 | 
052e4     00 18 0F F2 |                 cmp zoom, #%00 wz   '256 colors, zoom x1
052e8     54 01 90 AD |                 if_z jmp #p251      'there is an universal loop for 1x zoom at p251, saves one long of skip pattern
052ec                 | 
052ec     01 18 0F F2 |                 cmp zoom, #%01 wz   '256 colors, zoom x2
052f0     2A 0E 07 A6 |                 if_z mov skippattern,#%101010
052f4     10 00 90 AD |                 if_z jmp #p235
052f8                 |  '  
052f8     02 18 0F F2 |                 cmp zoom, #%10 wz   '256 colors, zoom x4
052fc     25 0E 07 A6 |                 if_z mov skippattern,#%100101
05300                 |     
05300                 |  
05300     05 0E 07 56 |                 if_nz mov skippattern,#%000101
05304     01 10 47 50 |                 if_nz shr cpl2,#1         ' if 8x zoom, 2 xconts used in one loop, so divide loop count by 2
05308                 |         
05308                 | 
05308                 |         
05308     7E 13 03 FB | p235               rdlong  char,framebuf2
0530c     32 0E 63 FD |                    skipf skippattern
05310     02 FC 06 F1 |                    add     framebuf2,#2             '0 1 1
05314     01 FC 06 F1 |                    add     framebuf2,#1             '1 0 0
05318     50 12 FF F9 |                    movbyts char,#%01010000          '0 1 1
0531c     00 12 FF F9 |                    movbyts char,#%00000000          '1 0 0
05320     89 BD C2 FC |                    xcont   m_lut2,char              '0 0 0
05324     89 BD C2 FC |                    xcont   m_lut2,char              '1 1 0
05328     F7 11 6F FB |                    djnz    cpl2,#p235
0532c                 | 
0532c     20 01 90 FD |                jmp    #p203
05330                 |                   
05330                 | 
05330                 | 
05330                 | '' --- 1 bit color modes
05330                 | 
05330     00 18 0F F2 | p240          cmp zoom, #%00 wz     '2 colors, zoom x1
05334     08 01 90 AD |        if_z   jmp #p251              'there is an universal loop for 1x zoom at p251, saves one long of skip pattern
05338                 | 
05338     01 18 0F F2 |               cmp zoom, #%01 wz     '2 colors, zoom x2
0533c     13 0E 07 A6 |        if_z   mov skippattern,#%10011
05340     08 0E 07 56 |        if_nz  mov skippattern,#%01000
05344                 | 
05344                 | 
05344     7E 13 E3 FA | p241               rdword  char,framebuf2
05348     44 12 FF F9 |                    movbyts char,#%01000100
0534c     63 12 63 FD |                    mergew  char
05350     32 0E 63 FD |                    skipf skippattern
05354     44 12 FF F9 |                    movbyts char,#%01000100         ' 1 0
05358     63 12 63 FD |                    mergew  char                    ' 1 0
0535c     89 BD C2 FC |                    xcont   m_lut2,char             ' 0 0
05360     02 FC 06 F1 |                    add     framebuf2,#2                    ' 0 1
05364     01 FC 06 F1 |                    add     framebuf2,#1                ' 1 0
05368     F6 11 6F FB |                    djnz   cpl2,#p241
0536c                 | 
0536c                 | 
0536c     E0 00 90 FD |                jmp    #p203
05370                 | 
05370                 | '' --- 2 bit color modes
05370                 | 
05370     00 18 0F F2 | p250          cmp zoom, #%00 wz     '4 colors, zoom x1
05374     C8 00 90 AD |        if_z   jmp #p251
05378                 | 
05378     01 18 0F F2 |               cmp zoom, #%01 wz     '4 colors, zoom x2
0537c     30 00 90 AD |        if_z   jmp #p252
05380                 | 
05380                 | 
05380     7E 13 C3 FA | p254               rdbyte char,framebuf2
05384     04 0C 07 F6 |                    mov  t5,#4
05388     02 12 67 F0 | p255               shl  char,#2
0538c     89 05 53 F8 |                    getnib  t1,char,#2
05390     03 04 07 F5 |                    and     t1,#3
05394     55 04 07 FA |                    mul     t1,#$55
05398     82 07 03 F9 |                    rolbyte  t2,t1,#0
0539c     FA 0D 6F FB |                    djnz    t5,#p255
053a0     83 BD C2 FC |                    xcont   m_lut2,t2
053a4     01 FC 06 F1 |                    add     framebuf2,#1
053a8     F5 11 6F FB |                    djnz    cpl2,#p254
053ac     A0 00 90 FD |                    jmp     #p203
053b0                 | 
053b0     7E 13 E3 FA | p252               rdword char,framebuf2
053b4     08 0C 07 F6 |                    mov  t5,#8
053b8     02 12 67 F0 | p253               shl  char,#2
053bc     89 05 63 F8 |                    getnib  t1,char,#4
053c0     03 04 07 F5 |                    and     t1,#3
053c4     05 04 07 FA |                    mul     t1,#5
053c8     82 07 83 F8 |                    rolnib  t2,t1,#0
053cc     FA 0D 6F FB |                    djnz    t5,#p253
053d0     83 BD C2 FC |                    xcont   m_lut2,t2
053d4     02 FC 06 F1 |                    add     framebuf2,#2
053d8     F5 11 6F FB |                    djnz    cpl2,#p252
053dc     70 00 90 FD |                    jmp     #p203
053e0                 | 
053e0                 | '' ------ 4 bit color modes
053e0                 | 
053e0     00 18 0F F2 | p260          cmp zoom, #%00 wz     '4 colors, zoom x1, the same loop as 2bpp
053e4     58 00 90 AD |        if_z   jmp #p251
053e8                 | 
053e8     01 18 0F F2 |               cmp zoom, #%01 wz     '4 colors, zoom x2
053ec     2C 00 90 AD |        if_z   jmp #p262
053f0                 | 
053f0                 | 
053f0     7E 13 C3 FA | p263               rdbyte char,framebuf2
053f4     02 0A DC FC |                            rep #5,#2
053f8     89 07 8B F8 |                              rolnib t2,char,#1
053fc     89 07 8B F8 |                                  rolnib t2,char,#1
05400     89 07 8B F8 |                              rolnib t2,char,#1
05404     89 07 8B F8 |                                  rolnib t2,char,#1
05408     04 12 67 F0 |                              shl char,#4
0540c     83 BD C2 FC |                    xcont   m_lut2,t2
05410     01 FC 06 F1 |                    add     framebuf2,#1
05414     F6 11 6F FB |                    djnz    cpl2,#p263
05418     34 00 90 FD |                    jmp     #p203
0541c                 | 
0541c     7E 13 E3 FA | p262               rdword  char,framebuf2
05420     04 06 DC FC |                            rep #3,#4
05424     89 07 9B F8 |                              rolnib t2,char,#3
05428     89 07 9B F8 |                                  rolnib t2,char,#3
0542c     04 12 67 F0 |                              shl char,#4
05430     83 BD C2 FC |                    xcont   m_lut2,t2
05434     02 FC 06 F1 |                    add     framebuf2,#2
05438     F8 11 6F FB |                    djnz    cpl2,#p262
0543c     10 00 90 FD |                    jmp     #p203
05440                 | 
05440                 | ''---------- all color modes without zoom
05440                 | 
05440     88 07 D8 FC | p251               rep  #3,cpl2
05444     7E 13 03 FB |                    rdlong  char,framebuf2
05448     04 FC 06 F1 |                    add     framebuf2,#4
0544c     89 BD C2 FC |                    xcont   m_lut2,char
05450                 |           
05450                 |  ''-----------------------------------------------------------------------------------------
05450                 | p203           ' getword  mb2,m_border,#0
05450     00 26 0F F2 |                 cmp      mb2, #0 wz
05454     4D A5 C2 5C |                 if_nz    xcont   m_border,border            'display a right border if exists
05458                 | 
05458     E8 FB 9F FD |                 jmp #p302
0545c                 | 
0545c                 | '' -------------------------------------- END of graph  line ---------------------------------
0545c                 | 
0545c                 | '' consts and vars
0545c                 | 
0545c     52 4D 35 D5 | sync_000        long    %1101010100_1101010100_1101010100_10    '
05460     AE 42 35 D5 | sync_001        long    %1101010100_1101010100_0010101011_10    '        hsync
05464     52 45 15 55 | sync_222        long    %0101010100_0101010100_0101010100_10    'vsync
05468     AE 4A 15 55 | sync_223        long    %0101010100_0101010100_1010101011_10    'vsync + hsync
0546c                 | 
0546c     00 2C 1A 00 | border          long    %00000000_00011010_00101100_00000000
05470                 | 
05470                 | '------ these longs will be set by setmode function
05470                 | 
05470     00 00 00 00 | m_bs            long    0        'blanks before sync
05474     00 00 00 00 | m_sn            long    0        'sync
05478     00 00 00 00 | m_bv            long    0        'blanks before visible
0547c     00 00 00 00 | m_vi            long    0        'visible pixels #
05480     00 00 00 00 | m_border        long    0        'left/right borders
05484     00 00 00 00 | m_lut1          long    0        'characters
05488     00 00 00 00 | i_vborder       long    0        'up/down borders
0548c     00 00 00 00 | i_upporch       long    0        'up porch lines
05490     00 00 00 00 | i_vsync         long    0        'vsync lines
05494     00 00 00 00 | i_downporch     long    0        'down porch lines
05498     00 00 00 00 | i_modenum       long    0        'mode #
0549c     00 00 00 00 | i_cpl           long    0        'chars/longs per line
054a0     00 00 00 00 | i_lines         long    0        'scanlines #
054a4     00 00 00 00 | i_clock         long    0
054a8     00 00 00 00 | i_hubset        long    0
054ac     00 00 00 00 | i_totalvis      long    0
054b0                 | 
054b0                 | '-------------------------------------
054b0                 | 
054b0     00 00 00 00 | m_lut2          long    0
054b4                 | 
054b4                 | colordepth
054b4     00 00 00 00 | linestart       long    0
054b8     00 00 00 00 | linenum         long    0
054bc     00 01 00 00 | lutaddr         long    256
054c0                 | 
054c0     0E 00 00 00 | cursorsh        long    14
054c4     00 00 00 00 | frames          long    0
054c8     00 00 00 00 | cursorx         long    0
054cc     00 00 00 00 | cursory         long    0
054d0     00 00 00 00 | cursorpos       long    0
054d4     00 00 00 00 | cursorpos2      long    0
054d8     00 00 00 00 | fontstart       long    0
054dc     00 00 00 00 | border2         long 0
054e0     00 00 81 70 | lutiv           long $70810000
054e4     00 00 88 00 | lutt1           long $00880000
054e8     00 00 80 00 | lutg1           long $00800000
054ec     00 00 80 10 | lutg2           long $10800000
054f0     00 00 80 20 | lutg4           long $20800000
054f4     00 00 80 30 | lutg8           long $30800000
054f8     00 00 00 00 | framebuf        long 0
054fc     00 00 00 00 | fontbuf         long 0
05500     00 00 00 00 | borderptr       long 0
05504     00 00 00 00 | vblankptr       long 0
05508     00 00 00 00 | cursorptr       long 0
0550c     00 00 00 00 | modeptr         long 0
05510     00 00 00 00 | paletteptr      long 0
05514     00 00 00 00 | dlptr           long 0
05518                 | fontnumptr      res     1
05518                 | fontnumptr      res     1
05518                 | hbase           res     1
05518                 | hbase           res     1
05518                 | borderptr2      res     1
05518                 | borderptr2      res     1
05518                 | dlptr2 res 1
05518                 | dlptr2 res 1
05518                 | dl              res 1
05518                 | dl              res 1
05518                 | ii              res     1
05518                 | ii              res     1
05518                 | framebuf2       res     1
05518                 | framebuf2       res     1
05518                 | hsync0          res     1
05518                 | hsync0          res     1
05518                 | hsync1          res     1
05518                 | hsync1          res     1
05518                 | fontline        res     1
05518                 | fontline        res     1
05518                 | t1              res     1
05518                 | t1              res     1
05518                 | t2              res     1
05518                 | t2              res     1
05518                 | t3 res 1
05518                 | t3 res 1
05518                 | t4 res 1
05518                 | t4 res 1
05518                 | t5 res 1
05518                 | t5 res 1
05518                 | skippattern res 1
05518                 | skippattern res 1
05518                 | cpl2 res 1
05518                 | cpl2 res 1
05518                 | char            res     1
05518                 | char            res     1
05518                 | backcolor       res     1
05518                 | backcolor       res     1
05518                 | charcolor       res     1
05518                 | charcolor       res     1
05518                 | zoom res 1
05518                 | zoom res 1
05518     00 00 00 00 | rcnt long 0 'dl repeat count
0551c     00 00 00 00 | rcnt2 long 0
05520     00 00 00 00 | rcnt2a long 0
05524     00 00 00 00 | roffset long 0
05528     00 00 00 00 | rdl long 0  'dl repeat line
0552c     00 00 00 00 | dlc long 0 'dl command
05530     00 00 00 00 | mb2 long 0
05534     00 00 00 00 | aend             long 0
05538                 |                 fit     496                     '
05538                 | __system__dat_
05538     00 00 00 00 
0553c     00 00 00 00 
05540     03 00 00 00 
05544     00 00 00 00 | 	byte	$00, $00, $00, $00, $00, $00, $00, $00, $03, $00, $00, $00, $00, $00, $00, $00
05548                 | __heap_base
05548     00 00 00 00 
      ...             
06548     00 00 00 00 
0654c     00 00 00 00 | 	long	0[1026]
06550                 | objmem
06550     00 00 00 00 | 	long	0[1]
06554 0e0             | 	org	COG_BSS_START
06554 0e0             | _var01
06554 0e0             | 	res	1
06554 0e1             | _var02
06554 0e1             | 	res	1
06554 0e2             | _var03
06554 0e2             | 	res	1
06554 0e3             | _var04
06554 0e3             | 	res	1
06554 0e4             | _var05
06554 0e4             | 	res	1
06554 0e5             | _var06
06554 0e5             | 	res	1
06554 0e6             | _var07
06554 0e6             | 	res	1
06554 0e7             | _var08
06554 0e7             | 	res	1
06554 0e8             | _var09
06554 0e8             | 	res	1
06554 0e9             | _var10
06554 0e9             | 	res	1
06554 0ea             | _var11
06554 0ea             | 	res	1
06554 0eb             | _var12
06554 0eb             | 	res	1
06554 0ec             | _var13
06554 0ec             | 	res	1
06554 0ed             | _var14
06554 0ed             | 	res	1
06554 0ee             | _var15
06554 0ee             | 	res	1
06554 0ef             | _var16
06554 0ef             | 	res	1
06554 0f0             | arg01
06554 0f0             | 	res	1
06554 0f1             | arg02
06554 0f1             | 	res	1
06554 0f2             | arg03
06554 0f2             | 	res	1
06554 0f3             | arg04
06554 0f3             | 	res	1
06554 0f4             | arg05
06554 0f4             | 	res	1
06554 0f5             | local01
06554 0f5             | 	res	1
06554 0f6             | local02
06554 0f6             | 	res	1
06554 0f7             | local03
06554 0f7             | 	res	1
06554 0f8             | local04
06554 0f8             | 	res	1
06554 0f9             | local05
06554 0f9             | 	res	1
06554 0fa             | local06
06554 0fa             | 	res	1
06554 0fb             | local07
06554 0fb             | 	res	1
06554 0fc             | local08
06554 0fc             | 	res	1
06554 0fd             | local09
06554 0fd             | 	res	1
06554 0fe             | local10
06554 0fe             | 	res	1
06554 0ff             | local11
06554 0ff             | 	res	1
06554 100             | local12
06554 100             | 	res	1
06554 101             | local13
06554 101             | 	res	1
06554 102             | local14
06554 102             | 	res	1
06554 103             | local15
06554 103             | 	res	1
06554 104             | local16
06554 104             | 	res	1
06554 105             | local17
06554 105             | 	res	1
06554 106             | local18
06554 106             | 	res	1
06554 107             | local19
06554 107             | 	res	1
06554 108             | local20
06554 108             | 	res	1
06554 109             | local21
06554 109             | 	res	1
06554 10a             | local22
06554 10a             | 	res	1
06554 10b             | local23
06554 10b             | 	res	1
06554 10c             | local24
06554 10c             | 	res	1
06554 10d             | local25
06554 10d             | 	res	1
06554 10e             | local26
06554 10e             | 	res	1
06554 10f             | local27
06554 10f             | 	res	1
06554 110             | local28
06554 110             | 	res	1
06554 111             | local29
06554 111             | 	res	1
06554 112             | local30
06554 112             | 	res	1
06554 113             | local31
06554 113             | 	res	1
06554 114             | local32
06554 114             | 	res	1
06554 115             | local33
06554 115             | 	res	1
06554 116             | local34
06554 116             | 	res	1
06554 117             | local35
06554 117             | 	res	1
06554 118             | local36
06554 118             | 	res	1
06554 119             | local37
06554 119             | 	res	1
06554 11a             | local38
06554 11a             | 	res	1
06554 11b             | local39
06554 11b             | 	res	1
06554 11c             | local40
06554 11c             | 	res	1
06554 11d             | local41
06554 11d             | 	res	1
06554 11e             | local42
06554 11e             | 	res	1
06554 11f             | local43
06554 11f             | 	res	1
06554 120             | local44
06554 120             | 	res	1
06554 121             | local45
06554 121             | 	res	1
06554 122             | local46
06554 122             | 	res	1
06554 123             | local47
06554 123             | 	res	1
06554 124             | local48
06554 124             | 	res	1
06554 125             | local49
06554 125             | 	res	1
06554 126             | local50
06554 126             | 	res	1
06554 127             | local51
06554 127             | 	res	1
06554 128             | local52
06554 128             | 	res	1
06554 129             | local53
06554 129             | 	res	1
06554 12a             | local54
06554 12a             | 	res	1
06554 12b             | local55
06554 12b             | 	res	1
06554 12c             | local56
06554 12c             | 	res	1
06554 12d             | local57
06554 12d             | 	res	1
06554 12e             | local58
06554 12e             | 	res	1
06554 12f             | local59
06554 12f             | 	res	1
06554 130             | local60
06554 130             | 	res	1
06554 131             | local61
06554 131             | 	res	1
06554 132             | local62
06554 132             | 	res	1
06554 133             | local63
06554 133             | 	res	1
06554 134             | local64
06554 134             | 	res	1
06554 135             | local65
06554 135             | 	res	1
06554 136             | local66
06554 136             | 	res	1
06554 137             | local67
06554 137             | 	res	1
06554 138             | local68
06554 138             | 	res	1
06554 139             | local69
06554 139             | 	res	1
06554 13a             | local70
06554 13a             | 	res	1
06554 13b             | local71
06554 13b             | 	res	1
06554 13c             | local72
06554 13c             | 	res	1
06554 13d             | local73
06554 13d             | 	res	1
06554 13e             | local74
06554 13e             | 	res	1
06554 13f             | local75
06554 13f             | 	res	1
06554 140             | local76
06554 140             | 	res	1
06554 141             | local77
06554 141             | 	res	1
06554 142             | local78
06554 142             | 	res	1
06554 143             | local79
06554 143             | 	res	1
06554 144             | muldiva_
06554 144             | 	res	1
06554 145             | muldivb_
06554 145             | 	res	1
06554 146             | 	fit	480
06554 146             | 
