00000                 | 
00000                 | #line 1 "D:/Programowanie/ultibo-propeller/robuv001/robuv003.p2asm"
00000                 | ' 
00000                 | ' 	CLK_FREQ =285000000                                     	' system freq as a constant
00000                 | con
00000                 | 	CLK_FREQ = 285000000
00000                 | ' 	
00000                 | ' 	_clkfreq = CLK_FREQ                                           	' set system clock
00000                 | 	_clkfreq = 285000000
00000                 | ' 	SBUS_RX  = 16                                                 	' S.BUS serial input
00000                 | 	SBUS_RX = 16
00000                 | '  
00000                 | ' 	SBUS_CFG  = P_ASYNC_RX' do not invert | P_INVERT_IN            	' inverted serial input
00000                 | 	SBUS_CFG = 62
00000                 | ' 	SBUS_BAUD = (CLK_FREQ / 100_000) << 16 | (9-1)                	' 100K baud, 9 bits (8 data + parity)  
00000                 | 	SBUS_BAUD = 186777608
00000                 | ' 	baudrate  = 4000000						' for Raspberry
00000                 | 	baudrate = 4000000
00000                 | '  rxpin           = 14
00000                 | 	rxpin = 14
00000                 | '  txpin           = 12
00000                 | 	txpin = 12
00000                 | '  pisleep = 13
00000                 | 	pisleep = 13
00000                 | '  pipower = 15
00000                 | 	pipower = 15
00000                 | '  pipower2 = 8
00000                 | 	pipower2 = 8
00000                 | '  adcpin  = 17  ' battery voltage 
00000                 | 	adcpin = 17
00000                 | dat
00000 000 00 00 00 00 | 	nop
00004 001 01 EC 63 FD | 	cogid	pa
00008 002 02 00 00 FF 
0000c 003 04 EC E7 FC | 	coginit	pa,##$404
00010                 | 	orgh	$10
00010     00 00 00 00 | 	long	0	'reserved
00014     00 00 00 00 | 	long	0 ' clock frequency: will default to 285000000
00018     00 00 00 00 | 	long	0 ' clock mode: will default to $10c38fb
0001c     00 00 00 00 
      ...             
003f8     00 00 00 00 
003fc     00 00 00 00 | 	orgh	$400
00400     00 A8 05 06 |  _ret_	mov	result1, #0
00404 000             | 	org	0
00404 000             | entry
00404 000 00 F0 0F F2 | 	cmp	ptra, #0 wz
00408 001 0C 02 90 5D |  if_ne	jmp	#spininit
0040c 002 D0 F0 03 F6 | 	mov	ptra, objptr
00410 003 02 00 00 FF 
00414 004 40 F1 07 F1 | 	add	ptra, ##1344
00418 005 14 EC 0F FB | 	rdlong	pa, #20 wz
0041c 006 E4 01 90 5D |  if_ne	jmp	#skip_clock_set_
00420 007 00 00 64 FD | 	hubset	#0
00424 008 1C 86 80 FF 
00428 009 00 F0 65 FD | 	hubset	##17578232
0042c 00a 86 01 80 FF 
00430 00b 1F 80 66 FD | 	waitx	##200000
00434 00c 1C 86 00 FF 
00438 00d FB EC 07 F6 | 	mov	pa, ##17578235
0043c 00e 00 EC 63 FD | 	hubset	pa
00440 00f 18 EC 67 FC | 	wrlong	pa, #24
00444 010 60 7E 88 FF 
00448 011 14 80 6E FC | 	wrlong	##285000000, #20
0044c 012 B4 01 90 FD | 	jmp	#skip_clock_set_
00450 013 00 00 00 00 
      ...             
005fc 07e 00 00 00 00 
00600 07f 00 00 00 00 | 	orgf	128
00604 080             | skip_clock_set_
00604 080 58 07 A0 FD | 	call	#_main
00608 081             | cogexit
00608 081 38 01 80 FF 
0060c 082 1F 00 66 FD | 	waitx	##160000
00610 083 01 BE 61 FD | 	cogid	arg01
00614 084 03 BE 61 FD | 	cogstop	arg01
00618 085             | spininit
00618 085 00 A1 05 FB | 	rdlong	objptr, ptra
0061c 086 04 F0 07 F1 | 	add	ptra, #4
00620 087 00 A9 05 FB | 	rdlong	result1, ptra
00624 088 04 F0 07 F1 | 	add	ptra, #4
00628 089 00 BF 05 FB | 	rdlong	arg01, ptra
0062c 08a 04 F0 07 F1 | 	add	ptra, #4
00630 08b 00 C1 05 FB | 	rdlong	arg02, ptra
00634 08c 04 F0 07 F1 | 	add	ptra, #4
00638 08d 00 C3 05 FB | 	rdlong	arg03, ptra
0063c 08e 04 F0 07 F1 | 	add	ptra, #4
00640 08f 00 C5 05 FB | 	rdlong	arg04, ptra
00644 090 10 F0 87 F1 | 	sub	ptra, #16
00648 091 2D A8 61 FD | 	call	result1
0064c 092 B8 FF 9F FD | 	jmp	#cogexit
00650 093             | FCACHE_LOAD_
00650 093 2B 3E 61 FD |     pop	fcache_tmpb_
00654 094 F6 3F 01 F1 |     add	fcache_tmpb_, pa
00658 095 2A 3E 61 FD |     push	fcache_tmpb_
0065c 096 F6 3F 81 F1 |     sub	fcache_tmpb_, pa
00660 097 02 EC 47 F0 |     shr	pa, #2
00664 098 00 EC 8F F9 |     altd	pa
00668 099 9E 00 00 F6 |     mov	 0-0, ret_instr_
0066c 09a 01 EC 87 F1 |     sub	pa, #1
00670 09b 28 EC 63 FD |     setq	pa
00674 09c 9F 00 00 FB |     rdlong	$0, fcache_tmpb_
00678 09d 00 00 80 FD |     jmp	#\$0 ' jmp to cache
0067c 09e             | ret_instr_
0067c 09e 2D 00 64 FD |     ret
00680 09f             | fcache_tmpb_
00680 09f 00 00 00 00 |     long 0
00684 0a0             | COUNT_
00684 0a0 00 00 00 00 |     long 0
00688 0a1             | RETADDR_
00688 0a1 00 00 00 00 |     long 0
0068c 0a2             | fp
0068c 0a2 00 00 00 00 |     long 0
00690 0a3             | pushregs_
00690 0a3 2B EC 63 FD |     pop  pa
00694 0a4 2B 42 61 FD |     pop  RETADDR_
00698 0a5 04 40 95 FB |     tjz  COUNT_, #pushregs_done_
0069c 0a6 01 40 85 F1 |     sub  COUNT_, #1
006a0 0a7 28 40 61 FD |     setq COUNT_
006a4 0a8 00 C9 65 FC |     wrlong local01, ptra
006a8 0a9 01 40 05 F1 |     add  COUNT_, #1
006ac 0aa             | pushregs_done_
006ac 0aa 02 40 65 F0 |     shl  COUNT_, #2
006b0 0ab A0 F0 03 F1 |     add  ptra, COUNT_
006b4 0ac 02 40 45 F0 |     shr  COUNT_, #2
006b8 0ad 28 04 64 FD |     setq #2 ' push 3 registers starting at COUNT_
006bc 0ae 00 41 65 FC |     wrlong COUNT_, ptra
006c0 0af 0C F0 07 F1 |     add    ptra, #12
006c4 0b0 F8 45 01 F6 |     mov    fp, ptra
006c8 0b1 2C EC 63 FD |     jmp  pa
006cc 0b2             |  popregs_
006cc 0b2 2B EC 63 FD |     pop    pa
006d0 0b3 0C F0 87 F1 |     sub    ptra, #12
006d4 0b4 28 04 64 FD |     setq   #2
006d8 0b5 00 41 05 FB |     rdlong COUNT_, ptra
006dc 0b6 06 40 95 FB |     tjz    COUNT_, #popregs__ret
006e0 0b7 02 40 65 F0 |     shl    COUNT_, #2
006e4 0b8 A0 F0 83 F1 |     sub    ptra, COUNT_
006e8 0b9 02 40 45 F0 |     shr    COUNT_, #2
006ec 0ba 01 40 85 F1 |     sub    COUNT_, #1
006f0 0bb 28 40 61 FD |     setq   COUNT_
006f4 0bc 00 C9 05 FB |     rdlong local01, ptra
006f8 0bd             | popregs__ret
006f8 0bd 2A 42 61 FD |     push   RETADDR_
006fc 0be 2C EC 63 FD |     jmp    pa
00700 0bf             | 
00700 0bf             | unsdivide_
00700 0bf 28 00 64 FD |        setq    #0
00704 0c0 10 1F 12 FD |        qdiv    muldiva_, muldivb_
00708 0c1 18 20 62 FD |        getqx   muldivb_
0070c 0c2 19 1E 62 0D |  _ret_ getqy   muldiva_
00710 0c3             | 
00710 0c3             | divide_
00710 0c3 0F 1F 52 F6 |        abs     muldiva_,muldiva_     wc       'abs(x)
00714 0c4 03 9E 85 F5 |        muxc    itmp2_,#%11                    'store sign of x
00718 0c5 10 21 5A F6 |        abs     muldivb_,muldivb_     wcz      'abs(y)
0071c 0c6 02 9E 65 C5 |  if_c  xor     itmp2_,#%10                    'store sign of y
00720 0c7 2D 00 64 AD |  if_z  ret
00724 0c8 D8 FF BF FD |        call    #unsdivide_
00728 0c9 01 9E D5 F7 |        test    itmp2_,#1        wc       'restore sign, remainder
0072c 0ca 0F 1F 82 F6 |        negc    muldiva_,muldiva_ 
00730 0cb 02 9E D5 F7 |        test    itmp2_,#%10      wc       'restore sign, division result
00734 0cc 10 21 82 06 |  _ret_ negc    muldivb_,muldivb_
00738 0cd             | 
00738 0cd             | entryptr__
00738 0cd 04 04 00 00 | 	long	@entry
0073c 0ce             | itmp1_
0073c 0ce 00 00 00 00 | 	long	0
00740 0cf             | itmp2_
00740 0cf 00 00 00 00 | 	long	0
00744 0d0             | objptr
00744 0d0 68 28 00 00 | 	long	@objmem
00748 0d1             | ptr__adccog_dat__
00748 0d1 C8 27 00 00 | 	long	@_adccog_dat_
0074c 0d2             | ptr__hng026r_dat__
0074c 0d2 00 1A 00 00 | 	long	@_hng026r_dat_
00750 0d3             | ptr__sbus_
00750 0d3 04 11 00 00 | 	long	@_sbus
00754 0d4             | result1
00754 0d4 00 00 00 00 | 	long	0
00758 0d5             | COG_BSS_START
00758 0d5             | 	fit	480
00758                 | 	orgh
00758                 | hubentry
00758                 | 
00758                 | ' 
00758                 | ' pub main() | t11, i11, h11,h12,h21,h22 ,c,d,s2,s,sd,sd1,cc,cc1,cc2,cc3,i
00758                 | _main
00758     2B 40 05 F6 | 	mov	COUNT_, #43
0075c     A3 00 A0 FD | 	call	#pushregs_
00760     1C A0 05 F1 | 	add	objptr, #28
00764     D0 C8 01 F6 | 	mov	local01, objptr
00768     12 CA 05 F6 | 	mov	local02, #18
0076c     1C A0 85 F1 | 	sub	objptr, #28
00770     9C F8 9F FE | 	loc	pa,	#(@LR__0003-@LR__0001)
00774     93 00 A0 FD | 	call	#FCACHE_LOAD_
00778                 | LR__0001
00778     12 06 DC FC | 	rep	@LR__0004, #18
0077c                 | LR__0002
0077c                 | '   channel[i]:=0
0077c     00 CC 05 F6 | 	mov	local03, #0
00780     E4 00 58 FC | 	wrword	#0, local01
00784     02 C8 05 F1 | 	add	local01, #2
00788                 | LR__0003
00788                 | LR__0004
00788                 | ' v.start(0,0)
00788                 | ' 
00788                 | ' 
00788                 | ' hdmibase:=base
00788     02 00 00 FF 
0078c     7C A0 05 F1 | 	add	objptr, ##1148
00790     D0 00 68 FC | 	wrlong	#0, objptr
00794                 | ' 
00794                 | ' ' the mode has to be set here to enable computing the buffer length
00794                 | ' 
00794                 | ' setmode(mode)
00794     E6 CE 01 F6 | 	mov	local04, local03
00798     2C A0 05 F1 | 	add	objptr, #44
0079c     D0 BE 01 F6 | 	mov	arg01, objptr
007a0     44 A0 85 F1 | 	sub	objptr, #68
007a4     06 00 00 FF 
007a8     00 A4 05 F1 | 	add	ptr__hng026r_dat__, ##3072
007ac     D2 C0 01 F6 | 	mov	arg02, ptr__hng026r_dat__
007b0     06 00 00 FF 
007b4     00 A4 85 F1 | 	sub	ptr__hng026r_dat__, ##3072
007b8                 | ' 
007b8                 | ' longmove(@timings,@timings000,16)   'PAL 50 Hz signaling 1140x624, active 800x480, 100x30 text, wide border, 2 colors per pixel, 00_00_00_00_00=0, 354_693_878 Hz
007b8     10 C2 05 F6 | 	mov	arg03, #16
007bc     C0 10 B0 FD | 	call	#__system__longmove
007c0                 | ' 
007c0                 | ' timings[5]:=4
007c0     58 A0 05 F1 | 	add	objptr, #88
007c4     D0 08 68 FC | 	wrlong	#4, objptr
007c8     18 A0 05 F1 | 	add	objptr, #24
007cc     D0 D0 01 FB | 	rdlong	local05, objptr
007d0     01 D0 65 F0 | 	shl	local05, #1
007d4                 | ' timings[11]:=timings[11]<<1
007d4     D0 D0 61 FC | 	wrlong	local05, objptr
007d8     04 00 00 FF 
007dc     00 A4 05 F1 | 	add	ptr__hng026r_dat__, ##2048
007e0                 | ' palette_ptr:=@ataripalette
007e0     64 A0 85 F1 | 	sub	objptr, #100
007e4     D0 A4 61 FC | 	wrlong	ptr__hng026r_dat__, objptr
007e8     38 A0 05 F1 | 	add	objptr, #56
007ec     D0 D2 01 F6 | 	mov	local06, objptr
007f0     04 00 00 FF 
007f4     00 A4 85 F1 | 	sub	ptr__hng026r_dat__, ##2048
007f8     44 A0 85 F1 | 	sub	objptr, #68
007fc     2C F8 9F FE | 	loc	pa,	#(@LR__0007-@LR__0005)
00800     93 00 A0 FD | 	call	#FCACHE_LOAD_
00804                 | LR__0005
00804     05 14 DC FC | 	rep	@LR__0008, #5
00808                 | LR__0006
00808     18 A0 05 F1 | 	add	objptr, #24
0080c     D0 D4 01 FB | 	rdlong	local07, objptr
00810     18 A0 85 F1 | 	sub	objptr, #24
00814     11 D4 65 F0 | 	shl	local07, #17
00818     E9 D6 01 FB | 	rdlong	local08, local06
0081c     EA D6 01 F1 | 	add	local08, local07
00820     80 40 38 FF 
00824     00 D6 05 F1 | 	add	local08, ##1887502336
00828                 | '   timings[i]:=timings[i]+hdmibase<<17+ timingsxxt
00828     E9 D6 61 FC | 	wrlong	local08, local06
0082c     04 D2 05 F1 | 	add	local06, #4
00830                 | LR__0007
00830                 | LR__0008
00830     18 A0 05 F1 | 	add	objptr, #24
00834     D0 D8 01 FB | 	rdlong	local09, objptr
00838     11 D8 65 F0 | 	shl	local09, #17
0083c     40 A0 05 F1 | 	add	objptr, #64
00840     D0 DA 01 FB | 	rdlong	local10, objptr
00844     EC DA 01 F1 | 	add	local10, local09
00848                 | ' timings[5]:=timings[5]+hdmibase<<17
00848     D0 DA 61 FC | 	wrlong	local10, objptr
0084c                 | ' clkfreq:=timings[13]
0084c     20 A0 05 F1 | 	add	objptr, #32
00850     D0 DC 01 FB | 	rdlong	local11, objptr
00854     78 A0 85 F1 | 	sub	objptr, #120
00858     14 DC 65 FC | 	wrlong	local11, #20
0085c                 | ' waitms(1)
0085c     01 BE 05 F6 | 	mov	arg01, #1
00860     8C 10 B0 FD | 	call	#__system___waitms
00864                 | ' 
00864                 | ' xzoom:=2
00864     C0 A0 05 F1 | 	add	objptr, #192
00868     D0 04 68 FC | 	wrlong	#2, objptr
0086c                 | ' yzoom:=2
0086c     04 A0 05 F1 | 	add	objptr, #4
00870     D0 04 68 FC | 	wrlong	#2, objptr
00874     04 A0 85 F1 | 	sub	objptr, #4
00878     D0 DE 01 FB | 	rdlong	local12, objptr
0087c     04 A0 05 F1 | 	add	objptr, #4
00880     D0 E0 01 FB | 	rdlong	local13, objptr
00884     F0 DE 01 FD | 	qmul	local12, local13
00888     18 E2 61 FD | 	getqx	local14
0088c                 | ' azoom:=xzoom*yzoom
0088c     04 A0 05 F1 | 	add	objptr, #4
00890     D0 E2 61 FC | 	wrlong	local14, objptr
00894                 | ' 
00894                 | ' cpl:=timings[11]
00894     58 A0 85 F1 | 	sub	objptr, #88
00898     D0 DC 01 FB | 	rdlong	local11, objptr
0089c     14 A0 05 F1 | 	add	objptr, #20
008a0     D0 DC 61 FC | 	wrlong	local11, objptr
008a4     10 A0 85 F1 | 	sub	objptr, #16
008a8     D0 1E 02 FB | 	rdlong	muldiva_, objptr
008ac     50 A0 05 F1 | 	add	objptr, #80
008b0     D0 20 02 FB | 	rdlong	muldivb_, objptr
008b4     C4 A0 85 F1 | 	sub	objptr, #196
008b8     C3 00 A0 FD | 	call	#divide_
008bc                 | ' 
008bc                 | ' lines:=timings[12]/yzoom
008bc     88 A0 05 F1 | 	add	objptr, #136
008c0     D0 20 62 FC | 	wrlong	muldivb_, objptr
008c4                 | ' cpl:=cpl/xzoom
008c4     04 A0 85 F1 | 	sub	objptr, #4
008c8     D0 1E 02 FB | 	rdlong	muldiva_, objptr
008cc     3C A0 05 F1 | 	add	objptr, #60
008d0     D0 20 02 FB | 	rdlong	muldivb_, objptr
008d4     C0 A0 85 F1 | 	sub	objptr, #192
008d8     C3 00 A0 FD | 	call	#divide_
008dc     84 A0 05 F1 | 	add	objptr, #132
008e0     D0 20 62 FC | 	wrlong	muldivb_, objptr
008e4     04 A0 05 F1 | 	add	objptr, #4
008e8     D0 E0 01 FB | 	rdlong	local13, objptr
008ec     F0 20 02 FD | 	qmul	muldivb_, local13
008f0     18 E4 61 FD | 	getqx	local15
008f4                 | ' 
008f4                 | ' buflen:=(cpl*lines)
008f4     64 A0 85 F1 | 	sub	objptr, #100
008f8     D0 E4 61 FC | 	wrlong	local15, objptr
008fc     24 A0 85 F1 | 	sub	objptr, #36
00900     02 E4 65 F0 | 	shl	local15, #2
00904     13 E6 C5 F9 | 	decod	local16, #19
00908     F2 E6 81 F1 | 	sub	local16, local15
0090c                 | ' 
0090c                 | ' buf_ptr:=$80000-4*buflen
0090c     D0 E6 61 FC | 	wrlong	local16, objptr
00910     44 A0 05 F1 | 	add	objptr, #68
00914     D0 E8 01 F6 | 	mov	local17, objptr
00918                 | ' mode_ptr:=@timings
00918     3C A0 85 F1 | 	sub	objptr, #60
0091c     D0 E8 61 FC | 	wrlong	local17, objptr
00920                 | ' graphmode:=mode
00920     B0 A0 05 F1 | 	add	objptr, #176
00924     D0 CE 61 FC | 	wrlong	local04, objptr
00928     84 A0 85 F1 | 	sub	objptr, #132
0092c     D0 EA 01 F6 | 	mov	local18, objptr
00930                 | ' 
00930                 | ' vblank_ptr:=@vblank
00930     30 A0 85 F1 | 	sub	objptr, #48
00934     D0 EA 61 FC | 	wrlong	local18, objptr
00938     88 A0 05 F1 | 	add	objptr, #136
0093c     D0 EC 01 F6 | 	mov	local19, objptr
00940                 | ' 
00940                 | ' 
00940                 | ' fontnum_ptr:=@fontnum
00940     78 A0 85 F1 | 	sub	objptr, #120
00944     D0 EC 61 FC | 	wrlong	local19, objptr
00948                 | ' 
00948                 | ' fontnum:=0  ' PC type font ' TODO: font# in buffer byte #1
00948     78 A0 05 F1 | 	add	objptr, #120
0094c     D0 00 68 FC | 	wrlong	#0, objptr
00950     1C A0 05 F1 | 	add	objptr, #28
00954     D0 BE 01 F6 | 	mov	arg01, objptr
00958     A8 A0 85 F1 | 	sub	objptr, #168
0095c     06 00 00 FF 
00960     40 A4 05 F1 | 	add	ptr__hng026r_dat__, ##3136
00964     D2 C0 01 F6 | 	mov	arg02, ptr__hng026r_dat__
00968     06 00 00 FF 
0096c     40 A4 85 F1 | 	sub	ptr__hng026r_dat__, ##3136
00970                 | ' bytemove(@colors,@vgacolors,16)
00970     10 C2 05 F6 | 	mov	arg03, #16
00974     78 0E B0 FD | 	call	#__system____builtin_memmove
00978                 | ' 
00978                 | ' ' initialize a cursor
00978                 | ' 
00978                 | ' cursor_x:=0
00978     28 A0 05 F1 | 	add	objptr, #40
0097c     D0 00 48 FC | 	wrbyte	#0, objptr
00980                 | ' cursor_y:=0
00980     01 A0 05 F1 | 	add	objptr, #1
00984     D0 00 48 FC | 	wrbyte	#0, objptr
00988                 | ' cursor_sh:=14
00988     01 A0 05 F1 | 	add	objptr, #1
0098c     D0 1C 48 FC | 	wrbyte	#14, objptr
00990     2A A0 85 F1 | 	sub	objptr, #42
00994                 | ' 
00994                 | ' 
00994                 | ' ' start the cog
00994                 | ' 
00994                 | ' cog:=coginit(16,@hdmi, @buf_ptr)
00994     06 00 00 FF 
00998     50 A4 05 F1 | 	add	ptr__hng026r_dat__, ##3152
0099c     D2 C0 01 F6 | 	mov	arg02, ptr__hng026r_dat__
009a0     06 00 00 FF 
009a4     50 A4 85 F1 | 	sub	ptr__hng026r_dat__, ##3152
009a8     D0 C2 01 F6 | 	mov	arg03, objptr
009ac     10 BE 05 F6 | 	mov	arg01, #16
009b0     28 C2 61 FD | 	setq	arg03
009b4     E0 BE F1 FC | 	coginit	arg01, arg02 wc
009b8     01 BE 65 C6 |  if_b	neg	arg01, #1
009bc     DF A8 01 F6 | 	mov	result1, arg01
009c0     D4 EE 01 F6 | 	mov	local20, result1
009c4     1C A0 05 F1 | 	add	objptr, #28
009c8     D0 EE 61 FC | 	wrlong	local20, objptr
009cc     1C A0 85 F1 | 	sub	objptr, #28
009d0                 | ' waitms(20)
009d0     14 BE 05 F6 | 	mov	arg01, #20
009d4     18 0F B0 FD | 	call	#__system___waitms
009d8                 | ' 
009d8                 | ' ' clear the screen and set the colors to green on black
009d8                 | ' 
009d8                 | ' return cog
009d8                 | ' v.cls(154,147)
009d8                 | ' 
009d8                 | ' c:=bc
009d8     93 F0 05 F6 | 	mov	local21, #147
009dc     24 A0 05 F1 | 	add	objptr, #36
009e0     D0 C2 01 FB | 	rdlong	arg03, objptr
009e4     24 A0 85 F1 | 	sub	objptr, #36
009e8     02 C2 65 F0 | 	shl	arg03, #2
009ec                 | ' bytefill(buf_ptr,c,buflen*4)
009ec     D0 BE 01 FB | 	rdlong	arg01, objptr
009f0     93 C0 05 F6 | 	mov	arg02, #147
009f4     DF F2 01 F6 | 	mov	local22, arg01
009f8     49 00 00 FF 
009fc     93 F5 05 F6 | 	mov	local23, ##37779
00a00     36 36 36 FF 
00a04     6D F6 65 F6 | 	neg	local24, ##1819044973
00a08     10 F6 9F FE | 	loc	pa,	#(@LR__0010-@LR__0009)
00a0c     93 00 A0 FD | 	call	#FCACHE_LOAD_
00a10                 | LR__0009
00a10     03 C2 5D F2 | 	cmps	arg03, #3 wcz
00a14     14 00 90 ED |  if_be	jmp	#LR__0011
00a18     C9 C9 C9 FF 
00a1c     DF 26 6B FC | 	wrlong	##-1819044973, arg01
00a20     04 BE 05 F1 | 	add	arg01, #4
00a24     04 C2 85 F1 | 	sub	arg03, #4
00a28     E4 FF 9F FD | 	jmp	#LR__0009
00a2c                 | LR__0010
00a2c                 | LR__0011
00a2c     00 C2 0D F2 | 	cmp	arg03, #0 wz
00a30     14 00 90 AD |  if_e	jmp	#LR__0016
00a34     D4 F5 9F FE | 	loc	pa,	#(@LR__0014-@LR__0012)
00a38     93 00 A0 FD | 	call	#FCACHE_LOAD_
00a3c                 | LR__0012
00a3c     E1 04 D8 FC | 	rep	@LR__0015, arg03
00a40                 | LR__0013
00a40     DF C0 41 FC | 	wrbyte	arg02, arg01
00a44     01 BE 05 F1 | 	add	arg01, #1
00a48                 | LR__0014
00a48                 | LR__0015
00a48                 | LR__0016
00a48                 | ' 
00a48                 | ' cursor_x:=0
00a48     28 A0 05 F1 | 	add	objptr, #40
00a4c     D0 00 48 FC | 	wrbyte	#0, objptr
00a50                 | ' cursor_y:=0
00a50     01 A0 05 F1 | 	add	objptr, #1
00a54     D0 00 48 FC | 	wrbyte	#0, objptr
00a58     29 A0 85 F1 | 	sub	objptr, #41
00a5c     93 A8 05 F6 | 	mov	result1, #147
00a60                 | ' v.waitvbl(1)
00a60     01 BE 05 F6 | 	mov	arg01, #1
00a64     00 0C B0 FD | 	call	#_hng026r_waitvbl
00a68                 | ' v.outtextxycg(8,0,string("Starting RPi 0"),154,147)
00a68     0C 00 00 FF 
00a6c     B0 C3 05 F6 | 	mov	arg03, ##@LR__0092
00a70     08 BE 05 F6 | 	mov	arg01, #8
00a74     00 C0 05 F6 | 	mov	arg02, #0
00a78     9A C4 05 F6 | 	mov	arg04, #154
00a7c     93 C6 05 F6 | 	mov	arg05, #147
00a80     B0 0A B0 FD | 	call	#_hng026r_outtextxycg
00a84                 | ' pinh(pipower)
00a84     59 1E 64 FD | 	drvh	#15
00a88                 | ' v.outtextxycg(8,16,string("Starting RPi 1"),154,147)
00a88     0C 00 00 FF 
00a8c     BF C3 05 F6 | 	mov	arg03, ##@LR__0093
00a90     08 BE 05 F6 | 	mov	arg01, #8
00a94     10 C0 05 F6 | 	mov	arg02, #16
00a98     9A C4 05 F6 | 	mov	arg04, #154
00a9c     93 C6 05 F6 | 	mov	arg05, #147
00aa0     90 0A B0 FD | 	call	#_hng026r_outtextxycg
00aa4                 | ' pinh(pipower2)
00aa4     59 10 64 FD | 	drvh	#8
00aa8                 | ' pinl(20)
00aa8     58 28 64 FD | 	drvl	#20
00aac                 | ' 
00aac                 | ' 'start US sensors
00aac                 | ' 
00aac                 | ' pinstart (48 addpins 7, P_INVERT_IN | P_COUNT_HIGHS,0,0)
00aac     00 C4 05 F6 | 	mov	arg04, #0
00ab0     40 E0 67 FD | 	dirl	#496
00ab4     40 00 80 FF 
00ab8     F0 3D 0C FC | 	wrpin	##32798, #496
00abc     F0 01 1C FC | 	wxpin	#0, #496
00ac0     F0 01 2C FC | 	wypin	#0, #496
00ac4     41 E0 67 FD | 	dirh	#496
00ac8                 | ' sensor:=0 
00ac8     04 A0 85 F1 | 	sub	objptr, #4
00acc     D0 00 68 FC | 	wrlong	#0, objptr
00ad0                 | ' 
00ad0                 | ' adc.start(adcpin)
00ad0                 | ' 
00ad0                 | ' adcpin:=apin
00ad0     D4 A0 05 F1 | 	add	objptr, #212
00ad4     D0 22 68 FC | 	wrlong	#17, objptr
00ad8     04 A0 85 F1 | 	sub	objptr, #4
00adc                 | ' coginit(16,@mixer,@aresult)
00adc     D1 C0 01 F6 | 	mov	arg02, ptr__adccog_dat__
00ae0     D0 C2 01 F6 | 	mov	arg03, objptr
00ae4     10 BE 05 F6 | 	mov	arg01, #16
00ae8     28 C2 61 FD | 	setq	arg03
00aec     E0 BE F1 FC | 	coginit	arg01, arg02 wc
00af0     01 BE 65 C6 |  if_b	neg	arg01, #1
00af4     DF A8 01 F6 | 	mov	result1, arg01
00af8                 | ' waitms(100)
00af8     64 BE 05 F6 | 	mov	arg01, #100
00afc     F0 0D B0 FD | 	call	#__system___waitms
00b00     02 00 00 FF 
00b04     30 A1 85 F1 | 	sub	objptr, ##1328
00b08                 | ' cogspin(6,sbus(),@sbusstack)
00b08     D0 CC 01 F6 | 	mov	local03, objptr
00b0c     01 00 00 FF 
00b10     58 A1 05 F1 | 	add	objptr, ##856
00b14     D0 F8 01 F6 | 	mov	local25, objptr
00b18     FC CC 61 FC | 	wrlong	local03, local25
00b1c     04 F8 05 F1 | 	add	local25, #4
00b20     FC A6 61 FC | 	wrlong	ptr__sbus_, local25
00b24     D0 C2 01 F6 | 	mov	arg03, objptr
00b28     01 00 00 FF 
00b2c     58 A1 85 F1 | 	sub	objptr, ##856
00b30     06 BE 05 F6 | 	mov	arg01, #6
00b34     28 C2 61 FD | 	setq	arg03
00b38     CD BE F1 FC | 	coginit	arg01, entryptr__ wc
00b3c     01 BE 65 C6 |  if_b	neg	arg01, #1
00b40     DF A8 01 F6 | 	mov	result1, arg01
00b44     D4 FA 01 F6 | 	mov	local26, result1
00b48                 | ' 
00b48                 | ' '' Start PWMs for motors
00b48                 | ' 
00b48                 | ' pinstart(30,P_PWM_SAWTOOTH |P_OE |P_INVERT_OUTPUT,$ffFF_0001,100)' pwm l
00b48     40 3C 64 FD | 	dirl	#30
00b4c     20 00 80 FF 
00b50     1E A4 0C FC | 	wrpin	##16466, #30
00b54     80 FF FF FF 
00b58     1E 02 1C FC | 	wxpin	##-65535, #30
00b5c     1E C8 2C FC | 	wypin	#100, #30
00b60     41 3C 64 FD | 	dirh	#30
00b64                 | ' pinstart(34,P_INVERT_IN |p_count_rises,$2b7cd0*0,0)
00b64     40 44 64 FD | 	dirl	#34
00b68     40 00 80 FF 
00b6c     22 38 0C FC | 	wrpin	##32796, #34
00b70     22 00 1C FC | 	wxpin	#0, #34
00b74     22 00 2C FC | 	wypin	#0, #34
00b78     41 44 64 FD | 	dirh	#34
00b7c                 | ' 
00b7c                 | ' pinstart(24,P_PWM_SAWTOOTH |P_OE |P_INVERT_OUTPUT,$ffFF_0001,100)' pwm r
00b7c     40 30 64 FD | 	dirl	#24
00b80     20 00 80 FF 
00b84     18 A4 0C FC | 	wrpin	##16466, #24
00b88     80 FF FF FF 
00b8c     18 02 1C FC | 	wxpin	##-65535, #24
00b90     18 C8 2C FC | 	wypin	#100, #24
00b94     41 30 64 FD | 	dirh	#24
00b98                 | ' pinstart(28,P_INVERT_IN |p_count_rises,$2b7cd0*10,0)
00b98     40 00 00 FF 
00b9c     1C C0 05 F6 | 	mov	arg02, ##32796
00ba0     70 D9 00 FF 
00ba4     20 C2 05 F6 | 	mov	arg03, ##28500000
00ba8     00 C4 05 F6 | 	mov	arg04, #0
00bac     40 38 64 FD | 	dirl	#28
00bb0     40 00 80 FF 
00bb4     1C 38 0C FC | 	wrpin	##32796, #28
00bb8     70 D9 80 FF 
00bbc     1C 40 1C FC | 	wxpin	##28500000, #28
00bc0     1C 00 2C FC | 	wypin	#0, #28
00bc4     41 38 64 FD | 	dirh	#28
00bc8                 | ' 
00bc8                 | ' 
00bc8                 | ' pinh(38)' lamps
00bc8     59 4C 64 FD | 	drvh	#38
00bcc                 | ' waitms(2000)
00bcc     03 00 00 FF 
00bd0     D0 BF 05 F6 | 	mov	arg01, ##2000
00bd4     18 0D B0 FD | 	call	#__system___waitms
00bd8                 | ' pinh(20 addpins 3)
00bd8     59 A8 65 FD | 	drvh	#212
00bdc                 | ' 
00bdc                 | ' '' Test motors
00bdc                 | ' 
00bdc                 | ' pinh(31)
00bdc     59 3E 64 FD | 	drvh	#31
00be0                 | ' pinh(32 addpins 1)
00be0     59 C0 64 FD | 	drvh	#96
00be4                 | ' 
00be4                 | ' pinh(25)
00be4     59 32 64 FD | 	drvh	#25
00be8                 | ' pinh(26 addpins 1)
00be8     5A BE 05 F6 | 	mov	arg01, #90
00bec     59 B4 64 FD | 	drvh	#90
00bf0                 | ' 
00bf0                 | ' ' 1068 - start
00bf0                 | ' 
00bf0                 | ' 
00bf0                 | ' repeat 
00bf0                 | LR__0017
00bf0                 | '   v.waitvbl(1)
00bf0     01 BE 05 F6 | 	mov	arg01, #1
00bf4     02 00 00 FF 
00bf8     64 A0 05 F1 | 	add	objptr, ##1124
00bfc     68 0A B0 FD | 	call	#_hng026r_waitvbl
00c00                 | '   frames++
00c00     08 A0 85 F1 | 	sub	objptr, #8
00c04     D0 1E 02 FB | 	rdlong	muldiva_, objptr
00c08     01 1E 06 F1 | 	add	muldiva_, #1
00c0c     D0 1E 62 FC | 	wrlong	muldiva_, objptr
00c10                 | '   if frames//60==0
00c10     02 00 00 FF 
00c14     5C A0 85 F1 | 	sub	objptr, ##1116
00c18     3C 20 06 F6 | 	mov	muldivb_, #60
00c1c     C3 00 A0 FD | 	call	#divide_
00c20     00 1E 0E F2 | 	cmp	muldiva_, #0 wz
00c24     C0 00 90 5D |  if_ne	jmp	#LR__0018
00c28                 | '     cc:=rqpin(34) 'speed l
00c28     00 A8 05 F6 | 	mov	result1, #0
00c2c     22 A8 85 FA | 	rqpin	result1, #34
00c30     D4 FC 01 F6 | 	mov	local27, result1
00c34                 | '     v.outtextxycg(8,48,string("            "),154,147)
00c34     0C 00 00 FF 
00c38     CE C3 05 F6 | 	mov	arg03, ##@LR__0094
00c3c     08 BE 05 F6 | 	mov	arg01, #8
00c40     30 C0 05 F6 | 	mov	arg02, #48
00c44     9A C4 05 F6 | 	mov	arg04, #154
00c48     93 C6 05 F6 | 	mov	arg05, #147
00c4c     02 00 00 FF 
00c50     64 A0 05 F1 | 	add	objptr, ##1124
00c54     DC 08 B0 FD | 	call	#_hng026r_outtextxycg
00c58     FE BE 01 F6 | 	mov	arg01, local27
00c5c     FF BE 81 F1 | 	sub	arg01, local28
00c60                 | '     v.outtextxycg(8,48,v.inttostr(cc-cc1),154,147)
00c60     08 CC 05 F6 | 	mov	local03, #8
00c64     30 F8 05 F6 | 	mov	local25, #48
00c68     70 0A B0 FD | 	call	#_hng026r_inttostr
00c6c     D4 C2 01 F6 | 	mov	arg03, result1
00c70     E6 BE 01 F6 | 	mov	arg01, local03
00c74     FC C0 01 F6 | 	mov	arg02, local25
00c78     9A C4 05 F6 | 	mov	arg04, #154
00c7c     93 C6 05 F6 | 	mov	arg05, #147
00c80     B0 08 B0 FD | 	call	#_hng026r_outtextxycg
00c84                 | '     cc1:=cc
00c84     FE FE 01 F6 | 	mov	local28, local27
00c88                 | '     cc2:=rqpin(28) 'speed r 
00c88     00 A8 05 F6 | 	mov	result1, #0
00c8c     1C A8 85 FA | 	rqpin	result1, #28
00c90     D4 00 02 F6 | 	mov	local29, result1
00c94                 | '     v.outtextxycg(8,48,string("            "),154,147)
00c94     0C 00 00 FF 
00c98     DB C3 05 F6 | 	mov	arg03, ##@LR__0095
00c9c     08 BE 05 F6 | 	mov	arg01, #8
00ca0     30 C0 05 F6 | 	mov	arg02, #48
00ca4     9A C4 05 F6 | 	mov	arg04, #154
00ca8     93 C6 05 F6 | 	mov	arg05, #147
00cac     84 08 B0 FD | 	call	#_hng026r_outtextxycg
00cb0     00 BF 01 F6 | 	mov	arg01, local29
00cb4     01 BF 81 F1 | 	sub	arg01, local30
00cb8                 | '     v.outtextxycg(8,48,v.inttostr(cc2-cc3),154,147)
00cb8     08 CC 05 F6 | 	mov	local03, #8
00cbc     30 F8 05 F6 | 	mov	local25, #48
00cc0     18 0A B0 FD | 	call	#_hng026r_inttostr
00cc4     D4 C2 01 F6 | 	mov	arg03, result1
00cc8     E6 BE 01 F6 | 	mov	arg01, local03
00ccc     FC C0 01 F6 | 	mov	arg02, local25
00cd0     9A C4 05 F6 | 	mov	arg04, #154
00cd4     93 C6 05 F6 | 	mov	arg05, #147
00cd8     58 08 B0 FD | 	call	#_hng026r_outtextxycg
00cdc     02 00 00 FF 
00ce0     64 A0 85 F1 | 	sub	objptr, ##1124
00ce4                 | '     cc3:=cc2
00ce4     00 03 02 F6 | 	mov	local30, local29
00ce8                 | LR__0018
00ce8     02 00 00 FF 
00cec     58 A0 05 F1 | 	add	objptr, ##1112
00cf0     D0 F8 01 FB | 	rdlong	local25, objptr
00cf4     FC CC 01 F6 | 	mov	local03, local25
00cf8     05 CC 65 F0 | 	shl	local03, #5
00cfc     FC CC 81 F1 | 	sub	local03, local25
00d00                 | '   voltage:=(31*voltage+adc.measure())>>5
00d00     D8 A0 05 F1 | 	add	objptr, #216
00d04     D0 04 02 FB | 	rdlong	local31, objptr
00d08     08 A0 05 F1 | 	add	objptr, #8
00d0c     D0 06 02 FB | 	rdlong	local32, objptr
00d10     03 05 82 F1 | 	sub	local31, local32
00d14     40 00 00 FF 
00d18     E8 04 06 FD | 	qmul	local31, ##33000
00d1c     18 1E 62 FD | 	getqx	muldiva_
00d20     04 A0 05 F1 | 	add	objptr, #4
00d24     D0 20 02 FB | 	rdlong	muldivb_, objptr
00d28     04 A0 85 F1 | 	sub	objptr, #4
00d2c     D0 08 02 FB | 	rdlong	local33, objptr
00d30     08 A0 85 F1 | 	sub	objptr, #8
00d34     04 21 82 F1 | 	sub	muldivb_, local33
00d38     C3 00 A0 FD | 	call	#divide_
00d3c                 | ' 
00d3c                 | ' 
00d3c                 | ' return 33000*(aresult-agnd)/(avcc-agnd)
00d3c     10 A9 01 F6 | 	mov	result1, muldivb_
00d40     10 CD 01 F1 | 	add	local03, muldivb_
00d44     05 CC 45 F0 | 	shr	local03, #5
00d48     D8 A0 85 F1 | 	sub	objptr, #216
00d4c     D0 CC 61 FC | 	wrlong	local03, objptr
00d50                 | '   c:=120
00d50     78 0A 06 F6 | 	mov	local34, #120
00d54                 | '   if voltage<22200
00d54     2B 00 00 FF 
00d58     B8 CC 5D F2 | 	cmps	local03, ##22200 wcz
00d5c                 | '     c:=200
00d5c     C8 0A 06 C6 |  if_b	mov	local34, #200
00d60                 | '   if voltage<20000
00d60     D0 CC 01 FB | 	rdlong	local03, objptr
00d64     27 00 00 FF 
00d68     20 CC 5D F2 | 	cmps	local03, ##20000 wcz
00d6c                 | '     c:=252
00d6c     FC 0A 06 C6 |  if_b	mov	local34, #252
00d70                 | '   if voltage<19000
00d70     D0 CC 01 FB | 	rdlong	local03, objptr
00d74     25 00 00 FF 
00d78     38 CC 5D F2 | 	cmps	local03, ##19000 wcz
00d7c                 | '       c:=40
00d7c     28 0A 06 C6 |  if_b	mov	local34, #40
00d80                 | '     
00d80                 | '   v.outtextxycg(8+0,32,string("Voltage: "),c,147)
00d80     0C 00 00 FF 
00d84     E8 C3 05 F6 | 	mov	arg03, ##@LR__0096
00d88     08 BE 05 F6 | 	mov	arg01, #8
00d8c     20 C0 05 F6 | 	mov	arg02, #32
00d90     05 C5 01 F6 | 	mov	arg04, local34
00d94     93 C6 05 F6 | 	mov	arg05, #147
00d98     0C A0 05 F1 | 	add	objptr, #12
00d9c     94 07 B0 FD | 	call	#_hng026r_outtextxycg
00da0     0C A0 85 F1 | 	sub	objptr, #12
00da4     D0 1E 02 FB | 	rdlong	muldiva_, objptr
00da8     02 00 00 FF 
00dac     58 A0 85 F1 | 	sub	objptr, ##1112
00db0     01 00 00 FF 
00db4     E8 21 06 F6 | 	mov	muldivb_, ##1000
00db8     BF 00 A0 FD | 	call	#unsdivide_
00dbc                 | '   v.outtextxycg(8+72,32,v.inttostr(voltage+/1000),c,147)
00dbc     50 CC 05 F6 | 	mov	local03, #80
00dc0     20 F8 05 F6 | 	mov	local25, #32
00dc4     10 BF 01 F6 | 	mov	arg01, muldivb_
00dc8     02 00 00 FF 
00dcc     64 A0 05 F1 | 	add	objptr, ##1124
00dd0     08 09 B0 FD | 	call	#_hng026r_inttostr
00dd4     D4 C2 01 F6 | 	mov	arg03, result1
00dd8     E6 BE 01 F6 | 	mov	arg01, local03
00ddc     FC C0 01 F6 | 	mov	arg02, local25
00de0     05 C5 01 F6 | 	mov	arg04, local34
00de4     93 C6 05 F6 | 	mov	arg05, #147
00de8     48 07 B0 FD | 	call	#_hng026r_outtextxycg
00dec                 | '   v.outtextxycg(8+88,32,string("."),c,147)  
00dec     0C 00 00 FF 
00df0     F2 C3 05 F6 | 	mov	arg03, ##@LR__0097
00df4     60 BE 05 F6 | 	mov	arg01, #96
00df8     20 C0 05 F6 | 	mov	arg02, #32
00dfc     05 C5 01 F6 | 	mov	arg04, local34
00e00     93 C6 05 F6 | 	mov	arg05, #147
00e04     2C 07 B0 FD | 	call	#_hng026r_outtextxycg
00e08     0C A0 85 F1 | 	sub	objptr, #12
00e0c     D0 1E 02 FB | 	rdlong	muldiva_, objptr
00e10     02 00 00 FF 
00e14     58 A0 85 F1 | 	sub	objptr, ##1112
00e18     01 00 00 FF 
00e1c     E8 21 06 F6 | 	mov	muldivb_, ##1000
00e20     BF 00 A0 FD | 	call	#unsdivide_
00e24                 | '   v.outtextxycg(8+96,32,v.inttostr(voltage+//1000),c,147)
00e24     68 CC 05 F6 | 	mov	local03, #104
00e28     20 F8 05 F6 | 	mov	local25, #32
00e2c     0F BF 01 F6 | 	mov	arg01, muldiva_
00e30     02 00 00 FF 
00e34     64 A0 05 F1 | 	add	objptr, ##1124
00e38     A0 08 B0 FD | 	call	#_hng026r_inttostr
00e3c     D4 C2 01 F6 | 	mov	arg03, result1
00e40     E6 BE 01 F6 | 	mov	arg01, local03
00e44     FC C0 01 F6 | 	mov	arg02, local25
00e48     05 C5 01 F6 | 	mov	arg04, local34
00e4c     93 C6 05 F6 | 	mov	arg05, #147
00e50     E0 06 B0 FD | 	call	#_hng026r_outtextxycg
00e54                 | '   v.outtextxycg(8+128,32,string("V"),c,147)
00e54     0C 00 00 FF 
00e58     F4 C3 05 F6 | 	mov	arg03, ##@LR__0098
00e5c     88 BE 05 F6 | 	mov	arg01, #136
00e60     20 C0 05 F6 | 	mov	arg02, #32
00e64     05 C5 01 F6 | 	mov	arg04, local34
00e68     93 C6 05 F6 | 	mov	arg05, #147
00e6c     C4 06 B0 FD | 	call	#_hng026r_outtextxycg
00e70                 | '   v.outtextxycg(8+128,32,string("V"),c,147)
00e70     0C 00 00 FF 
00e74     F6 C3 05 F6 | 	mov	arg03, ##@LR__0099
00e78     05 C5 01 F6 | 	mov	arg04, local34
00e7c     88 BE 05 F6 | 	mov	arg01, #136
00e80     20 C0 05 F6 | 	mov	arg02, #32
00e84     93 C6 05 F6 | 	mov	arg05, #147
00e88     A8 06 B0 FD | 	call	#_hng026r_outtextxycg
00e8c     02 00 00 FF 
00e90     48 A0 85 F1 | 	sub	objptr, ##1096
00e94     D0 0C 02 F6 | 	mov	local35, objptr
00e98     D0 0E 02 F6 | 	mov	local36, objptr
00e9c     00 10 06 F6 | 	mov	local37, #0
00ea0     1C A0 85 F1 | 	sub	objptr, #28
00ea4                 | LR__0019
00ea4     06 1F E2 FA | 	rdword	muldiva_, local35
00ea8     01 00 00 FF 
00eac     E8 21 06 F6 | 	mov	muldivb_, ##1000
00eb0     C3 00 A0 FD | 	call	#divide_
00eb4     10 13 02 F6 | 	mov	local38, muldivb_
00eb8     03 12 66 F0 | 	shl	local38, #3
00ebc                 | '     d:=(8*(channel[i11]/1000))
00ebc     09 15 0A F6 | 	mov	local39, local38 wz
00ec0                 | '     if d==0
00ec0     54 00 90 5D |  if_ne	jmp	#LR__0020
00ec4     08 CD 51 F6 | 	abs	local03, local37 wc
00ec8     03 CC 05 F5 | 	and	local03, #3
00ecc     E6 CC 61 C6 |  if_b	neg	local03, local03
00ed0     06 CC 65 F0 | 	shl	local03, #6
00ed4     08 BE 05 F6 | 	mov	arg01, #8
00ed8     E6 BE 01 F1 | 	add	arg01, local03
00edc     08 CD 51 F6 | 	abs	local03, local37 wc
00ee0     02 CC 45 F0 | 	shr	local03, #2
00ee4     E6 CC 61 C6 |  if_b	neg	local03, local03
00ee8     04 CC 65 F0 | 	shl	local03, #4
00eec     50 CC 05 F1 | 	add	local03, #80
00ef0                 | '       v.outtextxycg(8+(i11//4)<<6,16*(i11/4)+80,string(" "),154,147)
00ef0     0C 00 00 FF 
00ef4     F8 C3 05 F6 | 	mov	arg03, ##@LR__0100
00ef8     E6 C0 01 F6 | 	mov	arg02, local03
00efc     9A C4 05 F6 | 	mov	arg04, #154
00f00     93 C6 05 F6 | 	mov	arg05, #147
00f04     02 00 00 FF 
00f08     64 A0 05 F1 | 	add	objptr, ##1124
00f0c     24 06 B0 FD | 	call	#_hng026r_outtextxycg
00f10     02 00 00 FF 
00f14     64 A0 85 F1 | 	sub	objptr, ##1124
00f18                 | LR__0020
00f18     10 16 06 F6 | 	mov	local40, #16
00f1c     0A 17 82 F1 | 	sub	local40, local39
00f20     08 CD 51 F6 | 	abs	local03, local37 wc
00f24     03 CC 05 F5 | 	and	local03, #3
00f28     E6 CC 61 C6 |  if_b	neg	local03, local03
00f2c     06 CC 65 F0 | 	shl	local03, #6
00f30     E6 16 02 F1 | 	add	local40, local03
00f34     08 CD 51 F6 | 	abs	local03, local37 wc
00f38     02 CC 45 F0 | 	shr	local03, #2
00f3c     E6 CC 61 C6 |  if_b	neg	local03, local03
00f40     04 CC 65 F0 | 	shl	local03, #4
00f44     E6 F8 01 F6 | 	mov	local25, local03
00f48     50 F8 05 F1 | 	add	local25, #80
00f4c                 | '     v.outtextxycg(16-d+(i11//4)<<6,16*(i11/4)+80,v.inttostr(channel[i11]),154,147)  
00f4c     0B CD 01 F6 | 	mov	local03, local40
00f50     07 BF E1 FA | 	rdword	arg01, local36
00f54     02 00 00 FF 
00f58     64 A0 05 F1 | 	add	objptr, ##1124
00f5c     7C 07 B0 FD | 	call	#_hng026r_inttostr
00f60     D4 C2 01 F6 | 	mov	arg03, result1
00f64     E6 BE 01 F6 | 	mov	arg01, local03
00f68     FC C0 01 F6 | 	mov	arg02, local25
00f6c     9A C4 05 F6 | 	mov	arg04, #154
00f70     93 C6 05 F6 | 	mov	arg05, #147
00f74     BC 05 B0 FD | 	call	#_hng026r_outtextxycg
00f78     02 00 00 FF 
00f7c     64 A0 85 F1 | 	sub	objptr, ##1124
00f80     01 10 06 F1 | 	add	local37, #1
00f84     02 0C 06 F1 | 	add	local35, #2
00f88     02 0E 06 F1 | 	add	local36, #2
00f8c     10 10 5E F2 | 	cmps	local37, #16 wcz
00f90     10 FF 9F CD |  if_b	jmp	#LR__0019
00f94                 | ' 
00f94                 | '   '596.491 nm/clk
00f94                 | '   
00f94                 | ' 
00f94                 | '   if (frames+//3)==0
00f94     02 00 00 FF 
00f98     5C A0 05 F1 | 	add	objptr, ##1116
00f9c     D0 1E 02 FB | 	rdlong	muldiva_, objptr
00fa0     02 00 00 FF 
00fa4     5C A0 85 F1 | 	sub	objptr, ##1116
00fa8     03 20 06 F6 | 	mov	muldivb_, #3
00fac     BF 00 A0 FD | 	call	#unsdivide_
00fb0     00 1E 0E F2 | 	cmp	muldiva_, #0 wz
00fb4     38 FC 9F 5D |  if_ne	jmp	#LR__0017
00fb8                 | '     sensor+=3
00fb8     02 00 00 FF 
00fbc     60 A0 05 F1 | 	add	objptr, ##1120
00fc0     D0 F8 01 FB | 	rdlong	local25, objptr
00fc4     03 F8 05 F1 | 	add	local25, #3
00fc8     D0 F8 61 FC | 	wrlong	local25, objptr
00fcc                 | '     sensor +//= 8
00fcc     07 F8 05 F5 | 	and	local25, #7
00fd0     D0 F8 61 FC | 	wrlong	local25, objptr
00fd4     30 BE 05 F6 | 	mov	arg01, #48
00fd8     02 00 00 FF 
00fdc     60 A0 85 F1 | 	sub	objptr, ##1120
00fe0     FC BE 01 F1 | 	add	arg01, local25
00fe4                 | '     c:=rdpin(48+sensor)+/1676
00fe4     00 A8 05 F6 | 	mov	result1, #0
00fe8     DF A8 89 FA | 	rdpin	result1, arg01
00fec     D4 1E 02 F6 | 	mov	muldiva_, result1
00ff0     03 00 00 FF 
00ff4     8C 20 06 F6 | 	mov	muldivb_, ##1676
00ff8     BF 00 A0 FD | 	call	#unsdivide_
00ffc     10 0B 02 F6 | 	mov	local34, muldivb_
01000     02 00 00 FF 
01004     60 A0 05 F1 | 	add	objptr, ##1120
01008     D0 18 02 FB | 	rdlong	local41, objptr
0100c     04 18 66 F0 | 	shl	local41, #4
01010     C8 C0 05 F6 | 	mov	arg02, #200
01014     0C C1 01 F1 | 	add	arg02, local41
01018                 | '     v.outtextxycg(8,200+16*sensor,string("     "),154,147)
01018     0C 00 00 FF 
0101c     FA C3 05 F6 | 	mov	arg03, ##@LR__0101
01020     08 BE 05 F6 | 	mov	arg01, #8
01024     9A C4 05 F6 | 	mov	arg04, #154
01028     93 C6 05 F6 | 	mov	arg05, #147
0102c     04 A0 05 F1 | 	add	objptr, #4
01030     00 05 B0 FD | 	call	#_hng026r_outtextxycg
01034     04 A0 85 F1 | 	sub	objptr, #4
01038     D0 1A 02 FB | 	rdlong	local42, objptr
0103c     04 1A 66 F0 | 	shl	local42, #4
01040     C8 1C 06 F6 | 	mov	local43, #200
01044     0D 1D 02 F1 | 	add	local43, local42
01048                 | '     v.outtextxycg(8,200+16*sensor,v.inttostr(c),154,147)    
01048     08 CC 05 F6 | 	mov	local03, #8
0104c     05 BF 01 F6 | 	mov	arg01, local34
01050     04 A0 05 F1 | 	add	objptr, #4
01054     84 06 B0 FD | 	call	#_hng026r_inttostr
01058     D4 C2 01 F6 | 	mov	arg03, result1
0105c     E6 BE 01 F6 | 	mov	arg01, local03
01060     0E C1 01 F6 | 	mov	arg02, local43
01064     9A C4 05 F6 | 	mov	arg04, #154
01068     93 C6 05 F6 | 	mov	arg05, #147
0106c     C4 04 B0 FD | 	call	#_hng026r_outtextxycg
01070     30 BE 05 F6 | 	mov	arg01, #48
01074     04 A0 85 F1 | 	sub	objptr, #4
01078     D0 F8 01 FB | 	rdlong	local25, objptr
0107c     FC BE 01 F1 | 	add	arg01, local25
01080                 | '     pinclear(48+sensor) 
01080     50 BE 61 FD | 	fltl	arg01
01084     DF 00 08 FC | 	wrpin	#0, arg01
01088     28 BE 05 F6 | 	mov	arg01, #40
0108c     02 00 00 FF 
01090     60 A0 85 F1 | 	sub	objptr, ##1120
01094     FC BE 01 F1 | 	add	arg01, local25
01098                 | '     pinl(40+sensor)
01098     58 BE 61 FD | 	drvl	arg01
0109c                 | '     waitus(40)
0109c     28 BE 05 F6 | 	mov	arg01, #40
010a0     AC 08 B0 FD | 	call	#__system___waitus
010a4     28 BE 05 F6 | 	mov	arg01, #40
010a8     02 00 00 FF 
010ac     60 A0 05 F1 | 	add	objptr, ##1120
010b0     D0 F8 01 FB | 	rdlong	local25, objptr
010b4     FC BE 01 F1 | 	add	arg01, local25
010b8                 | '     pinh(40+sensor)
010b8     59 BE 61 FD | 	drvh	arg01
010bc     30 BE 05 F6 | 	mov	arg01, #48
010c0     02 00 00 FF 
010c4     60 A0 85 F1 | 	sub	objptr, ##1120
010c8     FC BE 01 F1 | 	add	arg01, local25
010cc                 | '     pinstart(48+sensor, P_INVERT_IN  | P_COUNT_HIGHS,0,0)
010cc     40 00 00 FF 
010d0     1E C0 05 F6 | 	mov	arg02, ##32798
010d4     00 C2 05 F6 | 	mov	arg03, #0
010d8     00 C4 05 F6 | 	mov	arg04, #0
010dc     40 BE 61 FD | 	dirl	arg01
010e0     40 00 80 FF 
010e4     DF 3C 08 FC | 	wrpin	##32798, arg01
010e8     DF 00 18 FC | 	wxpin	#0, arg01
010ec     DF 00 28 FC | 	wypin	#0, arg01
010f0     41 BE 61 FD | 	dirh	arg01
010f4     F8 FA 9F FD | 	jmp	#LR__0017
010f8     A2 F0 03 F6 | 	mov	ptra, fp
010fc     B2 00 A0 FD | 	call	#popregs_
01100                 | _main_ret
01100     2D 00 64 FD | 	ret
01104                 | 
01104                 | ' 
01104                 | '      
01104                 | '   
01104                 | ' 
01104                 | ' ''-----------------------------------------------------------------------------------------------
01104                 | ' ''---------------------- SBUS stuff for COGSPIN ------------------------------------------------- 
01104                 | ' ''-----------------------------------------------------------------------------------------------
01104                 | ' 
01104                 | ' pub sbus()
01104                 | _sbus
01104                 | ' 
01104                 | ' repeat
01104                 | LR__0021
01104                 | '   waitms(20)
01104     14 BE 05 F6 | 	mov	arg01, #20
01108     E4 07 B0 FD | 	call	#__system___waitms
0110c                 | '   if (receive_sbus(SBUS_RX, @frame))                          ' get s.bus frame
0110c     D0 C0 01 F6 | 	mov	arg02, objptr
01110     10 BE 05 F6 | 	mov	arg01, #16
01114     28 00 B0 FD | 	call	#_receive_sbus
01118     00 A8 0D F2 | 	cmp	result1, #0 wz
0111c     E4 FF 9F AD |  if_e	jmp	#LR__0021
01120                 | '     pintoggle(56)
01120     5F 70 64 FD | 	drvnot	#56
01124     D0 BE 01 F6 | 	mov	arg01, objptr
01128     1C A0 05 F1 | 	add	objptr, #28
0112c     D0 C0 01 F6 | 	mov	arg02, objptr
01130     1C A0 85 F1 | 	sub	objptr, #28
01134                 | '     decode_sbus(@frame, @channel)                             ' convert to channel values
01134     DC 01 B0 FD | 	call	#_decode_sbus
01138     C8 FF 9F FD | 	jmp	#LR__0021
0113c                 | _sbus_ret
0113c     2D 00 64 FD | 	ret
01140                 | 
01140                 | '     
01140                 | '     
01140                 | '       
01140                 | ' ''---------------------- SBUS receiver/decoder       
01140                 | '       
01140                 | ' pub receive_sbus(p, p_sbus) : success | x, b, byte buffer[25]   ' blocks if no signal!!!
01140                 | _receive_sbus
01140     07 40 05 F6 | 	mov	COUNT_, #7
01144     A3 00 A0 FD | 	call	#pushregs_
01148     3C F0 07 F1 | 	add	ptra, #60
0114c     04 44 05 F1 | 	add	fp, #4
01150     A2 BE 61 FC | 	wrlong	arg01, fp
01154     04 44 05 F1 | 	add	fp, #4
01158     A2 C0 61 FC | 	wrlong	arg02, fp
0115c     08 44 85 F1 | 	sub	fp, #8
01160     A2 00 68 FC | 	wrlong	#0, fp
01164                 | ' 
01164                 | '   pinclear(p)                                                   ' force to tri-state mode
01164     04 44 05 F1 | 	add	fp, #4
01168     A2 BE 01 FB | 	rdlong	arg01, fp
0116c     50 BE 61 FD | 	fltl	arg01
01170     DF 00 08 FC | 	wrpin	#0, arg01
01174                 | ' 
01174                 | '   x := 0                                                        ' find inter-frame gap
01174     08 44 05 F1 | 	add	fp, #8
01178     A2 00 68 FC | 	wrlong	#0, fp
0117c     0C 44 85 F1 | 	sub	fp, #12
01180                 | '   repeat
01180                 | LR__0022
01180                 | '     if (pinread(p) == 1)'0
01180     04 44 05 F1 | 	add	fp, #4
01184     A2 BE 01 FB | 	rdlong	arg01, fp
01188     04 44 85 F1 | 	sub	fp, #4
0118c     20 BE CD F7 | 	test	arg01, #32 wz
01190     FF C9 01 56 |  if_ne	mov	local01, inb
01194     FE C9 01 A6 |  if_e	mov	local01, ina
01198     E4 A8 01 F6 | 	mov	result1, local01
0119c     DF A8 41 F0 | 	shr	result1, arg01
011a0     06 BE 45 F0 | 	shr	arg01, #6
011a4     DF A8 41 F7 | 	zerox	result1, arg01
011a8     01 A8 0D F2 | 	cmp	result1, #1 wz
011ac     20 00 90 5D |  if_ne	jmp	#LR__0023
011b0                 | '       if (++x == 250)
011b0     0C 44 05 F1 | 	add	fp, #12
011b4     A2 CA 01 FB | 	rdlong	local02, fp
011b8     01 CA 05 F1 | 	add	local02, #1
011bc     A2 CA 61 FC | 	wrlong	local02, fp
011c0     0C 44 85 F1 | 	sub	fp, #12
011c4     FA CA 0D F2 | 	cmp	local02, #250 wz
011c8                 | '         quit
011c8     14 00 90 AD |  if_e	jmp	#LR__0024
011cc                 | '     else
011cc     B0 FF 9F FD | 	jmp	#LR__0022
011d0                 | LR__0023
011d0                 | '       x := 0
011d0     0C 44 05 F1 | 	add	fp, #12
011d4     A2 00 68 FC | 	wrlong	#0, fp
011d8     0C 44 85 F1 | 	sub	fp, #12
011dc     A0 FF 9F FD | 	jmp	#LR__0022
011e0                 | LR__0024
011e0                 | ' 
011e0                 | '   pinstart(p, SBUS_CFG, SBUS_BAUD, 0)                           ' configure for S.BUS serial
011e0     04 44 05 F1 | 	add	fp, #4
011e4     A2 BE 01 FB | 	rdlong	arg01, fp
011e8     00 C4 05 F6 | 	mov	arg04, #0
011ec     40 BE 61 FD | 	dirl	arg01
011f0     DF 7C 08 FC | 	wrpin	#62, arg01
011f4     00 91 85 FF 
011f8     DF 10 18 FC | 	wxpin	##186777608, arg01
011fc     DF 00 28 FC | 	wypin	#0, arg01
01200     41 BE 61 FD | 	dirh	arg01
01204                 | ' 
01204                 | '   repeat x from 0 to 24                                         ' get s.bus frame
01204     08 44 05 F1 | 	add	fp, #8
01208     A2 00 68 FC | 	wrlong	#0, fp
0120c     0C 44 85 F1 | 	sub	fp, #12
01210                 | LR__0025
01210     18 EE 9F FE | 	loc	pa,	#(@LR__0027-@LR__0026)
01214     93 00 A0 FD | 	call	#FCACHE_LOAD_
01218                 | '     repeat until (pinread(p))                                   ' wait for byte
01218                 | LR__0026
01218     04 44 05 F1 | 	add	fp, #4
0121c     A2 BE 01 FB | 	rdlong	arg01, fp
01220     04 44 85 F1 | 	sub	fp, #4
01224     20 BE CD F7 | 	test	arg01, #32 wz
01228     FF C9 01 56 |  if_ne	mov	local01, inb
0122c     FE C9 01 A6 |  if_e	mov	local01, ina
01230     E4 A8 01 F6 | 	mov	result1, local01
01234     DF A8 41 F0 | 	shr	result1, arg01
01238     06 BE 45 F0 | 	shr	arg01, #6
0123c     DF A8 49 F7 | 	zerox	result1, arg01 wz
01240     D4 FF 9F AD |  if_e	jmp	#LR__0026
01244                 | LR__0027
01244                 | '     b := rdpin(p) >> 23                                         ' get data + parity
01244     04 44 05 F1 | 	add	fp, #4
01248     A2 BE 01 FB | 	rdlong	arg01, fp
0124c     00 A8 05 F6 | 	mov	result1, #0
01250     DF A8 89 FA | 	rdpin	result1, arg01
01254     D4 BE 01 F6 | 	mov	arg01, result1
01258     17 BE 45 F0 | 	shr	arg01, #23
0125c     0C 44 05 F1 | 	add	fp, #12
01260     A2 BE 61 FC | 	wrlong	arg01, fp
01264                 | '     if (ones(b) & 1)                                            ' if odd parity
01264     10 44 85 F1 | 	sub	fp, #16
01268     00 A8 05 F6 | 	mov	result1, #0
0126c     DF A8 A1 F7 | 	ones	result1, arg01
01270     01 A8 CD F7 | 	test	result1, #1 wz
01274                 | '       return false                                              '  return error
01274     00 A8 05 56 |  if_ne	mov	result1, #0
01278     8C 00 90 5D |  if_ne	jmp	#LR__0030
0127c                 | '     else                                                        ' else
0127c     10 44 05 F1 | 	add	fp, #16
01280     A2 CC 01 FB | 	rdlong	local03, fp
01284     FF CC 05 F5 | 	and	local03, #255
01288     04 44 85 F1 | 	sub	fp, #4
0128c     A2 CE 01 FB | 	rdlong	local04, fp
01290     08 44 05 F1 | 	add	fp, #8
01294     A2 CE 01 F1 | 	add	local04, fp
01298                 | '       buffer[x] := b & $FF                                      '  save to buffer
01298     E7 CC 41 FC | 	wrbyte	local03, local04
0129c     08 44 85 F1 | 	sub	fp, #8
012a0     A2 D0 01 FB | 	rdlong	local05, fp
012a4     01 D0 05 F1 | 	add	local05, #1
012a8     A2 D0 61 FC | 	wrlong	local05, fp
012ac     0C 44 85 F1 | 	sub	fp, #12
012b0     19 D0 5D F2 | 	cmps	local05, #25 wcz
012b4     58 FF 9F CD |  if_b	jmp	#LR__0025
012b8                 | ' 
012b8                 | '   if (buffer[0] <> $0F) || (buffer[24] <> $00)                  ' check header & footer bytes
012b8     14 44 05 F1 | 	add	fp, #20
012bc     A2 D2 C1 FA | 	rdbyte	local06, fp
012c0     14 44 85 F1 | 	sub	fp, #20
012c4     0F D2 0D F2 | 	cmp	local06, #15 wz
012c8     14 00 90 5D |  if_ne	jmp	#LR__0028
012cc     2C 44 05 F1 | 	add	fp, #44
012d0     A2 D4 C1 FA | 	rdbyte	local07, fp
012d4     2C 44 85 F1 | 	sub	fp, #44
012d8     EA CA 09 F6 | 	mov	local02, local07 wz
012dc     08 00 90 AD |  if_e	jmp	#LR__0029
012e0                 | LR__0028
012e0                 | '     return false
012e0     00 A8 05 F6 | 	mov	result1, #0
012e4     20 00 90 FD | 	jmp	#LR__0030
012e8                 | LR__0029
012e8     14 44 05 F1 | 	add	fp, #20
012ec     A2 C0 01 F6 | 	mov	arg02, fp
012f0                 | ' 
012f0                 | '   bytemove(p_sbus, @buffer, 25)                                 ' success; copy to destination
012f0     0C 44 85 F1 | 	sub	fp, #12
012f4     A2 BE 01 FB | 	rdlong	arg01, fp
012f8     08 44 85 F1 | 	sub	fp, #8
012fc     19 C2 05 F6 | 	mov	arg03, #25
01300     EC 04 B0 FD | 	call	#__system____builtin_memmove
01304                 | ' 
01304                 | '   return true
01304     01 A8 65 F6 | 	neg	result1, #1
01308                 | LR__0030
01308     A2 F0 03 F6 | 	mov	ptra, fp
0130c     B2 00 A0 FD | 	call	#popregs_
01310                 | _receive_sbus_ret
01310     2D 00 64 FD | 	ret
01314                 | 
01314                 | ' 
01314                 | ' 
01314                 | ' pub decode_sbus(p_sbus, p_chans) | ch, work, bc, flags
01314                 | _decode_sbus
01314     0C 40 05 F6 | 	mov	COUNT_, #12
01318     A3 00 A0 FD | 	call	#pushregs_
0131c     3C F0 07 F1 | 	add	ptra, #60
01320     A2 BE 61 FC | 	wrlong	arg01, fp
01324     04 44 05 F1 | 	add	fp, #4
01328     A2 C0 61 FC | 	wrlong	arg02, fp
0132c     04 44 85 F1 | 	sub	fp, #4
01330                 | ' 
01330                 | '   p_sbus += 1                                                   ' point to data byte #1
01330     A2 C8 01 FB | 	rdlong	local01, fp
01334     01 C8 05 F1 | 	add	local01, #1
01338     A2 C8 61 FC | 	wrlong	local01, fp
0133c     08 44 05 F1 | 	add	fp, #8
01340     A2 BE 01 F6 | 	mov	arg01, fp
01344     08 44 85 F1 | 	sub	fp, #8
01348                 | ' 
01348                 | '   longfill(@ch, 0, 3)                                           ' clear locals
01348     00 C0 05 F6 | 	mov	arg02, #0
0134c     BC EC 9F FE | 	loc	pa,	#(@LR__0033-@LR__0031)
01350     93 00 A0 FD | 	call	#FCACHE_LOAD_
01354                 | LR__0031
01354     03 04 DC FC | 	rep	@LR__0034, #3
01358                 | LR__0032
01358     DF C0 61 FC | 	wrlong	arg02, arg01
0135c     04 BE 05 F1 | 	add	arg01, #4
01360                 | LR__0033
01360                 | LR__0034
01360     6C ED 9F FE | 	loc	pa,	#(@LR__0038-@LR__0035)
01364     93 00 A0 FD | 	call	#FCACHE_LOAD_
01368                 | ' 
01368                 | '   repeat while (ch <= 15)                                       ' Ch 1-16 decoding
01368                 | LR__0035
01368     08 44 05 F1 | 	add	fp, #8
0136c     A2 C8 01 FB | 	rdlong	local01, fp
01370     08 44 85 F1 | 	sub	fp, #8
01374     0F C8 5D F2 | 	cmps	local01, #15 wcz
01378     BC 00 90 1D |  if_a	jmp	#LR__0039
0137c                 | '     repeat while (bc < 11)                                      ' collect enough bits for channel
0137c                 | LR__0036
0137c     10 44 05 F1 | 	add	fp, #16
01380     A2 C8 01 FB | 	rdlong	local01, fp
01384     10 44 85 F1 | 	sub	fp, #16
01388     0B C8 5D F2 | 	cmps	local01, #11 wcz
0138c     48 00 90 3D |  if_ae	jmp	#LR__0037
01390                 | '       work |= (byte[p_sbus++] << bc)                            ' get byte, position, add to work
01390     A2 CA 01 FB | 	rdlong	local02, fp
01394     E5 CC 01 F6 | 	mov	local03, local02
01398     01 CC 05 F1 | 	add	local03, #1
0139c     A2 CC 61 FC | 	wrlong	local03, fp
013a0     E5 CE C1 FA | 	rdbyte	local04, local02
013a4     10 44 05 F1 | 	add	fp, #16
013a8     A2 D0 01 FB | 	rdlong	local05, fp
013ac     E8 CE 61 F0 | 	shl	local04, local05
013b0     04 44 85 F1 | 	sub	fp, #4
013b4     A2 D2 01 FB | 	rdlong	local06, fp
013b8     E7 D2 41 F5 | 	or	local06, local04
013bc     A2 D2 61 FC | 	wrlong	local06, fp
013c0                 | '       bc += 8                                                   ' bump bit count
013c0     04 44 05 F1 | 	add	fp, #4
013c4     A2 C8 01 FB | 	rdlong	local01, fp
013c8     08 C8 05 F1 | 	add	local01, #8
013cc     A2 C8 61 FC | 	wrlong	local01, fp
013d0     10 44 85 F1 | 	sub	fp, #16
013d4     A4 FF 9F FD | 	jmp	#LR__0036
013d8                 | LR__0037
013d8     0C 44 05 F1 | 	add	fp, #12
013dc     A2 D4 01 FB | 	rdlong	local07, fp
013e0     03 00 00 FF 
013e4     FF D5 05 F5 | 	and	local07, ##2047
013e8                 | '     word[p_chans][ch++] := work & $07FF                         ' extract and save channel
013e8     08 44 85 F1 | 	sub	fp, #8
013ec     A2 D6 01 FB | 	rdlong	local08, fp
013f0     04 44 05 F1 | 	add	fp, #4
013f4     A2 D8 01 FB | 	rdlong	local09, fp
013f8     EC DA 01 F6 | 	mov	local10, local09
013fc     01 DA 05 F1 | 	add	local10, #1
01400     A2 DA 61 FC | 	wrlong	local10, fp
01404     01 D8 65 F0 | 	shl	local09, #1
01408     EB D8 01 F1 | 	add	local09, local08
0140c     EC D4 51 FC | 	wrword	local07, local09
01410                 | '     work >>= 11                                                 ' remove channel, re-align lsb
01410     04 44 05 F1 | 	add	fp, #4
01414     A2 C8 01 FB | 	rdlong	local01, fp
01418     0B C8 45 F0 | 	shr	local01, #11
0141c     A2 C8 61 FC | 	wrlong	local01, fp
01420                 | '     bc -= 11                                                    ' fix bit count
01420     04 44 05 F1 | 	add	fp, #4
01424     A2 C8 01 FB | 	rdlong	local01, fp
01428     0B C8 85 F1 | 	sub	local01, #11
0142c     A2 C8 61 FC | 	wrlong	local01, fp
01430     10 44 85 F1 | 	sub	fp, #16
01434     30 FF 9F FD | 	jmp	#LR__0035
01438                 | LR__0038
01438                 | LR__0039
01438                 | ' 
01438                 | '   flags := byte[p_sbus]
01438     A2 C8 01 FB | 	rdlong	local01, fp
0143c     E4 DC C1 FA | 	rdbyte	local11, local01
01440     14 44 05 F1 | 	add	fp, #20
01444     A2 DC 61 FC | 	wrlong	local11, fp
01448     01 DC CD F7 | 	test	local11, #1 wz
0144c                 | ' 
0144c                 | '   word[p_chans][16] := (flags & %0001) ? $07FF : 0              ' convert ch17 bit
0144c     0A C8 CD 59 |  if_ne	bmask	local01, #10
01450     00 C8 05 A6 |  if_e	mov	local01, #0
01454     10 44 85 F1 | 	sub	fp, #16
01458     A2 CA 01 FB | 	rdlong	local02, fp
0145c     20 CA 05 F1 | 	add	local02, #32
01460     E5 C8 51 FC | 	wrword	local01, local02
01464     10 44 05 F1 | 	add	fp, #16
01468     A2 DE 01 FB | 	rdlong	local12, fp
0146c     02 DE CD F7 | 	test	local12, #2 wz
01470                 | '   word[p_chans][17] := (flags & %0010) ? $07FF : 0              ' convert ch18 bit
01470     0A C8 CD 59 |  if_ne	bmask	local01, #10
01474     00 C8 05 A6 |  if_e	mov	local01, #0
01478     10 44 85 F1 | 	sub	fp, #16
0147c     A2 CA 01 FB | 	rdlong	local02, fp
01480     04 44 85 F1 | 	sub	fp, #4
01484     22 CA 05 F1 | 	add	local02, #34
01488     E5 C8 51 FC | 	wrword	local01, local02
0148c     A2 F0 03 F6 | 	mov	ptra, fp
01490     B2 00 A0 FD | 	call	#popregs_
01494                 | _decode_sbus_ret
01494     2D 00 64 FD | 	ret
01498                 | 
01498                 | ' 
01498                 | ' pub putcharxycg(x,y,achar,f,b) |xx, yy,bb
01498                 | _hng026r_putcharxycg
01498     0A 40 05 F6 | 	mov	COUNT_, #10
0149c     A3 00 A0 FD | 	call	#pushregs_
014a0     DF C8 01 F6 | 	mov	local01, arg01
014a4     E0 CA 01 F6 | 	mov	local02, arg02
014a8     E1 CC 01 F6 | 	mov	local03, arg03
014ac     E2 CE 01 F6 | 	mov	local04, arg04
014b0     E3 D0 01 F6 | 	mov	local05, arg05
014b4     04 CC 65 F0 | 	shl	local03, #4
014b8     00 D2 05 F6 | 	mov	local06, #0
014bc                 | LR__0040
014bc     D2 D4 01 F6 | 	mov	local07, ptr__hng026r_dat__
014c0     E6 D4 01 F1 | 	add	local07, local03
014c4     E9 D4 01 F1 | 	add	local07, local06
014c8                 | '   bb:=byte[@st_font+achar<<4+yy]
014c8     EA D6 C1 FA | 	rdbyte	local08, local07
014cc                 | '   repeat xx from 0 to 7
014cc     00 D8 05 F6 | 	mov	local09, #0
014d0                 | LR__0041
014d0                 | '     if (bb&(1<<xx))<>0
014d0     EC DA C1 F9 | 	decod	local10, local09
014d4     ED D6 C9 F7 | 	test	local08, local10 wz
014d8     1C 00 90 AD |  if_e	jmp	#LR__0042
014dc     EC BE 01 F6 | 	mov	arg01, local09
014e0     E4 BE 01 F1 | 	add	arg01, local01
014e4     E9 C0 01 F6 | 	mov	arg02, local06
014e8     E5 C0 01 F1 | 	add	arg02, local02
014ec                 | '       putpixel(xx+x,yy+y,f)
014ec     E7 C2 01 F6 | 	mov	arg03, local04
014f0     E0 00 B0 FD | 	call	#_hng026r_putpixel
014f4                 | '     else
014f4     18 00 90 FD | 	jmp	#LR__0043
014f8                 | LR__0042
014f8     EC BE 01 F6 | 	mov	arg01, local09
014fc     E4 BE 01 F1 | 	add	arg01, local01
01500     E9 C0 01 F6 | 	mov	arg02, local06
01504     E5 C0 01 F1 | 	add	arg02, local02
01508                 | '       putpixel(xx+x,yy+y,b)
01508     E8 C2 01 F6 | 	mov	arg03, local05
0150c     C4 00 B0 FD | 	call	#_hng026r_putpixel
01510                 | LR__0043
01510     01 D8 05 F1 | 	add	local09, #1
01514     08 D8 5D F2 | 	cmps	local09, #8 wcz
01518     B4 FF 9F CD |  if_b	jmp	#LR__0041
0151c     01 D2 05 F1 | 	add	local06, #1
01520     10 D2 5D F2 | 	cmps	local06, #16 wcz
01524     94 FF 9F CD |  if_b	jmp	#LR__0040
01528     A2 F0 03 F6 | 	mov	ptra, fp
0152c     B2 00 A0 FD | 	call	#popregs_
01530                 | _hng026r_putcharxycg_ret
01530     2D 00 64 FD | 	ret
01534                 | 
01534                 | ' 
01534                 | ' pub outtextxycg(x,y,text,f,b) | iii,c
01534                 | _hng026r_outtextxycg
01534     0C 40 05 F6 | 	mov	COUNT_, #12
01538     A3 00 A0 FD | 	call	#pushregs_
0153c     DF C8 01 F6 | 	mov	local01, arg01
01540     E0 CA 01 F6 | 	mov	local02, arg02
01544     E1 CC 01 F6 | 	mov	local03, arg03
01548     E2 CE 01 F6 | 	mov	local04, arg04
0154c     E3 D0 01 F6 | 	mov	local05, arg05
01550                 | ' 
01550                 | ' repeat iii from 0 to strsize(text)-1
01550     00 D2 05 F6 | 	mov	local06, #0
01554     E6 BE 01 F6 | 	mov	arg01, local03
01558     00 D4 05 F6 | 	mov	local07, #0
0155c     B0 EA 9F FE | 	loc	pa,	#(@LR__0045-@LR__0044)
01560     93 00 A0 FD | 	call	#FCACHE_LOAD_
01564                 | LR__0044
01564     DF D6 C9 FA | 	rdbyte	local08, arg01 wz
01568     01 D4 05 51 |  if_ne	add	local07, #1
0156c     01 BE 05 51 |  if_ne	add	arg01, #1
01570     F0 FF 9F 5D |  if_ne	jmp	#LR__0044
01574                 | LR__0045
01574     EA A8 01 F6 | 	mov	result1, local07
01578     D4 D8 01 F6 | 	mov	local09, result1
0157c     01 D8 85 F1 | 	sub	local09, #1
01580     00 D8 5D F2 | 	cmps	local09, #0 wcz
01584     01 DA 05 16 |  if_a	mov	local10, #1
01588     01 DA 65 E6 |  if_be	neg	local10, #1
0158c     ED D8 01 F1 | 	add	local09, local10
01590                 | LR__0046
01590     E9 DC 01 F6 | 	mov	local11, local06
01594     03 DC 65 F0 | 	shl	local11, #3
01598     E4 BE 01 F6 | 	mov	arg01, local01
0159c     EE BE 01 F1 | 	add	arg01, local11
015a0     E6 DE 01 F6 | 	mov	local12, local03
015a4     E9 DE 01 F1 | 	add	local12, local06
015a8                 | '   putcharxycg(x+8*iii,y,byte[text+iii],f,b)
015a8     E5 C0 01 F6 | 	mov	arg02, local02
015ac     EF C2 C1 FA | 	rdbyte	arg03, local12
015b0     E7 C4 01 F6 | 	mov	arg04, local04
015b4     E8 C6 01 F6 | 	mov	arg05, local05
015b8     DC FE BF FD | 	call	#_hng026r_putcharxycg
015bc     ED D2 01 F1 | 	add	local06, local10
015c0     EC D2 09 F2 | 	cmp	local06, local09 wz
015c4     C8 FF 9F 5D |  if_ne	jmp	#LR__0046
015c8     A2 F0 03 F6 | 	mov	ptra, fp
015cc     B2 00 A0 FD | 	call	#popregs_
015d0                 | _hng026r_outtextxycg_ret
015d0     2D 00 64 FD | 	ret
015d4                 | 
015d4                 | ' 
015d4                 | ' 
015d4                 | ' ''---------- putpixel - put a pixel on the screen
015d4                 | ' 
015d4                 | ' pub putpixel(x,y,c)
015d4                 | _hng026r_putpixel
015d4                 | ' 
015d4                 | ' if ((y>=0) & (y<4*cpl) & (x>=0) & (x<lines))
015d4     00 AA 05 F6 | 	mov	_var01, #0
015d8     00 C0 5D F2 | 	cmps	arg02, #0 wcz
015dc     01 AA 65 36 |  if_ae	neg	_var01, #1
015e0     00 AC 05 F6 | 	mov	_var02, #0
015e4     84 A0 05 F1 | 	add	objptr, #132
015e8     D0 AE 01 FB | 	rdlong	_var03, objptr
015ec     02 AE 65 F0 | 	shl	_var03, #2
015f0     D7 C0 59 F2 | 	cmps	arg02, _var03 wcz
015f4     01 AC 65 C6 |  if_b	neg	_var02, #1
015f8     D6 AA 01 F5 | 	and	_var01, _var02
015fc     00 B0 05 F6 | 	mov	_var04, #0
01600     00 BE 5D F2 | 	cmps	arg01, #0 wcz
01604     01 B0 65 36 |  if_ae	neg	_var04, #1
01608     D8 AA 01 F5 | 	and	_var01, _var04
0160c     00 B2 05 F6 | 	mov	_var05, #0
01610     04 A0 05 F1 | 	add	objptr, #4
01614     D0 B4 01 FB | 	rdlong	_var06, objptr
01618     88 A0 85 F1 | 	sub	objptr, #136
0161c     DA BE 59 F2 | 	cmps	arg01, _var06 wcz
01620     01 B2 65 C6 |  if_b	neg	_var05, #1
01624     D9 AA C9 F7 | 	test	_var01, _var05 wz
01628     38 00 90 AD |  if_e	jmp	#LR__0047
0162c     84 A0 05 F1 | 	add	objptr, #132
01630     D0 B6 01 FB | 	rdlong	_var07, objptr
01634     02 B6 65 F0 | 	shl	_var07, #2
01638     04 A0 05 F1 | 	add	objptr, #4
0163c     D0 B8 01 FB | 	rdlong	_var08, objptr
01640     88 A0 85 F1 | 	sub	objptr, #136
01644     DF B8 81 F1 | 	sub	_var08, arg01
01648     01 B8 85 F1 | 	sub	_var08, #1
0164c     DC B6 01 FD | 	qmul	_var07, _var08
01650     18 BA 61 FD | 	getqx	_var09
01654     D0 BC 01 FB | 	rdlong	_var10, objptr
01658     DD BC 01 F1 | 	add	_var10, _var09
0165c     E0 BC 01 F1 | 	add	_var10, arg02
01660                 | '     byte[buf_ptr+4*cpl*(lines-x-1)+y]:=c
01660     DE C2 41 FC | 	wrbyte	arg03, _var10
01664                 | LR__0047
01664                 | _hng026r_putpixel_ret
01664     2D 00 64 FD | 	ret
01668                 | 
01668                 | ' 
01668                 | ' pub waitvbl(amount) | i
01668                 | _hng026r_waitvbl
01668     04 40 05 F6 | 	mov	COUNT_, #4
0166c     A3 00 A0 FD | 	call	#pushregs_
01670     DF C8 01 F6 | 	mov	local01, arg01
01674                 | ' 
01674                 | ' ''---------- Wait for start of vblank. Amount=delay in frames
01674                 | ' 
01674                 | ' repeat i from 1 to amount
01674     01 CA 05 F6 | 	mov	local02, #1
01678     01 C8 5D F2 | 	cmps	local01, #1 wcz
0167c     01 CC 05 16 |  if_a	mov	local03, #1
01680     01 CC 65 E6 |  if_be	neg	local03, #1
01684     E6 C8 01 F1 | 	add	local01, local03
01688                 | LR__0048
01688                 | '   repeat until vblank==0
01688                 | LR__0049
01688     34 A0 05 F1 | 	add	objptr, #52
0168c     D0 CE 09 FB | 	rdlong	local04, objptr wz
01690     34 A0 85 F1 | 	sub	objptr, #52
01694     0C 00 90 AD |  if_e	jmp	#LR__0050
01698                 | '     waitus(100)
01698     64 BE 05 F6 | 	mov	arg01, #100
0169c     B0 02 B0 FD | 	call	#__system___waitus
016a0     E4 FF 9F FD | 	jmp	#LR__0049
016a4                 | LR__0050
016a4                 | '   repeat until vblank==1
016a4                 | LR__0051
016a4     34 A0 05 F1 | 	add	objptr, #52
016a8     D0 CE 01 FB | 	rdlong	local04, objptr
016ac     34 A0 85 F1 | 	sub	objptr, #52
016b0     01 CE 0D F2 | 	cmp	local04, #1 wz
016b4     0C 00 90 AD |  if_e	jmp	#LR__0052
016b8                 | '     waitus(100)
016b8     64 BE 05 F6 | 	mov	arg01, #100
016bc     90 02 B0 FD | 	call	#__system___waitus
016c0     E0 FF 9F FD | 	jmp	#LR__0051
016c4                 | LR__0052
016c4     E6 CA 01 F1 | 	add	local02, local03
016c8     E4 CA 09 F2 | 	cmp	local02, local01 wz
016cc     B8 FF 9F 5D |  if_ne	jmp	#LR__0048
016d0     A2 F0 03 F6 | 	mov	ptra, fp
016d4     B2 00 A0 FD | 	call	#popregs_
016d8                 | _hng026r_waitvbl_ret
016d8     2D 00 64 FD | 	ret
016dc                 | 
016dc                 | ' 
016dc                 | ' 
016dc                 | ' '*************************************************************************
016dc                 | ' '                                                                        *
016dc                 | ' '  Conversions                                                           *
016dc                 | ' '                                                                        *
016dc                 | ' '*************************************************************************
016dc                 | ' 
016dc                 | ' ''---------- Convert a integer to dec string, return a pointer
016dc                 | ' 
016dc                 | ' pub inttostr(i):result |q,pos,k,j
016dc                 | _hng026r_inttostr
016dc     07 40 05 F6 | 	mov	COUNT_, #7
016e0     A3 00 A0 FD | 	call	#pushregs_
016e4     DF C8 01 F6 | 	mov	local01, arg01
016e8                 | ' 
016e8                 | ' j:=i
016e8     E4 CA 09 F6 | 	mov	local02, local01 wz
016ec                 | ' pos:=10
016ec     0A CC 05 F6 | 	mov	local03, #10
016f0                 | ' k:=0
016f0     00 CE 05 F6 | 	mov	local04, #0
016f4                 | ' 
016f4                 | ' if (j==0)
016f4     18 00 90 5D |  if_ne	jmp	#LR__0053
016f8                 | '   n_string[0]:=48
016f8     38 A0 05 F1 | 	add	objptr, #56
016fc     D0 60 48 FC | 	wrbyte	#48, objptr
01700                 | '   n_string[1]:=0
01700     01 A0 05 F1 | 	add	objptr, #1
01704     D0 00 48 FC | 	wrbyte	#0, objptr
01708     39 A0 85 F1 | 	sub	objptr, #57
0170c                 | ' 
0170c                 | ' else
0170c     C4 00 90 FD | 	jmp	#LR__0060
01710                 | LR__0053
01710                 | '   if (j<0)
01710     00 CA 5D F2 | 	cmps	local02, #0 wcz
01714                 | '     j:=0-j
01714     E5 CA 61 C6 |  if_b	neg	local02, local02
01718                 | '     k:=45
01718     2D CE 05 C6 |  if_b	mov	local04, #45
0171c                 | ' 
0171c                 | '   n_string[11]:=0
0171c     43 A0 05 F1 | 	add	objptr, #67
01720     D0 00 48 FC | 	wrbyte	#0, objptr
01724     43 A0 85 F1 | 	sub	objptr, #67
01728     14 E9 9F FE | 	loc	pa,	#(@LR__0055-@LR__0054)
0172c     93 00 A0 FD | 	call	#FCACHE_LOAD_
01730                 | '   repeat while (pos>-1)
01730                 | LR__0054
01730     FF FF 7F FF 
01734     FF CD 5D F2 | 	cmps	local03, ##-1 wcz
01738     34 00 90 ED |  if_be	jmp	#LR__0056
0173c     E5 1E 02 F6 | 	mov	muldiva_, local02
01740     0A 20 06 F6 | 	mov	muldivb_, #10
01744     C3 00 A0 FD | 	call	#divide_
01748     0F D1 01 F6 | 	mov	local05, muldiva_
0174c                 | '     q:=j//10
0174c                 | '     q:=48+q
0174c     30 D0 05 F1 | 	add	local05, #48
01750     E6 D2 01 F6 | 	mov	local06, local03
01754     38 A0 05 F1 | 	add	objptr, #56
01758     D0 D2 01 F1 | 	add	local06, objptr
0175c                 | '     n_string[pos]:=q
0175c     E9 D0 41 FC | 	wrbyte	local05, local06
01760                 | '     j:=j/10
01760     10 CB 01 F6 | 	mov	local02, muldivb_
01764                 | '     pos-=1
01764     01 CC 85 F1 | 	sub	local03, #1
01768     38 A0 85 F1 | 	sub	objptr, #56
0176c     C0 FF 9F FD | 	jmp	#LR__0054
01770                 | LR__0055
01770                 | LR__0056
01770                 | '   repeat while n_string[0]==48
01770                 | LR__0057
01770     38 A0 05 F1 | 	add	objptr, #56
01774     D0 D4 C1 FA | 	rdbyte	local07, objptr
01778     38 A0 85 F1 | 	sub	objptr, #56
0177c     30 D4 0D F2 | 	cmp	local07, #48 wz
01780     20 00 90 5D |  if_ne	jmp	#LR__0058
01784     38 A0 05 F1 | 	add	objptr, #56
01788     D0 BE 01 F6 | 	mov	arg01, objptr
0178c     38 A0 85 F1 | 	sub	objptr, #56
01790     DF C0 01 F6 | 	mov	arg02, arg01
01794     01 C0 05 F1 | 	add	arg02, #1
01798                 | '     bytemove(@n_string,@n_string+1,12)
01798     0C C2 05 F6 | 	mov	arg03, #12
0179c     50 00 B0 FD | 	call	#__system____builtin_memmove
017a0     CC FF 9F FD | 	jmp	#LR__0057
017a4                 | LR__0058
017a4                 | ' 
017a4                 | '   if k==45
017a4     2D CE 0D F2 | 	cmp	local04, #45 wz
017a8     28 00 90 5D |  if_ne	jmp	#LR__0059
017ac     38 A0 05 F1 | 	add	objptr, #56
017b0     D0 C0 01 F6 | 	mov	arg02, objptr
017b4     38 A0 85 F1 | 	sub	objptr, #56
017b8     E0 BE 01 F6 | 	mov	arg01, arg02
017bc     01 BE 05 F1 | 	add	arg01, #1
017c0                 | '      bytemove(@n_string+1,@n_string,12)
017c0     0C C2 05 F6 | 	mov	arg03, #12
017c4     28 00 B0 FD | 	call	#__system____builtin_memmove
017c8                 | '      n_string[0]:=k
017c8     38 A0 05 F1 | 	add	objptr, #56
017cc     D0 CE 41 FC | 	wrbyte	local04, objptr
017d0     38 A0 85 F1 | 	sub	objptr, #56
017d4                 | LR__0059
017d4                 | LR__0060
017d4     38 A0 05 F1 | 	add	objptr, #56
017d8     D0 A8 01 F6 | 	mov	result1, objptr
017dc     38 A0 85 F1 | 	sub	objptr, #56
017e0                 | ' 
017e0                 | ' q:=@n_string
017e0                 | ' return q
017e0     A2 F0 03 F6 | 	mov	ptra, fp
017e4     B2 00 A0 FD | 	call	#popregs_
017e8                 | _hng026r_inttostr_ret
017e8     2D 00 64 FD | 	ret
017ec                 | hubexit
017ec     81 00 80 FD | 	jmp	#cogexit
017f0                 | 
017f0                 | __system____builtin_memmove
017f0     DF AA 01 F6 | 	mov	_var01, arg01
017f4     E0 BE 59 F2 | 	cmps	arg01, arg02 wcz
017f8     50 00 90 3D |  if_ae	jmp	#LR__0068
017fc     20 E8 9F FE | 	loc	pa,	#(@LR__0062-@LR__0061)
01800     93 00 A0 FD | 	call	#FCACHE_LOAD_
01804                 | LR__0061
01804     03 C2 5D F2 | 	cmps	arg03, #3 wcz
01808     18 00 90 ED |  if_be	jmp	#LR__0063
0180c     E0 AC 01 FB | 	rdlong	_var02, arg02
01810     DF AC 61 FC | 	wrlong	_var02, arg01
01814     04 BE 05 F1 | 	add	arg01, #4
01818     04 C0 05 F1 | 	add	arg02, #4
0181c     04 C2 85 F1 | 	sub	arg03, #4
01820     E0 FF 9F FD | 	jmp	#LR__0061
01824                 | LR__0062
01824                 | LR__0063
01824     E1 AE 09 F6 | 	mov	_var03, arg03 wz
01828     4C 00 90 AD |  if_e	jmp	#LR__0074
0182c     E4 E7 9F FE | 	loc	pa,	#(@LR__0066-@LR__0064)
01830     93 00 A0 FD | 	call	#FCACHE_LOAD_
01834                 | LR__0064
01834     D7 08 D8 FC | 	rep	@LR__0067, _var03
01838                 | LR__0065
01838     E0 AC C1 FA | 	rdbyte	_var02, arg02
0183c     DF AC 41 FC | 	wrbyte	_var02, arg01
01840     01 BE 05 F1 | 	add	arg01, #1
01844     01 C0 05 F1 | 	add	arg02, #1
01848                 | LR__0066
01848                 | LR__0067
01848     2C 00 90 FD | 	jmp	#LR__0074
0184c                 | LR__0068
0184c     E1 BE 01 F1 | 	add	arg01, arg03
01850     E1 C0 01 F1 | 	add	arg02, arg03
01854     E1 B0 09 F6 | 	mov	_var04, arg03 wz
01858     1C 00 90 AD |  if_e	jmp	#LR__0073
0185c     B4 E7 9F FE | 	loc	pa,	#(@LR__0071-@LR__0069)
01860     93 00 A0 FD | 	call	#FCACHE_LOAD_
01864                 | LR__0069
01864     D8 08 D8 FC | 	rep	@LR__0072, _var04
01868                 | LR__0070
01868     01 BE 85 F1 | 	sub	arg01, #1
0186c     01 C0 85 F1 | 	sub	arg02, #1
01870     E0 AC C1 FA | 	rdbyte	_var02, arg02
01874     DF AC 41 FC | 	wrbyte	_var02, arg01
01878                 | LR__0071
01878                 | LR__0072
01878                 | LR__0073
01878                 | LR__0074
01878     D5 A8 01 F6 | 	mov	result1, _var01
0187c                 | __system____builtin_memmove_ret
0187c     2D 00 64 FD | 	ret
01880                 | 
01880                 | __system__longmove
01880     DF AA 01 F6 | 	mov	_var01, arg01
01884     E0 BE 59 F2 | 	cmps	arg01, arg02 wcz
01888     28 00 90 3D |  if_ae	jmp	#LR__0079
0188c     E1 AC 09 F6 | 	mov	_var02, arg03 wz
01890     54 00 90 AD |  if_e	jmp	#LR__0085
01894     7C E7 9F FE | 	loc	pa,	#(@LR__0077-@LR__0075)
01898     93 00 A0 FD | 	call	#FCACHE_LOAD_
0189c                 | LR__0075
0189c     D6 08 D8 FC | 	rep	@LR__0078, _var02
018a0                 | LR__0076
018a0     E0 AE 01 FB | 	rdlong	_var03, arg02
018a4     DF AE 61 FC | 	wrlong	_var03, arg01
018a8     04 BE 05 F1 | 	add	arg01, #4
018ac     04 C0 05 F1 | 	add	arg02, #4
018b0                 | LR__0077
018b0                 | LR__0078
018b0     34 00 90 FD | 	jmp	#LR__0085
018b4                 | LR__0079
018b4     E1 B0 01 F6 | 	mov	_var04, arg03
018b8     02 B0 65 F0 | 	shl	_var04, #2
018bc     D8 BE 01 F1 | 	add	arg01, _var04
018c0     D8 C0 01 F1 | 	add	arg02, _var04
018c4     E1 B2 09 F6 | 	mov	_var05, arg03 wz
018c8     1C 00 90 AD |  if_e	jmp	#LR__0084
018cc     44 E7 9F FE | 	loc	pa,	#(@LR__0082-@LR__0080)
018d0     93 00 A0 FD | 	call	#FCACHE_LOAD_
018d4                 | LR__0080
018d4     D9 08 D8 FC | 	rep	@LR__0083, _var05
018d8                 | LR__0081
018d8     04 BE 85 F1 | 	sub	arg01, #4
018dc     04 C0 85 F1 | 	sub	arg02, #4
018e0     E0 AE 01 FB | 	rdlong	_var03, arg02
018e4     DF AE 61 FC | 	wrlong	_var03, arg01
018e8                 | LR__0082
018e8                 | LR__0083
018e8                 | LR__0084
018e8                 | LR__0085
018e8     D5 A8 01 F6 | 	mov	result1, _var01
018ec                 | __system__longmove_ret
018ec     2D 00 64 FD | 	ret
018f0                 | 
018f0                 | __system___waitms
018f0     02 40 05 F6 | 	mov	COUNT_, #2
018f4     A3 00 A0 FD | 	call	#pushregs_
018f8     DF C8 01 F6 | 	mov	local01, arg01
018fc     14 CA 05 FB | 	rdlong	local02, #20
01900     14 E7 9F FE | 	loc	pa,	#(@LR__0087-@LR__0086)
01904     93 00 A0 FD | 	call	#FCACHE_LOAD_
01908                 | LR__0086
01908     01 00 00 FF 
0190c     E8 C9 5D F2 | 	cmps	local01, ##1000 wcz
01910     1F CA 61 1D |  if_a	waitx	local02
01914     01 00 00 1F 
01918     E8 C9 85 11 |  if_a	sub	local01, ##1000
0191c     E8 FF 9F 1D |  if_a	jmp	#LR__0086
01920                 | LR__0087
01920     00 C8 5D F2 | 	cmps	local01, #0 wcz
01924     1C 00 90 ED |  if_be	jmp	#LR__0088
01928     E5 1E 02 F6 | 	mov	muldiva_, local02
0192c     01 00 00 FF 
01930     E8 21 06 F6 | 	mov	muldivb_, ##1000
01934     C3 00 A0 FD | 	call	#divide_
01938     10 C9 01 FD | 	qmul	local01, muldivb_
0193c     18 BE 61 FD | 	getqx	arg01
01940     1F BE 61 FD | 	waitx	arg01
01944                 | LR__0088
01944     A2 F0 03 F6 | 	mov	ptra, fp
01948     B2 00 A0 FD | 	call	#popregs_
0194c                 | __system___waitms_ret
0194c     2D 00 64 FD | 	ret
01950                 | 
01950                 | __system___waitus
01950     02 40 05 F6 | 	mov	COUNT_, #2
01954     A3 00 A0 FD | 	call	#pushregs_
01958     DF C8 01 F6 | 	mov	local01, arg01
0195c     14 CA 05 FB | 	rdlong	local02, #20
01960     B4 E6 9F FE | 	loc	pa,	#(@LR__0090-@LR__0089)
01964     93 00 A0 FD | 	call	#FCACHE_LOAD_
01968                 | LR__0089
01968     A1 07 00 FF 
0196c     40 C8 5D F2 | 	cmps	local01, ##1000000 wcz
01970     1F CA 61 1D |  if_a	waitx	local02
01974     A1 07 00 1F 
01978     40 C8 85 11 |  if_a	sub	local01, ##1000000
0197c     E8 FF 9F 1D |  if_a	jmp	#LR__0089
01980                 | LR__0090
01980     00 C8 5D F2 | 	cmps	local01, #0 wcz
01984     1C 00 90 ED |  if_be	jmp	#LR__0091
01988     E5 1E 02 F6 | 	mov	muldiva_, local02
0198c     A1 07 00 FF 
01990     40 20 06 F6 | 	mov	muldivb_, ##1000000
01994     C3 00 A0 FD | 	call	#divide_
01998     10 C9 01 FD | 	qmul	local01, muldivb_
0199c     18 BE 61 FD | 	getqx	arg01
019a0     1F BE 61 FD | 	waitx	arg01
019a4                 | LR__0091
019a4     A2 F0 03 F6 | 	mov	ptra, fp
019a8     B2 00 A0 FD | 	call	#popregs_
019ac                 | __system___waitus_ret
019ac     2D 00 64 FD | 	ret
019b0                 | 
019b0                 | LR__0092
019b0     53 74 61 72 
019b4     74 69 6E 67 
019b8     20 52 50 69 
019bc     20 30       | 	byte	"Starting RPi 0"
019be     00          | 	byte	0
019bf                 | LR__0093
019bf     53 74 61 72 
019c3     74 69 6E 67 
019c7     20 52 50 69 
019cb     20 31       | 	byte	"Starting RPi 1"
019cd     00          | 	byte	0
019ce                 | LR__0094
019ce     20 20 20 20 
019d2     20 20 20 20 
019d6     20 20 20 20 | 	byte	"            "
019da     00          | 	byte	0
019db                 | LR__0095
019db     20 20 20 20 
019df     20 20 20 20 
019e3     20 20 20 20 | 	byte	"            "
019e7     00          | 	byte	0
019e8                 | LR__0096
019e8     56 6F 6C 74 
019ec     61 67 65 3A 
019f0     20          | 	byte	"Voltage: "
019f1     00          | 	byte	0
019f2                 | LR__0097
019f2     2E          | 	byte	"."
019f3     00          | 	byte	0
019f4                 | LR__0098
019f4     56          | 	byte	"V"
019f5     00          | 	byte	0
019f6                 | LR__0099
019f6     56          | 	byte	"V"
019f7     00          | 	byte	0
019f8                 | LR__0100
019f8     20          | 	byte	" "
019f9     00          | 	byte	0
019fa                 | LR__0101
019fa     20 20 20 20 
019fe     20          | 	byte	"     "
019ff     00          | 	byte	0
01a00                 | 	alignl
01a00                 | _hng026r_dat_
01a00     00 00 00 00 
      ...             
01a30     00 00 00 00 
01a34     00 00 00    | st_font        file "st4font.def"
01a37     FF FF 00 00 
01a3b     00 00 00 00 
01a3f     00 18 18 18 
01a43     18 18 18 18 | 	byte	$ff, $ff, $00, $00, $00, $00, $00, $00, $00, $18, $18, $18, $18, $18, $18, $18
01a47     18 18 18 18 
01a4b     18 18 18 18 
01a4f     18          | 	byte	$18[9]
01a50     00 00 00 00 
01a54     00 00 00    | 	byte	$00[7]
01a57     FF FF 18 18 
01a5b     18 18 18 18 
01a5f     18 18 18 18 
01a63     18 18 18 18 | 	byte	$ff, $ff, $18, $18, $18, $18, $18, $18, $18, $18, $18, $18, $18, $18, $18, $18
01a67     FF FF 00 00 
01a6b     00 00 00 00 
01a6f     00 18 18 18 
01a73     18 18 18 18 | 	byte	$ff, $ff, $00, $00, $00, $00, $00, $00, $00, $18, $18, $18, $18, $18, $18, $18
01a77     1F 1F 18 18 
01a7b     18 18 18 18 
01a7f     18 18 18 18 
01a83     18 18 18 18 | 	byte	$1f, $1f, $18, $18, $18, $18, $18, $18, $18, $18, $18, $18, $18, $18, $18, $18
01a87     F8 F8 18 18 
01a8b     18 18 18 18 
01a8f     18 00 00 00 
01a93     00 00 00 00 | 	byte	$f8, $f8, $18, $18, $18, $18, $18, $18, $18, $00, $00, $00, $00, $00, $00, $00
01a97     1F 1F 18 18 
01a9b     18 18 18 18 
01a9f     18 00 00 00 
01aa3     00 00 00 00 | 	byte	$1f, $1f, $18, $18, $18, $18, $18, $18, $18, $00, $00, $00, $00, $00, $00, $00
01aa7     F8 F8 18 18 
01aab     18 18 18 18 
01aaf     18 18 18 18 
01ab3     18 18 18 18 | 	byte	$f8, $f8, $18, $18, $18, $18, $18, $18, $18, $18, $18, $18, $18, $18, $18, $18
01ab7     1F 1F 00 00 
01abb     00 00 00 00 
01abf     00 18 18 18 
01ac3     18 18 18 18 | 	byte	$1f, $1f, $00, $00, $00, $00, $00, $00, $00, $18, $18, $18, $18, $18, $18, $18
01ac7     F8 F8 00 00 
01acb     00 00 00 00 
01acf     00 18 18 18 
01ad3     18 18 18 18 | 	byte	$f8, $f8, $00, $00, $00, $00, $00, $00, $00, $18, $18, $18, $18, $18, $18, $18
01ad7     FF FF 18 18 
01adb     18 18 18 18 
01adf     18 00 00 18 
01ae3     3C 7E 66 66 | 	byte	$ff, $ff, $18, $18, $18, $18, $18, $18, $18, $00, $00, $18, $3c, $7e, $66, $66
01ae7     66 7E 7E 66 
01aeb     66 66 66 30 
01aef     18 00 00 7E 
01af3     7E 06 06 3E | 	byte	$66, $7e, $7e, $66, $66, $66, $66, $30, $18, $00, $00, $7e, $7e, $06, $06, $3e
01af7     3E 06 06 06 
01afb     06 7E 7E 18 
01aff     0C 30 18 3C 
01b03     7E 66 66 06 | 	byte	$3e, $06, $06, $06, $06, $7e, $7e, $18, $0c, $30, $18, $3c, $7e, $66, $66, $06
01b07     06 06 06 66 
01b0b     66 7E 3C 00 
01b0f     00 30 18 66 
01b13     66 66 6E 6E | 	byte	$06, $06, $06, $66, $66, $7e, $3c, $00, $00, $30, $18, $66, $66, $66, $6e, $6e
01b17     7E 7E 76 76 
01b1b     66 66 66 00 
01b1f     00 30 18 7C 
01b23     7E 06 06 0E | 	byte	$7e, $7e, $76, $76, $66, $66, $66, $00, $00, $30, $18, $7c, $7e, $06, $06, $0e
01b27     1C 38 70 60 
01b2b     60 7E 3E 00 
01b2f     00 30 18 7E 
01b33     7E 30 30 18 | 	byte	$1c, $38, $70, $60, $60, $7e, $3e, $00, $00, $30, $18, $7e, $7e, $30, $30, $18
01b37     18 0C 0C 06 
01b3b     06 7E 7E 00 
01b3f     00 18 18 00 
01b43     7E 7E 30 30 | 	byte	$18, $0c, $0c, $06, $06, $7e, $7e, $00, $00, $18, $18, $00, $7e, $7e, $30, $30
01b47     18 18 0C 0C 
01b4b     06 7E 7E 00 
01b4f     00 30 18 3C 
01b53     7E 66 66 66 | 	byte	$18, $18, $0c, $0c, $06, $7e, $7e, $00, $00, $30, $18, $3c, $7e, $66, $66, $66
01b57     66 66 66 66 
01b5b     66          | 	byte	$66[5]
01b5c     7E 3C 00 00 
01b60     00 00 06 06 
01b64     06 06 16 1E 
01b68     0E 06 06 06 | 	byte	$7e, $3c, $00, $00, $00, $00, $06, $06, $06, $06, $16, $1e, $0e, $06, $06, $06
01b6c     7E 7E 00 00 
01b70     00 00 00 00 
01b74     00 3C 7C 60 
01b78     7C 7E 66 66 | 	byte	$7e, $7e, $00, $00, $00, $00, $00, $00, $00, $3c, $7c, $60, $7c, $7e, $66, $66
01b7c     7E 7C 30 18 
01b80     00 00 00 00 
01b84     00 3C 7E 66 
01b88     66 7E 06 06 | 	byte	$7e, $7c, $30, $18, $00, $00, $00, $00, $00, $3c, $7e, $66, $66, $7e, $06, $06
01b8c     7E 7C 18 0C 
01b90     00 00 30 18 
01b94     00 3C 3E 06 
01b98     06 06 06 06 | 	byte	$7e, $7c, $18, $0c, $00, $00, $30, $18, $00, $3c, $3e, $06, $06, $06, $06, $06
01b9c     7E 7C 00 00 
01ba0     00 00 30 18 
01ba4     00 3E 7E 66 
01ba8     66 66 66 66 | 	byte	$7e, $7c, $00, $00, $00, $00, $30, $18, $00, $3e, $7e, $66, $66, $66, $66, $66
01bac     66 66 00 00 
01bb0     00 00 30 18 
01bb4     00 7C 7E 06 
01bb8     0E 3C 70 60 | 	byte	$66, $66, $00, $00, $00, $00, $30, $18, $00, $7c, $7e, $06, $0e, $3c, $70, $60
01bbc     7E 3E 00 00 
01bc0     00 00 30 18 
01bc4     00 7E 7E 30 
01bc8     18 18 0C 0C | 	byte	$7e, $3e, $00, $00, $00, $00, $30, $18, $00, $7e, $7e, $30, $18, $18, $0c, $0c
01bcc     7E 7E 00 00 
01bd0     00 00 18 18 
01bd4     00 7E 7E 30 
01bd8     18 18 0C 0C | 	byte	$7e, $7e, $00, $00, $00, $00, $18, $18, $00, $7e, $7e, $30, $18, $18, $0c, $0c
01bdc     7E 7E 00 00 
01be0     00 00 30 18 
01be4     00 3C 7E 66 
01be8     66 66 66 66 | 	byte	$7e, $7e, $00, $00, $00, $00, $30, $18, $00, $3c, $7e, $66, $66, $66, $66, $66
01bec     7E 3C 00 00 
01bf0     00 00 1C 1C 
01bf4     18 18 38 3C 
01bf8     1C 18 18 18 | 	byte	$7e, $3c, $00, $00, $00, $00, $1c, $1c, $18, $18, $38, $3c, $1c, $18, $18, $18
01bfc     3C 3C 00 00 
01c00     00 00 00 00 
01c04     00 00 00 00 
01c08     00 00 00 00 | 	byte	$3c, $3c, $00, $00, $00, $00, $00, $00, $00, $00, $00, $00, $00, $00, $00, $00
01c0c     00 00 00 00 
01c10     00 00       | 	byte	$00[6]
01c12     18 18 18 18 
01c16     18 18 18 18 | 	byte	$18[8]
01c1a     00 00 18 18 
01c1e     00 00 00 00 
01c22     66 66 66 66 
01c26     00 00 00 00 | 	byte	$00, $00, $18, $18, $00, $00, $00, $00, $66, $66, $66, $66, $00, $00, $00, $00
01c2a     00 00 00 00 
01c2e     00 00 00 00 
01c32     00          | 	byte	$00[9]
01c33     66 66 FF FF 
01c37     66 66 FF FF 
01c3b     66 66 00 00 
01c3f     00 00 18 18 | 	byte	$66, $66, $ff, $ff, $66, $66, $ff, $ff, $66, $66, $00, $00, $00, $00, $18, $18
01c43     7C 7E 06 06 
01c47     3E 7C 60 60 
01c4b     7E 3E 18 18 
01c4f     00 00 00 66 | 	byte	$7c, $7e, $06, $06, $3e, $7c, $60, $60, $7e, $3e, $18, $18, $00, $00, $00, $66
01c53     66 30 30 18 
01c57     18 0C 0C 66 
01c5b     66 00 00 00 
01c5f     00 00 3C 7E | 	byte	$66, $30, $30, $18, $18, $0c, $0c, $66, $66, $00, $00, $00, $00, $00, $3c, $7e
01c63     66 66 3C 1C 
01c67     1C FC FE 66 
01c6b     66 FE FC 00 
01c6f     00 00 00 18 | 	byte	$66, $66, $3c, $1c, $1c, $fc, $fe, $66, $66, $fe, $fc, $00, $00, $00, $00, $18
01c73     18 18 18 18 
01c77     00 00 00 00 
01c7b     00 00 00 00 
01c7f     00 00 00 30 | 	byte	$18, $18, $18, $18, $00, $00, $00, $00, $00, $00, $00, $00, $00, $00, $00, $30
01c83     18 1C 0C 0C 
01c87     0C 0C 0C 0C 
01c8b     1C 18 30 00 
01c8f     00 00 00 0C | 	byte	$18, $1c, $0c, $0c, $0c, $0c, $0c, $0c, $1c, $18, $30, $00, $00, $00, $00, $0c
01c93     18 38 30 30 
01c97     30 30 30 30 
01c9b     38 18 0C 00 
01c9f     00 00 00 00 | 	byte	$18, $38, $30, $30, $30, $30, $30, $30, $38, $18, $0c, $00, $00, $00, $00, $00
01ca3     66 66 3C 3C 
01ca7     FF FF 3C 3C 
01cab     66 66 00 00 
01caf     00 00 00 00 | 	byte	$66, $66, $3c, $3c, $ff, $ff, $3c, $3c, $66, $66, $00, $00, $00, $00, $00, $00
01cb3     00 18 18 18 
01cb7     7E 7E 18 18 
01cbb     18 00 00 00 
01cbf     00 00 00 00 | 	byte	$00, $18, $18, $18, $7e, $7e, $18, $18, $18, $00, $00, $00, $00, $00, $00, $00
01cc3     00 00 00 00 
01cc7     00 00       | 	byte	$00[6]
01cc9     18 18 18 18 
01ccd     18          | 	byte	$18[5]
01cce     0C 04 00 00 
01cd2     00 00 00 00 
01cd6     7E 7E 00 00 
01cda     00 00 00 00 | 	byte	$0c, $04, $00, $00, $00, $00, $00, $00, $7e, $7e, $00, $00, $00, $00, $00, $00
01cde     00 00 00 00 
01ce2     00 00 00 00 
01ce6     00 00 00 00 
01cea     00          | 	byte	$00[13]
01ceb     18 18 18 00 
01cef     00 00 00 60 
01cf3     60 60 30 30 
01cf7     18 18 0C 0C | 	byte	$18, $18, $18, $00, $00, $00, $00, $60, $60, $60, $30, $30, $18, $18, $0c, $0c
01cfb     06 06 06 00 
01cff     00 00 00 3C 
01d03     7E 66 66 66 
01d07     76 6E 66 66 | 	byte	$06, $06, $06, $00, $00, $00, $00, $3c, $7e, $66, $66, $66, $76, $6e, $66, $66
01d0b     66 7E 3C 00 
01d0f     00 00 00 18 
01d13     18 1C 1C 18 
01d17     18 18 18 18 | 	byte	$66, $7e, $3c, $00, $00, $00, $00, $18, $18, $1c, $1c, $18, $18, $18, $18, $18
01d1b     18 7E 7E 00 
01d1f     00 00 00 3C 
01d23     7E 66 66 30 
01d27     30 18 18 0C | 	byte	$18, $7e, $7e, $00, $00, $00, $00, $3c, $7e, $66, $66, $30, $30, $18, $18, $0c
01d2b     0C 7E 7E 00 
01d2f     00 00 00 7E 
01d33     7E 30 30 18 
01d37     18 30 30 66 | 	byte	$0c, $7e, $7e, $00, $00, $00, $00, $7e, $7e, $30, $30, $18, $18, $30, $30, $66
01d3b     66 7E 3C 00 
01d3f     00 00 00 30 
01d43     30 38 38 3C 
01d47     3C 36 36 7E | 	byte	$66, $7e, $3c, $00, $00, $00, $00, $30, $30, $38, $38, $3c, $3c, $36, $36, $7e
01d4b     7E 30 30 00 
01d4f     00 00 00 7E 
01d53     7E 06 06 3E 
01d57     7E 60 60 60 | 	byte	$7e, $30, $30, $00, $00, $00, $00, $7e, $7e, $06, $06, $3e, $7e, $60, $60, $60
01d5b     66 7E 3C 00 
01d5f     00 00 00 38 
01d63     3C 0E 06 06 
01d67     3E 7E 66 66 | 	byte	$66, $7e, $3c, $00, $00, $00, $00, $38, $3c, $0e, $06, $06, $3e, $7e, $66, $66
01d6b     66 7E 3C 00 
01d6f     00 00 00 7E 
01d73     7E 60 60 30 
01d77     30 18 18 0C | 	byte	$66, $7e, $3c, $00, $00, $00, $00, $7e, $7e, $60, $60, $30, $30, $18, $18, $0c
01d7b     0C 0C 0C 00 
01d7f     00 00 00 3C 
01d83     7E 66 66 3C 
01d87     3C 66 66 66 | 	byte	$0c, $0c, $0c, $00, $00, $00, $00, $3c, $7e, $66, $66, $3c, $3c, $66, $66, $66
01d8b     66 7E 3C 00 
01d8f     00 00 00 3C 
01d93     7E 66 66 7E 
01d97     7C 60 60 60 | 	byte	$66, $7e, $3c, $00, $00, $00, $00, $3c, $7e, $66, $66, $7e, $7c, $60, $60, $60
01d9b     70 3C 1C 00 
01d9f     00 00 00 00 
01da3     00 00 18 18 
01da7     18 00 00 00 | 	byte	$70, $3c, $1c, $00, $00, $00, $00, $00, $00, $00, $18, $18, $18, $00, $00, $00
01dab     18 18 18 00 
01daf     00 00 00 00 
01db3     00 00 18 18 
01db7     18 00 00 18 | 	byte	$18, $18, $18, $00, $00, $00, $00, $00, $00, $00, $18, $18, $18, $00, $00, $18
01dbb     18 18 18 0C 
01dbf     04 00 00 00 
01dc3     70 38 1C 0E 
01dc7     07 0E 1C 38 | 	byte	$18, $18, $18, $0c, $04, $00, $00, $00, $70, $38, $1c, $0e, $07, $0e, $1c, $38
01dcb     70 00 00 00 
01dcf     00 00 00 00 
01dd3     00 00 7E 7E 
01dd7     00 00 7E 7E | 	byte	$70, $00, $00, $00, $00, $00, $00, $00, $00, $00, $7e, $7e, $00, $00, $7e, $7e
01ddb     00 00 00 00 
01ddf     00 00 00 00 | 	byte	$00[8]
01de3     0E 1C 38 70 
01de7     E0 70 38 1C 
01deb     0E 00 00 00 
01def     00 00 00 3C | 	byte	$0e, $1c, $38, $70, $e0, $70, $38, $1c, $0e, $00, $00, $00, $00, $00, $00, $3c
01df3     7E 66 66 30 
01df7     30 18 18 18 
01dfb     00 18 18 00 
01dff     00 00 00 3C | 	byte	$7e, $66, $66, $30, $30, $18, $18, $18, $00, $18, $18, $00, $00, $00, $00, $3c
01e03     7E 66 66 66 
01e07     66 36 06 66 
01e0b     66 7E 3C 00 
01e0f     00 00 00 18 | 	byte	$7e, $66, $66, $66, $66, $36, $06, $66, $66, $7e, $3c, $00, $00, $00, $00, $18
01e13     3C 7E 66 66 
01e17     66 7E 7E 66 
01e1b     66 66 66 00 
01e1f     00 00 00 3E | 	byte	$3c, $7e, $66, $66, $66, $7e, $7e, $66, $66, $66, $66, $00, $00, $00, $00, $3e
01e23     7E 66 66 7E 
01e27     3E 66 66 66 
01e2b     66 7E 3E 00 
01e2f     00 00 00 3C | 	byte	$7e, $66, $66, $7e, $3e, $66, $66, $66, $66, $7e, $3e, $00, $00, $00, $00, $3c
01e33     7E 66 66 06 
01e37     06 06 06 66 
01e3b     66 7E 3C 00 
01e3f     00 00 00 3E | 	byte	$7e, $66, $66, $06, $06, $06, $06, $66, $66, $7e, $3c, $00, $00, $00, $00, $3e
01e43     7E 66 66 66 
01e47     66 66 66 66 
01e4b     66 7E 3E 00 
01e4f     00 00 00 7E | 	byte	$7e, $66, $66, $66, $66, $66, $66, $66, $66, $7e, $3e, $00, $00, $00, $00, $7e
01e53     7E 06 06 3E 
01e57     3E 06 06 06 
01e5b     06 7E 7E 00 
01e5f     00 00 00 7E | 	byte	$7e, $06, $06, $3e, $3e, $06, $06, $06, $06, $7e, $7e, $00, $00, $00, $00, $7e
01e63     7E 06 06 3E 
01e67     3E 06 06 06 
01e6b     06 06 06 00 
01e6f     00 00 00 7C | 	byte	$7e, $06, $06, $3e, $3e, $06, $06, $06, $06, $06, $06, $00, $00, $00, $00, $7c
01e73     7E 06 06 76 
01e77     76 66 66 66 
01e7b     66 7E 3C 00 
01e7f     00 00 00 66 | 	byte	$7e, $06, $06, $76, $76, $66, $66, $66, $66, $7e, $3c, $00, $00, $00, $00, $66
01e83     66 66 66 7E 
01e87     7E 66 66 66 
01e8b     66 66 66 00 
01e8f     00 00 00 7E | 	byte	$66, $66, $66, $7e, $7e, $66, $66, $66, $66, $66, $66, $00, $00, $00, $00, $7e
01e93     7E 18 18 18 
01e97     18 18 18 18 
01e9b     18 7E 7E 00 
01e9f     00 00 00 60 | 	byte	$7e, $18, $18, $18, $18, $18, $18, $18, $18, $7e, $7e, $00, $00, $00, $00, $60
01ea3     60 60 60 60 
01ea7     60 60 60    | 	byte	$60[7]
01eaa     66 66 7E 3C 
01eae     00 00 00 00 
01eb2     66 66 36 36 
01eb6     1E 1E 36 36 | 	byte	$66, $66, $7e, $3c, $00, $00, $00, $00, $66, $66, $36, $36, $1e, $1e, $36, $36
01eba     66 66 C6 C6 
01ebe     00 00 00 00 
01ec2     06 06 06 06 
01ec6     06 06 06 06 | 	byte	$66, $66, $c6, $c6, $00, $00, $00, $00, $06, $06, $06, $06, $06, $06, $06, $06
01eca     06 06 7E 7E 
01ece     00 00 00 00 
01ed2     C6 C6 EE EE 
01ed6     FE D6 D6 C6 | 	byte	$06, $06, $7e, $7e, $00, $00, $00, $00, $c6, $c6, $ee, $ee, $fe, $d6, $d6, $c6
01eda     C6 C6 C6 C6 
01ede     00 00 00 00 
01ee2     66 66 66 6E 
01ee6     6E 7E 7E 76 | 	byte	$c6, $c6, $c6, $c6, $00, $00, $00, $00, $66, $66, $66, $6e, $6e, $7e, $7e, $76
01eea     76 66 66 66 
01eee     00 00 00 00 
01ef2     3C 7E 66 66 
01ef6     66 66 66 66 | 	byte	$76, $66, $66, $66, $00, $00, $00, $00, $3c, $7e, $66, $66, $66, $66, $66, $66
01efa     66 66 7E 3C 
01efe     00 00 00 00 
01f02     3E 7E 66 66 
01f06     66 66 7E 3E | 	byte	$66, $66, $7e, $3c, $00, $00, $00, $00, $3e, $7e, $66, $66, $66, $66, $7e, $3e
01f0a     06 06 06 06 
01f0e     00 00 00 00 
01f12     3C 7E 66 66 
01f16     66 66 66 66 | 	byte	$06, $06, $06, $06, $00, $00, $00, $00, $3c, $7e, $66, $66, $66, $66, $66, $66
01f1a     66 56 3E 6C 
01f1e     00 00 00 00 
01f22     3E 7E 66 66 
01f26     66 7E 3E 36 | 	byte	$66, $56, $3e, $6c, $00, $00, $00, $00, $3e, $7e, $66, $66, $66, $7e, $3e, $36
01f2a     66 66 C6 C6 
01f2e     00 00 00 00 
01f32     7C 7E 06 06 
01f36     0E 1C 38 70 | 	byte	$66, $66, $c6, $c6, $00, $00, $00, $00, $7c, $7e, $06, $06, $0e, $1c, $38, $70
01f3a     60 60 7E 3E 
01f3e     00 00 00 00 
01f42     7E 7E 18 18 
01f46     18 18 18 18 | 	byte	$60, $60, $7e, $3e, $00, $00, $00, $00, $7e, $7e, $18, $18, $18, $18, $18, $18
01f4a     18 18 18 18 
01f4e     00 00 00 00 
01f52     66 66 66 66 
01f56     66 66 66 66 | 	byte	$18, $18, $18, $18, $00, $00, $00, $00, $66, $66, $66, $66, $66, $66, $66, $66
01f5a     66 66 7E 3C 
01f5e     00 00 00 00 
01f62     66 66 66 66 
01f66     66 66 66 66 | 	byte	$66, $66, $7e, $3c, $00, $00, $00, $00, $66, $66, $66, $66, $66, $66, $66, $66
01f6a     3C 3C 18 18 
01f6e     00 00 00 00 
01f72     C6 C6 C6 C6 
01f76     C6 D6 D6 FE | 	byte	$3c, $3c, $18, $18, $00, $00, $00, $00, $c6, $c6, $c6, $c6, $c6, $d6, $d6, $fe
01f7a     FE EE C6 82 
01f7e     00 00 00 00 
01f82     66 66 66 3C 
01f86     3C 18 18 3C | 	byte	$fe, $ee, $c6, $82, $00, $00, $00, $00, $66, $66, $66, $3c, $3c, $18, $18, $3c
01f8a     3C 66 66 66 
01f8e     00 00 00 00 
01f92     66 66 66 66 
01f96     66 3C 3C 18 | 	byte	$3c, $66, $66, $66, $00, $00, $00, $00, $66, $66, $66, $66, $66, $3c, $3c, $18
01f9a     18 18 18 18 
01f9e     00 00 00 00 
01fa2     7E 7E 30 30 
01fa6     18 18 0C 0C | 	byte	$18, $18, $18, $18, $00, $00, $00, $00, $7e, $7e, $30, $30, $18, $18, $0c, $0c
01faa     06 06 7E 7E 
01fae     00 00 00 00 
01fb2     3C 3C 0C 0C 
01fb6     0C 0C 0C 0C | 	byte	$06, $06, $7e, $7e, $00, $00, $00, $00, $3c, $3c, $0c, $0c, $0c, $0c, $0c, $0c
01fba     0C 0C 3C 3C 
01fbe     00 00 00 00 
01fc2     06 06 0C 0C 
01fc6     18 18 30 30 | 	byte	$0c, $0c, $3c, $3c, $00, $00, $00, $00, $06, $06, $0c, $0c, $18, $18, $30, $30
01fca     60 60 C0 C0 
01fce     00 00 00 00 
01fd2     3C 3C 30 30 
01fd6     30 30 30 30 | 	byte	$60, $60, $c0, $c0, $00, $00, $00, $00, $3c, $3c, $30, $30, $30, $30, $30, $30
01fda     30 30 3C 3C 
01fde     00 00 00 00 
01fe2     18 18 3C 3C 
01fe6     66 66 00 00 | 	byte	$30, $30, $3c, $3c, $00, $00, $00, $00, $18, $18, $3c, $3c, $66, $66, $00, $00
01fea     00 00 00 00 
01fee     00 00 00 00 
01ff2     00 00 00 00 
01ff6     00 00 00 00 
01ffa     00 00       | 	byte	$00[18]
01ffc     FE FE 00 00 
02000     00 00 0C 0C 
02004     18 18 00 00 
02008     00 00 00 00 | 	byte	$fe, $fe, $00, $00, $00, $00, $0c, $0c, $18, $18, $00, $00, $00, $00, $00, $00
0200c     00 00 00 00 
02010     00 00 00 00 
02014     00          | 	byte	$00[9]
02015     3C 7C 60 7C 
02019     7E 66 66 7E 
0201d     7C 00 00 00 
02021     00 06 06 06 | 	byte	$3c, $7c, $60, $7c, $7e, $66, $66, $7e, $7c, $00, $00, $00, $00, $06, $06, $06
02025     3E 7E 66 66 
02029     66 66 66 7E 
0202d     3E 00 00 00 
02031     00 00 00 00 | 	byte	$3e, $7e, $66, $66, $66, $66, $66, $7e, $3e, $00, $00, $00, $00, $00, $00, $00
02035     3C 3E 06 06 
02039     06 06 06 7E 
0203d     7C 00 00 00 
02041     00 60 60 60 | 	byte	$3c, $3e, $06, $06, $06, $06, $06, $7e, $7c, $00, $00, $00, $00, $60, $60, $60
02045     7C 7E 66 66 
02049     66 66 66 7E 
0204d     7C 00 00 00 
02051     00 00 00 00 | 	byte	$7c, $7e, $66, $66, $66, $66, $66, $7e, $7c, $00, $00, $00, $00, $00, $00, $00
02055     3C 7E 66 66 
02059     7E 06 06 7E 
0205d     7C 00 00 00 
02061     00 70 78 18 | 	byte	$3c, $7e, $66, $66, $7e, $06, $06, $7e, $7c, $00, $00, $00, $00, $70, $78, $18
02065     18 7E 7E 18 
02069     18 18 18 18 
0206d     18 00 00 00 
02071     00 00 00 00 | 	byte	$18, $7e, $7e, $18, $18, $18, $18, $18, $18, $00, $00, $00, $00, $00, $00, $00
02075     7C 7E 66 66 
02079     66 66 7E 7C 
0207d     60 7E 3E 00 
02081     00 06 06 06 | 	byte	$7c, $7e, $66, $66, $66, $66, $7e, $7c, $60, $7e, $3e, $00, $00, $06, $06, $06
02085     3E 7E 66 66 
02089     66 66 66 66 
0208d     66 00 00 00 
02091     00 18 18 00 | 	byte	$3e, $7e, $66, $66, $66, $66, $66, $66, $66, $00, $00, $00, $00, $18, $18, $00
02095     1C 1C 18 18 
02099     18 18 18 3C 
0209d     3C 00 00 00 
020a1     00 30 30 00 | 	byte	$1c, $1c, $18, $18, $18, $18, $18, $3c, $3c, $00, $00, $00, $00, $30, $30, $00
020a5     30 30 30 30 
020a9     30 30 30 30 
020ad     30          | 	byte	$30[9]
020ae     3E 1E 00 00 
020b2     06 06 06 36 
020b6     36 1E 1E 1E 
020ba     36 36 66 66 | 	byte	$3e, $1e, $00, $00, $06, $06, $06, $36, $36, $1e, $1e, $1e, $36, $36, $66, $66
020be     00 00 00 00 
020c2     1C 1C 18 18 
020c6     18 18 18 18 
020ca     18 18 3C 3C | 	byte	$00, $00, $00, $00, $1c, $1c, $18, $18, $18, $18, $18, $18, $18, $18, $3c, $3c
020ce     00 00 00 00 
020d2     00 00 00    | 	byte	$00[7]
020d5     6C FE FE D6 
020d9     D6 C6 C6 C6 
020dd     C6 00 00 00 
020e1     00 00 00 00 | 	byte	$6c, $fe, $fe, $d6, $d6, $c6, $c6, $c6, $c6, $00, $00, $00, $00, $00, $00, $00
020e5     3E 7E 66 66 
020e9     66 66 66 66 
020ed     66 00 00 00 
020f1     00 00 00 00 | 	byte	$3e, $7e, $66, $66, $66, $66, $66, $66, $66, $00, $00, $00, $00, $00, $00, $00
020f5     3C 7E 66 66 
020f9     66 66 66 7E 
020fd     3C 00 00 00 
02101     00 00 00 00 | 	byte	$3c, $7e, $66, $66, $66, $66, $66, $7e, $3c, $00, $00, $00, $00, $00, $00, $00
02105     3E 7E 66 66 
02109     66 66 66 7E 
0210d     3E 06 06 00 
02111     00 00 00 00 | 	byte	$3e, $7e, $66, $66, $66, $66, $66, $7e, $3e, $06, $06, $00, $00, $00, $00, $00
02115     7C 7E 66 66 
02119     66 66 66 7E 
0211d     7C 60 60 00 
02121     00 00 00 00 | 	byte	$7c, $7e, $66, $66, $66, $66, $66, $7e, $7c, $60, $60, $00, $00, $00, $00, $00
02125     3E 7E 66 06 
02129     06 06 06 06 
0212d     06 00 00 00 
02131     00 00 00 00 | 	byte	$3e, $7e, $66, $06, $06, $06, $06, $06, $06, $00, $00, $00, $00, $00, $00, $00
02135     7C 7E 06 0E 
02139     3C 70 60 7E 
0213d     3E 00 00 00 
02141     00 00 18 18 | 	byte	$7c, $7e, $06, $0e, $3c, $70, $60, $7e, $3e, $00, $00, $00, $00, $00, $18, $18
02145     7E 7E 18 18 
02149     18 18 18 78 
0214d     70 00 00 00 
02151     00 00 00 00 | 	byte	$7e, $7e, $18, $18, $18, $18, $18, $78, $70, $00, $00, $00, $00, $00, $00, $00
02155     66 66 66 66 
02159     66 66 66    | 	byte	$66[7]
0215c     7E 7C 00 00 
02160     00 00 00 00 
02164     00 66 66 66 
02168     66 66 3C 3C | 	byte	$7e, $7c, $00, $00, $00, $00, $00, $00, $00, $66, $66, $66, $66, $66, $3c, $3c
0216c     18 18 00 00 
02170     00 00 00 00 
02174     00 C6 C6 D6 
02178     D6 FE FE EE | 	byte	$18, $18, $00, $00, $00, $00, $00, $00, $00, $c6, $c6, $d6, $d6, $fe, $fe, $ee
0217c     C6 82 00 00 
02180     00 00 00 00 
02184     00 66 66 3C 
02188     3C 18 3C 3C | 	byte	$c6, $82, $00, $00, $00, $00, $00, $00, $00, $66, $66, $3c, $3c, $18, $3c, $3c
0218c     66 66 00 00 
02190     00 00 00 00 
02194     00 66 66 66 
02198     66 66 66 7E | 	byte	$66, $66, $00, $00, $00, $00, $00, $00, $00, $66, $66, $66, $66, $66, $66, $7e
0219c     7C 60 7E 3E 
021a0     00 00 00 00 
021a4     00 7E 7E 30 
021a8     18 18 0C 0C | 	byte	$7c, $60, $7e, $3e, $00, $00, $00, $00, $00, $7e, $7e, $30, $18, $18, $0c, $0c
021ac     7E 7E 00 00 
021b0     00 00 30 18 
021b4     18 18 18 0C 
021b8     0C 18 18 18 | 	byte	$7e, $7e, $00, $00, $00, $00, $30, $18, $18, $18, $18, $0c, $0c, $18, $18, $18
021bc     18 30 00 00 
021c0     00 00 18 18 
021c4     18 18 18 18 
021c8     18 18 18 18 | 	byte	$18, $30, $00, $00, $00, $00, $18, $18, $18, $18, $18, $18, $18, $18, $18, $18
021cc     18 18 00 00 
021d0     00 00 0C 18 
021d4     18 18 18 30 
021d8     30 18 18 18 | 	byte	$18, $18, $00, $00, $00, $00, $0c, $18, $18, $18, $18, $30, $30, $18, $18, $18
021dc     18 0C 00 00 
021e0     00 00 6C 7E 
021e4     36 00 00 00 
021e8     00 00 00 00 | 	byte	$18, $0c, $00, $00, $00, $00, $6c, $7e, $36, $00, $00, $00, $00, $00, $00, $00
021ec     00 00 00 00 
021f0     00 00 00 00 
021f4     00          | 	byte	$00[9]
021f5     18 18 18 18 
021f9     18 18 00 00 
021fd     00 00 00    | 	byte	$18, $18, $18, $18, $18, $18, $00, $00, $00, $00, $00
02200     00 00 00 00 
02204     00          | ataripalette   file "ataripalettep2.def"
02205     11 11 11 00 
02209     22 22 22 00 
0220d     33 33 33 00 
02211     44 44 44 00 | 	byte	$11, $11, $11, $00, $22, $22, $22, $00, $33, $33, $33, $00, $44, $44, $44, $00
02215     55 55 55 00 
02219     66 66 66 00 
0221d     77 77 77 00 
02221     88 88 88 00 | 	byte	$55, $55, $55, $00, $66, $66, $66, $00, $77, $77, $77, $00, $88, $88, $88, $00
02225     99 99 99 00 
02229     AA AA AA 00 
0222d     BB BB BB 00 
02231     CC CC CC 00 | 	byte	$99, $99, $99, $00, $aa, $aa, $aa, $00, $bb, $bb, $bb, $00, $cc, $cc, $cc, $00
02235     DD DD DD 00 
02239     EE EE EE 00 
0223d     FF FF FF 00 
02241     00 0A 20 00 | 	byte	$dd, $dd, $dd, $00, $ee, $ee, $ee, $00, $ff, $ff, $ff, $00, $00, $0a, $20, $00
02245     00 14 40 00 
02249     00 1E 60 00 
0224d     00 28 80 00 
02251     00 32 9F 00 | 	byte	$00, $14, $40, $00, $00, $1e, $60, $00, $00, $28, $80, $00, $00, $32, $9f, $00
02255     00 3C BF 00 
02259     00 46 DF 00 
0225d     00 50 FF 00 
02261     1C 63 FF 00 | 	byte	$00, $3c, $bf, $00, $00, $46, $df, $00, $00, $50, $ff, $00, $1c, $63, $ff, $00
02265     39 77 FF 00 
02269     55 8A FF 00 
0226d     71 9E FF 00 
02271     8E B1 FF 00 | 	byte	$39, $77, $ff, $00, $55, $8a, $ff, $00, $71, $9e, $ff, $00, $8e, $b1, $ff, $00
02275     AA C5 FF 00 
02279     C6 D8 FF 00 
0227d     E3 EC FF 00 
02281     00 00 20 00 | 	byte	$aa, $c5, $ff, $00, $c6, $d8, $ff, $00, $e3, $ec, $ff, $00, $00, $00, $20, $00
02285     00 00 40 00 
02289     00 00 60 00 
0228d     00 00 80 00 
02291     00 00 9F 00 | 	byte	$00, $00, $40, $00, $00, $00, $60, $00, $00, $00, $80, $00, $00, $00, $9f, $00
02295     00 00 BF 00 
02299     00 00 DF 00 
0229d     00 00 FF 00 
022a1     1C 1C FF 00 | 	byte	$00, $00, $bf, $00, $00, $00, $df, $00, $00, $00, $ff, $00, $1c, $1c, $ff, $00
022a5     39 39 FF 00 
022a9     55 55 FF 00 
022ad     71 71 FF 00 
022b1     8E 8E FF 00 | 	byte	$39, $39, $ff, $00, $55, $55, $ff, $00, $71, $71, $ff, $00, $8e, $8e, $ff, $00
022b5     AA AA FF 00 
022b9     C6 C6 FF 00 
022bd     E3 E3 FF 00 
022c1     10 00 20 00 | 	byte	$aa, $aa, $ff, $00, $c6, $c6, $ff, $00, $e3, $e3, $ff, $00, $10, $00, $20, $00
022c5     20 00 40 00 
022c9     30 00 60 00 
022cd     40 00 80 00 
022d1     50 00 9F 00 | 	byte	$20, $00, $40, $00, $30, $00, $60, $00, $40, $00, $80, $00, $50, $00, $9f, $00
022d5     60 00 BF 00 
022d9     70 00 DF 00 
022dd     80 00 FF 00 
022e1     8E 1C FF 00 | 	byte	$60, $00, $bf, $00, $70, $00, $df, $00, $80, $00, $ff, $00, $8e, $1c, $ff, $00
022e5     9C 39 FF 00 
022e9     AA 55 FF 00 
022ed     B8 71 FF 00 
022f1     C7 8E FF 00 | 	byte	$9c, $39, $ff, $00, $aa, $55, $ff, $00, $b8, $71, $ff, $00, $c7, $8e, $ff, $00
022f5     D5 AA FF 00 
022f9     E3 C6 FF 00 
022fd     F1 E3 FF 00 
02301     20 00 20 00 | 	byte	$d5, $aa, $ff, $00, $e3, $c6, $ff, $00, $f1, $e3, $ff, $00, $20, $00, $20, $00
02305     40 00 40 00 
02309     60 00 60 00 
0230d     80 00 80 00 
02311     9F 00 9F 00 | 	byte	$40, $00, $40, $00, $60, $00, $60, $00, $80, $00, $80, $00, $9f, $00, $9f, $00
02315     BF 00 BF 00 
02319     DF 00 DF 00 
0231d     FF 00 FF 00 
02321     FF 1C FF 00 | 	byte	$bf, $00, $bf, $00, $df, $00, $df, $00, $ff, $00, $ff, $00, $ff, $1c, $ff, $00
02325     FF 39 FF 00 
02329     FF 55 FF 00 
0232d     FF 71 FF 00 
02331     FF 8E FF 00 | 	byte	$ff, $39, $ff, $00, $ff, $55, $ff, $00, $ff, $71, $ff, $00, $ff, $8e, $ff, $00
02335     FF AA FF 00 
02339     FF C6 FF 00 
0233d     FF E3 FF 00 
02341     20 00 10 00 | 	byte	$ff, $aa, $ff, $00, $ff, $c6, $ff, $00, $ff, $e3, $ff, $00, $20, $00, $10, $00
02345     40 00 20 00 
02349     60 00 30 00 
0234d     80 00 40 00 
02351     9F 00 50 00 | 	byte	$40, $00, $20, $00, $60, $00, $30, $00, $80, $00, $40, $00, $9f, $00, $50, $00
02355     BF 00 60 00 
02359     DF 00 70 00 
0235d     FF 00 80 00 
02361     FF 1C 8E 00 | 	byte	$bf, $00, $60, $00, $df, $00, $70, $00, $ff, $00, $80, $00, $ff, $1c, $8e, $00
02365     FF 39 9C 00 
02369     FF 55 AA 00 
0236d     FF 71 B8 00 
02371     FF 8E C7 00 | 	byte	$ff, $39, $9c, $00, $ff, $55, $aa, $00, $ff, $71, $b8, $00, $ff, $8e, $c7, $00
02375     FF AA D5 00 
02379     FF C6 E3 00 
0237d     FF E3 F1 00 
02381     20 00 00 00 | 	byte	$ff, $aa, $d5, $00, $ff, $c6, $e3, $00, $ff, $e3, $f1, $00, $20, $00, $00, $00
02385     40 00 00 00 
02389     60 00 00 00 
0238d     80 00 00 00 
02391     9F 00 00 00 | 	byte	$40, $00, $00, $00, $60, $00, $00, $00, $80, $00, $00, $00, $9f, $00, $00, $00
02395     BF 00 00 00 
02399     DF 00 00 00 
0239d     FF 00 00 00 
023a1     FF 1C 1C 00 | 	byte	$bf, $00, $00, $00, $df, $00, $00, $00, $ff, $00, $00, $00, $ff, $1c, $1c, $00
023a5     FF 39 39 00 
023a9     FF 55 55 00 
023ad     FF 71 71 00 
023b1     FF 8E 8E 00 | 	byte	$ff, $39, $39, $00, $ff, $55, $55, $00, $ff, $71, $71, $00, $ff, $8e, $8e, $00
023b5     FF AA AA 00 
023b9     FF C6 C6 00 
023bd     FF E3 E3 00 
023c1     20 08 00 00 | 	byte	$ff, $aa, $aa, $00, $ff, $c6, $c6, $00, $ff, $e3, $e3, $00, $20, $08, $00, $00
023c5     40 10 00 00 
023c9     60 18 00 00 
023cd     80 20 00 00 
023d1     9F 28 00 00 | 	byte	$40, $10, $00, $00, $60, $18, $00, $00, $80, $20, $00, $00, $9f, $28, $00, $00
023d5     BF 30 00 00 
023d9     DF 38 00 00 
023dd     FF 40 00 00 
023e1     FF 55 1C 00 | 	byte	$bf, $30, $00, $00, $df, $38, $00, $00, $ff, $40, $00, $00, $ff, $55, $1c, $00
023e5     FF 6A 39 00 
023e9     FF 80 55 00 
023ed     FF 95 71 00 
023f1     FF AA 8E 00 | 	byte	$ff, $6a, $39, $00, $ff, $80, $55, $00, $ff, $95, $71, $00, $ff, $aa, $8e, $00
023f5     FF BF AA 00 
023f9     FF D5 C6 00 
023fd     FF EA E3 00 
02401     20 10 00 00 | 	byte	$ff, $bf, $aa, $00, $ff, $d5, $c6, $00, $ff, $ea, $e3, $00, $20, $10, $00, $00
02405     40 20 00 00 
02409     60 30 00 00 
0240d     80 40 00 00 
02411     9F 50 00 00 | 	byte	$40, $20, $00, $00, $60, $30, $00, $00, $80, $40, $00, $00, $9f, $50, $00, $00
02415     BF 60 00 00 
02419     DF 70 00 00 
0241d     FF 80 00 00 
02421     FF 8E 1C 00 | 	byte	$bf, $60, $00, $00, $df, $70, $00, $00, $ff, $80, $00, $00, $ff, $8e, $1c, $00
02425     FF 9C 39 00 
02429     FF AA 55 00 
0242d     FF B8 71 00 
02431     FF C7 8E 00 | 	byte	$ff, $9c, $39, $00, $ff, $aa, $55, $00, $ff, $b8, $71, $00, $ff, $c7, $8e, $00
02435     FF D5 AA 00 
02439     FF E3 C6 00 
0243d     FF F1 E3 00 
02441     20 18 00 00 | 	byte	$ff, $d5, $aa, $00, $ff, $e3, $c6, $00, $ff, $f1, $e3, $00, $20, $18, $00, $00
02445     40 30 00 00 
02449     60 48 00 00 
0244d     80 60 00 00 
02451     9F 78 00 00 | 	byte	$40, $30, $00, $00, $60, $48, $00, $00, $80, $60, $00, $00, $9f, $78, $00, $00
02455     BF 90 00 00 
02459     DF A8 00 00 
0245d     FF C0 00 00 
02461     FF C7 1C 00 | 	byte	$bf, $90, $00, $00, $df, $a8, $00, $00, $ff, $c0, $00, $00, $ff, $c7, $1c, $00
02465     FF CE 39 00 
02469     FF D5 55 00 
0246d     FF DC 71 00 
02471     FF E3 8E 00 | 	byte	$ff, $ce, $39, $00, $ff, $d5, $55, $00, $ff, $dc, $71, $00, $ff, $e3, $8e, $00
02475     FF EA AA 00 
02479     FF F1 C6 00 
0247d     FF F8 E3 00 
02481     18 20 00 00 | 	byte	$ff, $ea, $aa, $00, $ff, $f1, $c6, $00, $ff, $f8, $e3, $00, $18, $20, $00, $00
02485     30 40 00 00 
02489     48 60 00 00 
0248d     60 80 00 00 
02491     78 9F 00 00 | 	byte	$30, $40, $00, $00, $48, $60, $00, $00, $60, $80, $00, $00, $78, $9f, $00, $00
02495     90 BF 00 00 
02499     A8 DF 00 00 
0249d     C0 FF 00 00 
024a1     C7 FF 1C 00 | 	byte	$90, $bf, $00, $00, $a8, $df, $00, $00, $c0, $ff, $00, $00, $c7, $ff, $1c, $00
024a5     CE FF 39 00 
024a9     D5 FF 55 00 
024ad     DC FF 71 00 
024b1     E3 FF 8E 00 | 	byte	$ce, $ff, $39, $00, $d5, $ff, $55, $00, $dc, $ff, $71, $00, $e3, $ff, $8e, $00
024b5     EA FF AA 00 
024b9     F1 FF C6 00 
024bd     F8 FF E3 00 
024c1     00 20 00 00 | 	byte	$ea, $ff, $aa, $00, $f1, $ff, $c6, $00, $f8, $ff, $e3, $00, $00, $20, $00, $00
024c5     00 40 00 00 
024c9     00 60 00 00 
024cd     00 80 00 00 
024d1     00 9F 00 00 | 	byte	$00, $40, $00, $00, $00, $60, $00, $00, $00, $80, $00, $00, $00, $9f, $00, $00
024d5     00 BF 00 00 
024d9     00 DF 00 00 
024dd     00 FF 00 00 
024e1     1C FF 1C 00 | 	byte	$00, $bf, $00, $00, $00, $df, $00, $00, $00, $ff, $00, $00, $1c, $ff, $1c, $00
024e5     39 FF 39 00 
024e9     55 FF 55 00 
024ed     71 FF 71 00 
024f1     8E FF 8E 00 | 	byte	$39, $ff, $39, $00, $55, $ff, $55, $00, $71, $ff, $71, $00, $8e, $ff, $8e, $00
024f5     AA FF AA 00 
024f9     C6 FF C6 00 
024fd     E3 FF E3 00 
02501     00 20 0A 00 | 	byte	$aa, $ff, $aa, $00, $c6, $ff, $c6, $00, $e3, $ff, $e3, $00, $00, $20, $0a, $00
02505     00 40 14 00 
02509     00 60 1E 00 
0250d     00 80 28 00 
02511     00 9F 32 00 | 	byte	$00, $40, $14, $00, $00, $60, $1e, $00, $00, $80, $28, $00, $00, $9f, $32, $00
02515     00 BF 3C 00 
02519     00 DF 46 00 
0251d     00 FF 50 00 
02521     1C FF 63 00 | 	byte	$00, $bf, $3c, $00, $00, $df, $46, $00, $00, $ff, $50, $00, $1c, $ff, $63, $00
02525     39 FF 77 00 
02529     55 FF 8A 00 
0252d     71 FF 9E 00 
02531     8E FF B1 00 | 	byte	$39, $ff, $77, $00, $55, $ff, $8a, $00, $71, $ff, $9e, $00, $8e, $ff, $b1, $00
02535     AA FF C5 00 
02539     C6 FF D8 00 
0253d     E3 FF EC 00 
02541     00 20 14 00 | 	byte	$aa, $ff, $c5, $00, $c6, $ff, $d8, $00, $e3, $ff, $ec, $00, $00, $20, $14, $00
02545     00 40 28 00 
02549     00 60 3C 00 
0254d     00 80 50 00 
02551     00 9F 64 00 | 	byte	$00, $40, $28, $00, $00, $60, $3c, $00, $00, $80, $50, $00, $00, $9f, $64, $00
02555     00 BF 78 00 
02559     00 DF 8C 00 
0255d     00 FF A0 00 
02561     1C FF AB 00 | 	byte	$00, $bf, $78, $00, $00, $df, $8c, $00, $00, $ff, $a0, $00, $1c, $ff, $ab, $00
02565     39 FF B5 00 
02569     55 FF C0 00 
0256d     71 FF CA 00 
02571     8E FF D5 00 | 	byte	$39, $ff, $b5, $00, $55, $ff, $c0, $00, $71, $ff, $ca, $00, $8e, $ff, $d5, $00
02575     AA FF DF 00 
02579     C6 FF EA 00 
0257d     E3 FF F4 00 
02581     00 20 20 00 | 	byte	$aa, $ff, $df, $00, $c6, $ff, $ea, $00, $e3, $ff, $f4, $00, $00, $20, $20, $00
02585     00 40 40 00 
02589     00 60 60 00 
0258d     00 80 80 00 
02591     00 9F 9F 00 | 	byte	$00, $40, $40, $00, $00, $60, $60, $00, $00, $80, $80, $00, $00, $9f, $9f, $00
02595     00 BF BF 00 
02599     00 DF DF 00 
0259d     00 FF FF 00 
025a1     1C FF FF 00 | 	byte	$00, $bf, $bf, $00, $00, $df, $df, $00, $00, $ff, $ff, $00, $1c, $ff, $ff, $00
025a5     39 FF FF 00 
025a9     55 FF FF 00 
025ad     71 FF FF 00 
025b1     8E FF FF 00 | 	byte	$39, $ff, $ff, $00, $55, $ff, $ff, $00, $71, $ff, $ff, $00, $8e, $ff, $ff, $00
025b5     AA FF FF 00 
025b9     C6 FF FF 00 
025bd     E3 FF FF 00 
025c1     00 14 20 00 | 	byte	$aa, $ff, $ff, $00, $c6, $ff, $ff, $00, $e3, $ff, $ff, $00, $00, $14, $20, $00
025c5     00 28 40 00 
025c9     00 3C 60 00 
025cd     00 50 80 00 
025d1     00 64 9F 00 | 	byte	$00, $28, $40, $00, $00, $3c, $60, $00, $00, $50, $80, $00, $00, $64, $9f, $00
025d5     00 78 BF 00 
025d9     00 8C DF 00 
025dd     00 A0 FF 00 
025e1     1C AB FF 00 | 	byte	$00, $78, $bf, $00, $00, $8c, $df, $00, $00, $a0, $ff, $00, $1c, $ab, $ff, $00
025e5     39 B5 FF 00 
025e9     55 C0 FF 00 
025ed     71 CA FF 00 
025f1     8E D5 FF 00 | 	byte	$39, $b5, $ff, $00, $55, $c0, $ff, $00, $71, $ca, $ff, $00, $8e, $d5, $ff, $00
025f5     AA DF FF 00 
025f9     C6 EA FF 00 
025fd     E3 F4 FF    | 	byte	$aa, $df, $ff, $00, $c6, $ea, $ff, $00, $e3, $f4, $ff
02600                 | '**********************************************************************************
02600                 | '
02600                 | '        Timings and colors definitions
02600                 | '
02600                 | '**********************************************************************************
02600                 | 
02600                 |    'streamer sets for text mode, to add to timings[0..5]
02600                 | 
02600                 | 
02600                 | '                     bf.hs, hs,  bf.vis  visible, lr bord, pixel, ud bord,  up p., vsync, down p., mode, cpl, scanlines,  clock,                  hubset                  total vis lines
02600     30 00 00 00 
02604     20 00 00 00 
02608     50 00 00 00 
0260c     20 03 00 00 | timings000      long   48,   32,    80,     800,      0,     8,     0 ,      3,      7,    6,      0,  100,   480,     285000000,   %1_110000__11_0110_1100__1111_1011,   480
02610     00 00 00 00 
02614     08 00 00 00 
02618     00 00 00 00 
0261c     03 00 00 00 | 	byte	$00, $00, $00, $00, $08, $00, $00, $00, $00, $00, $00, $00, $03, $00, $00, $00
02620     07 00 00 00 
02624     06 00 00 00 
02628     00 00 00 00 
0262c     64 00 00 00 | 	byte	$07, $00, $00, $00, $06, $00, $00, $00, $00, $00, $00, $00, $64, $00, $00, $00
02630     E0 01 00 00 
02634     40 C1 FC 10 
02638     FB 6C C3 01 
0263c     E0 01 00 00 | 	byte	$e0, $01, $00, $00, $40, $c1, $fc, $10, $fb, $6c, $c3, $01, $e0, $01, $00, $00
02640                 |                            
02640     00 75 C7 97 
02644     27 47 F6 0A 
02648     05 79 CB 9B 
0264c     2B 4B EA 0F | vgacolors       byte   0, 117, 199, 151, 39, 71, 246, 10, 5, 121, 203, 155, 43, 75, 234, 15
02650                 | 
02650     28 14 64 FD | hdmi            setq    #10
02654     00 B1 04 FB |                 rdlong  framebuf,  ptra                  'read pointers
02658     28 1E 64 FD |                 setq    #15
0265c     5A 6C 00 FB |                 rdlong  m_bs,modeptr   
02660     29 FE 65 FD |                 setq2   #255
02664     5B 00 00 FB |                 rdlong  $000, paletteptr 
02668                 | 
02668     00 CE 6C FC |                 wrlong  #aend,#0                         'write driver length to hub#0: DEBUG/demo
0266c     3C 00 66 FD |                 setcmod #$100                            'enable HDMI mode
02670     C0 C3 04 F6 |                 mov     ii,#448                          '7 << 6          
02674     5E C2 00 F1 |                 add     ii,hbase
02678     58 C2 60 FD |                 drvl    ii                                 '#7<<6 + hdmi_base      ' enable HDMI pins
0267c     7B 0B 80 FF 
02680     61 00 0B FC |                 wrpin   ##%10110_1111_0111_10_00000_0, ii  '#7<<6 + hdmi_base      ' a '123 ohm BITDAC for pins
02684                 | 
02684     66 66 86 FF 
02688     1D 9A 65 FD |                 setxfrq ##$0CCCCCCC+1                   'set streamer freq to 1/10th clk
0268c                 | 
0268c                 | 
0268c                 | ''--------  frame rendering main loop  ---------------------------------------------------
0268c                 | 
0268c     01 96 04 F1 | p101            add     frames,#1
02690     58 C4 00 F6 |                 mov     framebuf2,framebuf
02694     32 C6 00 F6 |                 mov     hsync0,sync_000                  '
02698     33 C8 00 F6 |                 mov     hsync1,sync_001
0269c     18 7A 44 FB |                 callpa  i_upporch ,#blank
026a0     59 00 68 FC |                 wrlong  #0,vblankptr
026a4     00 C2 04 F6 |                 mov     ii,#0
026a8                 |                 
026a8     00 90 04 F6 |                 mov linenum,#0
026ac     5C 00 B0 FD | p301            call    #hsync                          ' now call hsync to gain some time between xconts
026b0     01 C2 14 F7 |                 incmod  ii,#1 wc
026b4     90 C5 84 C1 |            if_c sub framebuf2,#400     
026b8                 | 
026b8                 | 
026b8                 | '----------------------------------------- display pixels
026b8                 | 
026b8     3B 8C 00 F6 |                 mov     m_lut2,m_lut1                   ' m_lut1 loaded from hub timing block, pixel per long
026bc     41 CA 00 F6 |                 mov     cpl2,i_cpl                      ' i_cpl in graphic modes is longs per line
026c0     57 8C 00 F1 |                 add     m_lut2,lutg8                    ' 8 bpp modes
026c4                 |  
026c4                 |                 
026c4     C8 08 DC FC |                 rep #4,#200 
026c8     62 CC 00 FB |                 rdlong  char,framebuf2
026cc     02 C4 04 F1 |                 add     framebuf2,#2              
026d0     50 CC FC F9 |                 movbyts char,#%01010000          
026d4     66 8C C0 FC |                 xcont   m_lut2,char              
026d8                 | 
026d8     01 90 04 F1 | p302            add     linenum,#1
026dc     04 C0 04 F1 |                 add     dlptr2,#4
026e0     45 90 08 F2 |                 cmp     linenum,i_totalvis  wz
026e4     C4 FF 9F 5D |          if_nz  jmp     #p301
026e8                 | 
026e8     59 02 68 FC | p112            wrlong  #1,vblankptr
026ec     04 7E 44 FB |                 callpa  i_downporch ,#blank             'bottom blanks
026f0                 | 
026f0     34 C6 00 F6 |                 mov     hsync0,sync_222                 'vsync on
026f4     35 C8 00 F6 |                 mov     hsync1,sync_223
026f8     01 7C 44 FB |                 callpa  i_vsync,#blank                  'vertical sync blanks
026fc     8C FF 9F FD |                 jmp     #p101
02700                 | 
02700                 | '' -------------------------------------- END of graph  line ---------------------------------
02700                 | 
02700                 | 
02700     08 00 B0 FD | blank           call    #hsync                          'blank lines
02704     63 72 C0 FC |                 xcont   m_vi,hsync0
02708     FD ED 6F 0B |         _ret_   djnz    pa,#blank
0270c                 | 
0270c     63 6C C0 FC | hsync           xcont   m_bs,hsync0                     'horizontal sync
02710     64 6E B0 FC |                 xzero   m_sn,hsync1
02714     63 70 C0 0C |         _ret_   xcont   m_bv,hsync0
02718                 | 
02718                 | '' consts and vars
02718                 | 
02718     52 4D 35 D5 | sync_000        long    %1101010100_1101010100_1101010100_10    '
0271c     AE 42 35 D5 | sync_001        long    %1101010100_1101010100_0010101011_10    '        hsync
02720     52 45 15 55 | sync_222        long    %0101010100_0101010100_0101010100_10    'vsync
02724     AE 4A 15 55 | sync_223        long    %0101010100_0101010100_1010101011_10    'vsync + hsync
02728                 | 
02728                 | 'border          long    %00000000_00011010_00101100_00000000
02728                 | 
02728                 | '------ these longs will be set by setmode function
02728                 | 
02728     00 00 00 00 | m_bs            long    0        'blanks before sync
0272c     00 00 00 00 | m_sn            long    0        'sync
02730     00 00 00 00 | m_bv            long    0        'blanks before visible
02734     00 00 00 00 | m_vi            long    0        'visible pixels #
02738     00 00 00 00 | m_border        long    0        'left/right borders
0273c     00 00 00 00 | m_lut1          long    0        'characters
02740     00 00 00 00 | i_vborder       long    0        'up/down borders
02744     00 00 00 00 | i_upporch       long    0        'up porch lines
02748     00 00 00 00 | i_vsync         long    0        'vsync lines
0274c     00 00 00 00 | i_downporch     long    0        'down porch lines
02750     00 00 00 00 | i_modenum       long    0        'mode #
02754     00 00 00 00 | i_cpl           long    0        'chars/longs per line
02758     00 00 00 00 | i_lines         long    0        'scanlines #
0275c     00 00 00 00 | i_clock         long    0
02760     00 00 00 00 | i_hubset        long    0
02764     00 00 00 00 | i_totalvis      long    0
02768                 | 
02768                 | '-------------------------------------
02768                 | 
02768     00 00 00 00 | m_lut2          long    0
0276c                 | 
0276c                 | colordepth
0276c     00 00 00 00 | linestart       long    0
02770     00 00 00 00 | linenum         long    0
02774     00 01 00 00 | lutaddr         long    256
02778                 | 
02778     0E 00 00 00 | cursorsh        long    14
0277c     00 00 00 00 | frames          long    0
02780     00 00 00 00 | cursorx         long    0
02784     00 00 00 00 | cursory         long    0
02788     00 00 00 00 | cursorpos       long    0
0278c     00 00 00 00 | cursorpos2      long    0
02790     00 00 00 00 | fontstart       long    0
02794     00 00 00 00 | border2         long 0
02798     00 00 81 70 | lutiv           long $70810000
0279c     00 00 88 00 | lutt1           long $00880000
027a0     00 00 80 00 | lutg1           long $00800000
027a4     00 00 80 10 | lutg2           long $10800000
027a8     00 00 80 20 | lutg4           long $20800000
027ac     00 00 80 30 | lutg8           long $30800000
027b0     00 00 00 00 | framebuf        long 0
027b4                 | 'fontbuf         long 0
027b4                 | 'borderptr       long 0
027b4     00 00 00 00 | vblankptr       long 0
027b8                 | 'cursorptr       long 0
027b8     00 00 00 00 | modeptr         long 0
027bc     00 00 00 00 | paletteptr      long 0
027c0     00 00 00 00 | dlptr           long 0
027c4                 | fontnumptr      res     1
027c4                 | fontnumptr      res     1
027c4                 | hbase           res     1
027c4                 | hbase           res     1
027c4                 | borderptr2      res     1
027c4                 | borderptr2      res     1
027c4                 | dlptr2 res 1
027c4                 | dlptr2 res 1
027c4                 | 
027c4                 | ii              res     1
027c4                 | ii              res     1
027c4                 | framebuf2       res     1
027c4                 | framebuf2       res     1
027c4                 | hsync0          res     1
027c4                 | hsync0          res     1
027c4                 | hsync1          res     1
027c4                 | hsync1          res     1
027c4                 | 
027c4                 | cpl2 res 1
027c4                 | cpl2 res 1
027c4                 | char            res     1
027c4                 | char            res     1
027c4                 | 
027c4     00 00 00 00 | aend             long 0
027c8                 |                 fit     496                     '
027c8                 | _adccog_dat_
027c8                 |               org
027c8 000 28 06 64 FD | mixer         setq #3
027cc 001 00 49 04 FB |               rdlong aaresult,ptra
027d0 002             |               
027d0 002             |               
027d0 002 25 40 00 FC |               wrpin adc_config1, aapin
027d4 003 25 1A 18 FC |               wxpin  #%00_1101, aapin
027d8 004 41 4A 60 FD |               dirh   aapin
027dc 005 40 46 04 F6 |               mov    x, #%001<<6
027e0 006 25 46 00 F1 |               add    x,aapin
027e4 007 20 46 60 FD |               setse1 x
027e8 008             | 	
027e8 008 24 28 60 FD | loop          waitse1
027ec 009 25 46 88 FA |               rdpin x,aapin
027f0 00a 24 28 60 FD |               waitse1
027f4 00b 25 46 88 FA |               rdpin x,aapin   
027f8 00c 24 28 60 FD |               waitse1
027fc 00d 25 4C 88 FA |               rdpin gnd,aapin 
02800 00e             |               
02800 00e 25 42 00 FC |               wrpin adc_config2, aapin
02804 00f             |               
02804 00f 24 28 60 FD |               waitse1
02808 010 25 46 88 FA |               rdpin x,aapin
0280c 011 24 28 60 FD |               waitse1
02810 012 25 46 88 FA |               rdpin x,aapin   
02814 013 24 28 60 FD |               waitse1
02818 014 25 4E 88 FA |               rdpin vcc,aapin  
0281c 015             |               
0281c 015 25 44 00 FC |               wrpin adc_config3, aapin
02820 016             |               
02820 016 24 28 60 FD |               waitse1
02824 017 25 46 88 FA |               rdpin x,aapin
02828 018 24 28 60 FD |               waitse1
0282c 019 25 46 88 FA |               rdpin x,aapin   
02830 01a 24 28 60 FD |               waitse1
02834 01b 25 48 88 FA |               rdpin aaresult,aapin  
02838 01c             |               
02838 01c 25 40 00 FC |               wrpin adc_config1, aapin 
0283c 01d 28 06 64 FD |               setq #3
02840 01e 00 49 64 FC |               wrlong aaresult,ptra
02844 01f             | 
02844 01f A0 FF 9F FD |               jmp     #loop          'loop
02848 020             | 
02848 020             | 
02848 020 30 00 10 00 | adc_config1      long    %0000_0000_000_100000_0000000_00_11000_0 ' 100000 gnd
0284c 021 30 80 10 00 | adc_config2      long    %0000_0000_000_100001_0000000_00_11000_0 ' 100001 3v3
02850 022 30 80 11 00 | adc_config3      long    %0000_0000_000_100011_0000000_00_11000_0 ' 100011 pin
02854 023             | 
02854 023 00 00 00 00 | x                long    0
02858 024             | 
02858 024 00 00 00 00 | aaresult long 0
0285c 025 00 00 00 00 | aapin long 0
02860 026 00 00 00 00 | gnd long 0
02864 027 00 00 00 00 | vcc long 0
02868 028             | objmem
02868 028 00 00 00 00 | 	long	0[1]
0286c 0d5             | 	org	COG_BSS_START
0286c 0d5             | _var01
0286c 0d5             | 	res	1
0286c 0d6             | _var02
0286c 0d6             | 	res	1
0286c 0d7             | _var03
0286c 0d7             | 	res	1
0286c 0d8             | _var04
0286c 0d8             | 	res	1
0286c 0d9             | _var05
0286c 0d9             | 	res	1
0286c 0da             | _var06
0286c 0da             | 	res	1
0286c 0db             | _var07
0286c 0db             | 	res	1
0286c 0dc             | _var08
0286c 0dc             | 	res	1
0286c 0dd             | _var09
0286c 0dd             | 	res	1
0286c 0de             | _var10
0286c 0de             | 	res	1
0286c 0df             | arg01
0286c 0df             | 	res	1
0286c 0e0             | arg02
0286c 0e0             | 	res	1
0286c 0e1             | arg03
0286c 0e1             | 	res	1
0286c 0e2             | arg04
0286c 0e2             | 	res	1
0286c 0e3             | arg05
0286c 0e3             | 	res	1
0286c 0e4             | local01
0286c 0e4             | 	res	1
0286c 0e5             | local02
0286c 0e5             | 	res	1
0286c 0e6             | local03
0286c 0e6             | 	res	1
0286c 0e7             | local04
0286c 0e7             | 	res	1
0286c 0e8             | local05
0286c 0e8             | 	res	1
0286c 0e9             | local06
0286c 0e9             | 	res	1
0286c 0ea             | local07
0286c 0ea             | 	res	1
0286c 0eb             | local08
0286c 0eb             | 	res	1
0286c 0ec             | local09
0286c 0ec             | 	res	1
0286c 0ed             | local10
0286c 0ed             | 	res	1
0286c 0ee             | local11
0286c 0ee             | 	res	1
0286c 0ef             | local12
0286c 0ef             | 	res	1
0286c 0f0             | local13
0286c 0f0             | 	res	1
0286c 0f1             | local14
0286c 0f1             | 	res	1
0286c 0f2             | local15
0286c 0f2             | 	res	1
0286c 0f3             | local16
0286c 0f3             | 	res	1
0286c 0f4             | local17
0286c 0f4             | 	res	1
0286c 0f5             | local18
0286c 0f5             | 	res	1
0286c 0f6             | local19
0286c 0f6             | 	res	1
0286c 0f7             | local20
0286c 0f7             | 	res	1
0286c 0f8             | local21
0286c 0f8             | 	res	1
0286c 0f9             | local22
0286c 0f9             | 	res	1
0286c 0fa             | local23
0286c 0fa             | 	res	1
0286c 0fb             | local24
0286c 0fb             | 	res	1
0286c 0fc             | local25
0286c 0fc             | 	res	1
0286c 0fd             | local26
0286c 0fd             | 	res	1
0286c 0fe             | local27
0286c 0fe             | 	res	1
0286c 0ff             | local28
0286c 0ff             | 	res	1
0286c 100             | local29
0286c 100             | 	res	1
0286c 101             | local30
0286c 101             | 	res	1
0286c 102             | local31
0286c 102             | 	res	1
0286c 103             | local32
0286c 103             | 	res	1
0286c 104             | local33
0286c 104             | 	res	1
0286c 105             | local34
0286c 105             | 	res	1
0286c 106             | local35
0286c 106             | 	res	1
0286c 107             | local36
0286c 107             | 	res	1
0286c 108             | local37
0286c 108             | 	res	1
0286c 109             | local38
0286c 109             | 	res	1
0286c 10a             | local39
0286c 10a             | 	res	1
0286c 10b             | local40
0286c 10b             | 	res	1
0286c 10c             | local41
0286c 10c             | 	res	1
0286c 10d             | local42
0286c 10d             | 	res	1
0286c 10e             | local43
0286c 10e             | 	res	1
0286c 10f             | muldiva_
0286c 10f             | 	res	1
0286c 110             | muldivb_
0286c 110             | 	res	1
0286c 111             | 	fit	480
0286c 111             | 
