
00000                 | 
00000                 | #line 1 "D:/Programowanie/ultibo-propeller/robuv001/robuv001.p2asm"
00000                 | ' 
00000                 | ' 	CLK_FREQ = 322_159_050                                        	' system freq as a constant
00000                 | con
00000                 | 	CLK_FREQ = 322159050
00000                 | ' 	_clkfreq = CLK_FREQ                                           	' set system clock
00000                 | 	_clkfreq = 322159050
00000                 | ' 	SBUS_RX  = 7                                                  	' S.BUS serial input
00000                 | 	SBUS_RX = 7
00000                 | '  
00000                 | ' 	SBUS_CFG  = P_ASYNC_RX | P_INVERT_IN                          	' inverted serial input
00000                 | 	SBUS_CFG = 32830
00000                 | ' 	SBUS_BAUD = (CLK_FREQ / 100_000) << 16 | (9-1)                	' 100K baud, 9 bits (8 data + parity)  
00000                 | 	SBUS_BAUD = 211091464
00000                 | dat
00000 000 00 00 00 00 | 	nop
00004 001 01 EC 63 FD | 	cogid	pa
00008 002 02 00 00 FF 
0000c 003 04 EC E7 FC | 	coginit	pa,##$404
00010                 | 	orgh	$10
00010     00 00 00 00 | 	long	0	'reserved
00014     00 00 00 00 | 	long	0 ' clock frequency: will default to 322162436
00018     00 00 00 00 | 	long	0 ' clock mode: will default to $19253fb
0001c     00 00 00 00 
      ...             
003f8     00 00 00 00 
003fc     00 00 00 00 | 	orgh	$400
00400     00 04 05 06 |  _ret_	mov	result1, #0
00404 000             | 	org	0
00404 000             | entry
00404 000 00 F0 0F F2 | 	cmp	ptra, #0 wz
00408 001 94 00 90 5D |  if_ne	jmp	#spininit
0040c 002 81 F0 03 F6 | 	mov	ptra, ptr_stackspace_
00410 003 14 EC 0F FB | 	rdlong	pa, #20 wz
00414 004 6C 00 90 5D |  if_ne	jmp	#skip_clock_set_
00418 005 00 00 64 FD | 	hubset	#0
0041c 006 29 C9 80 FF 
00420 007 00 F0 67 FD | 	hubset	##26366968
00424 008 86 01 80 FF 
00428 009 1F 80 66 FD | 	waitx	##200000
0042c 00a 29 C9 00 FF 
00430 00b FB ED 07 F6 | 	mov	pa, ##26366971
00434 00c 00 EC 63 FD | 	hubset	pa
00438 00d 18 EC 67 FC | 	wrlong	pa, #24
0043c 00e E7 99 89 FF 
00440 00f 14 08 6E FC | 	wrlong	##322162436, #20
00444 010 3C 00 90 FD | 	jmp	#skip_clock_set_
00448 011 00 00 00 00 
      ...             
0047c 01e 00 00 00 00 
00480 01f 00 00 00 00 | 	orgf	32
00484 020             | skip_clock_set_
00484 020 04 EC 60 FD | 	locknew	__lockreg
00488 021 7A EC 60 FC | 	wrlong	__lockreg, ptr___lockreg_
0048c 022 14 06 A0 FD | 	call	#_main
00490 023             | cogexit
00490 023 38 01 80 FF 
00494 024 1F 00 66 FD | 	waitx	##160000
00498 025 01 4A 61 FD | 	cogid	arg01
0049c 026 03 4A 61 FD | 	cogstop	arg01
004a0 027             | spininit
004a0 027 00 F3 04 FB | 	rdlong	objptr, ptra
004a4 028 04 F0 07 F1 | 	add	ptra, #4
004a8 029 00 05 05 FB | 	rdlong	result1, ptra
004ac 02a 04 F0 07 F1 | 	add	ptra, #4
004b0 02b 00 4B 05 FB | 	rdlong	arg01, ptra
004b4 02c 04 F0 07 F1 | 	add	ptra, #4
004b8 02d 00 4D 05 FB | 	rdlong	arg02, ptra
004bc 02e 04 F0 07 F1 | 	add	ptra, #4
004c0 02f 00 4F 05 FB | 	rdlong	arg03, ptra
004c4 030 04 F0 07 F1 | 	add	ptra, #4
004c8 031 00 51 05 FB | 	rdlong	arg04, ptra
004cc 032 10 F0 87 F1 | 	sub	ptra, #16
004d0 033 2D 04 61 FD | 	call	result1
004d4 034 B8 FF 9F FD | 	jmp	#cogexit
004d8 035             | FCACHE_LOAD_
004d8 035 2B 86 60 FD |     pop	fcache_tmpb_
004dc 036 F6 87 00 F1 |     add	fcache_tmpb_, pa
004e0 037 2A 86 60 FD |     push	fcache_tmpb_
004e4 038 F6 87 80 F1 |     sub	fcache_tmpb_, pa
004e8 039 02 EC 47 F0 |     shr	pa, #2
004ec 03a F6 85 00 F6 |     mov	fcache_tmpa_, pa
004f0 03b 00 85 04 F1 |     add	fcache_tmpa_, #$100
004f4 03c 42 82 30 FC |     wrlut ret_instr_, fcache_tmpa_
004f8 03d 01 EC 87 F1 |     sub	pa, #1
004fc 03e 29 EC 63 FD |     setq2	pa
00500 03f 43 00 02 FB |     rdlong	$100-0, fcache_tmpb_
00504 040 00 03 80 FD |     jmp	#\$300 ' jmp to cache
00508 041             | ret_instr_
00508 041 2D 00 64 FD |     ret
0050c 042             | fcache_tmpa_
0050c 042 00 00 00 00 |     long 0
00510 043             | fcache_tmpb_
00510 043 00 00 00 00 |     long 0
00514 044             | COUNT_
00514 044 00 00 00 00 |     long 0
00518 045             | RETADDR_
00518 045 00 00 00 00 |     long 0
0051c 046             | fp
0051c 046 00 00 00 00 |     long 0
00520 047             | gosub_
00520 047 00 88 04 F6 |     mov  COUNT_, #0
00524 048 A5 EC 03 F6 |     mov  pa, arg01
00528 049 2B 8A 60 FD |     pop  RETADDR_
0052c 04a 1C 00 90 FD |     jmp  #pushregs_done_
00530 04b             | pushregs_
00530 04b 2B EC 63 FD |     pop  pa
00534 04c 2B 8A 60 FD |     pop  RETADDR_
00538 04d 04 88 94 FB |     tjz  COUNT_, #pushregs_done_
0053c 04e 01 88 84 F1 |     sub  COUNT_, #1
00540 04f 28 88 60 FD |     setq COUNT_
00544 050 00 55 65 FC |     wrlong local01, ptra
00548 051 01 88 04 F1 |     add  COUNT_, #1
0054c 052             | pushregs_done_
0054c 052 02 88 64 F0 |     shl  COUNT_, #2
00550 053 44 F0 03 F1 |     add  ptra, COUNT_
00554 054 02 88 44 F0 |     shr  COUNT_, #2
00558 055 28 04 64 FD |     setq #2 ' push 3 registers starting at COUNT_
0055c 056 00 89 64 FC |     wrlong COUNT_, ptra
00560 057 0C F0 07 F1 |     add    ptra, #12
00564 058 F8 8D 00 F6 |     mov    fp, ptra
00568 059 2C EC 63 FD |     jmp  pa
0056c 05a             |  popregs_
0056c 05a 2B EC 63 FD |     pop    pa
00570 05b 0C F0 87 F1 |     sub    ptra, #12
00574 05c 28 04 64 FD |     setq   #2
00578 05d 00 89 04 FB |     rdlong COUNT_, ptra
0057c 05e 06 88 94 FB |     tjz    COUNT_, #popregs__ret
00580 05f 02 88 64 F0 |     shl    COUNT_, #2
00584 060 44 F0 83 F1 |     sub    ptra, COUNT_
00588 061 02 88 44 F0 |     shr    COUNT_, #2
0058c 062 01 88 84 F1 |     sub    COUNT_, #1
00590 063 28 88 60 FD |     setq   COUNT_
00594 064 00 55 05 FB |     rdlong local01, ptra
00598 065             | popregs__ret
00598 065 2A 8A 60 FD |     push   RETADDR_
0059c 066 2C EC 63 FD |     jmp    pa
005a0 067             | 
005a0 067             | unsdivide_
005a0 067 28 00 64 FD |        setq    #0
005a4 068 B9 70 11 FD |        qdiv    muldiva_, muldivb_
005a8 069 18 72 61 FD |        getqx   muldivb_
005ac 06a 19 70 61 0D |  _ret_ getqy   muldiva_
005b0 06b             | 
005b0 06b             | divide_
005b0 06b B8 70 51 F6 |        abs     muldiva_,muldiva_     wc       'abs(x)
005b4 06c 03 F0 84 F5 |        muxc    itmp2_,#%11                    'store sign of x
005b8 06d B9 72 59 F6 |        abs     muldivb_,muldivb_     wcz      'abs(y)
005bc 06e 02 F0 64 C5 |  if_c  xor     itmp2_,#%10                    'store sign of y
005c0 06f 2D 00 64 AD |  if_z  ret
005c4 070 D8 FF BF FD |        call    #unsdivide_
005c8 071 01 F0 D4 F7 |        test    itmp2_,#1        wc       'restore sign, remainder
005cc 072 B8 70 81 F6 |        negc    muldiva_,muldiva_ 
005d0 073 02 F0 D4 F7 |        test    itmp2_,#%10      wc       'restore sign, division result
005d4 074 B9 72 81 06 |  _ret_ negc    muldivb_,muldivb_
005d8 075             | 
005d8 075             | __heap_ptr
005d8 075 D0 51 00 00 | 	long	@__heap_base
005dc 076             | __lockreg
005dc 076 00 00 00 00 | 	long	0
005e0 077             | itmp1_
005e0 077 00 00 00 00 | 	long	0
005e4 078             | itmp2_
005e4 078 00 00 00 00 | 	long	0
005e8 079             | objptr
005e8 079 D8 61 00 00 | 	long	@objmem
005ec 07a             | ptr___lockreg_
005ec 07a DC 05 00 00 | 	long	@__lockreg
005f0 07b             | ptr___system__dat__
005f0 07b C0 51 00 00 | 	long	@__system__dat_
005f4 07c             | ptr__hng025_dat__
005f4 07c 58 2D 00 00 | 	long	@_hng025_dat_
005f8 07d             | ptr__hng025_putpixel1_
005f8 07d 9C 0E 00 00 | 	long	@_hng025_putpixel1
005fc 07e             | ptr__hng025_putpixel2_
005fc 07e 88 0F 00 00 | 	long	@_hng025_putpixel2
00600 07f             | ptr__hng025_putpixel4_
00600 07f 74 10 00 00 | 	long	@_hng025_putpixel4
00604 080             | ptr__hng025_putpixel8_
00604 080 60 11 00 00 | 	long	@_hng025_putpixel8
00608 081             | ptr_stackspace_
00608 081 04 63 00 00 | 	long	@stackspace
0060c 082             | result1
0060c 082 00 00 00 00 | 	long	0
00610 083             | result2
00610 083 00 00 00 00 | 	long	0
00614 084             | COG_BSS_START
00614 084             | 	fit	480
00614                 | 	orgh
00614                 | hubentry
00614                 | 
00614                 | ' 
00614                 | ' 
00614                 | ' pub main() | t11, i11, h11,h12,h21,h22
00614                 | _main
00614     09 88 04 F6 | 	mov	COUNT_, #9
00618     4B 00 A0 FD | 	call	#pushregs_
0061c                 | ' 
0061c                 | ' v.start(512+448+1+48,8)
0061c     01 00 00 FF 
00620     F1 4B 05 F6 | 	mov	arg01, ##1009
00624     08 4C 05 F6 | 	mov	arg02, #8
00628     68 18 B0 FD | 	call	#_hng025_start
0062c                 | ' v.cls(154,147)
0062c     9A 4A 05 F6 | 	mov	arg01, #154
00630     93 4C 05 F6 | 	mov	arg02, #147
00634     44 0C B0 FD | 	call	#_hng025_cls
00638                 | ' v.setfontfamily(4)
00638                 | ' 
00638                 | ' font_family:=afontnum
00638     C8 F2 04 F1 | 	add	objptr, #200
0063c     79 08 68 FC | 	wrlong	#4, objptr
00640     C8 F2 84 F1 | 	sub	objptr, #200
00644                 | ' v.waitvbl(100)
00644     64 4A 05 F6 | 	mov	arg01, #100
00648     98 0B B0 FD | 	call	#_hng025_waitvbl
0064c                 | ' dacinit()
0064c     74 06 B0 FD | 	call	#_dacinit
00650                 | ' dacset($8000,$8000)
00650     0F 4A C5 F9 | 	decod	arg01, #15
00654     0F 4C C5 F9 | 	decod	arg02, #15
00658     90 06 B0 FD | 	call	#_dacset
0065c                 | ' repeat
0065c                 | LR__0001
0065c                 | '   v.waitvbl(1)
0065c     01 4A 05 F6 | 	mov	arg01, #1
00660     80 0B B0 FD | 	call	#_hng025_waitvbl
00664                 | '   if (receive_sbus(SBUS_RX, @frame))                          ' get s.bus frame
00664     EC F2 04 F1 | 	add	objptr, #236
00668     79 4C 01 F6 | 	mov	arg02, objptr
0066c     EC F2 84 F1 | 	sub	objptr, #236
00670     07 4A 05 F6 | 	mov	arg01, #7
00674     14 03 B0 FD | 	call	#_receive_sbus
00678     00 04 0D F2 | 	cmp	result1, #0 wz
0067c     DC FF 9F AD |  if_e	jmp	#LR__0001
00680                 | '     decode_sbus(@frame, @channel)                             ' convert to channel values
00680     EC F2 04 F1 | 	add	objptr, #236
00684     79 4A 01 F6 | 	mov	arg01, objptr
00688     1C F2 04 F1 | 	add	objptr, #28
0068c     79 4C 01 F6 | 	mov	arg02, objptr
00690     08 F3 84 F1 | 	sub	objptr, #264
00694     A8 04 B0 FD | 	call	#_decode_sbus
00698                 | '     repeat i11 from 0 to 15                                     ' display channel values
00698     00 54 05 F6 | 	mov	local01, #0
0069c                 | LR__0002
0069c                 | '       v.outtextxycg(0,16*i11,v.inttostr(i11),154,147)
0069c     00 56 05 F6 | 	mov	local02, #0
006a0     AA 58 01 F6 | 	mov	local03, local01
006a4     04 58 65 F0 | 	shl	local03, #4
006a8     AA 4A 01 F6 | 	mov	arg01, local01
006ac     1C 0D B0 FD | 	call	#_hng025_inttostr
006b0     82 4E 01 F6 | 	mov	arg03, result1
006b4     AB 4A 01 F6 | 	mov	arg01, local02
006b8     AC 4C 01 F6 | 	mov	arg02, local03
006bc     9A 50 05 F6 | 	mov	arg04, #154
006c0     93 52 05 F6 | 	mov	arg05, #147
006c4     34 07 B0 FD | 	call	#_hng025_outtextxycg
006c8                 | '       v.outtextxycg(88,16*i11,string(" "),154,147)      
006c8     AA 4C 01 F6 | 	mov	arg02, local01
006cc     04 4C 65 F0 | 	shl	arg02, #4
006d0     16 00 00 FF 
006d4     56 4F 05 F6 | 	mov	arg03, ##@LR__0203
006d8     58 4A 05 F6 | 	mov	arg01, #88
006dc     9A 50 05 F6 | 	mov	arg04, #154
006e0     93 52 05 F6 | 	mov	arg05, #147
006e4     14 07 B0 FD | 	call	#_hng025_outtextxycg
006e8                 | '       v.outtextxycg(64,16*i11,v.inttostr(channel[i11]),154,147)
006e8     40 56 05 F6 | 	mov	local02, #64
006ec     AA 58 01 F6 | 	mov	local03, local01
006f0     04 58 65 F0 | 	shl	local03, #4
006f4     AA 5A 01 F6 | 	mov	local04, local01
006f8     01 5A 65 F0 | 	shl	local04, #1
006fc     08 F3 04 F1 | 	add	objptr, #264
00700     79 5A 01 F1 | 	add	local04, objptr
00704     AD 4A E1 FA | 	rdword	arg01, local04
00708     08 F3 84 F1 | 	sub	objptr, #264
0070c     BC 0C B0 FD | 	call	#_hng025_inttostr
00710     82 4E 01 F6 | 	mov	arg03, result1
00714     AB 4A 01 F6 | 	mov	arg01, local02
00718     AC 4C 01 F6 | 	mov	arg02, local03
0071c     9A 50 05 F6 | 	mov	arg04, #154
00720     93 52 05 F6 | 	mov	arg05, #147
00724     D4 06 B0 FD | 	call	#_hng025_outtextxycg
00728     01 54 05 F1 | 	add	local01, #1
0072c     10 54 5D F2 | 	cmps	local01, #16 wcz
00730     68 FF 9F CD |  if_b	jmp	#LR__0002
00734                 | '      
00734                 | '     h11:=channel[0] 
00734     08 F3 04 F1 | 	add	objptr, #264
00738     79 5C E1 FA | 	rdword	local05, objptr
0073c                 | '     h12:=channel[1]
0073c     02 F2 04 F1 | 	add	objptr, #2
00740     79 5E E1 FA | 	rdword	local06, objptr
00744     0A F3 84 F1 | 	sub	objptr, #266
00748                 | '      
00748                 | '  ' 1 joy do przodu, robot jedzie, 0203= h11=0   
00748                 | '     
00748                 | '     if (h11>1500) & (h12>300) & (h12<1500)
00748     00 56 05 F6 | 	mov	local02, #0
0074c     02 00 00 FF 
00750     DC 5D 5D F2 | 	cmps	local05, ##1500 wcz
00754     01 56 65 16 |  if_a	neg	local02, #1
00758     00 60 05 F6 | 	mov	local07, #0
0075c     2C 5F 5D F2 | 	cmps	local06, #300 wcz
00760     01 60 65 16 |  if_a	neg	local07, #1
00764     B0 56 01 F5 | 	and	local02, local07
00768     00 58 05 F6 | 	mov	local03, #0
0076c     02 00 00 FF 
00770     DC 5F 5D F2 | 	cmps	local06, ##1500 wcz
00774     01 58 65 C6 |  if_b	neg	local03, #1
00778     AC 56 C9 F7 | 	test	local02, local03 wz
0077c                 | '       h21:=$2800
0077c     14 00 00 5F 
00780     00 62 05 56 |  if_ne	mov	local08, ##10240
00784                 | '       h22:=$2800
00784     14 00 00 5F 
00788     00 64 05 56 |  if_ne	mov	local09, ##10240
0078c     9C 01 90 5D |  if_ne	jmp	#LR__0009
00790                 | ' 
00790                 | ' ' 2. joy do tyłu, robot do tyłu
00790                 | ' 
00790                 | '     elseif (h11<300) & (h12>300) & (h12<1500)
00790     00 56 05 F6 | 	mov	local02, #0
00794     2C 5D 5D F2 | 	cmps	local05, #300 wcz
00798     01 56 65 C6 |  if_b	neg	local02, #1
0079c     00 60 05 F6 | 	mov	local07, #0
007a0     2C 5F 5D F2 | 	cmps	local06, #300 wcz
007a4     01 60 65 16 |  if_a	neg	local07, #1
007a8     B0 56 01 F5 | 	and	local02, local07
007ac     00 58 05 F6 | 	mov	local03, #0
007b0     02 00 00 FF 
007b4     DC 5F 5D F2 | 	cmps	local06, ##1500 wcz
007b8     01 58 65 C6 |  if_b	neg	local03, #1
007bc     AC 56 C9 F7 | 	test	local02, local03 wz
007c0                 | '       h21:=$D800
007c0     6C 00 00 5F 
007c4     00 62 05 56 |  if_ne	mov	local08, ##55296
007c8                 | '       h22:=$D800
007c8     6C 00 00 5F 
007cc     00 64 05 56 |  if_ne	mov	local09, ##55296
007d0     58 01 90 5D |  if_ne	jmp	#LR__0008
007d4                 | ' 
007d4                 | '   '3,4  joy w bok
007d4                 | '   
007d4                 | '     elseif (h12>1500) & (h11<1500) & (h11>300)  ''lewo
007d4     00 56 05 F6 | 	mov	local02, #0
007d8     02 00 00 FF 
007dc     DC 5F 5D F2 | 	cmps	local06, ##1500 wcz
007e0     01 56 65 16 |  if_a	neg	local02, #1
007e4     00 60 05 F6 | 	mov	local07, #0
007e8     02 00 00 FF 
007ec     DC 5D 5D F2 | 	cmps	local05, ##1500 wcz
007f0     01 60 65 C6 |  if_b	neg	local07, #1
007f4     B0 56 01 F5 | 	and	local02, local07
007f8     00 58 05 F6 | 	mov	local03, #0
007fc     2C 5D 5D F2 | 	cmps	local05, #300 wcz
00800     01 58 65 16 |  if_a	neg	local03, #1
00804     AC 56 C9 F7 | 	test	local02, local03 wz
00808                 | '       h21:=$2800
00808     14 00 00 5F 
0080c     00 62 05 56 |  if_ne	mov	local08, ##10240
00810                 | '       h22:=$D800
00810     6C 00 00 5F 
00814     00 64 05 56 |  if_ne	mov	local09, ##55296
00818     10 01 90 5D |  if_ne	jmp	#LR__0007
0081c                 | '     
0081c                 | '     
0081c                 | '     elseif (h12<300) & (h11<1500) & (h11>300)   ''prawo
0081c     00 56 05 F6 | 	mov	local02, #0
00820     2C 5F 5D F2 | 	cmps	local06, #300 wcz
00824     01 56 65 C6 |  if_b	neg	local02, #1
00828     00 60 05 F6 | 	mov	local07, #0
0082c     02 00 00 FF 
00830     DC 5D 5D F2 | 	cmps	local05, ##1500 wcz
00834     01 60 65 C6 |  if_b	neg	local07, #1
00838     B0 56 01 F5 | 	and	local02, local07
0083c     00 58 05 F6 | 	mov	local03, #0
00840     2C 5D 5D F2 | 	cmps	local05, #300 wcz
00844     01 58 65 16 |  if_a	neg	local03, #1
00848     AC 56 C9 F7 | 	test	local02, local03 wz
0084c                 | '       h21:=$D800
0084c     6C 00 00 5F 
00850     00 62 05 56 |  if_ne	mov	local08, ##55296
00854                 | '       h22:=$2800
00854     14 00 00 5F 
00858     00 64 05 56 |  if_ne	mov	local09, ##10240
0085c     CC 00 90 5D |  if_ne	jmp	#LR__0006
00860                 | '     
00860                 | '     elseif (h12>1500) & (h11>1500) '' lewo góra   
00860     00 56 05 F6 | 	mov	local02, #0
00864     02 00 00 FF 
00868     DC 5F 5D F2 | 	cmps	local06, ##1500 wcz
0086c     01 56 65 16 |  if_a	neg	local02, #1
00870     00 60 05 F6 | 	mov	local07, #0
00874     02 00 00 FF 
00878     DC 5D 5D F2 | 	cmps	local05, ##1500 wcz
0087c     01 60 65 16 |  if_a	neg	local07, #1
00880     B0 56 C9 F7 | 	test	local02, local07 wz
00884                 | '       h21:=$2800
00884     14 00 00 5F 
00888     00 62 05 56 |  if_ne	mov	local08, ##10240
0088c                 | '       h22:=$4000
0088c     0E 64 C5 59 |  if_ne	decod	local09, #14
00890     98 00 90 5D |  if_ne	jmp	#LR__0005
00894                 | '     
00894                 | '     elseif (h12>1500) & (h11<300) ''  lewo dół
00894     00 56 05 F6 | 	mov	local02, #0
00898     02 00 00 FF 
0089c     DC 5F 5D F2 | 	cmps	local06, ##1500 wcz
008a0     01 56 65 16 |  if_a	neg	local02, #1
008a4     00 60 05 F6 | 	mov	local07, #0
008a8     2C 5D 5D F2 | 	cmps	local05, #300 wcz
008ac     01 60 65 C6 |  if_b	neg	local07, #1
008b0     B0 56 C9 F7 | 	test	local02, local07 wz
008b4                 | '       h21:=$c000
008b4     60 00 00 5F 
008b8     00 62 05 56 |  if_ne	mov	local08, ##49152
008bc                 | '       h22:=$D800  
008bc     6C 00 00 5F 
008c0     00 64 05 56 |  if_ne	mov	local09, ##55296
008c4     64 00 90 5D |  if_ne	jmp	#LR__0004
008c8                 | '     
008c8                 | '     elseif (h12<300) & (h11>1500)    '' prawo góra
008c8     00 56 05 F6 | 	mov	local02, #0
008cc     2C 5F 5D F2 | 	cmps	local06, #300 wcz
008d0     01 56 65 C6 |  if_b	neg	local02, #1
008d4     00 60 05 F6 | 	mov	local07, #0
008d8     02 00 00 FF 
008dc     DC 5D 5D F2 | 	cmps	local05, ##1500 wcz
008e0     01 60 65 16 |  if_a	neg	local07, #1
008e4     B0 56 C9 F7 | 	test	local02, local07 wz
008e8                 | '       h21:=$4000
008e8     0E 62 C5 59 |  if_ne	decod	local08, #14
008ec                 | '       h22:=$2800
008ec     14 00 00 5F 
008f0     00 64 05 56 |  if_ne	mov	local09, ##10240
008f4     34 00 90 5D |  if_ne	jmp	#LR__0003
008f8                 | '     
008f8                 | '     elseif (h12<300) & (h11<300)  '' prawo dół
008f8     00 56 05 F6 | 	mov	local02, #0
008fc     2C 5F 5D F2 | 	cmps	local06, #300 wcz
00900     01 56 65 C6 |  if_b	neg	local02, #1
00904     00 60 05 F6 | 	mov	local07, #0
00908     2C 5D 5D F2 | 	cmps	local05, #300 wcz
0090c     01 60 65 C6 |  if_b	neg	local07, #1
00910     B0 56 C9 F7 | 	test	local02, local07 wz
00914                 | '       h21:=$d800
00914     6C 00 00 5F 
00918     00 62 05 56 |  if_ne	mov	local08, ##55296
0091c                 | '       h22:=$c000  
0091c     60 00 00 5F 
00920     00 64 05 56 |  if_ne	mov	local09, ##49152
00924                 | '       
00924                 | '     else
00924                 | '       h21:=$8000
00924     0F 62 C5 A9 |  if_e	decod	local08, #15
00928                 | '       h22:=$8000  
00928     0F 64 C5 A9 |  if_e	decod	local09, #15
0092c                 | LR__0003
0092c                 | LR__0004
0092c                 | LR__0005
0092c                 | LR__0006
0092c                 | LR__0007
0092c                 | LR__0008
0092c                 | LR__0009
0092c                 | '  
0092c                 | '     dacset(h21,h22)    
0092c     B1 4A 01 F6 | 	mov	arg01, local08
00930     B2 4C 01 F6 | 	mov	arg02, local09
00934     B4 03 B0 FD | 	call	#_dacset
00938                 | '   
00938                 | '     if (channel[7]>1000)
00938     16 F3 04 F1 | 	add	objptr, #278
0093c     79 56 E1 FA | 	rdword	local02, objptr
00940     16 F3 84 F1 | 	sub	objptr, #278
00944     01 00 00 FF 
00948     E8 57 5D F2 | 	cmps	local02, ##1000 wcz
0094c     18 00 90 ED |  if_be	jmp	#LR__0010
00950                 | '       pinwrite(2,0)
00950     00 4C 05 F6 | 	mov	arg02, #0
00954     01 4C D5 F7 | 	test	arg02, #1 wc
00958     5A 04 64 FD | 	drvc	#2
0095c                 | '       pinwrite(3,0)
0095c     01 4C D5 F7 | 	test	arg02, #1 wc
00960     5A 06 64 FD | 	drvc	#3
00964                 | '     else
00964     F4 FC 9F FD | 	jmp	#LR__0001
00968                 | LR__0010
00968                 | '       pinwrite(2,1)
00968     01 4C 05 F6 | 	mov	arg02, #1
0096c     01 4C D5 F7 | 	test	arg02, #1 wc
00970     5A 04 64 FD | 	drvc	#2
00974                 | '       pinwrite(3,1)
00974     01 4C D5 F7 | 	test	arg02, #1 wc
00978     5A 06 64 FD | 	drvc	#3
0097c     DC FC 9F FD | 	jmp	#LR__0001
00980     46 F0 03 F6 | 	mov	ptra, fp
00984     5A 00 A0 FD | 	call	#popregs_
00988                 | _main_ret
00988     2D 00 64 FD | 	ret
0098c                 | 
0098c                 | ' 
0098c                 | '   
0098c                 | '   
0098c                 | ' pub receive_sbus(p, p_sbus) : success | x, b, byte buffer[25]   ' blocks if no signal!!!
0098c                 | _receive_sbus
0098c     04 88 04 F6 | 	mov	COUNT_, #4
00990     4B 00 A0 FD | 	call	#pushregs_
00994     30 F0 07 F1 | 	add	ptra, #48
00998     04 8C 04 F1 | 	add	fp, #4
0099c     46 4A 61 FC | 	wrlong	arg01, fp
009a0     04 8C 04 F1 | 	add	fp, #4
009a4     46 4C 61 FC | 	wrlong	arg02, fp
009a8     08 8C 84 F1 | 	sub	fp, #8
009ac     46 00 68 FC | 	wrlong	#0, fp
009b0                 | ' 
009b0                 | '   pinclear(p)                                                   ' force to tri-state mode
009b0     04 8C 04 F1 | 	add	fp, #4
009b4     46 4A 01 FB | 	rdlong	arg01, fp
009b8     50 4A 61 FD | 	fltl	arg01
009bc     A5 00 08 FC | 	wrpin	#0, arg01
009c0                 | ' 
009c0                 | '   x := 0                                                        ' find inter-frame gap
009c0     08 8C 04 F1 | 	add	fp, #8
009c4     46 00 68 FC | 	wrlong	#0, fp
009c8     0C 8C 84 F1 | 	sub	fp, #12
009cc                 | '   repeat
009cc                 | LR__0011
009cc                 | '     if (pinread(p) == 0)
009cc     04 8C 04 F1 | 	add	fp, #4
009d0     46 4A 01 FB | 	rdlong	arg01, fp
009d4     04 8C 84 F1 | 	sub	fp, #4
009d8     4C 19 B0 FD | 	call	#__system___pinread
009dc     00 04 0D F2 | 	cmp	result1, #0 wz
009e0     20 00 90 5D |  if_ne	jmp	#LR__0012
009e4                 | '       if (++x == 250)
009e4     0C 8C 04 F1 | 	add	fp, #12
009e8     46 54 01 FB | 	rdlong	local01, fp
009ec     01 54 05 F1 | 	add	local01, #1
009f0     46 54 61 FC | 	wrlong	local01, fp
009f4     0C 8C 84 F1 | 	sub	fp, #12
009f8     FA 54 0D F2 | 	cmp	local01, #250 wz
009fc                 | '         quit
009fc     14 00 90 AD |  if_e	jmp	#LR__0013
00a00                 | '     else
00a00     C8 FF 9F FD | 	jmp	#LR__0011
00a04                 | LR__0012
00a04                 | '       x := 0
00a04     0C 8C 04 F1 | 	add	fp, #12
00a08     46 00 68 FC | 	wrlong	#0, fp
00a0c     0C 8C 84 F1 | 	sub	fp, #12
00a10     B8 FF 9F FD | 	jmp	#LR__0011
00a14                 | LR__0013
00a14                 | ' 
00a14                 | '   pinstart(p, SBUS_CFG, SBUS_BAUD, 0)                           ' configure for S.BUS serial
00a14     04 8C 04 F1 | 	add	fp, #4
00a18     46 4A 01 FB | 	rdlong	arg01, fp
00a1c     40 00 00 FF 
00a20     3E 4C 05 F6 | 	mov	arg02, ##32830
00a24     80 4A 06 FF 
00a28     08 4E 05 F6 | 	mov	arg03, ##211091464
00a2c     00 50 05 F6 | 	mov	arg04, #0
00a30     40 4A 61 FD | 	dirl	arg01
00a34     40 00 80 FF 
00a38     A5 7C 08 FC | 	wrpin	##32830, arg01
00a3c     80 4A 86 FF 
00a40     A5 10 18 FC | 	wxpin	##211091464, arg01
00a44     A5 00 28 FC | 	wypin	#0, arg01
00a48     41 4A 61 FD | 	dirh	arg01
00a4c                 | ' 
00a4c                 | '   repeat x from 0 to 24                                         ' get s.bus frame
00a4c     08 8C 04 F1 | 	add	fp, #8
00a50     46 00 68 FC | 	wrlong	#0, fp
00a54     0C 8C 84 F1 | 	sub	fp, #12
00a58                 | LR__0014
00a58                 | '     repeat until (pinread(p))                                   ' wait for byte
00a58                 | LR__0015
00a58     04 8C 04 F1 | 	add	fp, #4
00a5c     46 4A 01 FB | 	rdlong	arg01, fp
00a60     04 8C 84 F1 | 	sub	fp, #4
00a64     C0 18 B0 FD | 	call	#__system___pinread
00a68     00 04 0D F2 | 	cmp	result1, #0 wz
00a6c     E8 FF 9F AD |  if_e	jmp	#LR__0015
00a70                 | '     b := rdpin(p) >> 23                                         ' get data + parity
00a70     04 8C 04 F1 | 	add	fp, #4
00a74     46 4A 01 FB | 	rdlong	arg01, fp
00a78     00 04 05 F6 | 	mov	result1, #0
00a7c     A5 04 89 FA | 	rdpin	result1, arg01
00a80     82 4A 01 F6 | 	mov	arg01, result1
00a84     17 4A 45 F0 | 	shr	arg01, #23
00a88     0C 8C 04 F1 | 	add	fp, #12
00a8c     46 4A 61 FC | 	wrlong	arg01, fp
00a90                 | '     if (ones(b) & 1)                                            ' if odd parity
00a90     10 8C 84 F1 | 	sub	fp, #16
00a94     00 04 05 F6 | 	mov	result1, #0
00a98     A5 04 A1 F7 | 	ones	result1, arg01
00a9c     01 04 CD F7 | 	test	result1, #1 wz
00aa0                 | '       return false                                              '  return error
00aa0     00 04 05 56 |  if_ne	mov	result1, #0
00aa4     8C 00 90 5D |  if_ne	jmp	#LR__0018
00aa8                 | '     else                                                        ' else
00aa8                 | '       buffer[x] := b & $FF                                      '  save to buffer
00aa8     10 8C 04 F1 | 	add	fp, #16
00aac     46 56 01 FB | 	rdlong	local02, fp
00ab0     FF 56 05 F5 | 	and	local02, #255
00ab4     04 8C 84 F1 | 	sub	fp, #4
00ab8     46 58 01 FB | 	rdlong	local03, fp
00abc     08 8C 04 F1 | 	add	fp, #8
00ac0     46 58 01 F1 | 	add	local03, fp
00ac4     AC 56 41 FC | 	wrbyte	local02, local03
00ac8     08 8C 84 F1 | 	sub	fp, #8
00acc     46 56 01 FB | 	rdlong	local02, fp
00ad0     01 56 05 F1 | 	add	local02, #1
00ad4     46 56 61 FC | 	wrlong	local02, fp
00ad8     0C 8C 84 F1 | 	sub	fp, #12
00adc     19 56 5D F2 | 	cmps	local02, #25 wcz
00ae0     74 FF 9F CD |  if_b	jmp	#LR__0014
00ae4                 | ' 
00ae4                 | '   if (buffer[0] <> $0F) || (buffer[24] <> $00)                  ' check header & footer bytes
00ae4     14 8C 04 F1 | 	add	fp, #20
00ae8     46 5A C1 FA | 	rdbyte	local04, fp
00aec     14 8C 84 F1 | 	sub	fp, #20
00af0     0F 5A 0D F2 | 	cmp	local04, #15 wz
00af4     14 00 90 5D |  if_ne	jmp	#LR__0016
00af8     2C 8C 04 F1 | 	add	fp, #44
00afc     46 58 C1 FA | 	rdbyte	local03, fp
00b00     2C 8C 84 F1 | 	sub	fp, #44
00b04     AC 54 09 F6 | 	mov	local01, local03 wz
00b08     08 00 90 AD |  if_e	jmp	#LR__0017
00b0c                 | LR__0016
00b0c                 | '     return false
00b0c     00 04 05 F6 | 	mov	result1, #0
00b10     20 00 90 FD | 	jmp	#LR__0018
00b14                 | LR__0017
00b14                 | ' 
00b14                 | '   bytemove(p_sbus, @buffer, 25)                                 ' success; copy to destination
00b14     08 8C 04 F1 | 	add	fp, #8
00b18     46 4A 01 FB | 	rdlong	arg01, fp
00b1c     0C 8C 04 F1 | 	add	fp, #12
00b20     46 4C 01 F6 | 	mov	arg02, fp
00b24     14 8C 84 F1 | 	sub	fp, #20
00b28     19 4E 05 F6 | 	mov	arg03, #25
00b2c     08 16 B0 FD | 	call	#__system__bytemove
00b30                 | ' 
00b30                 | '   return true
00b30     01 04 65 F6 | 	neg	result1, #1
00b34                 | LR__0018
00b34     46 F0 03 F6 | 	mov	ptra, fp
00b38     5A 00 A0 FD | 	call	#popregs_
00b3c                 | _receive_sbus_ret
00b3c     2D 00 64 FD | 	ret
00b40                 | 
00b40                 | ' 
00b40                 | ' 
00b40                 | ' pub decode_sbus(p_sbus, p_chans) | ch, work, bc, flags
00b40                 | _decode_sbus
00b40     09 88 04 F6 | 	mov	COUNT_, #9
00b44     4B 00 A0 FD | 	call	#pushregs_
00b48     1C F0 07 F1 | 	add	ptra, #28
00b4c     46 4A 61 FC | 	wrlong	arg01, fp
00b50     04 8C 04 F1 | 	add	fp, #4
00b54     46 4C 61 FC | 	wrlong	arg02, fp
00b58     04 8C 84 F1 | 	sub	fp, #4
00b5c                 | ' 
00b5c                 | '   p_sbus += 1                                                   ' point to data byte #1
00b5c     46 54 01 FB | 	rdlong	local01, fp
00b60     01 54 05 F1 | 	add	local01, #1
00b64     46 54 61 FC | 	wrlong	local01, fp
00b68                 | ' 
00b68                 | '   longfill(@ch, 0, 3)                                           ' clear locals
00b68     08 8C 04 F1 | 	add	fp, #8
00b6c     46 4A 01 F6 | 	mov	arg01, fp
00b70     08 8C 84 F1 | 	sub	fp, #8
00b74     00 4C 05 F6 | 	mov	arg02, #0
00b78     90 F4 9F FE | 	loc	pa,	#(@LR__0021-@LR__0019)
00b7c     35 00 A0 FD | 	call	#FCACHE_LOAD_
00b80                 | LR__0019
00b80     03 04 DC FC | 	rep	@LR__0022, #3
00b84                 | LR__0020
00b84     A5 4C 61 FC | 	wrlong	arg02, arg01
00b88     04 4A 05 F1 | 	add	arg01, #4
00b8c                 | LR__0021
00b8c                 | LR__0022
00b8c     40 F5 9F FE | 	loc	pa,	#(@LR__0026-@LR__0023)
00b90     35 00 A0 FD | 	call	#FCACHE_LOAD_
00b94                 | ' 
00b94                 | '   repeat while (ch <= 15)                                       ' Ch 1-16 decoding
00b94                 | LR__0023
00b94     08 8C 04 F1 | 	add	fp, #8
00b98     46 54 01 FB | 	rdlong	local01, fp
00b9c     08 8C 84 F1 | 	sub	fp, #8
00ba0     0F 54 5D F2 | 	cmps	local01, #15 wcz
00ba4     BC 00 90 1D |  if_a	jmp	#LR__0027
00ba8                 | '     repeat while (bc < 11)                                      ' collect enough bits for channel
00ba8                 | LR__0024
00ba8     10 8C 04 F1 | 	add	fp, #16
00bac     46 54 01 FB | 	rdlong	local01, fp
00bb0     10 8C 84 F1 | 	sub	fp, #16
00bb4     0B 54 5D F2 | 	cmps	local01, #11 wcz
00bb8     48 00 90 3D |  if_ae	jmp	#LR__0025
00bbc                 | '       work |= (byte[p_sbus++] << bc)                            ' get byte, position, add to work
00bbc     46 56 01 FB | 	rdlong	local02, fp
00bc0     AB 58 01 F6 | 	mov	local03, local02
00bc4     01 58 05 F1 | 	add	local03, #1
00bc8     46 58 61 FC | 	wrlong	local03, fp
00bcc     AB 5A C1 FA | 	rdbyte	local04, local02
00bd0     10 8C 04 F1 | 	add	fp, #16
00bd4     46 5C 01 FB | 	rdlong	local05, fp
00bd8     AE 5A 61 F0 | 	shl	local04, local05
00bdc     04 8C 84 F1 | 	sub	fp, #4
00be0     46 5E 01 FB | 	rdlong	local06, fp
00be4     AD 5E 41 F5 | 	or	local06, local04
00be8     46 5E 61 FC | 	wrlong	local06, fp
00bec                 | '       bc += 8                                                   ' bump bit count
00bec     04 8C 04 F1 | 	add	fp, #4
00bf0     46 54 01 FB | 	rdlong	local01, fp
00bf4     08 54 05 F1 | 	add	local01, #8
00bf8     46 54 61 FC | 	wrlong	local01, fp
00bfc     10 8C 84 F1 | 	sub	fp, #16
00c00     A4 FF 9F FD | 	jmp	#LR__0024
00c04                 | LR__0025
00c04                 | '     word[p_chans][ch++] := work & $07FF                         ' extract and save channel
00c04     0C 8C 04 F1 | 	add	fp, #12
00c08     46 54 01 FB | 	rdlong	local01, fp
00c0c     03 00 00 FF 
00c10     FF 55 05 F5 | 	and	local01, ##2047
00c14     08 8C 84 F1 | 	sub	fp, #8
00c18     46 60 01 FB | 	rdlong	local07, fp
00c1c     04 8C 04 F1 | 	add	fp, #4
00c20     46 62 01 FB | 	rdlong	local08, fp
00c24     B1 64 01 F6 | 	mov	local09, local08
00c28     01 64 05 F1 | 	add	local09, #1
00c2c     46 64 61 FC | 	wrlong	local09, fp
00c30     01 62 65 F0 | 	shl	local08, #1
00c34     B0 62 01 F1 | 	add	local08, local07
00c38     B1 54 51 FC | 	wrword	local01, local08
00c3c                 | '     work >>= 11                                                 ' remove channel, re-align lsb
00c3c     04 8C 04 F1 | 	add	fp, #4
00c40     46 54 01 FB | 	rdlong	local01, fp
00c44     0B 54 45 F0 | 	shr	local01, #11
00c48     46 54 61 FC | 	wrlong	local01, fp
00c4c                 | '     bc -= 11                                                    ' fix bit count
00c4c     04 8C 04 F1 | 	add	fp, #4
00c50     46 54 01 FB | 	rdlong	local01, fp
00c54     0B 54 85 F1 | 	sub	local01, #11
00c58     46 54 61 FC | 	wrlong	local01, fp
00c5c     10 8C 84 F1 | 	sub	fp, #16
00c60     30 FF 9F FD | 	jmp	#LR__0023
00c64                 | LR__0026
00c64                 | LR__0027
00c64                 | ' 
00c64                 | '   flags := byte[p_sbus]
00c64     46 54 01 FB | 	rdlong	local01, fp
00c68     AA 56 C1 FA | 	rdbyte	local02, local01
00c6c     14 8C 04 F1 | 	add	fp, #20
00c70     46 56 61 FC | 	wrlong	local02, fp
00c74                 | ' 
00c74                 | '   word[p_chans][16] := (flags & %0001) ? $07FF : 0              ' convert ch17 bit
00c74     01 56 CD F7 | 	test	local02, #1 wz
00c78     0A 54 CD 59 |  if_ne	bmask	local01, #10
00c7c     00 54 05 A6 |  if_e	mov	local01, #0
00c80     10 8C 84 F1 | 	sub	fp, #16
00c84     46 5C 01 FB | 	rdlong	local05, fp
00c88     20 5C 05 F1 | 	add	local05, #32
00c8c     AE 54 51 FC | 	wrword	local01, local05
00c90                 | '   word[p_chans][17] := (flags & %0010) ? $07FF : 0              ' convert ch18 bit
00c90     10 8C 04 F1 | 	add	fp, #16
00c94     46 56 01 FB | 	rdlong	local02, fp
00c98     02 56 CD F7 | 	test	local02, #2 wz
00c9c     0A 54 CD 59 |  if_ne	bmask	local01, #10
00ca0     00 54 05 A6 |  if_e	mov	local01, #0
00ca4     10 8C 84 F1 | 	sub	fp, #16
00ca8     46 5C 01 FB | 	rdlong	local05, fp
00cac     04 8C 84 F1 | 	sub	fp, #4
00cb0     22 5C 05 F1 | 	add	local05, #34
00cb4     AE 54 51 FC | 	wrword	local01, local05
00cb8     46 F0 03 F6 | 	mov	ptra, fp
00cbc     5A 00 A0 FD | 	call	#popregs_
00cc0                 | _decode_sbus_ret
00cc0     2D 00 64 FD | 	ret
00cc4                 | 
00cc4                 | '  
00cc4                 | ' pub dacinit() | dac
00cc4                 | _dacinit
00cc4                 | ' 
00cc4                 | ' dac:=%10110_00000000_01_00011_0  
00cc4                 | ' 
00cc4                 | ' 
00cc4                 | ' org
00cc4     54 F3 9F FE | 	loc	pa,	#(@LR__0029-@LR__0028)
00cc8     35 00 A0 FD | 	call	#FCACHE_LOAD_
00ccc                 | LR__0028
00ccc     00 0B 80 FF 
00cd0     00 8C 0C FC | 	wrpin	##1441862, #0
00cd4     00 00 1E FC | 	wxpin	#256, #0
00cd8     00 0B 80 FF 
00cdc     01 8C 0C FC | 	wrpin	##1441862, #1
00ce0     01 00 1E FC | 	wxpin	#256, #1
00ce4     41 80 64 FD | 	dirh	#64
00ce8                 | LR__0029
00ce8                 | _dacinit_ret
00ce8     2D 00 64 FD | 	ret
00cec                 | 
00cec                 | ' 
00cec                 | '    
00cec                 | ' pub dacset(lll,rrr)
00cec                 | _dacset
00cec                 | '    
00cec                 | ' org   
00cec     18 F3 9F FE | 	loc	pa,	#(@LR__0031-@LR__0030)
00cf0     35 00 A0 FD | 	call	#FCACHE_LOAD_
00cf4                 | LR__0030
00cf4     00 4A 25 FC | 	wypin	arg01, #0
00cf8     01 4C 25 FC | 	wypin	arg02, #1
00cfc                 | LR__0031
00cfc                 | _dacset_ret
00cfc     2D 00 64 FD | 	ret
00d00                 | 
00d00                 | ' 
00d00                 | ' pub putcharxycg(x,y,achar,f,b) |xx, yy,bb
00d00                 | _hng025_putcharxycg
00d00     0D 88 04 F6 | 	mov	COUNT_, #13
00d04     4B 00 A0 FD | 	call	#pushregs_
00d08     A5 54 01 F6 | 	mov	local01, arg01
00d0c     A6 56 01 F6 | 	mov	local02, arg02
00d10     A7 58 01 F6 | 	mov	local03, arg03
00d14     A8 5A 01 F6 | 	mov	local04, arg04
00d18     A9 5C 01 F6 | 	mov	local05, arg05
00d1c                 | ' 
00d1c                 | ' repeat yy from 0 to 15
00d1c     00 5E 05 F6 | 	mov	local06, #0
00d20                 | LR__0032
00d20                 | '   bb:=byte[@vga_font+font_family<<10+achar<<4+yy]
00d20     7C 60 01 F6 | 	mov	local07, ptr__hng025_dat__
00d24     C8 F2 04 F1 | 	add	objptr, #200
00d28     79 62 01 FB | 	rdlong	local08, objptr
00d2c     C8 F2 84 F1 | 	sub	objptr, #200
00d30     0A 62 65 F0 | 	shl	local08, #10
00d34     B1 60 01 F1 | 	add	local07, local08
00d38     AC 64 01 F6 | 	mov	local09, local03
00d3c     04 64 65 F0 | 	shl	local09, #4
00d40     B2 60 01 F1 | 	add	local07, local09
00d44     AF 60 01 F1 | 	add	local07, local06
00d48     B0 66 C1 FA | 	rdbyte	local10, local07
00d4c                 | '   repeat xx from 0 to 7
00d4c     00 68 05 F6 | 	mov	local11, #0
00d50                 | LR__0033
00d50                 | '     if (bb&(1<<xx))<>0
00d50     B4 6A C1 F9 | 	decod	local12, local11
00d54     B5 66 C9 F7 | 	test	local10, local12 wz
00d58     40 00 90 AD |  if_e	jmp	#LR__0034
00d5c                 | '       putpixel(xx+x,yy+y,f)
00d5c     D8 F2 04 F1 | 	add	objptr, #216
00d60     79 60 01 FB | 	rdlong	local07, objptr
00d64     D8 F2 84 F1 | 	sub	objptr, #216
00d68     B0 6A 01 FB | 	rdlong	local12, local07
00d6c     04 60 05 F1 | 	add	local07, #4
00d70     B0 62 01 FB | 	rdlong	local08, local07
00d74     B4 4A 01 F6 | 	mov	arg01, local11
00d78     AA 4A 01 F1 | 	add	arg01, local01
00d7c     AF 4C 01 F6 | 	mov	arg02, local06
00d80     AB 4C 01 F1 | 	add	arg02, local02
00d84     AD 4E 01 F6 | 	mov	arg03, local04
00d88     79 6C 01 F6 | 	mov	local13, objptr
00d8c     B5 F2 00 F6 | 	mov	objptr, local12
00d90     2D 62 61 FD | 	call	local08
00d94     B6 F2 00 F6 | 	mov	objptr, local13
00d98                 | '     else
00d98     3C 00 90 FD | 	jmp	#LR__0035
00d9c                 | LR__0034
00d9c                 | '       putpixel(xx+x,yy+y,b)
00d9c     D8 F2 04 F1 | 	add	objptr, #216
00da0     79 60 01 FB | 	rdlong	local07, objptr
00da4     D8 F2 84 F1 | 	sub	objptr, #216
00da8     B0 6A 01 FB | 	rdlong	local12, local07
00dac     04 60 05 F1 | 	add	local07, #4
00db0     B0 62 01 FB | 	rdlong	local08, local07
00db4     B4 4A 01 F6 | 	mov	arg01, local11
00db8     AA 4A 01 F1 | 	add	arg01, local01
00dbc     AF 4C 01 F6 | 	mov	arg02, local06
00dc0     AB 4C 01 F1 | 	add	arg02, local02
00dc4     AE 4E 01 F6 | 	mov	arg03, local05
00dc8     79 6C 01 F6 | 	mov	local13, objptr
00dcc     B5 F2 00 F6 | 	mov	objptr, local12
00dd0     2D 62 61 FD | 	call	local08
00dd4     B6 F2 00 F6 | 	mov	objptr, local13
00dd8                 | LR__0035
00dd8     01 68 05 F1 | 	add	local11, #1
00ddc     08 68 5D F2 | 	cmps	local11, #8 wcz
00de0     6C FF 9F CD |  if_b	jmp	#LR__0033
00de4     01 5E 05 F1 | 	add	local06, #1
00de8     10 5E 5D F2 | 	cmps	local06, #16 wcz
00dec     30 FF 9F CD |  if_b	jmp	#LR__0032
00df0     46 F0 03 F6 | 	mov	ptra, fp
00df4     5A 00 A0 FD | 	call	#popregs_
00df8                 | _hng025_putcharxycg_ret
00df8     2D 00 64 FD | 	ret
00dfc                 | 
00dfc                 | ' 
00dfc                 | ' pub outtextxycg(x,y,text,f,b) | iii,c
00dfc                 | _hng025_outtextxycg
00dfc     0C 88 04 F6 | 	mov	COUNT_, #12
00e00     4B 00 A0 FD | 	call	#pushregs_
00e04     A5 54 01 F6 | 	mov	local01, arg01
00e08     A6 56 01 F6 | 	mov	local02, arg02
00e0c     A7 58 01 F6 | 	mov	local03, arg03
00e10     A8 5A 01 F6 | 	mov	local04, arg04
00e14     A9 5C 01 F6 | 	mov	local05, arg05
00e18                 | ' 
00e18                 | ' repeat iii from 0 to strsize(text)-1
00e18     00 5E 05 F6 | 	mov	local06, #0
00e1c     AC 4A 01 F6 | 	mov	arg01, local03
00e20     00 60 05 F6 | 	mov	local07, #0
00e24     E8 F1 9F FE | 	loc	pa,	#(@LR__0037-@LR__0036)
00e28     35 00 A0 FD | 	call	#FCACHE_LOAD_
00e2c                 | LR__0036
00e2c     A5 62 C9 FA | 	rdbyte	local08, arg01 wz
00e30     01 60 05 51 |  if_ne	add	local07, #1
00e34     01 4A 05 51 |  if_ne	add	arg01, #1
00e38     F0 FF 9F 5D |  if_ne	jmp	#LR__0036
00e3c                 | LR__0037
00e3c     B0 04 01 F6 | 	mov	result1, local07
00e40     82 64 01 F6 | 	mov	local09, result1
00e44     01 64 85 F1 | 	sub	local09, #1
00e48     00 64 5D F2 | 	cmps	local09, #0 wcz
00e4c     01 66 05 16 |  if_a	mov	local10, #1
00e50     01 66 65 E6 |  if_be	neg	local10, #1
00e54     B3 64 01 F1 | 	add	local09, local10
00e58                 | LR__0038
00e58                 | '   putcharxycg(x+8*iii,y,byte[text+iii],f,b)
00e58     AA 4A 01 F6 | 	mov	arg01, local01
00e5c     AF 68 01 F6 | 	mov	local11, local06
00e60     03 68 65 F0 | 	shl	local11, #3
00e64     B4 4A 01 F1 | 	add	arg01, local11
00e68     AB 4C 01 F6 | 	mov	arg02, local02
00e6c     AC 6A 01 F6 | 	mov	local12, local03
00e70     AF 6A 01 F1 | 	add	local12, local06
00e74     B5 4E C1 FA | 	rdbyte	arg03, local12
00e78     AD 50 01 F6 | 	mov	arg04, local04
00e7c     AE 52 01 F6 | 	mov	arg05, local05
00e80     7C FE BF FD | 	call	#_hng025_putcharxycg
00e84     B3 5E 01 F1 | 	add	local06, local10
00e88     B2 5E 09 F2 | 	cmp	local06, local09 wz
00e8c     C8 FF 9F 5D |  if_ne	jmp	#LR__0038
00e90     46 F0 03 F6 | 	mov	ptra, fp
00e94     5A 00 A0 FD | 	call	#popregs_
00e98                 | _hng025_outtextxycg_ret
00e98     2D 00 64 FD | 	ret
00e9c                 | 
00e9c                 | ' 
00e9c                 | ' 
00e9c                 | ' ''---------- putpixel - put a pixel on the screen
00e9c                 | ' 
00e9c                 | ' pub putpixel1(x,y,c) |byte b
00e9c                 | _hng025_putpixel1
00e9c                 | ' 
00e9c                 | ' 
00e9c                 | ' if ((x>=0) & (x<32*cpl) & (y>=0) & (y<lines))
00e9c     00 0A 05 F6 | 	mov	_var01, #0
00ea0     00 4A 5D F2 | 	cmps	arg01, #0 wcz
00ea4     01 0A 65 36 |  if_ae	neg	_var01, #1
00ea8     00 0C 05 F6 | 	mov	_var02, #0
00eac     90 F2 04 F1 | 	add	objptr, #144
00eb0     79 0E 01 FB | 	rdlong	_var03, objptr
00eb4     05 0E 65 F0 | 	shl	_var03, #5
00eb8     87 4A 59 F2 | 	cmps	arg01, _var03 wcz
00ebc     01 0C 65 C6 |  if_b	neg	_var02, #1
00ec0     86 0A 01 F5 | 	and	_var01, _var02
00ec4     00 10 05 F6 | 	mov	_var04, #0
00ec8     00 4C 5D F2 | 	cmps	arg02, #0 wcz
00ecc     01 10 65 36 |  if_ae	neg	_var04, #1
00ed0     88 0A 01 F5 | 	and	_var01, _var04
00ed4     00 12 05 F6 | 	mov	_var05, #0
00ed8     04 F2 04 F1 | 	add	objptr, #4
00edc     79 14 01 FB | 	rdlong	_var06, objptr
00ee0     94 F2 84 F1 | 	sub	objptr, #148
00ee4     8A 4C 59 F2 | 	cmps	arg02, _var06 wcz
00ee8     01 12 65 C6 |  if_b	neg	_var05, #1
00eec     89 0A C9 F7 | 	test	_var01, _var05 wz
00ef0     90 00 90 AD |  if_e	jmp	#LR__0041
00ef4                 | '     b:=byte[buf_ptr+4*cpl*y+(x>>3)]
00ef4     79 0A 01 FB | 	rdlong	_var01, objptr
00ef8     90 F2 04 F1 | 	add	objptr, #144
00efc     79 0C 01 FB | 	rdlong	_var02, objptr
00f00     90 F2 84 F1 | 	sub	objptr, #144
00f04     02 0C 65 F0 | 	shl	_var02, #2
00f08     A6 0C 01 FD | 	qmul	_var02, arg02
00f0c     18 16 61 FD | 	getqx	_var07
00f10     8B 0A 01 F1 | 	add	_var01, _var07
00f14     A5 10 01 F6 | 	mov	_var04, arg01
00f18     03 10 45 F0 | 	shr	_var04, #3
00f1c     88 0A 01 F1 | 	add	_var01, _var04
00f20     85 18 C1 FA | 	rdbyte	_var08, _var01
00f24                 | '     if (c==0)
00f24     00 4E 0D F2 | 	cmp	arg03, #0 wz
00f28     18 00 90 5D |  if_ne	jmp	#LR__0039
00f2c                 | '       b:=b & !(1<<(x//8))
00f2c     A5 0E 51 F6 | 	abs	_var03, arg01 wc
00f30     07 0E 05 F5 | 	and	_var03, #7
00f34     87 0E 61 C6 |  if_b	neg	_var03, _var03
00f38     87 0C C1 F9 | 	decod	_var02, _var03
00f3c     86 18 21 F5 | 	andn	_var08, _var02
00f40                 | '     else
00f40     14 00 90 FD | 	jmp	#LR__0040
00f44                 | LR__0039
00f44                 | '       b:=b |(1<<(x//8))
00f44     A5 0E 51 F6 | 	abs	_var03, arg01 wc
00f48     07 0E 05 F5 | 	and	_var03, #7
00f4c     87 0E 61 C6 |  if_b	neg	_var03, _var03
00f50     87 0C C1 F9 | 	decod	_var02, _var03
00f54     86 18 41 F5 | 	or	_var08, _var02
00f58                 | LR__0040
00f58                 | '     byte[buf_ptr+4*cpl*y+(x>>3)]:=b
00f58     79 0A 01 FB | 	rdlong	_var01, objptr
00f5c     90 F2 04 F1 | 	add	objptr, #144
00f60     79 0C 01 FB | 	rdlong	_var02, objptr
00f64     90 F2 84 F1 | 	sub	objptr, #144
00f68     02 0C 65 F0 | 	shl	_var02, #2
00f6c     A6 0C 01 FD | 	qmul	_var02, arg02
00f70     18 16 61 FD | 	getqx	_var07
00f74     8B 0A 01 F1 | 	add	_var01, _var07
00f78     03 4A 45 F0 | 	shr	arg01, #3
00f7c     A5 0A 01 F1 | 	add	_var01, arg01
00f80     85 18 41 FC | 	wrbyte	_var08, _var01
00f84                 | LR__0041
00f84                 | _hng025_putpixel1_ret
00f84     2D 00 64 FD | 	ret
00f88                 | 
00f88                 | ' 
00f88                 | ' 
00f88                 | ' pub putpixel2(x,y,c) |byte b
00f88                 | _hng025_putpixel2
00f88                 | ' 
00f88                 | ' 
00f88                 | ' if ((x>=0) & (x<16*cpl) & (y>=0) & (y<lines))
00f88     00 0A 05 F6 | 	mov	_var01, #0
00f8c     00 4A 5D F2 | 	cmps	arg01, #0 wcz
00f90     01 0A 65 36 |  if_ae	neg	_var01, #1
00f94     00 0C 05 F6 | 	mov	_var02, #0
00f98     90 F2 04 F1 | 	add	objptr, #144
00f9c     79 0E 01 FB | 	rdlong	_var03, objptr
00fa0     04 0E 65 F0 | 	shl	_var03, #4
00fa4     87 4A 59 F2 | 	cmps	arg01, _var03 wcz
00fa8     01 0C 65 C6 |  if_b	neg	_var02, #1
00fac     86 0A 01 F5 | 	and	_var01, _var02
00fb0     00 10 05 F6 | 	mov	_var04, #0
00fb4     00 4C 5D F2 | 	cmps	arg02, #0 wcz
00fb8     01 10 65 36 |  if_ae	neg	_var04, #1
00fbc     88 0A 01 F5 | 	and	_var01, _var04
00fc0     00 12 05 F6 | 	mov	_var05, #0
00fc4     04 F2 04 F1 | 	add	objptr, #4
00fc8     79 14 01 FB | 	rdlong	_var06, objptr
00fcc     94 F2 84 F1 | 	sub	objptr, #148
00fd0     8A 4C 59 F2 | 	cmps	arg02, _var06 wcz
00fd4     01 12 65 C6 |  if_b	neg	_var05, #1
00fd8     89 0A C9 F7 | 	test	_var01, _var05 wz
00fdc     90 00 90 AD |  if_e	jmp	#LR__0042
00fe0                 | '     b:=byte[buf_ptr+4*cpl*y+(x>>2)]
00fe0     79 0A 01 FB | 	rdlong	_var01, objptr
00fe4     90 F2 04 F1 | 	add	objptr, #144
00fe8     79 0C 01 FB | 	rdlong	_var02, objptr
00fec     90 F2 84 F1 | 	sub	objptr, #144
00ff0     02 0C 65 F0 | 	shl	_var02, #2
00ff4     A6 0C 01 FD | 	qmul	_var02, arg02
00ff8     18 16 61 FD | 	getqx	_var07
00ffc     8B 0A 01 F1 | 	add	_var01, _var07
01000     A5 10 01 F6 | 	mov	_var04, arg01
01004     02 10 45 F0 | 	shr	_var04, #2
01008     88 0A 01 F1 | 	add	_var01, _var04
0100c     85 18 C1 FA | 	rdbyte	_var08, _var01
01010                 | '     b:=b & !(%11<<((x//4)<<1))
01010     A5 0E 51 F6 | 	abs	_var03, arg01 wc
01014     03 0E 05 F5 | 	and	_var03, #3
01018     87 0E 61 C6 |  if_b	neg	_var03, _var03
0101c     01 0E 65 F0 | 	shl	_var03, #1
01020     03 0C 05 F6 | 	mov	_var02, #3
01024     87 0C 61 F0 | 	shl	_var02, _var03
01028     86 18 21 F5 | 	andn	_var08, _var02
0102c                 | '     b:=b |(c<<((x//4)<<1))
0102c     A5 0E 51 F6 | 	abs	_var03, arg01 wc
01030     03 0E 05 F5 | 	and	_var03, #3
01034     87 0E 61 C6 |  if_b	neg	_var03, _var03
01038     01 0E 65 F0 | 	shl	_var03, #1
0103c     87 4E 61 F0 | 	shl	arg03, _var03
01040     A7 18 41 F5 | 	or	_var08, arg03
01044                 | '     byte[buf_ptr+4*cpl*y+(x>>2)]:=b
01044     79 0A 01 FB | 	rdlong	_var01, objptr
01048     90 F2 04 F1 | 	add	objptr, #144
0104c     79 0C 01 FB | 	rdlong	_var02, objptr
01050     90 F2 84 F1 | 	sub	objptr, #144
01054     02 0C 65 F0 | 	shl	_var02, #2
01058     A6 0C 01 FD | 	qmul	_var02, arg02
0105c     18 16 61 FD | 	getqx	_var07
01060     8B 0A 01 F1 | 	add	_var01, _var07
01064     02 4A 45 F0 | 	shr	arg01, #2
01068     A5 0A 01 F1 | 	add	_var01, arg01
0106c     85 18 41 FC | 	wrbyte	_var08, _var01
01070                 | LR__0042
01070                 | _hng025_putpixel2_ret
01070     2D 00 64 FD | 	ret
01074                 | 
01074                 | ' 
01074                 | ' 
01074                 | ' pub putpixel4(x,y,c) |byte b
01074                 | _hng025_putpixel4
01074                 | ' 
01074                 | ' if ((x>=0) & (x<16*cpl) & (y>=0) & (y<lines))
01074     00 0A 05 F6 | 	mov	_var01, #0
01078     00 4A 5D F2 | 	cmps	arg01, #0 wcz
0107c     01 0A 65 36 |  if_ae	neg	_var01, #1
01080     00 0C 05 F6 | 	mov	_var02, #0
01084     90 F2 04 F1 | 	add	objptr, #144
01088     79 0E 01 FB | 	rdlong	_var03, objptr
0108c     04 0E 65 F0 | 	shl	_var03, #4
01090     87 4A 59 F2 | 	cmps	arg01, _var03 wcz
01094     01 0C 65 C6 |  if_b	neg	_var02, #1
01098     86 0A 01 F5 | 	and	_var01, _var02
0109c     00 10 05 F6 | 	mov	_var04, #0
010a0     00 4C 5D F2 | 	cmps	arg02, #0 wcz
010a4     01 10 65 36 |  if_ae	neg	_var04, #1
010a8     88 0A 01 F5 | 	and	_var01, _var04
010ac     00 12 05 F6 | 	mov	_var05, #0
010b0     04 F2 04 F1 | 	add	objptr, #4
010b4     79 14 01 FB | 	rdlong	_var06, objptr
010b8     94 F2 84 F1 | 	sub	objptr, #148
010bc     8A 4C 59 F2 | 	cmps	arg02, _var06 wcz
010c0     01 12 65 C6 |  if_b	neg	_var05, #1
010c4     89 0A C9 F7 | 	test	_var01, _var05 wz
010c8     90 00 90 AD |  if_e	jmp	#LR__0043
010cc                 | '     b:=byte[buf_ptr+4*cpl*y+(x>>1)]
010cc     79 0A 01 FB | 	rdlong	_var01, objptr
010d0     90 F2 04 F1 | 	add	objptr, #144
010d4     79 0C 01 FB | 	rdlong	_var02, objptr
010d8     90 F2 84 F1 | 	sub	objptr, #144
010dc     02 0C 65 F0 | 	shl	_var02, #2
010e0     A6 0C 01 FD | 	qmul	_var02, arg02
010e4     18 16 61 FD | 	getqx	_var07
010e8     8B 0A 01 F1 | 	add	_var01, _var07
010ec     A5 10 01 F6 | 	mov	_var04, arg01
010f0     01 10 45 F0 | 	shr	_var04, #1
010f4     88 0A 01 F1 | 	add	_var01, _var04
010f8     85 18 C1 FA | 	rdbyte	_var08, _var01
010fc                 | '     b:=b & !(%1111<<((x//2)<<2))
010fc     A5 0E 51 F6 | 	abs	_var03, arg01 wc
01100     01 0E 05 F5 | 	and	_var03, #1
01104     87 0E 61 C6 |  if_b	neg	_var03, _var03
01108     02 0E 65 F0 | 	shl	_var03, #2
0110c     0F 0C 05 F6 | 	mov	_var02, #15
01110     87 0C 61 F0 | 	shl	_var02, _var03
01114     86 18 21 F5 | 	andn	_var08, _var02
01118                 | '     b:=b |(c<<((x//2)<<2))
01118     A5 0E 51 F6 | 	abs	_var03, arg01 wc
0111c     01 0E 05 F5 | 	and	_var03, #1
01120     87 0E 61 C6 |  if_b	neg	_var03, _var03
01124     02 0E 65 F0 | 	shl	_var03, #2
01128     87 4E 61 F0 | 	shl	arg03, _var03
0112c     A7 18 41 F5 | 	or	_var08, arg03
01130                 | '     byte[buf_ptr+4*cpl*y+(x>>1)]:=b
01130     79 0A 01 FB | 	rdlong	_var01, objptr
01134     90 F2 04 F1 | 	add	objptr, #144
01138     79 0C 01 FB | 	rdlong	_var02, objptr
0113c     90 F2 84 F1 | 	sub	objptr, #144
01140     02 0C 65 F0 | 	shl	_var02, #2
01144     A6 0C 01 FD | 	qmul	_var02, arg02
01148     18 16 61 FD | 	getqx	_var07
0114c     8B 0A 01 F1 | 	add	_var01, _var07
01150     01 4A 45 F0 | 	shr	arg01, #1
01154     A5 0A 01 F1 | 	add	_var01, arg01
01158     85 18 41 FC | 	wrbyte	_var08, _var01
0115c                 | LR__0043
0115c                 | _hng025_putpixel4_ret
0115c     2D 00 64 FD | 	ret
01160                 | 
01160                 | ' 
01160                 | ' 
01160                 | ' pub putpixel8(x,y,c)
01160                 | _hng025_putpixel8
01160                 | ' 
01160                 | ' if ((x>=0) & (x<4*cpl) & (y>=0) & (y<lines))
01160     00 0A 05 F6 | 	mov	_var01, #0
01164     00 4A 5D F2 | 	cmps	arg01, #0 wcz
01168     01 0A 65 36 |  if_ae	neg	_var01, #1
0116c     00 0C 05 F6 | 	mov	_var02, #0
01170     90 F2 04 F1 | 	add	objptr, #144
01174     79 0E 01 FB | 	rdlong	_var03, objptr
01178     02 0E 65 F0 | 	shl	_var03, #2
0117c     87 4A 59 F2 | 	cmps	arg01, _var03 wcz
01180     01 0C 65 C6 |  if_b	neg	_var02, #1
01184     86 0A 01 F5 | 	and	_var01, _var02
01188     00 10 05 F6 | 	mov	_var04, #0
0118c     00 4C 5D F2 | 	cmps	arg02, #0 wcz
01190     01 10 65 36 |  if_ae	neg	_var04, #1
01194     88 0A 01 F5 | 	and	_var01, _var04
01198     00 12 05 F6 | 	mov	_var05, #0
0119c     04 F2 04 F1 | 	add	objptr, #4
011a0     79 14 01 FB | 	rdlong	_var06, objptr
011a4     94 F2 84 F1 | 	sub	objptr, #148
011a8     8A 4C 59 F2 | 	cmps	arg02, _var06 wcz
011ac     01 12 65 C6 |  if_b	neg	_var05, #1
011b0     89 0A C9 F7 | 	test	_var01, _var05 wz
011b4     28 00 90 AD |  if_e	jmp	#LR__0044
011b8                 | '     byte[buf_ptr+4*cpl*y+x]:=c
011b8     79 0A 01 FB | 	rdlong	_var01, objptr
011bc     90 F2 04 F1 | 	add	objptr, #144
011c0     79 0C 01 FB | 	rdlong	_var02, objptr
011c4     90 F2 84 F1 | 	sub	objptr, #144
011c8     02 0C 65 F0 | 	shl	_var02, #2
011cc     A6 0C 01 FD | 	qmul	_var02, arg02
011d0     18 16 61 FD | 	getqx	_var07
011d4     8B 0A 01 F1 | 	add	_var01, _var07
011d8     A5 0A 01 F1 | 	add	_var01, arg01
011dc     85 4E 41 FC | 	wrbyte	arg03, _var01
011e0                 | LR__0044
011e0                 | _hng025_putpixel8_ret
011e0     2D 00 64 FD | 	ret
011e4                 | 
011e4                 | ' 
011e4                 | ' '*************************************************************************
011e4                 | ' '                                                                        *
011e4                 | ' '  VBlank functions                                                      *
011e4                 | ' '                                                                        *
011e4                 | ' '*************************************************************************
011e4                 | ' 
011e4                 | ' pub waitvbl(amount) | i
011e4                 | _hng025_waitvbl
011e4     04 88 04 F6 | 	mov	COUNT_, #4
011e8     4B 00 A0 FD | 	call	#pushregs_
011ec     A5 54 01 F6 | 	mov	local01, arg01
011f0                 | ' 
011f0                 | ' ''---------- Wait for start of vblank. Amount=delay in frames
011f0                 | ' 
011f0                 | ' repeat i from 1 to amount
011f0     01 56 05 F6 | 	mov	local02, #1
011f4     01 54 5D F2 | 	cmps	local01, #1 wcz
011f8     01 58 05 16 |  if_a	mov	local03, #1
011fc     01 58 65 E6 |  if_be	neg	local03, #1
01200     AC 54 01 F1 | 	add	local01, local03
01204                 | LR__0045
01204                 | '   repeat until vblank==0
01204                 | LR__0046
01204     40 F2 04 F1 | 	add	objptr, #64
01208     79 5A 09 FB | 	rdlong	local04, objptr wz
0120c     40 F2 84 F1 | 	sub	objptr, #64
01210     0C 00 90 AD |  if_e	jmp	#LR__0047
01214                 | '     waitus(100)
01214     64 4A 05 F6 | 	mov	arg01, #100
01218     8C 11 B0 FD | 	call	#__system___waitus
0121c     E4 FF 9F FD | 	jmp	#LR__0046
01220                 | LR__0047
01220                 | '   repeat until vblank==1
01220                 | LR__0048
01220     40 F2 04 F1 | 	add	objptr, #64
01224     79 5A 01 FB | 	rdlong	local04, objptr
01228     40 F2 84 F1 | 	sub	objptr, #64
0122c     01 5A 0D F2 | 	cmp	local04, #1 wz
01230     0C 00 90 AD |  if_e	jmp	#LR__0049
01234                 | '     waitus(100)
01234     64 4A 05 F6 | 	mov	arg01, #100
01238     6C 11 B0 FD | 	call	#__system___waitus
0123c     E0 FF 9F FD | 	jmp	#LR__0048
01240                 | LR__0049
01240     AC 56 01 F1 | 	add	local02, local03
01244     AA 56 09 F2 | 	cmp	local02, local01 wz
01248     B8 FF 9F 5D |  if_ne	jmp	#LR__0045
0124c     46 F0 03 F6 | 	mov	ptra, fp
01250     5A 00 A0 FD | 	call	#popregs_
01254                 | _hng025_waitvbl_ret
01254     2D 00 64 FD | 	ret
01258                 | 
01258                 | ' 
01258                 | ' ''---------- Set the border color, o is upper border, lines+1 is lower border
01258                 | ' 
01258                 | ' pub setbordercolor(r,g,b) | color
01258                 | _hng025_setbordercolor
01258                 | ' 
01258                 | ' color:=r<<24+g<<16+b<<8
01258     18 4A 65 F0 | 	shl	arg01, #24
0125c     10 4C 65 F0 | 	shl	arg02, #16
01260     A6 4A 01 F1 | 	add	arg01, arg02
01264     08 4E 65 F0 | 	shl	arg03, #8
01268     A7 4A 01 F1 | 	add	arg01, arg03
0126c                 | ' bordercolor:=color
0126c     2C F2 04 F1 | 	add	objptr, #44
01270     79 4A 61 FC | 	wrlong	arg01, objptr
01274     2C F2 84 F1 | 	sub	objptr, #44
01278                 | _hng025_setbordercolor_ret
01278     2D 00 64 FD | 	ret
0127c                 | 
0127c                 | ' 
0127c                 | ' 
0127c                 | ' '*************************************************************************
0127c                 | ' '                                                                        *
0127c                 | ' '  Text functions                                                        *
0127c                 | ' '                                                                        *
0127c                 | ' '*************************************************************************
0127c                 | ' 
0127c                 | ' ''---------- Clear the screen, set its foreground/background color
0127c                 | ' 
0127c                 | ' pub cls(fc,bc)   :c
0127c                 | _hng025_cls
0127c     06 88 04 F6 | 	mov	COUNT_, #6
01280     4B 00 A0 FD | 	call	#pushregs_
01284     A5 54 01 F6 | 	mov	local01, arg01
01288     A6 56 01 F6 | 	mov	local02, arg02
0128c                 | ' 
0128c                 | ' if (graphmode<512)
0128c     C4 F2 04 F1 | 	add	objptr, #196
01290     79 58 01 FB | 	rdlong	local03, objptr
01294     C4 F2 84 F1 | 	sub	objptr, #196
01298     01 00 00 FF 
0129c     00 58 5D F2 | 	cmps	local03, ##512 wcz
012a0     48 00 90 3D |  if_ae	jmp	#LR__0054
012a4                 | '   c:=fc<<24+bc<<16+$20
012a4     AA 5A 01 F6 | 	mov	local04, local01
012a8     18 5A 65 F0 | 	shl	local04, #24
012ac     AB 5C 01 F6 | 	mov	local05, local02
012b0     10 5C 65 F0 | 	shl	local05, #16
012b4     AE 5A 01 F1 | 	add	local04, local05
012b8     20 5A 05 F1 | 	add	local04, #32
012bc                 | '   longfill(buf_ptr,c,buflen)
012bc     79 4A 01 FB | 	rdlong	arg01, objptr
012c0     30 F2 04 F1 | 	add	objptr, #48
012c4     79 4E 09 FB | 	rdlong	arg03, objptr wz
012c8     30 F2 84 F1 | 	sub	objptr, #48
012cc     AD 4C 01 F6 | 	mov	arg02, local04
012d0     C4 00 90 AD |  if_e	jmp	#LR__0060
012d4     34 ED 9F FE | 	loc	pa,	#(@LR__0052-@LR__0050)
012d8     35 00 A0 FD | 	call	#FCACHE_LOAD_
012dc                 | LR__0050
012dc     A7 04 D8 FC | 	rep	@LR__0053, arg03
012e0                 | LR__0051
012e0     A5 4C 61 FC | 	wrlong	arg02, arg01
012e4     04 4A 05 F1 | 	add	arg01, #4
012e8                 | LR__0052
012e8                 | LR__0053
012e8                 | ' else
012e8     AC 00 90 FD | 	jmp	#LR__0060
012ec                 | LR__0054
012ec                 | '   if (graphmode & 48) ==48
012ec     C4 F2 04 F1 | 	add	objptr, #196
012f0     79 58 01 FB | 	rdlong	local03, objptr
012f4     C4 F2 84 F1 | 	sub	objptr, #196
012f8     30 58 05 F5 | 	and	local03, #48
012fc     30 58 0D F2 | 	cmp	local03, #48 wz
01300                 | '     c:=bc
01300     AB 5A 01 A6 |  if_e	mov	local04, local02
01304     74 00 90 AD |  if_e	jmp	#LR__0059
01308                 | '   elseif (graphmode & 48) ==32
01308     C4 F2 04 F1 | 	add	objptr, #196
0130c     79 58 01 FB | 	rdlong	local03, objptr
01310     C4 F2 84 F1 | 	sub	objptr, #196
01314     30 58 05 F5 | 	and	local03, #48
01318     20 58 0D F2 | 	cmp	local03, #32 wz
0131c     10 00 90 5D |  if_ne	jmp	#LR__0055
01320                 | '     c:=bc<<4+bc
01320     AB 5A 01 F6 | 	mov	local04, local02
01324     04 5A 65 F0 | 	shl	local04, #4
01328     AB 5A 01 F1 | 	add	local04, local02
0132c     4C 00 90 FD | 	jmp	#LR__0058
01330                 | LR__0055
01330                 | '   elseif (graphmode & 48) ==16
01330     C4 F2 04 F1 | 	add	objptr, #196
01334     79 58 01 FB | 	rdlong	local03, objptr
01338     C4 F2 84 F1 | 	sub	objptr, #196
0133c     30 58 05 F5 | 	and	local03, #48
01340     10 58 0D F2 | 	cmp	local03, #16 wz
01344     28 00 90 5D |  if_ne	jmp	#LR__0056
01348                 | '     c:=bc<<6+bc<<4+bc<<2+bc
01348     AB 5A 01 F6 | 	mov	local04, local02
0134c     06 5A 65 F0 | 	shl	local04, #6
01350     AB 5C 01 F6 | 	mov	local05, local02
01354     04 5C 65 F0 | 	shl	local05, #4
01358     AE 5A 01 F1 | 	add	local04, local05
0135c     AB 5E 01 F6 | 	mov	local06, local02
01360     02 5E 65 F0 | 	shl	local06, #2
01364     AF 5A 01 F1 | 	add	local04, local06
01368     AB 5A 01 F1 | 	add	local04, local02
0136c                 | '   else
0136c     0C 00 90 FD | 	jmp	#LR__0057
01370                 | LR__0056
01370                 | '     if bc==1
01370     01 56 0D F2 | 	cmp	local02, #1 wz
01374                 | '       c:=255
01374     FF 5A 05 A6 |  if_e	mov	local04, #255
01378                 | '     else
01378                 | '       c:=0
01378     00 5A 05 56 |  if_ne	mov	local04, #0
0137c                 | LR__0057
0137c                 | LR__0058
0137c                 | LR__0059
0137c                 | '   bytefill(buf_ptr,c,buflen*4)
0137c     79 4A 01 FB | 	rdlong	arg01, objptr
01380     30 F2 04 F1 | 	add	objptr, #48
01384     79 4E 01 FB | 	rdlong	arg03, objptr
01388     30 F2 84 F1 | 	sub	objptr, #48
0138c     02 4E 65 F0 | 	shl	arg03, #2
01390     AD 4C 01 F6 | 	mov	arg02, local04
01394     48 0D B0 FD | 	call	#__system__bytefill
01398                 | LR__0060
01398                 | ' setwritecolors(fc,bc)
01398                 | ' 
01398                 | ' 
01398                 | ' write_color:=ff
01398     38 F2 04 F1 | 	add	objptr, #56
0139c     79 54 61 FC | 	wrlong	local01, objptr
013a0                 | ' write_background:=bb
013a0     04 F2 04 F1 | 	add	objptr, #4
013a4     79 56 61 FC | 	wrlong	local02, objptr
013a8                 | ' cursor_x:=0
013a8     08 F2 84 F1 | 	sub	objptr, #8
013ac     79 00 48 FC | 	wrbyte	#0, objptr
013b0                 | ' cursor_y:=0
013b0     01 F2 04 F1 | 	add	objptr, #1
013b4     79 00 48 FC | 	wrbyte	#0, objptr
013b8     35 F2 84 F1 | 	sub	objptr, #53
013bc     AD 04 01 F6 | 	mov	result1, local04
013c0     46 F0 03 F6 | 	mov	ptra, fp
013c4     5A 00 A0 FD | 	call	#popregs_
013c8                 | _hng025_cls_ret
013c8     2D 00 64 FD | 	ret
013cc                 | 
013cc                 | ' 
013cc                 | ' 
013cc                 | ' '*************************************************************************
013cc                 | ' '                                                                        *
013cc                 | ' '  Conversions                                                           *
013cc                 | ' '                                                                        *
013cc                 | ' '*************************************************************************
013cc                 | ' 
013cc                 | ' ''---------- Convert a integer to dec string, return a pointer
013cc                 | ' 
013cc                 | ' pub inttostr(i):result |q,pos,k,j
013cc                 | _hng025_inttostr
013cc     06 88 04 F6 | 	mov	COUNT_, #6
013d0     4B 00 A0 FD | 	call	#pushregs_
013d4     A5 54 01 F6 | 	mov	local01, arg01
013d8                 | ' 
013d8                 | ' j:=i
013d8     AA 56 09 F6 | 	mov	local02, local01 wz
013dc                 | ' pos:=10
013dc     0A 58 05 F6 | 	mov	local03, #10
013e0                 | ' k:=0
013e0     00 5A 05 F6 | 	mov	local04, #0
013e4                 | ' 
013e4                 | ' if (j==0)
013e4     18 00 90 5D |  if_ne	jmp	#LR__0061
013e8                 | '   n_string[0]:=48
013e8     44 F2 04 F1 | 	add	objptr, #68
013ec     79 60 48 FC | 	wrbyte	#48, objptr
013f0                 | '   n_string[1]:=0
013f0     01 F2 04 F1 | 	add	objptr, #1
013f4     79 00 48 FC | 	wrbyte	#0, objptr
013f8     45 F2 84 F1 | 	sub	objptr, #69
013fc                 | ' 
013fc                 | ' else
013fc     C4 00 90 FD | 	jmp	#LR__0068
01400                 | LR__0061
01400                 | '   if (j<0)
01400     00 56 5D F2 | 	cmps	local02, #0 wcz
01404                 | '     j:=0-j
01404     AB 56 61 C6 |  if_b	neg	local02, local02
01408                 | '     k:=45
01408     2D 5A 05 C6 |  if_b	mov	local04, #45
0140c                 | ' 
0140c                 | '   n_string[11]:=0
0140c     4F F2 04 F1 | 	add	objptr, #79
01410     79 00 48 FC | 	wrbyte	#0, objptr
01414     4F F2 84 F1 | 	sub	objptr, #79
01418     24 EC 9F FE | 	loc	pa,	#(@LR__0063-@LR__0062)
0141c     35 00 A0 FD | 	call	#FCACHE_LOAD_
01420                 | '   repeat while (pos>-1)
01420                 | LR__0062
01420     FF FF 7F FF 
01424     FF 59 5D F2 | 	cmps	local03, ##-1 wcz
01428     34 00 90 ED |  if_be	jmp	#LR__0064
0142c                 | '     q:=j//10
0142c     AB 70 01 F6 | 	mov	muldiva_, local02
01430     0A 72 05 F6 | 	mov	muldivb_, #10
01434     6B 00 A0 FD | 	call	#divide_
01438                 | '     q:=48+q
01438     30 5C 05 F6 | 	mov	local05, #48
0143c     B8 5C 01 F1 | 	add	local05, muldiva_
01440                 | '     n_string[pos]:=q
01440     AC 5E 01 F6 | 	mov	local06, local03
01444     44 F2 04 F1 | 	add	objptr, #68
01448     79 5E 01 F1 | 	add	local06, objptr
0144c     AF 5C 41 FC | 	wrbyte	local05, local06
01450                 | '     j:=j/10
01450     B9 56 01 F6 | 	mov	local02, muldivb_
01454                 | '     pos-=1
01454     01 58 85 F1 | 	sub	local03, #1
01458     44 F2 84 F1 | 	sub	objptr, #68
0145c     C0 FF 9F FD | 	jmp	#LR__0062
01460                 | LR__0063
01460                 | LR__0064
01460                 | '   repeat while n_string[0]==48
01460                 | LR__0065
01460     44 F2 04 F1 | 	add	objptr, #68
01464     79 5E C1 FA | 	rdbyte	local06, objptr
01468     44 F2 84 F1 | 	sub	objptr, #68
0146c     30 5E 0D F2 | 	cmp	local06, #48 wz
01470     20 00 90 5D |  if_ne	jmp	#LR__0066
01474                 | '     bytemove(@n_string,@n_string+1,12)
01474     44 F2 04 F1 | 	add	objptr, #68
01478     79 4A 01 F6 | 	mov	arg01, objptr
0147c     79 4C 01 F6 | 	mov	arg02, objptr
01480     44 F2 84 F1 | 	sub	objptr, #68
01484     01 4C 05 F1 | 	add	arg02, #1
01488     0C 4E 05 F6 | 	mov	arg03, #12
0148c     A8 0C B0 FD | 	call	#__system__bytemove
01490     CC FF 9F FD | 	jmp	#LR__0065
01494                 | LR__0066
01494                 | ' 
01494                 | '   if k==45
01494     2D 5A 0D F2 | 	cmp	local04, #45 wz
01498     28 00 90 5D |  if_ne	jmp	#LR__0067
0149c                 | '      bytemove(@n_string+1,@n_string,12)
0149c     44 F2 04 F1 | 	add	objptr, #68
014a0     79 4A 01 F6 | 	mov	arg01, objptr
014a4     01 4A 05 F1 | 	add	arg01, #1
014a8     79 4C 01 F6 | 	mov	arg02, objptr
014ac     44 F2 84 F1 | 	sub	objptr, #68
014b0     0C 4E 05 F6 | 	mov	arg03, #12
014b4     80 0C B0 FD | 	call	#__system__bytemove
014b8                 | '      n_string[0]:=k
014b8     44 F2 04 F1 | 	add	objptr, #68
014bc     79 5A 41 FC | 	wrbyte	local04, objptr
014c0     44 F2 84 F1 | 	sub	objptr, #68
014c4                 | LR__0067
014c4                 | LR__0068
014c4                 | ' 
014c4                 | ' q:=@n_string
014c4     44 F2 04 F1 | 	add	objptr, #68
014c8     79 04 01 F6 | 	mov	result1, objptr
014cc     44 F2 84 F1 | 	sub	objptr, #68
014d0                 | ' return q
014d0     46 F0 03 F6 | 	mov	ptra, fp
014d4     5A 00 A0 FD | 	call	#popregs_
014d8                 | _hng025_inttostr_ret
014d8     2D 00 64 FD | 	ret
014dc                 | 
014dc                 | ' 
014dc                 | ' 
014dc                 | ' 
014dc                 | ' '*************************************************************************
014dc                 | ' '                                                                        *
014dc                 | ' '  Mode setting and driver start                                                          *
014dc                 | ' '                                                                        *
014dc                 | ' '*************************************************************************
014dc                 | ' 
014dc                 | ' ''---------  Set the graphics mode
014dc                 | ' 
014dc                 | ' 
014dc                 | ' 
014dc                 | ' pub setmode(mode) | i', 'xzoom, yzoom, azoom
014dc                 | _hng025_setmode
014dc     0A 88 04 F6 | 	mov	COUNT_, #10
014e0     4B 00 A0 FD | 	call	#pushregs_
014e4     A5 54 01 F6 | 	mov	local01, arg01
014e8                 | ' 
014e8                 | ' '' mode:tn_bb_cc_vv_hh
014e8                 | ' '' hh - h.zoom, vv-v.zoom, cc-c.depth,
014e8                 | ' '' bb - borders/total pixels, 00-wide/1140, 01 medium/1026, 10 narrow/912, 11 no border, 1024 px PAL, 880 px NTSC
014e8                 | ' 
014e8                 | ' if mode==(512+192+48)
014e8     01 00 00 FF 
014ec     F0 54 0D F2 | 	cmp	local01, ##752 wz
014f0                 | '   return 'no RAM
014f0     A0 05 90 AD |  if_e	jmp	#LR__0090
014f4                 | ' 
014f4                 | ' case_fast (mode>>6) & 7 ' timings are the same for graphic and text
014f4     AA 56 01 F6 | 	mov	local02, local01
014f8     06 56 45 F0 | 	shr	local02, #6
014fc     07 56 05 F5 | 	and	local02, #7
01500     08 56 25 F3 | 	fle	local02, #8
01504     AB 58 01 F6 | 	mov	local03, local02
01508     30 58 61 FD | 	jmprel	local03
0150c                 | LR__0069
0150c     20 00 90 FD | 	jmp	#LR__0070
01510     48 00 90 FD | 	jmp	#LR__0071
01514     70 00 90 FD | 	jmp	#LR__0072
01518     98 00 90 FD | 	jmp	#LR__0073
0151c     C0 00 90 FD | 	jmp	#LR__0074
01520     E8 00 90 FD | 	jmp	#LR__0075
01524     10 01 90 FD | 	jmp	#LR__0076
01528     38 01 90 FD | 	jmp	#LR__0077
0152c     70 01 90 FD | 	jmp	#LR__0078
01530                 | LR__0070
01530                 | ' 
01530                 | '     0:  longmove(@timings,@timings000,16)   'PAL 50 Hz signaling 1140x624, active 800x480, 100x30 text, wide border, 2 colors per pixel, 00_00_00_00_00=0, 354_693_878 Hz
01530     50 F2 04 F1 | 	add	objptr, #80
01534     79 4A 01 F6 | 	mov	arg01, objptr
01538     50 F2 84 F1 | 	sub	objptr, #80
0153c     0E 00 00 FF 
01540     58 F8 04 F1 | 	add	ptr__hng025_dat__, ##7256
01544     7C 4C 01 F6 | 	mov	arg02, ptr__hng025_dat__
01548     0E 00 00 FF 
0154c     58 F8 84 F1 | 	sub	ptr__hng025_dat__, ##7256
01550     10 4E 05 F6 | 	mov	arg03, #16
01554     70 0C B0 FD | 	call	#__system__longmove
01558     44 01 90 FD | 	jmp	#LR__0078
0155c                 | LR__0071
0155c                 | '     1:  longmove(@timings,@timings064,16)   'PAL 50 Hz signaling 1026x624, active 880x496, 110x31 text, medium border, 2 colors per pixel 00_01_00_00_00=64, 319_215_686 Hz
0155c     50 F2 04 F1 | 	add	objptr, #80
01560     79 4A 01 F6 | 	mov	arg01, objptr
01564     50 F2 84 F1 | 	sub	objptr, #80
01568     0E 00 00 FF 
0156c     98 F8 04 F1 | 	add	ptr__hng025_dat__, ##7320
01570     7C 4C 01 F6 | 	mov	arg02, ptr__hng025_dat__
01574     0E 00 00 FF 
01578     98 F8 84 F1 | 	sub	ptr__hng025_dat__, ##7320
0157c     10 4E 05 F6 | 	mov	arg03, #16
01580     44 0C B0 FD | 	call	#__system__longmove
01584     18 01 90 FD | 	jmp	#LR__0078
01588                 | LR__0072
01588                 | '     2:  longmove(@timings,@timings128,16)   'PAL 50 Hz signaling 912x624, active 800x480, 100x30 text, medium border, 2 colors per pixel 00_10_00_00_00=64, 283750000z
01588     50 F2 04 F1 | 	add	objptr, #80
0158c     79 4A 01 F6 | 	mov	arg01, objptr
01590     50 F2 84 F1 | 	sub	objptr, #80
01594     0E 00 00 FF 
01598     D8 F8 04 F1 | 	add	ptr__hng025_dat__, ##7384
0159c     7C 4C 01 F6 | 	mov	arg02, ptr__hng025_dat__
015a0     0E 00 00 FF 
015a4     D8 F8 84 F1 | 	sub	ptr__hng025_dat__, ##7384
015a8     10 4E 05 F6 | 	mov	arg03, #16
015ac     18 0C B0 FD | 	call	#__system__longmove
015b0     EC 00 90 FD | 	jmp	#LR__0078
015b4                 | LR__0073
015b4                 | '     3:  longmove(@timings,@timings192,16)   'PAL 50 Hz signaling 1140x624, active 1024x576, 128x36 text, borderless, 2 colors per pixel 00_11_00_00_00=6192, 354_693_878 Hz
015b4     50 F2 04 F1 | 	add	objptr, #80
015b8     79 4A 01 F6 | 	mov	arg01, objptr
015bc     50 F2 84 F1 | 	sub	objptr, #80
015c0     0E 00 00 FF 
015c4     18 F9 04 F1 | 	add	ptr__hng025_dat__, ##7448
015c8     7C 4C 01 F6 | 	mov	arg02, ptr__hng025_dat__
015cc     0E 00 00 FF 
015d0     18 F9 84 F1 | 	sub	ptr__hng025_dat__, ##7448
015d4     10 4E 05 F6 | 	mov	arg03, #16
015d8     EC 0B B0 FD | 	call	#__system__longmove
015dc     C0 00 90 FD | 	jmp	#LR__0078
015e0                 | LR__0074
015e0                 | '     4:  longmove(@timings,@timings256,16)   'NTSC 50 Hz signaling 1140x524, active 800x480, 100x30 text, NO PLACE FOR wide border, 2 colors per pixel, 01_00_00_00_00=256, 357959184 Hz
015e0     50 F2 04 F1 | 	add	objptr, #80
015e4     79 4A 01 F6 | 	mov	arg01, objptr
015e8     50 F2 84 F1 | 	sub	objptr, #80
015ec     0E 00 00 FF 
015f0     58 F9 04 F1 | 	add	ptr__hng025_dat__, ##7512
015f4     7C 4C 01 F6 | 	mov	arg02, ptr__hng025_dat__
015f8     0E 00 00 FF 
015fc     58 F9 84 F1 | 	sub	ptr__hng025_dat__, ##7512
01600     10 4E 05 F6 | 	mov	arg03, #16
01604     C0 0B B0 FD | 	call	#__system__longmove
01608     94 00 90 FD | 	jmp	#LR__0078
0160c                 | LR__0075
0160c                 | '     5:  longmove(@timings,@timings320,16)   'NTSC 50 Hz signaling 1026x524, active 800x480, 100x30 text, NO PLACE FOR wide border, 2 colors per pixel, 01_01_00_00_00=320, 322162162 Hz
0160c     50 F2 04 F1 | 	add	objptr, #80
01610     79 4A 01 F6 | 	mov	arg01, objptr
01614     50 F2 84 F1 | 	sub	objptr, #80
01618     0E 00 00 FF 
0161c     98 F9 04 F1 | 	add	ptr__hng025_dat__, ##7576
01620     7C 4C 01 F6 | 	mov	arg02, ptr__hng025_dat__
01624     0E 00 00 FF 
01628     98 F9 84 F1 | 	sub	ptr__hng025_dat__, ##7576
0162c     10 4E 05 F6 | 	mov	arg03, #16
01630     94 0B B0 FD | 	call	#__system__longmove
01634     68 00 90 FD | 	jmp	#LR__0078
01638                 | LR__0076
01638                 | '     6:  longmove(@timings,@timings384,16)   'NTSC 50 Hz signaling 912x524, active 800x480, 100x30 text, NO PLACE FOR wide border, 2 colors per pixel, 01_10_00_00_00=384, 286363636 Hz
01638     50 F2 04 F1 | 	add	objptr, #80
0163c     79 4A 01 F6 | 	mov	arg01, objptr
01640     50 F2 84 F1 | 	sub	objptr, #80
01644     0E 00 00 FF 
01648     D8 F9 04 F1 | 	add	ptr__hng025_dat__, ##7640
0164c     7C 4C 01 F6 | 	mov	arg02, ptr__hng025_dat__
01650     0E 00 00 FF 
01654     D8 F9 84 F1 | 	sub	ptr__hng025_dat__, ##7640
01658     10 4E 05 F6 | 	mov	arg03, #16
0165c     68 0B B0 FD | 	call	#__system__longmove
01660     3C 00 90 FD | 	jmp	#LR__0078
01664                 | LR__0077
01664                 | '     7:  longmove(@timings,@timings448,16)   'NTSC 50 Hz signaling 1026x524, active 880x496, 110x31 text, borderless, 2 colors per pixel, 01_11_00_00_00=496, 322162162 Hz
01664     50 F2 04 F1 | 	add	objptr, #80
01668     79 5A 01 F6 | 	mov	local04, objptr
0166c     AD 5C 01 F6 | 	mov	local05, local04
01670     0F 00 00 FF 
01674     18 F8 04 F1 | 	add	ptr__hng025_dat__, ##7704
01678     7C 5E 01 F6 | 	mov	local06, ptr__hng025_dat__
0167c     AF 60 01 F6 | 	mov	local07, local06
01680     10 62 05 F6 | 	mov	local08, #16
01684     AE 4A 01 F6 | 	mov	arg01, local05
01688     B0 4C 01 F6 | 	mov	arg02, local07
0168c     10 4E 05 F6 | 	mov	arg03, #16
01690     50 F2 84 F1 | 	sub	objptr, #80
01694     0F 00 00 FF 
01698     18 F8 84 F1 | 	sub	ptr__hng025_dat__, ##7704
0169c     28 0B B0 FD | 	call	#__system__longmove
016a0                 | LR__0078
016a0                 | ' 
016a0                 | ' ' 4-bit graphics: do nothing with timings :)
016a0                 | ' 
016a0                 | ' if (mode & (%10_00_11_0000))==(%10_00_11_0000) ' 8bit graphics, 4 pixels per long instead of 8, cpp x2
016a0     AA 56 01 F6 | 	mov	local02, local01
016a4     01 00 00 FF 
016a8     30 56 05 F5 | 	and	local02, ##560
016ac     01 00 00 FF 
016b0     30 56 0D F2 | 	cmp	local02, ##560 wz
016b4     44 00 90 5D |  if_ne	jmp	#LR__0079
016b8                 | '   timings[5]:=4
016b8     64 F2 04 F1 | 	add	objptr, #100
016bc     79 08 68 FC | 	wrlong	#4, objptr
016c0                 | '   timings[11]:=timings[11]<<1
016c0     18 F2 04 F1 | 	add	objptr, #24
016c4     79 56 01 FB | 	rdlong	local02, objptr
016c8     01 56 65 F0 | 	shl	local02, #1
016cc     79 56 61 FC | 	wrlong	local02, objptr
016d0                 | '   putpixel:=p8
016d0     6C F2 04 F1 | 	add	objptr, #108
016d4     79 56 01 FB | 	rdlong	local02, objptr
016d8     10 F2 84 F1 | 	sub	objptr, #16
016dc     79 56 61 FC | 	wrlong	local02, objptr
016e0                 | '   palette_ptr:=@ataripalette
016e0     0C 00 00 FF 
016e4     58 F8 04 F1 | 	add	ptr__hng025_dat__, ##6232
016e8     C0 F2 84 F1 | 	sub	objptr, #192
016ec     79 F8 60 FC | 	wrlong	ptr__hng025_dat__, objptr
016f0     18 F2 84 F1 | 	sub	objptr, #24
016f4     0C 00 00 FF 
016f8     58 F8 84 F1 | 	sub	ptr__hng025_dat__, ##6232
016fc                 | LR__0079
016fc                 | ' 
016fc                 | ' if (mode & (%10_00_11_0000))==(%10_00_01_0000) ' 2bit graphics, 16 pixels per long instead of 8, cpp /2
016fc     AA 56 01 F6 | 	mov	local02, local01
01700     01 00 00 FF 
01704     30 56 05 F5 | 	and	local02, ##560
01708     01 00 00 FF 
0170c     10 56 0D F2 | 	cmp	local02, ##528 wz
01710     44 00 90 5D |  if_ne	jmp	#LR__0080
01714                 | '   timings[5]:=16
01714     64 F2 04 F1 | 	add	objptr, #100
01718     79 20 68 FC | 	wrlong	#16, objptr
0171c                 | '   timings[11]:=timings[11]>>1
0171c     18 F2 04 F1 | 	add	objptr, #24
01720     79 56 01 FB | 	rdlong	local02, objptr
01724     01 56 45 F0 | 	shr	local02, #1
01728     79 56 61 FC | 	wrlong	local02, objptr
0172c                 | '   putpixel:=p2
0172c     64 F2 04 F1 | 	add	objptr, #100
01730     79 56 01 FB | 	rdlong	local02, objptr
01734     08 F2 84 F1 | 	sub	objptr, #8
01738     79 56 61 FC | 	wrlong	local02, objptr
0173c                 | '   palette_ptr:=@fourcolors
0173c     0C 00 00 FF 
01740     08 F8 04 F1 | 	add	ptr__hng025_dat__, ##6152
01744     C0 F2 84 F1 | 	sub	objptr, #192
01748     79 F8 60 FC | 	wrlong	ptr__hng025_dat__, objptr
0174c     18 F2 84 F1 | 	sub	objptr, #24
01750     0C 00 00 FF 
01754     08 F8 84 F1 | 	sub	ptr__hng025_dat__, ##6152
01758                 | LR__0080
01758                 | ' 
01758                 | ' if (mode & (%10_00_11_0000))==(%10_00_00_0000) ' 1bit graphics, 32 pixels per long instead of 8, cpp /4
01758     AA 56 01 F6 | 	mov	local02, local01
0175c     01 00 00 FF 
01760     30 56 05 F5 | 	and	local02, ##560
01764     01 00 00 FF 
01768     00 56 0D F2 | 	cmp	local02, ##512 wz
0176c     44 00 90 5D |  if_ne	jmp	#LR__0081
01770                 | '   timings[5]:=32
01770     64 F2 04 F1 | 	add	objptr, #100
01774     79 40 68 FC | 	wrlong	#32, objptr
01778                 | '   timings[11]:=timings[11]>>2
01778     18 F2 04 F1 | 	add	objptr, #24
0177c     79 56 01 FB | 	rdlong	local02, objptr
01780     02 56 45 F0 | 	shr	local02, #2
01784     79 56 61 FC | 	wrlong	local02, objptr
01788                 | '   putpixel:=p1
01788     60 F2 04 F1 | 	add	objptr, #96
0178c     79 56 01 FB | 	rdlong	local02, objptr
01790     04 F2 84 F1 | 	sub	objptr, #4
01794     79 56 61 FC | 	wrlong	local02, objptr
01798                 | '   palette_ptr:=@twocolors
01798     0C 00 00 FF 
0179c     00 F8 04 F1 | 	add	ptr__hng025_dat__, ##6144
017a0     C0 F2 84 F1 | 	sub	objptr, #192
017a4     79 F8 60 FC | 	wrlong	ptr__hng025_dat__, objptr
017a8     18 F2 84 F1 | 	sub	objptr, #24
017ac     0C 00 00 FF 
017b0     00 F8 84 F1 | 	sub	ptr__hng025_dat__, ##6144
017b4                 | LR__0081
017b4                 | ' 
017b4                 | ' if (mode & (%10_00_11_0000))==(%10_00_10_0000) ' 4bit graphics,
017b4     AA 56 01 F6 | 	mov	local02, local01
017b8     01 00 00 FF 
017bc     30 56 05 F5 | 	and	local02, ##560
017c0     01 00 00 FF 
017c4     20 56 0D F2 | 	cmp	local02, ##544 wz
017c8     2C 00 90 5D |  if_ne	jmp	#LR__0082
017cc                 | '   putpixel:=p4
017cc     E4 F2 04 F1 | 	add	objptr, #228
017d0     79 56 01 FB | 	rdlong	local02, objptr
017d4     0C F2 84 F1 | 	sub	objptr, #12
017d8     79 56 61 FC | 	wrlong	local02, objptr
017dc                 | '   palette_ptr:=@vga16
017dc     0C 00 00 FF 
017e0     18 F8 04 F1 | 	add	ptr__hng025_dat__, ##6168
017e4     C0 F2 84 F1 | 	sub	objptr, #192
017e8     79 F8 60 FC | 	wrlong	ptr__hng025_dat__, objptr
017ec     18 F2 84 F1 | 	sub	objptr, #24
017f0     0C 00 00 FF 
017f4     18 F8 84 F1 | 	sub	ptr__hng025_dat__, ##6168
017f8                 | LR__0082
017f8                 | ' 
017f8                 | ' repeat i from 0 to 4
017f8     00 64 05 F6 | 	mov	local09, #0
017fc     5C E8 9F FE | 	loc	pa,	#(@LR__0084-@LR__0083)
01800     35 00 A0 FD | 	call	#FCACHE_LOAD_
01804                 | LR__0083
01804                 | '   timings[i]:=timings[i]+hdmibase<<17+ timingsxxt
01804     B2 5A 01 F6 | 	mov	local04, local09
01808     02 5A 65 F0 | 	shl	local04, #2
0180c     50 F2 04 F1 | 	add	objptr, #80
01810     79 5C 01 F6 | 	mov	local05, objptr
01814     79 5A 01 F1 | 	add	local04, objptr
01818     2C F2 84 F1 | 	sub	objptr, #44
0181c     79 60 01 FB | 	rdlong	local07, objptr
01820     B0 5E 01 F6 | 	mov	local06, local07
01824     11 5E 65 F0 | 	shl	local06, #17
01828     AD 56 01 FB | 	rdlong	local02, local04
0182c     AF 56 01 F1 | 	add	local02, local06
01830     80 40 38 FF 
01834     00 56 05 F1 | 	add	local02, ##1887502336
01838     B2 62 01 F6 | 	mov	local08, local09
0183c     02 62 65 F0 | 	shl	local08, #2
01840     2C F2 04 F1 | 	add	objptr, #44
01844     79 66 01 F6 | 	mov	local10, objptr
01848     79 62 01 F1 | 	add	local08, objptr
0184c     B1 56 61 FC | 	wrlong	local02, local08
01850     01 64 05 F1 | 	add	local09, #1
01854     05 64 5D F2 | 	cmps	local09, #5 wcz
01858     50 F2 84 F1 | 	sub	objptr, #80
0185c     A4 FF 9F CD |  if_b	jmp	#LR__0083
01860                 | LR__0084
01860                 | ' timings[5]:=timings[5]+hdmibase<<17
01860     24 F2 04 F1 | 	add	objptr, #36
01864     79 5A 01 FB | 	rdlong	local04, objptr
01868     11 5A 65 F0 | 	shl	local04, #17
0186c     40 F2 04 F1 | 	add	objptr, #64
01870     79 5E 01 FB | 	rdlong	local06, objptr
01874     AF 56 01 F6 | 	mov	local02, local06
01878     AD 56 01 F1 | 	add	local02, local04
0187c     79 56 61 FC | 	wrlong	local02, objptr
01880                 | ' clkfreq:=timings[13]
01880     20 F2 04 F1 | 	add	objptr, #32
01884     79 56 01 FB | 	rdlong	local02, objptr
01888     14 56 65 FC | 	wrlong	local02, #20
0188c                 | ' hubset(timings[14])
0188c     04 F2 04 F1 | 	add	objptr, #4
01890     79 4A 01 FB | 	rdlong	arg01, objptr
01894     88 F2 84 F1 | 	sub	objptr, #136
01898     00 4A 61 FD | 	hubset	arg01
0189c                 | ' waitms(1)
0189c     01 4A 05 F6 | 	mov	arg01, #1
018a0     A4 0A B0 FD | 	call	#__system___waitms
018a4                 | ' 
018a4                 | ' 
018a4                 | ' xzoom:=1<<(mode & 3)
018a4     AA 5A 01 F6 | 	mov	local04, local01
018a8     03 5A 05 F5 | 	and	local04, #3
018ac     AD 56 C1 F9 | 	decod	local02, local04
018b0     CC F2 04 F1 | 	add	objptr, #204
018b4     79 56 61 FC | 	wrlong	local02, objptr
018b8                 | ' 
018b8                 | ' if (xzoom==8) && (((mode>>4)&3)<>3)
018b8     AB 5A 01 F6 | 	mov	local04, local02
018bc     CC F2 84 F1 | 	sub	objptr, #204
018c0     08 5A 0D F2 | 	cmp	local04, #8 wz
018c4     24 00 90 5D |  if_ne	jmp	#LR__0085
018c8     AA 5C 01 F6 | 	mov	local05, local01
018cc     04 5C 45 F0 | 	shr	local05, #4
018d0     03 5C 05 F5 | 	and	local05, #3
018d4     03 5C 0D F2 | 	cmp	local05, #3 wz
018d8     10 00 90 AD |  if_e	jmp	#LR__0085
018dc                 | '   xzoom:=4
018dc     04 56 05 F6 | 	mov	local02, #4
018e0     CC F2 04 F1 | 	add	objptr, #204
018e4     79 08 68 FC | 	wrlong	#4, objptr
018e8     CC F2 84 F1 | 	sub	objptr, #204
018ec                 | LR__0085
018ec                 | ' 
018ec                 | ' yzoom:=1<<((mode>>2) & 3)
018ec     AA 5A 01 F6 | 	mov	local04, local01
018f0     02 5A 45 F0 | 	shr	local04, #2
018f4     03 5A 05 F5 | 	and	local04, #3
018f8     AD 56 C1 F9 | 	decod	local02, local04
018fc     D0 F2 04 F1 | 	add	objptr, #208
01900     79 56 61 FC | 	wrlong	local02, objptr
01904                 | ' azoom:=xzoom*yzoom
01904     04 F2 84 F1 | 	sub	objptr, #4
01908     79 5A 01 FB | 	rdlong	local04, objptr
0190c     04 F2 04 F1 | 	add	objptr, #4
01910     79 5E 01 FB | 	rdlong	local06, objptr
01914     AF 5A 01 FD | 	qmul	local04, local06
01918     18 56 61 FD | 	getqx	local02
0191c     04 F2 04 F1 | 	add	objptr, #4
01920     79 56 61 FC | 	wrlong	local02, objptr
01924                 | ' 
01924                 | ' cpl:=timings[11]
01924     58 F2 84 F1 | 	sub	objptr, #88
01928     79 56 01 FB | 	rdlong	local02, objptr
0192c     14 F2 04 F1 | 	add	objptr, #20
01930     79 56 61 FC | 	wrlong	local02, objptr
01934     90 F2 84 F1 | 	sub	objptr, #144
01938                 | ' if (mode<512)
01938     01 00 00 FF 
0193c     00 54 5D F2 | 	cmps	local01, ##512 wcz
01940     60 00 90 3D |  if_ae	jmp	#LR__0086
01944                 | '   lines:=(timings[12]>>4)+/yzoom
01944     80 F2 04 F1 | 	add	objptr, #128
01948     79 70 01 FB | 	rdlong	muldiva_, objptr
0194c     04 70 45 F0 | 	shr	muldiva_, #4
01950     50 F2 04 F1 | 	add	objptr, #80
01954     79 72 01 FB | 	rdlong	muldivb_, objptr
01958     D0 F2 84 F1 | 	sub	objptr, #208
0195c     67 00 A0 FD | 	call	#unsdivide_
01960     94 F2 04 F1 | 	add	objptr, #148
01964     79 72 61 FC | 	wrlong	muldivb_, objptr
01968                 | '   if ((timings[12]>>4)+//yzoom) <>0
01968     14 F2 84 F1 | 	sub	objptr, #20
0196c     79 70 01 FB | 	rdlong	muldiva_, objptr
01970     04 70 45 F0 | 	shr	muldiva_, #4
01974     50 F2 04 F1 | 	add	objptr, #80
01978     79 72 01 FB | 	rdlong	muldivb_, objptr
0197c     D0 F2 84 F1 | 	sub	objptr, #208
01980     67 00 A0 FD | 	call	#unsdivide_
01984     00 70 0D F2 | 	cmp	muldiva_, #0 wz
01988     AC 00 90 AD |  if_e	jmp	#LR__0089
0198c                 | '     lines +=1
0198c     94 F2 04 F1 | 	add	objptr, #148
01990     79 56 01 FB | 	rdlong	local02, objptr
01994     01 56 05 F1 | 	add	local02, #1
01998     79 56 61 FC | 	wrlong	local02, objptr
0199c     94 F2 84 F1 | 	sub	objptr, #148
019a0                 | ' 
019a0                 | ' else
019a0     94 00 90 FD | 	jmp	#LR__0089
019a4                 | LR__0086
019a4                 | '   lines:=timings[12]/yzoom
019a4     80 F2 04 F1 | 	add	objptr, #128
019a8     79 70 01 FB | 	rdlong	muldiva_, objptr
019ac     50 F2 04 F1 | 	add	objptr, #80
019b0     79 72 01 FB | 	rdlong	muldivb_, objptr
019b4     D0 F2 84 F1 | 	sub	objptr, #208
019b8     6B 00 A0 FD | 	call	#divide_
019bc     94 F2 04 F1 | 	add	objptr, #148
019c0     79 72 61 FC | 	wrlong	muldivb_, objptr
019c4                 | '   if cpl//xzoom==0
019c4     04 F2 84 F1 | 	sub	objptr, #4
019c8     79 70 01 FB | 	rdlong	muldiva_, objptr
019cc     3C F2 04 F1 | 	add	objptr, #60
019d0     79 72 01 FB | 	rdlong	muldivb_, objptr
019d4     CC F2 84 F1 | 	sub	objptr, #204
019d8     6B 00 A0 FD | 	call	#divide_
019dc     00 70 0D F2 | 	cmp	muldiva_, #0 wz
019e0     28 00 90 5D |  if_ne	jmp	#LR__0087
019e4                 | '     cpl:=cpl/xzoom
019e4     90 F2 04 F1 | 	add	objptr, #144
019e8     79 70 01 FB | 	rdlong	muldiva_, objptr
019ec     3C F2 04 F1 | 	add	objptr, #60
019f0     79 72 01 FB | 	rdlong	muldivb_, objptr
019f4     CC F2 84 F1 | 	sub	objptr, #204
019f8     6B 00 A0 FD | 	call	#divide_
019fc     90 F2 04 F1 | 	add	objptr, #144
01a00     79 72 61 FC | 	wrlong	muldivb_, objptr
01a04     90 F2 84 F1 | 	sub	objptr, #144
01a08                 | '   else
01a08     2C 00 90 FD | 	jmp	#LR__0088
01a0c                 | LR__0087
01a0c                 | '     cpl:=cpl/xzoom+1
01a0c     90 F2 04 F1 | 	add	objptr, #144
01a10     79 70 01 FB | 	rdlong	muldiva_, objptr
01a14     3C F2 04 F1 | 	add	objptr, #60
01a18     79 72 01 FB | 	rdlong	muldivb_, objptr
01a1c     CC F2 84 F1 | 	sub	objptr, #204
01a20     6B 00 A0 FD | 	call	#divide_
01a24     B9 56 01 F6 | 	mov	local02, muldivb_
01a28     01 56 05 F1 | 	add	local02, #1
01a2c     90 F2 04 F1 | 	add	objptr, #144
01a30     79 56 61 FC | 	wrlong	local02, objptr
01a34     90 F2 84 F1 | 	sub	objptr, #144
01a38                 | LR__0088
01a38                 | LR__0089
01a38                 | ' 
01a38                 | ' buflen:=(cpl*lines)
01a38     90 F2 04 F1 | 	add	objptr, #144
01a3c     79 5A 01 FB | 	rdlong	local04, objptr
01a40     04 F2 04 F1 | 	add	objptr, #4
01a44     79 5E 01 FB | 	rdlong	local06, objptr
01a48     AF 5A 01 FD | 	qmul	local04, local06
01a4c     18 56 61 FD | 	getqx	local02
01a50     64 F2 84 F1 | 	sub	objptr, #100
01a54     79 56 61 FC | 	wrlong	local02, objptr
01a58                 | ' 
01a58                 | ' buf_ptr:=$80000-4*buflen
01a58     AB 5A 01 F6 | 	mov	local04, local02
01a5c     30 F2 84 F1 | 	sub	objptr, #48
01a60     02 5A 65 F0 | 	shl	local04, #2
01a64     13 56 C5 F9 | 	decod	local02, #19
01a68     AD 56 81 F1 | 	sub	local02, local04
01a6c     79 56 61 FC | 	wrlong	local02, objptr
01a70                 | ' mode_ptr:=@timings
01a70     50 F2 04 F1 | 	add	objptr, #80
01a74     79 56 01 F6 | 	mov	local02, objptr
01a78     3C F2 84 F1 | 	sub	objptr, #60
01a7c     79 56 61 FC | 	wrlong	local02, objptr
01a80                 | ' graphmode:=mode
01a80     B0 F2 04 F1 | 	add	objptr, #176
01a84     79 54 61 FC | 	wrlong	local01, objptr
01a88     C4 F2 84 F1 | 	sub	objptr, #196
01a8c                 | ' makedl(mode)
01a8c     AA 4A 01 F6 | 	mov	arg01, local01
01a90     0C 00 B0 FD | 	call	#_hng025_makedl
01a94                 | LR__0090
01a94     46 F0 03 F6 | 	mov	ptra, fp
01a98     5A 00 A0 FD | 	call	#popregs_
01a9c                 | _hng025_setmode_ret
01a9c     2D 00 64 FD | 	ret
01aa0                 | 
01aa0                 | ' 
01aa0                 | ' 
01aa0                 | ' 
01aa0                 | ' 
01aa0                 | ' '---------- Make a display list
01aa0                 | ' 
01aa0                 | ' pub makedl (mode) |i, fontline2,charline,bufstart,zoom1,vzoom,lpc,hzoom
01aa0                 | _hng025_makedl
01aa0                 | ' 
01aa0                 | ' ''--%aaaa_aaaa_aaaa_aaaa_aazz_nnnn_llll_ll_01 - txt
01aa0                 | '   '' aaaa_aaaa_aaaa_aaaa_aazz_rrrr_rrrr_cc_10 - graph
01aa0                 | '   '' aaaa_aaaa_aaaa-aaaa_aarr_rrrr_rrrr_rr_11 - extended, next long to read
01aa0                 | ' 
01aa0                 | ' '   0 - display a up/down border line
01aa0                 | ' 
01aa0                 | ' '  ' aaaa_aaaa_aaaa_aaaa_aazz_nnnn_llll_ll_01 - text line
01aa0                 | ' '    aaaa_aaaa_aaaa_aaaa_aa00 - buffer start, has to be aligned, 1 long for char, ff_bb_rr_cc, foreground, background,reserved, charcode
01aa0                 | ' '    zz - zoom, 00-x1, 01-x2, 10-x4, 11-blank line
01aa0                 | ' '    nnnn - font line to display, 0..15
01aa0                 | ' '    llllll - character line, determines the cursor Y position
01aa0                 | ' 
01aa0                 | ' 
01aa0                 | ' if (mode &256==0)
01aa0     00 4B CD F7 | 	test	arg01, #256 wz
01aa4     1C 00 90 5D |  if_ne	jmp	#LR__0091
01aa8                 | '   dl_ptr:=buf_ptr-4*576
01aa8     79 0A 01 FB | 	rdlong	_var01, objptr
01aac     04 00 00 FF 
01ab0     00 0B 85 F1 | 	sub	_var01, ##2304
01ab4     1C F2 04 F1 | 	add	objptr, #28
01ab8     79 0A 61 FC | 	wrlong	_var01, objptr
01abc     1C F2 84 F1 | 	sub	objptr, #28
01ac0                 | ' else
01ac0     18 00 90 FD | 	jmp	#LR__0092
01ac4                 | LR__0091
01ac4                 | '   dl_ptr:=buf_ptr-4*496
01ac4     79 0A 01 FB | 	rdlong	_var01, objptr
01ac8     03 00 00 FF 
01acc     C0 0B 85 F1 | 	sub	_var01, ##1984
01ad0     1C F2 04 F1 | 	add	objptr, #28
01ad4     79 0A 61 FC | 	wrlong	_var01, objptr
01ad8     1C F2 84 F1 | 	sub	objptr, #28
01adc                 | LR__0092
01adc                 | ' 
01adc                 | ' vzoom:=((mode>>2) & 3)
01adc     A5 0C 01 F6 | 	mov	_var02, arg01
01ae0     02 0C 45 F0 | 	shr	_var02, #2
01ae4     03 0C 05 F5 | 	and	_var02, #3
01ae8                 | ' 
01ae8                 | ' 
01ae8                 | ' if mode<512 '' text modes
01ae8     01 00 00 FF 
01aec     00 4A 5D F2 | 	cmps	arg01, ##512 wcz
01af0     E8 01 90 3D |  if_ae	jmp	#LR__0100
01af4                 | ' 
01af4                 | '   if timings[6]>0 'borders
01af4     68 F2 04 F1 | 	add	objptr, #104
01af8     79 0A 01 FB | 	rdlong	_var01, objptr
01afc     68 F2 84 F1 | 	sub	objptr, #104
01b00     00 0A 5D F2 | 	cmps	_var01, #0 wcz
01b04     D4 00 90 ED |  if_be	jmp	#LR__0097
01b08                 | '     repeat i from 0 to timings[6]-1 '0 to -1
01b08     00 0E 05 F6 | 	mov	_var03, #0
01b0c     68 F2 04 F1 | 	add	objptr, #104
01b10     79 10 01 FB | 	rdlong	_var04, objptr
01b14     68 F2 84 F1 | 	sub	objptr, #104
01b18     01 10 85 F1 | 	sub	_var04, #1
01b1c     00 10 5D F2 | 	cmps	_var04, #0 wcz
01b20     01 12 05 16 |  if_a	mov	_var05, #1
01b24     01 12 65 E6 |  if_be	neg	_var05, #1
01b28     89 14 01 F6 | 	mov	_var06, _var05
01b2c     89 10 01 F1 | 	add	_var04, _var05
01b30     F4 E4 9F FE | 	loc	pa,	#(@LR__0094-@LR__0093)
01b34     35 00 A0 FD | 	call	#FCACHE_LOAD_
01b38                 | LR__0093
01b38                 | '       long[dl_ptr+4*i]:=$0
01b38     1C F2 04 F1 | 	add	objptr, #28
01b3c     79 16 01 FB | 	rdlong	_var07, objptr
01b40     1C F2 84 F1 | 	sub	objptr, #28
01b44     87 18 01 F6 | 	mov	_var08, _var03
01b48     02 18 65 F0 | 	shl	_var08, #2
01b4c     8C 16 01 F1 | 	add	_var07, _var08
01b50     8B 00 68 FC | 	wrlong	#0, _var07
01b54     8A 0E 01 F1 | 	add	_var03, _var06
01b58     88 0E 09 F2 | 	cmp	_var03, _var04 wz
01b5c     D8 FF 9F 5D |  if_ne	jmp	#LR__0093
01b60                 | LR__0094
01b60                 | '     repeat i from timings[6]+timings[12] to timings[15]-1
01b60     68 F2 04 F1 | 	add	objptr, #104
01b64     79 0E 01 FB | 	rdlong	_var03, objptr
01b68     18 F2 04 F1 | 	add	objptr, #24
01b6c     79 12 01 FB | 	rdlong	_var05, objptr
01b70     89 0E 01 F1 | 	add	_var03, _var05
01b74     0C F2 04 F1 | 	add	objptr, #12
01b78     79 1A 01 FB | 	rdlong	_var09, objptr
01b7c     01 1A 85 F1 | 	sub	_var09, #1
01b80     24 F2 84 F1 | 	sub	objptr, #36
01b84     79 1C 01 FB | 	rdlong	_var10, objptr
01b88     18 F2 04 F1 | 	add	objptr, #24
01b8c     79 1E 01 FB | 	rdlong	_var11, objptr
01b90     80 F2 84 F1 | 	sub	objptr, #128
01b94     8F 1C 01 F1 | 	add	_var10, _var11
01b98     8E 1A 59 F2 | 	cmps	_var09, _var10 wcz
01b9c     01 18 05 16 |  if_a	mov	_var08, #1
01ba0     01 18 65 E6 |  if_be	neg	_var08, #1
01ba4     8C 20 01 F6 | 	mov	_var12, _var08
01ba8     8C 1A 01 F1 | 	add	_var09, _var08
01bac     78 E4 9F FE | 	loc	pa,	#(@LR__0096-@LR__0095)
01bb0     35 00 A0 FD | 	call	#FCACHE_LOAD_
01bb4                 | LR__0095
01bb4                 | '       long[dl_ptr+4*i]:=$0
01bb4     1C F2 04 F1 | 	add	objptr, #28
01bb8     79 22 01 FB | 	rdlong	_var13, objptr
01bbc     1C F2 84 F1 | 	sub	objptr, #28
01bc0     87 24 01 F6 | 	mov	_var14, _var03
01bc4     02 24 65 F0 | 	shl	_var14, #2
01bc8     92 22 01 F1 | 	add	_var13, _var14
01bcc     91 00 68 FC | 	wrlong	#0, _var13
01bd0     90 0E 01 F1 | 	add	_var03, _var12
01bd4     8D 0E 09 F2 | 	cmp	_var03, _var09 wz
01bd8     D8 FF 9F 5D |  if_ne	jmp	#LR__0095
01bdc                 | LR__0096
01bdc                 | LR__0097
01bdc                 | '   lpc:=16<<vzoom
01bdc     10 26 05 F6 | 	mov	_var15, #16
01be0     86 26 61 F0 | 	shl	_var15, _var02
01be4                 | '   repeat i from timings[6] to timings[6]+timings[12]-1
01be4     68 F2 04 F1 | 	add	objptr, #104
01be8     79 0E 01 FB | 	rdlong	_var03, objptr
01bec     87 28 01 F6 | 	mov	_var16, _var03
01bf0     18 F2 04 F1 | 	add	objptr, #24
01bf4     79 2A 01 FB | 	rdlong	_var17, objptr
01bf8     95 28 01 F1 | 	add	_var16, _var17
01bfc     01 28 85 F1 | 	sub	_var16, #1
01c00     18 F2 84 F1 | 	sub	objptr, #24
01c04     79 18 01 FB | 	rdlong	_var08, objptr
01c08     68 F2 84 F1 | 	sub	objptr, #104
01c0c     8C 28 59 F2 | 	cmps	_var16, _var08 wcz
01c10     01 2C 05 16 |  if_a	mov	_var18, #1
01c14     01 2C 65 E6 |  if_be	neg	_var18, #1
01c18     96 2E 01 F6 | 	mov	_var19, _var18
01c1c     96 28 01 F1 | 	add	_var16, _var18
01c20     90 E4 9F FE | 	loc	pa,	#(@LR__0099-@LR__0098)
01c24     35 00 A0 FD | 	call	#FCACHE_LOAD_
01c28                 | LR__0098
01c28                 | '     fontline2:=((i-timings[6])+//lpc)>>vzoom
01c28     87 70 01 F6 | 	mov	muldiva_, _var03
01c2c     68 F2 04 F1 | 	add	objptr, #104
01c30     79 30 01 FB | 	rdlong	_var20, objptr
01c34     68 F2 84 F1 | 	sub	objptr, #104
01c38     98 70 81 F1 | 	sub	muldiva_, _var20
01c3c     93 72 01 F6 | 	mov	muldivb_, _var15
01c40     67 00 A0 FD | 	call	#unsdivide_
01c44     86 70 41 F0 | 	shr	muldiva_, _var02
01c48     B8 32 01 F6 | 	mov	_var21, muldiva_
01c4c                 | '     charline:=(i-timings[6])+/lpc
01c4c     87 70 01 F6 | 	mov	muldiva_, _var03
01c50     68 F2 04 F1 | 	add	objptr, #104
01c54     79 34 01 FB | 	rdlong	_var22, objptr
01c58     68 F2 84 F1 | 	sub	objptr, #104
01c5c     9A 70 81 F1 | 	sub	muldiva_, _var22
01c60     93 72 01 F6 | 	mov	muldivb_, _var15
01c64     67 00 A0 FD | 	call	#unsdivide_
01c68     B9 36 01 F6 | 	mov	_var23, muldivb_
01c6c                 | '     bufstart:=buf_ptr+4*((cpl)*charline)+(mode&3)
01c6c     79 1E 01 FB | 	rdlong	_var11, objptr
01c70     90 F2 04 F1 | 	add	objptr, #144
01c74     79 30 01 FB | 	rdlong	_var20, objptr
01c78     9B 30 01 FD | 	qmul	_var20, _var23
01c7c     18 38 61 FD | 	getqx	_var24
01c80     02 38 65 F0 | 	shl	_var24, #2
01c84     9C 1E 01 F1 | 	add	_var11, _var24
01c88     A5 24 01 F6 | 	mov	_var14, arg01
01c8c     03 24 05 F5 | 	and	_var14, #3
01c90     92 1E 01 F1 | 	add	_var11, _var14
01c94                 | '     long[dl_ptr+4*i]:=(bufstart<<12)+(fontline2<<8)+(charline<<2)+1
01c94     0C 1E 65 F0 | 	shl	_var11, #12
01c98     99 34 01 F6 | 	mov	_var22, _var21
01c9c     08 34 65 F0 | 	shl	_var22, #8
01ca0     9A 1E 01 F1 | 	add	_var11, _var22
01ca4     9B 30 01 F6 | 	mov	_var20, _var23
01ca8     02 30 65 F0 | 	shl	_var20, #2
01cac     98 1E 01 F1 | 	add	_var11, _var20
01cb0     01 1E 05 F1 | 	add	_var11, #1
01cb4     74 F2 84 F1 | 	sub	objptr, #116
01cb8     79 22 01 FB | 	rdlong	_var13, objptr
01cbc     1C F2 84 F1 | 	sub	objptr, #28
01cc0     87 24 01 F6 | 	mov	_var14, _var03
01cc4     02 24 65 F0 | 	shl	_var14, #2
01cc8     92 22 01 F1 | 	add	_var13, _var14
01ccc     91 1E 61 FC | 	wrlong	_var11, _var13
01cd0     97 0E 01 F1 | 	add	_var03, _var19
01cd4     94 0E 09 F2 | 	cmp	_var03, _var16 wz
01cd8     4C FF 9F 5D |  if_ne	jmp	#LR__0098
01cdc                 | LR__0099
01cdc                 | LR__0100
01cdc                 | ' 
01cdc                 | ' 
01cdc                 | ' 
01cdc                 | ' if (mode>=512)' and (mode & (%10_00_00_0000))==(%10_00_00_0000) ' graphics -> all modes TODO :mode 560+192=752 = 10_11_11_0000 impossib,e because out of memory
01cdc     01 00 00 FF 
01ce0     00 4A 5D F2 | 	cmps	arg01, ##512 wcz
01ce4     A8 01 90 CD |  if_b	jmp	#LR__0108
01ce8                 | ' 
01ce8                 | '   if timings[6]>0 'borders
01ce8     68 F2 04 F1 | 	add	objptr, #104
01cec     79 0A 01 FB | 	rdlong	_var01, objptr
01cf0     68 F2 84 F1 | 	sub	objptr, #104
01cf4     00 0A 5D F2 | 	cmps	_var01, #0 wcz
01cf8     D4 00 90 ED |  if_be	jmp	#LR__0105
01cfc                 | '     repeat i from 0 to timings[6]-1 '0 to -1
01cfc     00 0E 05 F6 | 	mov	_var03, #0
01d00     68 F2 04 F1 | 	add	objptr, #104
01d04     79 3A 01 FB | 	rdlong	_var25, objptr
01d08     68 F2 84 F1 | 	sub	objptr, #104
01d0c     01 3A 85 F1 | 	sub	_var25, #1
01d10     00 3A 5D F2 | 	cmps	_var25, #0 wcz
01d14     01 12 05 16 |  if_a	mov	_var05, #1
01d18     01 12 65 E6 |  if_be	neg	_var05, #1
01d1c     89 3C 01 F6 | 	mov	_var26, _var05
01d20     89 3A 01 F1 | 	add	_var25, _var05
01d24     00 E3 9F FE | 	loc	pa,	#(@LR__0102-@LR__0101)
01d28     35 00 A0 FD | 	call	#FCACHE_LOAD_
01d2c                 | LR__0101
01d2c                 | '       long[dl_ptr+4*i]:=$0
01d2c     1C F2 04 F1 | 	add	objptr, #28
01d30     79 16 01 FB | 	rdlong	_var07, objptr
01d34     1C F2 84 F1 | 	sub	objptr, #28
01d38     87 18 01 F6 | 	mov	_var08, _var03
01d3c     02 18 65 F0 | 	shl	_var08, #2
01d40     8C 16 01 F1 | 	add	_var07, _var08
01d44     8B 00 68 FC | 	wrlong	#0, _var07
01d48     9E 0E 01 F1 | 	add	_var03, _var26
01d4c     9D 0E 09 F2 | 	cmp	_var03, _var25 wz
01d50     D8 FF 9F 5D |  if_ne	jmp	#LR__0101
01d54                 | LR__0102
01d54                 | '     repeat i from timings[6]+timings[12] to timings[15]-1
01d54     68 F2 04 F1 | 	add	objptr, #104
01d58     79 0E 01 FB | 	rdlong	_var03, objptr
01d5c     18 F2 04 F1 | 	add	objptr, #24
01d60     79 12 01 FB | 	rdlong	_var05, objptr
01d64     89 0E 01 F1 | 	add	_var03, _var05
01d68     0C F2 04 F1 | 	add	objptr, #12
01d6c     79 3E 01 FB | 	rdlong	_var27, objptr
01d70     01 3E 85 F1 | 	sub	_var27, #1
01d74     24 F2 84 F1 | 	sub	objptr, #36
01d78     79 1C 01 FB | 	rdlong	_var10, objptr
01d7c     18 F2 04 F1 | 	add	objptr, #24
01d80     79 1E 01 FB | 	rdlong	_var11, objptr
01d84     80 F2 84 F1 | 	sub	objptr, #128
01d88     8F 1C 01 F1 | 	add	_var10, _var11
01d8c     8E 3E 59 F2 | 	cmps	_var27, _var10 wcz
01d90     01 18 05 16 |  if_a	mov	_var08, #1
01d94     01 18 65 E6 |  if_be	neg	_var08, #1
01d98     8C 40 01 F6 | 	mov	_var28, _var08
01d9c     8C 3E 01 F1 | 	add	_var27, _var08
01da0     84 E2 9F FE | 	loc	pa,	#(@LR__0104-@LR__0103)
01da4     35 00 A0 FD | 	call	#FCACHE_LOAD_
01da8                 | LR__0103
01da8                 | '       long[dl_ptr+4*i]:=$0
01da8     1C F2 04 F1 | 	add	objptr, #28
01dac     79 22 01 FB | 	rdlong	_var13, objptr
01db0     1C F2 84 F1 | 	sub	objptr, #28
01db4     87 24 01 F6 | 	mov	_var14, _var03
01db8     02 24 65 F0 | 	shl	_var14, #2
01dbc     92 22 01 F1 | 	add	_var13, _var14
01dc0     91 00 68 FC | 	wrlong	#0, _var13
01dc4     A0 0E 01 F1 | 	add	_var03, _var28
01dc8     9F 0E 09 F2 | 	cmp	_var03, _var27 wz
01dcc     D8 FF 9F 5D |  if_ne	jmp	#LR__0103
01dd0                 | LR__0104
01dd0                 | LR__0105
01dd0                 | '   repeat i from timings[6] to timings[6]+timings[12]-1
01dd0     68 F2 04 F1 | 	add	objptr, #104
01dd4     79 0E 01 FB | 	rdlong	_var03, objptr
01dd8     87 42 01 F6 | 	mov	_var29, _var03
01ddc     18 F2 04 F1 | 	add	objptr, #24
01de0     79 2A 01 FB | 	rdlong	_var17, objptr
01de4     95 42 01 F1 | 	add	_var29, _var17
01de8     01 42 85 F1 | 	sub	_var29, #1
01dec     18 F2 84 F1 | 	sub	objptr, #24
01df0     79 18 01 FB | 	rdlong	_var08, objptr
01df4     68 F2 84 F1 | 	sub	objptr, #104
01df8     8C 42 59 F2 | 	cmps	_var29, _var08 wcz
01dfc     01 2C 05 16 |  if_a	mov	_var18, #1
01e00     01 2C 65 E6 |  if_be	neg	_var18, #1
01e04     96 44 01 F6 | 	mov	_var30, _var18
01e08     96 42 01 F1 | 	add	_var29, _var18
01e0c     6C E2 9F FE | 	loc	pa,	#(@LR__0107-@LR__0106)
01e10     35 00 A0 FD | 	call	#FCACHE_LOAD_
01e14                 | LR__0106
01e14                 | '     bufstart:=buf_ptr+4*(cpl*((i-timings[6])>>vzoom))+(mode&3)
01e14     79 1E 01 FB | 	rdlong	_var11, objptr
01e18     87 34 01 F6 | 	mov	_var22, _var03
01e1c     68 F2 04 F1 | 	add	objptr, #104
01e20     79 30 01 FB | 	rdlong	_var20, objptr
01e24     98 34 81 F1 | 	sub	_var22, _var20
01e28     86 34 41 F0 | 	shr	_var22, _var02
01e2c     28 F2 04 F1 | 	add	objptr, #40
01e30     79 24 01 FB | 	rdlong	_var14, objptr
01e34     9A 24 01 FD | 	qmul	_var14, _var22
01e38     18 46 61 FD | 	getqx	_var31
01e3c     02 46 65 F0 | 	shl	_var31, #2
01e40     A3 1E 01 F1 | 	add	_var11, _var31
01e44     A5 48 01 F6 | 	mov	_var32, arg01
01e48     03 48 05 F5 | 	and	_var32, #3
01e4c     A4 1E 01 F1 | 	add	_var11, _var32
01e50                 | '     long[dl_ptr+4*i]:=(bufstart<<12)+2+(mode &48)>>2
01e50     0C 1E 65 F0 | 	shl	_var11, #12
01e54     02 1E 05 F1 | 	add	_var11, #2
01e58     A5 34 01 F6 | 	mov	_var22, arg01
01e5c     30 34 05 F5 | 	and	_var22, #48
01e60     02 34 45 F0 | 	shr	_var22, #2
01e64     9A 1E 01 F1 | 	add	_var11, _var22
01e68     74 F2 84 F1 | 	sub	objptr, #116
01e6c     79 30 01 FB | 	rdlong	_var20, objptr
01e70     1C F2 84 F1 | 	sub	objptr, #28
01e74     87 38 01 F6 | 	mov	_var24, _var03
01e78     02 38 65 F0 | 	shl	_var24, #2
01e7c     9C 30 01 F1 | 	add	_var20, _var24
01e80     98 1E 61 FC | 	wrlong	_var11, _var20
01e84     A2 0E 01 F1 | 	add	_var03, _var30
01e88     A1 0E 09 F2 | 	cmp	_var03, _var29 wz
01e8c     84 FF 9F 5D |  if_ne	jmp	#LR__0106
01e90                 | LR__0107
01e90                 | LR__0108
01e90                 | _hng025_makedl_ret
01e90     2D 00 64 FD | 	ret
01e94                 | 
01e94                 | '       
01e94                 | ' '--------- Start the driver with graphics mode 'mode' at pins 'base'
01e94                 | ' 
01e94                 | ' pub start(mode,base):result
01e94                 | _hng025_start
01e94     04 88 04 F6 | 	mov	COUNT_, #4
01e98     4B 00 A0 FD | 	call	#pushregs_
01e9c     A5 54 01 F6 | 	mov	local01, arg01
01ea0                 | ' 
01ea0                 | ' ' initialize pointers and variables
01ea0                 | ' 
01ea0                 | ' border_ptr:=@bordercolor
01ea0     2C F2 04 F1 | 	add	objptr, #44
01ea4     79 56 01 F6 | 	mov	local02, objptr
01ea8     24 F2 84 F1 | 	sub	objptr, #36
01eac     79 56 61 FC | 	wrlong	local02, objptr
01eb0                 | ' font_ptr:=@st_font
01eb0     08 00 00 FF 
01eb4     00 F8 04 F1 | 	add	ptr__hng025_dat__, ##4096
01eb8     04 F2 84 F1 | 	sub	objptr, #4
01ebc     79 F8 60 FC | 	wrlong	ptr__hng025_dat__, objptr
01ec0                 | ' hdmibase:=base
01ec0     20 F2 04 F1 | 	add	objptr, #32
01ec4     79 4C 61 FC | 	wrlong	arg02, objptr
01ec8     24 F2 84 F1 | 	sub	objptr, #36
01ecc                 | ' p1:=@putpixel1
01ecc     79 4A 01 F6 | 	mov	arg01, objptr
01ed0     7D 4C 01 F6 | 	mov	arg02, ptr__hng025_putpixel1_
01ed4     08 00 00 FF 
01ed8     00 F8 84 F1 | 	sub	ptr__hng025_dat__, ##4096
01edc     60 03 B0 FD | 	call	#__system___make_methodptr
01ee0     82 58 01 F6 | 	mov	local03, result1
01ee4     DC F2 04 F1 | 	add	objptr, #220
01ee8     79 58 61 FC | 	wrlong	local03, objptr
01eec     DC F2 84 F1 | 	sub	objptr, #220
01ef0                 | ' p2:=@putpixel2
01ef0     79 4A 01 F6 | 	mov	arg01, objptr
01ef4     7E 4C 01 F6 | 	mov	arg02, ptr__hng025_putpixel2_
01ef8     44 03 B0 FD | 	call	#__system___make_methodptr
01efc     82 58 01 F6 | 	mov	local03, result1
01f00     E0 F2 04 F1 | 	add	objptr, #224
01f04     79 58 61 FC | 	wrlong	local03, objptr
01f08     E0 F2 84 F1 | 	sub	objptr, #224
01f0c                 | ' p4:=@putpixel4
01f0c     79 4A 01 F6 | 	mov	arg01, objptr
01f10     7F 4C 01 F6 | 	mov	arg02, ptr__hng025_putpixel4_
01f14     28 03 B0 FD | 	call	#__system___make_methodptr
01f18     82 58 01 F6 | 	mov	local03, result1
01f1c     E4 F2 04 F1 | 	add	objptr, #228
01f20     79 58 61 FC | 	wrlong	local03, objptr
01f24     E4 F2 84 F1 | 	sub	objptr, #228
01f28                 | ' p8:=@putpixel8
01f28     79 4A 01 F6 | 	mov	arg01, objptr
01f2c     80 4C 01 F6 | 	mov	arg02, ptr__hng025_putpixel8_
01f30     0C 03 B0 FD | 	call	#__system___make_methodptr
01f34     82 58 01 F6 | 	mov	local03, result1
01f38     E8 F2 04 F1 | 	add	objptr, #232
01f3c     79 58 61 FC | 	wrlong	local03, objptr
01f40     E8 F2 84 F1 | 	sub	objptr, #232
01f44                 | ' 
01f44                 | ' 
01f44                 | ' ' the mode has to be set here to enable computing the buffer length
01f44                 | ' 
01f44                 | ' setmode(mode)
01f44     AA 4A 01 F6 | 	mov	arg01, local01
01f48     90 F5 BF FD | 	call	#_hng025_setmode
01f4c                 | ' 
01f4c                 | ' vblank_ptr:=@vblank
01f4c     40 F2 04 F1 | 	add	objptr, #64
01f50     79 56 01 F6 | 	mov	local02, objptr
01f54     34 F2 84 F1 | 	sub	objptr, #52
01f58     79 56 61 FC | 	wrlong	local02, objptr
01f5c                 | ' cursor_ptr:=@cursor_x
01f5c     28 F2 04 F1 | 	add	objptr, #40
01f60     79 56 01 F6 | 	mov	local02, objptr
01f64     24 F2 84 F1 | 	sub	objptr, #36
01f68     79 56 61 FC | 	wrlong	local02, objptr
01f6c                 | ' 
01f6c                 | ' fontnum_ptr:=@fontnum
01f6c     88 F2 04 F1 | 	add	objptr, #136
01f70     79 56 01 F6 | 	mov	local02, objptr
01f74     78 F2 84 F1 | 	sub	objptr, #120
01f78     79 56 61 FC | 	wrlong	local02, objptr
01f7c                 | ' 
01f7c                 | ' fontnum:=0  ' PC type font ' TODO: font# in buffer byte #1
01f7c     78 F2 04 F1 | 	add	objptr, #120
01f80     79 00 68 FC | 	wrlong	#0, objptr
01f84                 | ' bytemove(@colors,@vgacolors,16)
01f84     1C F2 04 F1 | 	add	objptr, #28
01f88     79 4A 01 F6 | 	mov	arg01, objptr
01f8c     B4 F2 84 F1 | 	sub	objptr, #180
01f90     0F 00 00 FF 
01f94     58 F8 04 F1 | 	add	ptr__hng025_dat__, ##7768
01f98     7C 4C 01 F6 | 	mov	arg02, ptr__hng025_dat__
01f9c     0F 00 00 FF 
01fa0     58 F8 84 F1 | 	sub	ptr__hng025_dat__, ##7768
01fa4     10 4E 05 F6 | 	mov	arg03, #16
01fa8     8C 01 B0 FD | 	call	#__system__bytemove
01fac                 | ' 
01fac                 | ' ' initialize a cursor
01fac                 | ' 
01fac                 | ' cursor_x:=0
01fac     34 F2 04 F1 | 	add	objptr, #52
01fb0     79 00 48 FC | 	wrbyte	#0, objptr
01fb4                 | ' cursor_y:=0
01fb4     01 F2 04 F1 | 	add	objptr, #1
01fb8     79 00 48 FC | 	wrbyte	#0, objptr
01fbc                 | ' cursor_sh:=14
01fbc     01 F2 04 F1 | 	add	objptr, #1
01fc0     79 1C 48 FC | 	wrbyte	#14, objptr
01fc4     36 F2 84 F1 | 	sub	objptr, #54
01fc8                 | ' 
01fc8                 | ' 
01fc8                 | ' ' start the cog
01fc8                 | ' 
01fc8                 | ' cog:=coginit(16,@hdmi, @buf_ptr)
01fc8     0F 00 00 FF 
01fcc     68 F8 04 F1 | 	add	ptr__hng025_dat__, ##7784
01fd0     7C 4C 01 F6 | 	mov	arg02, ptr__hng025_dat__
01fd4     0F 00 00 FF 
01fd8     68 F8 84 F1 | 	sub	ptr__hng025_dat__, ##7784
01fdc     79 4E 01 F6 | 	mov	arg03, objptr
01fe0     10 4A 05 F6 | 	mov	arg01, #16
01fe4     28 4E 61 FD | 	setq	arg03
01fe8     A6 4A F1 FC | 	coginit	arg01, arg02 wc
01fec     01 4A 65 C6 |  if_b	neg	arg01, #1
01ff0     A5 04 01 F6 | 	mov	result1, arg01
01ff4     82 5A 01 F6 | 	mov	local04, result1
01ff8     28 F2 04 F1 | 	add	objptr, #40
01ffc     79 5A 61 FC | 	wrlong	local04, objptr
02000     28 F2 84 F1 | 	sub	objptr, #40
02004                 | ' waitms(20)
02004     14 4A 05 F6 | 	mov	arg01, #20
02008     3C 03 B0 FD | 	call	#__system___waitms
0200c                 | ' 
0200c                 | ' ' clear the screen and set the colors to green on black
0200c                 | ' 
0200c                 | ' cls(c_green,c_black)
0200c     C7 4A 05 F6 | 	mov	arg01, #199
02010     00 4C 05 F6 | 	mov	arg02, #0
02014     64 F2 BF FD | 	call	#_hng025_cls
02018                 | ' setbordercolor(0,0,128)
02018     00 4A 05 F6 | 	mov	arg01, #0
0201c     00 4C 05 F6 | 	mov	arg02, #0
02020     80 4E 05 F6 | 	mov	arg03, #128
02024     30 F2 BF FD | 	call	#_hng025_setbordercolor
02028                 | ' setwritecolors(c_green,c_black)
02028                 | ' 
02028                 | ' 
02028                 | ' write_color:=ff
02028     38 F2 04 F1 | 	add	objptr, #56
0202c     79 8E 69 FC | 	wrlong	#199, objptr
02030                 | ' write_background:=bb
02030     04 F2 04 F1 | 	add	objptr, #4
02034     79 00 68 FC | 	wrlong	#0, objptr
02038                 | ' 
02038                 | ' return cog
02038     14 F2 84 F1 | 	sub	objptr, #20
0203c     79 04 01 FB | 	rdlong	result1, objptr
02040     28 F2 84 F1 | 	sub	objptr, #40
02044     46 F0 03 F6 | 	mov	ptra, fp
02048     5A 00 A0 FD | 	call	#popregs_
0204c                 | _hng025_start_ret
0204c     2D 00 64 FD | 	ret
02050                 | hubexit
02050     23 00 80 FD | 	jmp	#cogexit
02054                 | 
02054                 | __system___setbaud
02054     14 70 05 FB | 	rdlong	muldiva_, #20
02058     A5 72 01 F6 | 	mov	muldivb_, arg01
0205c     6B 00 A0 FD | 	call	#divide_
02060     40 7C 64 FD | 	dirl	#62
02064     40 7E 64 FD | 	dirl	#63
02068     7B 72 61 FC | 	wrlong	muldivb_, ptr___system__dat__
0206c     10 72 65 F0 | 	shl	muldivb_, #16
02070     07 4C 05 F6 | 	mov	arg02, #7
02074     B9 4C 01 F1 | 	add	arg02, muldivb_
02078     3E F8 0C FC | 	wrpin	#124, #62
0207c     3E 4C 15 FC | 	wxpin	arg02, #62
02080     3F 7C 0C FC | 	wrpin	#62, #63
02084     14 4C 05 F1 | 	add	arg02, #20
02088     3F 4C 15 FC | 	wxpin	arg02, #63
0208c     41 7C 64 FD | 	dirh	#62
02090     41 7E 64 FD | 	dirh	#63
02094                 | __system___setbaud_ret
02094     2D 00 64 FD | 	ret
02098                 | 
02098                 | __system___txraw
02098     02 88 04 F6 | 	mov	COUNT_, #2
0209c     4B 00 A0 FD | 	call	#pushregs_
020a0     A5 54 01 F6 | 	mov	local01, arg01
020a4     7B 56 09 FB | 	rdlong	local02, ptr___system__dat__ wz
020a8     0C 00 90 5D |  if_ne	jmp	#LR__0109
020ac     C2 01 00 FF 
020b0     00 4A 05 F6 | 	mov	arg01, ##230400
020b4     9C FF BF FD | 	call	#__system___setbaud
020b8                 | LR__0109
020b8     3E 54 25 FC | 	wypin	local01, #62
020bc     1F 02 64 FD | 	waitx	#1
020c0     44 DF 9F FE | 	loc	pa,	#(@LR__0111-@LR__0110)
020c4     35 00 A0 FD | 	call	#FCACHE_LOAD_
020c8                 | LR__0110
020c8     40 7C 74 FD | 	testp	#62 wc
020cc     F8 FF 9F 3D |  if_nc	jmp	#LR__0110
020d0                 | LR__0111
020d0     01 04 05 F6 | 	mov	result1, #1
020d4     46 F0 03 F6 | 	mov	ptra, fp
020d8     5A 00 A0 FD | 	call	#popregs_
020dc                 | __system___txraw_ret
020dc     2D 00 64 FD | 	ret
020e0                 | 
020e0                 | __system__bytefill
020e0     A6 0A 01 F6 | 	mov	_var01, arg02
020e4     08 0A 65 F0 | 	shl	_var01, #8
020e8     A6 0A 41 F5 | 	or	_var01, arg02
020ec     85 0C 01 F6 | 	mov	_var02, _var01
020f0     10 0C 65 F0 | 	shl	_var02, #16
020f4     85 0C 41 F5 | 	or	_var02, _var01
020f8     1C DF 9F FE | 	loc	pa,	#(@LR__0113-@LR__0112)
020fc     35 00 A0 FD | 	call	#FCACHE_LOAD_
02100                 | LR__0112
02100     03 4E 5D F2 | 	cmps	arg03, #3 wcz
02104     10 00 90 ED |  if_be	jmp	#LR__0114
02108     A5 0C 61 FC | 	wrlong	_var02, arg01
0210c     04 4A 05 F1 | 	add	arg01, #4
02110     04 4E 85 F1 | 	sub	arg03, #4
02114     E8 FF 9F FD | 	jmp	#LR__0112
02118                 | LR__0113
02118                 | LR__0114
02118     00 4E 0D F2 | 	cmp	arg03, #0 wz
0211c     14 00 90 AD |  if_e	jmp	#LR__0119
02120     E8 DE 9F FE | 	loc	pa,	#(@LR__0117-@LR__0115)
02124     35 00 A0 FD | 	call	#FCACHE_LOAD_
02128                 | LR__0115
02128     A7 04 D8 FC | 	rep	@LR__0118, arg03
0212c                 | LR__0116
0212c     A5 4C 41 FC | 	wrbyte	arg02, arg01
02130     01 4A 05 F1 | 	add	arg01, #1
02134                 | LR__0117
02134                 | LR__0118
02134                 | LR__0119
02134                 | __system__bytefill_ret
02134     2D 00 64 FD | 	ret
02138                 | 
02138                 | __system__bytemove
02138     A5 0A 01 F6 | 	mov	_var01, arg01
0213c     A6 4A 59 F2 | 	cmps	arg01, arg02 wcz
02140     50 00 90 3D |  if_ae	jmp	#LR__0127
02144     D8 DE 9F FE | 	loc	pa,	#(@LR__0121-@LR__0120)
02148     35 00 A0 FD | 	call	#FCACHE_LOAD_
0214c                 | LR__0120
0214c     03 4E 5D F2 | 	cmps	arg03, #3 wcz
02150     18 00 90 ED |  if_be	jmp	#LR__0122
02154     A6 0C 01 FB | 	rdlong	_var02, arg02
02158     A5 0C 61 FC | 	wrlong	_var02, arg01
0215c     04 4A 05 F1 | 	add	arg01, #4
02160     04 4C 05 F1 | 	add	arg02, #4
02164     04 4E 85 F1 | 	sub	arg03, #4
02168     E0 FF 9F FD | 	jmp	#LR__0120
0216c                 | LR__0121
0216c                 | LR__0122
0216c     A7 0E 09 F6 | 	mov	_var03, arg03 wz
02170     4C 00 90 AD |  if_e	jmp	#LR__0133
02174     9C DE 9F FE | 	loc	pa,	#(@LR__0125-@LR__0123)
02178     35 00 A0 FD | 	call	#FCACHE_LOAD_
0217c                 | LR__0123
0217c     87 08 D8 FC | 	rep	@LR__0126, _var03
02180                 | LR__0124
02180     A6 0C C1 FA | 	rdbyte	_var02, arg02
02184     A5 0C 41 FC | 	wrbyte	_var02, arg01
02188     01 4A 05 F1 | 	add	arg01, #1
0218c     01 4C 05 F1 | 	add	arg02, #1
02190                 | LR__0125
02190                 | LR__0126
02190     2C 00 90 FD | 	jmp	#LR__0133
02194                 | LR__0127
02194     A7 4A 01 F1 | 	add	arg01, arg03
02198     A7 4C 01 F1 | 	add	arg02, arg03
0219c     A7 10 09 F6 | 	mov	_var04, arg03 wz
021a0     1C 00 90 AD |  if_e	jmp	#LR__0132
021a4     6C DE 9F FE | 	loc	pa,	#(@LR__0130-@LR__0128)
021a8     35 00 A0 FD | 	call	#FCACHE_LOAD_
021ac                 | LR__0128
021ac     88 08 D8 FC | 	rep	@LR__0131, _var04
021b0                 | LR__0129
021b0     01 4A 85 F1 | 	sub	arg01, #1
021b4     01 4C 85 F1 | 	sub	arg02, #1
021b8     A6 0C C1 FA | 	rdbyte	_var02, arg02
021bc     A5 0C 41 FC | 	wrbyte	_var02, arg01
021c0                 | LR__0130
021c0                 | LR__0131
021c0                 | LR__0132
021c0                 | LR__0133
021c0     85 04 01 F6 | 	mov	result1, _var01
021c4                 | __system__bytemove_ret
021c4     2D 00 64 FD | 	ret
021c8                 | 
021c8                 | __system__longmove
021c8     A5 0A 01 F6 | 	mov	_var01, arg01
021cc     A6 4A 59 F2 | 	cmps	arg01, arg02 wcz
021d0     28 00 90 3D |  if_ae	jmp	#LR__0138
021d4     A7 0C 09 F6 | 	mov	_var02, arg03 wz
021d8     5C 00 90 AD |  if_e	jmp	#LR__0144
021dc     34 DE 9F FE | 	loc	pa,	#(@LR__0136-@LR__0134)
021e0     35 00 A0 FD | 	call	#FCACHE_LOAD_
021e4                 | LR__0134
021e4     86 08 D8 FC | 	rep	@LR__0137, _var02
021e8                 | LR__0135
021e8     A6 0E 01 FB | 	rdlong	_var03, arg02
021ec     A5 0E 61 FC | 	wrlong	_var03, arg01
021f0     04 4A 05 F1 | 	add	arg01, #4
021f4     04 4C 05 F1 | 	add	arg02, #4
021f8                 | LR__0136
021f8                 | LR__0137
021f8     3C 00 90 FD | 	jmp	#LR__0144
021fc                 | LR__0138
021fc     A7 10 01 F6 | 	mov	_var04, arg03
02200     02 10 65 F0 | 	shl	_var04, #2
02204     88 4A 01 F1 | 	add	arg01, _var04
02208     A7 10 01 F6 | 	mov	_var04, arg03
0220c     02 10 65 F0 | 	shl	_var04, #2
02210     88 4C 01 F1 | 	add	arg02, _var04
02214     A7 12 09 F6 | 	mov	_var05, arg03 wz
02218     1C 00 90 AD |  if_e	jmp	#LR__0143
0221c     F4 DD 9F FE | 	loc	pa,	#(@LR__0141-@LR__0139)
02220     35 00 A0 FD | 	call	#FCACHE_LOAD_
02224                 | LR__0139
02224     89 08 D8 FC | 	rep	@LR__0142, _var05
02228                 | LR__0140
02228     04 4A 85 F1 | 	sub	arg01, #4
0222c     04 4C 85 F1 | 	sub	arg02, #4
02230     A6 0E 01 FB | 	rdlong	_var03, arg02
02234     A5 0E 61 FC | 	wrlong	_var03, arg01
02238                 | LR__0141
02238                 | LR__0142
02238                 | LR__0143
02238                 | LR__0144
02238     85 04 01 F6 | 	mov	result1, _var01
0223c                 | __system__longmove_ret
0223c     2D 00 64 FD | 	ret
02240                 | 
02240                 | __system___make_methodptr
02240     04 88 04 F6 | 	mov	COUNT_, #4
02244     4B 00 A0 FD | 	call	#pushregs_
02248     A5 54 01 F6 | 	mov	local01, arg01
0224c     A6 56 01 F6 | 	mov	local02, arg02
02250     08 4A 05 F6 | 	mov	arg01, #8
02254     98 04 B0 FD | 	call	#__system___gc_alloc_managed
02258     82 58 09 F6 | 	mov	local03, result1 wz
0225c     10 00 90 AD |  if_e	jmp	#LR__0145
02260     AC 54 61 FC | 	wrlong	local01, local03
02264     AC 5A 01 F6 | 	mov	local04, local03
02268     04 5A 05 F1 | 	add	local04, #4
0226c     AD 56 61 FC | 	wrlong	local02, local04
02270                 | LR__0145
02270     AC 04 01 F6 | 	mov	result1, local03
02274     46 F0 03 F6 | 	mov	ptra, fp
02278     5A 00 A0 FD | 	call	#popregs_
0227c                 | __system___make_methodptr_ret
0227c     2D 00 64 FD | 	ret
02280                 | 
02280                 | __system___tx
02280     02 88 04 F6 | 	mov	COUNT_, #2
02284     4B 00 A0 FD | 	call	#pushregs_
02288     A5 54 01 F6 | 	mov	local01, arg01
0228c     0A 54 0D F2 | 	cmp	local01, #10 wz
02290     20 00 90 5D |  if_ne	jmp	#LR__0146
02294     08 F6 04 F1 | 	add	ptr___system__dat__, #8
02298     7B 56 01 FB | 	rdlong	local02, ptr___system__dat__
0229c     08 F6 84 F1 | 	sub	ptr___system__dat__, #8
022a0     02 56 CD F7 | 	test	local02, #2 wz
022a4     0C 00 90 AD |  if_e	jmp	#LR__0146
022a8     0D 56 05 F6 | 	mov	local02, #13
022ac     0D 4A 05 F6 | 	mov	arg01, #13
022b0     E4 FD BF FD | 	call	#__system___txraw
022b4                 | LR__0146
022b4     AA 4A 01 F6 | 	mov	arg01, local01
022b8     DC FD BF FD | 	call	#__system___txraw
022bc     46 F0 03 F6 | 	mov	ptra, fp
022c0     5A 00 A0 FD | 	call	#popregs_
022c4                 | __system___tx_ret
022c4     2D 00 64 FD | 	ret
022c8                 | 
022c8                 | __system___lockmem
022c8     02 88 04 F6 | 	mov	COUNT_, #2
022cc     4B 00 A0 FD | 	call	#pushregs_
022d0     A5 54 01 F6 | 	mov	local01, arg01
022d4     68 DD 9F FE | 	loc	pa,	#(@LR__0149-@LR__0147)
022d8     35 00 A0 FD | 	call	#FCACHE_LOAD_
022dc                 | LR__0147
022dc                 | LR__0148
022dc     FF FF 7F FF 
022e0     FD 4B 05 FB | 	rdlong	arg01, ##-3
022e4     06 4A 71 FD | 	locktry	arg01 wc
022e8     FF FF 7F FF 
022ec     FF 05 A5 F5 | 	muxnc	result1, ##-1
022f0     00 04 0D F2 | 	cmp	result1, #0 wz
022f4     E4 FF 9F 5D |  if_ne	jmp	#LR__0148
022f8     AA 56 C9 FA | 	rdbyte	local02, local01 wz
022fc     AA 02 48 AC |  if_e	wrbyte	#1, local01
02300     FF FF 7F FF 
02304     FD 4B 05 FB | 	rdlong	arg01, ##-3
02308     07 4A 71 FD | 	lockrel	arg01 wc
0230c     FF FF 7F FF 
02310     FF 05 85 F5 | 	muxc	result1, ##-1
02314     00 56 0D F2 | 	cmp	local02, #0 wz
02318     C0 FF 9F 5D |  if_ne	jmp	#LR__0147
0231c                 | LR__0149
0231c     46 F0 03 F6 | 	mov	ptra, fp
02320     5A 00 A0 FD | 	call	#popregs_
02324                 | __system___lockmem_ret
02324     2D 00 64 FD | 	ret
02328                 | 
02328                 | __system___pinread
02328     20 4A CD F7 | 	test	arg01, #32 wz
0232c     FF 0B 01 56 |  if_ne	mov	_var01, inb
02330     FE 0B 01 A6 |  if_e	mov	_var01, ina
02334     A5 0A 41 F0 | 	shr	_var01, arg01
02338     06 4A 45 F0 | 	shr	arg01, #6
0233c     A5 0A 41 F7 | 	zerox	_var01, arg01
02340     85 04 01 F6 | 	mov	result1, _var01
02344                 | __system___pinread_ret
02344     2D 00 64 FD | 	ret
02348                 | 
02348                 | __system___waitms
02348     02 88 04 F6 | 	mov	COUNT_, #2
0234c     4B 00 A0 FD | 	call	#pushregs_
02350     A5 54 01 F6 | 	mov	local01, arg01
02354     14 56 05 FB | 	rdlong	local02, #20
02358     BC DC 9F FE | 	loc	pa,	#(@LR__0151-@LR__0150)
0235c     35 00 A0 FD | 	call	#FCACHE_LOAD_
02360                 | LR__0150
02360     01 00 00 FF 
02364     E8 55 5D F2 | 	cmps	local01, ##1000 wcz
02368     1F 56 61 1D |  if_a	waitx	local02
0236c     01 00 00 1F 
02370     E8 55 85 11 |  if_a	sub	local01, ##1000
02374     E8 FF 9F 1D |  if_a	jmp	#LR__0150
02378                 | LR__0151
02378     00 54 5D F2 | 	cmps	local01, #0 wcz
0237c     1C 00 90 ED |  if_be	jmp	#LR__0152
02380     AB 70 01 F6 | 	mov	muldiva_, local02
02384     01 00 00 FF 
02388     E8 73 05 F6 | 	mov	muldivb_, ##1000
0238c     6B 00 A0 FD | 	call	#divide_
02390     B9 54 01 FD | 	qmul	local01, muldivb_
02394     18 4A 61 FD | 	getqx	arg01
02398     1F 4A 61 FD | 	waitx	arg01
0239c                 | LR__0152
0239c     46 F0 03 F6 | 	mov	ptra, fp
023a0     5A 00 A0 FD | 	call	#popregs_
023a4                 | __system___waitms_ret
023a4     2D 00 64 FD | 	ret
023a8                 | 
023a8                 | __system___waitus
023a8     02 88 04 F6 | 	mov	COUNT_, #2
023ac     4B 00 A0 FD | 	call	#pushregs_
023b0     A5 54 01 F6 | 	mov	local01, arg01
023b4     14 56 05 FB | 	rdlong	local02, #20
023b8     5C DC 9F FE | 	loc	pa,	#(@LR__0154-@LR__0153)
023bc     35 00 A0 FD | 	call	#FCACHE_LOAD_
023c0                 | LR__0153
023c0     A1 07 00 FF 
023c4     40 54 5D F2 | 	cmps	local01, ##1000000 wcz
023c8     1F 56 61 1D |  if_a	waitx	local02
023cc     A1 07 00 1F 
023d0     40 54 85 11 |  if_a	sub	local01, ##1000000
023d4     E8 FF 9F 1D |  if_a	jmp	#LR__0153
023d8                 | LR__0154
023d8     00 54 5D F2 | 	cmps	local01, #0 wcz
023dc     1C 00 90 ED |  if_be	jmp	#LR__0155
023e0     AB 70 01 F6 | 	mov	muldiva_, local02
023e4     A1 07 00 FF 
023e8     40 72 05 F6 | 	mov	muldivb_, ##1000000
023ec     6B 00 A0 FD | 	call	#divide_
023f0     B9 54 01 FD | 	qmul	local01, muldivb_
023f4     18 4A 61 FD | 	getqx	arg01
023f8     1F 4A 61 FD | 	waitx	arg01
023fc                 | LR__0155
023fc     46 F0 03 F6 | 	mov	ptra, fp
02400     5A 00 A0 FD | 	call	#popregs_
02404                 | __system___waitus_ret
02404     2D 00 64 FD | 	ret
02408                 | 
02408                 | __system___gc_ptrs
02408     75 0A 01 F6 | 	mov	_var01, __heap_ptr
0240c     85 0C 01 F6 | 	mov	_var02, _var01
02410     07 00 00 FF 
02414     F8 0D 05 F1 | 	add	_var02, ##4088
02418     85 0E 09 FB | 	rdlong	_var03, _var01 wz
0241c     74 00 90 5D |  if_ne	jmp	#LR__0156
02420     86 10 01 F6 | 	mov	_var04, _var02
02424     85 10 81 F1 | 	sub	_var04, _var01
02428     85 02 58 FC | 	wrword	#1, _var01
0242c     85 0E 01 F6 | 	mov	_var03, _var01
02430     02 0E 05 F1 | 	add	_var03, #2
02434     36 00 80 FF 
02438     87 20 59 FC | 	wrword	##27792, _var03
0243c     85 0E 01 F6 | 	mov	_var03, _var01
02440     04 0E 05 F1 | 	add	_var03, #4
02444     87 00 58 FC | 	wrword	#0, _var03
02448     85 0E 01 F6 | 	mov	_var03, _var01
0244c     06 0E 05 F1 | 	add	_var03, #6
02450     87 02 58 FC | 	wrword	#1, _var03
02454     10 0A 05 F1 | 	add	_var01, #16
02458     88 0E 51 F6 | 	abs	_var03, _var04 wc
0245c     04 0E 45 F0 | 	shr	_var03, #4
02460     87 0E 61 C6 |  if_b	neg	_var03, _var03
02464     85 0E 51 FC | 	wrword	_var03, _var01
02468     85 0E 01 F6 | 	mov	_var03, _var01
0246c     02 0E 05 F1 | 	add	_var03, #2
02470     36 00 80 FF 
02474     87 1E 59 FC | 	wrword	##27791, _var03
02478     85 0E 01 F6 | 	mov	_var03, _var01
0247c     04 0E 05 F1 | 	add	_var03, #4
02480     87 00 58 FC | 	wrword	#0, _var03
02484     85 0E 01 F6 | 	mov	_var03, _var01
02488     06 0E 05 F1 | 	add	_var03, #6
0248c     87 00 58 FC | 	wrword	#0, _var03
02490     10 0A 85 F1 | 	sub	_var01, #16
02494                 | LR__0156
02494     86 06 01 F6 | 	mov	result2, _var02
02498     85 04 01 F6 | 	mov	result1, _var01
0249c                 | __system___gc_ptrs_ret
0249c     2D 00 64 FD | 	ret
024a0                 | 
024a0                 | __system___gc_nextBlockPtr
024a0     02 88 04 F6 | 	mov	COUNT_, #2
024a4     4B 00 A0 FD | 	call	#pushregs_
024a8     A5 54 01 F6 | 	mov	local01, arg01
024ac     AA 56 E9 FA | 	rdword	local02, local01 wz
024b0     10 00 90 5D |  if_ne	jmp	#LR__0157
024b4     16 00 00 FF 
024b8     04 4B 05 F6 | 	mov	arg01, ##@LR__0200
024bc     FC 01 B0 FD | 	call	#__system___gc_errmsg
024c0     0C 00 90 FD | 	jmp	#LR__0158
024c4                 | LR__0157
024c4     AA 04 01 F6 | 	mov	result1, local01
024c8     04 56 65 F0 | 	shl	local02, #4
024cc     AB 04 01 F1 | 	add	result1, local02
024d0                 | LR__0158
024d0     46 F0 03 F6 | 	mov	ptra, fp
024d4     5A 00 A0 FD | 	call	#popregs_
024d8                 | __system___gc_nextBlockPtr_ret
024d8     2D 00 64 FD | 	ret
024dc                 | 
024dc                 | __system___gc_tryalloc
024dc     0E 88 04 F6 | 	mov	COUNT_, #14
024e0     4B 00 A0 FD | 	call	#pushregs_
024e4     A5 54 01 F6 | 	mov	local01, arg01
024e8     A6 56 01 F6 | 	mov	local02, arg02
024ec     18 FF BF FD | 	call	#__system___gc_ptrs
024f0     82 58 01 F6 | 	mov	local03, result1
024f4     83 5A 01 F6 | 	mov	local04, result2
024f8     AC 5C 01 F6 | 	mov	local05, local03
024fc     00 5E 05 F6 | 	mov	local06, #0
02500     50 DB 9F FE | 	loc	pa,	#(@LR__0160-@LR__0159)
02504     35 00 A0 FD | 	call	#FCACHE_LOAD_
02508                 | LR__0159
02508     AE 60 01 F6 | 	mov	local07, local05
0250c     AC 62 01 F6 | 	mov	local08, local03
02510     AE 64 01 F6 | 	mov	local09, local05
02514     06 64 05 F1 | 	add	local09, #6
02518     B2 66 E1 FA | 	rdword	local10, local09
0251c     B1 4A 01 F6 | 	mov	arg01, local08
02520     B3 4C 09 F6 | 	mov	arg02, local10 wz
02524     00 04 05 A6 |  if_e	mov	result1, #0
02528     04 4C 65 50 |  if_ne	shl	arg02, #4
0252c     A6 4A 01 51 |  if_ne	add	arg01, arg02
02530     A5 04 01 56 |  if_ne	mov	result1, arg01
02534     82 68 01 F6 | 	mov	local11, result1
02538     B4 5C 09 F6 | 	mov	local05, local11 wz
0253c     AE 62 01 56 |  if_ne	mov	local08, local05
02540     B1 5E E1 5A |  if_ne	rdword	local06, local08
02544     00 5C 0D F2 | 	cmp	local05, #0 wz
02548     10 00 90 AD |  if_e	jmp	#LR__0161
0254c     AD 5C 59 F2 | 	cmps	local05, local04 wcz
02550     08 00 90 3D |  if_ae	jmp	#LR__0161
02554     AF 54 59 F2 | 	cmps	local01, local06 wcz
02558     AC FF 9F 1D |  if_a	jmp	#LR__0159
0255c                 | LR__0160
0255c                 | LR__0161
0255c     00 5C 0D F2 | 	cmp	local05, #0 wz
02560     AE 04 01 A6 |  if_e	mov	result1, local05
02564     48 01 90 AD |  if_e	jmp	#LR__0164
02568     AE 62 01 F6 | 	mov	local08, local05
0256c     06 62 05 F1 | 	add	local08, #6
02570     B1 6A E1 FA | 	rdword	local12, local08
02574     AF 54 59 F2 | 	cmps	local01, local06 wcz
02578     C8 00 90 3D |  if_ae	jmp	#LR__0163
0257c     AE 54 51 FC | 	wrword	local01, local05
02580     AE 4A 01 F6 | 	mov	arg01, local05
02584     AA 64 01 F6 | 	mov	local09, local01
02588     04 64 65 F0 | 	shl	local09, #4
0258c     B2 4A 01 F1 | 	add	arg01, local09
02590     AF 62 01 F6 | 	mov	local08, local06
02594     AA 62 81 F1 | 	sub	local08, local01
02598     A5 62 51 FC | 	wrword	local08, arg01
0259c     A5 62 01 F6 | 	mov	local08, arg01
025a0     02 62 05 F1 | 	add	local08, #2
025a4     36 00 80 FF 
025a8     B1 1E 59 FC | 	wrword	##27791, local08
025ac     AE 4C 09 F6 | 	mov	arg02, local05 wz
025b0     00 04 05 A6 |  if_e	mov	result1, #0
025b4     AC 4C 81 51 |  if_ne	sub	arg02, local03
025b8     04 4C 45 50 |  if_ne	shr	arg02, #4
025bc     A6 04 01 56 |  if_ne	mov	result1, arg02
025c0     A5 68 01 F6 | 	mov	local11, arg01
025c4     04 68 05 F1 | 	add	local11, #4
025c8     B4 04 51 FC | 	wrword	result1, local11
025cc     AE 62 01 F6 | 	mov	local08, local05
025d0     06 62 05 F1 | 	add	local08, #6
025d4     A5 64 01 F6 | 	mov	local09, arg01
025d8     B1 66 E1 FA | 	rdword	local10, local08
025dc     06 64 05 F1 | 	add	local09, #6
025e0     B2 66 51 FC | 	wrword	local10, local09
025e4     A5 6C 01 F6 | 	mov	local13, arg01
025e8     B6 4C 09 F6 | 	mov	arg02, local13 wz
025ec     00 04 05 A6 |  if_e	mov	result1, #0
025f0     AC 4C 81 51 |  if_ne	sub	arg02, local03
025f4     04 4C 45 50 |  if_ne	shr	arg02, #4
025f8     A6 04 01 56 |  if_ne	mov	result1, arg02
025fc     82 6A 01 F6 | 	mov	local12, result1
02600     9C FE BF FD | 	call	#__system___gc_nextBlockPtr
02604     82 6E 09 F6 | 	mov	local14, result1 wz
02608     38 00 90 AD |  if_e	jmp	#LR__0162
0260c     AD 6E 59 F2 | 	cmps	local14, local04 wcz
02610     30 00 90 3D |  if_ae	jmp	#LR__0162
02614     AC 62 01 F6 | 	mov	local08, local03
02618     B6 64 01 F6 | 	mov	local09, local13
0261c     B1 4A 01 F6 | 	mov	arg01, local08
02620     B2 4C 09 F6 | 	mov	arg02, local09 wz
02624     00 04 05 A6 |  if_e	mov	result1, #0
02628     A5 4C 81 51 |  if_ne	sub	arg02, arg01
0262c     04 4C 45 50 |  if_ne	shr	arg02, #4
02630     A6 04 01 56 |  if_ne	mov	result1, arg02
02634     82 66 01 F6 | 	mov	local10, result1
02638     B7 68 01 F6 | 	mov	local11, local14
0263c     04 68 05 F1 | 	add	local11, #4
02640     B4 66 51 FC | 	wrword	local10, local11
02644                 | LR__0162
02644                 | LR__0163
02644     06 60 05 F1 | 	add	local07, #6
02648     B0 6A 51 FC | 	wrword	local12, local07
0264c     36 00 00 FF 
02650     80 62 05 F6 | 	mov	local08, ##27776
02654     AB 62 41 F5 | 	or	local08, local02
02658     01 04 61 FD | 	cogid	result1
0265c     82 62 41 F5 | 	or	local08, result1
02660     AE 66 01 F6 | 	mov	local10, local05
02664     02 66 05 F1 | 	add	local10, #2
02668     B3 62 51 FC | 	wrword	local08, local10
0266c     AC 62 01 F6 | 	mov	local08, local03
02670     08 62 05 F1 | 	add	local08, #8
02674     AE 64 01 F6 | 	mov	local09, local05
02678     B1 66 E1 FA | 	rdword	local10, local08
0267c     06 64 05 F1 | 	add	local09, #6
02680     B2 66 51 FC | 	wrword	local10, local09
02684     AE 4C 09 F6 | 	mov	arg02, local05 wz
02688     00 04 05 A6 |  if_e	mov	result1, #0
0268c     AC 4C 81 51 |  if_ne	sub	arg02, local03
02690     04 4C 45 50 |  if_ne	shr	arg02, #4
02694     A6 04 01 56 |  if_ne	mov	result1, arg02
02698     08 58 05 F1 | 	add	local03, #8
0269c     AC 04 51 FC | 	wrword	result1, local03
026a0     08 5C 05 F1 | 	add	local05, #8
026a4     AE 04 01 F6 | 	mov	result1, local05
026a8     00 C0 31 FF 
026ac     00 04 45 F5 | 	or	result1, ##1669332992
026b0                 | LR__0164
026b0     46 F0 03 F6 | 	mov	ptra, fp
026b4     5A 00 A0 FD | 	call	#popregs_
026b8                 | __system___gc_tryalloc_ret
026b8     2D 00 64 FD | 	ret
026bc                 | 
026bc                 | __system___gc_errmsg
026bc     02 88 04 F6 | 	mov	COUNT_, #2
026c0     4B 00 A0 FD | 	call	#pushregs_
026c4     A5 54 01 F6 | 	mov	local01, arg01
026c8                 | LR__0165
026c8     AA 56 C9 FA | 	rdbyte	local02, local01 wz
026cc     01 54 05 F1 | 	add	local01, #1
026d0     0C 00 90 AD |  if_e	jmp	#LR__0166
026d4     AB 4A 01 F6 | 	mov	arg01, local02
026d8     A4 FB BF FD | 	call	#__system___tx
026dc     E8 FF 9F FD | 	jmp	#LR__0165
026e0                 | LR__0166
026e0     00 04 05 F6 | 	mov	result1, #0
026e4     46 F0 03 F6 | 	mov	ptra, fp
026e8     5A 00 A0 FD | 	call	#popregs_
026ec                 | __system___gc_errmsg_ret
026ec     2D 00 64 FD | 	ret
026f0                 | 
026f0                 | __system___gc_alloc_managed
026f0     02 88 04 F6 | 	mov	COUNT_, #2
026f4     4B 00 A0 FD | 	call	#pushregs_
026f8     A5 54 01 F6 | 	mov	local01, arg01
026fc     00 4C 05 F6 | 	mov	arg02, #0
02700     30 00 B0 FD | 	call	#__system___gc_doalloc
02704     82 56 09 F6 | 	mov	local02, result1 wz
02708     18 00 90 5D |  if_ne	jmp	#LR__0167
0270c     00 54 5D F2 | 	cmps	local01, #0 wcz
02710     10 00 90 ED |  if_be	jmp	#LR__0167
02714     16 00 00 FF 
02718     20 4B 05 F6 | 	mov	arg01, ##@LR__0201
0271c     9C FF BF FD | 	call	#__system___gc_errmsg
02720     04 00 90 FD | 	jmp	#LR__0168
02724                 | LR__0167
02724     AB 04 01 F6 | 	mov	result1, local02
02728                 | LR__0168
02728     46 F0 03 F6 | 	mov	ptra, fp
0272c     5A 00 A0 FD | 	call	#popregs_
02730                 | __system___gc_alloc_managed_ret
02730     2D 00 64 FD | 	ret
02734                 | 
02734                 | __system___gc_doalloc
02734     06 88 04 F6 | 	mov	COUNT_, #6
02738     4B 00 A0 FD | 	call	#pushregs_
0273c     A5 54 09 F6 | 	mov	local01, arg01 wz
02740     A6 56 01 F6 | 	mov	local02, arg02
02744     00 04 05 A6 |  if_e	mov	result1, #0
02748     94 00 90 AD |  if_e	jmp	#LR__0176
0274c     17 54 05 F1 | 	add	local01, #23
02750     0F 54 25 F5 | 	andn	local01, #15
02754     04 54 45 F0 | 	shr	local01, #4
02758     0C F6 04 F1 | 	add	ptr___system__dat__, #12
0275c     7B 4A 01 F6 | 	mov	arg01, ptr___system__dat__
02760     0C F6 84 F1 | 	sub	ptr___system__dat__, #12
02764     60 FB BF FD | 	call	#__system___lockmem
02768     AA 4A 01 F6 | 	mov	arg01, local01
0276c     AB 4C 01 F6 | 	mov	arg02, local02
02770     68 FD BF FD | 	call	#__system___gc_tryalloc
02774     82 58 09 F6 | 	mov	local03, result1 wz
02778     14 00 90 5D |  if_ne	jmp	#LR__0169
0277c     58 03 B0 FD | 	call	#__system___gc_docollect
02780     AA 4A 01 F6 | 	mov	arg01, local01
02784     AB 4C 01 F6 | 	mov	arg02, local02
02788     50 FD BF FD | 	call	#__system___gc_tryalloc
0278c     82 58 01 F6 | 	mov	local03, result1
02790                 | LR__0169
02790     0C F6 04 F1 | 	add	ptr___system__dat__, #12
02794     7B 4A 01 F6 | 	mov	arg01, ptr___system__dat__
02798     0C F6 84 F1 | 	sub	ptr___system__dat__, #12
0279c     A5 00 48 FC | 	wrbyte	#0, arg01
027a0     00 58 0D F2 | 	cmp	local03, #0 wz
027a4     34 00 90 AD |  if_e	jmp	#LR__0175
027a8     04 54 65 F0 | 	shl	local01, #4
027ac     08 54 85 F1 | 	sub	local01, #8
027b0     AA 5A 51 F6 | 	abs	local04, local01 wc
027b4     02 5A 45 F0 | 	shr	local04, #2
027b8     AD 5A 61 C6 |  if_b	neg	local04, local04
027bc     AD 5C 09 F6 | 	mov	local05, local04 wz
027c0     AC 5E 01 F6 | 	mov	local06, local03
027c4     14 00 90 AD |  if_e	jmp	#LR__0174
027c8     40 D8 9F FE | 	loc	pa,	#(@LR__0172-@LR__0170)
027cc     35 00 A0 FD | 	call	#FCACHE_LOAD_
027d0                 | LR__0170
027d0     AE 04 D8 FC | 	rep	@LR__0173, local05
027d4                 | LR__0171
027d4     AF 00 68 FC | 	wrlong	#0, local06
027d8     04 5E 05 F1 | 	add	local06, #4
027dc                 | LR__0172
027dc                 | LR__0173
027dc                 | LR__0174
027dc                 | LR__0175
027dc     AC 04 01 F6 | 	mov	result1, local03
027e0                 | LR__0176
027e0     46 F0 03 F6 | 	mov	ptra, fp
027e4     5A 00 A0 FD | 	call	#popregs_
027e8                 | __system___gc_doalloc_ret
027e8     2D 00 64 FD | 	ret
027ec                 | 
027ec                 | __system___gc_isvalidptr
027ec     A7 0A 01 F6 | 	mov	_var01, arg03
027f0     85 0C 01 F6 | 	mov	_var02, _var01
027f4     00 F8 7F FF 
027f8     00 0C 05 F5 | 	and	_var02, ##-1048576
027fc     00 C0 31 FF 
02800     00 0C 0D F2 | 	cmp	_var02, ##1669332992 wz
02804     00 04 05 56 |  if_ne	mov	result1, #0
02808     5C 00 90 5D |  if_ne	jmp	#__system___gc_isvalidptr_ret
0280c     08 0A 85 F1 | 	sub	_var01, #8
02810     00 F8 7F FF 
02814     00 0A 25 F5 | 	andn	_var01, ##-1048576
02818     A5 0A 59 F2 | 	cmps	_var01, arg01 wcz
0281c     08 00 90 CD |  if_b	jmp	#LR__0177
02820     A6 0A 59 F2 | 	cmps	_var01, arg02 wcz
02824     08 00 90 CD |  if_b	jmp	#LR__0178
02828                 | LR__0177
02828     00 04 05 F6 | 	mov	result1, #0
0282c     38 00 90 FD | 	jmp	#__system___gc_isvalidptr_ret
02830                 | LR__0178
02830     85 0C 01 F6 | 	mov	_var02, _var01
02834     A5 0C 61 F5 | 	xor	_var02, arg01
02838     0F 0C 0D F5 | 	and	_var02, #15 wz
0283c     00 04 05 56 |  if_ne	mov	result1, #0
02840     24 00 90 5D |  if_ne	jmp	#__system___gc_isvalidptr_ret
02844     85 0C 01 F6 | 	mov	_var02, _var01
02848     02 0C 05 F1 | 	add	_var02, #2
0284c     86 0C E1 FA | 	rdword	_var02, _var02
02850     7F 00 00 FF 
02854     C0 0D 05 F5 | 	and	_var02, ##65472
02858     36 00 00 FF 
0285c     80 0C 0D F2 | 	cmp	_var02, ##27776 wz
02860     00 04 05 56 |  if_ne	mov	result1, #0
02864     85 04 01 A6 |  if_e	mov	result1, _var01
02868                 | __system___gc_isvalidptr_ret
02868     2D 00 64 FD | 	ret
0286c                 | 
0286c                 | __system___gc_dofree
0286c     0D 88 04 F6 | 	mov	COUNT_, #13
02870     4B 00 A0 FD | 	call	#pushregs_
02874     A5 54 01 F6 | 	mov	local01, arg01
02878     8C FB BF FD | 	call	#__system___gc_ptrs
0287c     82 56 01 F6 | 	mov	local02, result1
02880     83 58 01 F6 | 	mov	local03, result2
02884     AA 5A 01 F6 | 	mov	local04, local01
02888     02 5A 05 F1 | 	add	local04, #2
0288c     36 00 80 FF 
02890     AD 1E 59 FC | 	wrword	##27791, local04
02894     AA 5C 01 F6 | 	mov	local05, local01
02898     AA 4A 01 F6 | 	mov	arg01, local01
0289c     00 FC BF FD | 	call	#__system___gc_nextBlockPtr
028a0     82 5E 01 F6 | 	mov	local06, result1
028a4     A4 D7 9F FE | 	loc	pa,	#(@LR__0180-@LR__0179)
028a8     35 00 A0 FD | 	call	#FCACHE_LOAD_
028ac                 | LR__0179
028ac     04 5C 05 F1 | 	add	local05, #4
028b0     AE 4C E9 FA | 	rdword	arg02, local05 wz
028b4     AB 4A 01 F6 | 	mov	arg01, local02
028b8     00 04 05 A6 |  if_e	mov	result1, #0
028bc     04 4C 65 50 |  if_ne	shl	arg02, #4
028c0     A6 4A 01 51 |  if_ne	add	arg01, arg02
028c4     A5 04 01 56 |  if_ne	mov	result1, arg01
028c8     82 5C 09 F6 | 	mov	local05, result1 wz
028cc     28 00 90 AD |  if_e	jmp	#LR__0181
028d0     AE 4A 01 F6 | 	mov	arg01, local05
028d4     00 60 05 F6 | 	mov	local07, #0
028d8     02 4A 05 F1 | 	add	arg01, #2
028dc     A5 62 E1 FA | 	rdword	local08, arg01
028e0     36 00 00 FF 
028e4     8F 62 0D F2 | 	cmp	local08, ##27791 wz
028e8     01 60 65 A6 |  if_e	neg	local07, #1
028ec     B0 04 01 F6 | 	mov	result1, local07
028f0     82 64 09 F6 | 	mov	local09, result1 wz
028f4     B4 FF 9F AD |  if_e	jmp	#LR__0179
028f8                 | LR__0180
028f8                 | LR__0181
028f8     00 5C 0D F2 | 	cmp	local05, #0 wz
028fc     AB 5C 01 A6 |  if_e	mov	local05, local02
02900     AE 5A 01 F6 | 	mov	local04, local05
02904     06 5A 05 F1 | 	add	local04, #6
02908     AA 64 01 F6 | 	mov	local09, local01
0290c     AD 66 E1 FA | 	rdword	local10, local04
02910     06 64 05 F1 | 	add	local09, #6
02914     B2 66 51 FC | 	wrword	local10, local09
02918     AA 4C 09 F6 | 	mov	arg02, local01 wz
0291c     00 04 05 A6 |  if_e	mov	result1, #0
02920     AB 4C 81 51 |  if_ne	sub	arg02, local02
02924     04 4C 45 50 |  if_ne	shr	arg02, #4
02928     A6 04 01 56 |  if_ne	mov	result1, arg02
0292c     82 66 01 F6 | 	mov	local10, result1
02930     AE 68 01 F6 | 	mov	local11, local05
02934     06 68 05 F1 | 	add	local11, #6
02938     B4 66 51 FC | 	wrword	local10, local11
0293c     AB 5C 09 F2 | 	cmp	local05, local02 wz
02940     84 00 90 AD |  if_e	jmp	#LR__0184
02944     AE 4A 01 F6 | 	mov	arg01, local05
02948     54 FB BF FD | 	call	#__system___gc_nextBlockPtr
0294c     AA 04 09 F2 | 	cmp	result1, local01 wz
02950     74 00 90 5D |  if_ne	jmp	#LR__0183
02954     AE 5A E1 FA | 	rdword	local04, local05
02958     AA 68 E1 FA | 	rdword	local11, local01
0295c     B4 5A 01 F1 | 	add	local04, local11
02960     AE 5A 51 FC | 	wrword	local04, local05
02964     AA 5A 01 F6 | 	mov	local04, local01
02968     02 5A 05 F1 | 	add	local04, #2
0296c     AD 00 58 FC | 	wrword	#0, local04
02970     AA 4A 01 F6 | 	mov	arg01, local01
02974     28 FB BF FD | 	call	#__system___gc_nextBlockPtr
02978     82 5E 01 F6 | 	mov	local06, result1
0297c     AC 5E 59 F2 | 	cmps	local06, local03 wcz
02980     20 00 90 3D |  if_ae	jmp	#LR__0182
02984     AE 4C 09 F6 | 	mov	arg02, local05 wz
02988     00 04 05 A6 |  if_e	mov	result1, #0
0298c     AB 4C 81 51 |  if_ne	sub	arg02, local02
02990     04 4C 45 50 |  if_ne	shr	arg02, #4
02994     A6 04 01 56 |  if_ne	mov	result1, arg02
02998     AF 68 01 F6 | 	mov	local11, local06
0299c     04 68 05 F1 | 	add	local11, #4
029a0     B4 04 51 FC | 	wrword	result1, local11
029a4                 | LR__0182
029a4     AA 5A 01 F6 | 	mov	local04, local01
029a8     06 5A 05 F1 | 	add	local04, #6
029ac     AE 64 01 F6 | 	mov	local09, local05
029b0     AD 66 E1 FA | 	rdword	local10, local04
029b4     06 64 05 F1 | 	add	local09, #6
029b8     B2 66 51 FC | 	wrword	local10, local09
029bc     06 54 05 F1 | 	add	local01, #6
029c0     AA 00 58 FC | 	wrword	#0, local01
029c4     AE 54 01 F6 | 	mov	local01, local05
029c8                 | LR__0183
029c8                 | LR__0184
029c8     AA 4A 01 F6 | 	mov	arg01, local01
029cc     D0 FA BF FD | 	call	#__system___gc_nextBlockPtr
029d0     82 6A 09 F6 | 	mov	local12, result1 wz
029d4     C8 00 90 AD |  if_e	jmp	#LR__0186
029d8     AC 6A 59 F2 | 	cmps	local12, local03 wcz
029dc     C0 00 90 3D |  if_ae	jmp	#LR__0186
029e0     B5 4A 01 F6 | 	mov	arg01, local12
029e4     00 60 05 F6 | 	mov	local07, #0
029e8     02 4A 05 F1 | 	add	arg01, #2
029ec     A5 62 E1 FA | 	rdword	local08, arg01
029f0     36 00 00 FF 
029f4     8F 62 0D F2 | 	cmp	local08, ##27791 wz
029f8     01 60 65 A6 |  if_e	neg	local07, #1
029fc     B0 04 09 F6 | 	mov	result1, local07 wz
02a00     9C 00 90 AD |  if_e	jmp	#LR__0186
02a04     AA 5C 01 F6 | 	mov	local05, local01
02a08     AE 5A E1 FA | 	rdword	local04, local05
02a0c     B5 54 01 F6 | 	mov	local01, local12
02a10     AA 68 E1 FA | 	rdword	local11, local01
02a14     B4 5A 01 F1 | 	add	local04, local11
02a18     AE 6C 01 F6 | 	mov	local13, local05
02a1c     B6 5A 51 FC | 	wrword	local04, local13
02a20     AA 5A 01 F6 | 	mov	local04, local01
02a24     06 5A 05 F1 | 	add	local04, #6
02a28     AE 64 01 F6 | 	mov	local09, local05
02a2c     AD 66 E1 FA | 	rdword	local10, local04
02a30     06 64 05 F1 | 	add	local09, #6
02a34     B2 66 51 FC | 	wrword	local10, local09
02a38     AA 5A 01 F6 | 	mov	local04, local01
02a3c     02 5A 05 F1 | 	add	local04, #2
02a40     AD 54 59 FC | 	wrword	#170, local04
02a44     AA 5A 01 F6 | 	mov	local04, local01
02a48     06 5A 05 F1 | 	add	local04, #6
02a4c     AD 00 58 FC | 	wrword	#0, local04
02a50     AA 5A 01 F6 | 	mov	local04, local01
02a54     AD 4A 01 F6 | 	mov	arg01, local04
02a58     44 FA BF FD | 	call	#__system___gc_nextBlockPtr
02a5c     82 64 01 F6 | 	mov	local09, result1
02a60     B2 5E 09 F6 | 	mov	local06, local09 wz
02a64     38 00 90 AD |  if_e	jmp	#LR__0185
02a68     AC 5E 59 F2 | 	cmps	local06, local03 wcz
02a6c     30 00 90 3D |  if_ae	jmp	#LR__0185
02a70     AB 5A 01 F6 | 	mov	local04, local02
02a74     AE 64 01 F6 | 	mov	local09, local05
02a78     AD 4A 01 F6 | 	mov	arg01, local04
02a7c     B2 4C 09 F6 | 	mov	arg02, local09 wz
02a80     00 04 05 A6 |  if_e	mov	result1, #0
02a84     A5 4C 81 51 |  if_ne	sub	arg02, arg01
02a88     04 4C 45 50 |  if_ne	shr	arg02, #4
02a8c     A6 04 01 56 |  if_ne	mov	result1, arg02
02a90     82 66 01 F6 | 	mov	local10, result1
02a94     AF 68 01 F6 | 	mov	local11, local06
02a98     04 68 05 F1 | 	add	local11, #4
02a9c     B4 66 51 FC | 	wrword	local10, local11
02aa0                 | LR__0185
02aa0                 | LR__0186
02aa0     AF 04 01 F6 | 	mov	result1, local06
02aa4     46 F0 03 F6 | 	mov	ptra, fp
02aa8     5A 00 A0 FD | 	call	#popregs_
02aac                 | __system___gc_dofree_ret
02aac     2D 00 64 FD | 	ret
02ab0                 | 
02ab0                 | __system____topofstack
02ab0     00 88 04 F6 | 	mov	COUNT_, #0
02ab4     4B 00 A0 FD | 	call	#pushregs_
02ab8     08 F0 07 F1 | 	add	ptra, #8
02abc     04 8C 04 F1 | 	add	fp, #4
02ac0     46 4A 61 FC | 	wrlong	arg01, fp
02ac4     46 04 01 F6 | 	mov	result1, fp
02ac8     04 8C 84 F1 | 	sub	fp, #4
02acc     46 F0 03 F6 | 	mov	ptra, fp
02ad0     5A 00 A0 FD | 	call	#popregs_
02ad4                 | __system____topofstack_ret
02ad4     2D 00 64 FD | 	ret
02ad8                 | 
02ad8                 | __system___gc_docollect
02ad8     09 88 04 F6 | 	mov	COUNT_, #9
02adc     4B 00 A0 FD | 	call	#pushregs_
02ae0     24 F9 BF FD | 	call	#__system___gc_ptrs
02ae4     83 54 01 F6 | 	mov	local01, result2
02ae8     82 56 01 F6 | 	mov	local02, result1
02aec     AB 4A 01 F6 | 	mov	arg01, local02
02af0     AC F9 BF FD | 	call	#__system___gc_nextBlockPtr
02af4     82 58 09 F6 | 	mov	local03, result1 wz
02af8     01 04 61 FD | 	cogid	result1
02afc     82 5A 01 F6 | 	mov	local04, result1
02b00     34 00 90 AD |  if_e	jmp	#LR__0188
02b04                 | LR__0187
02b04     AA 58 59 F2 | 	cmps	local03, local01 wcz
02b08     2C 00 90 3D |  if_ae	jmp	#LR__0188
02b0c     AC 5C 01 F6 | 	mov	local05, local03
02b10     02 5C 05 F1 | 	add	local05, #2
02b14     AE 5E E1 FA | 	rdword	local06, local05
02b18     20 5E 25 F5 | 	andn	local06, #32
02b1c     AC 60 01 F6 | 	mov	local07, local03
02b20     02 60 05 F1 | 	add	local07, #2
02b24     B0 5E 51 FC | 	wrword	local06, local07
02b28     AC 4A 01 F6 | 	mov	arg01, local03
02b2c     70 F9 BF FD | 	call	#__system___gc_nextBlockPtr
02b30     82 58 09 F6 | 	mov	local03, result1 wz
02b34     CC FF 9F 5D |  if_ne	jmp	#LR__0187
02b38                 | LR__0188
02b38     00 5E 05 F6 | 	mov	local06, #0
02b3c     00 4A 05 F6 | 	mov	arg01, #0
02b40     6C FF BF FD | 	call	#__system____topofstack
02b44     82 60 01 F6 | 	mov	local07, result1
02b48     AF 4A 01 F6 | 	mov	arg01, local06
02b4c     B0 4C 01 F6 | 	mov	arg02, local07
02b50     A0 00 B0 FD | 	call	#__system___gc_markhub
02b54     34 01 B0 FD | 	call	#__system___gc_markcog
02b58     AB 4A 01 F6 | 	mov	arg01, local02
02b5c     40 F9 BF FD | 	call	#__system___gc_nextBlockPtr
02b60     82 62 09 F6 | 	mov	local08, result1 wz
02b64     10 00 90 5D |  if_ne	jmp	#LR__0189
02b68     16 00 00 FF 
02b6c     3D 4B 05 F6 | 	mov	arg01, ##@LR__0202
02b70     48 FB BF FD | 	call	#__system___gc_errmsg
02b74     70 00 90 FD | 	jmp	#LR__0195
02b78                 | LR__0189
02b78                 | LR__0190
02b78     B1 58 01 F6 | 	mov	local03, local08
02b7c     AC 4A 01 F6 | 	mov	arg01, local03
02b80     1C F9 BF FD | 	call	#__system___gc_nextBlockPtr
02b84     82 62 01 F6 | 	mov	local08, result1
02b88     AC 5E 01 F6 | 	mov	local06, local03
02b8c     02 5E 05 F1 | 	add	local06, #2
02b90     AF 64 E1 FA | 	rdword	local09, local06
02b94     20 64 CD F7 | 	test	local09, #32 wz
02b98     3C 00 90 5D |  if_ne	jmp	#LR__0193
02b9c     B2 5C 01 F6 | 	mov	local05, local09
02ba0     10 5C 0D F5 | 	and	local05, #16 wz
02ba4     30 00 90 5D |  if_ne	jmp	#LR__0193
02ba8     B2 5E 01 F6 | 	mov	local06, local09
02bac     0F 5E 05 F5 | 	and	local06, #15
02bb0     AF 64 01 F6 | 	mov	local09, local06
02bb4     AD 64 09 F2 | 	cmp	local09, local04 wz
02bb8     08 00 90 AD |  if_e	jmp	#LR__0191
02bbc     0E 64 0D F2 | 	cmp	local09, #14 wz
02bc0     14 00 90 5D |  if_ne	jmp	#LR__0192
02bc4                 | LR__0191
02bc4     AC 5E 01 F6 | 	mov	local06, local03
02bc8     AF 4A 01 F6 | 	mov	arg01, local06
02bcc     9C FC BF FD | 	call	#__system___gc_dofree
02bd0     82 5C 01 F6 | 	mov	local05, result1
02bd4     AE 62 01 F6 | 	mov	local08, local05
02bd8                 | LR__0192
02bd8                 | LR__0193
02bd8     00 62 0D F2 | 	cmp	local08, #0 wz
02bdc     08 00 90 AD |  if_e	jmp	#LR__0194
02be0     AA 62 59 F2 | 	cmps	local08, local01 wcz
02be4     90 FF 9F CD |  if_b	jmp	#LR__0190
02be8                 | LR__0194
02be8                 | LR__0195
02be8     46 F0 03 F6 | 	mov	ptra, fp
02bec     5A 00 A0 FD | 	call	#popregs_
02bf0                 | __system___gc_docollect_ret
02bf0     2D 00 64 FD | 	ret
02bf4                 | 
02bf4                 | __system___gc_markhub
02bf4     0A 88 04 F6 | 	mov	COUNT_, #10
02bf8     4B 00 A0 FD | 	call	#pushregs_
02bfc     A5 54 01 F6 | 	mov	local01, arg01
02c00     A6 56 01 F6 | 	mov	local02, arg02
02c04     00 F8 BF FD | 	call	#__system___gc_ptrs
02c08     82 58 01 F6 | 	mov	local03, result1
02c0c     83 5A 01 F6 | 	mov	local04, result2
02c10                 | LR__0196
02c10     AB 54 59 F2 | 	cmps	local01, local02 wcz
02c14     68 00 90 3D |  if_ae	jmp	#LR__0197
02c18     AA 4E 01 FB | 	rdlong	arg03, local01
02c1c     04 54 05 F1 | 	add	local01, #4
02c20     AC 4A 01 F6 | 	mov	arg01, local03
02c24     AD 4C 01 F6 | 	mov	arg02, local04
02c28     C0 FB BF FD | 	call	#__system___gc_isvalidptr
02c2c     82 5C 09 F6 | 	mov	local05, result1 wz
02c30     DC FF 9F AD |  if_e	jmp	#LR__0196
02c34     AE 4A 01 F6 | 	mov	arg01, local05
02c38     00 5E 05 F6 | 	mov	local06, #0
02c3c     02 4A 05 F1 | 	add	arg01, #2
02c40     A5 60 E1 FA | 	rdword	local07, arg01
02c44     36 00 00 FF 
02c48     8F 60 0D F2 | 	cmp	local07, ##27791 wz
02c4c     01 5E 65 A6 |  if_e	neg	local06, #1
02c50     AF 04 01 F6 | 	mov	result1, local06
02c54     82 62 09 F6 | 	mov	local08, result1 wz
02c58     B4 FF 9F 5D |  if_ne	jmp	#LR__0196
02c5c     AE 64 01 F6 | 	mov	local09, local05
02c60     02 64 05 F1 | 	add	local09, #2
02c64     B2 66 E1 FA | 	rdword	local10, local09
02c68     0F 66 25 F5 | 	andn	local10, #15
02c6c     2E 66 45 F5 | 	or	local10, #46
02c70     AE 64 01 F6 | 	mov	local09, local05
02c74     02 64 05 F1 | 	add	local09, #2
02c78     B2 66 51 FC | 	wrword	local10, local09
02c7c     90 FF 9F FD | 	jmp	#LR__0196
02c80                 | LR__0197
02c80     46 F0 03 F6 | 	mov	ptra, fp
02c84     5A 00 A0 FD | 	call	#popregs_
02c88                 | __system___gc_markhub_ret
02c88     2D 00 64 FD | 	ret
02c8c                 | 
02c8c                 | __system___gc_markcog
02c8c     06 88 04 F6 | 	mov	COUNT_, #6
02c90     4B 00 A0 FD | 	call	#pushregs_
02c94     70 F7 BF FD | 	call	#__system___gc_ptrs
02c98     82 54 01 F6 | 	mov	local01, result1
02c9c     83 56 01 F6 | 	mov	local02, result2
02ca0     00 58 05 F6 | 	mov	local03, #0
02ca4                 | LR__0198
02ca4     F0 5B 05 F6 | 	mov	local04, #496
02ca8     AC 5A 81 F1 | 	sub	local04, local03
02cac     F0 5D 05 F6 | 	mov	local05, #496
02cb0     AD 5C 01 F1 | 	add	local05, local04
02cb4                 | 	'.live	local05
02cb4     00 5C 95 F9 | 	alts	local05, #0
02cb8     AE 5E 01 F6 | 	mov	local06, local05
02cbc     AA 4A 01 F6 | 	mov	arg01, local01
02cc0     AB 4C 01 F6 | 	mov	arg02, local02
02cc4     AF 4E 01 F6 | 	mov	arg03, local06
02cc8     20 FB BF FD | 	call	#__system___gc_isvalidptr
02ccc     82 5E 09 F6 | 	mov	local06, result1 wz
02cd0     18 00 90 AD |  if_e	jmp	#LR__0199
02cd4     AF 5A 01 F6 | 	mov	local04, local06
02cd8     02 5A 05 F1 | 	add	local04, #2
02cdc     AD 5C E1 FA | 	rdword	local05, local04
02ce0     20 5C 45 F5 | 	or	local05, #32
02ce4     02 5E 05 F1 | 	add	local06, #2
02ce8     AF 5C 51 FC | 	wrword	local05, local06
02cec                 | LR__0199
02cec     01 58 05 F1 | 	add	local03, #1
02cf0     F0 59 5D F2 | 	cmps	local03, #496 wcz
02cf4     AC FF 9F CD |  if_b	jmp	#LR__0198
02cf8     46 F0 03 F6 | 	mov	ptra, fp
02cfc     5A 00 A0 FD | 	call	#popregs_
02d00                 | __system___gc_markcog_ret
02d00     2D 00 64 FD | 	ret
02d04                 | 
02d04                 | LR__0200
02d04     20 21 21 21 
02d08     20 63 6F 72 
02d0c     72 75 70 74 
02d10     65 64 20 68 
02d14     65 61 70 3F 
02d18     3F 3F 20 21 
02d1c     21 21 20    | 	byte	" !!! corrupted heap??? !!! "
02d1f     00          | 	byte	0
02d20                 | LR__0201
02d20     20 21 21 21 
02d24     20 6F 75 74 
02d28     20 6F 66 20 
02d2c     68 65 61 70 
02d30     20 6D 65 6D 
02d34     6F 72 79 20 
02d38     21 21 21 20 | 	byte	" !!! out of heap memory !!! "
02d3c     00          | 	byte	0
02d3d                 | LR__0202
02d3d     20 21 21 21 
02d41     20 63 6F 72 
02d45     72 75 70 74 
02d49     65 64 20 68 
02d4d     65 61 70 20 
02d51     21 21 21 20 | 	byte	" !!! corrupted heap !!! "
02d55     00          | 	byte	0
02d56                 | LR__0203
02d56     20          | 	byte	" "
02d57     00          | 	byte	0
02d58                 | 	alignl
02d58                 | _hng025_dat_
02d58     00 00 00 00 
02d5c     00 00 00 00 
02d60     00 00 00 00 
02d64     00 00 00 00 
02d68     00 00 00    | vga_font       file "vgafont.def"
02d6b     7E 81 A5 81 
02d6f     81 BD 99 81 
02d73     81 7E 00 00 
02d77     00 00 00 00 | 	byte	$7e, $81, $a5, $81, $81, $bd, $99, $81, $81, $7e, $00, $00, $00, $00, $00, $00
02d7b     7E FF DB FF 
02d7f     FF C3 E7 FF 
02d83     FF 7E 00 00 
02d87     00 00 00 00 | 	byte	$7e, $ff, $db, $ff, $ff, $c3, $e7, $ff, $ff, $7e, $00, $00, $00, $00, $00, $00
02d8b     00 36 7F 7F 
02d8f     7F 7F 3E 1C 
02d93     08 00 00 00 
02d97     00 00 00 00 | 	byte	$00, $36, $7f, $7f, $7f, $7f, $3e, $1c, $08, $00, $00, $00, $00, $00, $00, $00
02d9b     00 08 1C 3E 
02d9f     7F 3E 1C 08 
02da3     00 00 00 00 
02da7     00 00 00 00 | 	byte	$00, $08, $1c, $3e, $7f, $3e, $1c, $08, $00, $00, $00, $00, $00, $00, $00, $00
02dab     18 3C 3C E7 
02daf     E7 E7 18 18 
02db3     3C 00 00 00 
02db7     00 00 00 00 | 	byte	$18, $3c, $3c, $e7, $e7, $e7, $18, $18, $3c, $00, $00, $00, $00, $00, $00, $00
02dbb     18 3C 7E FF 
02dbf     FF 7E 18 18 
02dc3     3C 00 00 00 
02dc7     00 00 00 00 | 	byte	$18, $3c, $7e, $ff, $ff, $7e, $18, $18, $3c, $00, $00, $00, $00, $00, $00, $00
02dcb     00 00 00 18 
02dcf     3C 3C 18 00 
02dd3     00 00 00 00 
02dd7     00 FF FF FF | 	byte	$00, $00, $00, $18, $3c, $3c, $18, $00, $00, $00, $00, $00, $00, $ff, $ff, $ff
02ddb     FF FF FF E7 
02ddf     C3 C3 E7 FF 
02de3     FF FF FF FF 
02de7     FF 00 00 00 | 	byte	$ff, $ff, $ff, $e7, $c3, $c3, $e7, $ff, $ff, $ff, $ff, $ff, $ff, $00, $00, $00
02deb     00 00 3C 66 
02def     42 42 66 3C 
02df3     00 00 00 00 
02df7     00 FF FF FF | 	byte	$00, $00, $3c, $66, $42, $42, $66, $3c, $00, $00, $00, $00, $00, $ff, $ff, $ff
02dfb     FF FF C3 99 
02dff     BD BD 99 C3 
02e03     FF FF FF FF 
02e07     FF 00 00 00 | 	byte	$ff, $ff, $c3, $99, $bd, $bd, $99, $c3, $ff, $ff, $ff, $ff, $ff, $00, $00, $00
02e0b     78 70 58 4C 
02e0f     1E 33 33 33 
02e13     33 1E 00 00 
02e17     00 00 00 00 | 	byte	$78, $70, $58, $4c, $1e, $33, $33, $33, $33, $1e, $00, $00, $00, $00, $00, $00
02e1b     3C 66 66 66 
02e1f     66 3C 18 7E 
02e23     18 18 00 00 
02e27     00 00 00 00 | 	byte	$3c, $66, $66, $66, $66, $3c, $18, $7e, $18, $18, $00, $00, $00, $00, $00, $00
02e2b     FC CC FC 0C 
02e2f     0C 0C 0C 0E 
02e33     0F 07 00 00 
02e37     00 00 00 00 | 	byte	$fc, $cc, $fc, $0c, $0c, $0c, $0c, $0e, $0f, $07, $00, $00, $00, $00, $00, $00
02e3b     FE C6 FE C6 
02e3f     C6 C6 C6 E6 
02e43     E7 67 03 00 
02e47     00 00 00 00 | 	byte	$fe, $c6, $fe, $c6, $c6, $c6, $c6, $e6, $e7, $67, $03, $00, $00, $00, $00, $00
02e4b     18 18 DB 3C 
02e4f     E7 3C DB 18 
02e53     18 00 00 00 
02e57     00 00 00 01 | 	byte	$18, $18, $db, $3c, $e7, $3c, $db, $18, $18, $00, $00, $00, $00, $00, $00, $01
02e5b     03 07 0F 1F 
02e5f     7F 1F 0F 07 
02e63     03 01 00 00 
02e67     00 00 00 40 | 	byte	$03, $07, $0f, $1f, $7f, $1f, $0f, $07, $03, $01, $00, $00, $00, $00, $00, $40
02e6b     60 70 78 7C 
02e6f     7F 7C 78 70 
02e73     60 40 00 00 
02e77     00 00 00 00 | 	byte	$60, $70, $78, $7c, $7f, $7c, $78, $70, $60, $40, $00, $00, $00, $00, $00, $00
02e7b     18 3C 7E 18 
02e7f     18 18 7E 3C 
02e83     18 00 00 00 
02e87     00 00 00 00 | 	byte	$18, $3c, $7e, $18, $18, $18, $7e, $3c, $18, $00, $00, $00, $00, $00, $00, $00
02e8b     66 66 66 66 
02e8f     66 66 66    | 	byte	$66[7]
02e92     00 66 66 00 
02e96     00 00 00 00 
02e9a     00 FE DB DB 
02e9e     DB DE D8 D8 | 	byte	$00, $66, $66, $00, $00, $00, $00, $00, $00, $fe, $db, $db, $db, $de, $d8, $d8
02ea2     D8 D8 D8 00 
02ea6     00 00 00 3E 
02eaa     63 06 1C 36 
02eae     63 63 36 1C | 	byte	$d8, $d8, $d8, $00, $00, $00, $00, $3e, $63, $06, $1c, $36, $63, $63, $36, $1c
02eb2     30 63 3E 00 
02eb6     00 00 00 00 
02eba     00 00 00 00 
02ebe     00 00 00 7F | 	byte	$30, $63, $3e, $00, $00, $00, $00, $00, $00, $00, $00, $00, $00, $00, $00, $7f
02ec2     7F 7F 7F 00 
02ec6     00 00 00 00 
02eca     00 18 3C 7E 
02ece     18 18 18 7E | 	byte	$7f, $7f, $7f, $00, $00, $00, $00, $00, $00, $18, $3c, $7e, $18, $18, $18, $7e
02ed2     3C 18 7E 00 
02ed6     00 00 00 00 
02eda     00 18 3C 7E 
02ede     18 18 18 18 | 	byte	$3c, $18, $7e, $00, $00, $00, $00, $00, $00, $18, $3c, $7e, $18, $18, $18, $18
02ee2     18 18 18 00 
02ee6     00 00 00 00 
02eea     00 18 18 18 
02eee     18 18 18 18 | 	byte	$18, $18, $18, $00, $00, $00, $00, $00, $00, $18, $18, $18, $18, $18, $18, $18
02ef2     7E 3C 18 00 
02ef6     00 00 00 00 
02efa     00 00 00 18 
02efe     30 7F 30 18 | 	byte	$7e, $3c, $18, $00, $00, $00, $00, $00, $00, $00, $00, $18, $30, $7f, $30, $18
02f02     00 00 00 00 
02f06     00 00 00 00 
02f0a     00 00 00    | 	byte	$00[11]
02f0d     0C 06 7F 06 
02f11     0C 00 00 00 
02f15     00 00 00 00 
02f19     00 00 00 00 | 	byte	$0c, $06, $7f, $06, $0c, $00, $00, $00, $00, $00, $00, $00, $00, $00, $00, $00
02f1d     00 03 03 03 
02f21     7F 00 00 00 
02f25     00 00 00 00 
02f29     00 00 00 00 | 	byte	$00, $03, $03, $03, $7f, $00, $00, $00, $00, $00, $00, $00, $00, $00, $00, $00
02f2d     14 36 7F 36 
02f31     14 00 00 00 
02f35     00 00 00 00 
02f39     00 00 00 08 | 	byte	$14, $36, $7f, $36, $14, $00, $00, $00, $00, $00, $00, $00, $00, $00, $00, $08
02f3d     1C 1C 3E 3E 
02f41     7F 7F 00 00 
02f45     00 00 00 00 
02f49     00 00 00 7F | 	byte	$1c, $1c, $3e, $3e, $7f, $7f, $00, $00, $00, $00, $00, $00, $00, $00, $00, $7f
02f4d     7F 3E 3E 1C 
02f51     1C 08 00 00 
02f55     00 00 00 00 
02f59     00 00 00 00 | 	byte	$7f, $3e, $3e, $1c, $1c, $08, $00, $00, $00, $00, $00, $00, $00, $00, $00, $00
02f5d     00 00 00 00 
02f61     00 00 00 00 
02f65     00 00 00 00 
02f69     00 00       | 	byte	$00[14]
02f6b     18 3C 3C 3C 
02f6f     18 18 18 00 
02f73     18 18 00 00 
02f77     00 00 66 66 | 	byte	$18, $3c, $3c, $3c, $18, $18, $18, $00, $18, $18, $00, $00, $00, $00, $66, $66
02f7b     66 24 00 00 
02f7f     00 00 00 00 
02f83     00 00 00 00 
02f87     00 00 00 00 | 	byte	$66, $24, $00, $00, $00, $00, $00, $00, $00, $00, $00, $00, $00, $00, $00, $00
02f8b     00 36 36 7F 
02f8f     36 36 36 7F 
02f93     36 36 00 00 
02f97     00 00 18 18 | 	byte	$00, $36, $36, $7f, $36, $36, $36, $7f, $36, $36, $00, $00, $00, $00, $18, $18
02f9b     3E 63 43 03 
02f9f     3E 60 60 61 
02fa3     63 3E 18 18 
02fa7     00 00 00 00 | 	byte	$3e, $63, $43, $03, $3e, $60, $60, $61, $63, $3e, $18, $18, $00, $00, $00, $00
02fab     00 00 43 63 
02faf     30 18 0C 06 
02fb3     63 61 00 00 
02fb7     00 00 00 00 | 	byte	$00, $00, $43, $63, $30, $18, $0c, $06, $63, $61, $00, $00, $00, $00, $00, $00
02fbb     1C 36 36 1C 
02fbf     6E 3B 33 33 
02fc3     33 6E 00 00 
02fc7     00 00 00 00 | 	byte	$1c, $36, $36, $1c, $6e, $3b, $33, $33, $33, $6e, $00, $00, $00, $00, $00, $00
02fcb     0C 0C 0C 06 
02fcf     00 00 00 00 
02fd3     00 00 00 00 
02fd7     00 00 00 00 | 	byte	$0c, $0c, $0c, $06, $00, $00, $00, $00, $00, $00, $00, $00, $00, $00, $00, $00
02fdb     30 18 0C 0C 
02fdf     0C 0C 0C 0C 
02fe3     18 30 00 00 
02fe7     00 00 00 00 | 	byte	$30, $18, $0c, $0c, $0c, $0c, $0c, $0c, $18, $30, $00, $00, $00, $00, $00, $00
02feb     0C 18 30 30 
02fef     30 30 30 30 
02ff3     18 0C 00 00 
02ff7     00 00 00 00 | 	byte	$0c, $18, $30, $30, $30, $30, $30, $30, $18, $0c, $00, $00, $00, $00, $00, $00
02ffb     00 00 00 66 
02fff     3C FF 3C 66 
03003     00 00 00 00 
03007     00 00 00 00 | 	byte	$00, $00, $00, $66, $3c, $ff, $3c, $66, $00, $00, $00, $00, $00, $00, $00, $00
0300b     00 00 00 18 
0300f     18 7E 18 18 
03013     00 00 00 00 
03017     00 00 00 00 | 	byte	$00, $00, $00, $18, $18, $7e, $18, $18, $00, $00, $00, $00, $00, $00, $00, $00
0301b     00 00 00 00 
0301f     00 00 00 00 | 	byte	$00[8]
03023     18 18 18 0C 
03027     00 00 00 00 
0302b     00 00 00 00 
0302f     00 7F 00 00 | 	byte	$18, $18, $18, $0c, $00, $00, $00, $00, $00, $00, $00, $00, $00, $7f, $00, $00
03033     00 00 00 00 
03037     00 00 00 00 
0303b     00 00 00 00 
0303f     00 00 00 00 | 	byte	$00[16]
03043     18 18 00 00 
03047     00 00 00 00 
0304b     00 00 40 60 
0304f     30 18 0C 06 | 	byte	$18, $18, $00, $00, $00, $00, $00, $00, $00, $00, $40, $60, $30, $18, $0c, $06
03053     03 01 00 00 
03057     00 00 00 00 
0305b     1C 36 63 63 
0305f     6B 6B 63 63 | 	byte	$03, $01, $00, $00, $00, $00, $00, $00, $1c, $36, $63, $63, $6b, $6b, $63, $63
03063     36 1C 00 00 
03067     00 00 00 00 
0306b     18 1C 1E 18 
0306f     18 18 18 18 | 	byte	$36, $1c, $00, $00, $00, $00, $00, $00, $18, $1c, $1e, $18, $18, $18, $18, $18
03073     18 7E 00 00 
03077     00 00 00 00 
0307b     3E 63 60 30 
0307f     18 0C 06 03 | 	byte	$18, $7e, $00, $00, $00, $00, $00, $00, $3e, $63, $60, $30, $18, $0c, $06, $03
03083     63 7F 00 00 
03087     00 00 00 00 
0308b     3E 63 60 60 
0308f     3C 60 60 60 | 	byte	$63, $7f, $00, $00, $00, $00, $00, $00, $3e, $63, $60, $60, $3c, $60, $60, $60
03093     63 3E 00 00 
03097     00 00 00 00 
0309b     30 38 3C 36 
0309f     33 7F 30 30 | 	byte	$63, $3e, $00, $00, $00, $00, $00, $00, $30, $38, $3c, $36, $33, $7f, $30, $30
030a3     30 78 00 00 
030a7     00 00 00 00 
030ab     7F 03 03 03 
030af     3F 60 60 60 | 	byte	$30, $78, $00, $00, $00, $00, $00, $00, $7f, $03, $03, $03, $3f, $60, $60, $60
030b3     63 3E 00 00 
030b7     00 00 00 00 
030bb     1C 06 03 03 
030bf     3F 63 63 63 | 	byte	$63, $3e, $00, $00, $00, $00, $00, $00, $1c, $06, $03, $03, $3f, $63, $63, $63
030c3     63 3E 00 00 
030c7     00 00 00 00 
030cb     7F 63 60 60 
030cf     30 18 0C 0C | 	byte	$63, $3e, $00, $00, $00, $00, $00, $00, $7f, $63, $60, $60, $30, $18, $0c, $0c
030d3     0C 0C 00 00 
030d7     00 00 00 00 
030db     3E 63 63 63 
030df     3E 63 63 63 | 	byte	$0c, $0c, $00, $00, $00, $00, $00, $00, $3e, $63, $63, $63, $3e, $63, $63, $63
030e3     63 3E 00 00 
030e7     00 00 00 00 
030eb     3E 63 63 63 
030ef     7E 60 60 60 | 	byte	$63, $3e, $00, $00, $00, $00, $00, $00, $3e, $63, $63, $63, $7e, $60, $60, $60
030f3     30 1E 00 00 
030f7     00 00 00 00 
030fb     00 00 00 18 
030ff     18 00 00 00 | 	byte	$30, $1e, $00, $00, $00, $00, $00, $00, $00, $00, $00, $18, $18, $00, $00, $00
03103     18 18 00 00 
03107     00 00 00 00 
0310b     00 00 00 18 
0310f     18 00 00 00 | 	byte	$18, $18, $00, $00, $00, $00, $00, $00, $00, $00, $00, $18, $18, $00, $00, $00
03113     18 18 0C 00 
03117     00 00 00 00 
0311b     00 60 30 18 
0311f     0C 06 0C 18 | 	byte	$18, $18, $0c, $00, $00, $00, $00, $00, $00, $60, $30, $18, $0c, $06, $0c, $18
03123     30 60 00 00 
03127     00 00 00 00 
0312b     00 00 00 7E 
0312f     00 00 7E 00 | 	byte	$30, $60, $00, $00, $00, $00, $00, $00, $00, $00, $00, $7e, $00, $00, $7e, $00
03133     00 00 00 00 
03137     00 00 00 00 
0313b     00          | 	byte	$00[9]
0313c     06 0C 18 30 
03140     60 30 18 0C 
03144     06 00 00 00 
03148     00 00 00 3E | 	byte	$06, $0c, $18, $30, $60, $30, $18, $0c, $06, $00, $00, $00, $00, $00, $00, $3e
0314c     63 63 30 18 
03150     18 18 00 18 
03154     18 00 00 00 
03158     00 00 00 00 | 	byte	$63, $63, $30, $18, $18, $18, $00, $18, $18, $00, $00, $00, $00, $00, $00, $00
0315c     3E 63 63 7B 
03160     7B 7B 3B 03 
03164     3E 00 00 00 
03168     00 00 00 08 | 	byte	$3e, $63, $63, $7b, $7b, $7b, $3b, $03, $3e, $00, $00, $00, $00, $00, $00, $08
0316c     1C 36 63 63 
03170     7F 63 63 63 
03174     63 00 00 00 
03178     00 00 00 3F | 	byte	$1c, $36, $63, $63, $7f, $63, $63, $63, $63, $00, $00, $00, $00, $00, $00, $3f
0317c     66 66 66 3E 
03180     66 66 66 66 
03184     3F 00 00 00 
03188     00 00 00 3C | 	byte	$66, $66, $66, $3e, $66, $66, $66, $66, $3f, $00, $00, $00, $00, $00, $00, $3c
0318c     66 43 03 03 
03190     03 03 43 66 
03194     3C 00 00 00 
03198     00 00 00 1F | 	byte	$66, $43, $03, $03, $03, $03, $43, $66, $3c, $00, $00, $00, $00, $00, $00, $1f
0319c     36 66 66 66 
031a0     66 66 66 36 
031a4     1F 00 00 00 
031a8     00 00 00 7F | 	byte	$36, $66, $66, $66, $66, $66, $66, $36, $1f, $00, $00, $00, $00, $00, $00, $7f
031ac     66 46 16 1E 
031b0     16 06 46 66 
031b4     7F 00 00 00 
031b8     00 00 00 7F | 	byte	$66, $46, $16, $1e, $16, $06, $46, $66, $7f, $00, $00, $00, $00, $00, $00, $7f
031bc     66 46 16 1E 
031c0     16 06 06 06 
031c4     0F 00 00 00 
031c8     00 00 00 3C | 	byte	$66, $46, $16, $1e, $16, $06, $06, $06, $0f, $00, $00, $00, $00, $00, $00, $3c
031cc     66 43 03 03 
031d0     7B 63 63 66 
031d4     5C 00 00 00 
031d8     00 00 00 63 | 	byte	$66, $43, $03, $03, $7b, $63, $63, $66, $5c, $00, $00, $00, $00, $00, $00, $63
031dc     63 63 63 7F 
031e0     63 63 63 63 
031e4     63 00 00 00 
031e8     00 00 00 3C | 	byte	$63, $63, $63, $7f, $63, $63, $63, $63, $63, $00, $00, $00, $00, $00, $00, $3c
031ec     18 18 18 18 
031f0     18 18 18 18 | 	byte	$18[8]
031f4     3C 00 00 00 
031f8     00 00 00 78 
031fc     30 30 30 30 
03200     30 33 33 33 | 	byte	$3c, $00, $00, $00, $00, $00, $00, $78, $30, $30, $30, $30, $30, $33, $33, $33
03204     1E 00 00 00 
03208     00 00 00 67 
0320c     66 66 36 1E 
03210     1E 36 66 66 | 	byte	$1e, $00, $00, $00, $00, $00, $00, $67, $66, $66, $36, $1e, $1e, $36, $66, $66
03214     67 00 00 00 
03218     00 00 00 0F 
0321c     06 06 06 06 
03220     06 06 46 66 | 	byte	$67, $00, $00, $00, $00, $00, $00, $0f, $06, $06, $06, $06, $06, $06, $46, $66
03224     7F 00 00 00 
03228     00 00 00 63 
0322c     77 7F 7F 6B 
03230     63 63 63 63 | 	byte	$7f, $00, $00, $00, $00, $00, $00, $63, $77, $7f, $7f, $6b, $63, $63, $63, $63
03234     63 00 00 00 
03238     00 00 00 63 
0323c     67 6F 7F 7B 
03240     73 63 63 63 | 	byte	$63, $00, $00, $00, $00, $00, $00, $63, $67, $6f, $7f, $7b, $73, $63, $63, $63
03244     63 00 00 00 
03248     00 00 00 3E 
0324c     63 63 63 63 
03250     63 63 63 63 | 	byte	$63, $00, $00, $00, $00, $00, $00, $3e, $63, $63, $63, $63, $63, $63, $63, $63
03254     3E 00 00 00 
03258     00 00 00 3F 
0325c     66 66 66 3E 
03260     06 06 06 06 | 	byte	$3e, $00, $00, $00, $00, $00, $00, $3f, $66, $66, $66, $3e, $06, $06, $06, $06
03264     0F 00 00 00 
03268     00 00 00 3E 
0326c     63 63 63 63 
03270     63 63 6B 7B | 	byte	$0f, $00, $00, $00, $00, $00, $00, $3e, $63, $63, $63, $63, $63, $63, $6b, $7b
03274     3E 30 70 00 
03278     00 00 00 3F 
0327c     66 66 66 3E 
03280     36 66 66 66 | 	byte	$3e, $30, $70, $00, $00, $00, $00, $3f, $66, $66, $66, $3e, $36, $66, $66, $66
03284     67 00 00 00 
03288     00 00 00 3E 
0328c     63 63 06 1C 
03290     30 60 63 63 | 	byte	$67, $00, $00, $00, $00, $00, $00, $3e, $63, $63, $06, $1c, $30, $60, $63, $63
03294     3E 00 00 00 
03298     00 00 00 7E 
0329c     7E 5A 18 18 
032a0     18 18 18 18 | 	byte	$3e, $00, $00, $00, $00, $00, $00, $7e, $7e, $5a, $18, $18, $18, $18, $18, $18
032a4     3C 00 00 00 
032a8     00 00 00 63 
032ac     63 63 63 63 
032b0     63 63 63 63 | 	byte	$3c, $00, $00, $00, $00, $00, $00, $63, $63, $63, $63, $63, $63, $63, $63, $63
032b4     3E 00 00 00 
032b8     00 00 00 63 
032bc     63 63 63 63 
032c0     63 63 36 1C | 	byte	$3e, $00, $00, $00, $00, $00, $00, $63, $63, $63, $63, $63, $63, $63, $36, $1c
032c4     08 00 00 00 
032c8     00 00 00 63 
032cc     63 63 63 6B 
032d0     6B 6B 7F 77 | 	byte	$08, $00, $00, $00, $00, $00, $00, $63, $63, $63, $63, $6b, $6b, $6b, $7f, $77
032d4     36 00 00 00 
032d8     00 00 00 63 
032dc     63 36 3E 1C 
032e0     1C 3E 36 63 | 	byte	$36, $00, $00, $00, $00, $00, $00, $63, $63, $36, $3e, $1c, $1c, $3e, $36, $63
032e4     63 00 00 00 
032e8     00 00 00 66 
032ec     66 66 66 3C 
032f0     18 18 18 18 | 	byte	$63, $00, $00, $00, $00, $00, $00, $66, $66, $66, $66, $3c, $18, $18, $18, $18
032f4     3C 00 00 00 
032f8     00 00 00 7F 
032fc     63 61 30 18 
03300     0C 06 43 63 | 	byte	$3c, $00, $00, $00, $00, $00, $00, $7f, $63, $61, $30, $18, $0c, $06, $43, $63
03304     7F 00 00 00 
03308     00 00 00 3C 
0330c     0C 0C 0C 0C 
03310     0C 0C 0C 0C | 	byte	$7f, $00, $00, $00, $00, $00, $00, $3c, $0c, $0c, $0c, $0c, $0c, $0c, $0c, $0c
03314     3C 00 00 00 
03318     00 00 00 00 
0331c     01 03 07 0E 
03320     1C 38 70 60 | 	byte	$3c, $00, $00, $00, $00, $00, $00, $00, $01, $03, $07, $0e, $1c, $38, $70, $60
03324     40 00 00 00 
03328     00 00 00 3C 
0332c     30 30 30 30 
03330     30 30 30 30 | 	byte	$40, $00, $00, $00, $00, $00, $00, $3c, $30, $30, $30, $30, $30, $30, $30, $30
03334     3C 00 00 00 
03338     1C 36 00 00 
0333c     00 00 00 00 
03340     00 00 00 00 | 	byte	$3c, $00, $00, $00, $1c, $36, $00, $00, $00, $00, $00, $00, $00, $00, $00, $00
03344     00 00 00 00 
03348     00 00 00 00 
0334c     00 00 00 00 
03350     00 00 00 00 
03354     00          | 	byte	$00[17]
03355     FF 00 00 0C 
03359     18 00 00 00 
0335d     00 00 00 00 
03361     00 00 00 00 | 	byte	$ff, $00, $00, $0c, $18, $00, $00, $00, $00, $00, $00, $00, $00, $00, $00, $00
03365     00 00 00 00 
03369     00 00 00 00 
0336d     00          | 	byte	$00[9]
0336e     1E 30 3E 33 
03372     33 33 6E 00 
03376     00 00 00 00 
0337a     00 07 06 06 | 	byte	$1e, $30, $3e, $33, $33, $33, $6e, $00, $00, $00, $00, $00, $00, $07, $06, $06
0337e     1E 36 66 66 
03382     66 66 3E 00 
03386     00 00 00 00 
0338a     00 00 00 00 | 	byte	$1e, $36, $66, $66, $66, $66, $3e, $00, $00, $00, $00, $00, $00, $00, $00, $00
0338e     3E 63 03 03 
03392     03 63 3E 00 
03396     00 00 00 00 
0339a     00 38 30 30 | 	byte	$3e, $63, $03, $03, $03, $63, $3e, $00, $00, $00, $00, $00, $00, $38, $30, $30
0339e     3C 36 33 33 
033a2     33 33 6E 00 
033a6     00 00 00 00 
033aa     00 00 00 00 | 	byte	$3c, $36, $33, $33, $33, $33, $6e, $00, $00, $00, $00, $00, $00, $00, $00, $00
033ae     3E 63 7F 03 
033b2     03 63 3E 00 
033b6     00 00 00 00 
033ba     00 38 6C 4C | 	byte	$3e, $63, $7f, $03, $03, $63, $3e, $00, $00, $00, $00, $00, $00, $38, $6c, $4c
033be     0C 1E 0C 0C 
033c2     0C 0C 1E 00 
033c6     00 00 00 00 
033ca     00 00 00 00 | 	byte	$0c, $1e, $0c, $0c, $0c, $0c, $1e, $00, $00, $00, $00, $00, $00, $00, $00, $00
033ce     6E 33 33 33 
033d2     33 33 3E 30 
033d6     33 1E 00 00 
033da     00 07 06 06 | 	byte	$6e, $33, $33, $33, $33, $33, $3e, $30, $33, $1e, $00, $00, $00, $07, $06, $06
033de     36 6E 66 66 
033e2     66 66 67 00 
033e6     00 00 00 00 
033ea     00 18 18 00 | 	byte	$36, $6e, $66, $66, $66, $66, $67, $00, $00, $00, $00, $00, $00, $18, $18, $00
033ee     1C 18 18 18 
033f2     18 18 3C 00 
033f6     00 00 00 00 
033fa     00 60 60 00 | 	byte	$1c, $18, $18, $18, $18, $18, $3c, $00, $00, $00, $00, $00, $00, $60, $60, $00
033fe     70 60 60 60 
03402     60 60 60 66 
03406     66 3C 00 00 
0340a     00 07 06 06 | 	byte	$70, $60, $60, $60, $60, $60, $60, $66, $66, $3c, $00, $00, $00, $07, $06, $06
0340e     66 36 1E 1E 
03412     36 66 67 00 
03416     00 00 00 00 
0341a     00 1C 18 18 | 	byte	$66, $36, $1e, $1e, $36, $66, $67, $00, $00, $00, $00, $00, $00, $1c, $18, $18
0341e     18 18 18 18 
03422     18 18       | 	byte	$18[6]
03424     3C 00 00 00 
03428     00 00 00 00 
0342c     00 00 37 7F 
03430     6B 6B 6B 6B | 	byte	$3c, $00, $00, $00, $00, $00, $00, $00, $00, $00, $37, $7f, $6b, $6b, $6b, $6b
03434     63 00 00 00 
03438     00 00 00 00 
0343c     00 00 3B 66 
03440     66 66 66 66 | 	byte	$63, $00, $00, $00, $00, $00, $00, $00, $00, $00, $3b, $66, $66, $66, $66, $66
03444     66 00 00 00 
03448     00 00 00 00 
0344c     00 00 3E 63 
03450     63 63 63 63 | 	byte	$66, $00, $00, $00, $00, $00, $00, $00, $00, $00, $3e, $63, $63, $63, $63, $63
03454     3E 00 00 00 
03458     00 00 00 00 
0345c     00 00 3B 66 
03460     66 66 66 66 | 	byte	$3e, $00, $00, $00, $00, $00, $00, $00, $00, $00, $3b, $66, $66, $66, $66, $66
03464     3E 06 06 0F 
03468     00 00 00 00 
0346c     00 00 6E 33 
03470     33 33 33 33 | 	byte	$3e, $06, $06, $0f, $00, $00, $00, $00, $00, $00, $6e, $33, $33, $33, $33, $33
03474     3E 30 30 78 
03478     00 00 00 00 
0347c     00 00 3B 6E 
03480     66 06 06 06 | 	byte	$3e, $30, $30, $78, $00, $00, $00, $00, $00, $00, $3b, $6e, $66, $06, $06, $06
03484     0F 00 00 00 
03488     00 00 00 00 
0348c     00 00 3E 63 
03490     06 1C 30 63 | 	byte	$0f, $00, $00, $00, $00, $00, $00, $00, $00, $00, $3e, $63, $06, $1c, $30, $63
03494     3E 00 00 00 
03498     00 00 00 08 
0349c     0C 0C 3F 0C 
034a0     0C 0C 0C 6C | 	byte	$3e, $00, $00, $00, $00, $00, $00, $08, $0c, $0c, $3f, $0c, $0c, $0c, $0c, $6c
034a4     38 00 00 00 
034a8     00 00 00 00 
034ac     00 00 33 33 
034b0     33 33 33 33 | 	byte	$38, $00, $00, $00, $00, $00, $00, $00, $00, $00, $33, $33, $33, $33, $33, $33
034b4     6E 00 00 00 
034b8     00 00 00 00 
034bc     00 00 63 63 
034c0     63 63 63 36 | 	byte	$6e, $00, $00, $00, $00, $00, $00, $00, $00, $00, $63, $63, $63, $63, $63, $36
034c4     1C 00 00 00 
034c8     00 00 00 00 
034cc     00 00 63 63 
034d0     6B 6B 6B 7F | 	byte	$1c, $00, $00, $00, $00, $00, $00, $00, $00, $00, $63, $63, $6b, $6b, $6b, $7f
034d4     36 00 00 00 
034d8     00 00 00 00 
034dc     00 00 63 36 
034e0     1C 1C 1C 36 | 	byte	$36, $00, $00, $00, $00, $00, $00, $00, $00, $00, $63, $36, $1c, $1c, $1c, $36
034e4     63 00 00 00 
034e8     00 00 00 00 
034ec     00 00 63 63 
034f0     63 63 63 63 | 	byte	$63, $00, $00, $00, $00, $00, $00, $00, $00, $00, $63, $63, $63, $63, $63, $63
034f4     7E 60 30 1F 
034f8     00 00 00 00 
034fc     00 00 7F 33 
03500     18 0C 06 63 | 	byte	$7e, $60, $30, $1f, $00, $00, $00, $00, $00, $00, $7f, $33, $18, $0c, $06, $63
03504     7F 00 00 00 
03508     00 00 00 70 
0350c     18 18 18 0E 
03510     18 18 18 18 | 	byte	$7f, $00, $00, $00, $00, $00, $00, $70, $18, $18, $18, $0e, $18, $18, $18, $18
03514     70 00 00 00 
03518     00 00 00 18 
0351c     18 18 18 18 
03520     18 18 18 18 | 	byte	$70, $00, $00, $00, $00, $00, $00, $18, $18, $18, $18, $18, $18, $18, $18, $18
03524     18 00 00 00 
03528     00 00 00 0E 
0352c     18 18 18 70 
03530     18 18 18 18 | 	byte	$18, $00, $00, $00, $00, $00, $00, $0e, $18, $18, $18, $70, $18, $18, $18, $18
03534     0E 00 00 00 
03538     6E 3B 00 00 
0353c     00 00 00 00 
03540     00 00 00 00 | 	byte	$0e, $00, $00, $00, $6e, $3b, $00, $00, $00, $00, $00, $00, $00, $00, $00, $00
03544     00 00 00 00 
03548     00 00 00 00 
0354c     00 00       | 	byte	$00[10]
0354e     08 1C 36 63 
03552     63 63 7F 00 
03556     00 00 00 00 
0355a     00 3C 66 43 | 	byte	$08, $1c, $36, $63, $63, $63, $7f, $00, $00, $00, $00, $00, $00, $3c, $66, $43
0355e     03 03 03 03 
03562     43 66 3C 18 
03566     30 1E 00 00 
0356a     00 00 33 00 | 	byte	$03, $03, $03, $03, $43, $66, $3c, $18, $30, $1e, $00, $00, $00, $00, $33, $00
0356e     33 33 33 33 
03572     33 33       | 	byte	$33[6]
03574     6E 00 00 00 
03578     00 00 60 30 
0357c     18 00 3E 63 
03580     7F 03 03 63 | 	byte	$6e, $00, $00, $00, $00, $00, $60, $30, $18, $00, $3e, $63, $7f, $03, $03, $63
03584     3E 00 00 00 
03588     00 00 08 1C 
0358c     36 00 1E 30 
03590     3E 33 33 33 | 	byte	$3e, $00, $00, $00, $00, $00, $08, $1c, $36, $00, $1e, $30, $3e, $33, $33, $33
03594     6E 00 00 00 
03598     00 00 00 00 
0359c     33 00 1E 30 
035a0     3E 33 33 33 | 	byte	$6e, $00, $00, $00, $00, $00, $00, $00, $33, $00, $1e, $30, $3e, $33, $33, $33
035a4     6E 00 00 00 
035a8     00 00 1C 36 
035ac     1C 00 33 33 
035b0     33 33 33 33 | 	byte	$6e, $00, $00, $00, $00, $00, $1c, $36, $1c, $00, $33, $33, $33, $33, $33, $33
035b4     6E 00 00 00 
035b8     00 00 60 30 
035bc     18 00 3E 63 
035c0     03 03 03 63 | 	byte	$6e, $00, $00, $00, $00, $00, $60, $30, $18, $00, $3e, $63, $03, $03, $03, $63
035c4     3E 00 00 00 
035c8     00 00 00 00 
035cc     00 00 3E 63 
035d0     03 03 03 63 | 	byte	$3e, $00, $00, $00, $00, $00, $00, $00, $00, $00, $3e, $63, $03, $03, $03, $63
035d4     3E 18 30 1E 
035d8     00 00 00 1C 
035dc     58 78 38 18 
035e0     1C 1E 1A 18 | 	byte	$3e, $18, $30, $1e, $00, $00, $00, $1c, $58, $78, $38, $18, $1c, $1e, $1a, $18
035e4     3C 00 00 00 
035e8     00 00 00 00 
035ec     63 00 3E 63 
035f0     7F 03 03 63 | 	byte	$3c, $00, $00, $00, $00, $00, $00, $00, $63, $00, $3e, $63, $7f, $03, $03, $63
035f4     3E 00 00 00 
035f8     66 33 00 3E 
035fc     63 63 63 63 
03600     63 63 63 63 | 	byte	$3e, $00, $00, $00, $66, $33, $00, $3e, $63, $63, $63, $63, $63, $63, $63, $63
03604     3E 00 00 00 
03608     00 00 CC 66 
0360c     33 00 3E 63 
03610     63 63 63 63 | 	byte	$3e, $00, $00, $00, $00, $00, $cc, $66, $33, $00, $3e, $63, $63, $63, $63, $63
03614     3E 00 00 00 
03618     00 00 18 3C 
0361c     66 00 1C 18 
03620     18 18 18 18 | 	byte	$3e, $00, $00, $00, $00, $00, $18, $3c, $66, $00, $1c, $18, $18, $18, $18, $18
03624     3C 00 00 00 
03628     30 18 00 7F 
0362c     63 61 30 18 
03630     0C 06 43 63 | 	byte	$3c, $00, $00, $00, $30, $18, $00, $7f, $63, $61, $30, $18, $0c, $06, $43, $63
03634     7F 00 00 00 
03638     00 63 00 08 
0363c     1C 36 63 63 
03640     7F 63 63 63 | 	byte	$7f, $00, $00, $00, $00, $63, $00, $08, $1c, $36, $63, $63, $7f, $63, $63, $63
03644     63 00 00 00 
03648     30 18 00 3C 
0364c     66 43 03 03 
03650     03 03 43 66 | 	byte	$63, $00, $00, $00, $30, $18, $00, $3c, $66, $43, $03, $03, $03, $03, $43, $66
03654     3C 00 00 00 
03658     30 18 00 7F 
0365c     66 46 16 1E 
03660     16 06 46 66 | 	byte	$3c, $00, $00, $00, $30, $18, $00, $7f, $66, $46, $16, $1e, $16, $06, $46, $66
03664     7F 00 00 00 
03668     0C 06 00 0F 
0366c     06 06 06 06 
03670     06 06 46 66 | 	byte	$7f, $00, $00, $00, $0c, $06, $00, $0f, $06, $06, $06, $06, $06, $06, $46, $66
03674     7F 00 00 00 
03678     30 18 00 1C 
0367c     18 18 18 18 
03680     18 18 18 18 | 	byte	$7f, $00, $00, $00, $30, $18, $00, $1c, $18, $18, $18, $18, $18, $18, $18, $18
03684     3C 00 00 00 
03688     00 00 08 1C 
0368c     36 00 3E 63 
03690     63 63 63 63 | 	byte	$3c, $00, $00, $00, $00, $00, $08, $1c, $36, $00, $3e, $63, $63, $63, $63, $63
03694     3E 00 00 00 
03698     00 00 00 00 
0369c     63 00 3E 63 
036a0     63 63 63 63 | 	byte	$3e, $00, $00, $00, $00, $00, $00, $00, $63, $00, $3e, $63, $63, $63, $63, $63
036a4     3E 00 00 00 
036a8     00 00 00 6F 
036ac     46 26 06 06 
036b0     06 06 46 66 | 	byte	$3e, $00, $00, $00, $00, $00, $00, $6f, $46, $26, $06, $06, $06, $06, $46, $66
036b4     7F 00 00 00 
036b8     00 00 00 6E 
036bc     4C 2C 0C 0C 
036c0     0C 0C 0C 0C | 	byte	$7f, $00, $00, $00, $00, $00, $00, $6e, $4c, $2c, $0c, $0c, $0c, $0c, $0c, $0c
036c4     1E 00 00 00 
036c8     30 18 00 3E 
036cc     63 63 06 1C 
036d0     30 60 63 63 | 	byte	$1e, $00, $00, $00, $30, $18, $00, $3e, $63, $63, $06, $1c, $30, $60, $63, $63
036d4     3E 00 00 00 
036d8     00 00 60 30 
036dc     18 00 3E 63 
036e0     06 1C 30 63 | 	byte	$3e, $00, $00, $00, $00, $00, $60, $30, $18, $00, $3e, $63, $06, $1c, $30, $63
036e4     3E 00 00 00 
036e8     00 63 00 3E 
036ec     63 63 63 63 
036f0     63 63 63 63 | 	byte	$3e, $00, $00, $00, $00, $63, $00, $3e, $63, $63, $63, $63, $63, $63, $63, $63
036f4     3E 00 00 00 
036f8     00 63 00 63 
036fc     63 63 63 63 
03700     63 63 63 63 | 	byte	$3e, $00, $00, $00, $00, $63, $00, $63, $63, $63, $63, $63, $63, $63, $63, $63
03704     3E 00 00 00 
03708     6C 38 00 7E 
0370c     7E 5A 18 18 
03710     18 18 18 18 | 	byte	$3e, $00, $00, $00, $6c, $38, $00, $7e, $7e, $5a, $18, $18, $18, $18, $18, $18
03714     3C 00 00 00 
03718     00 00 60 48 
0371c     2C 0C 3F 0C 
03720     0C 0C 0C 6C | 	byte	$3c, $00, $00, $00, $00, $00, $60, $48, $2c, $0c, $3f, $0c, $0c, $0c, $0c, $6c
03724     38 00 00 00 
03728     00 00 00 0F 
0372c     26 36 1E 0E 
03730     07 07 46 66 | 	byte	$38, $00, $00, $00, $00, $00, $00, $0f, $26, $36, $1e, $0e, $07, $07, $46, $66
03734     7F 00 00 00 
03738     00 00 00 00 
0373c     00 63 36 1C 
03740     1C 36 63 00 | 	byte	$7f, $00, $00, $00, $00, $00, $00, $00, $00, $63, $36, $1c, $1c, $36, $63, $00
03744     00 00 00 00 
03748     00 00       | 	byte	$00[6]
0374a     36 1C 08 00 
0374e     3E 63 03 03 
03752     03 63 3E 00 
03756     00 00 00 00 | 	byte	$36, $1c, $08, $00, $3e, $63, $03, $03, $03, $63, $3e, $00, $00, $00, $00, $00
0375a     30 18 0C 00 
0375e     1E 30 3E 33 
03762     33 33 6E 00 
03766     00 00 00 00 | 	byte	$30, $18, $0c, $00, $1e, $30, $3e, $33, $33, $33, $6e, $00, $00, $00, $00, $00
0376a     60 30 18 00 
0376e     1C 18 18 18 
03772     18 18 3C 00 
03776     00 00 00 00 | 	byte	$60, $30, $18, $00, $1c, $18, $18, $18, $18, $18, $3c, $00, $00, $00, $00, $00
0377a     60 30 18 00 
0377e     3E 63 63 63 
03782     63 63 3E 00 
03786     00 00 00 00 | 	byte	$60, $30, $18, $00, $3e, $63, $63, $63, $63, $63, $3e, $00, $00, $00, $00, $00
0378a     30 18 0C 00 
0378e     33 33 33 33 
03792     33 33 6E 00 
03796     00 00 00 00 | 	byte	$30, $18, $0c, $00, $33, $33, $33, $33, $33, $33, $6e, $00, $00, $00, $00, $00
0379a     00 08 1C 36 
0379e     63 63 7F 63 
037a2     63 63 63 18 
037a6     0C 78 00 00 | 	byte	$00, $08, $1c, $36, $63, $63, $7f, $63, $63, $63, $63, $18, $0c, $78, $00, $00
037aa     00 00 00 00 
037ae     1E 30 3E 33 
037b2     33 33 6E 18 
037b6     0C 78 36 1C | 	byte	$00, $00, $00, $00, $1e, $30, $3e, $33, $33, $33, $6e, $18, $0c, $78, $36, $1c
037ba     00 7F 63 61 
037be     30 18 0C 06 
037c2     43 63 7F 00 
037c6     00 00 00 00 | 	byte	$00, $7f, $63, $61, $30, $18, $0c, $06, $43, $63, $7f, $00, $00, $00, $00, $00
037ca     36 1C 08 00 
037ce     7F 33 18 0C 
037d2     06 63 7F 00 
037d6     00 00 00 00 | 	byte	$36, $1c, $08, $00, $7f, $33, $18, $0c, $06, $63, $7f, $00, $00, $00, $00, $00
037da     00 7F 66 46 
037de     16 1E 16 06 
037e2     46 66 7F 18 
037e6     0C 78 00 00 | 	byte	$00, $7f, $66, $46, $16, $1e, $16, $06, $46, $66, $7f, $18, $0c, $78, $00, $00
037ea     00 00 00 00 
037ee     3E 63 7F 03 
037f2     03 63 3E 18 
037f6     0C 78 00 00 | 	byte	$00, $00, $00, $00, $3e, $63, $7f, $03, $03, $63, $3e, $18, $0c, $78, $00, $00
037fa     00 3C 66 03 
037fe     1F 03 0F 03 
03802     03 66 3C 00 
03806     00 00 00 00 | 	byte	$00, $3c, $66, $03, $1f, $03, $0f, $03, $03, $66, $3c, $00, $00, $00, $00, $00
0380a     60 30 18 00 
0380e     7F 33 18 0C 
03812     06 63 7F 00 
03816     00 00 6C 38 | 	byte	$60, $30, $18, $00, $7f, $33, $18, $0c, $06, $63, $7f, $00, $00, $00, $6c, $38
0381a     00 3C 66 43 
0381e     03 03 03 03 
03822     43 66 3C 00 
03826     00 00 00 00 | 	byte	$00, $3c, $66, $43, $03, $03, $03, $03, $43, $66, $3c, $00, $00, $00, $00, $00
0382a     00 00 00 00 
0382e     3E 63 06 1C 
03832     30 63 3E 18 
03836     30 1E 00 00 | 	byte	$00, $00, $00, $00, $3e, $63, $06, $1c, $30, $63, $3e, $18, $30, $1e, $00, $00
0383a     00 00 00 00 
0383e     00 00       | 	byte	$00[6]
03840     6C 36 1B 36 
03844     6C 00 00 00 
03848     00 00 00 00 
0384c     00 00 00 00 | 	byte	$6c, $36, $1b, $36, $6c, $00, $00, $00, $00, $00, $00, $00, $00, $00, $00, $00
03850     1B 36 6C 36 
03854     1B 00 00 00 
03858     88 22 88 22 
0385c     88 22 88 22 | 	byte	$1b, $36, $6c, $36, $1b, $00, $00, $00, $88, $22, $88, $22, $88, $22, $88, $22
03860     88 22 88 22 
03864     88 22 88 22 
03868     AA 55 AA 55 
0386c     AA 55 AA 55 | 	byte	$88, $22, $88, $22, $88, $22, $88, $22, $aa, $55, $aa, $55, $aa, $55, $aa, $55
03870     AA 55 AA 55 
03874     AA 55 AA 55 
03878     BB EE BB EE 
0387c     BB EE BB EE | 	byte	$aa, $55, $aa, $55, $aa, $55, $aa, $55, $bb, $ee, $bb, $ee, $bb, $ee, $bb, $ee
03880     BB EE BB EE 
03884     BB EE BB EE 
03888     18 18 18 18 
0388c     18 18 18 18 | 	byte	$bb, $ee, $bb, $ee, $bb, $ee, $bb, $ee, $18, $18, $18, $18, $18, $18, $18, $18
03890     18 18 18 18 
03894     18 18 18 18 
03898     18 18 18 18 
0389c     18 18 18    | 	byte	$18[15]
0389f     1F 18 18 18 
038a3     18 18 18 18 
038a7     18 30 18 00 
038ab     08 1C 36 63 | 	byte	$1f, $18, $18, $18, $18, $18, $18, $18, $18, $30, $18, $00, $08, $1c, $36, $63
038af     63 7F 63 63 
038b3     63 63 00 00 
038b7     00 1C 36 00 
038bb     08 1C 36 63 | 	byte	$63, $7f, $63, $63, $63, $63, $00, $00, $00, $1c, $36, $00, $08, $1c, $36, $63
038bf     63 7F 63 63 
038c3     63 63 00 00 
038c7     00 36 1C 00 
038cb     7F 66 46 16 | 	byte	$63, $7f, $63, $63, $63, $63, $00, $00, $00, $36, $1c, $00, $7f, $66, $46, $16
038cf     1E 16 06 46 
038d3     66 7F 00 00 
038d7     00 00 00 00 
038db     3E 63 63 06 | 	byte	$1e, $16, $06, $46, $66, $7f, $00, $00, $00, $00, $00, $00, $3e, $63, $63, $06
038df     1C 30 60 63 
038e3     63 3E 18 30 
038e7     1E 6C 6C 6C 
038eb     6C 6C 6F 60 | 	byte	$1c, $30, $60, $63, $63, $3e, $18, $30, $1e, $6c, $6c, $6c, $6c, $6c, $6f, $60
038ef     6F 6C 6C 6C 
038f3     6C 6C 6C 6C 
038f7     6C 6C 6C 6C 
038fb     6C 6C 6C 6C | 	byte	$6f, $6c, $6c, $6c, $6c, $6c, $6c, $6c, $6c, $6c, $6c, $6c, $6c, $6c, $6c, $6c
038ff     6C 6C 6C 6C 
03903     6C 6C 6C 6C 
03907     6C          | 	byte	$6c[9]
03908     00 00 00 00 
0390c     00          | 	byte	$00[5]
0390d     7F 60 6F 6C 
03911     6C 6C 6C 6C 
03915     6C 6C 6C 6C 
03919     6C 6C 6C 6C | 	byte	$7f, $60, $6f, $6c, $6c, $6c, $6c, $6c, $6c, $6c, $6c, $6c, $6c, $6c, $6c, $6c
0391d     6F 60 7F 00 
03921     00 00 00 00 
03925     00 00 00 18 
03929     18 00 7F 63 | 	byte	$6f, $60, $7f, $00, $00, $00, $00, $00, $00, $00, $00, $18, $18, $00, $7f, $63
0392d     61 30 18 0C 
03931     06 43 63 7F 
03935     00 00 00 00 
03939     00 00 18 18 | 	byte	$61, $30, $18, $0c, $06, $43, $63, $7f, $00, $00, $00, $00, $00, $00, $18, $18
0393d     00 7F 33 18 
03941     0C 06 63 7F 
03945     00 00 00 00 
03949     00 00 00 00 | 	byte	$00, $7f, $33, $18, $0c, $06, $63, $7f, $00, $00, $00, $00, $00, $00, $00, $00
0394d     00 00 1F 18 
03951     18 18 18 18 
03955     18 18 18 18 
03959     18 18 18 18 | 	byte	$00, $00, $1f, $18, $18, $18, $18, $18, $18, $18, $18, $18, $18, $18, $18, $18
0395d     18 18 F8 00 
03961     00 00 00 00 
03965     00 00 00 18 
03969     18 18 18 18 | 	byte	$18, $18, $f8, $00, $00, $00, $00, $00, $00, $00, $00, $18, $18, $18, $18, $18
0396d     18 18 FF 00 
03971     00 00 00 00 
03975     00 00 00 00 
03979     00 00 00 00 | 	byte	$18, $18, $ff, $00, $00, $00, $00, $00, $00, $00, $00, $00, $00, $00, $00, $00
0397d     00 00 FF 18 
03981     18 18 18 18 
03985     18 18 18 18 
03989     18 18 18 18 | 	byte	$00, $00, $ff, $18, $18, $18, $18, $18, $18, $18, $18, $18, $18, $18, $18, $18
0398d     18 18 F8 18 
03991     18 18 18 18 
03995     18 18 18 00 
03999     00 00 00 00 | 	byte	$18, $18, $f8, $18, $18, $18, $18, $18, $18, $18, $18, $00, $00, $00, $00, $00
0399d     00 00 FF 00 
039a1     00 00 00 00 
039a5     00 00 00 18 
039a9     18 18 18 18 | 	byte	$00, $00, $ff, $00, $00, $00, $00, $00, $00, $00, $00, $18, $18, $18, $18, $18
039ad     18 18 FF 18 
039b1     18 18 18 18 
039b5     18 18 18 63 
039b9     3E 00 08 1C | 	byte	$18, $18, $ff, $18, $18, $18, $18, $18, $18, $18, $18, $63, $3e, $00, $08, $1c
039bd     36 63 63 7F 
039c1     63 63 63 63 
039c5     00 00 00 00 
039c9     00 00 63 3E | 	byte	$36, $63, $63, $7f, $63, $63, $63, $63, $00, $00, $00, $00, $00, $00, $63, $3e
039cd     00 1E 30 3E 
039d1     33 33 33 6E 
039d5     00 00 00 6C 
039d9     6C 6C 6C 6C | 	byte	$00, $1e, $30, $3e, $33, $33, $33, $6e, $00, $00, $00, $6c, $6c, $6c, $6c, $6c
039dd     EC 0C FC 00 
039e1     00 00 00 00 
039e5     00 00 00 00 
039e9     00 00 00 00 | 	byte	$ec, $0c, $fc, $00, $00, $00, $00, $00, $00, $00, $00, $00, $00, $00, $00, $00
039ed     FC 0C EC 6C 
039f1     6C 6C 6C 6C 
039f5     6C 6C 6C 6C 
039f9     6C 6C 6C 6C | 	byte	$fc, $0c, $ec, $6c, $6c, $6c, $6c, $6c, $6c, $6c, $6c, $6c, $6c, $6c, $6c, $6c
039fd     EF 00 FF 00 
03a01     00 00 00 00 
03a05     00 00 00 00 
03a09     00 00 00 00 | 	byte	$ef, $00, $ff, $00, $00, $00, $00, $00, $00, $00, $00, $00, $00, $00, $00, $00
03a0d     FF 00 EF 6C 
03a11     6C 6C 6C 6C 
03a15     6C 6C 6C 6C 
03a19     6C 6C 6C 6C | 	byte	$ff, $00, $ef, $6c, $6c, $6c, $6c, $6c, $6c, $6c, $6c, $6c, $6c, $6c, $6c, $6c
03a1d     EC 0C EC 6C 
03a21     6C 6C 6C 6C 
03a25     6C 6C 6C 00 
03a29     00 00 00 00 | 	byte	$ec, $0c, $ec, $6c, $6c, $6c, $6c, $6c, $6c, $6c, $6c, $00, $00, $00, $00, $00
03a2d     FF 00 FF 00 
03a31     00 00 00 00 
03a35     00 00 00 6C 
03a39     6C 6C 6C 6C | 	byte	$ff, $00, $ff, $00, $00, $00, $00, $00, $00, $00, $00, $6c, $6c, $6c, $6c, $6c
03a3d     EF 00 EF 6C 
03a41     6C 6C 6C 6C 
03a45     6C 6C 6C 00 
03a49     00 00 00 00 | 	byte	$ef, $00, $ef, $6c, $6c, $6c, $6c, $6c, $6c, $6c, $6c, $00, $00, $00, $00, $00
03a4d     63 3E 63 63 
03a51     63 63 3E 63 
03a55     00 00 00 00 
03a59     00 00 30 7E | 	byte	$63, $3e, $63, $63, $63, $63, $3e, $63, $00, $00, $00, $00, $00, $00, $30, $7e
03a5d     30 3C 36 33 
03a61     33 33 33 6E 
03a65     00 00 00 00 
03a69     00 00 1F 36 | 	byte	$30, $3c, $36, $33, $33, $33, $33, $6e, $00, $00, $00, $00, $00, $00, $1f, $36
03a6d     66 66 6F 66 
03a71     66 66 36 1F 
03a75     00 00 00 36 
03a79     1C 00 1F 36 | 	byte	$66, $66, $6f, $66, $66, $66, $36, $1f, $00, $00, $00, $36, $1c, $00, $1f, $36
03a7d     66 66 66 66 
03a81     66 66       | 	byte	$66[6]
03a83     36 1F 00 00 
03a87     00 00 63 00 
03a8b     7F 66 46 16 
03a8f     1E 16 06 46 | 	byte	$36, $1f, $00, $00, $00, $00, $63, $00, $7f, $66, $46, $16, $1e, $16, $06, $46
03a93     66 7F 00 00 
03a97     00 6C 38 00 
03a9b     38 30 30 3C 
03a9f     36 33 33 33 | 	byte	$66, $7f, $00, $00, $00, $6c, $38, $00, $38, $30, $30, $3c, $36, $33, $33, $33
03aa3     33 6E 00 00 
03aa7     00 36 1C 00 
03aab     63 67 6F 7F 
03aaf     7B 73 63 63 | 	byte	$33, $6e, $00, $00, $00, $36, $1c, $00, $63, $67, $6f, $7f, $7b, $73, $63, $63
03ab3     63 63 00 00 
03ab7     00 30 18 00 
03abb     3C 18 18 18 
03abf     18 18 18 18 | 	byte	$63, $63, $00, $00, $00, $30, $18, $00, $3c, $18, $18, $18, $18, $18, $18, $18
03ac3     18 3C 00 00 
03ac7     00 3C 66 00 
03acb     3C 18 18 18 
03acf     18 18 18 18 | 	byte	$18, $3c, $00, $00, $00, $3c, $66, $00, $3c, $18, $18, $18, $18, $18, $18, $18
03ad3     18 3C 00 00 
03ad7     00 00 00 36 
03adb     1C 08 00 3E 
03adf     63 7F 03 03 | 	byte	$18, $3c, $00, $00, $00, $00, $00, $36, $1c, $08, $00, $3e, $63, $7f, $03, $03
03ae3     63 3E 00 00 
03ae7     00 18 18 18 
03aeb     18 18 18 18 
03aef     1F 00 00 00 | 	byte	$63, $3e, $00, $00, $00, $18, $18, $18, $18, $18, $18, $18, $1f, $00, $00, $00
03af3     00 00 00 00 
03af7     00 00 00 00 
03afb     00 00 00 00 | 	byte	$00[12]
03aff     F8 18 18 18 
03b03     18 18 18 18 
03b07     18 FF FF FF 
03b0b     FF FF FF FF | 	byte	$f8, $18, $18, $18, $18, $18, $18, $18, $18, $ff, $ff, $ff, $ff, $ff, $ff, $ff
03b0f     FF FF FF FF 
03b13     FF FF FF FF 
03b17     FF          | 	byte	$ff[9]
03b18     00 00 00 00 
03b1c     00 00 00    | 	byte	$00[7]
03b1f     FF FF FF FF 
03b23     FF FF FF FF 
03b27     FF          | 	byte	$ff[9]
03b28     00 00 00 7E 
03b2c     7E 5A 18 18 
03b30     18 18 18 18 
03b34     3C 18 30 1E | 	byte	$00, $00, $00, $7e, $7e, $5a, $18, $18, $18, $18, $18, $18, $3c, $18, $30, $1e
03b38     1C 36 1C 63 
03b3c     63 63 63 63 
03b40     63 63 63 63 
03b44     3E 00 00 00 | 	byte	$1c, $36, $1c, $63, $63, $63, $63, $63, $63, $63, $63, $63, $3e, $00, $00, $00
03b48     FF FF FF FF 
03b4c     FF FF FF    | 	byte	$ff[7]
03b4f     00 00 00 00 
03b53     00 00 00 00 
03b57     00          | 	byte	$00[9]
03b58     30 18 00 3E 
03b5c     63 63 63 63 
03b60     63 63 63 63 
03b64     3E 00 00 00 | 	byte	$30, $18, $00, $3e, $63, $63, $63, $63, $63, $63, $63, $63, $3e, $00, $00, $00
03b68     00 00 00 1E 
03b6c     33 33 33 1B 
03b70     33 63 63 63 
03b74     33 00 00 00 | 	byte	$00, $00, $00, $1e, $33, $33, $33, $1b, $33, $63, $63, $63, $33, $00, $00, $00
03b78     1C 36 00 3E 
03b7c     63 63 63 63 
03b80     63 63 63 63 
03b84     3E 00 00 00 | 	byte	$1c, $36, $00, $3e, $63, $63, $63, $63, $63, $63, $63, $63, $3e, $00, $00, $00
03b88     30 18 00 63 
03b8c     67 6F 7F 7B 
03b90     73 63 63 63 
03b94     63 00 00 00 | 	byte	$30, $18, $00, $63, $67, $6f, $7f, $7b, $73, $63, $63, $63, $63, $00, $00, $00
03b98     00 00 60 30 
03b9c     18 00 3B 66 
03ba0     66 66 66 66 
03ba4     66 00 00 00 | 	byte	$00, $00, $60, $30, $18, $00, $3b, $66, $66, $66, $66, $66, $66, $00, $00, $00
03ba8     00 00 36 1C 
03bac     08 00 3B 66 
03bb0     66 66 66 66 
03bb4     66 00 00 00 | 	byte	$00, $00, $36, $1c, $08, $00, $3b, $66, $66, $66, $66, $66, $66, $00, $00, $00
03bb8     36 1C 00 3E 
03bbc     63 63 06 1C 
03bc0     30 60 63 63 
03bc4     3E 00 00 00 | 	byte	$36, $1c, $00, $3e, $63, $63, $06, $1c, $30, $60, $63, $63, $3e, $00, $00, $00
03bc8     00 00 36 1C 
03bcc     08 00 3E 63 
03bd0     06 1C 30 63 
03bd4     3E 00 00 00 | 	byte	$00, $00, $36, $1c, $08, $00, $3e, $63, $06, $1c, $30, $63, $3e, $00, $00, $00
03bd8     30 18 00 3F 
03bdc     66 66 66 3E 
03be0     36 66 66 66 
03be4     6F 00 00 00 | 	byte	$30, $18, $00, $3f, $66, $66, $66, $3e, $36, $66, $66, $66, $6f, $00, $00, $00
03be8     30 18 00 63 
03bec     63 63 63 63 
03bf0     63 63 63 63 
03bf4     3E 00 00 00 | 	byte	$30, $18, $00, $63, $63, $63, $63, $63, $63, $63, $63, $63, $3e, $00, $00, $00
03bf8     00 00 60 30 
03bfc     18 00 3B 6E 
03c00     66 06 06 06 
03c04     0F 00 00 00 | 	byte	$00, $00, $60, $30, $18, $00, $3b, $6e, $66, $06, $06, $06, $0f, $00, $00, $00
03c08     66 33 00 63 
03c0c     63 63 63 63 
03c10     63 63 63 63 
03c14     3E 00 00 00 | 	byte	$66, $33, $00, $63, $63, $63, $63, $63, $63, $63, $63, $63, $3e, $00, $00, $00
03c18     00 00 60 30 
03c1c     18 00 63 63 
03c20     63 63 63 63 
03c24     7E 60 30 1F | 	byte	$00, $00, $60, $30, $18, $00, $63, $63, $63, $63, $63, $63, $7e, $60, $30, $1f
03c28     30 18 00 66 
03c2c     66 66 66 3C 
03c30     18 18 18 18 
03c34     3C 00 00 00 | 	byte	$30, $18, $00, $66, $66, $66, $66, $3c, $18, $18, $18, $18, $3c, $00, $00, $00
03c38     00 00 00 08 
03c3c     0C 0C 3F 0C 
03c40     0C 0C 0C 6C 
03c44     38 18 30 1E | 	byte	$00, $00, $00, $08, $0c, $0c, $3f, $0c, $0c, $0c, $0c, $6c, $38, $18, $30, $1e
03c48     30 18 00 00 
03c4c     00 00 00 00 
03c50     00 00 00 00 
03c54     00 00 00 00 | 	byte	$30, $18, $00, $00, $00, $00, $00, $00, $00, $00, $00, $00, $00, $00, $00, $00
03c58     00 00 00 00 
03c5c     00 00 00 00 | 	byte	$00[8]
03c60     7F 00 00 00 
03c64     00 00 00 00 
03c68     66 33 00 00 
03c6c     00 00 00 00 | 	byte	$7f, $00, $00, $00, $00, $00, $00, $00, $66, $33, $00, $00, $00, $00, $00, $00
03c70     00 00 00 00 
03c74     00 00 00 00 
03c78     00 00 00 00 
03c7c     00 00 00 00 
03c80     00 00 00 00 
03c84     00          | 	byte	$00[21]
03c85     0C 06 3C 36 
03c89     1C 00 00 00 
03c8d     00 00 00 00 
03c91     00 00 00 00 | 	byte	$0c, $06, $3c, $36, $1c, $00, $00, $00, $00, $00, $00, $00, $00, $00, $00, $00
03c95     00 00 00 63 
03c99     3E 00 00 00 
03c9d     00 00 00 00 
03ca1     00 00 00 00 | 	byte	$00, $00, $00, $63, $3e, $00, $00, $00, $00, $00, $00, $00, $00, $00, $00, $00
03ca5     00 00 00 00 
03ca9     3E 63 06 1C 
03cad     36 63 63 36 
03cb1     1C 30 63 3E | 	byte	$00, $00, $00, $00, $3e, $63, $06, $1c, $36, $63, $63, $36, $1c, $30, $63, $3e
03cb5     00 00 00 00 
03cb9     00 00 00 00 | 	byte	$00[8]
03cbd     18 00 7E 00 
03cc1     18 00 00 00 
03cc5     00 00 00 00 
03cc9     00 00 00 00 | 	byte	$18, $00, $7e, $00, $18, $00, $00, $00, $00, $00, $00, $00, $00, $00, $00, $00
03ccd     00 00 00 00 
03cd1     00 00 00 00 | 	byte	$00[8]
03cd5     18 30 1E 00 
03cd9     00 00 1C 36 
03cdd     36 1C 00 00 
03ce1     00 00 00 00 | 	byte	$18, $30, $1e, $00, $00, $00, $1c, $36, $36, $1c, $00, $00, $00, $00, $00, $00
03ce5     00 00 00 00 
03ce9     63 00 00 00 
03ced     00 00 00 00 
03cf1     00 00 00 00 | 	byte	$00, $00, $00, $00, $63, $00, $00, $00, $00, $00, $00, $00, $00, $00, $00, $00
03cf5     00 00 00 18 
03cf9     18 00 00 00 
03cfd     00 00 00 00 
03d01     00 00 00 00 | 	byte	$00, $00, $00, $18, $18, $00, $00, $00, $00, $00, $00, $00, $00, $00, $00, $00
03d05     00 00 00 00 
03d09     00          | 	byte	$00[5]
03d0a     CC 66 33 00 
03d0e     33 33 33 33 
03d12     33 33 6E 00 
03d16     00 00 36 1C | 	byte	$cc, $66, $33, $00, $33, $33, $33, $33, $33, $33, $6e, $00, $00, $00, $36, $1c
03d1a     00 3F 66 66 
03d1e     66 3E 36 66 
03d22     66 66 6F 00 
03d26     00 00 00 00 | 	byte	$00, $3f, $66, $66, $66, $3e, $36, $66, $66, $66, $6f, $00, $00, $00, $00, $00
03d2a     36 1C 08 00 
03d2e     3B 6E 66 06 
03d32     06 06 0F 00 
03d36     00 00 00 00 | 	byte	$36, $1c, $08, $00, $3b, $6e, $66, $06, $06, $06, $0f, $00, $00, $00, $00, $00
03d3a     00 00 00 7E 
03d3e     7E 7E 7E 7E 
03d42     7E 7E 00 00 
03d46     00 00 00 00 | 	byte	$00, $00, $00, $7e, $7e, $7e, $7e, $7e, $7e, $7e, $00, $00, $00, $00, $00, $00
03d4a     00 00 00 00 
03d4e     00 00 00 00 
03d52     00 00 00 00 
03d56     00 00       | 	byte	$00, $00, $00, $00, $00, $00, $00, $00, $00, $00, $00, $00, $00, $00
03d58     00 00 00 00 
      ...             
03d88     00 00 00 00 
03d8c     00 00 00    | st_font        file "st4font.def"
03d8f     FF FF 00 00 
03d93     00 00 00 00 
03d97     00 18 18 18 
03d9b     18 18 18 18 | 	byte	$ff, $ff, $00, $00, $00, $00, $00, $00, $00, $18, $18, $18, $18, $18, $18, $18
03d9f     18 18 18 18 
03da3     18 18 18 18 
03da7     18          | 	byte	$18[9]
03da8     00 00 00 00 
03dac     00 00 00    | 	byte	$00[7]
03daf     FF FF 18 18 
03db3     18 18 18 18 
03db7     18 18 18 18 
03dbb     18 18 18 18 | 	byte	$ff, $ff, $18, $18, $18, $18, $18, $18, $18, $18, $18, $18, $18, $18, $18, $18
03dbf     FF FF 00 00 
03dc3     00 00 00 00 
03dc7     00 18 18 18 
03dcb     18 18 18 18 | 	byte	$ff, $ff, $00, $00, $00, $00, $00, $00, $00, $18, $18, $18, $18, $18, $18, $18
03dcf     1F 1F 18 18 
03dd3     18 18 18 18 
03dd7     18 18 18 18 
03ddb     18 18 18 18 | 	byte	$1f, $1f, $18, $18, $18, $18, $18, $18, $18, $18, $18, $18, $18, $18, $18, $18
03ddf     F8 F8 18 18 
03de3     18 18 18 18 
03de7     18 00 00 00 
03deb     00 00 00 00 | 	byte	$f8, $f8, $18, $18, $18, $18, $18, $18, $18, $00, $00, $00, $00, $00, $00, $00
03def     1F 1F 18 18 
03df3     18 18 18 18 
03df7     18 00 00 00 
03dfb     00 00 00 00 | 	byte	$1f, $1f, $18, $18, $18, $18, $18, $18, $18, $00, $00, $00, $00, $00, $00, $00
03dff     F8 F8 18 18 
03e03     18 18 18 18 
03e07     18 18 18 18 
03e0b     18 18 18 18 | 	byte	$f8, $f8, $18, $18, $18, $18, $18, $18, $18, $18, $18, $18, $18, $18, $18, $18
03e0f     1F 1F 00 00 
03e13     00 00 00 00 
03e17     00 18 18 18 
03e1b     18 18 18 18 | 	byte	$1f, $1f, $00, $00, $00, $00, $00, $00, $00, $18, $18, $18, $18, $18, $18, $18
03e1f     F8 F8 00 00 
03e23     00 00 00 00 
03e27     00 18 18 18 
03e2b     18 18 18 18 | 	byte	$f8, $f8, $00, $00, $00, $00, $00, $00, $00, $18, $18, $18, $18, $18, $18, $18
03e2f     FF FF 18 18 
03e33     18 18 18 18 
03e37     18 00 00 18 
03e3b     3C 7E 66 66 | 	byte	$ff, $ff, $18, $18, $18, $18, $18, $18, $18, $00, $00, $18, $3c, $7e, $66, $66
03e3f     66 7E 7E 66 
03e43     66 66 66 30 
03e47     18 00 00 7E 
03e4b     7E 06 06 3E | 	byte	$66, $7e, $7e, $66, $66, $66, $66, $30, $18, $00, $00, $7e, $7e, $06, $06, $3e
03e4f     3E 06 06 06 
03e53     06 7E 7E 18 
03e57     0C 30 18 3C 
03e5b     7E 66 66 06 | 	byte	$3e, $06, $06, $06, $06, $7e, $7e, $18, $0c, $30, $18, $3c, $7e, $66, $66, $06
03e5f     06 06 06 66 
03e63     66 7E 3C 00 
03e67     00 30 18 66 
03e6b     66 66 6E 6E | 	byte	$06, $06, $06, $66, $66, $7e, $3c, $00, $00, $30, $18, $66, $66, $66, $6e, $6e
03e6f     7E 7E 76 76 
03e73     66 66 66 00 
03e77     00 30 18 7C 
03e7b     7E 06 06 0E | 	byte	$7e, $7e, $76, $76, $66, $66, $66, $00, $00, $30, $18, $7c, $7e, $06, $06, $0e
03e7f     1C 38 70 60 
03e83     60 7E 3E 00 
03e87     00 30 18 7E 
03e8b     7E 30 30 18 | 	byte	$1c, $38, $70, $60, $60, $7e, $3e, $00, $00, $30, $18, $7e, $7e, $30, $30, $18
03e8f     18 0C 0C 06 
03e93     06 7E 7E 00 
03e97     00 18 18 00 
03e9b     7E 7E 30 30 | 	byte	$18, $0c, $0c, $06, $06, $7e, $7e, $00, $00, $18, $18, $00, $7e, $7e, $30, $30
03e9f     18 18 0C 0C 
03ea3     06 7E 7E 00 
03ea7     00 30 18 3C 
03eab     7E 66 66 66 | 	byte	$18, $18, $0c, $0c, $06, $7e, $7e, $00, $00, $30, $18, $3c, $7e, $66, $66, $66
03eaf     66 66 66 66 
03eb3     66          | 	byte	$66[5]
03eb4     7E 3C 00 00 
03eb8     00 00 06 06 
03ebc     06 06 16 1E 
03ec0     0E 06 06 06 | 	byte	$7e, $3c, $00, $00, $00, $00, $06, $06, $06, $06, $16, $1e, $0e, $06, $06, $06
03ec4     7E 7E 00 00 
03ec8     00 00 00 00 
03ecc     00 3C 7C 60 
03ed0     7C 7E 66 66 | 	byte	$7e, $7e, $00, $00, $00, $00, $00, $00, $00, $3c, $7c, $60, $7c, $7e, $66, $66
03ed4     7E 7C 30 18 
03ed8     00 00 00 00 
03edc     00 3C 7E 66 
03ee0     66 7E 06 06 | 	byte	$7e, $7c, $30, $18, $00, $00, $00, $00, $00, $3c, $7e, $66, $66, $7e, $06, $06
03ee4     7E 7C 18 0C 
03ee8     00 00 30 18 
03eec     00 3C 3E 06 
03ef0     06 06 06 06 | 	byte	$7e, $7c, $18, $0c, $00, $00, $30, $18, $00, $3c, $3e, $06, $06, $06, $06, $06
03ef4     7E 7C 00 00 
03ef8     00 00 30 18 
03efc     00 3E 7E 66 
03f00     66 66 66 66 | 	byte	$7e, $7c, $00, $00, $00, $00, $30, $18, $00, $3e, $7e, $66, $66, $66, $66, $66
03f04     66 66 00 00 
03f08     00 00 30 18 
03f0c     00 7C 7E 06 
03f10     0E 3C 70 60 | 	byte	$66, $66, $00, $00, $00, $00, $30, $18, $00, $7c, $7e, $06, $0e, $3c, $70, $60
03f14     7E 3E 00 00 
03f18     00 00 30 18 
03f1c     00 7E 7E 30 
03f20     18 18 0C 0C | 	byte	$7e, $3e, $00, $00, $00, $00, $30, $18, $00, $7e, $7e, $30, $18, $18, $0c, $0c
03f24     7E 7E 00 00 
03f28     00 00 18 18 
03f2c     00 7E 7E 30 
03f30     18 18 0C 0C | 	byte	$7e, $7e, $00, $00, $00, $00, $18, $18, $00, $7e, $7e, $30, $18, $18, $0c, $0c
03f34     7E 7E 00 00 
03f38     00 00 30 18 
03f3c     00 3C 7E 66 
03f40     66 66 66 66 | 	byte	$7e, $7e, $00, $00, $00, $00, $30, $18, $00, $3c, $7e, $66, $66, $66, $66, $66
03f44     7E 3C 00 00 
03f48     00 00 1C 1C 
03f4c     18 18 38 3C 
03f50     1C 18 18 18 | 	byte	$7e, $3c, $00, $00, $00, $00, $1c, $1c, $18, $18, $38, $3c, $1c, $18, $18, $18
03f54     3C 3C 00 00 
03f58     00 00 00 00 
03f5c     00 00 00 00 
03f60     00 00 00 00 | 	byte	$3c, $3c, $00, $00, $00, $00, $00, $00, $00, $00, $00, $00, $00, $00, $00, $00
03f64     00 00 00 00 
03f68     00 00       | 	byte	$00[6]
03f6a     18 18 18 18 
03f6e     18 18 18 18 | 	byte	$18[8]
03f72     00 00 18 18 
03f76     00 00 00 00 
03f7a     66 66 66 66 
03f7e     00 00 00 00 | 	byte	$00, $00, $18, $18, $00, $00, $00, $00, $66, $66, $66, $66, $00, $00, $00, $00
03f82     00 00 00 00 
03f86     00 00 00 00 
03f8a     00          | 	byte	$00[9]
03f8b     66 66 FF FF 
03f8f     66 66 FF FF 
03f93     66 66 00 00 
03f97     00 00 18 18 | 	byte	$66, $66, $ff, $ff, $66, $66, $ff, $ff, $66, $66, $00, $00, $00, $00, $18, $18
03f9b     7C 7E 06 06 
03f9f     3E 7C 60 60 
03fa3     7E 3E 18 18 
03fa7     00 00 00 66 | 	byte	$7c, $7e, $06, $06, $3e, $7c, $60, $60, $7e, $3e, $18, $18, $00, $00, $00, $66
03fab     66 30 30 18 
03faf     18 0C 0C 66 
03fb3     66 00 00 00 
03fb7     00 00 3C 7E | 	byte	$66, $30, $30, $18, $18, $0c, $0c, $66, $66, $00, $00, $00, $00, $00, $3c, $7e
03fbb     66 66 3C 1C 
03fbf     1C FC FE 66 
03fc3     66 FE FC 00 
03fc7     00 00 00 18 | 	byte	$66, $66, $3c, $1c, $1c, $fc, $fe, $66, $66, $fe, $fc, $00, $00, $00, $00, $18
03fcb     18 18 18 18 
03fcf     00 00 00 00 
03fd3     00 00 00 00 
03fd7     00 00 00 30 | 	byte	$18, $18, $18, $18, $00, $00, $00, $00, $00, $00, $00, $00, $00, $00, $00, $30
03fdb     18 1C 0C 0C 
03fdf     0C 0C 0C 0C 
03fe3     1C 18 30 00 
03fe7     00 00 00 0C | 	byte	$18, $1c, $0c, $0c, $0c, $0c, $0c, $0c, $1c, $18, $30, $00, $00, $00, $00, $0c
03feb     18 38 30 30 
03fef     30 30 30 30 
03ff3     38 18 0C 00 
03ff7     00 00 00 00 | 	byte	$18, $38, $30, $30, $30, $30, $30, $30, $38, $18, $0c, $00, $00, $00, $00, $00
03ffb     66 66 3C 3C 
03fff     FF FF 3C 3C 
04003     66 66 00 00 
04007     00 00 00 00 | 	byte	$66, $66, $3c, $3c, $ff, $ff, $3c, $3c, $66, $66, $00, $00, $00, $00, $00, $00
0400b     00 18 18 18 
0400f     7E 7E 18 18 
04013     18 00 00 00 
04017     00 00 00 00 | 	byte	$00, $18, $18, $18, $7e, $7e, $18, $18, $18, $00, $00, $00, $00, $00, $00, $00
0401b     00 00 00 00 
0401f     00 00       | 	byte	$00[6]
04021     18 18 18 18 
04025     18          | 	byte	$18[5]
04026     0C 04 00 00 
0402a     00 00 00 00 
0402e     7E 7E 00 00 
04032     00 00 00 00 | 	byte	$0c, $04, $00, $00, $00, $00, $00, $00, $7e, $7e, $00, $00, $00, $00, $00, $00
04036     00 00 00 00 
0403a     00 00 00 00 
0403e     00 00 00 00 
04042     00          | 	byte	$00[13]
04043     18 18 18 00 
04047     00 00 00 60 
0404b     60 60 30 30 
0404f     18 18 0C 0C | 	byte	$18, $18, $18, $00, $00, $00, $00, $60, $60, $60, $30, $30, $18, $18, $0c, $0c
04053     06 06 06 00 
04057     00 00 00 3C 
0405b     7E 66 66 66 
0405f     76 6E 66 66 | 	byte	$06, $06, $06, $00, $00, $00, $00, $3c, $7e, $66, $66, $66, $76, $6e, $66, $66
04063     66 7E 3C 00 
04067     00 00 00 18 
0406b     18 1C 1C 18 
0406f     18 18 18 18 | 	byte	$66, $7e, $3c, $00, $00, $00, $00, $18, $18, $1c, $1c, $18, $18, $18, $18, $18
04073     18 7E 7E 00 
04077     00 00 00 3C 
0407b     7E 66 66 30 
0407f     30 18 18 0C | 	byte	$18, $7e, $7e, $00, $00, $00, $00, $3c, $7e, $66, $66, $30, $30, $18, $18, $0c
04083     0C 7E 7E 00 
04087     00 00 00 7E 
0408b     7E 30 30 18 
0408f     18 30 30 66 | 	byte	$0c, $7e, $7e, $00, $00, $00, $00, $7e, $7e, $30, $30, $18, $18, $30, $30, $66
04093     66 7E 3C 00 
04097     00 00 00 30 
0409b     30 38 38 3C 
0409f     3C 36 36 7E | 	byte	$66, $7e, $3c, $00, $00, $00, $00, $30, $30, $38, $38, $3c, $3c, $36, $36, $7e
040a3     7E 30 30 00 
040a7     00 00 00 7E 
040ab     7E 06 06 3E 
040af     7E 60 60 60 | 	byte	$7e, $30, $30, $00, $00, $00, $00, $7e, $7e, $06, $06, $3e, $7e, $60, $60, $60
040b3     66 7E 3C 00 
040b7     00 00 00 38 
040bb     3C 0E 06 06 
040bf     3E 7E 66 66 | 	byte	$66, $7e, $3c, $00, $00, $00, $00, $38, $3c, $0e, $06, $06, $3e, $7e, $66, $66
040c3     66 7E 3C 00 
040c7     00 00 00 7E 
040cb     7E 60 60 30 
040cf     30 18 18 0C | 	byte	$66, $7e, $3c, $00, $00, $00, $00, $7e, $7e, $60, $60, $30, $30, $18, $18, $0c
040d3     0C 0C 0C 00 
040d7     00 00 00 3C 
040db     7E 66 66 3C 
040df     3C 66 66 66 | 	byte	$0c, $0c, $0c, $00, $00, $00, $00, $3c, $7e, $66, $66, $3c, $3c, $66, $66, $66
040e3     66 7E 3C 00 
040e7     00 00 00 3C 
040eb     7E 66 66 7E 
040ef     7C 60 60 60 | 	byte	$66, $7e, $3c, $00, $00, $00, $00, $3c, $7e, $66, $66, $7e, $7c, $60, $60, $60
040f3     70 3C 1C 00 
040f7     00 00 00 00 
040fb     00 00 18 18 
040ff     18 00 00 00 | 	byte	$70, $3c, $1c, $00, $00, $00, $00, $00, $00, $00, $18, $18, $18, $00, $00, $00
04103     18 18 18 00 
04107     00 00 00 00 
0410b     00 00 18 18 
0410f     18 00 00 18 | 	byte	$18, $18, $18, $00, $00, $00, $00, $00, $00, $00, $18, $18, $18, $00, $00, $18
04113     18 18 18 0C 
04117     04 00 00 00 
0411b     70 38 1C 0E 
0411f     07 0E 1C 38 | 	byte	$18, $18, $18, $0c, $04, $00, $00, $00, $70, $38, $1c, $0e, $07, $0e, $1c, $38
04123     70 00 00 00 
04127     00 00 00 00 
0412b     00 00 7E 7E 
0412f     00 00 7E 7E | 	byte	$70, $00, $00, $00, $00, $00, $00, $00, $00, $00, $7e, $7e, $00, $00, $7e, $7e
04133     00 00 00 00 
04137     00 00 00 00 | 	byte	$00[8]
0413b     0E 1C 38 70 
0413f     E0 70 38 1C 
04143     0E 00 00 00 
04147     00 00 00 3C | 	byte	$0e, $1c, $38, $70, $e0, $70, $38, $1c, $0e, $00, $00, $00, $00, $00, $00, $3c
0414b     7E 66 66 30 
0414f     30 18 18 18 
04153     00 18 18 00 
04157     00 00 00 3C | 	byte	$7e, $66, $66, $30, $30, $18, $18, $18, $00, $18, $18, $00, $00, $00, $00, $3c
0415b     7E 66 66 66 
0415f     66 36 06 66 
04163     66 7E 3C 00 
04167     00 00 00 18 | 	byte	$7e, $66, $66, $66, $66, $36, $06, $66, $66, $7e, $3c, $00, $00, $00, $00, $18
0416b     3C 7E 66 66 
0416f     66 7E 7E 66 
04173     66 66 66 00 
04177     00 00 00 3E | 	byte	$3c, $7e, $66, $66, $66, $7e, $7e, $66, $66, $66, $66, $00, $00, $00, $00, $3e
0417b     7E 66 66 7E 
0417f     3E 66 66 66 
04183     66 7E 3E 00 
04187     00 00 00 3C | 	byte	$7e, $66, $66, $7e, $3e, $66, $66, $66, $66, $7e, $3e, $00, $00, $00, $00, $3c
0418b     7E 66 66 06 
0418f     06 06 06 66 
04193     66 7E 3C 00 
04197     00 00 00 3E | 	byte	$7e, $66, $66, $06, $06, $06, $06, $66, $66, $7e, $3c, $00, $00, $00, $00, $3e
0419b     7E 66 66 66 
0419f     66 66 66 66 
041a3     66 7E 3E 00 
041a7     00 00 00 7E | 	byte	$7e, $66, $66, $66, $66, $66, $66, $66, $66, $7e, $3e, $00, $00, $00, $00, $7e
041ab     7E 06 06 3E 
041af     3E 06 06 06 
041b3     06 7E 7E 00 
041b7     00 00 00 7E | 	byte	$7e, $06, $06, $3e, $3e, $06, $06, $06, $06, $7e, $7e, $00, $00, $00, $00, $7e
041bb     7E 06 06 3E 
041bf     3E 06 06 06 
041c3     06 06 06 00 
041c7     00 00 00 7C | 	byte	$7e, $06, $06, $3e, $3e, $06, $06, $06, $06, $06, $06, $00, $00, $00, $00, $7c
041cb     7E 06 06 76 
041cf     76 66 66 66 
041d3     66 7E 3C 00 
041d7     00 00 00 66 | 	byte	$7e, $06, $06, $76, $76, $66, $66, $66, $66, $7e, $3c, $00, $00, $00, $00, $66
041db     66 66 66 7E 
041df     7E 66 66 66 
041e3     66 66 66 00 
041e7     00 00 00 7E | 	byte	$66, $66, $66, $7e, $7e, $66, $66, $66, $66, $66, $66, $00, $00, $00, $00, $7e
041eb     7E 18 18 18 
041ef     18 18 18 18 
041f3     18 7E 7E 00 
041f7     00 00 00 60 | 	byte	$7e, $18, $18, $18, $18, $18, $18, $18, $18, $7e, $7e, $00, $00, $00, $00, $60
041fb     60 60 60 60 
041ff     60 60 60    | 	byte	$60[7]
04202     66 66 7E 3C 
04206     00 00 00 00 
0420a     66 66 36 36 
0420e     1E 1E 36 36 | 	byte	$66, $66, $7e, $3c, $00, $00, $00, $00, $66, $66, $36, $36, $1e, $1e, $36, $36
04212     66 66 C6 C6 
04216     00 00 00 00 
0421a     06 06 06 06 
0421e     06 06 06 06 | 	byte	$66, $66, $c6, $c6, $00, $00, $00, $00, $06, $06, $06, $06, $06, $06, $06, $06
04222     06 06 7E 7E 
04226     00 00 00 00 
0422a     C6 C6 EE EE 
0422e     FE D6 D6 C6 | 	byte	$06, $06, $7e, $7e, $00, $00, $00, $00, $c6, $c6, $ee, $ee, $fe, $d6, $d6, $c6
04232     C6 C6 C6 C6 
04236     00 00 00 00 
0423a     66 66 66 6E 
0423e     6E 7E 7E 76 | 	byte	$c6, $c6, $c6, $c6, $00, $00, $00, $00, $66, $66, $66, $6e, $6e, $7e, $7e, $76
04242     76 66 66 66 
04246     00 00 00 00 
0424a     3C 7E 66 66 
0424e     66 66 66 66 | 	byte	$76, $66, $66, $66, $00, $00, $00, $00, $3c, $7e, $66, $66, $66, $66, $66, $66
04252     66 66 7E 3C 
04256     00 00 00 00 
0425a     3E 7E 66 66 
0425e     66 66 7E 3E | 	byte	$66, $66, $7e, $3c, $00, $00, $00, $00, $3e, $7e, $66, $66, $66, $66, $7e, $3e
04262     06 06 06 06 
04266     00 00 00 00 
0426a     3C 7E 66 66 
0426e     66 66 66 66 | 	byte	$06, $06, $06, $06, $00, $00, $00, $00, $3c, $7e, $66, $66, $66, $66, $66, $66
04272     66 56 3E 6C 
04276     00 00 00 00 
0427a     3E 7E 66 66 
0427e     66 7E 3E 36 | 	byte	$66, $56, $3e, $6c, $00, $00, $00, $00, $3e, $7e, $66, $66, $66, $7e, $3e, $36
04282     66 66 C6 C6 
04286     00 00 00 00 
0428a     7C 7E 06 06 
0428e     0E 1C 38 70 | 	byte	$66, $66, $c6, $c6, $00, $00, $00, $00, $7c, $7e, $06, $06, $0e, $1c, $38, $70
04292     60 60 7E 3E 
04296     00 00 00 00 
0429a     7E 7E 18 18 
0429e     18 18 18 18 | 	byte	$60, $60, $7e, $3e, $00, $00, $00, $00, $7e, $7e, $18, $18, $18, $18, $18, $18
042a2     18 18 18 18 
042a6     00 00 00 00 
042aa     66 66 66 66 
042ae     66 66 66 66 | 	byte	$18, $18, $18, $18, $00, $00, $00, $00, $66, $66, $66, $66, $66, $66, $66, $66
042b2     66 66 7E 3C 
042b6     00 00 00 00 
042ba     66 66 66 66 
042be     66 66 66 66 | 	byte	$66, $66, $7e, $3c, $00, $00, $00, $00, $66, $66, $66, $66, $66, $66, $66, $66
042c2     3C 3C 18 18 
042c6     00 00 00 00 
042ca     C6 C6 C6 C6 
042ce     C6 D6 D6 FE | 	byte	$3c, $3c, $18, $18, $00, $00, $00, $00, $c6, $c6, $c6, $c6, $c6, $d6, $d6, $fe
042d2     FE EE C6 82 
042d6     00 00 00 00 
042da     66 66 66 3C 
042de     3C 18 18 3C | 	byte	$fe, $ee, $c6, $82, $00, $00, $00, $00, $66, $66, $66, $3c, $3c, $18, $18, $3c
042e2     3C 66 66 66 
042e6     00 00 00 00 
042ea     66 66 66 66 
042ee     66 3C 3C 18 | 	byte	$3c, $66, $66, $66, $00, $00, $00, $00, $66, $66, $66, $66, $66, $3c, $3c, $18
042f2     18 18 18 18 
042f6     00 00 00 00 
042fa     7E 7E 30 30 
042fe     18 18 0C 0C | 	byte	$18, $18, $18, $18, $00, $00, $00, $00, $7e, $7e, $30, $30, $18, $18, $0c, $0c
04302     06 06 7E 7E 
04306     00 00 00 00 
0430a     3C 3C 0C 0C 
0430e     0C 0C 0C 0C | 	byte	$06, $06, $7e, $7e, $00, $00, $00, $00, $3c, $3c, $0c, $0c, $0c, $0c, $0c, $0c
04312     0C 0C 3C 3C 
04316     00 00 00 00 
0431a     06 06 0C 0C 
0431e     18 18 30 30 | 	byte	$0c, $0c, $3c, $3c, $00, $00, $00, $00, $06, $06, $0c, $0c, $18, $18, $30, $30
04322     60 60 C0 C0 
04326     00 00 00 00 
0432a     3C 3C 30 30 
0432e     30 30 30 30 | 	byte	$60, $60, $c0, $c0, $00, $00, $00, $00, $3c, $3c, $30, $30, $30, $30, $30, $30
04332     30 30 3C 3C 
04336     00 00 00 00 
0433a     18 18 3C 3C 
0433e     66 66 00 00 | 	byte	$30, $30, $3c, $3c, $00, $00, $00, $00, $18, $18, $3c, $3c, $66, $66, $00, $00
04342     00 00 00 00 
04346     00 00 00 00 
0434a     00 00 00 00 
0434e     00 00 00 00 
04352     00 00       | 	byte	$00[18]
04354     FE FE 00 00 
04358     00 00 0C 0C 
0435c     18 18 00 00 
04360     00 00 00 00 | 	byte	$fe, $fe, $00, $00, $00, $00, $0c, $0c, $18, $18, $00, $00, $00, $00, $00, $00
04364     00 00 00 00 
04368     00 00 00 00 
0436c     00          | 	byte	$00[9]
0436d     3C 7C 60 7C 
04371     7E 66 66 7E 
04375     7C 00 00 00 
04379     00 06 06 06 | 	byte	$3c, $7c, $60, $7c, $7e, $66, $66, $7e, $7c, $00, $00, $00, $00, $06, $06, $06
0437d     3E 7E 66 66 
04381     66 66 66 7E 
04385     3E 00 00 00 
04389     00 00 00 00 | 	byte	$3e, $7e, $66, $66, $66, $66, $66, $7e, $3e, $00, $00, $00, $00, $00, $00, $00
0438d     3C 3E 06 06 
04391     06 06 06 7E 
04395     7C 00 00 00 
04399     00 60 60 60 | 	byte	$3c, $3e, $06, $06, $06, $06, $06, $7e, $7c, $00, $00, $00, $00, $60, $60, $60
0439d     7C 7E 66 66 
043a1     66 66 66 7E 
043a5     7C 00 00 00 
043a9     00 00 00 00 | 	byte	$7c, $7e, $66, $66, $66, $66, $66, $7e, $7c, $00, $00, $00, $00, $00, $00, $00
043ad     3C 7E 66 66 
043b1     7E 06 06 7E 
043b5     7C 00 00 00 
043b9     00 70 78 18 | 	byte	$3c, $7e, $66, $66, $7e, $06, $06, $7e, $7c, $00, $00, $00, $00, $70, $78, $18
043bd     18 7E 7E 18 
043c1     18 18 18 18 
043c5     18 00 00 00 
043c9     00 00 00 00 | 	byte	$18, $7e, $7e, $18, $18, $18, $18, $18, $18, $00, $00, $00, $00, $00, $00, $00
043cd     7C 7E 66 66 
043d1     66 66 7E 7C 
043d5     60 7E 3E 00 
043d9     00 06 06 06 | 	byte	$7c, $7e, $66, $66, $66, $66, $7e, $7c, $60, $7e, $3e, $00, $00, $06, $06, $06
043dd     3E 7E 66 66 
043e1     66 66 66 66 
043e5     66 00 00 00 
043e9     00 18 18 00 | 	byte	$3e, $7e, $66, $66, $66, $66, $66, $66, $66, $00, $00, $00, $00, $18, $18, $00
043ed     1C 1C 18 18 
043f1     18 18 18 3C 
043f5     3C 00 00 00 
043f9     00 30 30 00 | 	byte	$1c, $1c, $18, $18, $18, $18, $18, $3c, $3c, $00, $00, $00, $00, $30, $30, $00
043fd     30 30 30 30 
04401     30 30 30 30 
04405     30          | 	byte	$30[9]
04406     3E 1E 00 00 
0440a     06 06 06 36 
0440e     36 1E 1E 1E 
04412     36 36 66 66 | 	byte	$3e, $1e, $00, $00, $06, $06, $06, $36, $36, $1e, $1e, $1e, $36, $36, $66, $66
04416     00 00 00 00 
0441a     1C 1C 18 18 
0441e     18 18 18 18 
04422     18 18 3C 3C | 	byte	$00, $00, $00, $00, $1c, $1c, $18, $18, $18, $18, $18, $18, $18, $18, $3c, $3c
04426     00 00 00 00 
0442a     00 00 00    | 	byte	$00[7]
0442d     6C FE FE D6 
04431     D6 C6 C6 C6 
04435     C6 00 00 00 
04439     00 00 00 00 | 	byte	$6c, $fe, $fe, $d6, $d6, $c6, $c6, $c6, $c6, $00, $00, $00, $00, $00, $00, $00
0443d     3E 7E 66 66 
04441     66 66 66 66 
04445     66 00 00 00 
04449     00 00 00 00 | 	byte	$3e, $7e, $66, $66, $66, $66, $66, $66, $66, $00, $00, $00, $00, $00, $00, $00
0444d     3C 7E 66 66 
04451     66 66 66 7E 
04455     3C 00 00 00 
04459     00 00 00 00 | 	byte	$3c, $7e, $66, $66, $66, $66, $66, $7e, $3c, $00, $00, $00, $00, $00, $00, $00
0445d     3E 7E 66 66 
04461     66 66 66 7E 
04465     3E 06 06 00 
04469     00 00 00 00 | 	byte	$3e, $7e, $66, $66, $66, $66, $66, $7e, $3e, $06, $06, $00, $00, $00, $00, $00
0446d     7C 7E 66 66 
04471     66 66 66 7E 
04475     7C 60 60 00 
04479     00 00 00 00 | 	byte	$7c, $7e, $66, $66, $66, $66, $66, $7e, $7c, $60, $60, $00, $00, $00, $00, $00
0447d     3E 7E 66 06 
04481     06 06 06 06 
04485     06 00 00 00 
04489     00 00 00 00 | 	byte	$3e, $7e, $66, $06, $06, $06, $06, $06, $06, $00, $00, $00, $00, $00, $00, $00
0448d     7C 7E 06 0E 
04491     3C 70 60 7E 
04495     3E 00 00 00 
04499     00 00 18 18 | 	byte	$7c, $7e, $06, $0e, $3c, $70, $60, $7e, $3e, $00, $00, $00, $00, $00, $18, $18
0449d     7E 7E 18 18 
044a1     18 18 18 78 
044a5     70 00 00 00 
044a9     00 00 00 00 | 	byte	$7e, $7e, $18, $18, $18, $18, $18, $78, $70, $00, $00, $00, $00, $00, $00, $00
044ad     66 66 66 66 
044b1     66 66 66    | 	byte	$66[7]
044b4     7E 7C 00 00 
044b8     00 00 00 00 
044bc     00 66 66 66 
044c0     66 66 3C 3C | 	byte	$7e, $7c, $00, $00, $00, $00, $00, $00, $00, $66, $66, $66, $66, $66, $3c, $3c
044c4     18 18 00 00 
044c8     00 00 00 00 
044cc     00 C6 C6 D6 
044d0     D6 FE FE EE | 	byte	$18, $18, $00, $00, $00, $00, $00, $00, $00, $c6, $c6, $d6, $d6, $fe, $fe, $ee
044d4     C6 82 00 00 
044d8     00 00 00 00 
044dc     00 66 66 3C 
044e0     3C 18 3C 3C | 	byte	$c6, $82, $00, $00, $00, $00, $00, $00, $00, $66, $66, $3c, $3c, $18, $3c, $3c
044e4     66 66 00 00 
044e8     00 00 00 00 
044ec     00 66 66 66 
044f0     66 66 66 7E | 	byte	$66, $66, $00, $00, $00, $00, $00, $00, $00, $66, $66, $66, $66, $66, $66, $7e
044f4     7C 60 7E 3E 
044f8     00 00 00 00 
044fc     00 7E 7E 30 
04500     18 18 0C 0C | 	byte	$7c, $60, $7e, $3e, $00, $00, $00, $00, $00, $7e, $7e, $30, $18, $18, $0c, $0c
04504     7E 7E 00 00 
04508     00 00 30 18 
0450c     18 18 18 0C 
04510     0C 18 18 18 | 	byte	$7e, $7e, $00, $00, $00, $00, $30, $18, $18, $18, $18, $0c, $0c, $18, $18, $18
04514     18 30 00 00 
04518     00 00 18 18 
0451c     18 18 18 18 
04520     18 18 18 18 | 	byte	$18, $30, $00, $00, $00, $00, $18, $18, $18, $18, $18, $18, $18, $18, $18, $18
04524     18 18 00 00 
04528     00 00 0C 18 
0452c     18 18 18 30 
04530     30 18 18 18 | 	byte	$18, $18, $00, $00, $00, $00, $0c, $18, $18, $18, $18, $30, $30, $18, $18, $18
04534     18 0C 00 00 
04538     00 00 6C 7E 
0453c     36 00 00 00 
04540     00 00 00 00 | 	byte	$18, $0c, $00, $00, $00, $00, $6c, $7e, $36, $00, $00, $00, $00, $00, $00, $00
04544     00 00 00 00 
04548     00 00 00 00 
0454c     00          | 	byte	$00[9]
0454d     18 18 18 18 
04551     18 18 00 00 
04555     00 00 00    | 	byte	$18, $18, $18, $18, $18, $18, $00, $00, $00, $00, $00
04558     00 00 00 00 
0455c     00 FF FF FF | twocolors      long  $00000000,$FFFFFF00
04560     00 00 00 00 
04564     00 80 80 80 
04568     00 00 00 FF 
0456c     00 FF FF FF | fourcolors     long  $00000000,$80808000,$FF000000,$FFFFFF00 'black,red,gray,white
04570     00 00 00 00 
04574     00          | vga16          long  $00000000,$00008000,$00800000,$00808000,$80000000,$80008000,$80400000,$AAAAAA00,$55555500,$0000FF00,$00FF0000,$00FFFF00,$FF000000,$FF00FF00,$FFFF0000,$FFFFFF00
04575     80 00 00 00 
04579     00 80 00 00 
0457d     80 80 00 00 
04581     00 00 80 00 | 	byte	$80, $00, $00, $00, $00, $80, $00, $00, $80, $80, $00, $00, $00, $00, $80, $00
04585     80 00 80 00 
04589     00 40 80 00 
0458d     AA AA AA 00 
04591     55 55 55 00 | 	byte	$80, $00, $80, $00, $00, $40, $80, $00, $aa, $aa, $aa, $00, $55, $55, $55, $00
04595     FF 00 00 00 
04599     00 FF 00 00 
0459d     FF FF 00 00 
045a1     00 00 FF 00 | 	byte	$ff, $00, $00, $00, $00, $ff, $00, $00, $ff, $ff, $00, $00, $00, $00, $ff, $00
045a5     FF 00 FF 00 
045a9     00 FF FF 00 
045ad     FF FF FF    | 	byte	$ff, $00, $ff, $00, $00, $ff, $ff, $00, $ff, $ff, $ff
045b0     00 00 00 00 
045b4     00          | ataripalette   file "ataripalettep2.def"
045b5     11 11 11 00 
045b9     22 22 22 00 
045bd     33 33 33 00 
045c1     44 44 44 00 | 	byte	$11, $11, $11, $00, $22, $22, $22, $00, $33, $33, $33, $00, $44, $44, $44, $00
045c5     55 55 55 00 
045c9     66 66 66 00 
045cd     77 77 77 00 
045d1     88 88 88 00 | 	byte	$55, $55, $55, $00, $66, $66, $66, $00, $77, $77, $77, $00, $88, $88, $88, $00
045d5     99 99 99 00 
045d9     AA AA AA 00 
045dd     BB BB BB 00 
045e1     CC CC CC 00 | 	byte	$99, $99, $99, $00, $aa, $aa, $aa, $00, $bb, $bb, $bb, $00, $cc, $cc, $cc, $00
045e5     DD DD DD 00 
045e9     EE EE EE 00 
045ed     FF FF FF 00 
045f1     00 0A 20 00 | 	byte	$dd, $dd, $dd, $00, $ee, $ee, $ee, $00, $ff, $ff, $ff, $00, $00, $0a, $20, $00
045f5     00 14 40 00 
045f9     00 1E 60 00 
045fd     00 28 80 00 
04601     00 32 9F 00 | 	byte	$00, $14, $40, $00, $00, $1e, $60, $00, $00, $28, $80, $00, $00, $32, $9f, $00
04605     00 3C BF 00 
04609     00 46 DF 00 
0460d     00 50 FF 00 
04611     1C 63 FF 00 | 	byte	$00, $3c, $bf, $00, $00, $46, $df, $00, $00, $50, $ff, $00, $1c, $63, $ff, $00
04615     39 77 FF 00 
04619     55 8A FF 00 
0461d     71 9E FF 00 
04621     8E B1 FF 00 | 	byte	$39, $77, $ff, $00, $55, $8a, $ff, $00, $71, $9e, $ff, $00, $8e, $b1, $ff, $00
04625     AA C5 FF 00 
04629     C6 D8 FF 00 
0462d     E3 EC FF 00 
04631     00 00 20 00 | 	byte	$aa, $c5, $ff, $00, $c6, $d8, $ff, $00, $e3, $ec, $ff, $00, $00, $00, $20, $00
04635     00 00 40 00 
04639     00 00 60 00 
0463d     00 00 80 00 
04641     00 00 9F 00 | 	byte	$00, $00, $40, $00, $00, $00, $60, $00, $00, $00, $80, $00, $00, $00, $9f, $00
04645     00 00 BF 00 
04649     00 00 DF 00 
0464d     00 00 FF 00 
04651     1C 1C FF 00 | 	byte	$00, $00, $bf, $00, $00, $00, $df, $00, $00, $00, $ff, $00, $1c, $1c, $ff, $00
04655     39 39 FF 00 
04659     55 55 FF 00 
0465d     71 71 FF 00 
04661     8E 8E FF 00 | 	byte	$39, $39, $ff, $00, $55, $55, $ff, $00, $71, $71, $ff, $00, $8e, $8e, $ff, $00
04665     AA AA FF 00 
04669     C6 C6 FF 00 
0466d     E3 E3 FF 00 
04671     10 00 20 00 | 	byte	$aa, $aa, $ff, $00, $c6, $c6, $ff, $00, $e3, $e3, $ff, $00, $10, $00, $20, $00
04675     20 00 40 00 
04679     30 00 60 00 
0467d     40 00 80 00 
04681     50 00 9F 00 | 	byte	$20, $00, $40, $00, $30, $00, $60, $00, $40, $00, $80, $00, $50, $00, $9f, $00
04685     60 00 BF 00 
04689     70 00 DF 00 
0468d     80 00 FF 00 
04691     8E 1C FF 00 | 	byte	$60, $00, $bf, $00, $70, $00, $df, $00, $80, $00, $ff, $00, $8e, $1c, $ff, $00
04695     9C 39 FF 00 
04699     AA 55 FF 00 
0469d     B8 71 FF 00 
046a1     C7 8E FF 00 | 	byte	$9c, $39, $ff, $00, $aa, $55, $ff, $00, $b8, $71, $ff, $00, $c7, $8e, $ff, $00
046a5     D5 AA FF 00 
046a9     E3 C6 FF 00 
046ad     F1 E3 FF 00 
046b1     20 00 20 00 | 	byte	$d5, $aa, $ff, $00, $e3, $c6, $ff, $00, $f1, $e3, $ff, $00, $20, $00, $20, $00
046b5     40 00 40 00 
046b9     60 00 60 00 
046bd     80 00 80 00 
046c1     9F 00 9F 00 | 	byte	$40, $00, $40, $00, $60, $00, $60, $00, $80, $00, $80, $00, $9f, $00, $9f, $00
046c5     BF 00 BF 00 
046c9     DF 00 DF 00 
046cd     FF 00 FF 00 
046d1     FF 1C FF 00 | 	byte	$bf, $00, $bf, $00, $df, $00, $df, $00, $ff, $00, $ff, $00, $ff, $1c, $ff, $00
046d5     FF 39 FF 00 
046d9     FF 55 FF 00 
046dd     FF 71 FF 00 
046e1     FF 8E FF 00 | 	byte	$ff, $39, $ff, $00, $ff, $55, $ff, $00, $ff, $71, $ff, $00, $ff, $8e, $ff, $00
046e5     FF AA FF 00 
046e9     FF C6 FF 00 
046ed     FF E3 FF 00 
046f1     20 00 10 00 | 	byte	$ff, $aa, $ff, $00, $ff, $c6, $ff, $00, $ff, $e3, $ff, $00, $20, $00, $10, $00
046f5     40 00 20 00 
046f9     60 00 30 00 
046fd     80 00 40 00 
04701     9F 00 50 00 | 	byte	$40, $00, $20, $00, $60, $00, $30, $00, $80, $00, $40, $00, $9f, $00, $50, $00
04705     BF 00 60 00 
04709     DF 00 70 00 
0470d     FF 00 80 00 
04711     FF 1C 8E 00 | 	byte	$bf, $00, $60, $00, $df, $00, $70, $00, $ff, $00, $80, $00, $ff, $1c, $8e, $00
04715     FF 39 9C 00 
04719     FF 55 AA 00 
0471d     FF 71 B8 00 
04721     FF 8E C7 00 | 	byte	$ff, $39, $9c, $00, $ff, $55, $aa, $00, $ff, $71, $b8, $00, $ff, $8e, $c7, $00
04725     FF AA D5 00 
04729     FF C6 E3 00 
0472d     FF E3 F1 00 
04731     20 00 00 00 | 	byte	$ff, $aa, $d5, $00, $ff, $c6, $e3, $00, $ff, $e3, $f1, $00, $20, $00, $00, $00
04735     40 00 00 00 
04739     60 00 00 00 
0473d     80 00 00 00 
04741     9F 00 00 00 | 	byte	$40, $00, $00, $00, $60, $00, $00, $00, $80, $00, $00, $00, $9f, $00, $00, $00
04745     BF 00 00 00 
04749     DF 00 00 00 
0474d     FF 00 00 00 
04751     FF 1C 1C 00 | 	byte	$bf, $00, $00, $00, $df, $00, $00, $00, $ff, $00, $00, $00, $ff, $1c, $1c, $00
04755     FF 39 39 00 
04759     FF 55 55 00 
0475d     FF 71 71 00 
04761     FF 8E 8E 00 | 	byte	$ff, $39, $39, $00, $ff, $55, $55, $00, $ff, $71, $71, $00, $ff, $8e, $8e, $00
04765     FF AA AA 00 
04769     FF C6 C6 00 
0476d     FF E3 E3 00 
04771     20 08 00 00 | 	byte	$ff, $aa, $aa, $00, $ff, $c6, $c6, $00, $ff, $e3, $e3, $00, $20, $08, $00, $00
04775     40 10 00 00 
04779     60 18 00 00 
0477d     80 20 00 00 
04781     9F 28 00 00 | 	byte	$40, $10, $00, $00, $60, $18, $00, $00, $80, $20, $00, $00, $9f, $28, $00, $00
04785     BF 30 00 00 
04789     DF 38 00 00 
0478d     FF 40 00 00 
04791     FF 55 1C 00 | 	byte	$bf, $30, $00, $00, $df, $38, $00, $00, $ff, $40, $00, $00, $ff, $55, $1c, $00
04795     FF 6A 39 00 
04799     FF 80 55 00 
0479d     FF 95 71 00 
047a1     FF AA 8E 00 | 	byte	$ff, $6a, $39, $00, $ff, $80, $55, $00, $ff, $95, $71, $00, $ff, $aa, $8e, $00
047a5     FF BF AA 00 
047a9     FF D5 C6 00 
047ad     FF EA E3 00 
047b1     20 10 00 00 | 	byte	$ff, $bf, $aa, $00, $ff, $d5, $c6, $00, $ff, $ea, $e3, $00, $20, $10, $00, $00
047b5     40 20 00 00 
047b9     60 30 00 00 
047bd     80 40 00 00 
047c1     9F 50 00 00 | 	byte	$40, $20, $00, $00, $60, $30, $00, $00, $80, $40, $00, $00, $9f, $50, $00, $00
047c5     BF 60 00 00 
047c9     DF 70 00 00 
047cd     FF 80 00 00 
047d1     FF 8E 1C 00 | 	byte	$bf, $60, $00, $00, $df, $70, $00, $00, $ff, $80, $00, $00, $ff, $8e, $1c, $00
047d5     FF 9C 39 00 
047d9     FF AA 55 00 
047dd     FF B8 71 00 
047e1     FF C7 8E 00 | 	byte	$ff, $9c, $39, $00, $ff, $aa, $55, $00, $ff, $b8, $71, $00, $ff, $c7, $8e, $00
047e5     FF D5 AA 00 
047e9     FF E3 C6 00 
047ed     FF F1 E3 00 
047f1     20 18 00 00 | 	byte	$ff, $d5, $aa, $00, $ff, $e3, $c6, $00, $ff, $f1, $e3, $00, $20, $18, $00, $00
047f5     40 30 00 00 
047f9     60 48 00 00 
047fd     80 60 00 00 
04801     9F 78 00 00 | 	byte	$40, $30, $00, $00, $60, $48, $00, $00, $80, $60, $00, $00, $9f, $78, $00, $00
04805     BF 90 00 00 
04809     DF A8 00 00 
0480d     FF C0 00 00 
04811     FF C7 1C 00 | 	byte	$bf, $90, $00, $00, $df, $a8, $00, $00, $ff, $c0, $00, $00, $ff, $c7, $1c, $00
04815     FF CE 39 00 
04819     FF D5 55 00 
0481d     FF DC 71 00 
04821     FF E3 8E 00 | 	byte	$ff, $ce, $39, $00, $ff, $d5, $55, $00, $ff, $dc, $71, $00, $ff, $e3, $8e, $00
04825     FF EA AA 00 
04829     FF F1 C6 00 
0482d     FF F8 E3 00 
04831     18 20 00 00 | 	byte	$ff, $ea, $aa, $00, $ff, $f1, $c6, $00, $ff, $f8, $e3, $00, $18, $20, $00, $00
04835     30 40 00 00 
04839     48 60 00 00 
0483d     60 80 00 00 
04841     78 9F 00 00 | 	byte	$30, $40, $00, $00, $48, $60, $00, $00, $60, $80, $00, $00, $78, $9f, $00, $00
04845     90 BF 00 00 
04849     A8 DF 00 00 
0484d     C0 FF 00 00 
04851     C7 FF 1C 00 | 	byte	$90, $bf, $00, $00, $a8, $df, $00, $00, $c0, $ff, $00, $00, $c7, $ff, $1c, $00
04855     CE FF 39 00 
04859     D5 FF 55 00 
0485d     DC FF 71 00 
04861     E3 FF 8E 00 | 	byte	$ce, $ff, $39, $00, $d5, $ff, $55, $00, $dc, $ff, $71, $00, $e3, $ff, $8e, $00
04865     EA FF AA 00 
04869     F1 FF C6 00 
0486d     F8 FF E3 00 
04871     00 20 00 00 | 	byte	$ea, $ff, $aa, $00, $f1, $ff, $c6, $00, $f8, $ff, $e3, $00, $00, $20, $00, $00
04875     00 40 00 00 
04879     00 60 00 00 
0487d     00 80 00 00 
04881     00 9F 00 00 | 	byte	$00, $40, $00, $00, $00, $60, $00, $00, $00, $80, $00, $00, $00, $9f, $00, $00
04885     00 BF 00 00 
04889     00 DF 00 00 
0488d     00 FF 00 00 
04891     1C FF 1C 00 | 	byte	$00, $bf, $00, $00, $00, $df, $00, $00, $00, $ff, $00, $00, $1c, $ff, $1c, $00
04895     39 FF 39 00 
04899     55 FF 55 00 
0489d     71 FF 71 00 
048a1     8E FF 8E 00 | 	byte	$39, $ff, $39, $00, $55, $ff, $55, $00, $71, $ff, $71, $00, $8e, $ff, $8e, $00
048a5     AA FF AA 00 
048a9     C6 FF C6 00 
048ad     E3 FF E3 00 
048b1     00 20 0A 00 | 	byte	$aa, $ff, $aa, $00, $c6, $ff, $c6, $00, $e3, $ff, $e3, $00, $00, $20, $0a, $00
048b5     00 40 14 00 
048b9     00 60 1E 00 
048bd     00 80 28 00 
048c1     00 9F 32 00 | 	byte	$00, $40, $14, $00, $00, $60, $1e, $00, $00, $80, $28, $00, $00, $9f, $32, $00
048c5     00 BF 3C 00 
048c9     00 DF 46 00 
048cd     00 FF 50 00 
048d1     1C FF 63 00 | 	byte	$00, $bf, $3c, $00, $00, $df, $46, $00, $00, $ff, $50, $00, $1c, $ff, $63, $00
048d5     39 FF 77 00 
048d9     55 FF 8A 00 
048dd     71 FF 9E 00 
048e1     8E FF B1 00 | 	byte	$39, $ff, $77, $00, $55, $ff, $8a, $00, $71, $ff, $9e, $00, $8e, $ff, $b1, $00
048e5     AA FF C5 00 
048e9     C6 FF D8 00 
048ed     E3 FF EC 00 
048f1     00 20 14 00 | 	byte	$aa, $ff, $c5, $00, $c6, $ff, $d8, $00, $e3, $ff, $ec, $00, $00, $20, $14, $00
048f5     00 40 28 00 
048f9     00 60 3C 00 
048fd     00 80 50 00 
04901     00 9F 64 00 | 	byte	$00, $40, $28, $00, $00, $60, $3c, $00, $00, $80, $50, $00, $00, $9f, $64, $00
04905     00 BF 78 00 
04909     00 DF 8C 00 
0490d     00 FF A0 00 
04911     1C FF AB 00 | 	byte	$00, $bf, $78, $00, $00, $df, $8c, $00, $00, $ff, $a0, $00, $1c, $ff, $ab, $00
04915     39 FF B5 00 
04919     55 FF C0 00 
0491d     71 FF CA 00 
04921     8E FF D5 00 | 	byte	$39, $ff, $b5, $00, $55, $ff, $c0, $00, $71, $ff, $ca, $00, $8e, $ff, $d5, $00
04925     AA FF DF 00 
04929     C6 FF EA 00 
0492d     E3 FF F4 00 
04931     00 20 20 00 | 	byte	$aa, $ff, $df, $00, $c6, $ff, $ea, $00, $e3, $ff, $f4, $00, $00, $20, $20, $00
04935     00 40 40 00 
04939     00 60 60 00 
0493d     00 80 80 00 
04941     00 9F 9F 00 | 	byte	$00, $40, $40, $00, $00, $60, $60, $00, $00, $80, $80, $00, $00, $9f, $9f, $00
04945     00 BF BF 00 
04949     00 DF DF 00 
0494d     00 FF FF 00 
04951     1C FF FF 00 | 	byte	$00, $bf, $bf, $00, $00, $df, $df, $00, $00, $ff, $ff, $00, $1c, $ff, $ff, $00
04955     39 FF FF 00 
04959     55 FF FF 00 
0495d     71 FF FF 00 
04961     8E FF FF 00 | 	byte	$39, $ff, $ff, $00, $55, $ff, $ff, $00, $71, $ff, $ff, $00, $8e, $ff, $ff, $00
04965     AA FF FF 00 
04969     C6 FF FF 00 
0496d     E3 FF FF 00 
04971     00 14 20 00 | 	byte	$aa, $ff, $ff, $00, $c6, $ff, $ff, $00, $e3, $ff, $ff, $00, $00, $14, $20, $00
04975     00 28 40 00 
04979     00 3C 60 00 
0497d     00 50 80 00 
04981     00 64 9F 00 | 	byte	$00, $28, $40, $00, $00, $3c, $60, $00, $00, $50, $80, $00, $00, $64, $9f, $00
04985     00 78 BF 00 
04989     00 8C DF 00 
0498d     00 A0 FF 00 
04991     1C AB FF 00 | 	byte	$00, $78, $bf, $00, $00, $8c, $df, $00, $00, $a0, $ff, $00, $1c, $ab, $ff, $00
04995     39 B5 FF 00 
04999     55 C0 FF 00 
0499d     71 CA FF 00 
049a1     8E D5 FF 00 | 	byte	$39, $b5, $ff, $00, $55, $c0, $ff, $00, $71, $ca, $ff, $00, $8e, $d5, $ff, $00
049a5     AA DF FF 00 
049a9     C6 EA FF 00 
049ad     E3 F4 FF    | 	byte	$aa, $df, $ff, $00, $c6, $ea, $ff, $00, $e3, $f4, $ff
049b0                 | '**********************************************************************************
049b0                 | '
049b0                 | '        Timings and colors definitions
049b0                 | '
049b0                 | '**********************************************************************************
049b0                 | 
049b0                 |    'streamer sets for text mode, to add to timings[0..5]
049b0                 | 
049b0                 | 
049b0                 | '                     bf.hs, hs,  bf.vis  visible, lr bord, pixel, ud bord,  up p., vsync, down p., mode, cpl, scanlines,  clock,                  hubset                  total vis lines
049b0     10 00 00 00 
049b4     50 00 00 00 
049b8     14 00 00 00 
049bc     00 04 00 00 | timings000      long   16,   80,    20,    1024,    112,     8,     48,      16,      16,    16,      0,  100,   480,     354693878,   %1_110000__11_0110_1100__1111_1011,   576
049c0     70 00 00 00 
049c4     08 00 00 00 
049c8     30 00 00 00 
049cc     10 00 00 00 | 	byte	$70, $00, $00, $00, $08, $00, $00, $00, $30, $00, $00, $00, $10, $00, $00, $00
049d0     10 00 00 00 
049d4     10 00 00 00 
049d8     00 00 00 00 
049dc     64 00 00 00 | 	byte	$10, $00, $00, $00, $10, $00, $00, $00, $00, $00, $00, $00, $64, $00, $00, $00
049e0     E0 01 00 00 
049e4     F6 32 24 15 
049e8     FB 6C C3 01 
049ec     40 02 00 00 | 	byte	$e0, $01, $00, $00, $f6, $32, $24, $15, $fb, $6c, $c3, $01, $40, $02, $00, $00
049f0     12 00 00 00 
049f4     30 00 00 00 
049f8     10 00 00 00 
049fc     B0 03 00 00 | timings064      long   18,   48,    16,     944,     24,     8,     24,      24,      32,    24,     64,  112,   496,     319215686,   %1_110010__11_0010_1101__1111_1011,   544
04a00     18 00 00 00 
04a04     08 00 00 00 
04a08     18 00 00 00 
04a0c     18 00 00 00 | 	byte	$18, $00, $00, $00, $08, $00, $00, $00, $18, $00, $00, $00, $18, $00, $00, $00
04a10     20 00 00 00 
04a14     18 00 00 00 
04a18     40 00 00 00 
04a1c     70 00 00 00 | 	byte	$20, $00, $00, $00, $18, $00, $00, $00, $40, $00, $00, $00, $70, $00, $00, $00
04a20     F0 01 00 00 
04a24     46 D8 06 13 
04a28     FB 2D CB 01 
04a2c     20 02 00 00 | 	byte	$f0, $01, $00, $00, $46, $d8, $06, $13, $fb, $2d, $cb, $01, $20, $02, $00, $00
04a30     10 00 00 00 
04a34     40 00 00 00 
04a38     10 00 00 00 
04a3c     30 03 00 00 | timings128      long   16,   64,    16,     816,      8,     8,     8,       32,      64,    32,    128,  100,   480,     283750000,   %1_111111__11_1000_1011__1111_1011,   496
04a40     08 00 00 00 
04a44     08 00 00 00 
04a48     08 00 00 00 
04a4c     20 00 00 00 | 	byte	$08, $00, $00, $00, $08, $00, $00, $00, $08, $00, $00, $00, $20, $00, $00, $00
04a50     40 00 00 00 
04a54     20 00 00 00 
04a58     80 00 00 00 
04a5c     64 00 00 00 | 	byte	$40, $00, $00, $00, $20, $00, $00, $00, $80, $00, $00, $00, $64, $00, $00, $00
04a60     E0 01 00 00 
04a64     70 AE E9 10 
04a68     FB 8B FF 01 
04a6c     F0 01 00 00 | 	byte	$e0, $01, $00, $00, $70, $ae, $e9, $10, $fb, $8b, $ff, $01, $f0, $01, $00, $00
04a70     10 00 00 00 
04a74     50 00 00 00 
04a78     14 00 00 00 
04a7c     00 04 00 00 | timings192      long   16,   80,    20,    1024,      0,     8,     0,       16,      16,    16,    192,  128,   576,     354693878,   %1_110000__11_0110_1100__1111_1011,   576
04a80     00 00 00 00 
04a84     08 00 00 00 
04a88     00 00 00 00 
04a8c     10 00 00 00 | 	byte	$00, $00, $00, $00, $08, $00, $00, $00, $00, $00, $00, $00, $10, $00, $00, $00
04a90     10 00 00 00 
04a94     10 00 00 00 
04a98     C0 00 00 00 
04a9c     80 00 00 00 | 	byte	$10, $00, $00, $00, $10, $00, $00, $00, $c0, $00, $00, $00, $80, $00, $00, $00
04aa0     40 02 00 00 
04aa4     F6 32 24 15 
04aa8     FB 6C C3 01 
04aac     40 02 00 00 | 	byte	$40, $02, $00, $00, $f6, $32, $24, $15, $fb, $6c, $c3, $01, $40, $02, $00, $00
04ab0     50 00 00 00 
04ab4     A0 00 00 00 
04ab8     54 00 00 00 
04abc     30 03 00 00 | timings256      long   80,  160,    84,     816,      8,     8,     8,        8,      12,     8,    256,  100,   480,     357959184,   %1_110000__11_0110_0100__1111_1011,   496
04ac0     08 00 00 00 
04ac4     08 00 00 00 
04ac8     08 00 00 00 
04acc     08 00 00 00 | 	byte	$08, $00, $00, $00, $08, $00, $00, $00, $08, $00, $00, $00, $08, $00, $00, $00
04ad0     0C 00 00 00 
04ad4     08 00 00 00 
04ad8     00 01 00 00 
04adc     64 00 00 00 | 	byte	$0c, $00, $00, $00, $08, $00, $00, $00, $00, $01, $00, $00, $64, $00, $00, $00
04ae0     E0 01 00 00 
04ae4     10 06 56 15 
04ae8     FB 64 C3 01 
04aec     F0 01 00 00 | 	byte	$e0, $01, $00, $00, $10, $06, $56, $15, $fb, $64, $c3, $01, $f0, $01, $00, $00
04af0     50 00 00 00 
04af4     32 00 00 00 
04af8     50 00 00 00 
04afc     30 03 00 00 | timings320      long   80,   50,    80,     816,      8,     8,     8,        8,      12,     8,    320,  100,   480,     322162162,   %1_100100__10_0101_0011__1111_1011,   496
04b00     08 00 00 00 
04b04     08 00 00 00 
04b08     08 00 00 00 
04b0c     08 00 00 00 | 	byte	$08, $00, $00, $00, $08, $00, $00, $00, $08, $00, $00, $00, $08, $00, $00, $00
04b10     0C 00 00 00 
04b14     08 00 00 00 
04b18     40 01 00 00 
04b1c     64 00 00 00 | 	byte	$0c, $00, $00, $00, $08, $00, $00, $00, $40, $01, $00, $00, $64, $00, $00, $00
04b20     E0 01 00 00 
04b24     F2 CD 33 13 
04b28     FB 53 92 01 
04b2c     F0 01 00 00 | 	byte	$e0, $01, $00, $00, $f2, $cd, $33, $13, $fb, $53, $92, $01, $f0, $01, $00, $00
04b30     18 00 00 00 
04b34     30 00 00 00 
04b38     18 00 00 00 
04b3c     30 03 00 00 | timings384      long   24,   48,    24,     816,      8,     8,     8,        8,      12,     8,    384,  100,   480,     286363636,   %1_010101__01_0011_1010__1111_1011,   496
04b40     08 00 00 00 
04b44     08 00 00 00 
04b48     08 00 00 00 
04b4c     08 00 00 00 | 	byte	$08, $00, $00, $00, $08, $00, $00, $00, $08, $00, $00, $00, $08, $00, $00, $00
04b50     0C 00 00 00 
04b54     08 00 00 00 
04b58     80 01 00 00 
04b5c     64 00 00 00 | 	byte	$0c, $00, $00, $00, $08, $00, $00, $00, $80, $01, $00, $00, $64, $00, $00, $00
04b60     E0 01 00 00 
04b64     F4 8F 11 11 
04b68     FB 3A 55 01 
04b6c     F0 01 00 00 | 	byte	$e0, $01, $00, $00, $f4, $8f, $11, $11, $fb, $3a, $55, $01, $f0, $01, $00, $00
04b70     20 00 00 00 
04b74     40 00 00 00 
04b78     22 00 00 00 
04b7c     80 03 00 00 | timings448      long   32,   64,    34,     896,      0,     8,     0,        8,      12,     8,    448,  112,   496,     322162162,   %1_100100__10_0101_0011__1111_1011,   496
04b80     00 00 00 00 
04b84     08 00 00 00 
04b88     00 00 00 00 
04b8c     08 00 00 00 | 	byte	$00, $00, $00, $00, $08, $00, $00, $00, $00, $00, $00, $00, $08, $00, $00, $00
04b90     0C 00 00 00 
04b94     08 00 00 00 
04b98     C0 01 00 00 
04b9c     70 00 00 00 | 	byte	$0c, $00, $00, $00, $08, $00, $00, $00, $c0, $01, $00, $00, $70, $00, $00, $00
04ba0     F0 01 00 00 
04ba4     F2 CD 33 13 
04ba8     FB 53 92 01 
04bac     F0 01 00 00 | 	byte	$f0, $01, $00, $00, $f2, $cd, $33, $13, $fb, $53, $92, $01, $f0, $01, $00, $00
04bb0                 | 'timings999      long    0,    0,     0,       0,      0,     0,     0,        0,       0,     0,      0,    0,     0,             0,                                    0,     0
04bb0     00 75 C7 97 
04bb4     27 47 F6 0A 
04bb8     05 79 CB 9B 
04bbc     2B 4B EA 0F | vgacolors       byte   0, 117, 199, 151, 39, 71, 246, 10, 5, 121, 203, 155, 43, 75, 234, 15
04bc0                 | 
04bc0     28 12 64 FD | hdmi            setq    #9
04bc4     00 E1 06 FB |                 rdlong  framebuf,  ptra                  'read pointers
04bc8                 | 
04bc8     00 28 6F FC |                 wrlong  #aend,#0                         'write driver length to hub#0: DEBUG/demo
04bcc     3C 00 66 FD |                 setcmod #$100                            'enable HDMI mode
04bd0     C0 FB 06 F6 |                 mov     ii,#448                          '7 << 6          
04bd4     79 FB 02 F1 |                 add     ii,hbase
04bd8     58 FA 62 FD |                 drvl    ii                                 '#7<<6 + hdmi_base      ' enable HDMI pins
04bdc     7B 0B 80 FF 
04be0     7D 01 0B FC |                 wrpin   ##%10110_1111_0111_10_00000_0, ii  '#7<<6 + hdmi_base      ' a '123 ohm BITDAC for pins
04be4                 | 
04be4     66 66 86 FF 
04be8     1D 9A 65 FD |                 setxfrq ##$0CCCCCCC+1                   'set streamer freq to 1/10th clk
04bec                 | 
04bec                 | 
04bec                 | ''--------  frame rendering main loop  ---------------------------------------------------
04bec                 | 
04bec                 | p101
04bec     28 14 64 FD |                 setq    #10
04bf0     00 E1 06 FB |                 rdlong  framebuf,  ptra
04bf4     28 1E 64 FD |                 setq    #15
04bf8     75 9D 02 FB |                 rdlong  m_bs,modeptr                     ' read timings
04bfc     72 9B 02 FB |                 rdlong  border,borderptr
04c00                 | 
04c00     01 C6 06 F1 |                 add     frames,#1
04c04     77 F7 02 F6 |                 mov     dlptr2,dlptr
04c08                 | 
04c08     74 C9 02 FB |                 rdlong  cursorx, cursorptr               ' read cursor position
04c0c     64 CB EA F8 |                 getbyte cursory, cursorx,#1              ' y position at byte #1
04c10     64 C5 F2 F8 |                 getbyte cursorsh,cursorx,#2              ' shape at byte #2
04c14     FF C8 06 F5 |                 and     cursorx,#255                     ' clear the cursor x varioble from y and shape
04c18                 |  '' up porch
04c18                 | 
04c18     49 FF 02 F6 |                 mov     hsync0,sync_000                  '
04c1c     4A 01 03 F6 |                 mov     hsync1,sync_001
04c20     37 AA 46 FB |                 callpa  i_upporch ,#blank
04c24     73 01 68 FC |                 wrlong  #0,vblankptr
04c28                 |                 
04c28     1F EC 16 F4 |                 testb   paletteptr,#31 wc
04c2c     29 FE 65 3D |          if_nc  setq2   #255
04c30     76 01 00 3B |          if_nc  rdlong  $000, paletteptr                'read palette
04c34                 | 
04c34                 | '' cursor blinking
04c34                 | 
04c34     04 C6 0E F4 |                 testb   frames,#4 wz                     ' cursor blinks at framerate/16, todo: define
04c38     81 C8 06 A6 |          if_z   mov     cursorx,#129                     ' to switch the cursor off, move it out of the screen
04c3c                 | 
04c3c                 | '' main screen
04c3c                 | 
04c3c     00 C0 06 F6 |                 mov linenum,#0
04c40     00 1A 07 F6 |                 mov rcnt,#0
04c44     00 1E 07 F6 |                 mov rcnt2a,#0
04c48                 | 
04c48                 | 
04c48                 | 
04c48     01 C0 06 F1 | p302            add     linenum,#1
04c4c     04 F6 06 F1 |                 add     dlptr2,#4
04c50     5D C1 0A F2 |                 cmp     linenum,i_totalvis  wz
04c54     84 00 90 AD |          if_z   jmp     #p112
04c58                 | 
04c58     00 1A 0F F2 | p301            cmp rcnt,#0 wz
04c5c     18 00 90 AD |         if_z    jmp #p306
04c60     01 1A 87 F1 |                 sub rcnt,#1
04c64     91 F9 02 F6 |                 mov dl,rdl
04c68     8E 1F 0B F7 |                 incmod rcnt2a,rcnt2 wz
04c6c     90 F9 02 A1 |    if_z         add dl,roffset  
04c70     7C 23 03 F6 |                 mov rdl,dl
04c74     04 00 90 FD |                 jmp #p307          
04c78                 |           
04c78                 |                 
04c78     7B F9 02 FB | p306            rdlong  dl,dlptr2
04c7c     7C FD 1A F6 | p307            mov     framebuf2,dl wcz                  'read a line start in the framebuffer from DL entry
04c80     6A FC 7A FD |                 rczr    framebuf2 wcz                     'but only if not %11 at lowest bits which means special DL entry
04c84     34 00 90 7D |    if_nz_or_nc  jmp     #p303                        
04c88                 | 
04c88                 | '' Special entry:
04c88                 | '' - repeat                 %nnnn_nnnn_nnnn_qqqq_mmmm_mmmm_mmmm_0111    repeat the next dl line n times, after q lines add offset m
04c88                 | '' - reload palette         %mmmm_mmmm_nnnn_nnnn_qqqq_qqqq_qqqq_1011    reload n palette entries from m color from palette_ptr+q
04c88                 | '' - set border color       %rrrr_rrrr_gggg_gggg_bbbb_bbbb_0001_0011    set border to rgb
04c88                 | '' - set border color       %0000_0000_0000_0000_pppp_pppp_0001_1011    set border color to palette entry #p
04c88                 | '' todo: set horizontal scroll (if needed)
04c88                 | 
04c88     02 FC 66 F0 |                 shl framebuf2,#2
04c8c     7E 25 43 F8 |                 getnib dlc,framebuf2,#0
04c90     04 24 0F F2 |                 cmp dlc,#%100 wz
04c94                 |   
04c94                 |                 
04c94     04 F6 06 F1 |                  add dlptr2,#4
04c98     BC FF 9F 5D |                              if_nz  jmp #p301  '' now ignore unknown instruction 
04c9c     7B 23 03 FB |                  rdlong rdl,dlptr2
04ca0     7E 1B 3B F9 |                  getword rcnt,framebuf2,#1 
04ca4     04 1A 47 F0 |                  shr rcnt,#4
04ca8                 |              
04ca8     7E 1D 63 F8 |                  getnib rcnt2,framebuf2,#4
04cac     7E 21 33 F9 |                  getword roffset,framebuf2,#0
04cb0                 |                 
04cb0     04 20 47 F0 |                  shr roffset,#4
04cb4     0C 20 67 F0 |                  shl roffset,#12
04cb8                 |   
04cb8     9C FF 9F FD |                  jmp #p301
04cbc                 |                  
04cbc                 |                  
04cbc                 | p303           ' mov     framebuf2,dl                    ' read a line start in the framebuffer from DL entry
04cbc     0C FC 46 F0 |                 shr     framebuf2,#12
04cc0     02 FC 66 F0 |                 shl     framebuf2,#2
04cc4                 | 
04cc4     7C 05 E3 F8 |                 getbyte t1,dl,#0
04cc8     00 04 0F F2 |                 cmp     t1,#0 wz
04ccc     24 00 90 AD |     if_z        jmp     #borderline
04cd0                 | 
04cd0     00 F8 16 F4 |                  testb   dl,#0  wc     ' bit 0 set = text OR extended:TODO
04cd4     40 00 90 CD |           if_c   jmp     #textline
04cd8     40 02 90 3D |           if_nc  jmp     #graphline
04cdc                 | '
04cdc                 | 'p302            add     linenum,#1
04cdc                 | '                add     dlptr2,#4
04cdc                 | '                cmp     linenum,i_totalvis  wz
04cdc                 | '         if_nz  jmp     #p301
04cdc                 | 
04cdc     73 03 68 FC | p112            wrlong  #1,vblankptr
04ce0     07 AE 46 FB |                 callpa  i_downporch ,#blank             'bottom blanks
04ce4                 | 
04ce4     4B FF 02 F6 |                 mov     hsync0,sync_222                 'vsync on
04ce8     4C 01 03 F6 |                 mov     hsync1,sync_223
04cec     04 AC 46 FB |                 callpa  i_vsync,#blank                  'vertical sync blanks
04cf0     F8 FE 9F FD |                 jmp     #p101
04cf4                 | 
04cf4                 | '' ---------------  END of frame rendering loop -------------------------------------------
04cf4                 | 
04cf4                 | 
04cf4                 | borderline     ' call    #hsync                      ' make a border
04cf4     4D A3 C2 FC |                 xcont   m_vi,border
04cf8     10 00 B0 FD |                 call #hsync
04cfc     48 FF 9F FD |                 jmp     #p302
04d00                 | 
04d00                 | 
04d00                 | blank          ' call    #hsync                          'blank lines
04d00     7F A3 C2 FC |                 xcont   m_vi,hsync0
04d04     04 00 B0 FD | 		call #hsync
04d08     FD ED 6F 0B |          _ret_   djnz    pa,#blank
04d0c                 | 
04d0c     7F 9D C2 FC | hsync           xcont   m_bs,hsync0                     'horizontal sync
04d10     80 9F B2 FC |                 xzero   m_sn,hsync1
04d14     7F A1 C2 0C |         _ret_   xcont   m_bv,hsync0
04d18                 | 
04d18                 | 
04d18                 | 
04d18                 | ''--%aaaa_aaaa_aaaa_aaaa_aazz_nnnn_llll_ll_01 - txt
04d18                 |   '' aaaa_aaaa_aaaa_aaaa_aazz_rrrr_rrrr_cc_10 - graph
04d18                 |   '' aaaa_aaaa_aaaa-aaaa_aarr_rrrr_rrrr_rr_11 - extended, next long to read
04d18                 | 
04d18                 | '' Display a text line DL[31..12]=addr, nibble #1=textline, zoom: todo
04d18                 | 
04d18     64 CF 02 F6 | textline        mov     cursorpos2,cursorx              ' we need another var for cursor as this code will repeat 16x for every char line
04d1c                 | 
04d1c     7C 03 53 F8 |                 getnib  fontline,dl,#2                 ' fontline is 0 to 15, a line in font def
04d20     7C 19 5B F8 |                 getnib  zoom, dl,#3
04d24     03 18 07 F5 |                 and             zoom, #3
04d28                 | 
04d28                 | 
04d28                 | 
04d28     7C BF 02 F6 |                 mov     linestart,dl                    ' linestart will be used for checking cursor y and compute line start addr in the buffer
04d2c     02 BE 46 F0 |                 shr     linestart,#2                    ' scanline to char line
04d30     3F BE 06 F5 |                 and     linestart,#63
04d34     65 BF 0A F2 |                 cmp     linestart,cursory wz            ' if the cursor is not here
04d38     81 CE 06 56 |           if_nz mov     cursorpos2,#129                 ' move it out of the screen
04d3c                 | 
04d3c                 |           '     call    #hsync                          ' now call hsync to gain some time between xconts
04d3c                 | 
04d3c                 |                        ' if fontline =0, get a border color
04d3c                 | 
04d3c     52 05 33 F9 | p102            getword t1,m_border,#0
04d40     00 04 0F F2 |                 cmp     t1, #0 wz
04d44     4D A5 C2 5C |           if_nz xcont   m_border,border                 ' display a left border if exists
04d48                 | 
04d48     62 03 1B F2 |                 cmp     fontline,cursorsh wcz           ' if the cursor have to be not displayed due to its shape
04d4c     81 CC 06 C6 |           if_c  mov     cursorpos,#129                  ' move it out of the screen
04d50     67 CD 02 36 |          if_nc  mov     cursorpos,cursorpos2
04d54     01 CC 06 F1 |                 add     cursorpos,#1                    ' we will substract #1 below so compensate this here
04d58     71 07 03 F6 |                 mov     t2,fontbuf                      ' font definition pointer
04d5c     81 07 03 F1 |                 add     t2,fontline                     ' add a current font line
04d60     53 BD 02 F6 |                 mov m_lut2, m_lut1
04d64     6B BD 02 F1 |                 add m_lut2, lutt1
04d68     59 11 03 F6 |                 mov cpl2,i_cpl
04d6c                 | 
04d6c     02 18 0F F2 |                cmp zoom,#2 wz
04d70     E4 00 90 AD |           if_z jmp #p420
04d74     01 18 0F F2 |                cmp zoom,#1 wz
04d78     64 00 90 AD |           if_z jmp #p410
04d7c     00 18 0F F2 |                 cmp zoom,#0 wz
04d80     04 00 90 AD |           if_z jmp #p400
04d84     50 01 90 FD |                jmp #p430
04d88                 | 
04d88                 |                    '
04d88                 |  ''---------------------------------------------------------------------------------------------------------
04d88     7E 13 03 FB |  p400                   rdlong  char,framebuf2          ' read a long char                          '1
04d8c     89 15 F3 F8 |                         getbyte backcolor,char,#2       ' byte #2 - background color                '2
04d90     89 17 FB F8 |                         getbyte charcolor,char,#3       ' byte #3 - foreground color                '3
04d94     89 13 E3 F8 |                         getbyte char,char, #0           ' word #0 - char code                       '4
04d98     04 FC 06 F1 |                         add     framebuf2,#4            ' point to the next long                    '5
04d9c     04 12 67 F0 |                         shl     char,#4                 ' 1 char=16 bytes in font def               '6
04da0     83 13 03 F1 |                         add     char,t2                 ' add this to font/line pointer             '7
04da4     89 05 C3 FA |                         rdbyte  t1,char                 ' and get 8 pixels prom there               '8
04da8     01 CC 8E F1 |                         sub     cursorpos,#1 wz         ' if there is a cursor                      '9
04dac     FF 04 67 A5 |                   if_z  xor     t1, #$FF                ' reverse the colors                        '10
04db0                 | 
04db0     82 BD C2 FC |                         xcont m_lut2,t1
04db4                 | 
04db4     8A 0D A3 FA |                         rdlut   t5,backcolor            ' read a background color from palette      '13
04db8     61 0D 33 FC |                         wrlut   t5,lutaddr              ' and write it to LUT #0 or #32             '14
04dbc     01 C2 06 F1 |                         add     lutaddr,#1                                                          '15
04dc0     8B 0D A3 FA |                         rdlut   t5,charcolor            ' the same for the foreground               '16
04dc4     61 0D 33 FC |                         wrlut   t5,lutaddr                                                          '17
04dc8     01 C2 86 F1 |                         sub     lutaddr,#1
04dcc                 | 
04dcc     10 BC E6 F4 |                         bitnot  m_lut2,#16                                                          '19
04dd0     10 A6 E6 F4 |                         bitnot  m_lut1,#16                                                          '19
04dd4     20 C2 66 F5 |                         xor     lutaddr,#32             ' use LUT #0-1 and 32-33                    '20
04dd8                 | 
04dd8     EB 11 6F FB |                         djnz   cpl2,#p400
04ddc     28 01 90 FD |  p401                   jmp    #p103
04de0                 | 
04de0                 | ''------------------------------------------------------------------------------------------------------------
04de0                 | 
04de0     01 10 47 F0 |  p410                   shr cpl2,#1
04de4                 | 
04de4                 | ''---------------------------------------------------------------------------------------------------------
04de4     7E 13 03 FB |  p412                   rdlong  char,framebuf2          ' read a long char                          '1
04de8     89 15 F3 F8 |                         getbyte backcolor,char,#2       ' byte #2 - background color                '2
04dec     89 17 FB F8 |                         getbyte charcolor,char,#3       ' byte #3 - foreground color                '3
04df0     89 13 E3 F8 |                         getbyte char,char, #0           ' word #0 - char code                       '4
04df4     04 FC 06 F1 |                         add     framebuf2,#4            ' point to the next long                    '5
04df8     04 12 67 F0 |                         shl     char,#4                 ' 1 char=16 bytes in font def               '6
04dfc     83 13 03 F1 |                         add     char,t2                 ' add this to font/line pointer             '7
04e00     89 05 C3 FA |                         rdbyte  t1,char                 ' and get 8 pixels prom there               '8
04e04     01 CC 8E F1 |                         sub     cursorpos,#1 wz         ' if there is a cursor                      '9
04e08     FF 04 67 A5 |                   if_z  xor     t1, #$FF                ' reverse the colors                        '10
04e0c                 | 
04e0c                 | 
04e0c     82 09 4B F8 |                         getnib t3,t1,#1                   ' 4 pixels to t3                                              '1  - +
04e10     82 05 43 F8 |                         getnib t1,t1,#0                   ' 4 pixels to t1                                                      '2  - +
04e14     63 04 63 FD |                         mergew t1                         ' make 01010101 from 1111                                     '3  - +
04e18     03 04 07 FA |                         mul t1,#3
04e1c     82 BD C2 FC |                         xcont m_lut2,t1
04e20     8A 0D A3 FA |                         rdlut   t5,backcolor            ' read a background color from palette      '13
04e24     61 0D 33 FC |                         wrlut   t5,lutaddr              ' and write it to LUT #0 or #32             '14
04e28     01 C2 06 F1 |                         add     lutaddr,#1                                                          '15
04e2c     8B 0D A3 FA |                         rdlut   t5,charcolor            ' the same for the foreground               '16
04e30     61 0D 33 FC |                         wrlut   t5,lutaddr                                                          '17
04e34     01 C2 86 F1 |                         sub     lutaddr,#1
04e38     63 08 63 FD |                         mergew t3
04e3c     03 08 07 FA |                         mul t3,#3
04e40     84 BD C2 FC |                         xcont m_lut2,t3
04e44                 | 
04e44     10 BC E6 F4 |                         bitnot  m_lut2,#16                                                          '19
04e48     10 A6 E6 F4 |                         bitnot  m_lut1,#16                                                          '19
04e4c                 | 
04e4c     20 C2 66 F5 |                         xor     lutaddr,#32             ' use LUT #0-1 and 32-33                    '20
04e50                 | 
04e50     E4 11 6F FB |                         djnz   cpl2,#p412
04e54     B0 00 90 FD |  p411                   jmp    #p103
04e58                 | 
04e58                 | ''------------------------------------------------------------------------------------------------------------
04e58                 | 
04e58     02 10 47 F0 |  p420                   shr cpl2,#2
04e5c                 | 
04e5c                 | ''---------------------------------------------------------------------------------------
04e5c     7E 13 03 FB |  p422                   rdlong  char,framebuf2          ' read a long char                          '1
04e60     89 15 F3 F8 |                         getbyte backcolor,char,#2       ' byte #2 - background color                '2
04e64     89 17 FB F8 |                         getbyte charcolor,char,#3       ' byte #3 - foreground color                '3
04e68     89 13 E3 F8 |                         getbyte char,char, #0           ' word #0 - char code                       '4
04e6c     04 FC 06 F1 |                         add     framebuf2,#4            ' point to the next long                    '5
04e70     04 12 67 F0 |                         shl     char,#4                 ' 1 char=16 bytes in font def               '6
04e74     83 13 03 F1 |                         add     char,t2                 ' add this to font/line pointer             '7
04e78     89 05 C3 FA |                         rdbyte  t1,char                 ' and get 8 pixels prom there               '8
04e7c     01 CC 8E F1 |                         sub     cursorpos,#1 wz         ' if there is a cursor                      '9
04e80     FF 04 67 A5 |                   if_z  xor     t1, #$FF                ' reverse the colors                        '10
04e84                 | 
04e84     61 04 63 FD |                         mergeb t1
04e88     82 09 3B F9 |                         getword t3,t1,#1
04e8c     0F 04 07 FA |                         mul t1,#15
04e90     82 BD C2 FC |                         xcont m_lut2,t1
04e94                 | 
04e94     8A 0D A3 FA |                         rdlut   t5,backcolor            ' read a background color from palette      '13
04e98     61 0D 33 FC |                         wrlut   t5,lutaddr              ' and write it to LUT #0 or #32             '14
04e9c     01 C2 06 F1 |                         add     lutaddr,#1                                                          '15
04ea0     8B 0D A3 FA |                         rdlut   t5,charcolor            ' the same for the foreground               '16
04ea4     61 0D 33 FC |                         wrlut   t5,lutaddr                                                          '17
04ea8     01 C2 86 F1 |                         sub     lutaddr,#1
04eac                 | 
04eac     82 0B EB F8 |                         getbyte t4,t1,#1        '
04eb0     85 BD C2 FC |                         xcont m_lut2,t4                                                                                                           '
04eb4                 | 
04eb4     0F 08 07 FA |                         mul t3,#15
04eb8     84 BD C2 FC |                         xcont m_lut2,t3
04ebc                 | 
04ebc     84 0D EB F8 |                         getbyte t5,t3,#1
04ec0     86 BD C2 FC |                         xcont m_lut2, t5
04ec4     10 BC E6 F4 |                         bitnot  m_lut2,#16                                                          '19
04ec8     10 A6 E6 F4 |                         bitnot  m_lut1,#16                                                          '19
04ecc                 | 
04ecc     20 C2 66 F5 |                         xor     lutaddr,#32             ' use LUT #0-1 and 32-33                    '20
04ed0                 | 
04ed0     E2 11 6F FB |                         djnz   cpl2,#p422
04ed4     30 00 90 FD |  p421                   jmp    #p103
04ed8                 | 
04ed8                 | '--------------------------------------------------------------------------------------------------------------
04ed8                 | 
04ed8     7E 13 03 FB |  p430                   rdlong  char,framebuf2          ' read a long char                          '1
04edc     89 15 F3 F8 |                         getbyte backcolor,char,#2       ' byte #2 - background color                '2
04ee0     89 17 FB F8 |                         getbyte charcolor,char,#3       ' byte #3 - foreground color                '3
04ee4                 | 
04ee4     00 BC C6 FC |                         xcont m_lut2,#0
04ee8                 | 
04ee8     8A 0D A3 FA |                         rdlut   t5,backcolor            ' read a background color from palette      '13
04eec     61 0D 33 FC |                         wrlut   t5,lutaddr              ' and write it to LUT #0 or #32             '14
04ef0     01 C2 06 F1 |                         add     lutaddr,#1                                                          '15
04ef4     8B 0D A3 FA |                         rdlut   t5,charcolor            ' the same for the foreground               '16
04ef8     61 0D 33 FC |                         wrlut   t5,lutaddr                                                          '17
04efc     01 C2 86 F1 |                         sub     lutaddr,#1
04f00                 | 
04f00     F5 11 6F FB |                         djnz   cpl2,#p430
04f04     00 00 90 FD |  p431                   jmp    #p103
04f08                 | 
04f08                 | ''------------------------------------------------------------------------------------------------------------
04f08                 | 
04f08                 | 
04f08                 | 
04f08     52 27 33 F9 | p103            getword  mb2,m_border,#0
04f0c     00 26 0F F2 |                 cmp      mb2, #0 wz
04f10     4D A5 C2 5C |                 if_nz    xcont   m_border,border            'display a right border if exists
04f14     F4 FD BF FD |   call #hsync
04f18     2C FD 9F FD |                 jmp #p302
04f1c                 | 
04f1c                 | '' -------------------------------------- END of text line ---------------------------------
04f1c                 | 
04f1c                 |   '' aaaa_aaaa_aaaa_aaaa_aazz_rrrr_rrrr_cc_10 - graph - display a graphics line
04f1c                 | 
04f1c                 | graphline   '    call    #hsync                          ' now call hsync to gain some time between xconts
04f1c                 | 
04f1c                 | 
04f1c     52 27 33 F9 | p202            getword mb2,m_border,#0
04f20     00 26 0F F2 |                 cmp     mb2, #0 wz
04f24     4D A5 C2 5C |           if_nz xcont   m_border,border                 ' display a left border if exists
04f28                 | 
04f28                 | '----------------------------------------- display pixels
04f28                 | 
04f28     53 BD 02 F6 |                 mov     m_lut2,m_lut1                   ' m_lut1 loaded from hub timing block, pixel per long
04f2c     59 11 03 F6 |                 mov     cpl2,i_cpl                      ' i_cpl in graphic modes is longs per line
04f30                 | 
04f30     7C 19 5B F8 |                 getnib  zoom, dl,#3
04f34     03 18 07 F5 |                 and             zoom, #3                        ' get a horizontal zoom for the line
04f38                 | 
04f38     7C BF 02 F6 |                 mov     colordepth,dl                   ' get a color depth, reuse linestart var f         '
04f3c     0C BE 06 F5 |                 and     colordepth,#12
04f40                 | 
04f40     00 BE 0E F2 |                 cmp     colordepth,#%0000 wz            ' 1 bpp modes
04f44     6C BD 02 A1 |           if_z  add     m_lut2,lutg1
04f48     68 00 90 AD |           if_z  jmp     #p240
04f4c                 | 
04f4c     04 BE 0E F2 |                 cmp     colordepth,#%0100 wz            ' 2 bpp modes
04f50     6D BD 02 A1 |           if_z  add     m_lut2,lutg2
04f54     9C 00 90 AD |           if_z  jmp     #p250
04f58                 | 
04f58     08 BE 0E F2 |                 cmp     colordepth,#%1000 wz            ' 4 bpp modes
04f5c     6E BD 02 A1 |           if_z  add     m_lut2,lutg4
04f60     00 01 90 AD |           if_z  jmp     #p260
04f64                 | 
04f64     6F BD 02 F1 |                 add m_lut2,lutg8                        ' 8 bpp modes
04f68                 | 
04f68                 | '' --- 8 bit color modes
04f68                 | 
04f68     00 18 0F F2 |                 cmp zoom, #%00 wz   '256 colors, zoom x1
04f6c     54 01 90 AD |                 if_z jmp #p251      'there is an universal loop for 1x zoom at p251, saves one long of skip pattern
04f70                 | 
04f70     01 18 0F F2 |                 cmp zoom, #%01 wz   '256 colors, zoom x2
04f74     2A 0E 07 A6 |                 if_z mov skippattern,#%101010
04f78     10 00 90 AD |                 if_z jmp #p235
04f7c                 |  '  
04f7c     02 18 0F F2 |                 cmp zoom, #%10 wz   '256 colors, zoom x4
04f80     25 0E 07 A6 |                 if_z mov skippattern,#%100101
04f84                 |   
04f84     05 0E 07 56 |                 if_nz mov skippattern,#%000101
04f88     01 10 47 50 |                 if_nz shr cpl2,#1         ' if 8x zoom, 2 xconts used in one loop, so divide loop count by 2
04f8c                 |         
04f8c                 | 
04f8c                 |         
04f8c     7E 13 03 FB | p235               rdlong  char,framebuf2
04f90     32 0E 63 FD |                    skipf skippattern
04f94     02 FC 06 F1 |                    add     framebuf2,#2             '0 1 1
04f98     01 FC 06 F1 |                    add     framebuf2,#1             '1 0 0
04f9c     50 12 FF F9 |                    movbyts char,#%01010000          '0 1 1
04fa0     00 12 FF F9 |                    movbyts char,#%00000000          '1 0 0
04fa4     89 BD C2 FC |                    xcont   m_lut2,char              '0 0 0
04fa8     89 BD C2 FC |                    xcont   m_lut2,char              '1 1 0
04fac     F7 11 6F FB |                    djnz    cpl2,#p235
04fb0                 | 
04fb0     20 01 90 FD |                jmp    #p203
04fb4                 |                   
04fb4                 | 
04fb4                 | 
04fb4                 | '' --- 1 bit color modes
04fb4                 | 
04fb4     00 18 0F F2 | p240          cmp zoom, #%00 wz     '2 colors, zoom x1
04fb8     08 01 90 AD |        if_z   jmp #p251              'there is an universal loop for 1x zoom at p251, saves one long of skip pattern
04fbc                 | 
04fbc     01 18 0F F2 |               cmp zoom, #%01 wz     '2 colors, zoom x2
04fc0     13 0E 07 A6 |        if_z   mov skippattern,#%10011
04fc4     08 0E 07 56 |        if_nz  mov skippattern,#%01000
04fc8                 | 
04fc8                 | 
04fc8     7E 13 E3 FA | p241               rdword  char,framebuf2
04fcc     44 12 FF F9 |                    movbyts char,#%01000100
04fd0     63 12 63 FD |                    mergew  char
04fd4     32 0E 63 FD |                    skipf skippattern
04fd8     44 12 FF F9 |                    movbyts char,#%01000100         ' 1 0
04fdc     63 12 63 FD |                    mergew  char                    ' 1 0
04fe0     89 BD C2 FC |                    xcont   m_lut2,char             ' 0 0
04fe4     02 FC 06 F1 |                    add     framebuf2,#2                    ' 0 1
04fe8     01 FC 06 F1 |                    add     framebuf2,#1                ' 1 0
04fec     F6 11 6F FB |                    djnz   cpl2,#p241
04ff0                 | 
04ff0                 | 
04ff0     E0 00 90 FD |                jmp    #p203
04ff4                 | 
04ff4                 | '' --- 2 bit color modes
04ff4                 | 
04ff4     00 18 0F F2 | p250          cmp zoom, #%00 wz     '4 colors, zoom x1
04ff8     C8 00 90 AD |        if_z   jmp #p251
04ffc                 | 
04ffc     01 18 0F F2 |               cmp zoom, #%01 wz     '4 colors, zoom x2
05000     30 00 90 AD |        if_z   jmp #p252
05004                 | 
05004                 | 
05004     7E 13 C3 FA | p254               rdbyte char,framebuf2
05008     04 0C 07 F6 |                    mov  t5,#4
0500c     02 12 67 F0 | p255               shl  char,#2
05010     89 05 53 F8 |                    getnib  t1,char,#2
05014     03 04 07 F5 |                    and     t1,#3
05018     55 04 07 FA |                    mul     t1,#$55
0501c     82 07 03 F9 |                    rolbyte  t2,t1,#0
05020     FA 0D 6F FB |                    djnz    t5,#p255
05024     83 BD C2 FC |                    xcont   m_lut2,t2
05028     01 FC 06 F1 |                    add     framebuf2,#1
0502c     F5 11 6F FB |                    djnz    cpl2,#p254
05030     A0 00 90 FD |                    jmp     #p203
05034                 | 
05034     7E 13 E3 FA | p252               rdword char,framebuf2
05038     08 0C 07 F6 |                    mov  t5,#8
0503c     02 12 67 F0 | p253               shl  char,#2
05040     89 05 63 F8 |                    getnib  t1,char,#4
05044     03 04 07 F5 |                    and     t1,#3
05048     05 04 07 FA |                    mul     t1,#5
0504c     82 07 83 F8 |                    rolnib  t2,t1,#0
05050     FA 0D 6F FB |                    djnz    t5,#p253
05054     83 BD C2 FC |                    xcont   m_lut2,t2
05058     02 FC 06 F1 |                    add     framebuf2,#2
0505c     F5 11 6F FB |                    djnz    cpl2,#p252
05060     70 00 90 FD |                    jmp     #p203
05064                 | 
05064                 | '' ------ 4 bit color modes
05064                 | 
05064     00 18 0F F2 | p260          cmp zoom, #%00 wz     '4 colors, zoom x1, the same loop as 2bpp
05068     58 00 90 AD |        if_z   jmp #p251
0506c                 | 
0506c     01 18 0F F2 |               cmp zoom, #%01 wz     '4 colors, zoom x2
05070     2C 00 90 AD |        if_z   jmp #p262
05074                 | 
05074                 | 
05074     7E 13 C3 FA | p263               rdbyte char,framebuf2
05078     02 0A DC FC |                            rep #5,#2
0507c     89 07 8B F8 |                              rolnib t2,char,#1
05080     89 07 8B F8 |                                  rolnib t2,char,#1
05084     89 07 8B F8 |                              rolnib t2,char,#1
05088     89 07 8B F8 |                                  rolnib t2,char,#1
0508c     04 12 67 F0 |                              shl char,#4
05090     83 BD C2 FC |                    xcont   m_lut2,t2
05094     01 FC 06 F1 |                    add     framebuf2,#1
05098     F6 11 6F FB |                    djnz    cpl2,#p263
0509c     34 00 90 FD |                    jmp     #p203
050a0                 | 
050a0     7E 13 E3 FA | p262               rdword  char,framebuf2
050a4     04 06 DC FC |                            rep #3,#4
050a8     89 07 9B F8 |                              rolnib t2,char,#3
050ac     89 07 9B F8 |                                  rolnib t2,char,#3
050b0     04 12 67 F0 |                              shl char,#4
050b4     83 BD C2 FC |                    xcont   m_lut2,t2
050b8     02 FC 06 F1 |                    add     framebuf2,#2
050bc     F8 11 6F FB |                    djnz    cpl2,#p262
050c0     10 00 90 FD |                    jmp     #p203
050c4                 | 
050c4                 | ''---------- all color modes without zoom
050c4                 | 
050c4     88 07 D8 FC | p251               rep  #3,cpl2
050c8     7E 13 03 FB |                    rdlong  char,framebuf2
050cc     04 FC 06 F1 |                    add     framebuf2,#4
050d0     89 BD C2 FC |                    xcont   m_lut2,char
050d4                 |           
050d4                 |  ''-----------------------------------------------------------------------------------------
050d4                 | p203           ' getword  mb2,m_border,#0
050d4     00 26 0F F2 |                 cmp      mb2, #0 wz
050d8     4D A5 C2 5C |                 if_nz    xcont   m_border,border            'display a right border if exists
050dc     2C FC BF FD |   call #hsync
050e0     64 FB 9F FD |                 jmp #p302
050e4                 | 
050e4                 | '' -------------------------------------- END of graph  line ---------------------------------
050e4                 | 
050e4                 | '' consts and vars
050e4                 | 
050e4     52 4D 35 D5 | sync_000        long    %1101010100_1101010100_1101010100_10    '
050e8     AE 42 35 D5 | sync_001        long    %1101010100_1101010100_0010101011_10    '        hsync
050ec     52 45 15 55 | sync_222        long    %0101010100_0101010100_0101010100_10    'vsync
050f0     AE 4A 15 55 | sync_223        long    %0101010100_0101010100_1010101011_10    'vsync + hsync
050f4                 | 
050f4     00 2C 1A 00 | border          long    %00000000_00011010_00101100_00000000
050f8                 | 
050f8                 | '------ these longs will be set by setmode function
050f8                 | 
050f8     00 00 00 00 | m_bs            long    0        'blanks before sync
050fc     00 00 00 00 | m_sn            long    0        'sync
05100     00 00 00 00 | m_bv            long    0        'blanks before visible
05104     00 00 00 00 | m_vi            long    0        'visible pixels #
05108     00 00 00 00 | m_border        long    0        'left/right borders
0510c     00 00 00 00 | m_lut1          long    0        'characters
05110     00 00 00 00 | i_vborder       long    0        'up/down borders
05114     00 00 00 00 | i_upporch       long    0        'up porch lines
05118     00 00 00 00 | i_vsync         long    0        'vsync lines
0511c     00 00 00 00 | i_downporch     long    0        'down porch lines
05120     00 00 00 00 | i_modenum       long    0        'mode #
05124     00 00 00 00 | i_cpl           long    0        'chars/longs per line
05128     00 00 00 00 | i_lines         long    0        'scanlines #
0512c     00 00 00 00 | i_clock         long    0
05130     00 00 00 00 | i_hubset        long    0
05134     00 00 00 00 | i_totalvis      long    0
05138                 | 
05138                 | '-------------------------------------
05138                 | 
05138     00 00 00 00 | m_lut2          long    0
0513c                 | 
0513c                 | colordepth
0513c     00 00 00 00 | linestart       long    0
05140     00 00 00 00 | linenum         long    0
05144     00 01 00 00 | lutaddr         long    256
05148                 | 
05148     0E 00 00 00 | cursorsh        long    14
0514c     00 00 00 00 | frames          long    0
05150     00 00 00 00 | cursorx         long    0
05154     00 00 00 00 | cursory         long    0
05158     00 00 00 00 | cursorpos       long    0
0515c     00 00 00 00 | cursorpos2      long    0
05160     00 00 00 00 | fontstart       long    0
05164     00 00 00 00 | border2         long 0
05168     00 00 81 70 | lutiv           long $70810000
0516c     00 00 88 00 | lutt1           long $00880000
05170     00 00 80 00 | lutg1           long $00800000
05174     00 00 80 10 | lutg2           long $10800000
05178     00 00 80 20 | lutg4           long $20800000
0517c     00 00 80 30 | lutg8           long $30800000
05180     00 00 00 00 | framebuf        long 0
05184     00 00 00 00 | fontbuf         long 0
05188     00 00 00 00 | borderptr       long 0
0518c     00 00 00 00 | vblankptr       long 0
05190     00 00 00 00 | cursorptr       long 0
05194     00 00 00 00 | modeptr         long 0
05198     00 00 00 00 | paletteptr      long 0
0519c     00 00 00 00 | dlptr           long 0
051a0                 | fontnumptr      res     1
051a0                 | hbase           res     1
051a0                 | borderptr2      res     1
051a0                 | dlptr2 res 1
051a0                 | dl              res 1
051a0                 | ii              res     1
051a0                 | framebuf2       res     1
051a0                 | hsync0          res     1
051a0                 | hsync1          res     1
051a0                 | fontline        res     1
051a0                 | t1              res     1
051a0                 | t2              res     1
051a0                 | t3 res 1
051a0                 | t4 res 1
051a0                 | t5 res 1
051a0                 | skippattern res 1
051a0                 | cpl2 res 1
051a0                 | char            res     1
051a0                 | backcolor       res     1
051a0                 | charcolor       res     1
051a0                 | zoom res 1
051a0     00 00 00 00 | rcnt long 0 'dl repeat count
051a4     00 00 00 00 | rcnt2 long 0
051a8     00 00 00 00 | rcnt2a long 0
051ac     00 00 00 00 | roffset long 0
051b0     00 00 00 00 | rdl long 0  'dl repeat line
051b4     00 00 00 00 | dlc long 0 'dl command
051b8     00 00 00 00 | mb2 long 0
051bc     00 00 00 00 | aend             long 0
051c0                 | 	alignl
051c0                 | __system__dat_
051c0     00 00 00 00 
051c4     00 00 00 00 
051c8     03 00 00 00 
051cc     00 00 00 00 | 	byte	$00, $00, $00, $00, $00, $00, $00, $00, $03, $00, $00, $00, $00, $00, $00, $00
051d0                 | __heap_base
051d0     00 00 00 00 
      ...             
061d0     00 00 00 00 
061d4     00 00 00 00 | 	long	0[1026]
061d8                 | objmem
061d8     00 00 00 00 
      ...             
062fc     00 00 00 00 
06300     00 00 00 00 | 	long	0[75]
06304                 | stackspace
06304     00 00 00 00 | 	long	0[1]
06308 084             | 	org	COG_BSS_START
06308 084             | _tmp002_
06308 084             | 	res	1
06308 085             | _var01
06308 085             | 	res	1
06308 086             | _var02
06308 086             | 	res	1
06308 087             | _var03
06308 087             | 	res	1
06308 088             | _var04
06308 088             | 	res	1
06308 089             | _var05
06308 089             | 	res	1
06308 08a             | _var06
06308 08a             | 	res	1
06308 08b             | _var07
06308 08b             | 	res	1
06308 08c             | _var08
06308 08c             | 	res	1
06308 08d             | _var09
06308 08d             | 	res	1
06308 08e             | _var10
06308 08e             | 	res	1
06308 08f             | _var11
06308 08f             | 	res	1
06308 090             | _var12
06308 090             | 	res	1
06308 091             | _var13
06308 091             | 	res	1
06308 092             | _var14
06308 092             | 	res	1
06308 093             | _var15
06308 093             | 	res	1
06308 094             | _var16
06308 094             | 	res	1
06308 095             | _var17
06308 095             | 	res	1
06308 096             | _var18
06308 096             | 	res	1
06308 097             | _var19
06308 097             | 	res	1
06308 098             | _var20
06308 098             | 	res	1
06308 099             | _var21
06308 099             | 	res	1
06308 09a             | _var22
06308 09a             | 	res	1
06308 09b             | _var23
06308 09b             | 	res	1
06308 09c             | _var24
06308 09c             | 	res	1
06308 09d             | _var25
06308 09d             | 	res	1
06308 09e             | _var26
06308 09e             | 	res	1
06308 09f             | _var27
06308 09f             | 	res	1
06308 0a0             | _var28
06308 0a0             | 	res	1
06308 0a1             | _var29
06308 0a1             | 	res	1
06308 0a2             | _var30
06308 0a2             | 	res	1
06308 0a3             | _var31
06308 0a3             | 	res	1
06308 0a4             | _var32
06308 0a4             | 	res	1
06308 0a5             | arg01
06308 0a5             | 	res	1
06308 0a6             | arg02
06308 0a6             | 	res	1
06308 0a7             | arg03
06308 0a7             | 	res	1
06308 0a8             | arg04
06308 0a8             | 	res	1
06308 0a9             | arg05
06308 0a9             | 	res	1
06308 0aa             | local01
06308 0aa             | 	res	1
06308 0ab             | local02
06308 0ab             | 	res	1
06308 0ac             | local03
06308 0ac             | 	res	1
06308 0ad             | local04
06308 0ad             | 	res	1
06308 0ae             | local05
06308 0ae             | 	res	1
06308 0af             | local06
06308 0af             | 	res	1
06308 0b0             | local07
06308 0b0             | 	res	1
06308 0b1             | local08
06308 0b1             | 	res	1
06308 0b2             | local09
06308 0b2             | 	res	1
06308 0b3             | local10
06308 0b3             | 	res	1
06308 0b4             | local11
06308 0b4             | 	res	1
06308 0b5             | local12
06308 0b5             | 	res	1
06308 0b6             | local13
06308 0b6             | 	res	1
06308 0b7             | local14
06308 0b7             | 	res	1
06308 0b8             | muldiva_
06308 0b8             | 	res	1
06308 0b9             | muldivb_
06308 0b9             | 	res	1
06308 0ba             | 	fit	480