
00000                 | 
00000                 | #line 1 "D:/Programowanie/ultibo-propeller/Propeller/hn007-20210302.p2asm"
00000                 | ' 
00000                 | ' 
00000                 | ' hdmi_base       = 48             'must be a multiple of 8
00000                 | con
00000                 | 	hdmi_base = 48
00000                 | ' _clkfreq        = 200000000      'start safe, hubset will do the rest
00000                 | 	_clkfreq = 200000000
00000                 | ' 
00000                 | ' 
00000                 | ' ' 354_689_500   '200x Atari 8-bit PAL,  50x Amiga PAL  - real settings: 49 869 354693878  - 1.0000123 - mode 0
00000                 | ' ' 357_954_500   '200x Atari 8-bit NTSC, 50x Amiga NTSC - real settings: 49 877 357959184  - 1.0000131 - mode 256
00000                 | ' 
00000                 | ' ' We also need x180 and x160 speeds
00000                 | ' '
00000                 | ' ' 319_220_550 90x PAL  - real settings: 51 814 319215686 - 0.9999848 - mode 1
00000                 | ' ' 322_159_050 90x NTSC - real settings: 37 596 322162162 - 1.0000097 - mode 257
00000                 | ' 
00000                 | ' ' 283_751_600 80x PAL  - real settings: 64 908 283750000 - 0.9999944 - mode 2
00000                 | ' ' 286_363_600 80x NTSC - real settings: 22 315 286363636 - 1.0000001 - mode 258
00000                 | ' 
00000                 | ' 
00000                 | ' c_black         =    0
00000                 | 	c_black = 0
00000                 | ' c_blue          =  117
00000                 | 	c_blue = 117
00000                 | ' c_green         =  199
00000                 | 	c_green = 199
00000                 | ' c_cyan          =  151
00000                 | 	c_cyan = 151
00000                 | ' c_red           =   39
00000                 | 	c_red = 39
00000                 | ' c_magenta       =   71
00000                 | 	c_magenta = 71
00000                 | ' c_brown         =  246
00000                 | 	c_brown = 246
00000                 | ' c_lightgray     =   10
00000                 | 	c_lightgray = 10
00000                 | ' c_darkgray      =    5
00000                 | 	c_darkgray = 5
00000                 | ' c_lightblue     =  123
00000                 | 	c_lightblue = 123
00000                 | ' c_lightgreen    =  203
00000                 | 	c_lightgreen = 203
00000                 | ' c_lightcyan     =  155
00000                 | 	c_lightcyan = 155
00000                 | ' c_lightred      =   43
00000                 | 	c_lightred = 43
00000                 | ' c_lightmagenta  =   75
00000                 | 	c_lightmagenta = 75
00000                 | ' c_yellow        =  234
00000                 | 	c_yellow = 234
00000                 | ' c_white         =   15
00000                 | 	c_white = 15
00000                 | dat
00000 000 00 00 00 00 | 	nop
00004 001 01 EC 63 FD | 	cogid	pa
00008 002 02 00 00 FF 
0000c 003 00 EC E7 FC | 	coginit	pa,##$400
00010                 | 	orgh	$10
00010     00 00 00 00 | 	long	0	'reserved
00014     00 00 00 00 | 	long	0 ' clock frequency: will default to 200000000
00018     00 00 00 00 | 	long	0 ' clock mode: will default to $10009fb
0001c     00 00 00 00 
      ...             
003f8     00 00 00 00 
003fc     00 00 00 00 | 	orgh	$400
00400 000             | 	org	0
00400 000             | entry
00400 000 00 F0 0F F2 | 	cmp	ptra, #0 wz
00404 001 94 00 90 5D |  if_ne	jmp	#spininit
00408 002 7B F0 03 F6 | 	mov	ptra, ptr_stackspace_
0040c 003 14 EC 0F FB | 	rdlong	pa, #20 wz
00410 004 6C 00 90 5D |  if_ne	jmp	#skip_clock_set_
00414 005 00 00 64 FD | 	hubset	#0
00418 006 04 80 80 FF 
0041c 007 00 F0 67 FD | 	hubset	##16779768
00420 008 86 01 80 FF 
00424 009 1F 80 66 FD | 	waitx	##200000
00428 00a 04 80 00 FF 
0042c 00b FB ED 07 F6 | 	mov	pa, ##16779771
00430 00c 00 EC 63 FD | 	hubset	pa
00434 00d 18 EC 67 FC | 	wrlong	pa, #24
00438 00e E1 F5 85 FF 
0043c 00f 14 00 6C FC | 	wrlong	##200000000, #20
00440 010 3C 00 90 FD | 	jmp	#skip_clock_set_
00444 011 00 00 00 00 
      ...             
00478 01e 00 00 00 00 
0047c 01f 00 00 00 00 | 	orgf	32
00480 020             | skip_clock_set_
00480 020 04 EA 60 FD | 	locknew	__lockreg
00484 021 79 EA 60 FC | 	wrlong	__lockreg, ptr___lockreg_
00488 022 F4 05 A0 FD | 	call	#_demo
0048c 023             | cogexit
0048c 023 38 01 80 FF 
00490 024 1F 00 66 FD | 	waitx	##160000
00494 025 01 08 61 FD | 	cogid	arg01
00498 026 03 08 61 FD | 	cogstop	arg01
0049c 027             | spininit
0049c 027 00 F1 04 FB | 	rdlong	objptr, ptra
004a0 028 04 F0 07 F1 | 	add	ptra, #4
004a4 029 00 F9 04 FB | 	rdlong	result1, ptra
004a8 02a 04 F0 07 F1 | 	add	ptra, #4
004ac 02b 00 09 05 FB | 	rdlong	arg01, ptra
004b0 02c 04 F0 07 F1 | 	add	ptra, #4
004b4 02d 00 0B 05 FB | 	rdlong	arg02, ptra
004b8 02e 04 F0 07 F1 | 	add	ptra, #4
004bc 02f 00 0D 05 FB | 	rdlong	arg03, ptra
004c0 030 04 F0 07 F1 | 	add	ptra, #4
004c4 031 00 0F 05 FB | 	rdlong	arg04, ptra
004c8 032 10 F0 87 F1 | 	sub	ptra, #16
004cc 033 2D F8 60 FD | 	call	result1
004d0 034 B8 FF 9F FD | 	jmp	#cogexit
004d4 035             | FCACHE_LOAD_
004d4 035 2B 86 60 FD |     pop	fcache_tmpb_
004d8 036 F6 87 00 F1 |     add	fcache_tmpb_, pa
004dc 037 2A 86 60 FD |     push	fcache_tmpb_
004e0 038 F6 87 80 F1 |     sub	fcache_tmpb_, pa
004e4 039 02 EC 47 F0 |     shr	pa, #2
004e8 03a F6 85 00 F6 |     mov	fcache_tmpa_, pa
004ec 03b 00 85 04 F1 |     add	fcache_tmpa_, #$100
004f0 03c 42 82 30 FC |     wrlut ret_instr_, fcache_tmpa_
004f4 03d 01 EC 87 F1 |     sub	pa, #1
004f8 03e 29 EC 63 FD |     setq2	pa
004fc 03f 43 00 02 FB |     rdlong	$100-0, fcache_tmpb_
00500 040 00 03 80 FD |     jmp	#\$300 ' jmp to cache
00504 041             | ret_instr_
00504 041 2D 00 64 FD |     ret
00508 042             | fcache_tmpa_
00508 042 00 00 00 00 |     long 0
0050c 043             | fcache_tmpb_
0050c 043 00 00 00 00 |     long 0
00510 044             | COUNT_
00510 044 00 00 00 00 |     long 0
00514 045             | RETADDR_
00514 045 00 00 00 00 |     long 0
00518 046             | fp
00518 046 00 00 00 00 |     long 0
0051c 047             | gosub_
0051c 047 00 88 04 F6 |     mov  COUNT_, #0
00520 048 84 EC 03 F6 |     mov  pa, arg01
00524 049 2B 8A 60 FD |     pop  RETADDR_
00528 04a 1C 00 90 FD |     jmp  #pushregs_done_
0052c 04b             | pushregs_
0052c 04b 2B EC 63 FD |     pop  pa
00530 04c 2B 8A 60 FD |     pop  RETADDR_
00534 04d 04 88 94 FB |     tjz  COUNT_, #pushregs_done_
00538 04e 01 88 84 F1 |     sub  COUNT_, #1
0053c 04f 28 88 60 FD |     setq COUNT_
00540 050 00 13 65 FC |     wrlong local01, ptra
00544 051 01 88 04 F1 |     add  COUNT_, #1
00548 052             | pushregs_done_
00548 052 02 88 64 F0 |     shl  COUNT_, #2
0054c 053 44 F0 03 F1 |     add  ptra, COUNT_
00550 054 02 88 44 F0 |     shr  COUNT_, #2
00554 055 28 04 64 FD |     setq #2 ' push 3 registers starting at COUNT_
00558 056 00 89 64 FC |     wrlong COUNT_, ptra
0055c 057 0C F0 07 F1 |     add    ptra, #12
00560 058 F8 8D 00 F6 |     mov    fp, ptra
00564 059 2C EC 63 FD |     jmp  pa
00568 05a             |  popregs_
00568 05a 2B EC 63 FD |     pop    pa
0056c 05b 0C F0 87 F1 |     sub    ptra, #12
00570 05c 28 04 64 FD |     setq   #2
00574 05d 00 89 04 FB |     rdlong COUNT_, ptra
00578 05e 06 88 94 FB |     tjz    COUNT_, #popregs__ret
0057c 05f 02 88 64 F0 |     shl    COUNT_, #2
00580 060 44 F0 83 F1 |     sub    ptra, COUNT_
00584 061 02 88 44 F0 |     shr    COUNT_, #2
00588 062 01 88 84 F1 |     sub    COUNT_, #1
0058c 063 28 88 60 FD |     setq   COUNT_
00590 064 00 13 05 FB |     rdlong local01, ptra
00594 065             | popregs__ret
00594 065 2A 8A 60 FD |     push   RETADDR_
00598 066 2C EC 63 FD |     jmp    pa
0059c 067             | 
0059c 067             | unsdivide_
0059c 067 28 00 64 FD |        setq    #0
005a0 068 9C 36 11 FD |        qdiv    muldiva_, muldivb_
005a4 069 18 38 61 FD |        getqx   muldivb_
005a8 06a 19 36 61 0D |  _ret_ getqy   muldiva_
005ac 06b             | 
005ac 06b             | divide_
005ac 06b 9B 36 51 F6 |        abs     muldiva_,muldiva_     wc       'abs(x)
005b0 06c 03 EE 84 F5 |        muxc    itmp2_,#%11                    'store sign of x
005b4 06d 9C 38 59 F6 |        abs     muldivb_,muldivb_     wcz      'abs(y)
005b8 06e 02 EE 64 C5 |  if_c  xor     itmp2_,#%10                    'store sign of y
005bc 06f 2D 00 64 AD |  if_z  ret
005c0 070 D8 FF BF FD |        call    #unsdivide_
005c4 071 01 EE D4 F7 |        test    itmp2_,#1        wc       'restore sign, remainder
005c8 072 9B 36 81 F6 |        negc    muldiva_,muldiva_ 
005cc 073 02 EE D4 F7 |        test    itmp2_,#%10      wc       'restore sign, division result
005d0 074 9C 38 81 06 |  _ret_ negc    muldivb_,muldivb_
005d4 075             | 
005d4 075             | __lockreg
005d4 075 00 00 00 00 | 	long	0
005d8 076             | itmp1_
005d8 076 00 00 00 00 | 	long	0
005dc 077             | itmp2_
005dc 077 00 00 00 00 | 	long	0
005e0 078             | objptr
005e0 078 90 44 00 00 | 	long	@objmem
005e4 079             | ptr___lockreg_
005e4 079 D4 05 00 00 | 	long	@__lockreg
005e8 07a             | ptr__dat__
005e8 07a 7C 26 00 00 | 	long	@_dat_
005ec 07b             | ptr_stackspace_
005ec 07b E0 74 00 00 | 	long	@stackspace
005f0 07c             | result1
005f0 07c 00 00 00 00 | 	long	0
005f4 07d             | COG_BSS_START
005f4 07d             | 	fit	480
005f4                 | 	orgh
005f4                 | hubentry
005f4                 | 
005f4                 | ' {{
005f4                 | ' }}
005f4                 | ' 
005f4                 | ' pub demo() | random, i, j, k, s1,s2,s3,s4,s5,s6,s7,s8
005f4                 | _demo
005f4     11 88 04 F6 | 	mov	COUNT_, #17
005f8     4B 00 A0 FD | 	call	#pushregs_
005fc                 | ' 
005fc                 | ' s1:=string("HDMI Nostalgic 100x30 text with border driver demo")
005fc     12 00 00 FF 
00600     70 12 05 F6 | 	mov	local01, ##@LR__0148
00604                 | ' s2:=string("It uses 8x16 font")
00604     12 00 00 FF 
00608     A3 14 05 F6 | 	mov	local02, ##@LR__0149
0060c                 | ' s3:=string("This is a P2 so every letter can have its own foreground and background color")
0060c     12 00 00 FF 
00610     B5 16 05 F6 | 	mov	local03, ##@LR__0150
00614                 | ' s4:=string("Every line can have its own border color")
00614     12 00 00 FF 
00618     03 19 05 F6 | 	mov	local04, ##@LR__0151
0061c                 | ' s5:=string("This time hub RAM is used for the color buffer")
0061c     12 00 00 FF 
00620     2C 1B 05 F6 | 	mov	local05, ##@LR__0152
00624                 | ' s6:=string("You can set colors for all screen using one function call")
00624     12 00 00 FF 
00628     5B 1D 05 F6 | 	mov	local06, ##@LR__0153
0062c                 | ' s7:=string("You can set border color for all screen using one function call, too")
0062c     12 00 00 FF 
00630     95 1F 05 F6 | 	mov	local07, ##@LR__0154
00634                 | ' s8:=string("1234567890")
00634                 | ' 
00634                 | ' 
00634                 | ' 
00634                 | ' start(258)
00634     02 09 05 F6 | 	mov	arg01, #258
00638     EC 16 B0 FD | 	call	#_start
0063c                 | ' 
0063c                 | ' cls(c_lightcyan,c_blue)
0063c     9B 08 05 F6 | 	mov	arg01, #155
00640     75 0A 05 F6 | 	mov	arg02, #117
00644     24 13 B0 FD | 	call	#_cls
00648                 | ' 
00648                 | ' teststring[100]:=0
00648     18 00 00 FF 
0064c     4C F0 04 F1 | 	add	objptr, ##12364
00650     78 00 48 FC | 	wrbyte	#0, objptr
00654     18 00 00 FF 
00658     4C F0 84 F1 | 	sub	objptr, ##12364
0065c                 | ' repeat i from 0 to 99
0065c     00 20 05 F6 | 	mov	local08, #0
00660     C4 F9 9F FE | 	loc	pa,	#(@LR__0002-@LR__0001)
00664     35 00 A0 FD | 	call	#FCACHE_LOAD_
00668                 | LR__0001
00668                 | '   teststring[i]:=32
00668     90 22 01 F6 | 	mov	local09, local08
0066c     17 00 00 FF 
00670     E8 F1 04 F1 | 	add	objptr, ##12264
00674     78 22 01 F1 | 	add	local09, objptr
00678     91 40 48 FC | 	wrbyte	#32, local09
0067c     01 20 05 F1 | 	add	local08, #1
00680     64 20 5D F2 | 	cmps	local08, #100 wcz
00684     17 00 00 FF 
00688     E8 F1 84 F1 | 	sub	objptr, ##12264
0068c     D8 FF 9F CD |  if_b	jmp	#LR__0001
00690                 | LR__0002
00690                 | ' outtextxyc(0,28,@teststring,c_white,c_black)
00690     17 00 00 FF 
00694     E8 F1 04 F1 | 	add	objptr, ##12264
00698     78 0C 01 F6 | 	mov	arg03, objptr
0069c     17 00 00 FF 
006a0     E8 F1 84 F1 | 	sub	objptr, ##12264
006a4     00 08 05 F6 | 	mov	arg01, #0
006a8     1C 0A 05 F6 | 	mov	arg02, #28
006ac     0F 0E 05 F6 | 	mov	arg04, #15
006b0     00 10 05 F6 | 	mov	arg05, #0
006b4     6C 0F B0 FD | 	call	#_outtextxyc
006b8                 | ' outtextxyc(0,29,@teststring,c_white,c_black)
006b8     17 00 00 FF 
006bc     E8 F1 04 F1 | 	add	objptr, ##12264
006c0     78 0C 01 F6 | 	mov	arg03, objptr
006c4     17 00 00 FF 
006c8     E8 F1 84 F1 | 	sub	objptr, ##12264
006cc     00 08 05 F6 | 	mov	arg01, #0
006d0     1D 0A 05 F6 | 	mov	arg02, #29
006d4     0F 0E 05 F6 | 	mov	arg04, #15
006d8     00 10 05 F6 | 	mov	arg05, #0
006dc     44 0F B0 FD | 	call	#_outtextxyc
006e0                 | ' 
006e0                 | ' setwritecolors(c_lightcyan,c_blue)
006e0                 | ' 
006e0                 | ' ''---------- Set colors for write and writeln
006e0                 | ' 
006e0                 | ' write_color:=ff
006e0     17 00 00 FF 
006e4     8C F1 04 F1 | 	add	objptr, ##12172
006e8     78 36 69 FC | 	wrlong	#155, objptr
006ec                 | ' write_background:=bb
006ec     04 F0 04 F1 | 	add	objptr, #4
006f0     78 EA 68 FC | 	wrlong	#117, objptr
006f4     17 00 00 FF 
006f8     90 F1 84 F1 | 	sub	objptr, ##12176
006fc                 | ' 
006fc                 | ' repeat i from 1 to 98
006fc     01 20 05 F6 | 	mov	local08, #1
00700     24 F9 9F FE | 	loc	pa,	#(@LR__0004-@LR__0003)
00704     35 00 A0 FD | 	call	#FCACHE_LOAD_
00708                 | LR__0003
00708                 | '   teststring[i]:=$CD
00708     90 22 01 F6 | 	mov	local09, local08
0070c     17 00 00 FF 
00710     E8 F1 04 F1 | 	add	objptr, ##12264
00714     78 22 01 F1 | 	add	local09, objptr
00718     91 9A 49 FC | 	wrbyte	#205, local09
0071c     01 20 05 F1 | 	add	local08, #1
00720     63 20 5D F2 | 	cmps	local08, #99 wcz
00724     17 00 00 FF 
00728     E8 F1 84 F1 | 	sub	objptr, ##12264
0072c     D8 FF 9F CD |  if_b	jmp	#LR__0003
00730                 | LR__0004
00730                 | ' teststring[0]:=$C9
00730     17 00 00 FF 
00734     E8 F1 04 F1 | 	add	objptr, ##12264
00738     78 92 49 FC | 	wrbyte	#201, objptr
0073c                 | ' teststring[50]:=$C9
0073c     32 F0 04 F1 | 	add	objptr, #50
00740     78 92 49 FC | 	wrbyte	#201, objptr
00744                 | ' 
00744                 | ' teststring[49]:=$BB  
00744     01 F0 84 F1 | 	sub	objptr, #1
00748     78 76 49 FC | 	wrbyte	#187, objptr
0074c                 | ' teststring[99]:=$BB  
0074c     32 F0 04 F1 | 	add	objptr, #50
00750     78 76 49 FC | 	wrbyte	#187, objptr
00754                 | ' teststring[100]:=0
00754     00 08 05 F6 | 	mov	arg01, #0
00758     01 F0 04 F1 | 	add	objptr, #1
0075c     78 00 48 FC | 	wrbyte	#0, objptr
00760                 | ' 
00760                 | ' outtextxy(0,0,@teststring)
00760     64 F0 84 F1 | 	sub	objptr, #100
00764     78 0C 01 F6 | 	mov	arg03, objptr
00768     17 00 00 FF 
0076c     E8 F1 84 F1 | 	sub	objptr, ##12264
00770     00 0A 05 F6 | 	mov	arg02, #0
00774     EC 0D B0 FD | 	call	#_outtextxy
00778                 | ' outtextxyc(73,0,string(" D:\ "),c_lightcyan, c_blue)
00778     12 00 00 FF 
0077c     E5 0D 05 F6 | 	mov	arg03, ##@LR__0156
00780     49 08 05 F6 | 	mov	arg01, #73
00784     00 0A 05 F6 | 	mov	arg02, #0
00788     9B 0E 05 F6 | 	mov	arg04, #155
0078c     75 10 05 F6 | 	mov	arg05, #117
00790     90 0E B0 FD | 	call	#_outtextxyc
00794                 | ' outtextxyc(23,0,string(" C:\ "),c_blue, c_lightcyan)
00794     12 00 00 FF 
00798     EB 0D 05 F6 | 	mov	arg03, ##@LR__0157
0079c     17 08 05 F6 | 	mov	arg01, #23
007a0     00 0A 05 F6 | 	mov	arg02, #0
007a4     75 0E 05 F6 | 	mov	arg04, #117
007a8     9B 10 05 F6 | 	mov	arg05, #155
007ac     74 0E B0 FD | 	call	#_outtextxyc
007b0                 | ' repeat i from 1 to 98
007b0     01 20 05 F6 | 	mov	local08, #1
007b4     70 F8 9F FE | 	loc	pa,	#(@LR__0006-@LR__0005)
007b8     35 00 A0 FD | 	call	#FCACHE_LOAD_
007bc                 | LR__0005
007bc                 | '   teststring[i]:=32
007bc     90 22 01 F6 | 	mov	local09, local08
007c0     17 00 00 FF 
007c4     E8 F1 04 F1 | 	add	objptr, ##12264
007c8     78 22 01 F1 | 	add	local09, objptr
007cc     91 40 48 FC | 	wrbyte	#32, local09
007d0     01 20 05 F1 | 	add	local08, #1
007d4     63 20 5D F2 | 	cmps	local08, #99 wcz
007d8     17 00 00 FF 
007dc     E8 F1 84 F1 | 	sub	objptr, ##12264
007e0     D8 FF 9F CD |  if_b	jmp	#LR__0005
007e4                 | LR__0006
007e4                 | ' teststring[0]:=$BA
007e4     17 00 00 FF 
007e8     E8 F1 04 F1 | 	add	objptr, ##12264
007ec     78 74 49 FC | 	wrbyte	#186, objptr
007f0                 | ' teststring[49]:=$BA
007f0     31 F0 04 F1 | 	add	objptr, #49
007f4     78 74 49 FC | 	wrbyte	#186, objptr
007f8                 | ' teststring[50]:=$BA
007f8     01 F0 04 F1 | 	add	objptr, #1
007fc     78 74 49 FC | 	wrbyte	#186, objptr
00800                 | ' teststring[99]:=$BA
00800     31 F0 04 F1 | 	add	objptr, #49
00804     78 74 49 FC | 	wrbyte	#186, objptr
00808     18 00 00 FF 
0080c     4B F0 84 F1 | 	sub	objptr, ##12363
00810                 | ' repeat i from 1 to 26
00810     01 20 05 F6 | 	mov	local08, #1
00814                 | LR__0007
00814                 | '   outtextxy(0,i,@teststring)
00814     17 00 00 FF 
00818     E8 F1 04 F1 | 	add	objptr, ##12264
0081c     78 0C 01 F6 | 	mov	arg03, objptr
00820     17 00 00 FF 
00824     E8 F1 84 F1 | 	sub	objptr, ##12264
00828     00 08 05 F6 | 	mov	arg01, #0
0082c     90 0A 01 F6 | 	mov	arg02, local08
00830     30 0D B0 FD | 	call	#_outtextxy
00834     01 20 05 F1 | 	add	local08, #1
00838     1B 20 5D F2 | 	cmps	local08, #27 wcz
0083c     D4 FF 9F CD |  if_b	jmp	#LR__0007
00840                 | ' repeat i from 1 to 98
00840     01 20 05 F6 | 	mov	local08, #1
00844     E0 F7 9F FE | 	loc	pa,	#(@LR__0009-@LR__0008)
00848     35 00 A0 FD | 	call	#FCACHE_LOAD_
0084c                 | LR__0008
0084c                 | '   teststring[i]:=$CD
0084c     90 22 01 F6 | 	mov	local09, local08
00850     17 00 00 FF 
00854     E8 F1 04 F1 | 	add	objptr, ##12264
00858     78 22 01 F1 | 	add	local09, objptr
0085c     91 9A 49 FC | 	wrbyte	#205, local09
00860     01 20 05 F1 | 	add	local08, #1
00864     63 20 5D F2 | 	cmps	local08, #99 wcz
00868     17 00 00 FF 
0086c     E8 F1 84 F1 | 	sub	objptr, ##12264
00870     D8 FF 9F CD |  if_b	jmp	#LR__0008
00874                 | LR__0009
00874                 | ' teststring[0]:=$C8
00874     17 00 00 FF 
00878     E8 F1 04 F1 | 	add	objptr, ##12264
0087c     78 90 49 FC | 	wrbyte	#200, objptr
00880                 | ' teststring[50]:=$C8
00880     32 F0 04 F1 | 	add	objptr, #50
00884     78 90 49 FC | 	wrbyte	#200, objptr
00888                 | ' 
00888                 | ' teststring[49]:=$BC  
00888     01 F0 84 F1 | 	sub	objptr, #1
0088c     78 78 49 FC | 	wrbyte	#188, objptr
00890                 | ' teststring[99]:=$BC  
00890     32 F0 04 F1 | 	add	objptr, #50
00894     78 78 49 FC | 	wrbyte	#188, objptr
00898                 | ' teststring[100]:=0
00898     00 08 05 F6 | 	mov	arg01, #0
0089c     01 F0 04 F1 | 	add	objptr, #1
008a0     78 00 48 FC | 	wrbyte	#0, objptr
008a4                 | ' 
008a4                 | ' outtextxy(0,27,@teststring)  
008a4     64 F0 84 F1 | 	sub	objptr, #100
008a8     78 0C 01 F6 | 	mov	arg03, objptr
008ac     17 00 00 FF 
008b0     E8 F1 84 F1 | 	sub	objptr, ##12264
008b4     1B 0A 05 F6 | 	mov	arg02, #27
008b8     A8 0C B0 FD | 	call	#_outtextxy
008bc                 | '   
008bc                 | '   
008bc                 | ' setcursorpos(0,28)
008bc                 | ' 
008bc                 | ' ''---------- Set the (x,y) position of cursor
008bc                 | ' 
008bc                 | ' cursor_x:=x
008bc     17 00 00 FF 
008c0     88 F1 04 F1 | 	add	objptr, ##12168
008c4     78 00 48 FC | 	wrbyte	#0, objptr
008c8                 | ' cursor_y:=y
008c8     01 F0 04 F1 | 	add	objptr, #1
008cc     78 38 48 FC | 	wrbyte	#28, objptr
008d0                 | ' setwritecolors(c_white,c_black)
008d0     00 0A 05 F6 | 	mov	arg02, #0
008d4                 | ' 
008d4                 | ' ''---------- Set colors for write and writeln
008d4                 | ' 
008d4                 | ' write_color:=ff
008d4     03 F0 04 F1 | 	add	objptr, #3
008d8     78 1E 68 FC | 	wrlong	#15, objptr
008dc                 | ' write_background:=bb
008dc     04 F0 04 F1 | 	add	objptr, #4
008e0     78 00 68 FC | 	wrlong	#0, objptr
008e4     17 00 00 FF 
008e8     90 F1 84 F1 | 	sub	objptr, ##12176
008ec                 | ' write(string("C:\>"))
008ec     12 00 00 FF 
008f0     F1 09 05 F6 | 	mov	arg01, ##@LR__0158
008f4     3C 0E B0 FD | 	call	#_write
008f8                 | ' waitvbl(12000)
008f8     17 00 00 FF 
008fc     E0 08 05 F6 | 	mov	arg01, ##12000
00900     5C 0A B0 FD | 	call	#_waitvbl
00904                 | ' 
00904                 | ' 
00904                 | ' write(string(" "))
00904     12 00 00 FF 
00908     F6 09 05 F6 | 	mov	arg01, ##@LR__0159
0090c     24 0E B0 FD | 	call	#_write
00910                 | ' repeat j from 0 to 15
00910     00 24 05 F6 | 	mov	local10, #0
00914                 | LR__0010
00914                 | '   repeat i from 0 to 15
00914     00 20 05 F6 | 	mov	local08, #0
00918                 | LR__0011
00918                 | '     teststring[0]:=16*j+i
00918     92 22 01 F6 | 	mov	local09, local10
0091c     04 22 65 F0 | 	shl	local09, #4
00920     90 22 01 F1 | 	add	local09, local08
00924     17 00 00 FF 
00928     E8 F1 04 F1 | 	add	objptr, ##12264
0092c     78 22 41 FC | 	wrbyte	local09, objptr
00930                 | '     teststring[1]:=0
00930     01 F0 04 F1 | 	add	objptr, #1
00934     78 00 48 FC | 	wrbyte	#0, objptr
00938     17 00 00 FF 
0093c     E9 F1 84 F1 | 	sub	objptr, ##12265
00940                 | '     write(inttohex(16*j+i,2))
00940     92 08 01 F6 | 	mov	arg01, local10
00944     04 08 65 F0 | 	shl	arg01, #4
00948     90 08 01 F1 | 	add	arg01, local08
0094c     02 0A 05 F6 | 	mov	arg02, #2
00950     E4 12 B0 FD | 	call	#_inttohex
00954     7C 08 01 F6 | 	mov	arg01, result1
00958     D8 0D B0 FD | 	call	#_write
0095c                 | '     write(string(" "))
0095c     12 00 00 FF 
00960     F8 09 05 F6 | 	mov	arg01, ##@LR__0160
00964     CC 0D B0 FD | 	call	#_write
00968                 | '     write(@teststring)
00968     17 00 00 FF 
0096c     E8 F1 04 F1 | 	add	objptr, ##12264
00970     78 08 01 F6 | 	mov	arg01, objptr
00974     17 00 00 FF 
00978     E8 F1 84 F1 | 	sub	objptr, ##12264
0097c     B4 0D B0 FD | 	call	#_write
00980                 | '     write(string(","))
00980     12 00 00 FF 
00984     FA 09 05 F6 | 	mov	arg01, ##@LR__0161
00988     A8 0D B0 FD | 	call	#_write
0098c     01 20 05 F1 | 	add	local08, #1
00990     10 20 5D F2 | 	cmps	local08, #16 wcz
00994     80 FF 9F CD |  if_b	jmp	#LR__0011
00998                 | '   writeln(string(" "))
00998     12 00 00 FF 
0099c     FC 09 05 F6 | 	mov	arg01, ##@LR__0162
009a0     68 0F B0 FD | 	call	#_writeln
009a4     01 24 05 F1 | 	add	local10, #1
009a8     10 24 5D F2 | 	cmps	local10, #16 wcz
009ac     64 FF 9F CD |  if_b	jmp	#LR__0010
009b0                 | ' 
009b0                 | ' 
009b0                 | ' waitvbl(1200)
009b0     02 00 00 FF 
009b4     B0 08 05 F6 | 	mov	arg01, ##1200
009b8     A4 09 B0 FD | 	call	#_waitvbl
009bc                 | ' 
009bc                 | ' 
009bc                 | ' 
009bc                 | ' 
009bc                 | ' j:=0
009bc                 | ' 
009bc                 | ' repeat
009bc                 | LR__0012
009bc                 | ' 
009bc                 | '   cursoroff()
009bc                 | ' 
009bc                 | ' ''---------- Switch the cursor on
009bc                 | ' 
009bc                 | ' cursor_sh-=16
009bc     17 00 00 FF 
009c0     8A F1 04 F1 | 	add	objptr, ##12170
009c4     78 26 C1 FA | 	rdbyte	local11, objptr
009c8     10 26 85 F1 | 	sub	local11, #16
009cc     78 26 41 FC | 	wrbyte	local11, objptr
009d0     17 00 00 FF 
009d4     8A F1 84 F1 | 	sub	objptr, ##12170
009d8                 | '   cls(151,145)
009d8     97 08 05 F6 | 	mov	arg01, #151
009dc     91 0A 05 F6 | 	mov	arg02, #145
009e0     88 0F B0 FD | 	call	#_cls
009e4                 | '   waitvbl(60)
009e4     3C 08 05 F6 | 	mov	arg01, #60
009e8     74 09 B0 FD | 	call	#_waitvbl
009ec                 | ' 
009ec                 | '   setbordercolors (0,0,0)
009ec     00 08 05 F6 | 	mov	arg01, #0
009f0     00 0A 05 F6 | 	mov	arg02, #0
009f4     00 0C 05 F6 | 	mov	arg03, #0
009f8     4C 0A B0 FD | 	call	#_setbordercolors
009fc                 | '   waitvbl(100)
009fc     64 08 05 F6 | 	mov	arg01, #100
00a00     5C 09 B0 FD | 	call	#_waitvbl
00a04                 | ' 
00a04                 | '   outtextxy (50-(strsize(s1)>>1),10,s1)
00a04     89 08 01 F6 | 	mov	arg01, local01
00a08     00 28 05 F6 | 	mov	local12, #0
00a0c     00 F6 9F FE | 	loc	pa,	#(@LR__0014-@LR__0013)
00a10     35 00 A0 FD | 	call	#FCACHE_LOAD_
00a14                 | LR__0013
00a14     84 26 C9 FA | 	rdbyte	local11, arg01 wz
00a18     01 28 05 51 |  if_ne	add	local12, #1
00a1c     01 08 05 51 |  if_ne	add	arg01, #1
00a20     F0 FF 9F 5D |  if_ne	jmp	#LR__0013
00a24                 | LR__0014
00a24     94 F8 00 F6 | 	mov	result1, local12
00a28     7C 2A 01 F6 | 	mov	local13, result1
00a2c     01 2A 45 F0 | 	shr	local13, #1
00a30     32 08 05 F6 | 	mov	arg01, #50
00a34     95 08 81 F1 | 	sub	arg01, local13
00a38     0A 0A 05 F6 | 	mov	arg02, #10
00a3c     89 0C 01 F6 | 	mov	arg03, local01
00a40     20 0B B0 FD | 	call	#_outtextxy
00a44                 | '   waitvbl(50)
00a44     32 08 05 F6 | 	mov	arg01, #50
00a48     14 09 B0 FD | 	call	#_waitvbl
00a4c                 | ' 
00a4c                 | '   outtextxy (50-(strsize(s2)>>1),12,s2)
00a4c     8A 08 01 F6 | 	mov	arg01, local02
00a50     00 28 05 F6 | 	mov	local12, #0
00a54     B8 F5 9F FE | 	loc	pa,	#(@LR__0016-@LR__0015)
00a58     35 00 A0 FD | 	call	#FCACHE_LOAD_
00a5c                 | LR__0015
00a5c     84 26 C9 FA | 	rdbyte	local11, arg01 wz
00a60     01 28 05 51 |  if_ne	add	local12, #1
00a64     01 08 05 51 |  if_ne	add	arg01, #1
00a68     F0 FF 9F 5D |  if_ne	jmp	#LR__0015
00a6c                 | LR__0016
00a6c     94 F8 00 F6 | 	mov	result1, local12
00a70     7C 2A 01 F6 | 	mov	local13, result1
00a74     01 2A 45 F0 | 	shr	local13, #1
00a78     32 08 05 F6 | 	mov	arg01, #50
00a7c     95 08 81 F1 | 	sub	arg01, local13
00a80     8A 0C 01 F6 | 	mov	arg03, local02
00a84     0C 0A 05 F6 | 	mov	arg02, #12
00a88     D8 0A B0 FD | 	call	#_outtextxy
00a8c                 | '   waitvbl(50)
00a8c     32 08 05 F6 | 	mov	arg01, #50
00a90     CC 08 B0 FD | 	call	#_waitvbl
00a94                 | ' 
00a94                 | '   repeat  k from 0 to 49
00a94     00 2C 05 F6 | 	mov	local14, #0
00a98                 | LR__0017
00a98                 | '     repeat i from 0 to 99
00a98     00 20 05 F6 | 	mov	local08, #0
00a9c                 | LR__0018
00a9c                 | '       setfontcolor (i,12,40)
00a9c     90 08 01 F6 | 	mov	arg01, local08
00aa0     0C 0A 05 F6 | 	mov	arg02, #12
00aa4     28 0C 05 F6 | 	mov	arg03, #40
00aa8     E8 09 B0 FD | 	call	#_setfontcolor
00aac     01 20 05 F1 | 	add	local08, #1
00ab0     64 20 5D F2 | 	cmps	local08, #100 wcz
00ab4     E4 FF 9F CD |  if_b	jmp	#LR__0018
00ab8                 | '     waitvbl(10)
00ab8     0A 08 05 F6 | 	mov	arg01, #10
00abc     A0 08 B0 FD | 	call	#_waitvbl
00ac0                 | '     repeat i from 0 to 99
00ac0     00 20 05 F6 | 	mov	local08, #0
00ac4                 | LR__0019
00ac4                 | '       setfontcolor (i,12,235)
00ac4     90 08 01 F6 | 	mov	arg01, local08
00ac8     0C 0A 05 F6 | 	mov	arg02, #12
00acc     EB 0C 05 F6 | 	mov	arg03, #235
00ad0     C0 09 B0 FD | 	call	#_setfontcolor
00ad4     01 20 05 F1 | 	add	local08, #1
00ad8     64 20 5D F2 | 	cmps	local08, #100 wcz
00adc     E4 FF 9F CD |  if_b	jmp	#LR__0019
00ae0                 | '     waitvbl(10)
00ae0     0A 08 05 F6 | 	mov	arg01, #10
00ae4     78 08 B0 FD | 	call	#_waitvbl
00ae8     01 2C 05 F1 | 	add	local14, #1
00aec     32 2C 5D F2 | 	cmps	local14, #50 wcz
00af0     A4 FF 9F CD |  if_b	jmp	#LR__0017
00af4                 | '   repeat j from 0 to 29
00af4     00 24 05 F6 | 	mov	local10, #0
00af8                 | LR__0020
00af8                 | '     scrolldown()
00af8     6C 0F B0 FD | 	call	#_scrolldown
00afc                 | '     waitvbl(2)
00afc     02 08 05 F6 | 	mov	arg01, #2
00b00     5C 08 B0 FD | 	call	#_waitvbl
00b04     01 24 05 F1 | 	add	local10, #1
00b08     1E 24 5D F2 | 	cmps	local10, #30 wcz
00b0c     E8 FF 9F CD |  if_b	jmp	#LR__0020
00b10                 | ' 
00b10                 | '   setscreencolors (151,145)
00b10     97 08 05 F6 | 	mov	arg01, #151
00b14     91 0A 05 F6 | 	mov	arg02, #145
00b18     C8 08 B0 FD | 	call	#_setscreencolors
00b1c                 | ' 
00b1c                 | '   repeat i from 0 to 2999
00b1c     00 20 05 F6 | 	mov	local08, #0
00b20     24 F5 9F FE | 	loc	pa,	#(@LR__0022-@LR__0021)
00b24     35 00 A0 FD | 	call	#FCACHE_LOAD_
00b28                 | LR__0021
00b28                 | '     buf[i]:=(buf[i] &$FF_FF_FF_00) | (i & $FF)
00b28     90 2A 01 F6 | 	mov	local13, local08
00b2c     02 2A 65 F0 | 	shl	local13, #2
00b30     A8 F0 04 F1 | 	add	objptr, #168
00b34     78 2A 01 F1 | 	add	local13, objptr
00b38     95 22 01 FB | 	rdlong	local09, local13
00b3c     FF 22 25 F5 | 	andn	local09, #255
00b40     90 2E 01 F6 | 	mov	local15, local08
00b44     FF 2E 05 F5 | 	and	local15, #255
00b48     97 22 41 F5 | 	or	local09, local15
00b4c     90 30 01 F6 | 	mov	local16, local08
00b50     02 30 65 F0 | 	shl	local16, #2
00b54     78 30 01 F1 | 	add	local16, objptr
00b58     98 22 61 FC | 	wrlong	local09, local16
00b5c     01 20 05 F1 | 	add	local08, #1
00b60     05 00 00 FF 
00b64     B8 21 5D F2 | 	cmps	local08, ##3000 wcz
00b68     A8 F0 84 F1 | 	sub	objptr, #168
00b6c     B8 FF 9F CD |  if_b	jmp	#LR__0021
00b70                 | LR__0022
00b70                 | ' 
00b70                 | '   waitvbl(100)
00b70     64 08 05 F6 | 	mov	arg01, #100
00b74     E8 07 B0 FD | 	call	#_waitvbl
00b78                 | ' 
00b78                 | '   repeat j from 0 to 29
00b78     00 24 05 F6 | 	mov	local10, #0
00b7c                 | LR__0023
00b7c                 | '     scrolldown()
00b7c     E8 0E B0 FD | 	call	#_scrolldown
00b80                 | '     waitvbl(1)
00b80     01 08 05 F6 | 	mov	arg01, #1
00b84     D8 07 B0 FD | 	call	#_waitvbl
00b88     01 24 05 F1 | 	add	local10, #1
00b8c     1E 24 5D F2 | 	cmps	local10, #30 wcz
00b90     E8 FF 9F CD |  if_b	jmp	#LR__0023
00b94                 | ' 
00b94                 | '   cls(151,145)
00b94     97 08 05 F6 | 	mov	arg01, #151
00b98     91 0A 05 F6 | 	mov	arg02, #145
00b9c     CC 0D B0 FD | 	call	#_cls
00ba0                 | ' 
00ba0                 | '   outtextxy (50-(strsize(s3)>>1),10,s3)
00ba0     8B 08 01 F6 | 	mov	arg01, local03
00ba4     00 28 05 F6 | 	mov	local12, #0
00ba8     64 F4 9F FE | 	loc	pa,	#(@LR__0025-@LR__0024)
00bac     35 00 A0 FD | 	call	#FCACHE_LOAD_
00bb0                 | LR__0024
00bb0     84 26 C9 FA | 	rdbyte	local11, arg01 wz
00bb4     01 28 05 51 |  if_ne	add	local12, #1
00bb8     01 08 05 51 |  if_ne	add	arg01, #1
00bbc     F0 FF 9F 5D |  if_ne	jmp	#LR__0024
00bc0                 | LR__0025
00bc0     94 F8 00 F6 | 	mov	result1, local12
00bc4     7C 2A 01 F6 | 	mov	local13, result1
00bc8     01 2A 45 F0 | 	shr	local13, #1
00bcc     32 08 05 F6 | 	mov	arg01, #50
00bd0     95 08 81 F1 | 	sub	arg01, local13
00bd4     8B 0C 01 F6 | 	mov	arg03, local03
00bd8     0A 0A 05 F6 | 	mov	arg02, #10
00bdc     84 09 B0 FD | 	call	#_outtextxy
00be0                 | '   waitvbl(20)
00be0     14 08 05 F6 | 	mov	arg01, #20
00be4     78 07 B0 FD | 	call	#_waitvbl
00be8                 | '   repeat k from 0 to 20
00be8     00 2C 05 F6 | 	mov	local14, #0
00bec                 | LR__0026
00bec                 | '     repeat i from 0 to 99
00bec     00 20 05 F6 | 	mov	local08, #0
00bf0                 | LR__0027
00bf0                 | '       j:=(i+k)//16
00bf0     90 22 01 F6 | 	mov	local09, local08
00bf4     96 22 01 F1 | 	add	local09, local14
00bf8     91 2A 51 F6 | 	abs	local13, local09 wc
00bfc     0F 2A 05 F5 | 	and	local13, #15
00c00     95 2A 61 C6 |  if_b	neg	local13, local13
00c04     95 24 01 F6 | 	mov	local10, local13
00c08                 | '       setfontcolor(i,10,colors[j])
00c08     92 32 01 F6 | 	mov	local17, local10
00c0c     17 00 00 FF 
00c10     94 F1 04 F1 | 	add	objptr, ##12180
00c14     78 32 01 F1 | 	add	local17, objptr
00c18     99 0C C1 FA | 	rdbyte	arg03, local17
00c1c     90 08 01 F6 | 	mov	arg01, local08
00c20     0A 0A 05 F6 | 	mov	arg02, #10
00c24     17 00 00 FF 
00c28     94 F1 84 F1 | 	sub	objptr, ##12180
00c2c     64 08 B0 FD | 	call	#_setfontcolor
00c30                 | '       setbackcolor(i,10,colors[(j+4)//16])
00c30     92 32 01 F6 | 	mov	local17, local10
00c34     04 32 05 F1 | 	add	local17, #4
00c38     99 2E 51 F6 | 	abs	local15, local17 wc
00c3c     0F 2E 05 F5 | 	and	local15, #15
00c40     97 2E 61 C6 |  if_b	neg	local15, local15
00c44     97 30 01 F6 | 	mov	local16, local15
00c48     17 00 00 FF 
00c4c     94 F1 04 F1 | 	add	objptr, ##12180
00c50     78 30 01 F1 | 	add	local16, objptr
00c54     98 0C C1 FA | 	rdbyte	arg03, local16
00c58     90 08 01 F6 | 	mov	arg01, local08
00c5c     0A 0A 05 F6 | 	mov	arg02, #10
00c60     17 00 00 FF 
00c64     94 F1 84 F1 | 	sub	objptr, ##12180
00c68     7C 08 B0 FD | 	call	#_setbackcolor
00c6c     01 20 05 F1 | 	add	local08, #1
00c70     64 20 5D F2 | 	cmps	local08, #100 wcz
00c74     78 FF 9F CD |  if_b	jmp	#LR__0027
00c78                 | '     waitvbl(10)
00c78     0A 08 05 F6 | 	mov	arg01, #10
00c7c     E0 06 B0 FD | 	call	#_waitvbl
00c80     01 2C 05 F1 | 	add	local14, #1
00c84     15 2C 5D F2 | 	cmps	local14, #21 wcz
00c88     60 FF 9F CD |  if_b	jmp	#LR__0026
00c8c                 | '   repeat i from 0 to 99
00c8c     00 20 05 F6 | 	mov	local08, #0
00c90                 | LR__0028
00c90                 | '     setfontcolor(i,10,153)
00c90     90 08 01 F6 | 	mov	arg01, local08
00c94     0A 0A 05 F6 | 	mov	arg02, #10
00c98     99 0C 05 F6 | 	mov	arg03, #153
00c9c     F4 07 B0 FD | 	call	#_setfontcolor
00ca0                 | '     setbackcolor(i,10,145)
00ca0     90 08 01 F6 | 	mov	arg01, local08
00ca4     0A 0A 05 F6 | 	mov	arg02, #10
00ca8     91 0C 05 F6 | 	mov	arg03, #145
00cac     38 08 B0 FD | 	call	#_setbackcolor
00cb0     01 20 05 F1 | 	add	local08, #1
00cb4     64 20 5D F2 | 	cmps	local08, #100 wcz
00cb8     D4 FF 9F CD |  if_b	jmp	#LR__0028
00cbc                 | ' 
00cbc                 | '   outtextxy (50-(strsize(s4)>>1),12,s4)
00cbc     8C 08 01 F6 | 	mov	arg01, local04
00cc0     00 28 05 F6 | 	mov	local12, #0
00cc4     48 F3 9F FE | 	loc	pa,	#(@LR__0030-@LR__0029)
00cc8     35 00 A0 FD | 	call	#FCACHE_LOAD_
00ccc                 | LR__0029
00ccc     84 26 C9 FA | 	rdbyte	local11, arg01 wz
00cd0     01 28 05 51 |  if_ne	add	local12, #1
00cd4     01 08 05 51 |  if_ne	add	arg01, #1
00cd8     F0 FF 9F 5D |  if_ne	jmp	#LR__0029
00cdc                 | LR__0030
00cdc     94 F8 00 F6 | 	mov	result1, local12
00ce0     7C 2A 01 F6 | 	mov	local13, result1
00ce4     01 2A 45 F0 | 	shr	local13, #1
00ce8     32 08 05 F6 | 	mov	arg01, #50
00cec     95 08 81 F1 | 	sub	arg01, local13
00cf0     0C 0A 05 F6 | 	mov	arg02, #12
00cf4     8C 0C 01 F6 | 	mov	arg03, local04
00cf8     68 08 B0 FD | 	call	#_outtextxy
00cfc                 | '   waitvbl(20)
00cfc     14 08 05 F6 | 	mov	arg01, #20
00d00     5C 06 B0 FD | 	call	#_waitvbl
00d04                 | '   outtextxy (50-(strsize(s5)>>1),14,s5)
00d04     8D 08 01 F6 | 	mov	arg01, local05
00d08     00 28 05 F6 | 	mov	local12, #0
00d0c     00 F3 9F FE | 	loc	pa,	#(@LR__0032-@LR__0031)
00d10     35 00 A0 FD | 	call	#FCACHE_LOAD_
00d14                 | LR__0031
00d14     84 26 C9 FA | 	rdbyte	local11, arg01 wz
00d18     01 28 05 51 |  if_ne	add	local12, #1
00d1c     01 08 05 51 |  if_ne	add	arg01, #1
00d20     F0 FF 9F 5D |  if_ne	jmp	#LR__0031
00d24                 | LR__0032
00d24     94 F8 00 F6 | 	mov	result1, local12
00d28     7C 2A 01 F6 | 	mov	local13, result1
00d2c     01 2A 45 F0 | 	shr	local13, #1
00d30     32 08 05 F6 | 	mov	arg01, #50
00d34     95 08 81 F1 | 	sub	arg01, local13
00d38     8D 0C 01 F6 | 	mov	arg03, local05
00d3c     0E 0A 05 F6 | 	mov	arg02, #14
00d40     20 08 B0 FD | 	call	#_outtextxy
00d44                 | '   waitvbl(200)
00d44     C8 08 05 F6 | 	mov	arg01, #200
00d48     14 06 B0 FD | 	call	#_waitvbl
00d4c                 | ' 
00d4c                 | ' 
00d4c                 | '   repeat i from 0 to 2999
00d4c     00 20 05 F6 | 	mov	local08, #0
00d50     F8 F2 9F FE | 	loc	pa,	#(@LR__0034-@LR__0033)
00d54     35 00 A0 FD | 	call	#FCACHE_LOAD_
00d58                 | LR__0033
00d58                 | '     buf[i]:=(buf[i] &$FF_FF_00_00) | (i & $FF)
00d58     90 2A 01 F6 | 	mov	local13, local08
00d5c     02 2A 65 F0 | 	shl	local13, #2
00d60     A8 F0 04 F1 | 	add	objptr, #168
00d64     78 2A 01 F1 | 	add	local13, objptr
00d68     95 22 01 FB | 	rdlong	local09, local13
00d6c     80 FF 7F FF 
00d70     00 22 05 F5 | 	and	local09, ##-65536
00d74     90 2E 01 F6 | 	mov	local15, local08
00d78     FF 2E 05 F5 | 	and	local15, #255
00d7c     97 22 41 F5 | 	or	local09, local15
00d80     90 30 01 F6 | 	mov	local16, local08
00d84     02 30 65 F0 | 	shl	local16, #2
00d88     78 30 01 F1 | 	add	local16, objptr
00d8c     98 22 61 FC | 	wrlong	local09, local16
00d90     01 20 05 F1 | 	add	local08, #1
00d94     05 00 00 FF 
00d98     B8 21 5D F2 | 	cmps	local08, ##3000 wcz
00d9c     A8 F0 84 F1 | 	sub	objptr, #168
00da0     B4 FF 9F CD |  if_b	jmp	#LR__0033
00da4                 | LR__0034
00da4                 | ' 
00da4                 | '   waitvbl(100)
00da4     64 08 05 F6 | 	mov	arg01, #100
00da8     B4 05 B0 FD | 	call	#_waitvbl
00dac                 | ' 
00dac                 | '   repeat k from 0 to 99
00dac     00 2C 05 F6 | 	mov	local14, #0
00db0                 | LR__0035
00db0                 | '     repeat i from 0 to 31
00db0     00 20 05 F6 | 	mov	local08, #0
00db4                 | LR__0036
00db4                 | '       setbordercolor(i,getrnd() & 255,getrnd() & 255,getrnd()& 255)
00db4     1B 0A 61 FD | 	getrnd	arg02
00db8     FF 0A 05 F5 | 	and	arg02, #255
00dbc     1B 0C 61 FD | 	getrnd	arg03
00dc0     FF 0C 05 F5 | 	and	arg03, #255
00dc4     1B F8 60 FD | 	getrnd	result1
00dc8     7C 0E 01 F6 | 	mov	arg04, result1
00dcc     FF 0E 05 F5 | 	and	arg04, #255
00dd0     90 08 01 F6 | 	mov	arg01, local08
00dd4     64 07 B0 FD | 	call	#_setbordercolor
00dd8     01 20 05 F1 | 	add	local08, #1
00ddc     20 20 5D F2 | 	cmps	local08, #32 wcz
00de0     D0 FF 9F CD |  if_b	jmp	#LR__0036
00de4                 | '     repeat j from 0 to 29
00de4     00 24 05 F6 | 	mov	local10, #0
00de8                 | LR__0037
00de8                 | '       repeat i from 0 to 99
00de8     00 20 05 F6 | 	mov	local08, #0
00dec                 | LR__0038
00dec                 | '         setfontcolor(i,j,getrnd()&255)
00dec     1B F8 60 FD | 	getrnd	result1
00df0     7C 0C 01 F6 | 	mov	arg03, result1
00df4     FF 0C 05 F5 | 	and	arg03, #255
00df8     90 08 01 F6 | 	mov	arg01, local08
00dfc     92 0A 01 F6 | 	mov	arg02, local10
00e00     90 06 B0 FD | 	call	#_setfontcolor
00e04                 | '         setbackcolor(i,j,getrnd()&255)
00e04     92 0A 01 F6 | 	mov	arg02, local10
00e08     1B F8 60 FD | 	getrnd	result1
00e0c     7C 0C 01 F6 | 	mov	arg03, result1
00e10     FF 0C 05 F5 | 	and	arg03, #255
00e14     90 08 01 F6 | 	mov	arg01, local08
00e18     CC 06 B0 FD | 	call	#_setbackcolor
00e1c     01 20 05 F1 | 	add	local08, #1
00e20     64 20 5D F2 | 	cmps	local08, #100 wcz
00e24     C4 FF 9F CD |  if_b	jmp	#LR__0038
00e28     01 24 05 F1 | 	add	local10, #1
00e2c     1E 24 5D F2 | 	cmps	local10, #30 wcz
00e30     B4 FF 9F CD |  if_b	jmp	#LR__0037
00e34                 | '     waitvbl(1)
00e34     01 08 05 F6 | 	mov	arg01, #1
00e38     24 05 B0 FD | 	call	#_waitvbl
00e3c     01 2C 05 F1 | 	add	local14, #1
00e40     64 2C 5D F2 | 	cmps	local14, #100 wcz
00e44     68 FF 9F CD |  if_b	jmp	#LR__0035
00e48                 | ' 
00e48                 | '   waitvbl(500)
00e48     F4 09 05 F6 | 	mov	arg01, #500
00e4c     10 05 B0 FD | 	call	#_waitvbl
00e50                 | ' 
00e50                 | '   cls(151,145)
00e50     97 08 05 F6 | 	mov	arg01, #151
00e54     91 0A 05 F6 | 	mov	arg02, #145
00e58     10 0B B0 FD | 	call	#_cls
00e5c                 | '   setscreencolors (151,145)
00e5c     97 08 05 F6 | 	mov	arg01, #151
00e60     91 0A 05 F6 | 	mov	arg02, #145
00e64     7C 05 B0 FD | 	call	#_setscreencolors
00e68                 | '   setbordercolors(0,0,0)
00e68     00 08 05 F6 | 	mov	arg01, #0
00e6c     00 0A 05 F6 | 	mov	arg02, #0
00e70     00 0C 05 F6 | 	mov	arg03, #0
00e74     D0 05 B0 FD | 	call	#_setbordercolors
00e78                 | ' 
00e78                 | '   outtextxy (50-(strsize(s6)>>1),10,s6)
00e78     8E 08 01 F6 | 	mov	arg01, local06
00e7c     00 28 05 F6 | 	mov	local12, #0
00e80     8C F1 9F FE | 	loc	pa,	#(@LR__0040-@LR__0039)
00e84     35 00 A0 FD | 	call	#FCACHE_LOAD_
00e88                 | LR__0039
00e88     84 26 C9 FA | 	rdbyte	local11, arg01 wz
00e8c     01 28 05 51 |  if_ne	add	local12, #1
00e90     01 08 05 51 |  if_ne	add	arg01, #1
00e94     F0 FF 9F 5D |  if_ne	jmp	#LR__0039
00e98                 | LR__0040
00e98     94 F8 00 F6 | 	mov	result1, local12
00e9c     7C 2A 01 F6 | 	mov	local13, result1
00ea0     01 2A 45 F0 | 	shr	local13, #1
00ea4     32 08 05 F6 | 	mov	arg01, #50
00ea8     95 08 81 F1 | 	sub	arg01, local13
00eac     8E 0C 01 F6 | 	mov	arg03, local06
00eb0     0A 0A 05 F6 | 	mov	arg02, #10
00eb4     AC 06 B0 FD | 	call	#_outtextxy
00eb8                 | '   waitvbl(50)
00eb8     32 08 05 F6 | 	mov	arg01, #50
00ebc     A0 04 B0 FD | 	call	#_waitvbl
00ec0                 | ' 
00ec0                 | ' 
00ec0                 | '   random:=getrnd()
00ec0     1B F8 60 FD | 	getrnd	result1
00ec4                 | ' 
00ec4                 | '   repeat j from 0 to 15
00ec4     00 24 05 F6 | 	mov	local10, #0
00ec8                 | LR__0041
00ec8                 | ' 
00ec8                 | '     waitvbl(25)
00ec8     19 08 05 F6 | 	mov	arg01, #25
00ecc     90 04 B0 FD | 	call	#_waitvbl
00ed0                 | '     setscreencolors (getrnd() & 255,getrnd() & 255)
00ed0     1B 08 61 FD | 	getrnd	arg01
00ed4     FF 08 05 F5 | 	and	arg01, #255
00ed8     1B F8 60 FD | 	getrnd	result1
00edc     7C 0A 01 F6 | 	mov	arg02, result1
00ee0     FF 0A 05 F5 | 	and	arg02, #255
00ee4     FC 04 B0 FD | 	call	#_setscreencolors
00ee8     01 24 05 F1 | 	add	local10, #1
00eec     10 24 5D F2 | 	cmps	local10, #16 wcz
00ef0     D4 FF 9F CD |  if_b	jmp	#LR__0041
00ef4                 | ' 
00ef4                 | '  setscreencolors (151,145)
00ef4     97 08 05 F6 | 	mov	arg01, #151
00ef8     91 0A 05 F6 | 	mov	arg02, #145
00efc     E4 04 B0 FD | 	call	#_setscreencolors
00f00                 | ' 
00f00                 | '   outtextxy (50-(strsize(s7)>>1),12,s7)
00f00     8F 08 01 F6 | 	mov	arg01, local07
00f04     00 28 05 F6 | 	mov	local12, #0
00f08     04 F1 9F FE | 	loc	pa,	#(@LR__0043-@LR__0042)
00f0c     35 00 A0 FD | 	call	#FCACHE_LOAD_
00f10                 | LR__0042
00f10     84 26 C9 FA | 	rdbyte	local11, arg01 wz
00f14     01 28 05 51 |  if_ne	add	local12, #1
00f18     01 08 05 51 |  if_ne	add	arg01, #1
00f1c     F0 FF 9F 5D |  if_ne	jmp	#LR__0042
00f20                 | LR__0043
00f20     94 F8 00 F6 | 	mov	result1, local12
00f24     7C 2A 01 F6 | 	mov	local13, result1
00f28     01 2A 45 F0 | 	shr	local13, #1
00f2c     32 08 05 F6 | 	mov	arg01, #50
00f30     95 08 81 F1 | 	sub	arg01, local13
00f34     8F 0C 01 F6 | 	mov	arg03, local07
00f38     0C 0A 05 F6 | 	mov	arg02, #12
00f3c     24 06 B0 FD | 	call	#_outtextxy
00f40                 | '   waitvbl(50)
00f40     32 08 05 F6 | 	mov	arg01, #50
00f44     18 04 B0 FD | 	call	#_waitvbl
00f48                 | ' 
00f48                 | '   repeat j from 0 to 15
00f48     00 24 05 F6 | 	mov	local10, #0
00f4c                 | LR__0044
00f4c                 | '     waitvbl(25)
00f4c     19 08 05 F6 | 	mov	arg01, #25
00f50     0C 04 B0 FD | 	call	#_waitvbl
00f54                 | '     setbordercolors (getrnd() & 255,getrnd() & 255,getrnd() & 255)
00f54     1B 08 61 FD | 	getrnd	arg01
00f58     FF 08 05 F5 | 	and	arg01, #255
00f5c     1B 0A 61 FD | 	getrnd	arg02
00f60     FF 0A 05 F5 | 	and	arg02, #255
00f64     1B F8 60 FD | 	getrnd	result1
00f68     7C 0C 01 F6 | 	mov	arg03, result1
00f6c     FF 0C 05 F5 | 	and	arg03, #255
00f70     D4 04 B0 FD | 	call	#_setbordercolors
00f74     01 24 05 F1 | 	add	local10, #1
00f78     10 24 5D F2 | 	cmps	local10, #16 wcz
00f7c     CC FF 9F CD |  if_b	jmp	#LR__0044
00f80                 | ' 
00f80                 | '   waitvbl(25)
00f80     19 08 05 F6 | 	mov	arg01, #25
00f84     D8 03 B0 FD | 	call	#_waitvbl
00f88                 | '   setbordercolors(0,0,0)
00f88     00 08 05 F6 | 	mov	arg01, #0
00f8c     00 0A 05 F6 | 	mov	arg02, #0
00f90     00 0C 05 F6 | 	mov	arg03, #0
00f94     B0 04 B0 FD | 	call	#_setbordercolors
00f98                 | ' '
00f98                 | '   repeat j from 0 to 29
00f98     00 24 05 F6 | 	mov	local10, #0
00f9c                 | LR__0045
00f9c                 | '     scrollup()
00f9c     40 0A B0 FD | 	call	#_scrollup
00fa0                 | '     waitvbl(2)
00fa0     02 08 05 F6 | 	mov	arg01, #2
00fa4     B8 03 B0 FD | 	call	#_waitvbl
00fa8     01 24 05 F1 | 	add	local10, #1
00fac     1E 24 5D F2 | 	cmps	local10, #30 wcz
00fb0     E8 FF 9F CD |  if_b	jmp	#LR__0045
00fb4                 | ' 
00fb4                 | ' 
00fb4                 | '   repeat i from 0 to 29
00fb4     00 20 05 F6 | 	mov	local08, #0
00fb8                 | LR__0046
00fb8                 | '     waitvbl(2)
00fb8     02 08 05 F6 | 	mov	arg01, #2
00fbc     A0 03 B0 FD | 	call	#_waitvbl
00fc0                 | '     cls(141,145)
00fc0     8D 08 05 F6 | 	mov	arg01, #141
00fc4     91 0A 05 F6 | 	mov	arg02, #145
00fc8     A0 09 B0 FD | 	call	#_cls
00fcc                 | '     outtextxy(i,i,s1)
00fcc     89 0C 01 F6 | 	mov	arg03, local01
00fd0     90 08 01 F6 | 	mov	arg01, local08
00fd4     90 0A 01 F6 | 	mov	arg02, local08
00fd8     88 05 B0 FD | 	call	#_outtextxy
00fdc     01 20 05 F1 | 	add	local08, #1
00fe0     1E 20 5D F2 | 	cmps	local08, #30 wcz
00fe4     D0 FF 9F CD |  if_b	jmp	#LR__0046
00fe8                 | ' 
00fe8                 | ' 
00fe8                 | '   waitvbl(100)
00fe8     64 08 05 F6 | 	mov	arg01, #100
00fec     70 03 B0 FD | 	call	#_waitvbl
00ff0                 | ' 
00ff0                 | '   cursoron()
00ff0                 | ' 
00ff0                 | ' ''---------- Switch the cursor on
00ff0                 | ' 
00ff0                 | ' cursor_sh+=16
00ff0     17 00 00 FF 
00ff4     8A F1 04 F1 | 	add	objptr, ##12170
00ff8     78 26 C1 FA | 	rdbyte	local11, objptr
00ffc     10 26 05 F1 | 	add	local11, #16
01000     78 26 41 FC | 	wrbyte	local11, objptr
01004     17 00 00 FF 
01008     8A F1 84 F1 | 	sub	objptr, ##12170
0100c                 | '   cls(15,0)
0100c     0F 08 05 F6 | 	mov	arg01, #15
01010     00 0A 05 F6 | 	mov	arg02, #0
01014     54 09 B0 FD | 	call	#_cls
01018                 | '   setcursorpos(0,0)
01018     00 0A 05 F6 | 	mov	arg02, #0
0101c                 | ' 
0101c                 | ' ''---------- Set the (x,y) position of cursor
0101c                 | ' 
0101c                 | ' cursor_x:=x
0101c     17 00 00 FF 
01020     88 F1 04 F1 | 	add	objptr, ##12168
01024     78 00 48 FC | 	wrbyte	#0, objptr
01028                 | ' cursor_y:=y
01028     01 F0 04 F1 | 	add	objptr, #1
0102c     78 00 48 FC | 	wrbyte	#0, objptr
01030                 | '   setwritecolors(c_blue,0)
01030                 | ' 
01030                 | ' ''---------- Set colors for write and writeln
01030                 | ' 
01030                 | ' write_color:=ff
01030     03 F0 04 F1 | 	add	objptr, #3
01034     78 EA 68 FC | 	wrlong	#117, objptr
01038                 | ' write_background:=bb
01038     04 F0 04 F1 | 	add	objptr, #4
0103c     78 00 68 FC | 	wrlong	#0, objptr
01040     17 00 00 FF 
01044     90 F1 84 F1 | 	sub	objptr, ##12176
01048                 | '   writeln(string("blue"))
01048     12 00 00 FF 
0104c     FE 09 05 F6 | 	mov	arg01, ##@LR__0163
01050     B8 08 B0 FD | 	call	#_writeln
01054                 | '   setwritecolors(c_green,0)
01054     00 0A 05 F6 | 	mov	arg02, #0
01058                 | ' 
01058                 | ' ''---------- Set colors for write and writeln
01058                 | ' 
01058                 | ' write_color:=ff
01058     17 00 00 FF 
0105c     8C F1 04 F1 | 	add	objptr, ##12172
01060     78 8E 69 FC | 	wrlong	#199, objptr
01064                 | ' write_background:=bb
01064     04 F0 04 F1 | 	add	objptr, #4
01068     78 00 68 FC | 	wrlong	#0, objptr
0106c     17 00 00 FF 
01070     90 F1 84 F1 | 	sub	objptr, ##12176
01074                 | '   writeln(string("green"))
01074     13 00 00 FF 
01078     03 08 05 F6 | 	mov	arg01, ##@LR__0164
0107c     8C 08 B0 FD | 	call	#_writeln
01080                 | '   setwritecolors(c_cyan,0)
01080     00 0A 05 F6 | 	mov	arg02, #0
01084                 | ' 
01084                 | ' ''---------- Set colors for write and writeln
01084                 | ' 
01084                 | ' write_color:=ff
01084     17 00 00 FF 
01088     8C F1 04 F1 | 	add	objptr, ##12172
0108c     78 2E 69 FC | 	wrlong	#151, objptr
01090                 | ' write_background:=bb
01090     04 F0 04 F1 | 	add	objptr, #4
01094     78 00 68 FC | 	wrlong	#0, objptr
01098     17 00 00 FF 
0109c     90 F1 84 F1 | 	sub	objptr, ##12176
010a0                 | '   writeln(string("cyan"))
010a0     13 00 00 FF 
010a4     09 08 05 F6 | 	mov	arg01, ##@LR__0165
010a8     60 08 B0 FD | 	call	#_writeln
010ac                 | '   setwritecolors(c_red,0)
010ac     00 0A 05 F6 | 	mov	arg02, #0
010b0                 | ' 
010b0                 | ' ''---------- Set colors for write and writeln
010b0                 | ' 
010b0                 | ' write_color:=ff
010b0     17 00 00 FF 
010b4     8C F1 04 F1 | 	add	objptr, ##12172
010b8     78 4E 68 FC | 	wrlong	#39, objptr
010bc                 | ' write_background:=bb
010bc     04 F0 04 F1 | 	add	objptr, #4
010c0     78 00 68 FC | 	wrlong	#0, objptr
010c4     17 00 00 FF 
010c8     90 F1 84 F1 | 	sub	objptr, ##12176
010cc                 | '   writeln(string("red"))
010cc     13 00 00 FF 
010d0     0E 08 05 F6 | 	mov	arg01, ##@LR__0166
010d4     34 08 B0 FD | 	call	#_writeln
010d8                 | '   setwritecolors(c_magenta,0)
010d8     00 0A 05 F6 | 	mov	arg02, #0
010dc                 | ' 
010dc                 | ' ''---------- Set colors for write and writeln
010dc                 | ' 
010dc                 | ' write_color:=ff
010dc     17 00 00 FF 
010e0     8C F1 04 F1 | 	add	objptr, ##12172
010e4     78 8E 68 FC | 	wrlong	#71, objptr
010e8                 | ' write_background:=bb
010e8     04 F0 04 F1 | 	add	objptr, #4
010ec     78 00 68 FC | 	wrlong	#0, objptr
010f0     17 00 00 FF 
010f4     90 F1 84 F1 | 	sub	objptr, ##12176
010f8                 | '   writeln(string("magenta"))
010f8     13 00 00 FF 
010fc     12 08 05 F6 | 	mov	arg01, ##@LR__0167
01100     08 08 B0 FD | 	call	#_writeln
01104                 | '   setwritecolors(c_brown,0)
01104     00 0A 05 F6 | 	mov	arg02, #0
01108                 | ' 
01108                 | ' ''---------- Set colors for write and writeln
01108                 | ' 
01108                 | ' write_color:=ff
01108     17 00 00 FF 
0110c     8C F1 04 F1 | 	add	objptr, ##12172
01110     78 EC 69 FC | 	wrlong	#246, objptr
01114                 | ' write_background:=bb
01114     04 F0 04 F1 | 	add	objptr, #4
01118     78 00 68 FC | 	wrlong	#0, objptr
0111c     17 00 00 FF 
01120     90 F1 84 F1 | 	sub	objptr, ##12176
01124                 | '   writeln(string("brown"))
01124     13 00 00 FF 
01128     1A 08 05 F6 | 	mov	arg01, ##@LR__0168
0112c     DC 07 B0 FD | 	call	#_writeln
01130                 | '   setwritecolors(c_lightgray,0)
01130     00 0A 05 F6 | 	mov	arg02, #0
01134                 | ' 
01134                 | ' ''---------- Set colors for write and writeln
01134                 | ' 
01134                 | ' write_color:=ff
01134     17 00 00 FF 
01138     8C F1 04 F1 | 	add	objptr, ##12172
0113c     78 14 68 FC | 	wrlong	#10, objptr
01140                 | ' write_background:=bb
01140     04 F0 04 F1 | 	add	objptr, #4
01144     78 00 68 FC | 	wrlong	#0, objptr
01148     17 00 00 FF 
0114c     90 F1 84 F1 | 	sub	objptr, ##12176
01150                 | '   writeln(string("light gray"))
01150     13 00 00 FF 
01154     20 08 05 F6 | 	mov	arg01, ##@LR__0169
01158     B0 07 B0 FD | 	call	#_writeln
0115c                 | '   setwritecolors(c_darkgray,0)
0115c     00 0A 05 F6 | 	mov	arg02, #0
01160                 | ' 
01160                 | ' ''---------- Set colors for write and writeln
01160                 | ' 
01160                 | ' write_color:=ff
01160     17 00 00 FF 
01164     8C F1 04 F1 | 	add	objptr, ##12172
01168     78 0A 68 FC | 	wrlong	#5, objptr
0116c                 | ' write_background:=bb
0116c     04 F0 04 F1 | 	add	objptr, #4
01170     78 00 68 FC | 	wrlong	#0, objptr
01174     17 00 00 FF 
01178     90 F1 84 F1 | 	sub	objptr, ##12176
0117c                 | '   writeln(string("dark gray"))
0117c     13 00 00 FF 
01180     2B 08 05 F6 | 	mov	arg01, ##@LR__0170
01184     84 07 B0 FD | 	call	#_writeln
01188                 | '   setwritecolors(c_lightblue,0)
01188     00 0A 05 F6 | 	mov	arg02, #0
0118c                 | ' 
0118c                 | ' ''---------- Set colors for write and writeln
0118c                 | ' 
0118c                 | ' write_color:=ff
0118c     17 00 00 FF 
01190     8C F1 04 F1 | 	add	objptr, ##12172
01194     78 F6 68 FC | 	wrlong	#123, objptr
01198                 | ' write_background:=bb
01198     04 F0 04 F1 | 	add	objptr, #4
0119c     78 00 68 FC | 	wrlong	#0, objptr
011a0     17 00 00 FF 
011a4     90 F1 84 F1 | 	sub	objptr, ##12176
011a8                 | '   writeln(string("light blue"))
011a8     13 00 00 FF 
011ac     35 08 05 F6 | 	mov	arg01, ##@LR__0171
011b0     58 07 B0 FD | 	call	#_writeln
011b4                 | '   setwritecolors(c_lightgreen,0)
011b4     00 0A 05 F6 | 	mov	arg02, #0
011b8                 | ' 
011b8                 | ' ''---------- Set colors for write and writeln
011b8                 | ' 
011b8                 | ' write_color:=ff
011b8     17 00 00 FF 
011bc     8C F1 04 F1 | 	add	objptr, ##12172
011c0     78 96 69 FC | 	wrlong	#203, objptr
011c4                 | ' write_background:=bb
011c4     04 F0 04 F1 | 	add	objptr, #4
011c8     78 00 68 FC | 	wrlong	#0, objptr
011cc     17 00 00 FF 
011d0     90 F1 84 F1 | 	sub	objptr, ##12176
011d4                 | '   writeln(string("light green"))
011d4     13 00 00 FF 
011d8     40 08 05 F6 | 	mov	arg01, ##@LR__0172
011dc     2C 07 B0 FD | 	call	#_writeln
011e0                 | '   setwritecolors(c_lightcyan,0)
011e0     00 0A 05 F6 | 	mov	arg02, #0
011e4                 | ' 
011e4                 | ' ''---------- Set colors for write and writeln
011e4                 | ' 
011e4                 | ' write_color:=ff
011e4     17 00 00 FF 
011e8     8C F1 04 F1 | 	add	objptr, ##12172
011ec     78 36 69 FC | 	wrlong	#155, objptr
011f0                 | ' write_background:=bb
011f0     04 F0 04 F1 | 	add	objptr, #4
011f4     78 00 68 FC | 	wrlong	#0, objptr
011f8     17 00 00 FF 
011fc     90 F1 84 F1 | 	sub	objptr, ##12176
01200                 | '   writeln(string("light cyan"))
01200     13 00 00 FF 
01204     4C 08 05 F6 | 	mov	arg01, ##@LR__0173
01208     00 07 B0 FD | 	call	#_writeln
0120c                 | '   setwritecolors(c_lightred,0)
0120c     00 0A 05 F6 | 	mov	arg02, #0
01210                 | ' 
01210                 | ' ''---------- Set colors for write and writeln
01210                 | ' 
01210                 | ' write_color:=ff
01210     17 00 00 FF 
01214     8C F1 04 F1 | 	add	objptr, ##12172
01218     78 56 68 FC | 	wrlong	#43, objptr
0121c                 | ' write_background:=bb
0121c     04 F0 04 F1 | 	add	objptr, #4
01220     78 00 68 FC | 	wrlong	#0, objptr
01224     17 00 00 FF 
01228     90 F1 84 F1 | 	sub	objptr, ##12176
0122c                 | '   writeln(string("light red"))
0122c     13 00 00 FF 
01230     57 08 05 F6 | 	mov	arg01, ##@LR__0174
01234     D4 06 B0 FD | 	call	#_writeln
01238                 | '   setwritecolors(c_lightmagenta,0)
01238     00 0A 05 F6 | 	mov	arg02, #0
0123c                 | ' 
0123c                 | ' ''---------- Set colors for write and writeln
0123c                 | ' 
0123c                 | ' write_color:=ff
0123c     17 00 00 FF 
01240     8C F1 04 F1 | 	add	objptr, ##12172
01244     78 96 68 FC | 	wrlong	#75, objptr
01248                 | ' write_background:=bb
01248     04 F0 04 F1 | 	add	objptr, #4
0124c     78 00 68 FC | 	wrlong	#0, objptr
01250     17 00 00 FF 
01254     90 F1 84 F1 | 	sub	objptr, ##12176
01258                 | '   writeln(string("light magenta"))
01258     13 00 00 FF 
0125c     61 08 05 F6 | 	mov	arg01, ##@LR__0175
01260     A8 06 B0 FD | 	call	#_writeln
01264                 | '   setwritecolors(c_yellow,0)
01264     00 0A 05 F6 | 	mov	arg02, #0
01268                 | ' 
01268                 | ' ''---------- Set colors for write and writeln
01268                 | ' 
01268                 | ' write_color:=ff
01268     17 00 00 FF 
0126c     8C F1 04 F1 | 	add	objptr, ##12172
01270     78 D4 69 FC | 	wrlong	#234, objptr
01274                 | ' write_background:=bb
01274     04 F0 04 F1 | 	add	objptr, #4
01278     78 00 68 FC | 	wrlong	#0, objptr
0127c     17 00 00 FF 
01280     90 F1 84 F1 | 	sub	objptr, ##12176
01284                 | '   writeln(string("yellow"))
01284     13 00 00 FF 
01288     6F 08 05 F6 | 	mov	arg01, ##@LR__0176
0128c     7C 06 B0 FD | 	call	#_writeln
01290                 | '   setwritecolors(c_white,0)
01290     00 0A 05 F6 | 	mov	arg02, #0
01294                 | ' 
01294                 | ' ''---------- Set colors for write and writeln
01294                 | ' 
01294                 | ' write_color:=ff
01294     17 00 00 FF 
01298     8C F1 04 F1 | 	add	objptr, ##12172
0129c     78 1E 68 FC | 	wrlong	#15, objptr
012a0                 | ' write_background:=bb
012a0     04 F0 04 F1 | 	add	objptr, #4
012a4     78 00 68 FC | 	wrlong	#0, objptr
012a8     17 00 00 FF 
012ac     90 F1 84 F1 | 	sub	objptr, ##12176
012b0                 | '   writeln(string("white"))
012b0     13 00 00 FF 
012b4     76 08 05 F6 | 	mov	arg01, ##@LR__0177
012b8     50 06 B0 FD | 	call	#_writeln
012bc                 | '   writeln(inttostr(clkfreq))
012bc     14 08 05 FB | 	rdlong	arg01, #20
012c0     24 08 B0 FD | 	call	#_inttostr
012c4     7C 08 01 F6 | 	mov	arg01, result1
012c8     40 06 B0 FD | 	call	#_writeln
012cc                 | ' 
012cc                 | '   repeat i from 0 to 15
012cc     00 20 05 F6 | 	mov	local08, #0
012d0                 | LR__0047
012d0                 | '     repeat j from 0 to 15
012d0     00 24 05 F6 | 	mov	local10, #0
012d4                 | LR__0048
012d4                 | '       repeat k from 0 to 1
012d4     00 2C 05 F6 | 	mov	local14, #0
012d8                 | LR__0049
012d8                 | '         setbackcolor(2*i+50,j+8,16*i+j)
012d8     90 08 01 F6 | 	mov	arg01, local08
012dc     01 08 65 F0 | 	shl	arg01, #1
012e0     32 08 05 F1 | 	add	arg01, #50
012e4     92 0A 01 F6 | 	mov	arg02, local10
012e8     08 0A 05 F1 | 	add	arg02, #8
012ec     90 0C 01 F6 | 	mov	arg03, local08
012f0     04 0C 65 F0 | 	shl	arg03, #4
012f4     92 0C 01 F1 | 	add	arg03, local10
012f8     EC 01 B0 FD | 	call	#_setbackcolor
012fc                 | '         setbackcolor(2*i+51,j+8,16*i+j)
012fc     90 08 01 F6 | 	mov	arg01, local08
01300     01 08 65 F0 | 	shl	arg01, #1
01304     33 08 05 F1 | 	add	arg01, #51
01308     92 0A 01 F6 | 	mov	arg02, local10
0130c     08 0A 05 F1 | 	add	arg02, #8
01310     90 0C 01 F6 | 	mov	arg03, local08
01314     04 0C 65 F0 | 	shl	arg03, #4
01318     92 0C 01 F1 | 	add	arg03, local10
0131c     C8 01 B0 FD | 	call	#_setbackcolor
01320     01 2C 05 F1 | 	add	local14, #1
01324     02 2C 5D F2 | 	cmps	local14, #2 wcz
01328     AC FF 9F CD |  if_b	jmp	#LR__0049
0132c     01 24 05 F1 | 	add	local10, #1
01330     10 24 5D F2 | 	cmps	local10, #16 wcz
01334     9C FF 9F CD |  if_b	jmp	#LR__0048
01338     01 20 05 F1 | 	add	local08, #1
0133c     10 20 5D F2 | 	cmps	local08, #16 wcz
01340     8C FF 9F CD |  if_b	jmp	#LR__0047
01344                 | ' 
01344                 | '   waitvbl(1000)
01344     01 00 00 FF 
01348     E8 09 05 F6 | 	mov	arg01, ##1000
0134c     10 00 B0 FD | 	call	#_waitvbl
01350     68 F6 9F FD | 	jmp	#LR__0012
01354     46 F0 03 F6 | 	mov	ptra, fp
01358     5A 00 A0 FD | 	call	#popregs_
0135c                 | _demo_ret
0135c     2D 00 64 FD | 	ret
01360                 | 
01360                 | ' 
01360                 | ' '*************************************************************************
01360                 | ' '                                                                        *
01360                 | ' '  VBlank functions                                                      *
01360                 | ' '                                                                        *
01360                 | ' '*************************************************************************
01360                 | ' 
01360                 | ' pub waitvbl(amount) | i
01360                 | _waitvbl
01360     04 88 04 F6 | 	mov	COUNT_, #4
01364     4B 00 A0 FD | 	call	#pushregs_
01368     84 12 01 F6 | 	mov	local01, arg01
0136c                 | ' 
0136c                 | ' ''---------- Wait for start of vblank. Amount=delay in frames
0136c                 | ' 
0136c                 | ' repeat i from 1 to amount
0136c     01 14 05 F6 | 	mov	local02, #1
01370     01 12 5D F2 | 	cmps	local01, #1 wcz
01374     01 16 05 16 |  if_a	mov	local03, #1
01378     01 16 65 E6 |  if_be	neg	local03, #1
0137c     8B 12 01 F1 | 	add	local01, local03
01380                 | LR__0050
01380                 | '   repeat until vblank==0
01380                 | LR__0051
01380     17 00 00 FF 
01384     A4 F1 04 F1 | 	add	objptr, ##12196
01388     78 18 09 FB | 	rdlong	local04, objptr wz
0138c     17 00 00 FF 
01390     A4 F1 84 F1 | 	sub	objptr, ##12196
01394     0C 00 90 AD |  if_e	jmp	#LR__0052
01398                 | '     waitus(100)
01398     64 08 05 F6 | 	mov	arg01, #100
0139c     70 10 B0 FD | 	call	#__system___waitus
013a0     DC FF 9F FD | 	jmp	#LR__0051
013a4                 | LR__0052
013a4                 | '   repeat until vblank==1
013a4                 | LR__0053
013a4     17 00 00 FF 
013a8     A4 F1 04 F1 | 	add	objptr, ##12196
013ac     78 18 01 FB | 	rdlong	local04, objptr
013b0     17 00 00 FF 
013b4     A4 F1 84 F1 | 	sub	objptr, ##12196
013b8     01 18 0D F2 | 	cmp	local04, #1 wz
013bc     0C 00 90 AD |  if_e	jmp	#LR__0054
013c0                 | '     waitus(100)
013c0     64 08 05 F6 | 	mov	arg01, #100
013c4     48 10 B0 FD | 	call	#__system___waitus
013c8     D8 FF 9F FD | 	jmp	#LR__0053
013cc                 | LR__0054
013cc     8B 14 01 F1 | 	add	local02, local03
013d0     89 14 09 F2 | 	cmp	local02, local01 wz
013d4     A8 FF 9F 5D |  if_ne	jmp	#LR__0050
013d8     46 F0 03 F6 | 	mov	ptra, fp
013dc     5A 00 A0 FD | 	call	#popregs_
013e0                 | _waitvbl_ret
013e0     2D 00 64 FD | 	ret
013e4                 | 
013e4                 | ' 
013e4                 | ' '*************************************************************************
013e4                 | ' '                                                                        *
013e4                 | ' '  Color functions                                                       *
013e4                 | ' '                                                                        *
013e4                 | ' '*************************************************************************
013e4                 | ' 
013e4                 | ' pub setscreencolors(ff,bb) | c ,i
013e4                 | _setscreencolors
013e4                 | ' 
013e4                 | ' ''---------- Set font and back colors for all screen - from 256 color palette
013e4                 | ' 
013e4                 | ' c:=ff<<24+bb<<16
013e4     18 08 65 F0 | 	shl	arg01, #24
013e8     10 0A 65 F0 | 	shl	arg02, #16
013ec     85 08 01 F1 | 	add	arg01, arg02
013f0     84 FA 00 F6 | 	mov	_var01, arg01
013f4                 | ' 
013f4                 | ' repeat i from 0 to 2999
013f4     00 FC 04 F6 | 	mov	_var02, #0
013f8     48 EC 9F FE | 	loc	pa,	#(@LR__0056-@LR__0055)
013fc     35 00 A0 FD | 	call	#FCACHE_LOAD_
01400                 | LR__0055
01400                 | '    buf[i]:= (buf[i] & $FFFF) |  c
01400     7E 0A 01 F6 | 	mov	arg02, _var02
01404     02 0A 65 F0 | 	shl	arg02, #2
01408     A8 F0 04 F1 | 	add	objptr, #168
0140c     78 0A 01 F1 | 	add	arg02, objptr
01410     85 08 01 FB | 	rdlong	arg01, arg02
01414     7F 00 00 FF 
01418     FF 09 05 F5 | 	and	arg01, ##65535
0141c     7D 08 41 F5 | 	or	arg01, _var01
01420     7E FE 00 F6 | 	mov	_var03, _var02
01424     02 FE 64 F0 | 	shl	_var03, #2
01428     78 FE 00 F1 | 	add	_var03, objptr
0142c     7F 08 61 FC | 	wrlong	arg01, _var03
01430     01 FC 04 F1 | 	add	_var02, #1
01434     05 00 00 FF 
01438     B8 FD 5C F2 | 	cmps	_var02, ##3000 wcz
0143c     A8 F0 84 F1 | 	sub	objptr, #168
01440     BC FF 9F CD |  if_b	jmp	#LR__0055
01444                 | LR__0056
01444                 | _setscreencolors_ret
01444     2D 00 64 FD | 	ret
01448                 | 
01448                 | ' 
01448                 | ' 
01448                 | ' pub setbordercolors(r,g,b) |color, i
01448                 | _setbordercolors
01448                 | ' 
01448                 | ' ''---------- Set border color for all screen - rgb
01448                 | ' 
01448                 | ' color:=r<<16+g<<8+b
01448     10 08 65 F0 | 	shl	arg01, #16
0144c     08 0A 65 F0 | 	shl	arg02, #8
01450     85 08 01 F1 | 	add	arg01, arg02
01454     86 08 01 F1 | 	add	arg01, arg03
01458     84 FA 00 F6 | 	mov	_var01, arg01
0145c                 | ' 
0145c                 | ' repeat i from 0 to 31
0145c     00 FC 04 F6 | 	mov	_var02, #0
01460     C4 EB 9F FE | 	loc	pa,	#(@LR__0058-@LR__0057)
01464     35 00 A0 FD | 	call	#FCACHE_LOAD_
01468                 | LR__0057
01468                 | '   bordercolor[i]:=color
01468     7E 08 01 F6 | 	mov	arg01, _var02
0146c     02 08 65 F0 | 	shl	arg01, #2
01470     28 F0 04 F1 | 	add	objptr, #40
01474     78 0A 01 F6 | 	mov	arg02, objptr
01478     28 F0 84 F1 | 	sub	objptr, #40
0147c     85 08 01 F1 | 	add	arg01, arg02
01480     84 FA 60 FC | 	wrlong	_var01, arg01
01484     01 FC 04 F1 | 	add	_var02, #1
01488     20 FC 5C F2 | 	cmps	_var02, #32 wcz
0148c     D8 FF 9F CD |  if_b	jmp	#LR__0057
01490                 | LR__0058
01490                 | _setbordercolors_ret
01490     2D 00 64 FD | 	ret
01494                 | 
01494                 | ' 
01494                 | ' 
01494                 | ' 
01494                 | ' pub setfontcolor(x,y,c) |   place, color
01494                 | _setfontcolor
01494                 | ' 
01494                 | ' ''---------- Set the colors for the character at line (0..29) and position (0..99)
01494                 | ' 
01494                 | ' place:=(x)+(y*100)
01494     64 0A 05 FD | 	qmul	arg02, #100
01498     18 FA 60 FD | 	getqx	_var01
0149c     7D 08 01 F1 | 	add	arg01, _var01
014a0                 | ' 
014a0                 | ' if (place>2999)
014a0     05 00 00 FF 
014a4     B7 09 5D F2 | 	cmps	arg01, ##2999 wcz
014a8                 | '   place:=2999
014a8     05 00 00 1F 
014ac     B7 09 05 16 |  if_a	mov	arg01, ##2999
014b0                 | ' 
014b0                 | ' color:=(buf[place] &$FFFFFF) | (c<<24)
014b0     84 FA 00 F6 | 	mov	_var01, arg01
014b4     02 FA 64 F0 | 	shl	_var01, #2
014b8     A8 F0 04 F1 | 	add	objptr, #168
014bc     78 FA 00 F1 | 	add	_var01, objptr
014c0     7D FC 00 FB | 	rdlong	_var02, _var01
014c4     FF 7F 00 FF 
014c8     FF FD 04 F5 | 	and	_var02, ##16777215
014cc     18 0C 65 F0 | 	shl	arg03, #24
014d0     86 FC 40 F5 | 	or	_var02, arg03
014d4                 | ' buf[place]:=color
014d4     02 08 65 F0 | 	shl	arg01, #2
014d8     78 08 01 F1 | 	add	arg01, objptr
014dc     84 FC 60 FC | 	wrlong	_var02, arg01
014e0     A8 F0 84 F1 | 	sub	objptr, #168
014e4                 | _setfontcolor_ret
014e4     2D 00 64 FD | 	ret
014e8                 | 
014e8                 | ' 
014e8                 | ' 
014e8                 | ' pub setbackcolor(x,y,c) | place, color
014e8                 | _setbackcolor
014e8                 | ' 
014e8                 | ' ''---------- Set the background color at line (0..29) and position (0..99)
014e8                 | ' 
014e8                 | ' place:=(x)+(y*100)
014e8     64 0A 05 FD | 	qmul	arg02, #100
014ec     18 FA 60 FD | 	getqx	_var01
014f0     7D 08 01 F1 | 	add	arg01, _var01
014f4                 | ' 
014f4                 | ' if (place>2999)
014f4     05 00 00 FF 
014f8     B7 09 5D F2 | 	cmps	arg01, ##2999 wcz
014fc                 | '   place:=2999
014fc     05 00 00 1F 
01500     B7 09 05 16 |  if_a	mov	arg01, ##2999
01504                 | ' 
01504                 | ' color:=(buf[place] &$FF00FFFF) | (c<<16)
01504     84 FA 00 F6 | 	mov	_var01, arg01
01508     02 FA 64 F0 | 	shl	_var01, #2
0150c     A8 F0 04 F1 | 	add	objptr, #168
01510     78 FA 00 F1 | 	add	_var01, objptr
01514     7D FC 00 FB | 	rdlong	_var02, _var01
01518     7F 80 7F FF 
0151c     FF FD 04 F5 | 	and	_var02, ##-16711681
01520     10 0C 65 F0 | 	shl	arg03, #16
01524     86 FC 40 F5 | 	or	_var02, arg03
01528                 | ' buf[place]:=color
01528     02 08 65 F0 | 	shl	arg01, #2
0152c     78 08 01 F1 | 	add	arg01, objptr
01530     84 FC 60 FC | 	wrlong	_var02, arg01
01534     A8 F0 84 F1 | 	sub	objptr, #168
01538                 | _setbackcolor_ret
01538     2D 00 64 FD | 	ret
0153c                 | 
0153c                 | ' 
0153c                 | ' 
0153c                 | ' 
0153c                 | ' pub setbordercolor(line,r,g,b) | color
0153c                 | _setbordercolor
0153c                 | ' 
0153c                 | ' ''---------- Set the border color at line 0..31.
0153c                 | ' ''---------- 0 is upper border, 31 is lower border, add #1 to the text line #
0153c                 | ' 
0153c                 | ' color:=r<<16+g<<8+b
0153c     10 0A 65 F0 | 	shl	arg02, #16
01540     08 0C 65 F0 | 	shl	arg03, #8
01544     86 0A 01 F1 | 	add	arg02, arg03
01548     87 0A 01 F1 | 	add	arg02, arg04
0154c                 | ' bordercolor[line]:=color
0154c     02 08 65 F0 | 	shl	arg01, #2
01550     28 F0 04 F1 | 	add	objptr, #40
01554     78 08 01 F1 | 	add	arg01, objptr
01558     84 0A 61 FC | 	wrlong	arg02, arg01
0155c     28 F0 84 F1 | 	sub	objptr, #40
01560                 | _setbordercolor_ret
01560     2D 00 64 FD | 	ret
01564                 | 
01564                 | ' 
01564                 | ' 
01564                 | ' '*************************************************************************
01564                 | ' '                                                                        *
01564                 | ' '  Text functions                                                        *
01564                 | ' '                                                                        *
01564                 | ' '*************************************************************************
01564                 | ' 
01564                 | ' pub outtextxy(x,y,text) | iii
01564                 | _outtextxy
01564     0B 88 04 F6 | 	mov	COUNT_, #11
01568     4B 00 A0 FD | 	call	#pushregs_
0156c     84 12 01 F6 | 	mov	local01, arg01
01570                 | ' 
01570                 | ' ''--------- Output a string at position x,y - set the colors first
01570                 | ' 
01570                 | ' repeat iii from 0 to strsize(text)-1
01570     00 14 05 F6 | 	mov	local02, #0
01574     86 08 01 F6 | 	mov	arg01, arg03
01578     00 16 05 F6 | 	mov	local03, #0
0157c     90 EA 9F FE | 	loc	pa,	#(@LR__0060-@LR__0059)
01580     35 00 A0 FD | 	call	#FCACHE_LOAD_
01584                 | LR__0059
01584     84 18 C9 FA | 	rdbyte	local04, arg01 wz
01588     01 16 05 51 |  if_ne	add	local03, #1
0158c     01 08 05 51 |  if_ne	add	arg01, #1
01590     F0 FF 9F 5D |  if_ne	jmp	#LR__0059
01594                 | LR__0060
01594     8B F8 00 F6 | 	mov	result1, local03
01598     7C 1A 01 F6 | 	mov	local05, result1
0159c     01 1A 85 F1 | 	sub	local05, #1
015a0     00 1A 5D F2 | 	cmps	local05, #0 wcz
015a4     01 1C 05 16 |  if_a	mov	local06, #1
015a8     01 1C 65 E6 |  if_be	neg	local06, #1
015ac     8E 1A 01 F1 | 	add	local05, local06
015b0     AC EA 9F FE | 	loc	pa,	#(@LR__0062-@LR__0061)
015b4     35 00 A0 FD | 	call	#FCACHE_LOAD_
015b8                 | LR__0061
015b8                 | '   buf[100*y+x+iii]:=(buf[100*y+x+iii] & $FFFFFF00)  | byte[text+iii]
015b8     64 0A 05 FD | 	qmul	arg02, #100
015bc     18 1E 61 FD | 	getqx	local07
015c0     89 1E 01 F1 | 	add	local07, local01
015c4     8A 1E 01 F1 | 	add	local07, local02
015c8     02 1E 65 F0 | 	shl	local07, #2
015cc     A8 F0 04 F1 | 	add	objptr, #168
015d0     78 1E 01 F1 | 	add	local07, objptr
015d4     8F 20 01 FB | 	rdlong	local08, local07
015d8     FF 20 25 F5 | 	andn	local08, #255
015dc     86 22 01 F6 | 	mov	local09, arg03
015e0     8A 22 01 F1 | 	add	local09, local02
015e4     91 24 C1 FA | 	rdbyte	local10, local09
015e8     92 20 41 F5 | 	or	local08, local10
015ec     64 0A 05 FD | 	qmul	arg02, #100
015f0     18 26 61 FD | 	getqx	local11
015f4     89 26 01 F1 | 	add	local11, local01
015f8     8A 26 01 F1 | 	add	local11, local02
015fc     02 26 65 F0 | 	shl	local11, #2
01600     78 26 01 F1 | 	add	local11, objptr
01604     93 20 61 FC | 	wrlong	local08, local11
01608     8E 14 01 F1 | 	add	local02, local06
0160c     8D 14 09 F2 | 	cmp	local02, local05 wz
01610     A8 F0 84 F1 | 	sub	objptr, #168
01614     A0 FF 9F 5D |  if_ne	jmp	#LR__0061
01618                 | LR__0062
01618     46 F0 03 F6 | 	mov	ptra, fp
0161c     5A 00 A0 FD | 	call	#popregs_
01620                 | _outtextxy_ret
01620     2D 00 64 FD | 	ret
01624                 | 
01624                 | ' 
01624                 | ' pub outtextxyc(x,y,text,f,b) | iii,c
01624                 | _outtextxyc
01624     0C 88 04 F6 | 	mov	COUNT_, #12
01628     4B 00 A0 FD | 	call	#pushregs_
0162c     84 12 01 F6 | 	mov	local01, arg01
01630                 | ' 
01630                 | ' ''--------- Output a string at position x,y and colors b,f
01630                 | ' 
01630                 | ' c:=f<<24+b<<16
01630     18 0E 65 F0 | 	shl	arg04, #24
01634     10 10 65 F0 | 	shl	arg05, #16
01638     88 0E 01 F1 | 	add	arg04, arg05
0163c                 | ' repeat iii from 0 to strsize(text)-1
0163c     00 14 05 F6 | 	mov	local02, #0
01640     86 08 01 F6 | 	mov	arg01, arg03
01644     00 16 05 F6 | 	mov	local03, #0
01648     C4 E9 9F FE | 	loc	pa,	#(@LR__0064-@LR__0063)
0164c     35 00 A0 FD | 	call	#FCACHE_LOAD_
01650                 | LR__0063
01650     84 18 C9 FA | 	rdbyte	local04, arg01 wz
01654     01 16 05 51 |  if_ne	add	local03, #1
01658     01 08 05 51 |  if_ne	add	arg01, #1
0165c     F0 FF 9F 5D |  if_ne	jmp	#LR__0063
01660                 | LR__0064
01660     8B F8 00 F6 | 	mov	result1, local03
01664     7C 1A 01 F6 | 	mov	local05, result1
01668     01 1A 85 F1 | 	sub	local05, #1
0166c     00 1A 5D F2 | 	cmps	local05, #0 wcz
01670     01 1C 05 16 |  if_a	mov	local06, #1
01674     01 1C 65 E6 |  if_be	neg	local06, #1
01678     8E 1A 01 F1 | 	add	local05, local06
0167c     24 EA 9F FE | 	loc	pa,	#(@LR__0066-@LR__0065)
01680     35 00 A0 FD | 	call	#FCACHE_LOAD_
01684                 | LR__0065
01684                 | '   buf[100*y+x+iii]:=(buf[100*y+x+iii] & $FFFFFF00)  | byte[text+iii]
01684     64 0A 05 FD | 	qmul	arg02, #100
01688     18 1E 61 FD | 	getqx	local07
0168c     89 1E 01 F1 | 	add	local07, local01
01690     8A 1E 01 F1 | 	add	local07, local02
01694     02 1E 65 F0 | 	shl	local07, #2
01698     A8 F0 04 F1 | 	add	objptr, #168
0169c     78 1E 01 F1 | 	add	local07, objptr
016a0     8F 20 01 FB | 	rdlong	local08, local07
016a4     FF 20 25 F5 | 	andn	local08, #255
016a8     86 22 01 F6 | 	mov	local09, arg03
016ac     8A 22 01 F1 | 	add	local09, local02
016b0     91 24 C1 FA | 	rdbyte	local10, local09
016b4     92 20 41 F5 | 	or	local08, local10
016b8     64 0A 05 FD | 	qmul	arg02, #100
016bc     18 26 61 FD | 	getqx	local11
016c0     89 26 01 F1 | 	add	local11, local01
016c4     8A 26 01 F1 | 	add	local11, local02
016c8     02 26 65 F0 | 	shl	local11, #2
016cc     78 26 01 F1 | 	add	local11, objptr
016d0     93 20 61 FC | 	wrlong	local08, local11
016d4                 | '   buf[100*y+x+iii]:=(buf[100*y+x+iii] & $0000FFFF)  | c
016d4     64 0A 05 FD | 	qmul	arg02, #100
016d8     18 1E 61 FD | 	getqx	local07
016dc     89 1E 01 F1 | 	add	local07, local01
016e0     8A 1E 01 F1 | 	add	local07, local02
016e4     02 1E 65 F0 | 	shl	local07, #2
016e8     78 1E 01 F1 | 	add	local07, objptr
016ec     8F 20 01 FB | 	rdlong	local08, local07
016f0     7F 00 00 FF 
016f4     FF 21 05 F5 | 	and	local08, ##65535
016f8     87 20 41 F5 | 	or	local08, arg04
016fc     64 0A 05 FD | 	qmul	arg02, #100
01700     18 28 61 FD | 	getqx	local12
01704     89 28 01 F1 | 	add	local12, local01
01708     8A 28 01 F1 | 	add	local12, local02
0170c     02 28 65 F0 | 	shl	local12, #2
01710     78 28 01 F1 | 	add	local12, objptr
01714     94 20 61 FC | 	wrlong	local08, local12
01718     8E 14 01 F1 | 	add	local02, local06
0171c     8D 14 09 F2 | 	cmp	local02, local05 wz
01720     A8 F0 84 F1 | 	sub	objptr, #168
01724     5C FF 9F 5D |  if_ne	jmp	#LR__0065
01728                 | LR__0066
01728     46 F0 03 F6 | 	mov	ptra, fp
0172c     5A 00 A0 FD | 	call	#popregs_
01730                 | _outtextxyc_ret
01730     2D 00 64 FD | 	ret
01734                 | 
01734                 | ' 
01734                 | ' 
01734                 | ' 
01734                 | ' pub write(text) | iii,c,ncx,ncy
01734                 | _write
01734     12 88 04 F6 | 	mov	COUNT_, #18
01738     4B 00 A0 FD | 	call	#pushregs_
0173c     84 12 01 F6 | 	mov	local01, arg01
01740                 | ' 
01740                 | ' ''--------- Output a string at the cursor position x,y, move the cursor
01740                 | ' 
01740                 | ' c:=write_color<<24+write_background<<16
01740     17 00 00 FF 
01744     8C F1 04 F1 | 	add	objptr, ##12172
01748     78 14 01 FB | 	rdlong	local02, objptr
0174c     18 14 65 F0 | 	shl	local02, #24
01750     04 F0 04 F1 | 	add	objptr, #4
01754     78 16 01 FB | 	rdlong	local03, objptr
01758     10 16 65 F0 | 	shl	local03, #16
0175c     8B 14 01 F1 | 	add	local02, local03
01760                 | ' 'debug(uhex_long(write_color))
01760                 | ' ncy:=cursor_y
01760     07 F0 84 F1 | 	sub	objptr, #7
01764     78 18 C1 FA | 	rdbyte	local04, objptr
01768                 | ' ncx:=cursor_x+strsize(text)
01768     01 F0 84 F1 | 	sub	objptr, #1
0176c     78 1A C1 FA | 	rdbyte	local05, objptr
01770     17 00 00 FF 
01774     88 F1 84 F1 | 	sub	objptr, ##12168
01778     89 08 01 F6 | 	mov	arg01, local01
0177c     00 1C 05 F6 | 	mov	local06, #0
01780     8C E8 9F FE | 	loc	pa,	#(@LR__0068-@LR__0067)
01784     35 00 A0 FD | 	call	#FCACHE_LOAD_
01788                 | LR__0067
01788     84 1E C9 FA | 	rdbyte	local07, arg01 wz
0178c     01 1C 05 51 |  if_ne	add	local06, #1
01790     01 08 05 51 |  if_ne	add	arg01, #1
01794     F0 FF 9F 5D |  if_ne	jmp	#LR__0067
01798                 | LR__0068
01798     8E F8 00 F6 | 	mov	result1, local06
0179c     8E 1A 01 F1 | 	add	local05, local06
017a0     8D 20 01 F6 | 	mov	local08, local05
017a4     68 E8 9F FE | 	loc	pa,	#(@LR__0070-@LR__0069)
017a8     35 00 A0 FD | 	call	#FCACHE_LOAD_
017ac                 | ' repeat while ncx>99
017ac                 | LR__0069
017ac     63 20 5D F2 | 	cmps	local08, #99 wcz
017b0                 | '   ncx-=100
017b0     64 20 85 11 |  if_a	sub	local08, #100
017b4                 | '   ncy+=1
017b4     01 18 05 11 |  if_a	add	local04, #1
017b8     F0 FF 9F 1D |  if_a	jmp	#LR__0069
017bc                 | LR__0070
017bc                 | ' repeat while ncy>29
017bc                 | LR__0071
017bc     1D 18 5D F2 | 	cmps	local04, #29 wcz
017c0     28 00 90 ED |  if_be	jmp	#LR__0072
017c4                 | '   ncy-=1
017c4     01 18 85 F1 | 	sub	local04, #1
017c8                 | '   scrollup()
017c8     14 02 B0 FD | 	call	#_scrollup
017cc                 | '   cursor_y-=1
017cc     17 00 00 FF 
017d0     89 F1 04 F1 | 	add	objptr, ##12169
017d4     78 1A C1 FA | 	rdbyte	local05, objptr
017d8     01 1A 85 F1 | 	sub	local05, #1
017dc     78 1A 41 FC | 	wrbyte	local05, objptr
017e0     17 00 00 FF 
017e4     89 F1 84 F1 | 	sub	objptr, ##12169
017e8     D0 FF 9F FD | 	jmp	#LR__0071
017ec                 | LR__0072
017ec                 | ' 
017ec                 | ' repeat iii from 0 to strsize(text)-1
017ec     00 22 05 F6 | 	mov	local09, #0
017f0     89 08 01 F6 | 	mov	arg01, local01
017f4     00 1C 05 F6 | 	mov	local06, #0
017f8     14 E8 9F FE | 	loc	pa,	#(@LR__0074-@LR__0073)
017fc     35 00 A0 FD | 	call	#FCACHE_LOAD_
01800                 | LR__0073
01800     84 1E C9 FA | 	rdbyte	local07, arg01 wz
01804     01 1C 05 51 |  if_ne	add	local06, #1
01808     01 08 05 51 |  if_ne	add	arg01, #1
0180c     F0 FF 9F 5D |  if_ne	jmp	#LR__0073
01810                 | LR__0074
01810     8E F8 00 F6 | 	mov	result1, local06
01814     7C 24 01 F6 | 	mov	local10, result1
01818     01 24 85 F1 | 	sub	local10, #1
0181c     00 24 5D F2 | 	cmps	local10, #0 wcz
01820     01 26 05 16 |  if_a	mov	local11, #1
01824     01 26 65 E6 |  if_be	neg	local11, #1
01828     93 24 01 F1 | 	add	local10, local11
0182c     5C E8 9F FE | 	loc	pa,	#(@LR__0076-@LR__0075)
01830     35 00 A0 FD | 	call	#FCACHE_LOAD_
01834                 | LR__0075
01834                 | ' 
01834                 | '   buf[100*cursor_y+cursor_x+iii]:=buf[100*cursor_y+cursor_x+iii] &$FFFF | c
01834     17 00 00 FF 
01838     89 F1 04 F1 | 	add	objptr, ##12169
0183c     78 28 C1 FA | 	rdbyte	local12, objptr
01840     64 28 05 FD | 	qmul	local12, #100
01844     18 2A 61 FD | 	getqx	local13
01848     01 F0 84 F1 | 	sub	objptr, #1
0184c     78 2C C1 FA | 	rdbyte	local14, objptr
01850     96 2A 01 F1 | 	add	local13, local14
01854     91 2A 01 F1 | 	add	local13, local09
01858     02 2A 65 F0 | 	shl	local13, #2
0185c     17 00 00 FF 
01860     E0 F0 84 F1 | 	sub	objptr, ##12000
01864     78 2A 01 F1 | 	add	local13, objptr
01868     95 2E 01 FB | 	rdlong	local15, local13
0186c     7F 00 00 FF 
01870     FF 2F 05 F5 | 	and	local15, ##65535
01874     8A 2E 41 F5 | 	or	local15, local02
01878     17 00 00 FF 
0187c     E1 F0 04 F1 | 	add	objptr, ##12001
01880     78 30 C1 FA | 	rdbyte	local16, objptr
01884     64 30 05 FD | 	qmul	local16, #100
01888     18 32 61 FD | 	getqx	local17
0188c     01 F0 84 F1 | 	sub	objptr, #1
01890     78 34 C1 FA | 	rdbyte	local18, objptr
01894     9A 32 01 F1 | 	add	local17, local18
01898     91 32 01 F1 | 	add	local17, local09
0189c     02 32 65 F0 | 	shl	local17, #2
018a0     17 00 00 FF 
018a4     E0 F0 84 F1 | 	sub	objptr, ##12000
018a8     78 32 01 F1 | 	add	local17, objptr
018ac     99 2E 61 FC | 	wrlong	local15, local17
018b0     93 22 01 F1 | 	add	local09, local11
018b4     92 22 09 F2 | 	cmp	local09, local10 wz
018b8     A8 F0 84 F1 | 	sub	objptr, #168
018bc     74 FF 9F 5D |  if_ne	jmp	#LR__0075
018c0                 | LR__0076
018c0                 | ' 
018c0                 | ' outtextxy(cursor_x,cursor_y,text)
018c0     17 00 00 FF 
018c4     88 F1 04 F1 | 	add	objptr, ##12168
018c8     78 08 C1 FA | 	rdbyte	arg01, objptr
018cc     01 F0 04 F1 | 	add	objptr, #1
018d0     78 0A C1 FA | 	rdbyte	arg02, objptr
018d4     17 00 00 FF 
018d8     89 F1 84 F1 | 	sub	objptr, ##12169
018dc     89 0C 01 F6 | 	mov	arg03, local01
018e0     80 FC BF FD | 	call	#_outtextxy
018e4                 | ' 
018e4                 | ' cursor_x:=ncx
018e4     17 00 00 FF 
018e8     88 F1 04 F1 | 	add	objptr, ##12168
018ec     78 20 41 FC | 	wrbyte	local08, objptr
018f0                 | ' cursor_y:=ncy
018f0     01 F0 04 F1 | 	add	objptr, #1
018f4     78 18 41 FC | 	wrbyte	local04, objptr
018f8     17 00 00 FF 
018fc     89 F1 84 F1 | 	sub	objptr, ##12169
01900     46 F0 03 F6 | 	mov	ptra, fp
01904     5A 00 A0 FD | 	call	#popregs_
01908                 | _write_ret
01908     2D 00 64 FD | 	ret
0190c                 | 
0190c                 | ' 
0190c                 | ' pub writeln(text)
0190c                 | _writeln
0190c     01 88 04 F6 | 	mov	COUNT_, #1
01910     4B 00 A0 FD | 	call	#pushregs_
01914                 | ' 
01914                 | ' '--------- Output a string at the cursor position x,y, move the cursor to the next line
01914                 | ' 
01914                 | ' write(text)
01914     1C FE BF FD | 	call	#_write
01918                 | ' cursor_x:=0
01918     17 00 00 FF 
0191c     88 F1 04 F1 | 	add	objptr, ##12168
01920     78 00 48 FC | 	wrbyte	#0, objptr
01924                 | ' cursor_y+=1
01924     01 F0 04 F1 | 	add	objptr, #1
01928     78 12 C1 FA | 	rdbyte	local01, objptr
0192c     01 12 05 F1 | 	add	local01, #1
01930     78 12 41 FC | 	wrbyte	local01, objptr
01934                 | ' if (cursor_y>29)
01934     78 12 C1 FA | 	rdbyte	local01, objptr
01938     17 00 00 FF 
0193c     89 F1 84 F1 | 	sub	objptr, ##12169
01940     1D 12 5D F2 | 	cmps	local01, #29 wcz
01944     18 00 90 ED |  if_be	jmp	#LR__0077
01948                 | '   scrollup()
01948     94 00 B0 FD | 	call	#_scrollup
0194c                 | '   cursor_y:=29
0194c     17 00 00 FF 
01950     89 F1 04 F1 | 	add	objptr, ##12169
01954     78 3A 48 FC | 	wrbyte	#29, objptr
01958     17 00 00 FF 
0195c     89 F1 84 F1 | 	sub	objptr, ##12169
01960                 | LR__0077
01960     46 F0 03 F6 | 	mov	ptra, fp
01964     5A 00 A0 FD | 	call	#popregs_
01968                 | _writeln_ret
01968     2D 00 64 FD | 	ret
0196c                 | 
0196c                 | ' 
0196c                 | ' pub cls(fc,bc)   :c
0196c                 | _cls
0196c     03 88 04 F6 | 	mov	COUNT_, #3
01970     4B 00 A0 FD | 	call	#pushregs_
01974     84 12 01 F6 | 	mov	local01, arg01
01978                 | ' 
01978                 | ' ''---------- Clear the screen, set its foreground/background color
01978                 | ' 
01978                 | ' c:=fc<<24+bc<<16+$20
01978     89 14 01 F6 | 	mov	local02, local01
0197c     18 14 65 F0 | 	shl	local02, #24
01980     85 16 01 F6 | 	mov	local03, arg02
01984     10 16 65 F0 | 	shl	local03, #16
01988     8B 14 01 F1 | 	add	local02, local03
0198c     20 14 05 F1 | 	add	local02, #32
01990                 | ' longfill(@buf,c,3000)
01990     A8 F0 04 F1 | 	add	objptr, #168
01994     78 08 01 F6 | 	mov	arg01, objptr
01998     A8 F0 84 F1 | 	sub	objptr, #168
0199c     70 E6 9F FE | 	loc	pa,	#(@LR__0080-@LR__0078)
019a0     35 00 A0 FD | 	call	#FCACHE_LOAD_
019a4                 | LR__0078
019a4     05 00 00 FF 
019a8     B8 05 DC FC | 	rep	@LR__0081, ##3000
019ac                 | LR__0079
019ac     84 14 61 FC | 	wrlong	local02, arg01
019b0     04 08 05 F1 | 	add	arg01, #4
019b4                 | LR__0080
019b4                 | LR__0081
019b4                 | '  setwritecolors(fc,bc)
019b4                 | ' 
019b4                 | ' ''---------- Set colors for write and writeln
019b4                 | ' 
019b4                 | ' write_color:=ff
019b4     17 00 00 FF 
019b8     8C F1 04 F1 | 	add	objptr, ##12172
019bc     78 12 61 FC | 	wrlong	local01, objptr
019c0                 | ' write_background:=bb
019c0     04 F0 04 F1 | 	add	objptr, #4
019c4     78 0A 61 FC | 	wrlong	arg02, objptr
019c8     17 00 00 FF 
019cc     90 F1 84 F1 | 	sub	objptr, ##12176
019d0     8A F8 00 F6 | 	mov	result1, local02
019d4     46 F0 03 F6 | 	mov	ptra, fp
019d8     5A 00 A0 FD | 	call	#popregs_
019dc                 | _cls_ret
019dc     2D 00 64 FD | 	ret
019e0                 | 
019e0                 | ' 
019e0                 | ' pub scrollup() | i
019e0                 | _scrollup
019e0     04 88 04 F6 | 	mov	COUNT_, #4
019e4     4B 00 A0 FD | 	call	#pushregs_
019e8                 | ' 
019e8                 | ' ''-----------  Scroll the screen one line up
019e8                 | ' 
019e8                 | ' longmove(@buf,@buf+400,2900)
019e8     A8 F0 04 F1 | 	add	objptr, #168
019ec     78 08 01 F6 | 	mov	arg01, objptr
019f0     78 0A 01 F6 | 	mov	arg02, objptr
019f4     A8 F0 84 F1 | 	sub	objptr, #168
019f8     90 0B 05 F1 | 	add	arg02, #400
019fc     05 00 00 FF 
01a00     54 0D 05 F6 | 	mov	arg03, ##2900
01a04     30 09 B0 FD | 	call	#__system__longmove
01a08                 | ' repeat i from 2900 to 2999
01a08     05 00 00 FF 
01a0c     54 13 05 F6 | 	mov	local01, ##2900
01a10     30 E6 9F FE | 	loc	pa,	#(@LR__0083-@LR__0082)
01a14     35 00 A0 FD | 	call	#FCACHE_LOAD_
01a18                 | LR__0082
01a18                 | '   buf[i]:=(buf[i] & $FFFF0000) | 32
01a18     89 14 01 F6 | 	mov	local02, local01
01a1c     02 14 65 F0 | 	shl	local02, #2
01a20     A8 F0 04 F1 | 	add	objptr, #168
01a24     78 14 01 F1 | 	add	local02, objptr
01a28     8A 16 01 FB | 	rdlong	local03, local02
01a2c     80 FF 7F FF 
01a30     00 16 05 F5 | 	and	local03, ##-65536
01a34     20 16 45 F5 | 	or	local03, #32
01a38     89 18 01 F6 | 	mov	local04, local01
01a3c     02 18 65 F0 | 	shl	local04, #2
01a40     78 18 01 F1 | 	add	local04, objptr
01a44     8C 16 61 FC | 	wrlong	local03, local04
01a48     01 12 05 F1 | 	add	local01, #1
01a4c     05 00 00 FF 
01a50     B8 13 5D F2 | 	cmps	local01, ##3000 wcz
01a54     A8 F0 84 F1 | 	sub	objptr, #168
01a58     BC FF 9F CD |  if_b	jmp	#LR__0082
01a5c                 | LR__0083
01a5c     46 F0 03 F6 | 	mov	ptra, fp
01a60     5A 00 A0 FD | 	call	#popregs_
01a64                 | _scrollup_ret
01a64     2D 00 64 FD | 	ret
01a68                 | 
01a68                 | ' 
01a68                 | ' pub scrolldown() | i
01a68                 | _scrolldown
01a68     04 88 04 F6 | 	mov	COUNT_, #4
01a6c     4B 00 A0 FD | 	call	#pushregs_
01a70                 | ' 
01a70                 | ' ''----------- Scroll the screen one line down
01a70                 | ' 
01a70                 | ' longmove(@buf+400,@buf,2900)
01a70     A8 F0 04 F1 | 	add	objptr, #168
01a74     78 08 01 F6 | 	mov	arg01, objptr
01a78     90 09 05 F1 | 	add	arg01, #400
01a7c     78 0A 01 F6 | 	mov	arg02, objptr
01a80     A8 F0 84 F1 | 	sub	objptr, #168
01a84     05 00 00 FF 
01a88     54 0D 05 F6 | 	mov	arg03, ##2900
01a8c     A8 08 B0 FD | 	call	#__system__longmove
01a90                 | ' repeat i from 0 to 99
01a90     00 12 05 F6 | 	mov	local01, #0
01a94     A8 E5 9F FE | 	loc	pa,	#(@LR__0085-@LR__0084)
01a98     35 00 A0 FD | 	call	#FCACHE_LOAD_
01a9c                 | LR__0084
01a9c                 | '   buf[i]:=(buf[i] & $FFFF0000) | 32
01a9c     89 14 01 F6 | 	mov	local02, local01
01aa0     02 14 65 F0 | 	shl	local02, #2
01aa4     A8 F0 04 F1 | 	add	objptr, #168
01aa8     78 14 01 F1 | 	add	local02, objptr
01aac     8A 16 01 FB | 	rdlong	local03, local02
01ab0     80 FF 7F FF 
01ab4     00 16 05 F5 | 	and	local03, ##-65536
01ab8     20 16 45 F5 | 	or	local03, #32
01abc     89 18 01 F6 | 	mov	local04, local01
01ac0     02 18 65 F0 | 	shl	local04, #2
01ac4     78 18 01 F1 | 	add	local04, objptr
01ac8     8C 16 61 FC | 	wrlong	local03, local04
01acc     01 12 05 F1 | 	add	local01, #1
01ad0     64 12 5D F2 | 	cmps	local01, #100 wcz
01ad4     A8 F0 84 F1 | 	sub	objptr, #168
01ad8     C0 FF 9F CD |  if_b	jmp	#LR__0084
01adc                 | LR__0085
01adc     46 F0 03 F6 | 	mov	ptra, fp
01ae0     5A 00 A0 FD | 	call	#popregs_
01ae4                 | _scrolldown_ret
01ae4     2D 00 64 FD | 	ret
01ae8                 | 
01ae8                 | ' 
01ae8                 | ' 
01ae8                 | ' pub inttostr(i):result |q,pos,k,j
01ae8                 | _inttostr
01ae8     06 88 04 F6 | 	mov	COUNT_, #6
01aec     4B 00 A0 FD | 	call	#pushregs_
01af0     84 12 01 F6 | 	mov	local01, arg01
01af4                 | ' 
01af4                 | ' ''---------- Convert a integer to dec string, return a pointer
01af4                 | ' 
01af4                 | ' j:=i
01af4     89 14 09 F6 | 	mov	local02, local01 wz
01af8                 | ' pos:=10
01af8     0A 16 05 F6 | 	mov	local03, #10
01afc                 | ' k:=0
01afc     00 18 05 F6 | 	mov	local04, #0
01b00                 | ' 
01b00                 | ' if (j==0)
01b00     20 00 90 5D |  if_ne	jmp	#LR__0086
01b04                 | '   n_string[0]:=48
01b04     17 00 00 FF 
01b08     A8 F1 04 F1 | 	add	objptr, ##12200
01b0c     78 60 48 FC | 	wrbyte	#48, objptr
01b10                 | '   n_string[1]:=0
01b10     01 F0 04 F1 | 	add	objptr, #1
01b14     78 00 48 FC | 	wrbyte	#0, objptr
01b18     17 00 00 FF 
01b1c     A9 F1 84 F1 | 	sub	objptr, ##12201
01b20                 | ' 
01b20                 | ' else
01b20     F4 00 90 FD | 	jmp	#LR__0093
01b24                 | LR__0086
01b24                 | '   if (j<0)
01b24     00 14 5D F2 | 	cmps	local02, #0 wcz
01b28                 | '     j:=0-j
01b28     8A 14 61 C6 |  if_b	neg	local02, local02
01b2c                 | '     k:=45
01b2c     2D 18 05 C6 |  if_b	mov	local04, #45
01b30                 | ' 
01b30                 | '   n_string[11]:=0
01b30     17 00 00 FF 
01b34     B3 F1 04 F1 | 	add	objptr, ##12211
01b38     78 00 48 FC | 	wrbyte	#0, objptr
01b3c     17 00 00 FF 
01b40     B3 F1 84 F1 | 	sub	objptr, ##12211
01b44     00 E5 9F FE | 	loc	pa,	#(@LR__0088-@LR__0087)
01b48     35 00 A0 FD | 	call	#FCACHE_LOAD_
01b4c                 | '   repeat while (pos>-1)
01b4c                 | LR__0087
01b4c     FF FF 7F FF 
01b50     FF 17 5D F2 | 	cmps	local03, ##-1 wcz
01b54     3C 00 90 ED |  if_be	jmp	#LR__0089
01b58                 | '     q:=j//10
01b58     8A 36 01 F6 | 	mov	muldiva_, local02
01b5c     0A 38 05 F6 | 	mov	muldivb_, #10
01b60     6B 00 A0 FD | 	call	#divide_
01b64                 | '     q:=48+q
01b64     30 1A 05 F6 | 	mov	local05, #48
01b68     9B 1A 01 F1 | 	add	local05, muldiva_
01b6c                 | '     n_string[pos]:=q
01b6c     8B 1C 01 F6 | 	mov	local06, local03
01b70     17 00 00 FF 
01b74     A8 F1 04 F1 | 	add	objptr, ##12200
01b78     78 1C 01 F1 | 	add	local06, objptr
01b7c     8E 1A 41 FC | 	wrbyte	local05, local06
01b80                 | '     j:=j/10
01b80     9C 14 01 F6 | 	mov	local02, muldivb_
01b84                 | '     pos-=1
01b84     01 16 85 F1 | 	sub	local03, #1
01b88     17 00 00 FF 
01b8c     A8 F1 84 F1 | 	sub	objptr, ##12200
01b90     B8 FF 9F FD | 	jmp	#LR__0087
01b94                 | LR__0088
01b94                 | LR__0089
01b94                 | '   repeat while n_string[0]==48
01b94                 | LR__0090
01b94     17 00 00 FF 
01b98     A8 F1 04 F1 | 	add	objptr, ##12200
01b9c     78 1C C1 FA | 	rdbyte	local06, objptr
01ba0     17 00 00 FF 
01ba4     A8 F1 84 F1 | 	sub	objptr, ##12200
01ba8     30 1C 0D F2 | 	cmp	local06, #48 wz
01bac     28 00 90 5D |  if_ne	jmp	#LR__0091
01bb0                 | '     bytemove(@n_string,@n_string+1,12)
01bb0     17 00 00 FF 
01bb4     A8 F1 04 F1 | 	add	objptr, ##12200
01bb8     78 08 01 F6 | 	mov	arg01, objptr
01bbc     78 0A 01 F6 | 	mov	arg02, objptr
01bc0     17 00 00 FF 
01bc4     A8 F1 84 F1 | 	sub	objptr, ##12200
01bc8     01 0A 05 F1 | 	add	arg02, #1
01bcc     0C 0C 05 F6 | 	mov	arg03, #12
01bd0     D4 06 B0 FD | 	call	#__system__bytemove
01bd4     BC FF 9F FD | 	jmp	#LR__0090
01bd8                 | LR__0091
01bd8                 | ' 
01bd8                 | '   if k==45
01bd8     2D 18 0D F2 | 	cmp	local04, #45 wz
01bdc     38 00 90 5D |  if_ne	jmp	#LR__0092
01be0                 | '      bytemove(@n_string+1,@n_string,12)
01be0     17 00 00 FF 
01be4     A8 F1 04 F1 | 	add	objptr, ##12200
01be8     78 08 01 F6 | 	mov	arg01, objptr
01bec     01 08 05 F1 | 	add	arg01, #1
01bf0     78 0A 01 F6 | 	mov	arg02, objptr
01bf4     17 00 00 FF 
01bf8     A8 F1 84 F1 | 	sub	objptr, ##12200
01bfc     0C 0C 05 F6 | 	mov	arg03, #12
01c00     A4 06 B0 FD | 	call	#__system__bytemove
01c04                 | '      n_string[0]:=k
01c04     17 00 00 FF 
01c08     A8 F1 04 F1 | 	add	objptr, ##12200
01c0c     78 18 41 FC | 	wrbyte	local04, objptr
01c10     17 00 00 FF 
01c14     A8 F1 84 F1 | 	sub	objptr, ##12200
01c18                 | LR__0092
01c18                 | LR__0093
01c18                 | ' 
01c18                 | ' q:=@n_string
01c18     17 00 00 FF 
01c1c     A8 F1 04 F1 | 	add	objptr, ##12200
01c20     78 F8 00 F6 | 	mov	result1, objptr
01c24     17 00 00 FF 
01c28     A8 F1 84 F1 | 	sub	objptr, ##12200
01c2c                 | ' return q
01c2c     46 F0 03 F6 | 	mov	ptra, fp
01c30     5A 00 A0 FD | 	call	#popregs_
01c34                 | _inttostr_ret
01c34     2D 00 64 FD | 	ret
01c38                 | 
01c38                 | ' 
01c38                 | ' 
01c38                 | ' pub inttohex(i,d):result |q,pos,k,j
01c38                 | _inttohex
01c38                 | ' 
01c38                 | ' ''----------  Convert integer to hex string with d digits, return a pointer
01c38                 | ' 
01c38                 | ' j:=i
01c38                 | ' pos:=d-1
01c38     85 FA 00 F6 | 	mov	_var01, arg02
01c3c     01 FA 84 F1 | 	sub	_var01, #1
01c40                 | ' k:=0
01c40                 | ' n_string[d]:=0
01c40     85 FC 00 F6 | 	mov	_var02, arg02
01c44     17 00 00 FF 
01c48     A8 F1 04 F1 | 	add	objptr, ##12200
01c4c     78 FE 00 F6 | 	mov	_var03, objptr
01c50     78 FC 00 F1 | 	add	_var02, objptr
01c54     7E 00 48 FC | 	wrbyte	#0, _var02
01c58                 | ' repeat k from 0 to d-1
01c58     00 00 05 F6 | 	mov	_var04, #0
01c5c     01 0A 85 F1 | 	sub	arg02, #1
01c60     85 02 01 F6 | 	mov	_var05, arg02
01c64     00 02 5D F2 | 	cmps	_var05, #0 wcz
01c68     17 00 00 FF 
01c6c     A8 F1 84 F1 | 	sub	objptr, ##12200
01c70     01 FE 04 16 |  if_a	mov	_var03, #1
01c74     01 FE 64 E6 |  if_be	neg	_var03, #1
01c78     7F 02 01 F1 | 	add	_var05, _var03
01c7c     A8 E3 9F FE | 	loc	pa,	#(@LR__0095-@LR__0094)
01c80     35 00 A0 FD | 	call	#FCACHE_LOAD_
01c84                 | LR__0094
01c84                 | '   n_string[k]:=48
01c84     80 04 01 F6 | 	mov	_var06, _var04
01c88     17 00 00 FF 
01c8c     A8 F1 04 F1 | 	add	objptr, ##12200
01c90     78 04 01 F1 | 	add	_var06, objptr
01c94     82 60 48 FC | 	wrbyte	#48, _var06
01c98     7F 00 01 F1 | 	add	_var04, _var03
01c9c     81 00 09 F2 | 	cmp	_var04, _var05 wz
01ca0     17 00 00 FF 
01ca4     A8 F1 84 F1 | 	sub	objptr, ##12200
01ca8     D8 FF 9F 5D |  if_ne	jmp	#LR__0094
01cac                 | LR__0095
01cac                 | ' 
01cac                 | ' if (j<>0)
01cac     00 08 0D F2 | 	cmp	arg01, #0 wz
01cb0     5C 00 90 AD |  if_e	jmp	#LR__0098
01cb4                 | ' 
01cb4                 | '   repeat while (pos>-1)
01cb4                 | LR__0096
01cb4     FF FF 7F FF 
01cb8     FF FB 5C F2 | 	cmps	_var01, ##-1 wcz
01cbc     50 00 90 ED |  if_be	jmp	#LR__0097
01cc0                 | '     q:=j//16
01cc0     84 0A 51 F6 | 	abs	arg02, arg01 wc
01cc4     0F 0A 05 F5 | 	and	arg02, #15
01cc8     85 0A 61 C6 |  if_b	neg	arg02, arg02
01ccc     85 06 01 F6 | 	mov	_var07, arg02
01cd0                 | '     if (q>9)
01cd0     09 06 5D F2 | 	cmps	_var07, #9 wcz
01cd4                 | '       q:=q+7
01cd4     07 06 05 11 |  if_a	add	_var07, #7
01cd8                 | '     q:=48+q
01cd8     30 06 05 F1 | 	add	_var07, #48
01cdc                 | '     n_string[pos]:=q
01cdc     7D 0A 01 F6 | 	mov	arg02, _var01
01ce0     17 00 00 FF 
01ce4     A8 F1 04 F1 | 	add	objptr, ##12200
01ce8     78 0A 01 F1 | 	add	arg02, objptr
01cec     85 06 41 FC | 	wrbyte	_var07, arg02
01cf0                 | '     j:=j/16
01cf0     84 0A 51 F6 | 	abs	arg02, arg01 wc
01cf4     04 0A 45 F0 | 	shr	arg02, #4
01cf8     17 00 00 FF 
01cfc     A8 F1 84 F1 | 	sub	objptr, ##12200
01d00     85 0A 61 C6 |  if_b	neg	arg02, arg02
01d04     85 08 01 F6 | 	mov	arg01, arg02
01d08                 | '     pos-=1
01d08     01 FA 84 F1 | 	sub	_var01, #1
01d0c     A4 FF 9F FD | 	jmp	#LR__0096
01d10                 | LR__0097
01d10                 | LR__0098
01d10                 | ' 
01d10                 | ' q:=@n_string
01d10     17 00 00 FF 
01d14     A8 F1 04 F1 | 	add	objptr, ##12200
01d18     78 F8 00 F6 | 	mov	result1, objptr
01d1c     17 00 00 FF 
01d20     A8 F1 84 F1 | 	sub	objptr, ##12200
01d24                 | ' return q
01d24                 | _inttohex_ret
01d24     2D 00 64 FD | 	ret
01d28                 | 
01d28                 | ' 
01d28                 | ' 
01d28                 | ' pub start(mode):result | c1
01d28                 | _start
01d28     03 88 04 F6 | 	mov	COUNT_, #3
01d2c     4B 00 A0 FD | 	call	#pushregs_
01d30     84 12 09 F6 | 	mov	local01, arg01 wz
01d34                 | ' 
01d34                 | ' ' mode=0 - start at PAL timings, 624 lines
01d34                 | ' ' mode=256 - start at NTSC timings, 524 lines
01d34                 | ' 
01d34                 | ' '**********************************************************************************
01d34                 | ' '
01d34                 | ' '           Starts the driver
01d34                 | ' '
01d34                 | ' '**********************************************************************************
01d34                 | ' 
01d34                 | ' ' initialize pointers
01d34                 | ' 
01d34                 | ' border_ptr:=@bordercolor
01d34     28 F0 04 F1 | 	add	objptr, #40
01d38     78 14 01 F6 | 	mov	local02, objptr
01d3c     20 F0 84 F1 | 	sub	objptr, #32
01d40     78 14 61 FC | 	wrlong	local02, objptr
01d44                 | ' font_ptr:=@st_font
01d44     04 F0 84 F1 | 	sub	objptr, #4
01d48     78 F4 60 FC | 	wrlong	ptr__dat__, objptr
01d4c                 | ' buf_ptr:=@buf
01d4c     A4 F0 04 F1 | 	add	objptr, #164
01d50     78 14 01 F6 | 	mov	local02, objptr
01d54     A8 F0 84 F1 | 	sub	objptr, #168
01d58     78 14 61 FC | 	wrlong	local02, objptr
01d5c                 | ' vblank_ptr:=@vblank
01d5c     17 00 00 FF 
01d60     A4 F1 04 F1 | 	add	objptr, ##12196
01d64     78 14 01 F6 | 	mov	local02, objptr
01d68     17 00 00 FF 
01d6c     98 F1 84 F1 | 	sub	objptr, ##12184
01d70     78 14 61 FC | 	wrlong	local02, objptr
01d74                 | ' cursor_ptr:=@cursor_x
01d74     17 00 00 FF 
01d78     7C F1 04 F1 | 	add	objptr, ##12156
01d7c     78 14 01 F6 | 	mov	local02, objptr
01d80     17 00 00 FF 
01d84     78 F1 84 F1 | 	sub	objptr, ##12152
01d88     78 14 61 FC | 	wrlong	local02, objptr
01d8c                 | ' mode_ptr:=@timings
01d8c     17 00 00 FF 
01d90     A4 F1 04 F1 | 	add	objptr, ##12196
01d94     78 14 01 F6 | 	mov	local02, objptr
01d98     17 00 00 FF 
01d9c     A0 F1 84 F1 | 	sub	objptr, ##12192
01da0     78 14 61 FC | 	wrlong	local02, objptr
01da4                 | ' palette_ptr:=@ataripalette
01da4     0C 00 00 FF 
01da8     00 F4 04 F1 | 	add	ptr__dat__, ##6144
01dac     04 F0 04 F1 | 	add	objptr, #4
01db0     78 F4 60 FC | 	wrlong	ptr__dat__, objptr
01db4                 | ' command_ptr:=@cmd1
01db4     17 00 00 FF 
01db8     C4 F1 04 F1 | 	add	objptr, ##12228
01dbc     78 14 01 F6 | 	mov	local02, objptr
01dc0     17 00 00 FF 
01dc4     C0 F1 84 F1 | 	sub	objptr, ##12224
01dc8     78 14 61 FC | 	wrlong	local02, objptr
01dcc                 | ' fontnum_ptr:=@fontnum
01dcc     17 00 00 FF 
01dd0     C8 F1 04 F1 | 	add	objptr, ##12232
01dd4     78 14 01 F6 | 	mov	local02, objptr
01dd8     17 00 00 FF 
01ddc     C4 F1 84 F1 | 	sub	objptr, ##12228
01de0     78 14 61 FC | 	wrlong	local02, objptr
01de4                 | ' 
01de4                 | ' fontnum:=2048  ' ST type font
01de4     17 00 00 FF 
01de8     C4 F1 04 F1 | 	add	objptr, ##12228
01dec     04 00 80 FF 
01df0     78 00 68 FC | 	wrlong	##2048, objptr
01df4                 | ' 
01df4                 | ' ' initialize a cursor
01df4                 | ' 
01df4                 | ' cursor_x:=0
01df4     5C F0 84 F1 | 	sub	objptr, #92
01df8     78 00 48 FC | 	wrbyte	#0, objptr
01dfc                 | ' cursor_y:=0
01dfc     01 F0 04 F1 | 	add	objptr, #1
01e00     78 00 48 FC | 	wrbyte	#0, objptr
01e04                 | ' cursor_sh:=14
01e04     01 F0 04 F1 | 	add	objptr, #1
01e08     78 1C 48 FC | 	wrbyte	#14, objptr
01e0c                 | ' 
01e0c                 | ' ' set 16 VGA DOS like colors
01e0c                 | ' 
01e0c                 | ' colors[0] := c_black
01e0c     0A F0 04 F1 | 	add	objptr, #10
01e10     78 00 48 FC | 	wrbyte	#0, objptr
01e14                 | ' colors[1] := c_blue
01e14     01 F0 04 F1 | 	add	objptr, #1
01e18     78 EA 48 FC | 	wrbyte	#117, objptr
01e1c                 | ' colors[2] := c_green
01e1c     01 F0 04 F1 | 	add	objptr, #1
01e20     78 8E 49 FC | 	wrbyte	#199, objptr
01e24                 | ' colors[3] := c_cyan
01e24     01 F0 04 F1 | 	add	objptr, #1
01e28     78 2E 49 FC | 	wrbyte	#151, objptr
01e2c                 | ' colors[4] := c_red
01e2c     01 F0 04 F1 | 	add	objptr, #1
01e30     78 4E 48 FC | 	wrbyte	#39, objptr
01e34                 | ' colors[5] := c_magenta
01e34     01 F0 04 F1 | 	add	objptr, #1
01e38     78 8E 48 FC | 	wrbyte	#71, objptr
01e3c                 | ' colors[6] := c_brown
01e3c     01 F0 04 F1 | 	add	objptr, #1
01e40     78 EC 49 FC | 	wrbyte	#246, objptr
01e44                 | ' colors[7] := c_lightgray
01e44     01 F0 04 F1 | 	add	objptr, #1
01e48     78 14 48 FC | 	wrbyte	#10, objptr
01e4c                 | ' colors[8] := c_darkgray
01e4c     01 F0 04 F1 | 	add	objptr, #1
01e50     78 0A 48 FC | 	wrbyte	#5, objptr
01e54                 | ' colors[9] := c_lightblue
01e54     01 F0 04 F1 | 	add	objptr, #1
01e58     78 F6 48 FC | 	wrbyte	#123, objptr
01e5c                 | ' colors[$A]:= c_lightgreen
01e5c     01 F0 04 F1 | 	add	objptr, #1
01e60     78 96 49 FC | 	wrbyte	#203, objptr
01e64                 | ' colors[$B]:= c_lightcyan
01e64     01 F0 04 F1 | 	add	objptr, #1
01e68     78 36 49 FC | 	wrbyte	#155, objptr
01e6c                 | ' colors[$C]:= c_lightred
01e6c     01 F0 04 F1 | 	add	objptr, #1
01e70     78 56 48 FC | 	wrbyte	#43, objptr
01e74                 | ' colors[$D]:= c_lightmagenta
01e74     01 F0 04 F1 | 	add	objptr, #1
01e78     78 96 48 FC | 	wrbyte	#75, objptr
01e7c                 | ' colors[$E]:= c_yellow
01e7c     01 F0 04 F1 | 	add	objptr, #1
01e80     78 D4 49 FC | 	wrbyte	#234, objptr
01e84                 | ' colors[$F]:= c_white
01e84     01 F0 04 F1 | 	add	objptr, #1
01e88     78 1E 48 FC | 	wrbyte	#15, objptr
01e8c     17 00 00 FF 
01e90     A3 F1 84 F1 | 	sub	objptr, ##12195
01e94                 | ' 
01e94                 | ' ' set timings
01e94                 | ' ' We can have 1140,1026 or 912 pixes per line
01e94                 | ' 
01e94                 | ' if (mode==0)
01e94     0C 00 00 FF 
01e98     00 F4 84 F1 | 	sub	ptr__dat__, ##6144
01e9c     8C 00 90 5D |  if_ne	jmp	#LR__0101
01ea0                 | ' 
01ea0                 | '   timings[0]:= $70810000 + hdmi_base<<17 + 16          'before sync
01ea0     17 00 00 FF 
01ea4     B4 F1 04 F1 | 	add	objptr, ##12212
01ea8     80 70 B8 FF 
01eac     78 20 68 FC | 	wrlong	##1893793808, objptr
01eb0                 | '   timings[1]:= $70810000 + hdmi_base<<17 + 80          'sync
01eb0     04 F0 04 F1 | 	add	objptr, #4
01eb4     80 70 B8 FF 
01eb8     78 A0 68 FC | 	wrlong	##1893793872, objptr
01ebc                 | '   timings[2]:= $70810000 + hdmi_base<<17 + 20          'before visible
01ebc     04 F0 04 F1 | 	add	objptr, #4
01ec0     80 70 B8 FF 
01ec4     78 28 68 FC | 	wrlong	##1893793812, objptr
01ec8                 | '   timings[3]:= $70810000 + hdmi_base<<17 + 1024        'visible 1024
01ec8     04 F0 04 F1 | 	add	objptr, #4
01ecc     82 70 B8 FF 
01ed0     78 00 68 FC | 	wrlong	##1893794816, objptr
01ed4                 | '   timings[4]:= $70810000 + hdmi_base<<17 + 112         'immediate 112
01ed4     04 F0 04 F1 | 	add	objptr, #4
01ed8     80 70 B8 FF 
01edc     78 E0 68 FC | 	wrlong	##1893793904, objptr
01ee0                 | '   timings[5]:= $00880000 + hdmi_base<<17 + 8           'imm+lut, 1 char
01ee0     04 F0 04 F1 | 	add	objptr, #4
01ee4     00 74 80 FF 
01ee8     78 10 68 FC | 	wrlong	##15204360, objptr
01eec                 | '   timings[6]:= 48
01eec     04 F0 04 F1 | 	add	objptr, #4
01ef0     78 60 68 FC | 	wrlong	#48, objptr
01ef4                 | '   timings[7]:= 16
01ef4     04 F0 04 F1 | 	add	objptr, #4
01ef8     78 20 68 FC | 	wrlong	#16, objptr
01efc                 | '   timings[8]:= 16
01efc     04 F0 04 F1 | 	add	objptr, #4
01f00     78 20 68 FC | 	wrlong	#16, objptr
01f04                 | '   timings[9]:= 16
01f04     04 F0 04 F1 | 	add	objptr, #4
01f08     78 20 68 FC | 	wrlong	#16, objptr
01f0c     17 00 00 FF 
01f10     D8 F1 84 F1 | 	sub	objptr, ##12248
01f14                 | ' 
01f14                 | '   clkfreq:=354693878
01f14     19 92 8A FF 
01f18     14 EC 6D FC | 	wrlong	##354693878, #20
01f1c                 | '   org
01f1c     E8 E0 9F FE | 	loc	pa,	#(@LR__0100-@LR__0099)
01f20     35 00 A0 FD | 	call	#FCACHE_LOAD_
01f24                 | LR__0099
01f24     B6 E1 80 FF 
01f28     00 F6 65 FD | 	hubset	##29584635
01f2c                 | LR__0100
01f2c                 | LR__0101
01f2c                 | ' 
01f2c                 | ' 
01f2c                 | ' if (mode==1)   ' 1026 px per line
01f2c     01 12 0D F2 | 	cmp	local01, #1 wz
01f30     8C 00 90 5D |  if_ne	jmp	#LR__0104
01f34                 | ' 
01f34                 | '   timings[0]:= $70810000 + hdmi_base<<17 + 30          'before sync
01f34     17 00 00 FF 
01f38     B4 F1 04 F1 | 	add	objptr, ##12212
01f3c     80 70 B8 FF 
01f40     78 3C 68 FC | 	wrlong	##1893793822, objptr
01f44                 | '   timings[1]:= $70810000 + hdmi_base<<17 + 80          'sync
01f44     04 F0 04 F1 | 	add	objptr, #4
01f48     80 70 B8 FF 
01f4c     78 A0 68 FC | 	wrlong	##1893793872, objptr
01f50                 | '   timings[2]:= $70810000 + hdmi_base<<17 + 20          'before visible
01f50     04 F0 04 F1 | 	add	objptr, #4
01f54     80 70 B8 FF 
01f58     78 28 68 FC | 	wrlong	##1893793812, objptr
01f5c                 | '   timings[3]:= $70810000 + hdmi_base<<17 + 896         'visible 896
01f5c     04 F0 04 F1 | 	add	objptr, #4
01f60     81 70 B8 FF 
01f64     78 00 6B FC | 	wrlong	##1893794688, objptr
01f68                 | '   timings[4]:= $70810000 + hdmi_base<<17 + 48          'immediate 48
01f68     04 F0 04 F1 | 	add	objptr, #4
01f6c     80 70 B8 FF 
01f70     78 60 68 FC | 	wrlong	##1893793840, objptr
01f74                 | '   timings[5]:= $00880000 + hdmi_base<<17 + 8           'imm+lut, 1 char
01f74     04 F0 04 F1 | 	add	objptr, #4
01f78     00 74 80 FF 
01f7c     78 10 68 FC | 	wrlong	##15204360, objptr
01f80                 | '   timings[6]:= 24
01f80     04 F0 04 F1 | 	add	objptr, #4
01f84     78 30 68 FC | 	wrlong	#24, objptr
01f88                 | '   timings[7]:= 32
01f88     04 F0 04 F1 | 	add	objptr, #4
01f8c     78 40 68 FC | 	wrlong	#32, objptr
01f90                 | '   timings[8]:= 32
01f90     04 F0 04 F1 | 	add	objptr, #4
01f94     78 40 68 FC | 	wrlong	#32, objptr
01f98                 | '   timings[9]:= 32
01f98     04 F0 04 F1 | 	add	objptr, #4
01f9c     78 40 68 FC | 	wrlong	#32, objptr
01fa0     17 00 00 FF 
01fa4     D8 F1 84 F1 | 	sub	objptr, ##12248
01fa8                 | ' 
01fa8                 | '   clkfreq:=319215686
01fa8     6C 83 89 FF 
01fac     14 8C 6C FC | 	wrlong	##319215686, #20
01fb0                 | '   org
01fb0     54 E0 9F FE | 	loc	pa,	#(@LR__0103-@LR__0102)
01fb4     35 00 A0 FD | 	call	#FCACHE_LOAD_
01fb8                 | LR__0102
01fb8     96 E5 80 FF 
01fbc     00 F6 67 FD | 	hubset	##30092795
01fc0                 | LR__0103
01fc0                 | LR__0104
01fc0                 | ' 
01fc0                 | ' 
01fc0                 | ' if (mode==2) ' 912 pixes per line     ' 283_751_600 80x PAL  - real settings: 64 908 283750000 - 0.9999944
01fc0     02 12 0D F2 | 	cmp	local01, #2 wz
01fc4     8C 00 90 5D |  if_ne	jmp	#LR__0107
01fc8                 | ' 
01fc8                 | '   timings[0]:= $70810000 + hdmi_base<<17 + 16           'before sync
01fc8     17 00 00 FF 
01fcc     B4 F1 04 F1 | 	add	objptr, ##12212
01fd0     80 70 B8 FF 
01fd4     78 20 68 FC | 	wrlong	##1893793808, objptr
01fd8                 | '   timings[1]:= $70810000 + hdmi_base<<17 + 64           'sync
01fd8     04 F0 04 F1 | 	add	objptr, #4
01fdc     80 70 B8 FF 
01fe0     78 80 68 FC | 	wrlong	##1893793856, objptr
01fe4                 | '   timings[2]:= $70810000 + hdmi_base<<17 + 16           'before visible
01fe4     04 F0 04 F1 | 	add	objptr, #4
01fe8     80 70 B8 FF 
01fec     78 20 68 FC | 	wrlong	##1893793808, objptr
01ff0                 | '   timings[3]:= $70810000 + hdmi_base<<17 + 816          'visible 1024
01ff0     04 F0 04 F1 | 	add	objptr, #4
01ff4     81 70 B8 FF 
01ff8     78 60 6A FC | 	wrlong	##1893794608, objptr
01ffc                 | '   timings[4]:= $70810000 + hdmi_base<<17 + 8            'immediate 112
01ffc     04 F0 04 F1 | 	add	objptr, #4
02000     80 70 B8 FF 
02004     78 10 68 FC | 	wrlong	##1893793800, objptr
02008                 | '   timings[5]:= $00880000 + hdmi_base<<17 + 8            'imm+lut, 1 char
02008     04 F0 04 F1 | 	add	objptr, #4
0200c     00 74 80 FF 
02010     78 10 68 FC | 	wrlong	##15204360, objptr
02014                 | '   timings[6]:= 8
02014     04 F0 04 F1 | 	add	objptr, #4
02018     78 10 68 FC | 	wrlong	#8, objptr
0201c                 | '   timings[7]:= 32
0201c     04 F0 04 F1 | 	add	objptr, #4
02020     78 40 68 FC | 	wrlong	#32, objptr
02024                 | '   timings[8]:= 64
02024     04 F0 04 F1 | 	add	objptr, #4
02028     78 80 68 FC | 	wrlong	#64, objptr
0202c                 | ' 
0202c                 | '   timings[9]:= 32
0202c     04 F0 04 F1 | 	add	objptr, #4
02030     78 40 68 FC | 	wrlong	#32, objptr
02034     17 00 00 FF 
02038     D8 F1 84 F1 | 	sub	objptr, ##12248
0203c                 | ' 
0203c                 | '   clkfreq:=283750000
0203c     D7 74 88 FF 
02040     14 E0 6C FC | 	wrlong	##283750000, #20
02044                 | '   org
02044     C0 DF 9F FE | 	loc	pa,	#(@LR__0106-@LR__0105)
02048     35 00 A0 FD | 	call	#FCACHE_LOAD_
0204c                 | LR__0105
0204c     C5 FF 80 FF 
02050     00 F6 67 FD | 	hubset	##33524731
02054                 | LR__0106
02054                 | LR__0107
02054                 | ' 
02054                 | ' if (mode==256)
02054     00 13 0D F2 | 	cmp	local01, #256 wz
02058     8C 00 90 5D |  if_ne	jmp	#LR__0110
0205c                 | ' 
0205c                 | '   timings[0]:= $70810000 + hdmi_base<<17 + 80          'before sync
0205c     17 00 00 FF 
02060     B4 F1 04 F1 | 	add	objptr, ##12212
02064     80 70 B8 FF 
02068     78 A0 68 FC | 	wrlong	##1893793872, objptr
0206c                 | '   timings[1]:= $70810000 + hdmi_base<<17 + 160         'sync
0206c     04 F0 04 F1 | 	add	objptr, #4
02070     80 70 B8 FF 
02074     78 40 69 FC | 	wrlong	##1893793952, objptr
02078                 | '   timings[2]:= $70810000 + hdmi_base<<17 + 84          'before visible
02078     04 F0 04 F1 | 	add	objptr, #4
0207c     80 70 B8 FF 
02080     78 A8 68 FC | 	wrlong	##1893793876, objptr
02084                 | '   timings[3]:= $70810000 + hdmi_base<<17 + 816         'visible 816
02084     04 F0 04 F1 | 	add	objptr, #4
02088     81 70 B8 FF 
0208c     78 60 6A FC | 	wrlong	##1893794608, objptr
02090                 | '   timings[4]:= $70810000 + hdmi_base<<17 + 8           'immediate 8
02090     04 F0 04 F1 | 	add	objptr, #4
02094     80 70 B8 FF 
02098     78 10 68 FC | 	wrlong	##1893793800, objptr
0209c                 | '   timings[5]:= $00880000 + hdmi_base<<17 + 8           'imm+lut, 1 char
0209c     04 F0 04 F1 | 	add	objptr, #4
020a0     00 74 80 FF 
020a4     78 10 68 FC | 	wrlong	##15204360, objptr
020a8                 | '   timings[6]:= 8
020a8     04 F0 04 F1 | 	add	objptr, #4
020ac     78 10 68 FC | 	wrlong	#8, objptr
020b0                 | '   timings[7]:= 8
020b0     04 F0 04 F1 | 	add	objptr, #4
020b4     78 10 68 FC | 	wrlong	#8, objptr
020b8                 | '   timings[8]:= 12
020b8     04 F0 04 F1 | 	add	objptr, #4
020bc     78 18 68 FC | 	wrlong	#12, objptr
020c0                 | '   timings[9]:= 8
020c0     04 F0 04 F1 | 	add	objptr, #4
020c4     78 10 68 FC | 	wrlong	#8, objptr
020c8     17 00 00 FF 
020cc     D8 F1 84 F1 | 	sub	objptr, ##12248
020d0                 | ' 
020d0                 | '   clkfreq:=357959184
020d0     03 AB 8A FF 
020d4     14 20 6C FC | 	wrlong	##357959184, #20
020d8                 | '   org
020d8     2C DF 9F FE | 	loc	pa,	#(@LR__0109-@LR__0108)
020dc     35 00 A0 FD | 	call	#FCACHE_LOAD_
020e0                 | LR__0108
020e0     B2 E1 80 FF 
020e4     00 F6 65 FD | 	hubset	##29582587
020e8                 | LR__0109
020e8                 | LR__0110
020e8                 | ' 
020e8                 | ' if (mode==257)  '1026 px
020e8     01 13 0D F2 | 	cmp	local01, #257 wz
020ec     8C 00 90 5D |  if_ne	jmp	#LR__0113
020f0                 | ' 
020f0                 | '   timings[0]:= $70810000 + hdmi_base<<17 + 80          'before sync
020f0     17 00 00 FF 
020f4     B4 F1 04 F1 | 	add	objptr, ##12212
020f8     80 70 B8 FF 
020fc     78 A0 68 FC | 	wrlong	##1893793872, objptr
02100                 | '   timings[1]:= $70810000 + hdmi_base<<17 + 50          'sync
02100     04 F0 04 F1 | 	add	objptr, #4
02104     80 70 B8 FF 
02108     78 64 68 FC | 	wrlong	##1893793842, objptr
0210c                 | '   timings[2]:= $70810000 + hdmi_base<<17 + 80          'before visible
0210c     04 F0 04 F1 | 	add	objptr, #4
02110     80 70 B8 FF 
02114     78 A0 68 FC | 	wrlong	##1893793872, objptr
02118                 | '   timings[3]:= $70810000 + hdmi_base<<17 + 816         'visible 816
02118     04 F0 04 F1 | 	add	objptr, #4
0211c     81 70 B8 FF 
02120     78 60 6A FC | 	wrlong	##1893794608, objptr
02124                 | '   timings[4]:= $70810000 + hdmi_base<<17 + 8           'immediate 8
02124     04 F0 04 F1 | 	add	objptr, #4
02128     80 70 B8 FF 
0212c     78 10 68 FC | 	wrlong	##1893793800, objptr
02130                 | '   timings[5]:= $00880000 + hdmi_base<<17 + 8           'imm+lut, 1 char
02130     04 F0 04 F1 | 	add	objptr, #4
02134     00 74 80 FF 
02138     78 10 68 FC | 	wrlong	##15204360, objptr
0213c                 | '   timings[6]:= 8
0213c     04 F0 04 F1 | 	add	objptr, #4
02140     78 10 68 FC | 	wrlong	#8, objptr
02144                 | '   timings[7]:= 8
02144     04 F0 04 F1 | 	add	objptr, #4
02148     78 10 68 FC | 	wrlong	#8, objptr
0214c                 | '   timings[8]:= 12
0214c     04 F0 04 F1 | 	add	objptr, #4
02150     78 18 68 FC | 	wrlong	#12, objptr
02154                 | '   timings[9]:= 8
02154     04 F0 04 F1 | 	add	objptr, #4
02158     78 10 68 FC | 	wrlong	#8, objptr
0215c     17 00 00 FF 
02160     D8 F1 84 F1 | 	sub	objptr, ##12248
02164                 | ' 
02164                 | '   clkfreq:=322162162
02164     E6 99 89 FF 
02168     14 E4 6F FC | 	wrlong	##322162162, #20
0216c                 | '   org
0216c     98 DE 9F FE | 	loc	pa,	#(@LR__0112-@LR__0111)
02170     35 00 A0 FD | 	call	#FCACHE_LOAD_
02174                 | LR__0111
02174     29 C9 80 FF 
02178     00 F6 67 FD | 	hubset	##26366971
0217c                 | LR__0112
0217c                 | LR__0113
0217c                 | ' 
0217c                 | ' if (mode==258)  '912 px
0217c     02 13 0D F2 | 	cmp	local01, #258 wz
02180     8C 00 90 5D |  if_ne	jmp	#LR__0116
02184                 | ' 
02184                 | '   timings[0]:= $70810000 + hdmi_base<<17 + 24          'before sync
02184     17 00 00 FF 
02188     B4 F1 04 F1 | 	add	objptr, ##12212
0218c     80 70 B8 FF 
02190     78 30 68 FC | 	wrlong	##1893793816, objptr
02194                 | '   timings[1]:= $70810000 + hdmi_base<<17 + 48         'sync
02194     04 F0 04 F1 | 	add	objptr, #4
02198     80 70 B8 FF 
0219c     78 60 68 FC | 	wrlong	##1893793840, objptr
021a0                 | '   timings[2]:= $70810000 + hdmi_base<<17 + 24          'before visible
021a0     04 F0 04 F1 | 	add	objptr, #4
021a4     80 70 B8 FF 
021a8     78 30 68 FC | 	wrlong	##1893793816, objptr
021ac                 | '   timings[3]:= $70810000 + hdmi_base<<17 + 816         'visible 816
021ac     04 F0 04 F1 | 	add	objptr, #4
021b0     81 70 B8 FF 
021b4     78 60 6A FC | 	wrlong	##1893794608, objptr
021b8                 | '   timings[4]:= $70810000 + hdmi_base<<17 + 8           'immediate 8
021b8     04 F0 04 F1 | 	add	objptr, #4
021bc     80 70 B8 FF 
021c0     78 10 68 FC | 	wrlong	##1893793800, objptr
021c4                 | '   timings[5]:= $00880000 + hdmi_base<<17 + 8           'imm+lut, 1 char
021c4     04 F0 04 F1 | 	add	objptr, #4
021c8     00 74 80 FF 
021cc     78 10 68 FC | 	wrlong	##15204360, objptr
021d0                 | '   timings[6]:= 8
021d0     04 F0 04 F1 | 	add	objptr, #4
021d4     78 10 68 FC | 	wrlong	#8, objptr
021d8                 | '   timings[7]:= 8
021d8     04 F0 04 F1 | 	add	objptr, #4
021dc     78 10 68 FC | 	wrlong	#8, objptr
021e0                 | '   timings[8]:= 12
021e0     04 F0 04 F1 | 	add	objptr, #4
021e4     78 18 68 FC | 	wrlong	#12, objptr
021e8                 | '   timings[9]:= 8
021e8     04 F0 04 F1 | 	add	objptr, #4
021ec     78 10 68 FC | 	wrlong	#8, objptr
021f0     17 00 00 FF 
021f4     D8 F1 84 F1 | 	sub	objptr, ##12248
021f8                 | ' 
021f8                 | '   clkfreq:=286363636
021f8     C7 88 88 FF 
021fc     14 E8 6F FC | 	wrlong	##286363636, #20
02200                 | '   org
02200     04 DE 9F FE | 	loc	pa,	#(@LR__0115-@LR__0114)
02204     35 00 A0 FD | 	call	#FCACHE_LOAD_
02208                 | LR__0114
02208     9D AA 80 FF 
0220c     00 F6 65 FD | 	hubset	##22362875
02210                 | LR__0115
02210                 | LR__0116
02210                 | ' 
02210                 | ' 
02210                 | '   {{
02210                 | '     }}
02210                 | ' 
02210                 | ' cmd1:=257 ' set idle
02210     17 00 00 FF 
02214     DC F1 04 F1 | 	add	objptr, ##12252
02218     78 02 6A FC | 	wrlong	#257, objptr
0221c     17 00 00 FF 
02220     DC F1 84 F1 | 	sub	objptr, ##12252
02224                 | ' cog:=coginit(16,@hdmi, @buf_ptr)
02224     0E 00 00 FF 
02228     00 F4 04 F1 | 	add	ptr__dat__, ##7168
0222c     7A 0A 01 F6 | 	mov	arg02, ptr__dat__
02230     0E 00 00 FF 
02234     00 F4 84 F1 | 	sub	ptr__dat__, ##7168
02238     78 0C 01 F6 | 	mov	arg03, objptr
0223c     10 08 05 F6 | 	mov	arg01, #16
02240     28 0C 61 FD | 	setq	arg03
02244     85 08 F1 FC | 	coginit	arg01, arg02 wc
02248     01 08 65 C6 |  if_b	neg	arg01, #1
0224c     84 F8 00 F6 | 	mov	result1, arg01
02250     7C 16 01 F6 | 	mov	local03, result1
02254     24 F0 04 F1 | 	add	objptr, #36
02258     78 16 61 FC | 	wrlong	local03, objptr
0225c     24 F0 84 F1 | 	sub	objptr, #36
02260                 | ' waitms(20)
02260     14 08 05 F6 | 	mov	arg01, #20
02264     48 01 B0 FD | 	call	#__system___waitms
02268                 | ' cls(c_green,c_black)
02268     C7 08 05 F6 | 	mov	arg01, #199
0226c     00 0A 05 F6 | 	mov	arg02, #0
02270     F8 F6 BF FD | 	call	#_cls
02274                 | ' setwritecolors(c_green,c_black)
02274                 | ' 
02274                 | ' ''---------- Set colors for write and writeln
02274                 | ' 
02274                 | ' write_color:=ff
02274     17 00 00 FF 
02278     8C F1 04 F1 | 	add	objptr, ##12172
0227c     78 8E 69 FC | 	wrlong	#199, objptr
02280                 | ' write_background:=bb
02280     04 F0 04 F1 | 	add	objptr, #4
02284     78 00 68 FC | 	wrlong	#0, objptr
02288                 | ' 
02288                 | ' return cog
02288     17 00 00 FF 
0228c     6C F1 84 F1 | 	sub	objptr, ##12140
02290     78 F8 00 FB | 	rdlong	result1, objptr
02294     24 F0 84 F1 | 	sub	objptr, #36
02298     46 F0 03 F6 | 	mov	ptra, fp
0229c     5A 00 A0 FD | 	call	#popregs_
022a0                 | _start_ret
022a0     2D 00 64 FD | 	ret
022a4                 | hubexit
022a4     23 00 80 FD | 	jmp	#cogexit
022a8                 | 
022a8                 | __system__bytemove
022a8     84 FA 00 F6 | 	mov	_var01, arg01
022ac     85 08 59 F2 | 	cmps	arg01, arg02 wcz
022b0     50 00 90 3D |  if_ae	jmp	#LR__0124
022b4     68 DD 9F FE | 	loc	pa,	#(@LR__0118-@LR__0117)
022b8     35 00 A0 FD | 	call	#FCACHE_LOAD_
022bc                 | LR__0117
022bc     03 0C 5D F2 | 	cmps	arg03, #3 wcz
022c0     18 00 90 ED |  if_be	jmp	#LR__0119
022c4     85 FC 00 FB | 	rdlong	_var02, arg02
022c8     84 FC 60 FC | 	wrlong	_var02, arg01
022cc     04 08 05 F1 | 	add	arg01, #4
022d0     04 0A 05 F1 | 	add	arg02, #4
022d4     04 0C 85 F1 | 	sub	arg03, #4
022d8     E0 FF 9F FD | 	jmp	#LR__0117
022dc                 | LR__0118
022dc                 | LR__0119
022dc     86 FE 08 F6 | 	mov	_var03, arg03 wz
022e0     4C 00 90 AD |  if_e	jmp	#LR__0130
022e4     2C DD 9F FE | 	loc	pa,	#(@LR__0122-@LR__0120)
022e8     35 00 A0 FD | 	call	#FCACHE_LOAD_
022ec                 | LR__0120
022ec     7F 08 D8 FC | 	rep	@LR__0123, _var03
022f0                 | LR__0121
022f0     85 FC C0 FA | 	rdbyte	_var02, arg02
022f4     84 FC 40 FC | 	wrbyte	_var02, arg01
022f8     01 08 05 F1 | 	add	arg01, #1
022fc     01 0A 05 F1 | 	add	arg02, #1
02300                 | LR__0122
02300                 | LR__0123
02300     2C 00 90 FD | 	jmp	#LR__0130
02304                 | LR__0124
02304     86 08 01 F1 | 	add	arg01, arg03
02308     86 0A 01 F1 | 	add	arg02, arg03
0230c     86 00 09 F6 | 	mov	_var04, arg03 wz
02310     1C 00 90 AD |  if_e	jmp	#LR__0129
02314     FC DC 9F FE | 	loc	pa,	#(@LR__0127-@LR__0125)
02318     35 00 A0 FD | 	call	#FCACHE_LOAD_
0231c                 | LR__0125
0231c     80 08 D8 FC | 	rep	@LR__0128, _var04
02320                 | LR__0126
02320     01 08 85 F1 | 	sub	arg01, #1
02324     01 0A 85 F1 | 	sub	arg02, #1
02328     85 FC C0 FA | 	rdbyte	_var02, arg02
0232c     84 FC 40 FC | 	wrbyte	_var02, arg01
02330                 | LR__0127
02330                 | LR__0128
02330                 | LR__0129
02330                 | LR__0130
02330     7D F8 00 F6 | 	mov	result1, _var01
02334                 | __system__bytemove_ret
02334     2D 00 64 FD | 	ret
02338                 | 
02338                 | __system__longmove
02338     84 FA 00 F6 | 	mov	_var01, arg01
0233c     85 08 59 F2 | 	cmps	arg01, arg02 wcz
02340     28 00 90 3D |  if_ae	jmp	#LR__0135
02344     86 FC 08 F6 | 	mov	_var02, arg03 wz
02348     5C 00 90 AD |  if_e	jmp	#LR__0141
0234c     C4 DC 9F FE | 	loc	pa,	#(@LR__0133-@LR__0131)
02350     35 00 A0 FD | 	call	#FCACHE_LOAD_
02354                 | LR__0131
02354     7E 08 D8 FC | 	rep	@LR__0134, _var02
02358                 | LR__0132
02358     85 FE 00 FB | 	rdlong	_var03, arg02
0235c     84 FE 60 FC | 	wrlong	_var03, arg01
02360     04 08 05 F1 | 	add	arg01, #4
02364     04 0A 05 F1 | 	add	arg02, #4
02368                 | LR__0133
02368                 | LR__0134
02368     3C 00 90 FD | 	jmp	#LR__0141
0236c                 | LR__0135
0236c     86 00 01 F6 | 	mov	_var04, arg03
02370     02 00 65 F0 | 	shl	_var04, #2
02374     80 08 01 F1 | 	add	arg01, _var04
02378     86 00 01 F6 | 	mov	_var04, arg03
0237c     02 00 65 F0 | 	shl	_var04, #2
02380     80 0A 01 F1 | 	add	arg02, _var04
02384     86 02 09 F6 | 	mov	_var05, arg03 wz
02388     1C 00 90 AD |  if_e	jmp	#LR__0140
0238c     84 DC 9F FE | 	loc	pa,	#(@LR__0138-@LR__0136)
02390     35 00 A0 FD | 	call	#FCACHE_LOAD_
02394                 | LR__0136
02394     81 08 D8 FC | 	rep	@LR__0139, _var05
02398                 | LR__0137
02398     04 08 85 F1 | 	sub	arg01, #4
0239c     04 0A 85 F1 | 	sub	arg02, #4
023a0     85 FE 00 FB | 	rdlong	_var03, arg02
023a4     84 FE 60 FC | 	wrlong	_var03, arg01
023a8                 | LR__0138
023a8                 | LR__0139
023a8                 | LR__0140
023a8                 | LR__0141
023a8     7D F8 00 F6 | 	mov	result1, _var01
023ac                 | __system__longmove_ret
023ac     2D 00 64 FD | 	ret
023b0                 | 
023b0                 | __system___waitms
023b0     02 88 04 F6 | 	mov	COUNT_, #2
023b4     4B 00 A0 FD | 	call	#pushregs_
023b8     84 12 01 F6 | 	mov	local01, arg01
023bc     14 14 05 FB | 	rdlong	local02, #20
023c0     54 DC 9F FE | 	loc	pa,	#(@LR__0143-@LR__0142)
023c4     35 00 A0 FD | 	call	#FCACHE_LOAD_
023c8                 | LR__0142
023c8     01 00 00 FF 
023cc     E8 13 5D F2 | 	cmps	local01, ##1000 wcz
023d0     1F 14 61 1D |  if_a	waitx	local02
023d4     01 00 00 1F 
023d8     E8 13 85 11 |  if_a	sub	local01, ##1000
023dc     E8 FF 9F 1D |  if_a	jmp	#LR__0142
023e0                 | LR__0143
023e0     00 12 5D F2 | 	cmps	local01, #0 wcz
023e4     1C 00 90 ED |  if_be	jmp	#LR__0144
023e8     8A 36 01 F6 | 	mov	muldiva_, local02
023ec     01 00 00 FF 
023f0     E8 39 05 F6 | 	mov	muldivb_, ##1000
023f4     6B 00 A0 FD | 	call	#divide_
023f8     9C 12 01 FD | 	qmul	local01, muldivb_
023fc     18 08 61 FD | 	getqx	arg01
02400     1F 08 61 FD | 	waitx	arg01
02404                 | LR__0144
02404     46 F0 03 F6 | 	mov	ptra, fp
02408     5A 00 A0 FD | 	call	#popregs_
0240c                 | __system___waitms_ret
0240c     2D 00 64 FD | 	ret
02410                 | 
02410                 | __system___waitus
02410     02 88 04 F6 | 	mov	COUNT_, #2
02414     4B 00 A0 FD | 	call	#pushregs_
02418     84 12 01 F6 | 	mov	local01, arg01
0241c     14 14 05 FB | 	rdlong	local02, #20
02420     F4 DB 9F FE | 	loc	pa,	#(@LR__0146-@LR__0145)
02424     35 00 A0 FD | 	call	#FCACHE_LOAD_
02428                 | LR__0145
02428     A1 07 00 FF 
0242c     40 12 5D F2 | 	cmps	local01, ##1000000 wcz
02430     1F 14 61 1D |  if_a	waitx	local02
02434     A1 07 00 1F 
02438     40 12 85 11 |  if_a	sub	local01, ##1000000
0243c     E8 FF 9F 1D |  if_a	jmp	#LR__0145
02440                 | LR__0146
02440     00 12 5D F2 | 	cmps	local01, #0 wcz
02444     1C 00 90 ED |  if_be	jmp	#LR__0147
02448     8A 36 01 F6 | 	mov	muldiva_, local02
0244c     A1 07 00 FF 
02450     40 38 05 F6 | 	mov	muldivb_, ##1000000
02454     6B 00 A0 FD | 	call	#divide_
02458     9C 12 01 FD | 	qmul	local01, muldivb_
0245c     18 08 61 FD | 	getqx	arg01
02460     1F 08 61 FD | 	waitx	arg01
02464                 | LR__0147
02464     46 F0 03 F6 | 	mov	ptra, fp
02468     5A 00 A0 FD | 	call	#popregs_
0246c                 | __system___waitus_ret
0246c     2D 00 64 FD | 	ret
02470                 | 
02470                 | LR__0148
02470     48 44 4D 49 
02474     20 4E 6F 73 
02478     74 61 6C 67 
0247c     69 63 20 31 
02480     30 30 78 33 
02484     30 20 74 65 
02488     78 74 20 77 
0248c     69 74 68 20 
02490     62 6F 72 64 
02494     65 72 20 64 
02498     72 69 76 65 
0249c     72 20 64 65 
024a0     6D 6F       | 	byte	"HDMI Nostalgic 100x30 text with border driver demo"
024a2     00          | 	byte	0
024a3                 | LR__0149
024a3     49 74 20 75 
024a7     73 65 73 20 
024ab     38 78 31 36 
024af     20 66 6F 6E 
024b3     74          | 	byte	"It uses 8x16 font"
024b4     00          | 	byte	0
024b5                 | LR__0150
024b5     54 68 69 73 
024b9     20 69 73 20 
024bd     61 20 50 32 
024c1     20 73 6F 20 
024c5     65 76 65 72 
024c9     79 20 6C 65 
024cd     74 74 65 72 
024d1     20 63 61 6E 
024d5     20 68 61 76 
024d9     65 20 69 74 
024dd     73 20 6F 77 
024e1     6E 20 66 6F 
024e5     72 65 67 72 
024e9     6F 75 6E 64 
024ed     20 61 6E 64 
024f1     20 62 61 63 
024f5     6B 67 72 6F 
024f9     75 6E 64 20 
024fd     63 6F 6C 6F 
02501     72          | 	byte	"This is a P2 so every letter can have its own foreground and background color"
02502     00          | 	byte	0
02503                 | LR__0151
02503     45 76 65 72 
02507     79 20 6C 69 
0250b     6E 65 20 63 
0250f     61 6E 20 68 
02513     61 76 65 20 
02517     69 74 73 20 
0251b     6F 77 6E 20 
0251f     62 6F 72 64 
02523     65 72 20 63 
02527     6F 6C 6F 72 | 	byte	"Every line can have its own border color"
0252b     00          | 	byte	0
0252c                 | LR__0152
0252c     54 68 69 73 
02530     20 74 69 6D 
02534     65 20 68 75 
02538     62 20 52 41 
0253c     4D 20 69 73 
02540     20 75 73 65 
02544     64 20 66 6F 
02548     72 20 74 68 
0254c     65 20 63 6F 
02550     6C 6F 72 20 
02554     62 75 66 66 
02558     65 72       | 	byte	"This time hub RAM is used for the color buffer"
0255a     00          | 	byte	0
0255b                 | LR__0153
0255b     59 6F 75 20 
0255f     63 61 6E 20 
02563     73 65 74 20 
02567     63 6F 6C 6F 
0256b     72 73 20 66 
0256f     6F 72 20 61 
02573     6C 6C 20 73 
02577     63 72 65 65 
0257b     6E 20 75 73 
0257f     69 6E 67 20 
02583     6F 6E 65 20 
02587     66 75 6E 63 
0258b     74 69 6F 6E 
0258f     20 63 61 6C 
02593     6C          | 	byte	"You can set colors for all screen using one function call"
02594     00          | 	byte	0
02595                 | LR__0154
02595     59 6F 75 20 
02599     63 61 6E 20 
0259d     73 65 74 20 
025a1     62 6F 72 64 
025a5     65 72 20 63 
025a9     6F 6C 6F 72 
025ad     20 66 6F 72 
025b1     20 61 6C 6C 
025b5     20 73 63 72 
025b9     65 65 6E 20 
025bd     75 73 69 6E 
025c1     67 20 6F 6E 
025c5     65 20 66 75 
025c9     6E 63 74 69 
025cd     6F 6E 20 63 
025d1     61 6C 6C 2C 
025d5     20 74 6F 6F | 	byte	"You can set border color for all screen using one function call, too"
025d9     00          | 	byte	0
025da                 | LR__0155
025da     31 32 33 34 
025de     35 36 37 38 
025e2     39 30       | 	byte	"1234567890"
025e4     00          | 	byte	0
025e5                 | LR__0156
025e5     20 44 3A 5C 
025e9     20          | 	byte	" D:\ "
025ea     00          | 	byte	0
025eb                 | LR__0157
025eb     20 43 3A 5C 
025ef     20          | 	byte	" C:\ "
025f0     00          | 	byte	0
025f1                 | LR__0158
025f1     43 3A 5C 3E | 	byte	"C:\>"
025f5     00          | 	byte	0
025f6                 | LR__0159
025f6     20          | 	byte	" "
025f7     00          | 	byte	0
025f8                 | LR__0160
025f8     20          | 	byte	" "
025f9     00          | 	byte	0
025fa                 | LR__0161
025fa     2C          | 	byte	","
025fb     00          | 	byte	0
025fc                 | LR__0162
025fc     20          | 	byte	" "
025fd     00          | 	byte	0
025fe                 | LR__0163
025fe     62 6C 75 65 | 	byte	"blue"
02602     00          | 	byte	0
02603                 | LR__0164
02603     67 72 65 65 
02607     6E          | 	byte	"green"
02608     00          | 	byte	0
02609                 | LR__0165
02609     63 79 61 6E | 	byte	"cyan"
0260d     00          | 	byte	0
0260e                 | LR__0166
0260e     72 65 64    | 	byte	"red"
02611     00          | 	byte	0
02612                 | LR__0167
02612     6D 61 67 65 
02616     6E 74 61    | 	byte	"magenta"
02619     00          | 	byte	0
0261a                 | LR__0168
0261a     62 72 6F 77 
0261e     6E          | 	byte	"brown"
0261f     00          | 	byte	0
02620                 | LR__0169
02620     6C 69 67 68 
02624     74 20 67 72 
02628     61 79       | 	byte	"light gray"
0262a     00          | 	byte	0
0262b                 | LR__0170
0262b     64 61 72 6B 
0262f     20 67 72 61 
02633     79          | 	byte	"dark gray"
02634     00          | 	byte	0
02635                 | LR__0171
02635     6C 69 67 68 
02639     74 20 62 6C 
0263d     75 65       | 	byte	"light blue"
0263f     00          | 	byte	0
02640                 | LR__0172
02640     6C 69 67 68 
02644     74 20 67 72 
02648     65 65 6E    | 	byte	"light green"
0264b     00          | 	byte	0
0264c                 | LR__0173
0264c     6C 69 67 68 
02650     74 20 63 79 
02654     61 6E       | 	byte	"light cyan"
02656     00          | 	byte	0
02657                 | LR__0174
02657     6C 69 67 68 
0265b     74 20 72 65 
0265f     64          | 	byte	"light red"
02660     00          | 	byte	0
02661                 | LR__0175
02661     6C 69 67 68 
02665     74 20 6D 61 
02669     67 65 6E 74 
0266d     61          | 	byte	"light magenta"
0266e     00          | 	byte	0
0266f                 | LR__0176
0266f     79 65 6C 6C 
02673     6F 77       | 	byte	"yellow"
02675     00          | 	byte	0
02676                 | LR__0177
02676     77 68 69 74 
0267a     65          | 	byte	"white"
0267b     00          | 	byte	0
0267c                 | 	alignl
0267c                 | _dat_
0267c     00 00 00 00 
      ...             
026ac     00 00 00 00 
026b0     00 00 00    | st_font                 file "st4font.def"
026b3     FF FF 00 00 
026b7     00 00 00 00 
026bb     00 18 18 18 
026bf     18 18 18 18 | 	byte	$ff, $ff, $00, $00, $00, $00, $00, $00, $00, $18, $18, $18, $18, $18, $18, $18
026c3     18 18 18 18 
026c7     18 18 18 18 
026cb     18          | 	byte	$18[9]
026cc     00 00 00 00 
026d0     00 00 00    | 	byte	$00[7]
026d3     FF FF 18 18 
026d7     18 18 18 18 
026db     18 18 18 18 
026df     18 18 18 18 | 	byte	$ff, $ff, $18, $18, $18, $18, $18, $18, $18, $18, $18, $18, $18, $18, $18, $18
026e3     FF FF 00 00 
026e7     00 00 00 00 
026eb     00 18 18 18 
026ef     18 18 18 18 | 	byte	$ff, $ff, $00, $00, $00, $00, $00, $00, $00, $18, $18, $18, $18, $18, $18, $18
026f3     1F 1F 18 18 
026f7     18 18 18 18 
026fb     18 18 18 18 
026ff     18 18 18 18 | 	byte	$1f, $1f, $18, $18, $18, $18, $18, $18, $18, $18, $18, $18, $18, $18, $18, $18
02703     F8 F8 18 18 
02707     18 18 18 18 
0270b     18 00 00 00 
0270f     00 00 00 00 | 	byte	$f8, $f8, $18, $18, $18, $18, $18, $18, $18, $00, $00, $00, $00, $00, $00, $00
02713     1F 1F 18 18 
02717     18 18 18 18 
0271b     18 00 00 00 
0271f     00 00 00 00 | 	byte	$1f, $1f, $18, $18, $18, $18, $18, $18, $18, $00, $00, $00, $00, $00, $00, $00
02723     F8 F8 18 18 
02727     18 18 18 18 
0272b     18 18 18 18 
0272f     18 18 18 18 | 	byte	$f8, $f8, $18, $18, $18, $18, $18, $18, $18, $18, $18, $18, $18, $18, $18, $18
02733     1F 1F 00 00 
02737     00 00 00 00 
0273b     00 18 18 18 
0273f     18 18 18 18 | 	byte	$1f, $1f, $00, $00, $00, $00, $00, $00, $00, $18, $18, $18, $18, $18, $18, $18
02743     F8 F8 00 00 
02747     00 00 00 00 
0274b     00 18 18 18 
0274f     18 18 18 18 | 	byte	$f8, $f8, $00, $00, $00, $00, $00, $00, $00, $18, $18, $18, $18, $18, $18, $18
02753     FF FF 18 18 
02757     18 18 18 18 
0275b     18 00 00 18 
0275f     3C 7E 66 66 | 	byte	$ff, $ff, $18, $18, $18, $18, $18, $18, $18, $00, $00, $18, $3c, $7e, $66, $66
02763     66 7E 7E 66 
02767     66 66 66 30 
0276b     18 00 00 7E 
0276f     7E 06 06 3E | 	byte	$66, $7e, $7e, $66, $66, $66, $66, $30, $18, $00, $00, $7e, $7e, $06, $06, $3e
02773     3E 06 06 06 
02777     06 7E 7E 18 
0277b     0C 30 18 3C 
0277f     7E 66 66 06 | 	byte	$3e, $06, $06, $06, $06, $7e, $7e, $18, $0c, $30, $18, $3c, $7e, $66, $66, $06
02783     06 06 06 66 
02787     66 7E 3C 00 
0278b     00 30 18 66 
0278f     66 66 6E 6E | 	byte	$06, $06, $06, $66, $66, $7e, $3c, $00, $00, $30, $18, $66, $66, $66, $6e, $6e
02793     7E 7E 76 76 
02797     66 66 66 00 
0279b     00 30 18 7C 
0279f     7E 06 06 0E | 	byte	$7e, $7e, $76, $76, $66, $66, $66, $00, $00, $30, $18, $7c, $7e, $06, $06, $0e
027a3     1C 38 70 60 
027a7     60 7E 3E 00 
027ab     00 30 18 7E 
027af     7E 30 30 18 | 	byte	$1c, $38, $70, $60, $60, $7e, $3e, $00, $00, $30, $18, $7e, $7e, $30, $30, $18
027b3     18 0C 0C 06 
027b7     06 7E 7E 00 
027bb     00 18 18 00 
027bf     7E 7E 30 30 | 	byte	$18, $0c, $0c, $06, $06, $7e, $7e, $00, $00, $18, $18, $00, $7e, $7e, $30, $30
027c3     18 18 0C 0C 
027c7     06 7E 7E 00 
027cb     00 30 18 3C 
027cf     7E 66 66 66 | 	byte	$18, $18, $0c, $0c, $06, $7e, $7e, $00, $00, $30, $18, $3c, $7e, $66, $66, $66
027d3     66 66 66 66 
027d7     66          | 	byte	$66[5]
027d8     7E 3C 00 00 
027dc     00 00 06 06 
027e0     06 06 16 1E 
027e4     0E 06 06 06 | 	byte	$7e, $3c, $00, $00, $00, $00, $06, $06, $06, $06, $16, $1e, $0e, $06, $06, $06
027e8     7E 7E 00 00 
027ec     00 00 00 00 
027f0     00 3C 7C 60 
027f4     7C 7E 66 66 | 	byte	$7e, $7e, $00, $00, $00, $00, $00, $00, $00, $3c, $7c, $60, $7c, $7e, $66, $66
027f8     7E 7C 30 18 
027fc     00 00 00 00 
02800     00 3C 7E 66 
02804     66 7E 06 06 | 	byte	$7e, $7c, $30, $18, $00, $00, $00, $00, $00, $3c, $7e, $66, $66, $7e, $06, $06
02808     7E 7C 18 0C 
0280c     00 00 30 18 
02810     00 3C 3E 06 
02814     06 06 06 06 | 	byte	$7e, $7c, $18, $0c, $00, $00, $30, $18, $00, $3c, $3e, $06, $06, $06, $06, $06
02818     7E 7C 00 00 
0281c     00 00 30 18 
02820     00 3E 7E 66 
02824     66 66 66 66 | 	byte	$7e, $7c, $00, $00, $00, $00, $30, $18, $00, $3e, $7e, $66, $66, $66, $66, $66
02828     66 66 00 00 
0282c     00 00 30 18 
02830     00 7C 7E 06 
02834     0E 3C 70 60 | 	byte	$66, $66, $00, $00, $00, $00, $30, $18, $00, $7c, $7e, $06, $0e, $3c, $70, $60
02838     7E 3E 00 00 
0283c     00 00 30 18 
02840     00 7E 7E 30 
02844     18 18 0C 0C | 	byte	$7e, $3e, $00, $00, $00, $00, $30, $18, $00, $7e, $7e, $30, $18, $18, $0c, $0c
02848     7E 7E 00 00 
0284c     00 00 18 18 
02850     00 7E 7E 30 
02854     18 18 0C 0C | 	byte	$7e, $7e, $00, $00, $00, $00, $18, $18, $00, $7e, $7e, $30, $18, $18, $0c, $0c
02858     7E 7E 00 00 
0285c     00 00 30 18 
02860     00 3C 7E 66 
02864     66 66 66 66 | 	byte	$7e, $7e, $00, $00, $00, $00, $30, $18, $00, $3c, $7e, $66, $66, $66, $66, $66
02868     7E 3C 00 00 
0286c     00 00 1C 1C 
02870     18 18 38 3C 
02874     1C 18 18 18 | 	byte	$7e, $3c, $00, $00, $00, $00, $1c, $1c, $18, $18, $38, $3c, $1c, $18, $18, $18
02878     3C 3C 00 00 
0287c     00 00 00 00 
02880     00 00 00 00 
02884     00 00 00 00 | 	byte	$3c, $3c, $00, $00, $00, $00, $00, $00, $00, $00, $00, $00, $00, $00, $00, $00
02888     00 00 00 00 
0288c     00 00       | 	byte	$00[6]
0288e     18 18 18 18 
02892     18 18 18 18 | 	byte	$18[8]
02896     00 00 18 18 
0289a     00 00 00 00 
0289e     66 66 66 66 
028a2     00 00 00 00 | 	byte	$00, $00, $18, $18, $00, $00, $00, $00, $66, $66, $66, $66, $00, $00, $00, $00
028a6     00 00 00 00 
028aa     00 00 00 00 
028ae     00          | 	byte	$00[9]
028af     66 66 FF FF 
028b3     66 66 FF FF 
028b7     66 66 00 00 
028bb     00 00 18 18 | 	byte	$66, $66, $ff, $ff, $66, $66, $ff, $ff, $66, $66, $00, $00, $00, $00, $18, $18
028bf     7C 7E 06 06 
028c3     3E 7C 60 60 
028c7     7E 3E 18 18 
028cb     00 00 00 66 | 	byte	$7c, $7e, $06, $06, $3e, $7c, $60, $60, $7e, $3e, $18, $18, $00, $00, $00, $66
028cf     66 30 30 18 
028d3     18 0C 0C 66 
028d7     66 00 00 00 
028db     00 00 3C 7E | 	byte	$66, $30, $30, $18, $18, $0c, $0c, $66, $66, $00, $00, $00, $00, $00, $3c, $7e
028df     66 66 3C 1C 
028e3     1C FC FE 66 
028e7     66 FE FC 00 
028eb     00 00 00 18 | 	byte	$66, $66, $3c, $1c, $1c, $fc, $fe, $66, $66, $fe, $fc, $00, $00, $00, $00, $18
028ef     18 18 18 18 
028f3     00 00 00 00 
028f7     00 00 00 00 
028fb     00 00 00 30 | 	byte	$18, $18, $18, $18, $00, $00, $00, $00, $00, $00, $00, $00, $00, $00, $00, $30
028ff     18 1C 0C 0C 
02903     0C 0C 0C 0C 
02907     1C 18 30 00 
0290b     00 00 00 0C | 	byte	$18, $1c, $0c, $0c, $0c, $0c, $0c, $0c, $1c, $18, $30, $00, $00, $00, $00, $0c
0290f     18 38 30 30 
02913     30 30 30 30 
02917     38 18 0C 00 
0291b     00 00 00 00 | 	byte	$18, $38, $30, $30, $30, $30, $30, $30, $38, $18, $0c, $00, $00, $00, $00, $00
0291f     66 66 3C 3C 
02923     FF FF 3C 3C 
02927     66 66 00 00 
0292b     00 00 00 00 | 	byte	$66, $66, $3c, $3c, $ff, $ff, $3c, $3c, $66, $66, $00, $00, $00, $00, $00, $00
0292f     00 18 18 18 
02933     7E 7E 18 18 
02937     18 00 00 00 
0293b     00 00 00 00 | 	byte	$00, $18, $18, $18, $7e, $7e, $18, $18, $18, $00, $00, $00, $00, $00, $00, $00
0293f     00 00 00 00 
02943     00 00       | 	byte	$00[6]
02945     18 18 18 18 
02949     18          | 	byte	$18[5]
0294a     0C 04 00 00 
0294e     00 00 00 00 
02952     7E 7E 00 00 
02956     00 00 00 00 | 	byte	$0c, $04, $00, $00, $00, $00, $00, $00, $7e, $7e, $00, $00, $00, $00, $00, $00
0295a     00 00 00 00 
0295e     00 00 00 00 
02962     00 00 00 00 
02966     00          | 	byte	$00[13]
02967     18 18 18 00 
0296b     00 00 00 60 
0296f     60 60 30 30 
02973     18 18 0C 0C | 	byte	$18, $18, $18, $00, $00, $00, $00, $60, $60, $60, $30, $30, $18, $18, $0c, $0c
02977     06 06 06 00 
0297b     00 00 00 3C 
0297f     7E 66 66 66 
02983     76 6E 66 66 | 	byte	$06, $06, $06, $00, $00, $00, $00, $3c, $7e, $66, $66, $66, $76, $6e, $66, $66
02987     66 7E 3C 00 
0298b     00 00 00 18 
0298f     18 1C 1C 18 
02993     18 18 18 18 | 	byte	$66, $7e, $3c, $00, $00, $00, $00, $18, $18, $1c, $1c, $18, $18, $18, $18, $18
02997     18 7E 7E 00 
0299b     00 00 00 3C 
0299f     7E 66 66 30 
029a3     30 18 18 0C | 	byte	$18, $7e, $7e, $00, $00, $00, $00, $3c, $7e, $66, $66, $30, $30, $18, $18, $0c
029a7     0C 7E 7E 00 
029ab     00 00 00 7E 
029af     7E 30 30 18 
029b3     18 30 30 66 | 	byte	$0c, $7e, $7e, $00, $00, $00, $00, $7e, $7e, $30, $30, $18, $18, $30, $30, $66
029b7     66 7E 3C 00 
029bb     00 00 00 30 
029bf     30 38 38 3C 
029c3     3C 36 36 7E | 	byte	$66, $7e, $3c, $00, $00, $00, $00, $30, $30, $38, $38, $3c, $3c, $36, $36, $7e
029c7     7E 30 30 00 
029cb     00 00 00 7E 
029cf     7E 06 06 3E 
029d3     7E 60 60 60 | 	byte	$7e, $30, $30, $00, $00, $00, $00, $7e, $7e, $06, $06, $3e, $7e, $60, $60, $60
029d7     66 7E 3C 00 
029db     00 00 00 38 
029df     3C 0E 06 06 
029e3     3E 7E 66 66 | 	byte	$66, $7e, $3c, $00, $00, $00, $00, $38, $3c, $0e, $06, $06, $3e, $7e, $66, $66
029e7     66 7E 3C 00 
029eb     00 00 00 7E 
029ef     7E 60 60 30 
029f3     30 18 18 0C | 	byte	$66, $7e, $3c, $00, $00, $00, $00, $7e, $7e, $60, $60, $30, $30, $18, $18, $0c
029f7     0C 0C 0C 00 
029fb     00 00 00 3C 
029ff     7E 66 66 3C 
02a03     3C 66 66 66 | 	byte	$0c, $0c, $0c, $00, $00, $00, $00, $3c, $7e, $66, $66, $3c, $3c, $66, $66, $66
02a07     66 7E 3C 00 
02a0b     00 00 00 3C 
02a0f     7E 66 66 7E 
02a13     7C 60 60 60 | 	byte	$66, $7e, $3c, $00, $00, $00, $00, $3c, $7e, $66, $66, $7e, $7c, $60, $60, $60
02a17     70 3C 1C 00 
02a1b     00 00 00 00 
02a1f     00 00 18 18 
02a23     18 00 00 00 | 	byte	$70, $3c, $1c, $00, $00, $00, $00, $00, $00, $00, $18, $18, $18, $00, $00, $00
02a27     18 18 18 00 
02a2b     00 00 00 00 
02a2f     00 00 18 18 
02a33     18 00 00 18 | 	byte	$18, $18, $18, $00, $00, $00, $00, $00, $00, $00, $18, $18, $18, $00, $00, $18
02a37     18 18 18 0C 
02a3b     04 00 00 00 
02a3f     70 38 1C 0E 
02a43     07 0E 1C 38 | 	byte	$18, $18, $18, $0c, $04, $00, $00, $00, $70, $38, $1c, $0e, $07, $0e, $1c, $38
02a47     70 00 00 00 
02a4b     00 00 00 00 
02a4f     00 00 7E 7E 
02a53     00 00 7E 7E | 	byte	$70, $00, $00, $00, $00, $00, $00, $00, $00, $00, $7e, $7e, $00, $00, $7e, $7e
02a57     00 00 00 00 
02a5b     00 00 00 00 | 	byte	$00[8]
02a5f     0E 1C 38 70 
02a63     E0 70 38 1C 
02a67     0E 00 00 00 
02a6b     00 00 00 3C | 	byte	$0e, $1c, $38, $70, $e0, $70, $38, $1c, $0e, $00, $00, $00, $00, $00, $00, $3c
02a6f     7E 66 66 30 
02a73     30 18 18 18 
02a77     00 18 18 00 
02a7b     00 00 00 3C | 	byte	$7e, $66, $66, $30, $30, $18, $18, $18, $00, $18, $18, $00, $00, $00, $00, $3c
02a7f     7E 66 66 66 
02a83     66 36 06 66 
02a87     66 7E 3C 00 
02a8b     00 00 00 18 | 	byte	$7e, $66, $66, $66, $66, $36, $06, $66, $66, $7e, $3c, $00, $00, $00, $00, $18
02a8f     3C 7E 66 66 
02a93     66 7E 7E 66 
02a97     66 66 66 00 
02a9b     00 00 00 3E | 	byte	$3c, $7e, $66, $66, $66, $7e, $7e, $66, $66, $66, $66, $00, $00, $00, $00, $3e
02a9f     7E 66 66 7E 
02aa3     3E 66 66 66 
02aa7     66 7E 3E 00 
02aab     00 00 00 3C | 	byte	$7e, $66, $66, $7e, $3e, $66, $66, $66, $66, $7e, $3e, $00, $00, $00, $00, $3c
02aaf     7E 66 66 06 
02ab3     06 06 06 66 
02ab7     66 7E 3C 00 
02abb     00 00 00 3E | 	byte	$7e, $66, $66, $06, $06, $06, $06, $66, $66, $7e, $3c, $00, $00, $00, $00, $3e
02abf     7E 66 66 66 
02ac3     66 66 66 66 
02ac7     66 7E 3E 00 
02acb     00 00 00 7E | 	byte	$7e, $66, $66, $66, $66, $66, $66, $66, $66, $7e, $3e, $00, $00, $00, $00, $7e
02acf     7E 06 06 3E 
02ad3     3E 06 06 06 
02ad7     06 7E 7E 00 
02adb     00 00 00 7E | 	byte	$7e, $06, $06, $3e, $3e, $06, $06, $06, $06, $7e, $7e, $00, $00, $00, $00, $7e
02adf     7E 06 06 3E 
02ae3     3E 06 06 06 
02ae7     06 06 06 00 
02aeb     00 00 00 7C | 	byte	$7e, $06, $06, $3e, $3e, $06, $06, $06, $06, $06, $06, $00, $00, $00, $00, $7c
02aef     7E 06 06 76 
02af3     76 66 66 66 
02af7     66 7E 3C 00 
02afb     00 00 00 66 | 	byte	$7e, $06, $06, $76, $76, $66, $66, $66, $66, $7e, $3c, $00, $00, $00, $00, $66
02aff     66 66 66 7E 
02b03     7E 66 66 66 
02b07     66 66 66 00 
02b0b     00 00 00 7E | 	byte	$66, $66, $66, $7e, $7e, $66, $66, $66, $66, $66, $66, $00, $00, $00, $00, $7e
02b0f     7E 18 18 18 
02b13     18 18 18 18 
02b17     18 7E 7E 00 
02b1b     00 00 00 60 | 	byte	$7e, $18, $18, $18, $18, $18, $18, $18, $18, $7e, $7e, $00, $00, $00, $00, $60
02b1f     60 60 60 60 
02b23     60 60 60    | 	byte	$60[7]
02b26     66 66 7E 3C 
02b2a     00 00 00 00 
02b2e     66 66 36 36 
02b32     1E 1E 36 36 | 	byte	$66, $66, $7e, $3c, $00, $00, $00, $00, $66, $66, $36, $36, $1e, $1e, $36, $36
02b36     66 66 C6 C6 
02b3a     00 00 00 00 
02b3e     06 06 06 06 
02b42     06 06 06 06 | 	byte	$66, $66, $c6, $c6, $00, $00, $00, $00, $06, $06, $06, $06, $06, $06, $06, $06
02b46     06 06 7E 7E 
02b4a     00 00 00 00 
02b4e     C6 C6 EE EE 
02b52     FE D6 D6 C6 | 	byte	$06, $06, $7e, $7e, $00, $00, $00, $00, $c6, $c6, $ee, $ee, $fe, $d6, $d6, $c6
02b56     C6 C6 C6 C6 
02b5a     00 00 00 00 
02b5e     66 66 66 6E 
02b62     6E 7E 7E 76 | 	byte	$c6, $c6, $c6, $c6, $00, $00, $00, $00, $66, $66, $66, $6e, $6e, $7e, $7e, $76
02b66     76 66 66 66 
02b6a     00 00 00 00 
02b6e     3C 7E 66 66 
02b72     66 66 66 66 | 	byte	$76, $66, $66, $66, $00, $00, $00, $00, $3c, $7e, $66, $66, $66, $66, $66, $66
02b76     66 66 7E 3C 
02b7a     00 00 00 00 
02b7e     3E 7E 66 66 
02b82     66 66 7E 3E | 	byte	$66, $66, $7e, $3c, $00, $00, $00, $00, $3e, $7e, $66, $66, $66, $66, $7e, $3e
02b86     06 06 06 06 
02b8a     00 00 00 00 
02b8e     3C 7E 66 66 
02b92     66 66 66 66 | 	byte	$06, $06, $06, $06, $00, $00, $00, $00, $3c, $7e, $66, $66, $66, $66, $66, $66
02b96     66 56 3E 6C 
02b9a     00 00 00 00 
02b9e     3E 7E 66 66 
02ba2     66 7E 3E 36 | 	byte	$66, $56, $3e, $6c, $00, $00, $00, $00, $3e, $7e, $66, $66, $66, $7e, $3e, $36
02ba6     66 66 C6 C6 
02baa     00 00 00 00 
02bae     7C 7E 06 06 
02bb2     0E 1C 38 70 | 	byte	$66, $66, $c6, $c6, $00, $00, $00, $00, $7c, $7e, $06, $06, $0e, $1c, $38, $70
02bb6     60 60 7E 3E 
02bba     00 00 00 00 
02bbe     7E 7E 18 18 
02bc2     18 18 18 18 | 	byte	$60, $60, $7e, $3e, $00, $00, $00, $00, $7e, $7e, $18, $18, $18, $18, $18, $18
02bc6     18 18 18 18 
02bca     00 00 00 00 
02bce     66 66 66 66 
02bd2     66 66 66 66 | 	byte	$18, $18, $18, $18, $00, $00, $00, $00, $66, $66, $66, $66, $66, $66, $66, $66
02bd6     66 66 7E 3C 
02bda     00 00 00 00 
02bde     66 66 66 66 
02be2     66 66 66 66 | 	byte	$66, $66, $7e, $3c, $00, $00, $00, $00, $66, $66, $66, $66, $66, $66, $66, $66
02be6     3C 3C 18 18 
02bea     00 00 00 00 
02bee     C6 C6 C6 C6 
02bf2     C6 D6 D6 FE | 	byte	$3c, $3c, $18, $18, $00, $00, $00, $00, $c6, $c6, $c6, $c6, $c6, $d6, $d6, $fe
02bf6     FE EE C6 82 
02bfa     00 00 00 00 
02bfe     66 66 66 3C 
02c02     3C 18 18 3C | 	byte	$fe, $ee, $c6, $82, $00, $00, $00, $00, $66, $66, $66, $3c, $3c, $18, $18, $3c
02c06     3C 66 66 66 
02c0a     00 00 00 00 
02c0e     66 66 66 66 
02c12     66 3C 3C 18 | 	byte	$3c, $66, $66, $66, $00, $00, $00, $00, $66, $66, $66, $66, $66, $3c, $3c, $18
02c16     18 18 18 18 
02c1a     00 00 00 00 
02c1e     7E 7E 30 30 
02c22     18 18 0C 0C | 	byte	$18, $18, $18, $18, $00, $00, $00, $00, $7e, $7e, $30, $30, $18, $18, $0c, $0c
02c26     06 06 7E 7E 
02c2a     00 00 00 00 
02c2e     3C 3C 0C 0C 
02c32     0C 0C 0C 0C | 	byte	$06, $06, $7e, $7e, $00, $00, $00, $00, $3c, $3c, $0c, $0c, $0c, $0c, $0c, $0c
02c36     0C 0C 3C 3C 
02c3a     00 00 00 00 
02c3e     06 06 0C 0C 
02c42     18 18 30 30 | 	byte	$0c, $0c, $3c, $3c, $00, $00, $00, $00, $06, $06, $0c, $0c, $18, $18, $30, $30
02c46     60 60 C0 C0 
02c4a     00 00 00 00 
02c4e     3C 3C 30 30 
02c52     30 30 30 30 | 	byte	$60, $60, $c0, $c0, $00, $00, $00, $00, $3c, $3c, $30, $30, $30, $30, $30, $30
02c56     30 30 3C 3C 
02c5a     00 00 00 00 
02c5e     18 18 3C 3C 
02c62     66 66 00 00 | 	byte	$30, $30, $3c, $3c, $00, $00, $00, $00, $18, $18, $3c, $3c, $66, $66, $00, $00
02c66     00 00 00 00 
02c6a     00 00 00 00 
02c6e     00 00 00 00 
02c72     00 00 00 00 
02c76     00 00       | 	byte	$00[18]
02c78     FE FE 00 00 
02c7c     00 00 0C 0C 
02c80     18 18 00 00 
02c84     00 00 00 00 | 	byte	$fe, $fe, $00, $00, $00, $00, $0c, $0c, $18, $18, $00, $00, $00, $00, $00, $00
02c88     00 00 00 00 
02c8c     00 00 00 00 
02c90     00          | 	byte	$00[9]
02c91     3C 7C 60 7C 
02c95     7E 66 66 7E 
02c99     7C 00 00 00 
02c9d     00 06 06 06 | 	byte	$3c, $7c, $60, $7c, $7e, $66, $66, $7e, $7c, $00, $00, $00, $00, $06, $06, $06
02ca1     3E 7E 66 66 
02ca5     66 66 66 7E 
02ca9     3E 00 00 00 
02cad     00 00 00 00 | 	byte	$3e, $7e, $66, $66, $66, $66, $66, $7e, $3e, $00, $00, $00, $00, $00, $00, $00
02cb1     3C 3E 06 06 
02cb5     06 06 06 7E 
02cb9     7C 00 00 00 
02cbd     00 60 60 60 | 	byte	$3c, $3e, $06, $06, $06, $06, $06, $7e, $7c, $00, $00, $00, $00, $60, $60, $60
02cc1     7C 7E 66 66 
02cc5     66 66 66 7E 
02cc9     7C 00 00 00 
02ccd     00 00 00 00 | 	byte	$7c, $7e, $66, $66, $66, $66, $66, $7e, $7c, $00, $00, $00, $00, $00, $00, $00
02cd1     3C 7E 66 66 
02cd5     7E 06 06 7E 
02cd9     7C 00 00 00 
02cdd     00 70 78 18 | 	byte	$3c, $7e, $66, $66, $7e, $06, $06, $7e, $7c, $00, $00, $00, $00, $70, $78, $18
02ce1     18 7E 7E 18 
02ce5     18 18 18 18 
02ce9     18 00 00 00 
02ced     00 00 00 00 | 	byte	$18, $7e, $7e, $18, $18, $18, $18, $18, $18, $00, $00, $00, $00, $00, $00, $00
02cf1     7C 7E 66 66 
02cf5     66 66 7E 7C 
02cf9     60 7E 3E 00 
02cfd     00 06 06 06 | 	byte	$7c, $7e, $66, $66, $66, $66, $7e, $7c, $60, $7e, $3e, $00, $00, $06, $06, $06
02d01     3E 7E 66 66 
02d05     66 66 66 66 
02d09     66 00 00 00 
02d0d     00 18 18 00 | 	byte	$3e, $7e, $66, $66, $66, $66, $66, $66, $66, $00, $00, $00, $00, $18, $18, $00
02d11     1C 1C 18 18 
02d15     18 18 18 3C 
02d19     3C 00 00 00 
02d1d     00 30 30 00 | 	byte	$1c, $1c, $18, $18, $18, $18, $18, $3c, $3c, $00, $00, $00, $00, $30, $30, $00
02d21     30 30 30 30 
02d25     30 30 30 30 
02d29     30          | 	byte	$30[9]
02d2a     3E 1E 00 00 
02d2e     06 06 06 36 
02d32     36 1E 1E 1E 
02d36     36 36 66 66 | 	byte	$3e, $1e, $00, $00, $06, $06, $06, $36, $36, $1e, $1e, $1e, $36, $36, $66, $66
02d3a     00 00 00 00 
02d3e     1C 1C 18 18 
02d42     18 18 18 18 
02d46     18 18 3C 3C | 	byte	$00, $00, $00, $00, $1c, $1c, $18, $18, $18, $18, $18, $18, $18, $18, $3c, $3c
02d4a     00 00 00 00 
02d4e     00 00 00    | 	byte	$00[7]
02d51     6C FE FE D6 
02d55     D6 C6 C6 C6 
02d59     C6 00 00 00 
02d5d     00 00 00 00 | 	byte	$6c, $fe, $fe, $d6, $d6, $c6, $c6, $c6, $c6, $00, $00, $00, $00, $00, $00, $00
02d61     3E 7E 66 66 
02d65     66 66 66 66 
02d69     66 00 00 00 
02d6d     00 00 00 00 | 	byte	$3e, $7e, $66, $66, $66, $66, $66, $66, $66, $00, $00, $00, $00, $00, $00, $00
02d71     3C 7E 66 66 
02d75     66 66 66 7E 
02d79     3C 00 00 00 
02d7d     00 00 00 00 | 	byte	$3c, $7e, $66, $66, $66, $66, $66, $7e, $3c, $00, $00, $00, $00, $00, $00, $00
02d81     3E 7E 66 66 
02d85     66 66 66 7E 
02d89     3E 06 06 00 
02d8d     00 00 00 00 | 	byte	$3e, $7e, $66, $66, $66, $66, $66, $7e, $3e, $06, $06, $00, $00, $00, $00, $00
02d91     7C 7E 66 66 
02d95     66 66 66 7E 
02d99     7C 60 60 00 
02d9d     00 00 00 00 | 	byte	$7c, $7e, $66, $66, $66, $66, $66, $7e, $7c, $60, $60, $00, $00, $00, $00, $00
02da1     3E 7E 66 06 
02da5     06 06 06 06 
02da9     06 00 00 00 
02dad     00 00 00 00 | 	byte	$3e, $7e, $66, $06, $06, $06, $06, $06, $06, $00, $00, $00, $00, $00, $00, $00
02db1     7C 7E 06 0E 
02db5     3C 70 60 7E 
02db9     3E 00 00 00 
02dbd     00 00 18 18 | 	byte	$7c, $7e, $06, $0e, $3c, $70, $60, $7e, $3e, $00, $00, $00, $00, $00, $18, $18
02dc1     7E 7E 18 18 
02dc5     18 18 18 78 
02dc9     70 00 00 00 
02dcd     00 00 00 00 | 	byte	$7e, $7e, $18, $18, $18, $18, $18, $78, $70, $00, $00, $00, $00, $00, $00, $00
02dd1     66 66 66 66 
02dd5     66 66 66    | 	byte	$66[7]
02dd8     7E 7C 00 00 
02ddc     00 00 00 00 
02de0     00 66 66 66 
02de4     66 66 3C 3C | 	byte	$7e, $7c, $00, $00, $00, $00, $00, $00, $00, $66, $66, $66, $66, $66, $3c, $3c
02de8     18 18 00 00 
02dec     00 00 00 00 
02df0     00 C6 C6 D6 
02df4     D6 FE FE EE | 	byte	$18, $18, $00, $00, $00, $00, $00, $00, $00, $c6, $c6, $d6, $d6, $fe, $fe, $ee
02df8     C6 82 00 00 
02dfc     00 00 00 00 
02e00     00 66 66 3C 
02e04     3C 18 3C 3C | 	byte	$c6, $82, $00, $00, $00, $00, $00, $00, $00, $66, $66, $3c, $3c, $18, $3c, $3c
02e08     66 66 00 00 
02e0c     00 00 00 00 
02e10     00 66 66 66 
02e14     66 66 66 7E | 	byte	$66, $66, $00, $00, $00, $00, $00, $00, $00, $66, $66, $66, $66, $66, $66, $7e
02e18     7C 60 7E 3E 
02e1c     00 00 00 00 
02e20     00 7E 7E 30 
02e24     18 18 0C 0C | 	byte	$7c, $60, $7e, $3e, $00, $00, $00, $00, $00, $7e, $7e, $30, $18, $18, $0c, $0c
02e28     7E 7E 00 00 
02e2c     00 00 30 18 
02e30     18 18 18 0C 
02e34     0C 18 18 18 | 	byte	$7e, $7e, $00, $00, $00, $00, $30, $18, $18, $18, $18, $0c, $0c, $18, $18, $18
02e38     18 30 00 00 
02e3c     00 00 18 18 
02e40     18 18 18 18 
02e44     18 18 18 18 | 	byte	$18, $30, $00, $00, $00, $00, $18, $18, $18, $18, $18, $18, $18, $18, $18, $18
02e48     18 18 00 00 
02e4c     00 00 0C 18 
02e50     18 18 18 30 
02e54     30 18 18 18 | 	byte	$18, $18, $00, $00, $00, $00, $0c, $18, $18, $18, $18, $30, $30, $18, $18, $18
02e58     18 0C 00 00 
02e5c     00 00 6C 7E 
02e60     36 00 00 00 
02e64     00 00 00 00 | 	byte	$18, $0c, $00, $00, $00, $00, $6c, $7e, $36, $00, $00, $00, $00, $00, $00, $00
02e68     00 00 00 00 
02e6c     00 00 00 00 
02e70     00          | 	byte	$00[9]
02e71     18 18 18 18 
02e75     18 18 00 00 
02e79     00 00 00    | 	byte	$18, $18, $18, $18, $18, $18, $00, $00, $00, $00, $00
02e7c     00 00 00 00 
02e80     00 00 00 00 
02e84     00 00 00 00 
02e88     00 00 00 00 
02e8c     00 00 00    | vga_font				file "vgafont.def"
02e8f     7E 81 A5 81 
02e93     81 BD 99 81 
02e97     81 7E 00 00 
02e9b     00 00 00 00 | 	byte	$7e, $81, $a5, $81, $81, $bd, $99, $81, $81, $7e, $00, $00, $00, $00, $00, $00
02e9f     7E FF DB FF 
02ea3     FF C3 E7 FF 
02ea7     FF 7E 00 00 
02eab     00 00 00 00 | 	byte	$7e, $ff, $db, $ff, $ff, $c3, $e7, $ff, $ff, $7e, $00, $00, $00, $00, $00, $00
02eaf     00 36 7F 7F 
02eb3     7F 7F 3E 1C 
02eb7     08 00 00 00 
02ebb     00 00 00 00 | 	byte	$00, $36, $7f, $7f, $7f, $7f, $3e, $1c, $08, $00, $00, $00, $00, $00, $00, $00
02ebf     00 08 1C 3E 
02ec3     7F 3E 1C 08 
02ec7     00 00 00 00 
02ecb     00 00 00 00 | 	byte	$00, $08, $1c, $3e, $7f, $3e, $1c, $08, $00, $00, $00, $00, $00, $00, $00, $00
02ecf     18 3C 3C E7 
02ed3     E7 E7 18 18 
02ed7     3C 00 00 00 
02edb     00 00 00 00 | 	byte	$18, $3c, $3c, $e7, $e7, $e7, $18, $18, $3c, $00, $00, $00, $00, $00, $00, $00
02edf     18 3C 7E FF 
02ee3     FF 7E 18 18 
02ee7     3C 00 00 00 
02eeb     00 00 00 00 | 	byte	$18, $3c, $7e, $ff, $ff, $7e, $18, $18, $3c, $00, $00, $00, $00, $00, $00, $00
02eef     00 00 00 18 
02ef3     3C 3C 18 00 
02ef7     00 00 00 00 
02efb     00 FF FF FF | 	byte	$00, $00, $00, $18, $3c, $3c, $18, $00, $00, $00, $00, $00, $00, $ff, $ff, $ff
02eff     FF FF FF E7 
02f03     C3 C3 E7 FF 
02f07     FF FF FF FF 
02f0b     FF 00 00 00 | 	byte	$ff, $ff, $ff, $e7, $c3, $c3, $e7, $ff, $ff, $ff, $ff, $ff, $ff, $00, $00, $00
02f0f     00 00 3C 66 
02f13     42 42 66 3C 
02f17     00 00 00 00 
02f1b     00 FF FF FF | 	byte	$00, $00, $3c, $66, $42, $42, $66, $3c, $00, $00, $00, $00, $00, $ff, $ff, $ff
02f1f     FF FF C3 99 
02f23     BD BD 99 C3 
02f27     FF FF FF FF 
02f2b     FF 00 00 00 | 	byte	$ff, $ff, $c3, $99, $bd, $bd, $99, $c3, $ff, $ff, $ff, $ff, $ff, $00, $00, $00
02f2f     78 70 58 4C 
02f33     1E 33 33 33 
02f37     33 1E 00 00 
02f3b     00 00 00 00 | 	byte	$78, $70, $58, $4c, $1e, $33, $33, $33, $33, $1e, $00, $00, $00, $00, $00, $00
02f3f     3C 66 66 66 
02f43     66 3C 18 7E 
02f47     18 18 00 00 
02f4b     00 00 00 00 | 	byte	$3c, $66, $66, $66, $66, $3c, $18, $7e, $18, $18, $00, $00, $00, $00, $00, $00
02f4f     FC CC FC 0C 
02f53     0C 0C 0C 0E 
02f57     0F 07 00 00 
02f5b     00 00 00 00 | 	byte	$fc, $cc, $fc, $0c, $0c, $0c, $0c, $0e, $0f, $07, $00, $00, $00, $00, $00, $00
02f5f     FE C6 FE C6 
02f63     C6 C6 C6 E6 
02f67     E7 67 03 00 
02f6b     00 00 00 00 | 	byte	$fe, $c6, $fe, $c6, $c6, $c6, $c6, $e6, $e7, $67, $03, $00, $00, $00, $00, $00
02f6f     18 18 DB 3C 
02f73     E7 3C DB 18 
02f77     18 00 00 00 
02f7b     00 00 00 01 | 	byte	$18, $18, $db, $3c, $e7, $3c, $db, $18, $18, $00, $00, $00, $00, $00, $00, $01
02f7f     03 07 0F 1F 
02f83     7F 1F 0F 07 
02f87     03 01 00 00 
02f8b     00 00 00 40 | 	byte	$03, $07, $0f, $1f, $7f, $1f, $0f, $07, $03, $01, $00, $00, $00, $00, $00, $40
02f8f     60 70 78 7C 
02f93     7F 7C 78 70 
02f97     60 40 00 00 
02f9b     00 00 00 00 | 	byte	$60, $70, $78, $7c, $7f, $7c, $78, $70, $60, $40, $00, $00, $00, $00, $00, $00
02f9f     18 3C 7E 18 
02fa3     18 18 7E 3C 
02fa7     18 00 00 00 
02fab     00 00 00 00 | 	byte	$18, $3c, $7e, $18, $18, $18, $7e, $3c, $18, $00, $00, $00, $00, $00, $00, $00
02faf     66 66 66 66 
02fb3     66 66 66    | 	byte	$66[7]
02fb6     00 66 66 00 
02fba     00 00 00 00 
02fbe     00 FE DB DB 
02fc2     DB DE D8 D8 | 	byte	$00, $66, $66, $00, $00, $00, $00, $00, $00, $fe, $db, $db, $db, $de, $d8, $d8
02fc6     D8 D8 D8 00 
02fca     00 00 00 3E 
02fce     63 06 1C 36 
02fd2     63 63 36 1C | 	byte	$d8, $d8, $d8, $00, $00, $00, $00, $3e, $63, $06, $1c, $36, $63, $63, $36, $1c
02fd6     30 63 3E 00 
02fda     00 00 00 00 
02fde     00 00 00 00 
02fe2     00 00 00 7F | 	byte	$30, $63, $3e, $00, $00, $00, $00, $00, $00, $00, $00, $00, $00, $00, $00, $7f
02fe6     7F 7F 7F 00 
02fea     00 00 00 00 
02fee     00 18 3C 7E 
02ff2     18 18 18 7E | 	byte	$7f, $7f, $7f, $00, $00, $00, $00, $00, $00, $18, $3c, $7e, $18, $18, $18, $7e
02ff6     3C 18 7E 00 
02ffa     00 00 00 00 
02ffe     00 18 3C 7E 
03002     18 18 18 18 | 	byte	$3c, $18, $7e, $00, $00, $00, $00, $00, $00, $18, $3c, $7e, $18, $18, $18, $18
03006     18 18 18 00 
0300a     00 00 00 00 
0300e     00 18 18 18 
03012     18 18 18 18 | 	byte	$18, $18, $18, $00, $00, $00, $00, $00, $00, $18, $18, $18, $18, $18, $18, $18
03016     7E 3C 18 00 
0301a     00 00 00 00 
0301e     00 00 00 18 
03022     30 7F 30 18 | 	byte	$7e, $3c, $18, $00, $00, $00, $00, $00, $00, $00, $00, $18, $30, $7f, $30, $18
03026     00 00 00 00 
0302a     00 00 00 00 
0302e     00 00 00    | 	byte	$00[11]
03031     0C 06 7F 06 
03035     0C 00 00 00 
03039     00 00 00 00 
0303d     00 00 00 00 | 	byte	$0c, $06, $7f, $06, $0c, $00, $00, $00, $00, $00, $00, $00, $00, $00, $00, $00
03041     00 03 03 03 
03045     7F 00 00 00 
03049     00 00 00 00 
0304d     00 00 00 00 | 	byte	$00, $03, $03, $03, $7f, $00, $00, $00, $00, $00, $00, $00, $00, $00, $00, $00
03051     14 36 7F 36 
03055     14 00 00 00 
03059     00 00 00 00 
0305d     00 00 00 08 | 	byte	$14, $36, $7f, $36, $14, $00, $00, $00, $00, $00, $00, $00, $00, $00, $00, $08
03061     1C 1C 3E 3E 
03065     7F 7F 00 00 
03069     00 00 00 00 
0306d     00 00 00 7F | 	byte	$1c, $1c, $3e, $3e, $7f, $7f, $00, $00, $00, $00, $00, $00, $00, $00, $00, $7f
03071     7F 3E 3E 1C 
03075     1C 08 00 00 
03079     00 00 00 00 
0307d     00 00 00 00 | 	byte	$7f, $3e, $3e, $1c, $1c, $08, $00, $00, $00, $00, $00, $00, $00, $00, $00, $00
03081     00 00 00 00 
03085     00 00 00 00 
03089     00 00 00 00 
0308d     00 00       | 	byte	$00[14]
0308f     18 3C 3C 3C 
03093     18 18 18 00 
03097     18 18 00 00 
0309b     00 00 66 66 | 	byte	$18, $3c, $3c, $3c, $18, $18, $18, $00, $18, $18, $00, $00, $00, $00, $66, $66
0309f     66 24 00 00 
030a3     00 00 00 00 
030a7     00 00 00 00 
030ab     00 00 00 00 | 	byte	$66, $24, $00, $00, $00, $00, $00, $00, $00, $00, $00, $00, $00, $00, $00, $00
030af     00 36 36 7F 
030b3     36 36 36 7F 
030b7     36 36 00 00 
030bb     00 00 18 18 | 	byte	$00, $36, $36, $7f, $36, $36, $36, $7f, $36, $36, $00, $00, $00, $00, $18, $18
030bf     3E 63 43 03 
030c3     3E 60 60 61 
030c7     63 3E 18 18 
030cb     00 00 00 00 | 	byte	$3e, $63, $43, $03, $3e, $60, $60, $61, $63, $3e, $18, $18, $00, $00, $00, $00
030cf     00 00 43 63 
030d3     30 18 0C 06 
030d7     63 61 00 00 
030db     00 00 00 00 | 	byte	$00, $00, $43, $63, $30, $18, $0c, $06, $63, $61, $00, $00, $00, $00, $00, $00
030df     1C 36 36 1C 
030e3     6E 3B 33 33 
030e7     33 6E 00 00 
030eb     00 00 00 00 | 	byte	$1c, $36, $36, $1c, $6e, $3b, $33, $33, $33, $6e, $00, $00, $00, $00, $00, $00
030ef     0C 0C 0C 06 
030f3     00 00 00 00 
030f7     00 00 00 00 
030fb     00 00 00 00 | 	byte	$0c, $0c, $0c, $06, $00, $00, $00, $00, $00, $00, $00, $00, $00, $00, $00, $00
030ff     30 18 0C 0C 
03103     0C 0C 0C 0C 
03107     18 30 00 00 
0310b     00 00 00 00 | 	byte	$30, $18, $0c, $0c, $0c, $0c, $0c, $0c, $18, $30, $00, $00, $00, $00, $00, $00
0310f     0C 18 30 30 
03113     30 30 30 30 
03117     18 0C 00 00 
0311b     00 00 00 00 | 	byte	$0c, $18, $30, $30, $30, $30, $30, $30, $18, $0c, $00, $00, $00, $00, $00, $00
0311f     00 00 00 66 
03123     3C FF 3C 66 
03127     00 00 00 00 
0312b     00 00 00 00 | 	byte	$00, $00, $00, $66, $3c, $ff, $3c, $66, $00, $00, $00, $00, $00, $00, $00, $00
0312f     00 00 00 18 
03133     18 7E 18 18 
03137     00 00 00 00 
0313b     00 00 00 00 | 	byte	$00, $00, $00, $18, $18, $7e, $18, $18, $00, $00, $00, $00, $00, $00, $00, $00
0313f     00 00 00 00 
03143     00 00 00 00 | 	byte	$00[8]
03147     18 18 18 0C 
0314b     00 00 00 00 
0314f     00 00 00 00 
03153     00 7F 00 00 | 	byte	$18, $18, $18, $0c, $00, $00, $00, $00, $00, $00, $00, $00, $00, $7f, $00, $00
03157     00 00 00 00 
0315b     00 00 00 00 
0315f     00 00 00 00 
03163     00 00 00 00 | 	byte	$00[16]
03167     18 18 00 00 
0316b     00 00 00 00 
0316f     00 00 40 60 
03173     30 18 0C 06 | 	byte	$18, $18, $00, $00, $00, $00, $00, $00, $00, $00, $40, $60, $30, $18, $0c, $06
03177     03 01 00 00 
0317b     00 00 00 00 
0317f     1C 36 63 63 
03183     6B 6B 63 63 | 	byte	$03, $01, $00, $00, $00, $00, $00, $00, $1c, $36, $63, $63, $6b, $6b, $63, $63
03187     36 1C 00 00 
0318b     00 00 00 00 
0318f     18 1C 1E 18 
03193     18 18 18 18 | 	byte	$36, $1c, $00, $00, $00, $00, $00, $00, $18, $1c, $1e, $18, $18, $18, $18, $18
03197     18 7E 00 00 
0319b     00 00 00 00 
0319f     3E 63 60 30 
031a3     18 0C 06 03 | 	byte	$18, $7e, $00, $00, $00, $00, $00, $00, $3e, $63, $60, $30, $18, $0c, $06, $03
031a7     63 7F 00 00 
031ab     00 00 00 00 
031af     3E 63 60 60 
031b3     3C 60 60 60 | 	byte	$63, $7f, $00, $00, $00, $00, $00, $00, $3e, $63, $60, $60, $3c, $60, $60, $60
031b7     63 3E 00 00 
031bb     00 00 00 00 
031bf     30 38 3C 36 
031c3     33 7F 30 30 | 	byte	$63, $3e, $00, $00, $00, $00, $00, $00, $30, $38, $3c, $36, $33, $7f, $30, $30
031c7     30 78 00 00 
031cb     00 00 00 00 
031cf     7F 03 03 03 
031d3     3F 60 60 60 | 	byte	$30, $78, $00, $00, $00, $00, $00, $00, $7f, $03, $03, $03, $3f, $60, $60, $60
031d7     63 3E 00 00 
031db     00 00 00 00 
031df     1C 06 03 03 
031e3     3F 63 63 63 | 	byte	$63, $3e, $00, $00, $00, $00, $00, $00, $1c, $06, $03, $03, $3f, $63, $63, $63
031e7     63 3E 00 00 
031eb     00 00 00 00 
031ef     7F 63 60 60 
031f3     30 18 0C 0C | 	byte	$63, $3e, $00, $00, $00, $00, $00, $00, $7f, $63, $60, $60, $30, $18, $0c, $0c
031f7     0C 0C 00 00 
031fb     00 00 00 00 
031ff     3E 63 63 63 
03203     3E 63 63 63 | 	byte	$0c, $0c, $00, $00, $00, $00, $00, $00, $3e, $63, $63, $63, $3e, $63, $63, $63
03207     63 3E 00 00 
0320b     00 00 00 00 
0320f     3E 63 63 63 
03213     7E 60 60 60 | 	byte	$63, $3e, $00, $00, $00, $00, $00, $00, $3e, $63, $63, $63, $7e, $60, $60, $60
03217     30 1E 00 00 
0321b     00 00 00 00 
0321f     00 00 00 18 
03223     18 00 00 00 | 	byte	$30, $1e, $00, $00, $00, $00, $00, $00, $00, $00, $00, $18, $18, $00, $00, $00
03227     18 18 00 00 
0322b     00 00 00 00 
0322f     00 00 00 18 
03233     18 00 00 00 | 	byte	$18, $18, $00, $00, $00, $00, $00, $00, $00, $00, $00, $18, $18, $00, $00, $00
03237     18 18 0C 00 
0323b     00 00 00 00 
0323f     00 60 30 18 
03243     0C 06 0C 18 | 	byte	$18, $18, $0c, $00, $00, $00, $00, $00, $00, $60, $30, $18, $0c, $06, $0c, $18
03247     30 60 00 00 
0324b     00 00 00 00 
0324f     00 00 00 7E 
03253     00 00 7E 00 | 	byte	$30, $60, $00, $00, $00, $00, $00, $00, $00, $00, $00, $7e, $00, $00, $7e, $00
03257     00 00 00 00 
0325b     00 00 00 00 
0325f     00          | 	byte	$00[9]
03260     06 0C 18 30 
03264     60 30 18 0C 
03268     06 00 00 00 
0326c     00 00 00 3E | 	byte	$06, $0c, $18, $30, $60, $30, $18, $0c, $06, $00, $00, $00, $00, $00, $00, $3e
03270     63 63 30 18 
03274     18 18 00 18 
03278     18 00 00 00 
0327c     00 00 00 00 | 	byte	$63, $63, $30, $18, $18, $18, $00, $18, $18, $00, $00, $00, $00, $00, $00, $00
03280     3E 63 63 7B 
03284     7B 7B 3B 03 
03288     3E 00 00 00 
0328c     00 00 00 08 | 	byte	$3e, $63, $63, $7b, $7b, $7b, $3b, $03, $3e, $00, $00, $00, $00, $00, $00, $08
03290     1C 36 63 63 
03294     7F 63 63 63 
03298     63 00 00 00 
0329c     00 00 00 3F | 	byte	$1c, $36, $63, $63, $7f, $63, $63, $63, $63, $00, $00, $00, $00, $00, $00, $3f
032a0     66 66 66 3E 
032a4     66 66 66 66 
032a8     3F 00 00 00 
032ac     00 00 00 3C | 	byte	$66, $66, $66, $3e, $66, $66, $66, $66, $3f, $00, $00, $00, $00, $00, $00, $3c
032b0     66 43 03 03 
032b4     03 03 43 66 
032b8     3C 00 00 00 
032bc     00 00 00 1F | 	byte	$66, $43, $03, $03, $03, $03, $43, $66, $3c, $00, $00, $00, $00, $00, $00, $1f
032c0     36 66 66 66 
032c4     66 66 66 36 
032c8     1F 00 00 00 
032cc     00 00 00 7F | 	byte	$36, $66, $66, $66, $66, $66, $66, $36, $1f, $00, $00, $00, $00, $00, $00, $7f
032d0     66 46 16 1E 
032d4     16 06 46 66 
032d8     7F 00 00 00 
032dc     00 00 00 7F | 	byte	$66, $46, $16, $1e, $16, $06, $46, $66, $7f, $00, $00, $00, $00, $00, $00, $7f
032e0     66 46 16 1E 
032e4     16 06 06 06 
032e8     0F 00 00 00 
032ec     00 00 00 3C | 	byte	$66, $46, $16, $1e, $16, $06, $06, $06, $0f, $00, $00, $00, $00, $00, $00, $3c
032f0     66 43 03 03 
032f4     7B 63 63 66 
032f8     5C 00 00 00 
032fc     00 00 00 63 | 	byte	$66, $43, $03, $03, $7b, $63, $63, $66, $5c, $00, $00, $00, $00, $00, $00, $63
03300     63 63 63 7F 
03304     63 63 63 63 
03308     63 00 00 00 
0330c     00 00 00 3C | 	byte	$63, $63, $63, $7f, $63, $63, $63, $63, $63, $00, $00, $00, $00, $00, $00, $3c
03310     18 18 18 18 
03314     18 18 18 18 | 	byte	$18[8]
03318     3C 00 00 00 
0331c     00 00 00 78 
03320     30 30 30 30 
03324     30 33 33 33 | 	byte	$3c, $00, $00, $00, $00, $00, $00, $78, $30, $30, $30, $30, $30, $33, $33, $33
03328     1E 00 00 00 
0332c     00 00 00 67 
03330     66 66 36 1E 
03334     1E 36 66 66 | 	byte	$1e, $00, $00, $00, $00, $00, $00, $67, $66, $66, $36, $1e, $1e, $36, $66, $66
03338     67 00 00 00 
0333c     00 00 00 0F 
03340     06 06 06 06 
03344     06 06 46 66 | 	byte	$67, $00, $00, $00, $00, $00, $00, $0f, $06, $06, $06, $06, $06, $06, $46, $66
03348     7F 00 00 00 
0334c     00 00 00 63 
03350     77 7F 7F 6B 
03354     63 63 63 63 | 	byte	$7f, $00, $00, $00, $00, $00, $00, $63, $77, $7f, $7f, $6b, $63, $63, $63, $63
03358     63 00 00 00 
0335c     00 00 00 63 
03360     67 6F 7F 7B 
03364     73 63 63 63 | 	byte	$63, $00, $00, $00, $00, $00, $00, $63, $67, $6f, $7f, $7b, $73, $63, $63, $63
03368     63 00 00 00 
0336c     00 00 00 3E 
03370     63 63 63 63 
03374     63 63 63 63 | 	byte	$63, $00, $00, $00, $00, $00, $00, $3e, $63, $63, $63, $63, $63, $63, $63, $63
03378     3E 00 00 00 
0337c     00 00 00 3F 
03380     66 66 66 3E 
03384     06 06 06 06 | 	byte	$3e, $00, $00, $00, $00, $00, $00, $3f, $66, $66, $66, $3e, $06, $06, $06, $06
03388     0F 00 00 00 
0338c     00 00 00 3E 
03390     63 63 63 63 
03394     63 63 6B 7B | 	byte	$0f, $00, $00, $00, $00, $00, $00, $3e, $63, $63, $63, $63, $63, $63, $6b, $7b
03398     3E 30 70 00 
0339c     00 00 00 3F 
033a0     66 66 66 3E 
033a4     36 66 66 66 | 	byte	$3e, $30, $70, $00, $00, $00, $00, $3f, $66, $66, $66, $3e, $36, $66, $66, $66
033a8     67 00 00 00 
033ac     00 00 00 3E 
033b0     63 63 06 1C 
033b4     30 60 63 63 | 	byte	$67, $00, $00, $00, $00, $00, $00, $3e, $63, $63, $06, $1c, $30, $60, $63, $63
033b8     3E 00 00 00 
033bc     00 00 00 7E 
033c0     7E 5A 18 18 
033c4     18 18 18 18 | 	byte	$3e, $00, $00, $00, $00, $00, $00, $7e, $7e, $5a, $18, $18, $18, $18, $18, $18
033c8     3C 00 00 00 
033cc     00 00 00 63 
033d0     63 63 63 63 
033d4     63 63 63 63 | 	byte	$3c, $00, $00, $00, $00, $00, $00, $63, $63, $63, $63, $63, $63, $63, $63, $63
033d8     3E 00 00 00 
033dc     00 00 00 63 
033e0     63 63 63 63 
033e4     63 63 36 1C | 	byte	$3e, $00, $00, $00, $00, $00, $00, $63, $63, $63, $63, $63, $63, $63, $36, $1c
033e8     08 00 00 00 
033ec     00 00 00 63 
033f0     63 63 63 6B 
033f4     6B 6B 7F 77 | 	byte	$08, $00, $00, $00, $00, $00, $00, $63, $63, $63, $63, $6b, $6b, $6b, $7f, $77
033f8     36 00 00 00 
033fc     00 00 00 63 
03400     63 36 3E 1C 
03404     1C 3E 36 63 | 	byte	$36, $00, $00, $00, $00, $00, $00, $63, $63, $36, $3e, $1c, $1c, $3e, $36, $63
03408     63 00 00 00 
0340c     00 00 00 66 
03410     66 66 66 3C 
03414     18 18 18 18 | 	byte	$63, $00, $00, $00, $00, $00, $00, $66, $66, $66, $66, $3c, $18, $18, $18, $18
03418     3C 00 00 00 
0341c     00 00 00 7F 
03420     63 61 30 18 
03424     0C 06 43 63 | 	byte	$3c, $00, $00, $00, $00, $00, $00, $7f, $63, $61, $30, $18, $0c, $06, $43, $63
03428     7F 00 00 00 
0342c     00 00 00 3C 
03430     0C 0C 0C 0C 
03434     0C 0C 0C 0C | 	byte	$7f, $00, $00, $00, $00, $00, $00, $3c, $0c, $0c, $0c, $0c, $0c, $0c, $0c, $0c
03438     3C 00 00 00 
0343c     00 00 00 00 
03440     01 03 07 0E 
03444     1C 38 70 60 | 	byte	$3c, $00, $00, $00, $00, $00, $00, $00, $01, $03, $07, $0e, $1c, $38, $70, $60
03448     40 00 00 00 
0344c     00 00 00 3C 
03450     30 30 30 30 
03454     30 30 30 30 | 	byte	$40, $00, $00, $00, $00, $00, $00, $3c, $30, $30, $30, $30, $30, $30, $30, $30
03458     3C 00 00 00 
0345c     1C 36 00 00 
03460     00 00 00 00 
03464     00 00 00 00 | 	byte	$3c, $00, $00, $00, $1c, $36, $00, $00, $00, $00, $00, $00, $00, $00, $00, $00
03468     00 00 00 00 
0346c     00 00 00 00 
03470     00 00 00 00 
03474     00 00 00 00 
03478     00          | 	byte	$00[17]
03479     FF 00 00 0C 
0347d     18 00 00 00 
03481     00 00 00 00 
03485     00 00 00 00 | 	byte	$ff, $00, $00, $0c, $18, $00, $00, $00, $00, $00, $00, $00, $00, $00, $00, $00
03489     00 00 00 00 
0348d     00 00 00 00 
03491     00          | 	byte	$00[9]
03492     1E 30 3E 33 
03496     33 33 6E 00 
0349a     00 00 00 00 
0349e     00 07 06 06 | 	byte	$1e, $30, $3e, $33, $33, $33, $6e, $00, $00, $00, $00, $00, $00, $07, $06, $06
034a2     1E 36 66 66 
034a6     66 66 3E 00 
034aa     00 00 00 00 
034ae     00 00 00 00 | 	byte	$1e, $36, $66, $66, $66, $66, $3e, $00, $00, $00, $00, $00, $00, $00, $00, $00
034b2     3E 63 03 03 
034b6     03 63 3E 00 
034ba     00 00 00 00 
034be     00 38 30 30 | 	byte	$3e, $63, $03, $03, $03, $63, $3e, $00, $00, $00, $00, $00, $00, $38, $30, $30
034c2     3C 36 33 33 
034c6     33 33 6E 00 
034ca     00 00 00 00 
034ce     00 00 00 00 | 	byte	$3c, $36, $33, $33, $33, $33, $6e, $00, $00, $00, $00, $00, $00, $00, $00, $00
034d2     3E 63 7F 03 
034d6     03 63 3E 00 
034da     00 00 00 00 
034de     00 38 6C 4C | 	byte	$3e, $63, $7f, $03, $03, $63, $3e, $00, $00, $00, $00, $00, $00, $38, $6c, $4c
034e2     0C 1E 0C 0C 
034e6     0C 0C 1E 00 
034ea     00 00 00 00 
034ee     00 00 00 00 | 	byte	$0c, $1e, $0c, $0c, $0c, $0c, $1e, $00, $00, $00, $00, $00, $00, $00, $00, $00
034f2     6E 33 33 33 
034f6     33 33 3E 30 
034fa     33 1E 00 00 
034fe     00 07 06 06 | 	byte	$6e, $33, $33, $33, $33, $33, $3e, $30, $33, $1e, $00, $00, $00, $07, $06, $06
03502     36 6E 66 66 
03506     66 66 67 00 
0350a     00 00 00 00 
0350e     00 18 18 00 | 	byte	$36, $6e, $66, $66, $66, $66, $67, $00, $00, $00, $00, $00, $00, $18, $18, $00
03512     1C 18 18 18 
03516     18 18 3C 00 
0351a     00 00 00 00 
0351e     00 60 60 00 | 	byte	$1c, $18, $18, $18, $18, $18, $3c, $00, $00, $00, $00, $00, $00, $60, $60, $00
03522     70 60 60 60 
03526     60 60 60 66 
0352a     66 3C 00 00 
0352e     00 07 06 06 | 	byte	$70, $60, $60, $60, $60, $60, $60, $66, $66, $3c, $00, $00, $00, $07, $06, $06
03532     66 36 1E 1E 
03536     36 66 67 00 
0353a     00 00 00 00 
0353e     00 1C 18 18 | 	byte	$66, $36, $1e, $1e, $36, $66, $67, $00, $00, $00, $00, $00, $00, $1c, $18, $18
03542     18 18 18 18 
03546     18 18       | 	byte	$18[6]
03548     3C 00 00 00 
0354c     00 00 00 00 
03550     00 00 37 7F 
03554     6B 6B 6B 6B | 	byte	$3c, $00, $00, $00, $00, $00, $00, $00, $00, $00, $37, $7f, $6b, $6b, $6b, $6b
03558     63 00 00 00 
0355c     00 00 00 00 
03560     00 00 3B 66 
03564     66 66 66 66 | 	byte	$63, $00, $00, $00, $00, $00, $00, $00, $00, $00, $3b, $66, $66, $66, $66, $66
03568     66 00 00 00 
0356c     00 00 00 00 
03570     00 00 3E 63 
03574     63 63 63 63 | 	byte	$66, $00, $00, $00, $00, $00, $00, $00, $00, $00, $3e, $63, $63, $63, $63, $63
03578     3E 00 00 00 
0357c     00 00 00 00 
03580     00 00 3B 66 
03584     66 66 66 66 | 	byte	$3e, $00, $00, $00, $00, $00, $00, $00, $00, $00, $3b, $66, $66, $66, $66, $66
03588     3E 06 06 0F 
0358c     00 00 00 00 
03590     00 00 6E 33 
03594     33 33 33 33 | 	byte	$3e, $06, $06, $0f, $00, $00, $00, $00, $00, $00, $6e, $33, $33, $33, $33, $33
03598     3E 30 30 78 
0359c     00 00 00 00 
035a0     00 00 3B 6E 
035a4     66 06 06 06 | 	byte	$3e, $30, $30, $78, $00, $00, $00, $00, $00, $00, $3b, $6e, $66, $06, $06, $06
035a8     0F 00 00 00 
035ac     00 00 00 00 
035b0     00 00 3E 63 
035b4     06 1C 30 63 | 	byte	$0f, $00, $00, $00, $00, $00, $00, $00, $00, $00, $3e, $63, $06, $1c, $30, $63
035b8     3E 00 00 00 
035bc     00 00 00 08 
035c0     0C 0C 3F 0C 
035c4     0C 0C 0C 6C | 	byte	$3e, $00, $00, $00, $00, $00, $00, $08, $0c, $0c, $3f, $0c, $0c, $0c, $0c, $6c
035c8     38 00 00 00 
035cc     00 00 00 00 
035d0     00 00 33 33 
035d4     33 33 33 33 | 	byte	$38, $00, $00, $00, $00, $00, $00, $00, $00, $00, $33, $33, $33, $33, $33, $33
035d8     6E 00 00 00 
035dc     00 00 00 00 
035e0     00 00 63 63 
035e4     63 63 63 36 | 	byte	$6e, $00, $00, $00, $00, $00, $00, $00, $00, $00, $63, $63, $63, $63, $63, $36
035e8     1C 00 00 00 
035ec     00 00 00 00 
035f0     00 00 63 63 
035f4     6B 6B 6B 7F | 	byte	$1c, $00, $00, $00, $00, $00, $00, $00, $00, $00, $63, $63, $6b, $6b, $6b, $7f
035f8     36 00 00 00 
035fc     00 00 00 00 
03600     00 00 63 36 
03604     1C 1C 1C 36 | 	byte	$36, $00, $00, $00, $00, $00, $00, $00, $00, $00, $63, $36, $1c, $1c, $1c, $36
03608     63 00 00 00 
0360c     00 00 00 00 
03610     00 00 63 63 
03614     63 63 63 63 | 	byte	$63, $00, $00, $00, $00, $00, $00, $00, $00, $00, $63, $63, $63, $63, $63, $63
03618     7E 60 30 1F 
0361c     00 00 00 00 
03620     00 00 7F 33 
03624     18 0C 06 63 | 	byte	$7e, $60, $30, $1f, $00, $00, $00, $00, $00, $00, $7f, $33, $18, $0c, $06, $63
03628     7F 00 00 00 
0362c     00 00 00 70 
03630     18 18 18 0E 
03634     18 18 18 18 | 	byte	$7f, $00, $00, $00, $00, $00, $00, $70, $18, $18, $18, $0e, $18, $18, $18, $18
03638     70 00 00 00 
0363c     00 00 00 18 
03640     18 18 18 18 
03644     18 18 18 18 | 	byte	$70, $00, $00, $00, $00, $00, $00, $18, $18, $18, $18, $18, $18, $18, $18, $18
03648     18 00 00 00 
0364c     00 00 00 0E 
03650     18 18 18 70 
03654     18 18 18 18 | 	byte	$18, $00, $00, $00, $00, $00, $00, $0e, $18, $18, $18, $70, $18, $18, $18, $18
03658     0E 00 00 00 
0365c     6E 3B 00 00 
03660     00 00 00 00 
03664     00 00 00 00 | 	byte	$0e, $00, $00, $00, $6e, $3b, $00, $00, $00, $00, $00, $00, $00, $00, $00, $00
03668     00 00 00 00 
0366c     00 00 00 00 
03670     00 00       | 	byte	$00[10]
03672     08 1C 36 63 
03676     63 63 7F 00 
0367a     00 00 00 00 
0367e     00 3C 66 43 | 	byte	$08, $1c, $36, $63, $63, $63, $7f, $00, $00, $00, $00, $00, $00, $3c, $66, $43
03682     03 03 03 03 
03686     43 66 3C 18 
0368a     30 1E 00 00 
0368e     00 00 33 00 | 	byte	$03, $03, $03, $03, $43, $66, $3c, $18, $30, $1e, $00, $00, $00, $00, $33, $00
03692     33 33 33 33 
03696     33 33       | 	byte	$33[6]
03698     6E 00 00 00 
0369c     00 00 60 30 
036a0     18 00 3E 63 
036a4     7F 03 03 63 | 	byte	$6e, $00, $00, $00, $00, $00, $60, $30, $18, $00, $3e, $63, $7f, $03, $03, $63
036a8     3E 00 00 00 
036ac     00 00 08 1C 
036b0     36 00 1E 30 
036b4     3E 33 33 33 | 	byte	$3e, $00, $00, $00, $00, $00, $08, $1c, $36, $00, $1e, $30, $3e, $33, $33, $33
036b8     6E 00 00 00 
036bc     00 00 00 00 
036c0     33 00 1E 30 
036c4     3E 33 33 33 | 	byte	$6e, $00, $00, $00, $00, $00, $00, $00, $33, $00, $1e, $30, $3e, $33, $33, $33
036c8     6E 00 00 00 
036cc     00 00 1C 36 
036d0     1C 00 33 33 
036d4     33 33 33 33 | 	byte	$6e, $00, $00, $00, $00, $00, $1c, $36, $1c, $00, $33, $33, $33, $33, $33, $33
036d8     6E 00 00 00 
036dc     00 00 60 30 
036e0     18 00 3E 63 
036e4     03 03 03 63 | 	byte	$6e, $00, $00, $00, $00, $00, $60, $30, $18, $00, $3e, $63, $03, $03, $03, $63
036e8     3E 00 00 00 
036ec     00 00 00 00 
036f0     00 00 3E 63 
036f4     03 03 03 63 | 	byte	$3e, $00, $00, $00, $00, $00, $00, $00, $00, $00, $3e, $63, $03, $03, $03, $63
036f8     3E 18 30 1E 
036fc     00 00 00 1C 
03700     58 78 38 18 
03704     1C 1E 1A 18 | 	byte	$3e, $18, $30, $1e, $00, $00, $00, $1c, $58, $78, $38, $18, $1c, $1e, $1a, $18
03708     3C 00 00 00 
0370c     00 00 00 00 
03710     63 00 3E 63 
03714     7F 03 03 63 | 	byte	$3c, $00, $00, $00, $00, $00, $00, $00, $63, $00, $3e, $63, $7f, $03, $03, $63
03718     3E 00 00 00 
0371c     66 33 00 3E 
03720     63 63 63 63 
03724     63 63 63 63 | 	byte	$3e, $00, $00, $00, $66, $33, $00, $3e, $63, $63, $63, $63, $63, $63, $63, $63
03728     3E 00 00 00 
0372c     00 00 CC 66 
03730     33 00 3E 63 
03734     63 63 63 63 | 	byte	$3e, $00, $00, $00, $00, $00, $cc, $66, $33, $00, $3e, $63, $63, $63, $63, $63
03738     3E 00 00 00 
0373c     00 00 18 3C 
03740     66 00 1C 18 
03744     18 18 18 18 | 	byte	$3e, $00, $00, $00, $00, $00, $18, $3c, $66, $00, $1c, $18, $18, $18, $18, $18
03748     3C 00 00 00 
0374c     30 18 00 7F 
03750     63 61 30 18 
03754     0C 06 43 63 | 	byte	$3c, $00, $00, $00, $30, $18, $00, $7f, $63, $61, $30, $18, $0c, $06, $43, $63
03758     7F 00 00 00 
0375c     00 63 00 08 
03760     1C 36 63 63 
03764     7F 63 63 63 | 	byte	$7f, $00, $00, $00, $00, $63, $00, $08, $1c, $36, $63, $63, $7f, $63, $63, $63
03768     63 00 00 00 
0376c     30 18 00 3C 
03770     66 43 03 03 
03774     03 03 43 66 | 	byte	$63, $00, $00, $00, $30, $18, $00, $3c, $66, $43, $03, $03, $03, $03, $43, $66
03778     3C 00 00 00 
0377c     30 18 00 7F 
03780     66 46 16 1E 
03784     16 06 46 66 | 	byte	$3c, $00, $00, $00, $30, $18, $00, $7f, $66, $46, $16, $1e, $16, $06, $46, $66
03788     7F 00 00 00 
0378c     0C 06 00 0F 
03790     06 06 06 06 
03794     06 06 46 66 | 	byte	$7f, $00, $00, $00, $0c, $06, $00, $0f, $06, $06, $06, $06, $06, $06, $46, $66
03798     7F 00 00 00 
0379c     30 18 00 1C 
037a0     18 18 18 18 
037a4     18 18 18 18 | 	byte	$7f, $00, $00, $00, $30, $18, $00, $1c, $18, $18, $18, $18, $18, $18, $18, $18
037a8     3C 00 00 00 
037ac     00 00 08 1C 
037b0     36 00 3E 63 
037b4     63 63 63 63 | 	byte	$3c, $00, $00, $00, $00, $00, $08, $1c, $36, $00, $3e, $63, $63, $63, $63, $63
037b8     3E 00 00 00 
037bc     00 00 00 00 
037c0     63 00 3E 63 
037c4     63 63 63 63 | 	byte	$3e, $00, $00, $00, $00, $00, $00, $00, $63, $00, $3e, $63, $63, $63, $63, $63
037c8     3E 00 00 00 
037cc     00 00 00 6F 
037d0     46 26 06 06 
037d4     06 06 46 66 | 	byte	$3e, $00, $00, $00, $00, $00, $00, $6f, $46, $26, $06, $06, $06, $06, $46, $66
037d8     7F 00 00 00 
037dc     00 00 00 6E 
037e0     4C 2C 0C 0C 
037e4     0C 0C 0C 0C | 	byte	$7f, $00, $00, $00, $00, $00, $00, $6e, $4c, $2c, $0c, $0c, $0c, $0c, $0c, $0c
037e8     1E 00 00 00 
037ec     30 18 00 3E 
037f0     63 63 06 1C 
037f4     30 60 63 63 | 	byte	$1e, $00, $00, $00, $30, $18, $00, $3e, $63, $63, $06, $1c, $30, $60, $63, $63
037f8     3E 00 00 00 
037fc     00 00 60 30 
03800     18 00 3E 63 
03804     06 1C 30 63 | 	byte	$3e, $00, $00, $00, $00, $00, $60, $30, $18, $00, $3e, $63, $06, $1c, $30, $63
03808     3E 00 00 00 
0380c     00 63 00 3E 
03810     63 63 63 63 
03814     63 63 63 63 | 	byte	$3e, $00, $00, $00, $00, $63, $00, $3e, $63, $63, $63, $63, $63, $63, $63, $63
03818     3E 00 00 00 
0381c     00 63 00 63 
03820     63 63 63 63 
03824     63 63 63 63 | 	byte	$3e, $00, $00, $00, $00, $63, $00, $63, $63, $63, $63, $63, $63, $63, $63, $63
03828     3E 00 00 00 
0382c     6C 38 00 7E 
03830     7E 5A 18 18 
03834     18 18 18 18 | 	byte	$3e, $00, $00, $00, $6c, $38, $00, $7e, $7e, $5a, $18, $18, $18, $18, $18, $18
03838     3C 00 00 00 
0383c     00 00 60 48 
03840     2C 0C 3F 0C 
03844     0C 0C 0C 6C | 	byte	$3c, $00, $00, $00, $00, $00, $60, $48, $2c, $0c, $3f, $0c, $0c, $0c, $0c, $6c
03848     38 00 00 00 
0384c     00 00 00 0F 
03850     26 36 1E 0E 
03854     07 07 46 66 | 	byte	$38, $00, $00, $00, $00, $00, $00, $0f, $26, $36, $1e, $0e, $07, $07, $46, $66
03858     7F 00 00 00 
0385c     00 00 00 00 
03860     00 63 36 1C 
03864     1C 36 63 00 | 	byte	$7f, $00, $00, $00, $00, $00, $00, $00, $00, $63, $36, $1c, $1c, $36, $63, $00
03868     00 00 00 00 
0386c     00 00       | 	byte	$00[6]
0386e     36 1C 08 00 
03872     3E 63 03 03 
03876     03 63 3E 00 
0387a     00 00 00 00 | 	byte	$36, $1c, $08, $00, $3e, $63, $03, $03, $03, $63, $3e, $00, $00, $00, $00, $00
0387e     30 18 0C 00 
03882     1E 30 3E 33 
03886     33 33 6E 00 
0388a     00 00 00 00 | 	byte	$30, $18, $0c, $00, $1e, $30, $3e, $33, $33, $33, $6e, $00, $00, $00, $00, $00
0388e     60 30 18 00 
03892     1C 18 18 18 
03896     18 18 3C 00 
0389a     00 00 00 00 | 	byte	$60, $30, $18, $00, $1c, $18, $18, $18, $18, $18, $3c, $00, $00, $00, $00, $00
0389e     60 30 18 00 
038a2     3E 63 63 63 
038a6     63 63 3E 00 
038aa     00 00 00 00 | 	byte	$60, $30, $18, $00, $3e, $63, $63, $63, $63, $63, $3e, $00, $00, $00, $00, $00
038ae     30 18 0C 00 
038b2     33 33 33 33 
038b6     33 33 6E 00 
038ba     00 00 00 00 | 	byte	$30, $18, $0c, $00, $33, $33, $33, $33, $33, $33, $6e, $00, $00, $00, $00, $00
038be     00 08 1C 36 
038c2     63 63 7F 63 
038c6     63 63 63 18 
038ca     0C 78 00 00 | 	byte	$00, $08, $1c, $36, $63, $63, $7f, $63, $63, $63, $63, $18, $0c, $78, $00, $00
038ce     00 00 00 00 
038d2     1E 30 3E 33 
038d6     33 33 6E 18 
038da     0C 78 36 1C | 	byte	$00, $00, $00, $00, $1e, $30, $3e, $33, $33, $33, $6e, $18, $0c, $78, $36, $1c
038de     00 7F 63 61 
038e2     30 18 0C 06 
038e6     43 63 7F 00 
038ea     00 00 00 00 | 	byte	$00, $7f, $63, $61, $30, $18, $0c, $06, $43, $63, $7f, $00, $00, $00, $00, $00
038ee     36 1C 08 00 
038f2     7F 33 18 0C 
038f6     06 63 7F 00 
038fa     00 00 00 00 | 	byte	$36, $1c, $08, $00, $7f, $33, $18, $0c, $06, $63, $7f, $00, $00, $00, $00, $00
038fe     00 7F 66 46 
03902     16 1E 16 06 
03906     46 66 7F 18 
0390a     0C 78 00 00 | 	byte	$00, $7f, $66, $46, $16, $1e, $16, $06, $46, $66, $7f, $18, $0c, $78, $00, $00
0390e     00 00 00 00 
03912     3E 63 7F 03 
03916     03 63 3E 18 
0391a     0C 78 00 00 | 	byte	$00, $00, $00, $00, $3e, $63, $7f, $03, $03, $63, $3e, $18, $0c, $78, $00, $00
0391e     00 3C 66 03 
03922     1F 03 0F 03 
03926     03 66 3C 00 
0392a     00 00 00 00 | 	byte	$00, $3c, $66, $03, $1f, $03, $0f, $03, $03, $66, $3c, $00, $00, $00, $00, $00
0392e     60 30 18 00 
03932     7F 33 18 0C 
03936     06 63 7F 00 
0393a     00 00 6C 38 | 	byte	$60, $30, $18, $00, $7f, $33, $18, $0c, $06, $63, $7f, $00, $00, $00, $6c, $38
0393e     00 3C 66 43 
03942     03 03 03 03 
03946     43 66 3C 00 
0394a     00 00 00 00 | 	byte	$00, $3c, $66, $43, $03, $03, $03, $03, $43, $66, $3c, $00, $00, $00, $00, $00
0394e     00 00 00 00 
03952     3E 63 06 1C 
03956     30 63 3E 18 
0395a     30 1E 00 00 | 	byte	$00, $00, $00, $00, $3e, $63, $06, $1c, $30, $63, $3e, $18, $30, $1e, $00, $00
0395e     00 00 00 00 
03962     00 00       | 	byte	$00[6]
03964     6C 36 1B 36 
03968     6C 00 00 00 
0396c     00 00 00 00 
03970     00 00 00 00 | 	byte	$6c, $36, $1b, $36, $6c, $00, $00, $00, $00, $00, $00, $00, $00, $00, $00, $00
03974     1B 36 6C 36 
03978     1B 00 00 00 
0397c     88 22 88 22 
03980     88 22 88 22 | 	byte	$1b, $36, $6c, $36, $1b, $00, $00, $00, $88, $22, $88, $22, $88, $22, $88, $22
03984     88 22 88 22 
03988     88 22 88 22 
0398c     AA 55 AA 55 
03990     AA 55 AA 55 | 	byte	$88, $22, $88, $22, $88, $22, $88, $22, $aa, $55, $aa, $55, $aa, $55, $aa, $55
03994     AA 55 AA 55 
03998     AA 55 AA 55 
0399c     BB EE BB EE 
039a0     BB EE BB EE | 	byte	$aa, $55, $aa, $55, $aa, $55, $aa, $55, $bb, $ee, $bb, $ee, $bb, $ee, $bb, $ee
039a4     BB EE BB EE 
039a8     BB EE BB EE 
039ac     18 18 18 18 
039b0     18 18 18 18 | 	byte	$bb, $ee, $bb, $ee, $bb, $ee, $bb, $ee, $18, $18, $18, $18, $18, $18, $18, $18
039b4     18 18 18 18 
039b8     18 18 18 18 
039bc     18 18 18 18 
039c0     18 18 18    | 	byte	$18[15]
039c3     1F 18 18 18 
039c7     18 18 18 18 
039cb     18 30 18 00 
039cf     08 1C 36 63 | 	byte	$1f, $18, $18, $18, $18, $18, $18, $18, $18, $30, $18, $00, $08, $1c, $36, $63
039d3     63 7F 63 63 
039d7     63 63 00 00 
039db     00 1C 36 00 
039df     08 1C 36 63 | 	byte	$63, $7f, $63, $63, $63, $63, $00, $00, $00, $1c, $36, $00, $08, $1c, $36, $63
039e3     63 7F 63 63 
039e7     63 63 00 00 
039eb     00 36 1C 00 
039ef     7F 66 46 16 | 	byte	$63, $7f, $63, $63, $63, $63, $00, $00, $00, $36, $1c, $00, $7f, $66, $46, $16
039f3     1E 16 06 46 
039f7     66 7F 00 00 
039fb     00 00 00 00 
039ff     3E 63 63 06 | 	byte	$1e, $16, $06, $46, $66, $7f, $00, $00, $00, $00, $00, $00, $3e, $63, $63, $06
03a03     1C 30 60 63 
03a07     63 3E 18 30 
03a0b     1E 6C 6C 6C 
03a0f     6C 6C 6F 60 | 	byte	$1c, $30, $60, $63, $63, $3e, $18, $30, $1e, $6c, $6c, $6c, $6c, $6c, $6f, $60
03a13     6F 6C 6C 6C 
03a17     6C 6C 6C 6C 
03a1b     6C 6C 6C 6C 
03a1f     6C 6C 6C 6C | 	byte	$6f, $6c, $6c, $6c, $6c, $6c, $6c, $6c, $6c, $6c, $6c, $6c, $6c, $6c, $6c, $6c
03a23     6C 6C 6C 6C 
03a27     6C 6C 6C 6C 
03a2b     6C          | 	byte	$6c[9]
03a2c     00 00 00 00 
03a30     00          | 	byte	$00[5]
03a31     7F 60 6F 6C 
03a35     6C 6C 6C 6C 
03a39     6C 6C 6C 6C 
03a3d     6C 6C 6C 6C | 	byte	$7f, $60, $6f, $6c, $6c, $6c, $6c, $6c, $6c, $6c, $6c, $6c, $6c, $6c, $6c, $6c
03a41     6F 60 7F 00 
03a45     00 00 00 00 
03a49     00 00 00 18 
03a4d     18 00 7F 63 | 	byte	$6f, $60, $7f, $00, $00, $00, $00, $00, $00, $00, $00, $18, $18, $00, $7f, $63
03a51     61 30 18 0C 
03a55     06 43 63 7F 
03a59     00 00 00 00 
03a5d     00 00 18 18 | 	byte	$61, $30, $18, $0c, $06, $43, $63, $7f, $00, $00, $00, $00, $00, $00, $18, $18
03a61     00 7F 33 18 
03a65     0C 06 63 7F 
03a69     00 00 00 00 
03a6d     00 00 00 00 | 	byte	$00, $7f, $33, $18, $0c, $06, $63, $7f, $00, $00, $00, $00, $00, $00, $00, $00
03a71     00 00 1F 18 
03a75     18 18 18 18 
03a79     18 18 18 18 
03a7d     18 18 18 18 | 	byte	$00, $00, $1f, $18, $18, $18, $18, $18, $18, $18, $18, $18, $18, $18, $18, $18
03a81     18 18 F8 00 
03a85     00 00 00 00 
03a89     00 00 00 18 
03a8d     18 18 18 18 | 	byte	$18, $18, $f8, $00, $00, $00, $00, $00, $00, $00, $00, $18, $18, $18, $18, $18
03a91     18 18 FF 00 
03a95     00 00 00 00 
03a99     00 00 00 00 
03a9d     00 00 00 00 | 	byte	$18, $18, $ff, $00, $00, $00, $00, $00, $00, $00, $00, $00, $00, $00, $00, $00
03aa1     00 00 FF 18 
03aa5     18 18 18 18 
03aa9     18 18 18 18 
03aad     18 18 18 18 | 	byte	$00, $00, $ff, $18, $18, $18, $18, $18, $18, $18, $18, $18, $18, $18, $18, $18
03ab1     18 18 F8 18 
03ab5     18 18 18 18 
03ab9     18 18 18 00 
03abd     00 00 00 00 | 	byte	$18, $18, $f8, $18, $18, $18, $18, $18, $18, $18, $18, $00, $00, $00, $00, $00
03ac1     00 00 FF 00 
03ac5     00 00 00 00 
03ac9     00 00 00 18 
03acd     18 18 18 18 | 	byte	$00, $00, $ff, $00, $00, $00, $00, $00, $00, $00, $00, $18, $18, $18, $18, $18
03ad1     18 18 FF 18 
03ad5     18 18 18 18 
03ad9     18 18 18 63 
03add     3E 00 08 1C | 	byte	$18, $18, $ff, $18, $18, $18, $18, $18, $18, $18, $18, $63, $3e, $00, $08, $1c
03ae1     36 63 63 7F 
03ae5     63 63 63 63 
03ae9     00 00 00 00 
03aed     00 00 63 3E | 	byte	$36, $63, $63, $7f, $63, $63, $63, $63, $00, $00, $00, $00, $00, $00, $63, $3e
03af1     00 1E 30 3E 
03af5     33 33 33 6E 
03af9     00 00 00 6C 
03afd     6C 6C 6C 6C | 	byte	$00, $1e, $30, $3e, $33, $33, $33, $6e, $00, $00, $00, $6c, $6c, $6c, $6c, $6c
03b01     EC 0C FC 00 
03b05     00 00 00 00 
03b09     00 00 00 00 
03b0d     00 00 00 00 | 	byte	$ec, $0c, $fc, $00, $00, $00, $00, $00, $00, $00, $00, $00, $00, $00, $00, $00
03b11     FC 0C EC 6C 
03b15     6C 6C 6C 6C 
03b19     6C 6C 6C 6C 
03b1d     6C 6C 6C 6C | 	byte	$fc, $0c, $ec, $6c, $6c, $6c, $6c, $6c, $6c, $6c, $6c, $6c, $6c, $6c, $6c, $6c
03b21     EF 00 FF 00 
03b25     00 00 00 00 
03b29     00 00 00 00 
03b2d     00 00 00 00 | 	byte	$ef, $00, $ff, $00, $00, $00, $00, $00, $00, $00, $00, $00, $00, $00, $00, $00
03b31     FF 00 EF 6C 
03b35     6C 6C 6C 6C 
03b39     6C 6C 6C 6C 
03b3d     6C 6C 6C 6C | 	byte	$ff, $00, $ef, $6c, $6c, $6c, $6c, $6c, $6c, $6c, $6c, $6c, $6c, $6c, $6c, $6c
03b41     EC 0C EC 6C 
03b45     6C 6C 6C 6C 
03b49     6C 6C 6C 00 
03b4d     00 00 00 00 | 	byte	$ec, $0c, $ec, $6c, $6c, $6c, $6c, $6c, $6c, $6c, $6c, $00, $00, $00, $00, $00
03b51     FF 00 FF 00 
03b55     00 00 00 00 
03b59     00 00 00 6C 
03b5d     6C 6C 6C 6C | 	byte	$ff, $00, $ff, $00, $00, $00, $00, $00, $00, $00, $00, $6c, $6c, $6c, $6c, $6c
03b61     EF 00 EF 6C 
03b65     6C 6C 6C 6C 
03b69     6C 6C 6C 00 
03b6d     00 00 00 00 | 	byte	$ef, $00, $ef, $6c, $6c, $6c, $6c, $6c, $6c, $6c, $6c, $00, $00, $00, $00, $00
03b71     63 3E 63 63 
03b75     63 63 3E 63 
03b79     00 00 00 00 
03b7d     00 00 30 7E | 	byte	$63, $3e, $63, $63, $63, $63, $3e, $63, $00, $00, $00, $00, $00, $00, $30, $7e
03b81     30 3C 36 33 
03b85     33 33 33 6E 
03b89     00 00 00 00 
03b8d     00 00 1F 36 | 	byte	$30, $3c, $36, $33, $33, $33, $33, $6e, $00, $00, $00, $00, $00, $00, $1f, $36
03b91     66 66 6F 66 
03b95     66 66 36 1F 
03b99     00 00 00 36 
03b9d     1C 00 1F 36 | 	byte	$66, $66, $6f, $66, $66, $66, $36, $1f, $00, $00, $00, $36, $1c, $00, $1f, $36
03ba1     66 66 66 66 
03ba5     66 66       | 	byte	$66[6]
03ba7     36 1F 00 00 
03bab     00 00 63 00 
03baf     7F 66 46 16 
03bb3     1E 16 06 46 | 	byte	$36, $1f, $00, $00, $00, $00, $63, $00, $7f, $66, $46, $16, $1e, $16, $06, $46
03bb7     66 7F 00 00 
03bbb     00 6C 38 00 
03bbf     38 30 30 3C 
03bc3     36 33 33 33 | 	byte	$66, $7f, $00, $00, $00, $6c, $38, $00, $38, $30, $30, $3c, $36, $33, $33, $33
03bc7     33 6E 00 00 
03bcb     00 36 1C 00 
03bcf     63 67 6F 7F 
03bd3     7B 73 63 63 | 	byte	$33, $6e, $00, $00, $00, $36, $1c, $00, $63, $67, $6f, $7f, $7b, $73, $63, $63
03bd7     63 63 00 00 
03bdb     00 30 18 00 
03bdf     3C 18 18 18 
03be3     18 18 18 18 | 	byte	$63, $63, $00, $00, $00, $30, $18, $00, $3c, $18, $18, $18, $18, $18, $18, $18
03be7     18 3C 00 00 
03beb     00 3C 66 00 
03bef     3C 18 18 18 
03bf3     18 18 18 18 | 	byte	$18, $3c, $00, $00, $00, $3c, $66, $00, $3c, $18, $18, $18, $18, $18, $18, $18
03bf7     18 3C 00 00 
03bfb     00 00 00 36 
03bff     1C 08 00 3E 
03c03     63 7F 03 03 | 	byte	$18, $3c, $00, $00, $00, $00, $00, $36, $1c, $08, $00, $3e, $63, $7f, $03, $03
03c07     63 3E 00 00 
03c0b     00 18 18 18 
03c0f     18 18 18 18 
03c13     1F 00 00 00 | 	byte	$63, $3e, $00, $00, $00, $18, $18, $18, $18, $18, $18, $18, $1f, $00, $00, $00
03c17     00 00 00 00 
03c1b     00 00 00 00 
03c1f     00 00 00 00 | 	byte	$00[12]
03c23     F8 18 18 18 
03c27     18 18 18 18 
03c2b     18 FF FF FF 
03c2f     FF FF FF FF | 	byte	$f8, $18, $18, $18, $18, $18, $18, $18, $18, $ff, $ff, $ff, $ff, $ff, $ff, $ff
03c33     FF FF FF FF 
03c37     FF FF FF FF 
03c3b     FF          | 	byte	$ff[9]
03c3c     00 00 00 00 
03c40     00 00 00    | 	byte	$00[7]
03c43     FF FF FF FF 
03c47     FF FF FF FF 
03c4b     FF          | 	byte	$ff[9]
03c4c     00 00 00 7E 
03c50     7E 5A 18 18 
03c54     18 18 18 18 
03c58     3C 18 30 1E | 	byte	$00, $00, $00, $7e, $7e, $5a, $18, $18, $18, $18, $18, $18, $3c, $18, $30, $1e
03c5c     1C 36 1C 63 
03c60     63 63 63 63 
03c64     63 63 63 63 
03c68     3E 00 00 00 | 	byte	$1c, $36, $1c, $63, $63, $63, $63, $63, $63, $63, $63, $63, $3e, $00, $00, $00
03c6c     FF FF FF FF 
03c70     FF FF FF    | 	byte	$ff[7]
03c73     00 00 00 00 
03c77     00 00 00 00 
03c7b     00          | 	byte	$00[9]
03c7c     30 18 00 3E 
03c80     63 63 63 63 
03c84     63 63 63 63 
03c88     3E 00 00 00 | 	byte	$30, $18, $00, $3e, $63, $63, $63, $63, $63, $63, $63, $63, $3e, $00, $00, $00
03c8c     00 00 00 1E 
03c90     33 33 33 1B 
03c94     33 63 63 63 
03c98     33 00 00 00 | 	byte	$00, $00, $00, $1e, $33, $33, $33, $1b, $33, $63, $63, $63, $33, $00, $00, $00
03c9c     1C 36 00 3E 
03ca0     63 63 63 63 
03ca4     63 63 63 63 
03ca8     3E 00 00 00 | 	byte	$1c, $36, $00, $3e, $63, $63, $63, $63, $63, $63, $63, $63, $3e, $00, $00, $00
03cac     30 18 00 63 
03cb0     67 6F 7F 7B 
03cb4     73 63 63 63 
03cb8     63 00 00 00 | 	byte	$30, $18, $00, $63, $67, $6f, $7f, $7b, $73, $63, $63, $63, $63, $00, $00, $00
03cbc     00 00 60 30 
03cc0     18 00 3B 66 
03cc4     66 66 66 66 
03cc8     66 00 00 00 | 	byte	$00, $00, $60, $30, $18, $00, $3b, $66, $66, $66, $66, $66, $66, $00, $00, $00
03ccc     00 00 36 1C 
03cd0     08 00 3B 66 
03cd4     66 66 66 66 
03cd8     66 00 00 00 | 	byte	$00, $00, $36, $1c, $08, $00, $3b, $66, $66, $66, $66, $66, $66, $00, $00, $00
03cdc     36 1C 00 3E 
03ce0     63 63 06 1C 
03ce4     30 60 63 63 
03ce8     3E 00 00 00 | 	byte	$36, $1c, $00, $3e, $63, $63, $06, $1c, $30, $60, $63, $63, $3e, $00, $00, $00
03cec     00 00 36 1C 
03cf0     08 00 3E 63 
03cf4     06 1C 30 63 
03cf8     3E 00 00 00 | 	byte	$00, $00, $36, $1c, $08, $00, $3e, $63, $06, $1c, $30, $63, $3e, $00, $00, $00
03cfc     30 18 00 3F 
03d00     66 66 66 3E 
03d04     36 66 66 66 
03d08     6F 00 00 00 | 	byte	$30, $18, $00, $3f, $66, $66, $66, $3e, $36, $66, $66, $66, $6f, $00, $00, $00
03d0c     30 18 00 63 
03d10     63 63 63 63 
03d14     63 63 63 63 
03d18     3E 00 00 00 | 	byte	$30, $18, $00, $63, $63, $63, $63, $63, $63, $63, $63, $63, $3e, $00, $00, $00
03d1c     00 00 60 30 
03d20     18 00 3B 6E 
03d24     66 06 06 06 
03d28     0F 00 00 00 | 	byte	$00, $00, $60, $30, $18, $00, $3b, $6e, $66, $06, $06, $06, $0f, $00, $00, $00
03d2c     66 33 00 63 
03d30     63 63 63 63 
03d34     63 63 63 63 
03d38     3E 00 00 00 | 	byte	$66, $33, $00, $63, $63, $63, $63, $63, $63, $63, $63, $63, $3e, $00, $00, $00
03d3c     00 00 60 30 
03d40     18 00 63 63 
03d44     63 63 63 63 
03d48     7E 60 30 1F | 	byte	$00, $00, $60, $30, $18, $00, $63, $63, $63, $63, $63, $63, $7e, $60, $30, $1f
03d4c     30 18 00 66 
03d50     66 66 66 3C 
03d54     18 18 18 18 
03d58     3C 00 00 00 | 	byte	$30, $18, $00, $66, $66, $66, $66, $3c, $18, $18, $18, $18, $3c, $00, $00, $00
03d5c     00 00 00 08 
03d60     0C 0C 3F 0C 
03d64     0C 0C 0C 6C 
03d68     38 18 30 1E | 	byte	$00, $00, $00, $08, $0c, $0c, $3f, $0c, $0c, $0c, $0c, $6c, $38, $18, $30, $1e
03d6c     30 18 00 00 
03d70     00 00 00 00 
03d74     00 00 00 00 
03d78     00 00 00 00 | 	byte	$30, $18, $00, $00, $00, $00, $00, $00, $00, $00, $00, $00, $00, $00, $00, $00
03d7c     00 00 00 00 
03d80     00 00 00 00 | 	byte	$00[8]
03d84     7F 00 00 00 
03d88     00 00 00 00 
03d8c     66 33 00 00 
03d90     00 00 00 00 | 	byte	$7f, $00, $00, $00, $00, $00, $00, $00, $66, $33, $00, $00, $00, $00, $00, $00
03d94     00 00 00 00 
03d98     00 00 00 00 
03d9c     00 00 00 00 
03da0     00 00 00 00 
03da4     00 00 00 00 
03da8     00          | 	byte	$00[21]
03da9     0C 06 3C 36 
03dad     1C 00 00 00 
03db1     00 00 00 00 
03db5     00 00 00 00 | 	byte	$0c, $06, $3c, $36, $1c, $00, $00, $00, $00, $00, $00, $00, $00, $00, $00, $00
03db9     00 00 00 63 
03dbd     3E 00 00 00 
03dc1     00 00 00 00 
03dc5     00 00 00 00 | 	byte	$00, $00, $00, $63, $3e, $00, $00, $00, $00, $00, $00, $00, $00, $00, $00, $00
03dc9     00 00 00 00 
03dcd     3E 63 06 1C 
03dd1     36 63 63 36 
03dd5     1C 30 63 3E | 	byte	$00, $00, $00, $00, $3e, $63, $06, $1c, $36, $63, $63, $36, $1c, $30, $63, $3e
03dd9     00 00 00 00 
03ddd     00 00 00 00 | 	byte	$00[8]
03de1     18 00 7E 00 
03de5     18 00 00 00 
03de9     00 00 00 00 
03ded     00 00 00 00 | 	byte	$18, $00, $7e, $00, $18, $00, $00, $00, $00, $00, $00, $00, $00, $00, $00, $00
03df1     00 00 00 00 
03df5     00 00 00 00 | 	byte	$00[8]
03df9     18 30 1E 00 
03dfd     00 00 1C 36 
03e01     36 1C 00 00 
03e05     00 00 00 00 | 	byte	$18, $30, $1e, $00, $00, $00, $1c, $36, $36, $1c, $00, $00, $00, $00, $00, $00
03e09     00 00 00 00 
03e0d     63 00 00 00 
03e11     00 00 00 00 
03e15     00 00 00 00 | 	byte	$00, $00, $00, $00, $63, $00, $00, $00, $00, $00, $00, $00, $00, $00, $00, $00
03e19     00 00 00 18 
03e1d     18 00 00 00 
03e21     00 00 00 00 
03e25     00 00 00 00 | 	byte	$00, $00, $00, $18, $18, $00, $00, $00, $00, $00, $00, $00, $00, $00, $00, $00
03e29     00 00 00 00 
03e2d     00          | 	byte	$00[5]
03e2e     CC 66 33 00 
03e32     33 33 33 33 
03e36     33 33 6E 00 
03e3a     00 00 36 1C | 	byte	$cc, $66, $33, $00, $33, $33, $33, $33, $33, $33, $6e, $00, $00, $00, $36, $1c
03e3e     00 3F 66 66 
03e42     66 3E 36 66 
03e46     66 66 6F 00 
03e4a     00 00 00 00 | 	byte	$00, $3f, $66, $66, $66, $3e, $36, $66, $66, $66, $6f, $00, $00, $00, $00, $00
03e4e     36 1C 08 00 
03e52     3B 6E 66 06 
03e56     06 06 0F 00 
03e5a     00 00 00 00 | 	byte	$36, $1c, $08, $00, $3b, $6e, $66, $06, $06, $06, $0f, $00, $00, $00, $00, $00
03e5e     00 00 00 7E 
03e62     7E 7E 7E 7E 
03e66     7E 7E 00 00 
03e6a     00 00 00 00 | 	byte	$00, $00, $00, $7e, $7e, $7e, $7e, $7e, $7e, $7e, $00, $00, $00, $00, $00, $00
03e6e     00 00 00 00 
03e72     00 00 00 00 
03e76     00 00 00 00 
03e7a     00 00       | 	byte	$00, $00, $00, $00, $00, $00, $00, $00, $00, $00, $00, $00, $00, $00
03e7c                 | 
03e7c     00 00 00 00 
03e80     00          | ataripalette            file "ataripalettep2.def"
03e81     11 11 11 00 
03e85     22 22 22 00 
03e89     33 33 33 00 
03e8d     44 44 44 00 | 	byte	$11, $11, $11, $00, $22, $22, $22, $00, $33, $33, $33, $00, $44, $44, $44, $00
03e91     55 55 55 00 
03e95     66 66 66 00 
03e99     77 77 77 00 
03e9d     88 88 88 00 | 	byte	$55, $55, $55, $00, $66, $66, $66, $00, $77, $77, $77, $00, $88, $88, $88, $00
03ea1     99 99 99 00 
03ea5     AA AA AA 00 
03ea9     BB BB BB 00 
03ead     CC CC CC 00 | 	byte	$99, $99, $99, $00, $aa, $aa, $aa, $00, $bb, $bb, $bb, $00, $cc, $cc, $cc, $00
03eb1     DD DD DD 00 
03eb5     EE EE EE 00 
03eb9     FF FF FF 00 
03ebd     00 0A 20 00 | 	byte	$dd, $dd, $dd, $00, $ee, $ee, $ee, $00, $ff, $ff, $ff, $00, $00, $0a, $20, $00
03ec1     00 14 40 00 
03ec5     00 1E 60 00 
03ec9     00 28 80 00 
03ecd     00 32 9F 00 | 	byte	$00, $14, $40, $00, $00, $1e, $60, $00, $00, $28, $80, $00, $00, $32, $9f, $00
03ed1     00 3C BF 00 
03ed5     00 46 DF 00 
03ed9     00 50 FF 00 
03edd     1C 63 FF 00 | 	byte	$00, $3c, $bf, $00, $00, $46, $df, $00, $00, $50, $ff, $00, $1c, $63, $ff, $00
03ee1     39 77 FF 00 
03ee5     55 8A FF 00 
03ee9     71 9E FF 00 
03eed     8E B1 FF 00 | 	byte	$39, $77, $ff, $00, $55, $8a, $ff, $00, $71, $9e, $ff, $00, $8e, $b1, $ff, $00
03ef1     AA C5 FF 00 
03ef5     C6 D8 FF 00 
03ef9     E3 EC FF 00 
03efd     00 00 20 00 | 	byte	$aa, $c5, $ff, $00, $c6, $d8, $ff, $00, $e3, $ec, $ff, $00, $00, $00, $20, $00
03f01     00 00 40 00 
03f05     00 00 60 00 
03f09     00 00 80 00 
03f0d     00 00 9F 00 | 	byte	$00, $00, $40, $00, $00, $00, $60, $00, $00, $00, $80, $00, $00, $00, $9f, $00
03f11     00 00 BF 00 
03f15     00 00 DF 00 
03f19     00 00 FF 00 
03f1d     1C 1C FF 00 | 	byte	$00, $00, $bf, $00, $00, $00, $df, $00, $00, $00, $ff, $00, $1c, $1c, $ff, $00
03f21     39 39 FF 00 
03f25     55 55 FF 00 
03f29     71 71 FF 00 
03f2d     8E 8E FF 00 | 	byte	$39, $39, $ff, $00, $55, $55, $ff, $00, $71, $71, $ff, $00, $8e, $8e, $ff, $00
03f31     AA AA FF 00 
03f35     C6 C6 FF 00 
03f39     E3 E3 FF 00 
03f3d     10 00 20 00 | 	byte	$aa, $aa, $ff, $00, $c6, $c6, $ff, $00, $e3, $e3, $ff, $00, $10, $00, $20, $00
03f41     20 00 40 00 
03f45     30 00 60 00 
03f49     40 00 80 00 
03f4d     50 00 9F 00 | 	byte	$20, $00, $40, $00, $30, $00, $60, $00, $40, $00, $80, $00, $50, $00, $9f, $00
03f51     60 00 BF 00 
03f55     70 00 DF 00 
03f59     80 00 FF 00 
03f5d     8E 1C FF 00 | 	byte	$60, $00, $bf, $00, $70, $00, $df, $00, $80, $00, $ff, $00, $8e, $1c, $ff, $00
03f61     9C 39 FF 00 
03f65     AA 55 FF 00 
03f69     B8 71 FF 00 
03f6d     C7 8E FF 00 | 	byte	$9c, $39, $ff, $00, $aa, $55, $ff, $00, $b8, $71, $ff, $00, $c7, $8e, $ff, $00
03f71     D5 AA FF 00 
03f75     E3 C6 FF 00 
03f79     F1 E3 FF 00 
03f7d     20 00 20 00 | 	byte	$d5, $aa, $ff, $00, $e3, $c6, $ff, $00, $f1, $e3, $ff, $00, $20, $00, $20, $00
03f81     40 00 40 00 
03f85     60 00 60 00 
03f89     80 00 80 00 
03f8d     9F 00 9F 00 | 	byte	$40, $00, $40, $00, $60, $00, $60, $00, $80, $00, $80, $00, $9f, $00, $9f, $00
03f91     BF 00 BF 00 
03f95     DF 00 DF 00 
03f99     FF 00 FF 00 
03f9d     FF 1C FF 00 | 	byte	$bf, $00, $bf, $00, $df, $00, $df, $00, $ff, $00, $ff, $00, $ff, $1c, $ff, $00
03fa1     FF 39 FF 00 
03fa5     FF 55 FF 00 
03fa9     FF 71 FF 00 
03fad     FF 8E FF 00 | 	byte	$ff, $39, $ff, $00, $ff, $55, $ff, $00, $ff, $71, $ff, $00, $ff, $8e, $ff, $00
03fb1     FF AA FF 00 
03fb5     FF C6 FF 00 
03fb9     FF E3 FF 00 
03fbd     20 00 10 00 | 	byte	$ff, $aa, $ff, $00, $ff, $c6, $ff, $00, $ff, $e3, $ff, $00, $20, $00, $10, $00
03fc1     40 00 20 00 
03fc5     60 00 30 00 
03fc9     80 00 40 00 
03fcd     9F 00 50 00 | 	byte	$40, $00, $20, $00, $60, $00, $30, $00, $80, $00, $40, $00, $9f, $00, $50, $00
03fd1     BF 00 60 00 
03fd5     DF 00 70 00 
03fd9     FF 00 80 00 
03fdd     FF 1C 8E 00 | 	byte	$bf, $00, $60, $00, $df, $00, $70, $00, $ff, $00, $80, $00, $ff, $1c, $8e, $00
03fe1     FF 39 9C 00 
03fe5     FF 55 AA 00 
03fe9     FF 71 B8 00 
03fed     FF 8E C7 00 | 	byte	$ff, $39, $9c, $00, $ff, $55, $aa, $00, $ff, $71, $b8, $00, $ff, $8e, $c7, $00
03ff1     FF AA D5 00 
03ff5     FF C6 E3 00 
03ff9     FF E3 F1 00 
03ffd     20 00 00 00 | 	byte	$ff, $aa, $d5, $00, $ff, $c6, $e3, $00, $ff, $e3, $f1, $00, $20, $00, $00, $00
04001     40 00 00 00 
04005     60 00 00 00 
04009     80 00 00 00 
0400d     9F 00 00 00 | 	byte	$40, $00, $00, $00, $60, $00, $00, $00, $80, $00, $00, $00, $9f, $00, $00, $00
04011     BF 00 00 00 
04015     DF 00 00 00 
04019     FF 00 00 00 
0401d     FF 1C 1C 00 | 	byte	$bf, $00, $00, $00, $df, $00, $00, $00, $ff, $00, $00, $00, $ff, $1c, $1c, $00
04021     FF 39 39 00 
04025     FF 55 55 00 
04029     FF 71 71 00 
0402d     FF 8E 8E 00 | 	byte	$ff, $39, $39, $00, $ff, $55, $55, $00, $ff, $71, $71, $00, $ff, $8e, $8e, $00
04031     FF AA AA 00 
04035     FF C6 C6 00 
04039     FF E3 E3 00 
0403d     20 08 00 00 | 	byte	$ff, $aa, $aa, $00, $ff, $c6, $c6, $00, $ff, $e3, $e3, $00, $20, $08, $00, $00
04041     40 10 00 00 
04045     60 18 00 00 
04049     80 20 00 00 
0404d     9F 28 00 00 | 	byte	$40, $10, $00, $00, $60, $18, $00, $00, $80, $20, $00, $00, $9f, $28, $00, $00
04051     BF 30 00 00 
04055     DF 38 00 00 
04059     FF 40 00 00 
0405d     FF 55 1C 00 | 	byte	$bf, $30, $00, $00, $df, $38, $00, $00, $ff, $40, $00, $00, $ff, $55, $1c, $00
04061     FF 6A 39 00 
04065     FF 80 55 00 
04069     FF 95 71 00 
0406d     FF AA 8E 00 | 	byte	$ff, $6a, $39, $00, $ff, $80, $55, $00, $ff, $95, $71, $00, $ff, $aa, $8e, $00
04071     FF BF AA 00 
04075     FF D5 C6 00 
04079     FF EA E3 00 
0407d     20 10 00 00 | 	byte	$ff, $bf, $aa, $00, $ff, $d5, $c6, $00, $ff, $ea, $e3, $00, $20, $10, $00, $00
04081     40 20 00 00 
04085     60 30 00 00 
04089     80 40 00 00 
0408d     9F 50 00 00 | 	byte	$40, $20, $00, $00, $60, $30, $00, $00, $80, $40, $00, $00, $9f, $50, $00, $00
04091     BF 60 00 00 
04095     DF 70 00 00 
04099     FF 80 00 00 
0409d     FF 8E 1C 00 | 	byte	$bf, $60, $00, $00, $df, $70, $00, $00, $ff, $80, $00, $00, $ff, $8e, $1c, $00
040a1     FF 9C 39 00 
040a5     FF AA 55 00 
040a9     FF B8 71 00 
040ad     FF C7 8E 00 | 	byte	$ff, $9c, $39, $00, $ff, $aa, $55, $00, $ff, $b8, $71, $00, $ff, $c7, $8e, $00
040b1     FF D5 AA 00 
040b5     FF E3 C6 00 
040b9     FF F1 E3 00 
040bd     20 18 00 00 | 	byte	$ff, $d5, $aa, $00, $ff, $e3, $c6, $00, $ff, $f1, $e3, $00, $20, $18, $00, $00
040c1     40 30 00 00 
040c5     60 48 00 00 
040c9     80 60 00 00 
040cd     9F 78 00 00 | 	byte	$40, $30, $00, $00, $60, $48, $00, $00, $80, $60, $00, $00, $9f, $78, $00, $00
040d1     BF 90 00 00 
040d5     DF A8 00 00 
040d9     FF C0 00 00 
040dd     FF C7 1C 00 | 	byte	$bf, $90, $00, $00, $df, $a8, $00, $00, $ff, $c0, $00, $00, $ff, $c7, $1c, $00
040e1     FF CE 39 00 
040e5     FF D5 55 00 
040e9     FF DC 71 00 
040ed     FF E3 8E 00 | 	byte	$ff, $ce, $39, $00, $ff, $d5, $55, $00, $ff, $dc, $71, $00, $ff, $e3, $8e, $00
040f1     FF EA AA 00 
040f5     FF F1 C6 00 
040f9     FF F8 E3 00 
040fd     18 20 00 00 | 	byte	$ff, $ea, $aa, $00, $ff, $f1, $c6, $00, $ff, $f8, $e3, $00, $18, $20, $00, $00
04101     30 40 00 00 
04105     48 60 00 00 
04109     60 80 00 00 
0410d     78 9F 00 00 | 	byte	$30, $40, $00, $00, $48, $60, $00, $00, $60, $80, $00, $00, $78, $9f, $00, $00
04111     90 BF 00 00 
04115     A8 DF 00 00 
04119     C0 FF 00 00 
0411d     C7 FF 1C 00 | 	byte	$90, $bf, $00, $00, $a8, $df, $00, $00, $c0, $ff, $00, $00, $c7, $ff, $1c, $00
04121     CE FF 39 00 
04125     D5 FF 55 00 
04129     DC FF 71 00 
0412d     E3 FF 8E 00 | 	byte	$ce, $ff, $39, $00, $d5, $ff, $55, $00, $dc, $ff, $71, $00, $e3, $ff, $8e, $00
04131     EA FF AA 00 
04135     F1 FF C6 00 
04139     F8 FF E3 00 
0413d     00 20 00 00 | 	byte	$ea, $ff, $aa, $00, $f1, $ff, $c6, $00, $f8, $ff, $e3, $00, $00, $20, $00, $00
04141     00 40 00 00 
04145     00 60 00 00 
04149     00 80 00 00 
0414d     00 9F 00 00 | 	byte	$00, $40, $00, $00, $00, $60, $00, $00, $00, $80, $00, $00, $00, $9f, $00, $00
04151     00 BF 00 00 
04155     00 DF 00 00 
04159     00 FF 00 00 
0415d     1C FF 1C 00 | 	byte	$00, $bf, $00, $00, $00, $df, $00, $00, $00, $ff, $00, $00, $1c, $ff, $1c, $00
04161     39 FF 39 00 
04165     55 FF 55 00 
04169     71 FF 71 00 
0416d     8E FF 8E 00 | 	byte	$39, $ff, $39, $00, $55, $ff, $55, $00, $71, $ff, $71, $00, $8e, $ff, $8e, $00
04171     AA FF AA 00 
04175     C6 FF C6 00 
04179     E3 FF E3 00 
0417d     00 20 0A 00 | 	byte	$aa, $ff, $aa, $00, $c6, $ff, $c6, $00, $e3, $ff, $e3, $00, $00, $20, $0a, $00
04181     00 40 14 00 
04185     00 60 1E 00 
04189     00 80 28 00 
0418d     00 9F 32 00 | 	byte	$00, $40, $14, $00, $00, $60, $1e, $00, $00, $80, $28, $00, $00, $9f, $32, $00
04191     00 BF 3C 00 
04195     00 DF 46 00 
04199     00 FF 50 00 
0419d     1C FF 63 00 | 	byte	$00, $bf, $3c, $00, $00, $df, $46, $00, $00, $ff, $50, $00, $1c, $ff, $63, $00
041a1     39 FF 77 00 
041a5     55 FF 8A 00 
041a9     71 FF 9E 00 
041ad     8E FF B1 00 | 	byte	$39, $ff, $77, $00, $55, $ff, $8a, $00, $71, $ff, $9e, $00, $8e, $ff, $b1, $00
041b1     AA FF C5 00 
041b5     C6 FF D8 00 
041b9     E3 FF EC 00 
041bd     00 20 14 00 | 	byte	$aa, $ff, $c5, $00, $c6, $ff, $d8, $00, $e3, $ff, $ec, $00, $00, $20, $14, $00
041c1     00 40 28 00 
041c5     00 60 3C 00 
041c9     00 80 50 00 
041cd     00 9F 64 00 | 	byte	$00, $40, $28, $00, $00, $60, $3c, $00, $00, $80, $50, $00, $00, $9f, $64, $00
041d1     00 BF 78 00 
041d5     00 DF 8C 00 
041d9     00 FF A0 00 
041dd     1C FF AB 00 | 	byte	$00, $bf, $78, $00, $00, $df, $8c, $00, $00, $ff, $a0, $00, $1c, $ff, $ab, $00
041e1     39 FF B5 00 
041e5     55 FF C0 00 
041e9     71 FF CA 00 
041ed     8E FF D5 00 | 	byte	$39, $ff, $b5, $00, $55, $ff, $c0, $00, $71, $ff, $ca, $00, $8e, $ff, $d5, $00
041f1     AA FF DF 00 
041f5     C6 FF EA 00 
041f9     E3 FF F4 00 
041fd     00 20 20 00 | 	byte	$aa, $ff, $df, $00, $c6, $ff, $ea, $00, $e3, $ff, $f4, $00, $00, $20, $20, $00
04201     00 40 40 00 
04205     00 60 60 00 
04209     00 80 80 00 
0420d     00 9F 9F 00 | 	byte	$00, $40, $40, $00, $00, $60, $60, $00, $00, $80, $80, $00, $00, $9f, $9f, $00
04211     00 BF BF 00 
04215     00 DF DF 00 
04219     00 FF FF 00 
0421d     1C FF FF 00 | 	byte	$00, $bf, $bf, $00, $00, $df, $df, $00, $00, $ff, $ff, $00, $1c, $ff, $ff, $00
04221     39 FF FF 00 
04225     55 FF FF 00 
04229     71 FF FF 00 
0422d     8E FF FF 00 | 	byte	$39, $ff, $ff, $00, $55, $ff, $ff, $00, $71, $ff, $ff, $00, $8e, $ff, $ff, $00
04231     AA FF FF 00 
04235     C6 FF FF 00 
04239     E3 FF FF 00 
0423d     00 14 20 00 | 	byte	$aa, $ff, $ff, $00, $c6, $ff, $ff, $00, $e3, $ff, $ff, $00, $00, $14, $20, $00
04241     00 28 40 00 
04245     00 3C 60 00 
04249     00 50 80 00 
0424d     00 64 9F 00 | 	byte	$00, $28, $40, $00, $00, $3c, $60, $00, $00, $50, $80, $00, $00, $64, $9f, $00
04251     00 78 BF 00 
04255     00 8C DF 00 
04259     00 A0 FF 00 
0425d     1C AB FF 00 | 	byte	$00, $78, $bf, $00, $00, $8c, $df, $00, $00, $a0, $ff, $00, $1c, $ab, $ff, $00
04261     39 B5 FF 00 
04265     55 C0 FF 00 
04269     71 CA FF 00 
0426d     8E D5 FF 00 | 	byte	$39, $b5, $ff, $00, $55, $c0, $ff, $00, $71, $ca, $ff, $00, $8e, $d5, $ff, $00
04271     AA DF FF 00 
04275     C6 EA FF 00 
04279     E3 F4 FF    | 	byte	$aa, $df, $ff, $00, $c6, $ea, $ff, $00, $e3, $f4, $ff
0427c                 | 
0427c     3C 00 66 FD | hdmi            setcmod #$100                           'enable HDMI mode
04280     58 E0 67 FD |                 drvl    #7<<6 + hdmi_base               'enable HDMI pins
04284     7B 0B 80 FF 
04288     F0 01 0F FC |                 wrpin   ##%10110_1111_0111_10_00000_0, #7<<6 + hdmi_base      ' a '123 ohm BITDAC for pins
0428c     66 66 86 FF 
04290     1D 9A 65 FD |                 setxfrq ##$0CCCCCCC+1                   'set streamer freq to 1/10th clk (25 MHz)
04294                 | 
04294     28 10 64 FD |                 setq    #8
04298     61 0B 05 FB |                 rdlong  framebuf,  ptra++               'read pointers
0429c     28 12 64 FD |                 setq    #9
042a0     8A E0 00 FB |                 rdlong  m_bs,modeptr                    'read timings
042a4     29 FE 65 FD |                 setq2   #255
042a8     8B 00 00 FB |                 rdlong  $000, paletteptr                'read palette
042ac                 | 
042ac                 | '' Blank lines before the frame
042ac                 | 
042ac     01 FE 04 F1 | p101            add     frames,#1
042b0     8D 08 01 FB | 				rdlong  fontstart,fontnumptr
042b4     86 08 01 F1 | 				add     fontstart,fontbuf
042b8     89 00 01 FB |                 rdlong  cursorx, cursorptr
042bc     80 02 E9 F8 |                 getbyte cursory, cursorx,#1
042c0     80 FC F0 F8 |                 getbyte cursorsh,cursorx,#2
042c4     FF 00 05 F5 |                 and     cursorx,#255
042c8                 | 
042c8     87 1C 01 F6 |                 mov     borderptr2,borderptr
042cc     8E DE 00 FB |                 rdlong  border,borderptr2
042d0     04 1C 05 F1 |                 add     borderptr2,#4
042d4     08 DE 64 F0 |                 shl     border,#8
042d8                 | 
042d8     8C 28 01 FB |                 rdlong  t1,commandptr
042dc     04 18 05 F1 |                 add     commandptr,#4
042e0     8C 2A 01 FB |                 rdlong  t2,commandptr
042e4     04 18 85 F1 |                 sub     commandptr,#4
042e8     01 29 1D F2 |                 cmp     t1,#257  wcz
042ec     94 2A 31 CC |          if_lt  wrlut   t2,t1
042f0     01 29 05 F6 |                 mov     t1, #257
042f4     8C 28 61 FC |                 wrlong  t1,commandptr
042f8     6B 22 01 F6 |                 mov     hsync0,sync_000                 'vsync off
042fc     6C 24 01 F6 |                 mov     hsync1,sync_001
04300     43 EE 44 FB |                 callpa  i_upporch ,#blank
04304     88 00 48 FC |                 wrbyte  #0,vblankptr
04308                 | 
04308                 | '' Upper border.
04308                 | 
04308     04 FE 0C F4 |                 testb   frames,#4 wz                    'cursor blinks at framerate/16, todo: define
0430c     65 00 05 A6 |          if_z   mov     cursorx,#101
04310                 | 
04310                 | 
04310     76 1E 01 F6 |                 mov     ii, i_vborder
04314                 | 
04314     04 01 B0 FD | up_border       call    #hsync
04318     6F E6 C0 FC |                 xcont   m_vi,border
0431c     FD 1F 6D FB |                 djnz    ii,#up_border
04320                 | 
04320                 | '' 480 active lines
04320                 | 
04320     E0 1F 05 F6 |                 mov     ii,#480
04324     00 F6 04 F6 |                 mov     linenum,#0
04328                 | 
04328     80 06 01 F6 | line1           mov     cursorpos2,cursorx
0432c                 | 
0432c     7B 26 41 F8 |                 getnib  fontline,linenum,#0             'fontline is 0 to 15, a line in font def
04330     85 20 01 F6 |                 mov     framebuf2,framebuf              'compute a line start in the framebuffer, which is (line div 16)*100
04334     7B F4 00 F6 |                 mov     linestart,linenum
04338     04 F4 44 F0 |                 shr     linestart,#4
0433c     81 F4 08 F2 |                 cmp     linestart,cursory wz
04340     78 06 05 56 |          if_nz  mov     cursorpos2,#120
04344     90 F5 04 FA |                 mul     linestart,#400
04348     7A 20 01 F1 |                 add     framebuf2,linestart
0434c     CC 00 B0 FD |                 call    #hsync
04350     00 26 0D F2 |                 cmp     fontline,#0 wz
04354     0C 00 90 5D |          if_nz  jmp     #p102                          'if fontline >0, display it
04358                 | 
04358     8E DE 00 FB |                 rdlong  border,borderptr2
0435c     04 1C 05 F1 |                 add     borderptr2,#4
04360     08 DE 64 F0 |                 shl     border,#8
04364                 | 
04364     6F E8 C0 FC | p102            xcont   m_border,border                 'display a left border
04368     7E 26 19 F2 |                 cmp     fontline,cursorsh wcz
0436c     65 04 05 C6 |          if_c   mov     cursorpos,#101
04370     83 04 01 36 |         if_nc   mov     cursorpos,cursorpos2
04374     01 04 05 F1 |                 add     cursorpos,#1
04378     84 2A 01 F6 |                 mov     t2,fontstart
0437c     93 2A 01 F1 |                 add     t2,fontline
04380                 | 
04380     64 26 DC FC |                 rep     @p103,#100                      'display 100 chars
04384                 | ''---------------------------------------------------------------------------------------
04384     90 2C 01 FB |                         rdlong  char,framebuf2                                                      '2
04388     96 2E F1 F8 |                         getbyte backcolor,char,#2                                                   '4
0438c     96 30 F9 F8 |                         getbyte charcolor,char,#3                                                   '6
04390     96 2C E1 F8 |                         getbyte char,char, #0                                                       '8
04394     04 20 05 F1 |                         add     framebuf2,#4                                                        '10
04398     04 2C 65 F0 |                         shl     char,#4                                                             '12
0439c     95 2C 01 F1 |                         add     char,t2                                                             '14
043a0     96 28 C1 FA |                         rdbyte  t1,char                                                             '16
043a4     01 04 8D F1 |                         sub     cursorpos,#1 wz                                                     '18
043a8     FF 28 65 A5 |                 if_z    xor     t1, #$FF                                                            '20
043ac     94 EA C0 FC |                         xcont   m_lut1,t1                                                           '22
043b0                 | 
043b0     97 28 A1 FA |                         rdlut   t1,backcolor                                                        '25
043b4     7D 28 31 FC |                         wrlut   t1,lutaddr                                                          '28
043b8     01 FA 04 F1 |                         add     lutaddr,#1                                                          '30
043bc                 | 
043bc     98 28 A1 FA |                         rdlut   t1,charcolor                                                        '33
043c0     7D 28 31 FC |                         wrlut   t1,lutaddr                                                          '46
043c4     01 FA 84 F1 |                         sub     lutaddr,#1                                                          '38
043c8                 | 
043c8     7C EA 60 F5 |                         xor     m_lut1,a00010000                                                    '40
043cc     20 FA 64 F5 |                         xor     lutaddr,#32                                                         '42    .....    38 left
043d0                 | 
043d0                 | '' rep end ----------------------------------------------------------------------------
043d0                 | 
043d0                 | 
043d0     6F E8 C0 FC | p103            xcont   m_border,border                     'display a right border
043d4                 | 
043d4     01 F6 04 F1 |                 add     linenum, #1
043d8     D3 1F 6D FB |                 djnz    ii,#line1
043dc                 | 
043dc                 | '' end of active screen
043dc     88 02 68 FC |                 wrlong  #1,vblankptr
043e0     76 1E 01 F6 |                 mov     ii,i_vborder                         'lower border
043e4                 | 
043e4                 | 
043e4     8E DE 00 FB |                 rdlong  border,borderptr2
043e8     04 1C 05 F1 |                 add     borderptr2,#4
043ec     08 DE 64 F0 |                 shl     border,#8
043f0     28 00 B0 FD | down_border     call    #hsync
043f4     6F E6 C0 FC |                 xcont   m_vi,border
043f8     FD 1F 6D FB |                 djnz    ii,#down_border
043fc     04 F2 44 FB |                 callpa  i_downporch ,#blank                  'bottom blanks
04400                 | 
04400     6D 22 01 F6 |                 mov     hsync0,sync_222                      'vsync on
04404     6E 24 01 F6 |                 mov     hsync1,sync_223
04408     01 F0 44 FB |                 callpa  i_vsync,#blank                       'vertical sync blanks
0440c     9C FE 9F FD |                 jmp     #p101                                'loop
04410                 | 
04410                 | '' Subroutines
04410                 | 
04410     08 00 B0 FD | blank           call    #hsync                          'blank lines
04414     91 E6 C0 FC |                 xcont   m_vi,hsync0
04418     FD ED 6F 0B |         _ret_   djnz    pa,#blank
0441c                 | 
0441c     91 E0 C0 FC | hsync           xcont   m_bs,hsync0                     'horizontal sync
04420     92 E2 B0 FC |                 xzero   m_sn,hsync1
04424     91 E4 C0 0C |         _ret_   xcont   m_bv,hsync0
04428                 | 
04428                 | '' consts and vars
04428                 | 
04428     52 4D 35 D5 | sync_000        long    %1101010100_1101010100_1101010100_10    '
0442c     AE 42 35 D5 | sync_001        long    %1101010100_1101010100_0010101011_10    '        hsync
04430     52 45 15 55 | sync_222        long    %0101010100_0101010100_0101010100_10    'vsync
04434     AE 4A 15 55 | sync_223        long    %0101010100_0101010100_1010101011_10    'vsync + hsync
04438                 | 
04438     00 2C 1A 00 | border          long    %00000000_00011010_00101100_00000000
0443c                 | 
0443c     10 00 E1 70 | m_bs            long    $70810000 + hdmi_base<<17 + 16          'before sync
04440     50 00 E1 70 | m_sn            long    $70810000 + hdmi_base<<17 + 80          'sync
04444     14 00 E1 70 | m_bv            long    $70810000 + hdmi_base<<17 + 20          'before visible
04448     00 04 E1 70 | m_vi            long    $70810000 + hdmi_base<<17 + 1024        'visible 1024
0444c     70 00 E1 70 | m_border        long    $70810000 + hdmi_base<<17 + 112         'immediate 112
04450     08 00 E0 00 | m_lut1          long    $00800000 + hdmi_base<<17 + 8          ' imm+lut, 1 char
04454     30 00 00 00 | i_vborder       long    48
04458     10 00 00 00 | i_upporch       long    16
0445c     10 00 00 00 | i_vsync         long    16
04460     10 00 00 00 | i_downporch     long    16
04464                 | 
04464     00 00 00 00 | linestart       long    0
04468     00 00 00 00 | linenum         long    0
0446c     00 00 01 00 | a00010000       long    $00010000
04470     00 01 00 00 | lutaddr         long    256
04474                 | 
04474     0E 00 00 00 | cursorsh        long    14
04478     00 00 00 00 | frames          long    0
0447c     00 00 00 00 | cursorx         long    0
04480     00 00 00 00 | cursory         long    0
04484     00 00 00 00 | cursorpos       long    0
04488     00 00 00 00 | cursorpos2      long    0
0448c     00 00 00 00 | fontstart	    long 	0
04490                 | objmem
04490     00 00 00 00 
      ...             
074d8     00 00 00 00 
074dc     00 00 00 00 | 	long	0[3092]
074e0                 | stackspace
074e0     00 00 00 00 | 	long	0[1]
074e4 07d             | 	org	COG_BSS_START
074e4 07d             | _var01
074e4 07d             | 	res	1
074e4 07e             | _var02
074e4 07e             | 	res	1
074e4 07f             | _var03
074e4 07f             | 	res	1
074e4 080             | _var04
074e4 080             | 	res	1
074e4 081             | _var05
074e4 081             | 	res	1
074e4 082             | _var06
074e4 082             | 	res	1
074e4 083             | _var07
074e4 083             | 	res	1
074e4 084             | arg01
074e4 084             | 	res	1
074e4 085             | arg02
074e4 085             | 	res	1
074e4 086             | arg03
074e4 086             | 	res	1
074e4 087             | arg04
074e4 087             | 	res	1
074e4 088             | arg05
074e4 088             | 	res	1
074e4 089             | local01
074e4 089             | 	res	1
074e4 08a             | local02
074e4 08a             | 	res	1
074e4 08b             | local03
074e4 08b             | 	res	1
074e4 08c             | local04
074e4 08c             | 	res	1
074e4 08d             | local05
074e4 08d             | 	res	1
074e4 08e             | local06
074e4 08e             | 	res	1
074e4 08f             | local07
074e4 08f             | 	res	1
074e4 090             | local08
074e4 090             | 	res	1
074e4 091             | local09
074e4 091             | 	res	1
074e4 092             | local10
074e4 092             | 	res	1
074e4 093             | local11
074e4 093             | 	res	1
074e4 094             | local12
074e4 094             | 	res	1
074e4 095             | local13
074e4 095             | 	res	1
074e4 096             | local14
074e4 096             | 	res	1
074e4 097             | local15
074e4 097             | 	res	1
074e4 098             | local16
074e4 098             | 	res	1
074e4 099             | local17
074e4 099             | 	res	1
074e4 09a             | local18
074e4 09a             | 	res	1
074e4 09b             | muldiva_
074e4 09b             | 	res	1
074e4 09c             | muldivb_
074e4 09c             | 	res	1
074e4 09d             | 	fit	480