
00000                 | 
00000                 | #line 1 "D:/programowanie/20210307-ultibo-propeller/ultibo-propeller/Propeller/testprop.p2asm"
00000                 | dat
00000 000 00 00 00 00 | 	nop
00004 001 01 EC 63 FD | 	cogid	pa
00008 002 02 00 00 FF 
0000c 003 00 EC E7 FC | 	coginit	pa,##$400
00010                 | 	orgh	$10
00010     00 00 00 00 | 	long	0	'reserved
00014     00 00 00 00 | 	long	0 ' clock frequency: will default to 160000000
00018     00 00 00 00 | 	long	0 ' clock mode: will default to $10007fb
0001c     00 00 00 00 
      ...             
003f8     00 00 00 00 
003fc     00 00 00 00 | 	orgh	$400
00400 000             | 	org	0
00400 000             | entry
00400 000 00 F0 0F F2 | 	cmp	ptra, #0 wz
00404 001 94 00 90 5D |  if_ne	jmp	#spininit
00408 002 79 F0 03 F6 | 	mov	ptra, objptr
0040c 003 00 F0 07 F1 | 	add	ptra, #0
00410 004 14 EC 0F FB | 	rdlong	pa, #20 wz
00414 005 68 00 90 5D |  if_ne	jmp	#skip_clock_set_
00418 006 00 00 64 FD | 	hubset	#0
0041c 007 03 80 80 FF 
00420 008 00 F0 67 FD | 	hubset	##16779256
00424 009 86 01 80 FF 
00428 00a 1F 80 66 FD | 	waitx	##200000
0042c 00b 03 80 00 FF 
00430 00c FB ED 07 F6 | 	mov	pa, ##16779259
00434 00d 00 EC 63 FD | 	hubset	pa
00438 00e 18 EC 67 FC | 	wrlong	pa, #24
0043c 00f B4 C4 84 FF 
00440 010 14 00 6C FC | 	wrlong	##160000000, #20
00444 011 38 00 90 FD | 	jmp	#skip_clock_set_
00448 012 00 00 00 00 
      ...             
00478 01e 00 00 00 00 
0047c 01f 00 00 00 00 | 	orgf	32
00480 020             | skip_clock_set_
00480 020 04 EC 60 FD | 	locknew	__lockreg
00484 021 7B EC 60 FC | 	wrlong	__lockreg, ptr___lockreg_
00488 022 5C 08 A0 FD | 	call	#_main
0048c 023             | cogexit
0048c 023 38 01 80 FF 
00490 024 1F 00 66 FD | 	waitx	##160000
00494 025 01 20 61 FD | 	cogid	arg01
00498 026 03 20 61 FD | 	cogstop	arg01
0049c 027             | spininit
0049c 027 00 F3 04 FB | 	rdlong	objptr, ptra
004a0 028 04 F0 07 F1 | 	add	ptra, #4
004a4 029 00 01 05 FB | 	rdlong	result1, ptra
004a8 02a 04 F0 07 F1 | 	add	ptra, #4
004ac 02b 00 21 05 FB | 	rdlong	arg01, ptra
004b0 02c 04 F0 07 F1 | 	add	ptra, #4
004b4 02d 00 23 05 FB | 	rdlong	arg02, ptra
004b8 02e 04 F0 07 F1 | 	add	ptra, #4
004bc 02f 00 25 05 FB | 	rdlong	arg03, ptra
004c0 030 04 F0 07 F1 | 	add	ptra, #4
004c4 031 00 27 05 FB | 	rdlong	arg04, ptra
004c8 032 10 F0 87 F1 | 	sub	ptra, #16
004cc 033 2D 00 61 FD | 	call	result1
004d0 034 B8 FF 9F FD | 	jmp	#cogexit
004d4 035             | FCACHE_LOAD_
004d4 035 2B 86 60 FD |     pop	fcache_tmpb_
004d8 036 F6 87 00 F1 |     add	fcache_tmpb_, pa
004dc 037 2A 86 60 FD |     push	fcache_tmpb_
004e0 038 F6 87 80 F1 |     sub	fcache_tmpb_, pa
004e4 039 02 EC 47 F0 |     shr	pa, #2
004e8 03a F6 85 00 F6 |     mov	fcache_tmpa_, pa
004ec 03b 00 85 04 F1 |     add	fcache_tmpa_, #$100
004f0 03c 42 82 30 FC |     wrlut ret_instr_, fcache_tmpa_
004f4 03d 01 EC 87 F1 |     sub	pa, #1
004f8 03e 29 EC 63 FD |     setq2	pa
004fc 03f 43 00 02 FB |     rdlong	$100-0, fcache_tmpb_
00500 040 00 03 80 FD |     jmp	#\$300 ' jmp to cache
00504 041             | ret_instr_
00504 041 2D 00 64 FD |     ret
00508 042             | fcache_tmpa_
00508 042 00 00 00 00 |     long 0
0050c 043             | fcache_tmpb_
0050c 043 00 00 00 00 |     long 0
00510 044             | COUNT_
00510 044 00 00 00 00 |     long 0
00514 045             | RETADDR_
00514 045 00 00 00 00 |     long 0
00518 046             | fp
00518 046 00 00 00 00 |     long 0
0051c 047             | gosub_
0051c 047 00 88 04 F6 |     mov  COUNT_, #0
00520 048 90 EC 03 F6 |     mov  pa, arg01
00524 049 2B 8A 60 FD |     pop  RETADDR_
00528 04a 1C 00 90 FD |     jmp  #pushregs_done_
0052c 04b             | pushregs_
0052c 04b 2B EC 63 FD |     pop  pa
00530 04c 2B 8A 60 FD |     pop  RETADDR_
00534 04d 04 88 94 FB |     tjz  COUNT_, #pushregs_done_
00538 04e 01 88 84 F1 |     sub  COUNT_, #1
0053c 04f 28 88 60 FD |     setq COUNT_
00540 050 00 2B 65 FC |     wrlong local01, ptra
00544 051 01 88 04 F1 |     add  COUNT_, #1
00548 052             | pushregs_done_
00548 052 02 88 64 F0 |     shl  COUNT_, #2
0054c 053 44 F0 03 F1 |     add  ptra, COUNT_
00550 054 02 88 44 F0 |     shr  COUNT_, #2
00554 055 28 04 64 FD |     setq #2 ' push 3 registers starting at COUNT_
00558 056 00 89 64 FC |     wrlong COUNT_, ptra
0055c 057 0C F0 07 F1 |     add    ptra, #12
00560 058 F8 8D 00 F6 |     mov    fp, ptra
00564 059 2C EC 63 FD |     jmp  pa
00568 05a             |  popregs_
00568 05a 2B EC 63 FD |     pop    pa
0056c 05b 0C F0 87 F1 |     sub    ptra, #12
00570 05c 28 04 64 FD |     setq   #2
00574 05d 00 89 04 FB |     rdlong COUNT_, ptra
00578 05e 06 88 94 FB |     tjz    COUNT_, #popregs__ret
0057c 05f 02 88 64 F0 |     shl    COUNT_, #2
00580 060 44 F0 83 F1 |     sub    ptra, COUNT_
00584 061 02 88 44 F0 |     shr    COUNT_, #2
00588 062 01 88 84 F1 |     sub    COUNT_, #1
0058c 063 28 88 60 FD |     setq   COUNT_
00590 064 00 2B 05 FB |     rdlong local01, ptra
00594 065             | popregs__ret
00594 065 2A 8A 60 FD |     push   RETADDR_
00598 066 2C EC 63 FD |     jmp    pa
0059c 067             | 
0059c 067             | unsdivide_
0059c 067 28 00 64 FD |        setq    #0
005a0 068 CE 9A 11 FD |        qdiv    muldiva_, muldivb_
005a4 069 18 9C 61 FD |        getqx   muldivb_
005a8 06a 19 9A 61 0D |  _ret_ getqy   muldiva_
005ac 06b             | 
005ac 06b             | divide_
005ac 06b CD 9A 51 F6 |        abs     muldiva_,muldiva_     wc       'abs(x)
005b0 06c 03 F0 84 F5 |        muxc    itmp2_,#%11                    'store sign of x
005b4 06d CE 9C 59 F6 |        abs     muldivb_,muldivb_     wcz      'abs(y)
005b8 06e 02 F0 64 C5 |  if_c  xor     itmp2_,#%10                    'store sign of y
005bc 06f 2D 00 64 AD |  if_z  ret
005c0 070 D8 FF BF FD |        call    #unsdivide_
005c4 071 01 F0 D4 F7 |        test    itmp2_,#1        wc       'restore sign, remainder
005c8 072 CD 9A 81 F6 |        negc    muldiva_,muldiva_ 
005cc 073 02 F0 D4 F7 |        test    itmp2_,#%10      wc       'restore sign, division result
005d0 074 CE 9C 81 06 |  _ret_ negc    muldivb_,muldivb_
005d4 075             | 
005d4 075             | __heap_ptr
005d4 075 68 A6 00 00 | 	long	@__heap_base
005d8 076             | __lockreg
005d8 076 00 00 00 00 | 	long	0
005dc 077             | itmp1_
005dc 077 00 00 00 00 | 	long	0
005e0 078             | itmp2_
005e0 078 00 00 00 00 | 	long	0
005e4 079             | objptr
005e4 079 70 B6 00 00 | 	long	@objmem
005e8 07a             | ptr____struct__fmtfile_putchar_
005e8 07a C8 21 00 00 | 	long	@___struct__fmtfile_putchar
005ec 07b             | ptr___lockreg_
005ec 07b D8 05 00 00 | 	long	@__lockreg
005f0 07c             | ptr___system__dat__
005f0 07c 54 A6 00 00 | 	long	@__system__dat_
005f4 07d             | ptr__dat__
005f4 07d D8 55 00 00 | 	long	@_dat_
005f8 07e             | ptr__hn008_spin2_dat__
005f8 07e 40 88 00 00 | 	long	@_hn008_spin2_dat_
005fc 07f             | ptr__hn008_spin2_putchar_
005fc 07f 5C 1C 00 00 | 	long	@_hn008_spin2_putchar
00600 080             | result1
00600 080 00 00 00 00 | 	long	0
00604 081             | result2
00604 081 00 00 00 00 | 	long	0
00608 082             | result3
00608 082 00 00 00 00 | 	long	0
0060c 083             | COG_BSS_START
0060c 083             | 	fit	480
0060c                 | 	orgh
0060c                 | hubentry
0060c                 | 
0060c                 | _write
0060c     03 88 04 F6 | 	mov	COUNT_, #3
00610     4B 00 A0 FD | 	call	#pushregs_
00614     90 2A 01 F6 | 	mov	local01, arg01
00618     91 2C 01 F6 | 	mov	local02, arg02
0061c     92 2E 01 F6 | 	mov	local03, arg03
00620     0A 2A 1D F2 | 	cmp	local01, #10 wcz
00624     0C 00 90 CD |  if_b	jmp	#LR__0001
00628                 | '         return _seterror( 5 );
00628     05 20 05 F6 | 	mov	arg01, #5
0062c     7C 34 B0 FD | 	call	#__system___seterror
00630     28 00 90 FD | 	jmp	#LR__0002
00634                 | LR__0001
00634     2C 2A 05 FD | 	qmul	local01, #44
00638     18 20 61 FD | 	getqx	arg01
0063c     18 00 00 FF 
00640     50 FA 04 F1 | 	add	ptr__dat__, ##12368
00644     7D 20 01 F1 | 	add	arg01, ptr__dat__
00648                 | '     }
00648                 | '     f = &__filetab[fd];
00648                 | '     return _vfswrite(f, vbuf, count);
00648     96 22 01 F6 | 	mov	arg02, local02
0064c     97 24 01 F6 | 	mov	arg03, local03
00650     18 00 00 FF 
00654     50 FA 84 F1 | 	sub	ptr__dat__, ##12368
00658     C0 07 B0 FD | 	call	#__vfswrite
0065c                 | LR__0002
0065c     46 F0 03 F6 | 	mov	ptra, fp
00660     5A 00 A0 FD | 	call	#popregs_
00664                 | _write_ret
00664     2D 00 64 FD | 	ret
00668                 | 
00668                 | _read
00668     03 88 04 F6 | 	mov	COUNT_, #3
0066c     4B 00 A0 FD | 	call	#pushregs_
00670     90 2A 01 F6 | 	mov	local01, arg01
00674     91 2C 01 F6 | 	mov	local02, arg02
00678     92 2E 01 F6 | 	mov	local03, arg03
0067c     0A 2A 1D F2 | 	cmp	local01, #10 wcz
00680     0C 00 90 CD |  if_b	jmp	#LR__0003
00684                 | '         return _seterror( 5 );
00684     05 20 05 F6 | 	mov	arg01, #5
00688     20 34 B0 FD | 	call	#__system___seterror
0068c     28 00 90 FD | 	jmp	#LR__0004
00690                 | LR__0003
00690     2C 2A 05 FD | 	qmul	local01, #44
00694     18 20 61 FD | 	getqx	arg01
00698     18 00 00 FF 
0069c     50 FA 04 F1 | 	add	ptr__dat__, ##12368
006a0     7D 20 01 F1 | 	add	arg01, ptr__dat__
006a4                 | '     }
006a4                 | '     f = &__filetab[fd];
006a4                 | '     return _vfsread(f, vbuf, count);
006a4     96 22 01 F6 | 	mov	arg02, local02
006a8     97 24 01 F6 | 	mov	arg03, local03
006ac     18 00 00 FF 
006b0     50 FA 84 F1 | 	sub	ptr__dat__, ##12368
006b4     F0 08 B0 FD | 	call	#__vfsread
006b8                 | LR__0004
006b8     46 F0 03 F6 | 	mov	ptra, fp
006bc     5A 00 A0 FD | 	call	#popregs_
006c0                 | _read_ret
006c0     2D 00 64 FD | 	ret
006c4                 | 
006c4                 | _lseek
006c4     09 88 04 F6 | 	mov	COUNT_, #9
006c8     4B 00 A0 FD | 	call	#pushregs_
006cc     90 2A 01 F6 | 	mov	local01, arg01
006d0     91 2C 01 F6 | 	mov	local02, arg02
006d4     92 2E 01 F6 | 	mov	local03, arg03
006d8     0A 2A 1D F2 | 	cmp	local01, #10 wcz
006dc     0C 00 90 CD |  if_b	jmp	#LR__0005
006e0                 | '         return _seterror( 5 );
006e0     05 20 05 F6 | 	mov	arg01, #5
006e4     C4 33 B0 FD | 	call	#__system___seterror
006e8     B0 00 90 FD | 	jmp	#LR__0009
006ec                 | LR__0005
006ec     2C 2A 05 FD | 	qmul	local01, #44
006f0     18 30 61 FD | 	getqx	local04
006f4     18 00 00 FF 
006f8     50 FA 04 F1 | 	add	ptr__dat__, ##12368
006fc     7D 30 01 F1 | 	add	local04, ptr__dat__
00700     28 30 05 F1 | 	add	local04, #40
00704     98 32 09 FB | 	rdlong	local05, local04 wz
00708     28 30 85 F1 | 	sub	local04, #40
0070c     18 00 00 FF 
00710     50 FA 84 F1 | 	sub	ptr__dat__, ##12368
00714     0C 00 90 5D |  if_ne	jmp	#LR__0006
00718                 | '         return _seterror( 16 );
00718     10 20 05 F6 | 	mov	arg01, #16
0071c     8C 33 B0 FD | 	call	#__system___seterror
00720     78 00 90 FD | 	jmp	#LR__0009
00724                 | LR__0006
00724     08 30 05 F1 | 	add	local04, #8
00728     98 32 01 FB | 	rdlong	local05, local04
0072c     08 30 85 F1 | 	sub	local04, #8
00730     40 32 CD F7 | 	test	local05, #64 wz
00734     14 00 90 AD |  if_e	jmp	#LR__0007
00738     08 30 05 F1 | 	add	local04, #8
0073c     98 32 01 FB | 	rdlong	local05, local04
00740     80 32 45 F5 | 	or	local05, #128
00744     98 32 61 FC | 	wrlong	local05, local04
00748     08 30 85 F1 | 	sub	local04, #8
0074c                 | LR__0007
0074c     28 30 05 F1 | 	add	local04, #40
00750     98 32 01 FB | 	rdlong	local05, local04
00754     28 30 85 F1 | 	sub	local04, #40
00758     99 34 01 FB | 	rdlong	local06, local05
0075c     04 32 05 F1 | 	add	local05, #4
00760     99 36 01 FB | 	rdlong	local07, local05
00764     98 20 01 F6 | 	mov	arg01, local04
00768     96 22 01 F6 | 	mov	arg02, local02
0076c     97 24 01 F6 | 	mov	arg03, local03
00770     79 38 01 F6 | 	mov	local08, objptr
00774     9A F2 00 F6 | 	mov	objptr, local06
00778     2D 36 61 FD | 	call	local07
0077c     9C F2 00 F6 | 	mov	objptr, local08
00780     80 3A 01 F6 | 	mov	local09, result1
00784     00 3A 5D F2 | 	cmps	local09, #0 wcz
00788     0C 00 90 3D |  if_ae	jmp	#LR__0008
0078c                 | '         return _seterror(-r);
0078c     9D 20 61 F6 | 	neg	arg01, local09
00790     18 33 B0 FD | 	call	#__system___seterror
00794     04 00 90 FD | 	jmp	#LR__0009
00798                 | LR__0008
00798                 | '     }
00798                 | '     return r;
00798     9D 00 01 F6 | 	mov	result1, local09
0079c                 | LR__0009
0079c     46 F0 03 F6 | 	mov	ptra, fp
007a0     5A 00 A0 FD | 	call	#popregs_
007a4                 | _lseek_ret
007a4     2D 00 64 FD | 	ret
007a8                 | 
007a8                 | ___getftab
007a8     0A 20 1D F2 | 	cmp	arg01, #10 wcz
007ac                 | '         return 0;
007ac     00 00 05 36 |  if_ae	mov	result1, #0
007b0     1C 00 90 3D |  if_ae	jmp	#___getftab_ret
007b4     2C 20 05 FD | 	qmul	arg01, #44
007b8     18 00 61 FD | 	getqx	result1
007bc     18 00 00 FF 
007c0     50 FA 04 F1 | 	add	ptr__dat__, ##12368
007c4     7D 00 01 F1 | 	add	result1, ptr__dat__
007c8                 | '     }
007c8                 | '     return &__filetab[i];
007c8     18 00 00 FF 
007cc     50 FA 84 F1 | 	sub	ptr__dat__, ##12368
007d0                 | ___getftab_ret
007d0     2D 00 64 FD | 	ret
007d4                 | 
007d4                 | _printf
007d4     02 88 04 F6 | 	mov	COUNT_, #2
007d8     4B 00 A0 FD | 	call	#pushregs_
007dc     24 F0 07 F1 | 	add	ptra, #36
007e0     04 8C 04 F1 | 	add	fp, #4
007e4     46 20 61 FC | 	wrlong	arg01, fp
007e8     04 8C 04 F1 | 	add	fp, #4
007ec     46 22 61 FC | 	wrlong	arg02, fp
007f0     08 8C 84 F1 | 	sub	fp, #8
007f4     01 20 05 F6 | 	mov	arg01, #1
007f8     AC FF BF FD | 	call	#___getftab
007fc     10 8C 04 F1 | 	add	fp, #16
00800     46 00 61 FC | 	wrlong	result1, fp
00804     08 8C 84 F1 | 	sub	fp, #8
00808     46 2A 01 FB | 	rdlong	local01, fp
0080c     46 2A 61 FC | 	wrlong	local01, fp
00810     08 8C 04 F1 | 	add	fp, #8
00814     46 20 01 F6 | 	mov	arg01, fp
00818     7A 22 01 F6 | 	mov	arg02, ptr____struct__fmtfile_putchar_
0081c     08 8C 84 F1 | 	sub	fp, #8
00820     46 2C 01 F6 | 	mov	local02, fp
00824     08 8C 84 F1 | 	sub	fp, #8
00828     F8 1B B0 FD | 	call	#__system___make_methodptr
0082c     80 20 01 F6 | 	mov	arg01, result1
00830     04 8C 04 F1 | 	add	fp, #4
00834     46 22 01 FB | 	rdlong	arg02, fp
00838     04 8C 84 F1 | 	sub	fp, #4
0083c     96 24 01 F6 | 	mov	arg03, local02
00840     48 0A B0 FD | 	call	#__dofmt
00844     0C 8C 04 F1 | 	add	fp, #12
00848     46 00 61 FC | 	wrlong	result1, fp
0084c                 | '     r = _dofmt( &ff.putchar, fmt, &args);
0084c                 | '     ;
0084c                 | '     return r;
0084c     0C 8C 84 F1 | 	sub	fp, #12
00850     46 F0 03 F6 | 	mov	ptra, fp
00854     5A 00 A0 FD | 	call	#popregs_
00858                 | _printf_ret
00858     2D 00 64 FD | 	ret
0085c                 | 
0085c                 | _main
0085c     10 88 04 F6 | 	mov	COUNT_, #16
00860     4B 00 A0 FD | 	call	#pushregs_
00864     7D 2A 01 F6 | 	mov	local01, ptr__dat__
00868     7F 2C 01 F6 | 	mov	local02, ptr__hn008_spin2_putchar_
0086c     01 20 05 F6 | 	mov	arg01, #1
00870     34 FF BF FD | 	call	#___getftab
00874     80 2E 01 F6 | 	mov	local03, result1
00878     95 20 01 F6 | 	mov	arg01, local01
0087c     96 22 01 F6 | 	mov	arg02, local02
00880     A0 1B B0 FD | 	call	#__system___make_methodptr
00884     80 30 01 F6 | 	mov	local04, result1
00888     14 2E 05 F1 | 	add	local03, #20
0088c     97 30 61 FC | 	wrlong	local04, local03
00890     7D 32 01 F6 | 	mov	local05, ptr__dat__
00894     00 21 05 F6 | 	mov	arg01, #256
00898     79 34 01 F6 | 	mov	local06, objptr
0089c     99 F2 00 F6 | 	mov	objptr, local05
008a0     28 F2 04 F1 | 	add	objptr, #40
008a4     79 36 01 F6 | 	mov	local07, objptr
008a8                 | ' 
008a8                 | ' ' mode=0 - start at PAL timings, 624 lines
008a8                 | ' ' mode=256 - start at NTSC timings, 524 lines
008a8                 | ' 
008a8                 | ' '**********************************************************************************
008a8                 | ' '
008a8                 | ' '           Starts the driver
008a8                 | ' '
008a8                 | ' '**********************************************************************************
008a8                 | ' 
008a8                 | ' ' initialize pointers
008a8                 | ' 
008a8                 | ' border_ptr:=@bordercolor
008a8     20 F2 84 F1 | 	sub	objptr, #32
008ac     79 36 61 FC | 	wrlong	local07, objptr
008b0                 | ' font_ptr:=@st_font
008b0     04 F2 84 F1 | 	sub	objptr, #4
008b4     79 FC 60 FC | 	wrlong	ptr__hn008_spin2_dat__, objptr
008b8     A4 F2 04 F1 | 	add	objptr, #164
008bc     79 38 01 F6 | 	mov	local08, objptr
008c0                 | ' buf_ptr:=@buf
008c0     A8 F2 84 F1 | 	sub	objptr, #168
008c4     79 38 61 FC | 	wrlong	local08, objptr
008c8     17 00 00 FF 
008cc     A4 F3 04 F1 | 	add	objptr, ##12196
008d0     79 3A 01 F6 | 	mov	local09, objptr
008d4                 | ' vblank_ptr:=@vblank
008d4     17 00 00 FF 
008d8     98 F3 84 F1 | 	sub	objptr, ##12184
008dc     79 3A 61 FC | 	wrlong	local09, objptr
008e0     17 00 00 FF 
008e4     7C F3 04 F1 | 	add	objptr, ##12156
008e8     79 3C 01 F6 | 	mov	local10, objptr
008ec                 | ' cursor_ptr:=@cursor_x
008ec     17 00 00 FF 
008f0     78 F3 84 F1 | 	sub	objptr, ##12152
008f4     79 3C 61 FC | 	wrlong	local10, objptr
008f8     17 00 00 FF 
008fc     A4 F3 04 F1 | 	add	objptr, ##12196
00900     79 3E 01 F6 | 	mov	local11, objptr
00904                 | ' mode_ptr:=@timings
00904     17 00 00 FF 
00908     A0 F3 84 F1 | 	sub	objptr, ##12192
0090c     79 3E 61 FC | 	wrlong	local11, objptr
00910     0C 00 00 FF 
00914     00 FC 04 F1 | 	add	ptr__hn008_spin2_dat__, ##6144
00918                 | ' palette_ptr:=@ataripalette
00918     04 F2 04 F1 | 	add	objptr, #4
0091c     79 FC 60 FC | 	wrlong	ptr__hn008_spin2_dat__, objptr
00920     17 00 00 FF 
00924     C4 F3 04 F1 | 	add	objptr, ##12228
00928     79 40 01 F6 | 	mov	local12, objptr
0092c                 | ' command_ptr:=@cmd1
0092c     17 00 00 FF 
00930     C0 F3 84 F1 | 	sub	objptr, ##12224
00934     79 40 61 FC | 	wrlong	local12, objptr
00938     17 00 00 FF 
0093c     C8 F3 04 F1 | 	add	objptr, ##12232
00940     79 42 01 F6 | 	mov	local13, objptr
00944                 | ' fontnum_ptr:=@fontnum
00944     17 00 00 FF 
00948     C4 F3 84 F1 | 	sub	objptr, ##12228
0094c     79 42 61 FC | 	wrlong	local13, objptr
00950                 | ' 
00950                 | ' fontnum:=2048  ' ST type font
00950     17 00 00 FF 
00954     C4 F3 04 F1 | 	add	objptr, ##12228
00958     04 00 80 FF 
0095c     79 00 68 FC | 	wrlong	##2048, objptr
00960                 | ' 
00960                 | ' ' initialize a cursor
00960                 | ' 
00960                 | ' cursor_x:=0
00960     5C F2 84 F1 | 	sub	objptr, #92
00964     79 00 48 FC | 	wrbyte	#0, objptr
00968                 | ' cursor_y:=0
00968     01 F2 04 F1 | 	add	objptr, #1
0096c     79 00 48 FC | 	wrbyte	#0, objptr
00970                 | ' cursor_sh:=14
00970     01 F2 04 F1 | 	add	objptr, #1
00974     79 1C 48 FC | 	wrbyte	#14, objptr
00978                 | ' 
00978                 | ' ' set 16 VGA DOS like colors
00978                 | ' 
00978                 | ' colors[0] := c_black
00978     0A F2 04 F1 | 	add	objptr, #10
0097c     79 00 48 FC | 	wrbyte	#0, objptr
00980                 | ' colors[1] := c_blue
00980     01 F2 04 F1 | 	add	objptr, #1
00984     79 EA 48 FC | 	wrbyte	#117, objptr
00988                 | ' colors[2] := c_green
00988     01 F2 04 F1 | 	add	objptr, #1
0098c     79 8E 49 FC | 	wrbyte	#199, objptr
00990                 | ' colors[3] := c_cyan
00990     01 F2 04 F1 | 	add	objptr, #1
00994     79 2E 49 FC | 	wrbyte	#151, objptr
00998                 | ' colors[4] := c_red
00998     01 F2 04 F1 | 	add	objptr, #1
0099c     79 4E 48 FC | 	wrbyte	#39, objptr
009a0                 | ' colors[5] := c_magenta
009a0     01 F2 04 F1 | 	add	objptr, #1
009a4     79 8E 48 FC | 	wrbyte	#71, objptr
009a8                 | ' colors[6] := c_brown
009a8     01 F2 04 F1 | 	add	objptr, #1
009ac     79 EC 49 FC | 	wrbyte	#246, objptr
009b0                 | ' colors[7] := c_lightgray
009b0     01 F2 04 F1 | 	add	objptr, #1
009b4     79 14 48 FC | 	wrbyte	#10, objptr
009b8                 | ' colors[8] := c_darkgray
009b8     01 F2 04 F1 | 	add	objptr, #1
009bc     79 0A 48 FC | 	wrbyte	#5, objptr
009c0                 | ' colors[9] := c_lightblue
009c0     01 F2 04 F1 | 	add	objptr, #1
009c4     79 F6 48 FC | 	wrbyte	#123, objptr
009c8                 | ' colors[$A]:= c_lightgreen
009c8     01 F2 04 F1 | 	add	objptr, #1
009cc     79 96 49 FC | 	wrbyte	#203, objptr
009d0                 | ' colors[$B]:= c_lightcyan
009d0     01 F2 04 F1 | 	add	objptr, #1
009d4     79 36 49 FC | 	wrbyte	#155, objptr
009d8                 | ' colors[$C]:= c_lightred
009d8     01 F2 04 F1 | 	add	objptr, #1
009dc     79 56 48 FC | 	wrbyte	#43, objptr
009e0                 | ' colors[$D]:= c_lightmagenta
009e0     01 F2 04 F1 | 	add	objptr, #1
009e4     79 96 48 FC | 	wrbyte	#75, objptr
009e8                 | ' colors[$E]:= c_yellow
009e8     01 F2 04 F1 | 	add	objptr, #1
009ec     79 D4 49 FC | 	wrbyte	#234, objptr
009f0                 | ' colors[$F]:= c_white
009f0     01 F2 04 F1 | 	add	objptr, #1
009f4     79 1E 48 FC | 	wrbyte	#15, objptr
009f8     17 00 00 FF 
009fc     A3 F3 84 F1 | 	sub	objptr, ##12195
00a00                 | ' 
00a00                 | ' ' set timings
00a00                 | ' ' We can have 1140,1026 or 912 pixes per line
00a00                 | ' 
00a00                 | ' setmode(mode)
00a00     0C 00 00 FF 
00a04     00 FC 84 F1 | 	sub	ptr__hn008_spin2_dat__, ##6144
00a08     40 14 B0 FD | 	call	#_hn008_spin2_setmode
00a0c                 | ' 
00a0c                 | ' 
00a0c                 | ' 
00a0c                 | '   {{
00a0c                 | '     }}
00a0c                 | ' 
00a0c                 | ' cmd1:=257 ' set idle
00a0c     17 00 00 FF 
00a10     DC F3 04 F1 | 	add	objptr, ##12252
00a14     79 02 6A FC | 	wrlong	#257, objptr
00a18     17 00 00 FF 
00a1c     DC F3 84 F1 | 	sub	objptr, ##12252
00a20                 | ' cog:=coginit(16,@hdmi, @buf_ptr)
00a20     0E 00 00 FF 
00a24     00 FC 04 F1 | 	add	ptr__hn008_spin2_dat__, ##7168
00a28     7E 22 01 F6 | 	mov	arg02, ptr__hn008_spin2_dat__
00a2c     0E 00 00 FF 
00a30     00 FC 84 F1 | 	sub	ptr__hn008_spin2_dat__, ##7168
00a34     10 20 05 F6 | 	mov	arg01, #16
00a38     28 F2 60 FD | 	setq	objptr
00a3c     91 20 F1 FC | 	coginit	arg01, arg02 wc
00a40     01 20 65 C6 |  if_b	neg	arg01, #1
00a44     90 00 01 F6 | 	mov	result1, arg01
00a48     80 44 01 F6 | 	mov	local14, result1
00a4c     24 F2 04 F1 | 	add	objptr, #36
00a50     79 44 61 FC | 	wrlong	local14, objptr
00a54     24 F2 84 F1 | 	sub	objptr, #36
00a58                 | ' waitms(20)
00a58     14 46 05 F6 | 	mov	local15, #20
00a5c     14 48 05 FB | 	rdlong	local16, #20
00a60     B4 F5 9F FE | 	loc	pa,	#(@LR__0011-@LR__0010)
00a64     35 00 A0 FD | 	call	#FCACHE_LOAD_
00a68                 | LR__0010
00a68     01 00 00 FF 
00a6c     E8 47 5D F2 | 	cmps	local15, ##1000 wcz
00a70     1F 48 61 1D |  if_a	waitx	local16
00a74     01 00 00 1F 
00a78     E8 47 85 11 |  if_a	sub	local15, ##1000
00a7c     E8 FF 9F 1D |  if_a	jmp	#LR__0010
00a80                 | LR__0011
00a80     00 46 5D F2 | 	cmps	local15, #0 wcz
00a84     1C 00 90 ED |  if_be	jmp	#LR__0012
00a88     A4 9A 01 F6 | 	mov	muldiva_, local16
00a8c     01 00 00 FF 
00a90     E8 9D 05 F6 | 	mov	muldivb_, ##1000
00a94     6B 00 A0 FD | 	call	#divide_
00a98     CE 46 01 FD | 	qmul	local15, muldivb_
00a9c     18 20 61 FD | 	getqx	arg01
00aa0     1F 20 61 FD | 	waitx	arg01
00aa4                 | LR__0012
00aa4                 | ' cls(c_green,c_black)
00aa4     FF 7F 1C FF 
00aa8     E0 23 65 F6 | 	neg	arg02, ##956301280
00aac                 | ' 
00aac                 | ' ''---------- Clear the screen, set its foreground/background color
00aac                 | ' 
00aac                 | ' c:=fc<<24+bc<<16+$20
00aac     A8 F2 04 F1 | 	add	objptr, #168
00ab0     79 20 01 F6 | 	mov	arg01, objptr
00ab4     A8 F2 84 F1 | 	sub	objptr, #168
00ab8                 | ' longfill(@buf,c,3000)
00ab8     05 00 00 FF 
00abc     B8 25 05 F6 | 	mov	arg03, ##3000
00ac0     4C F5 9F FE | 	loc	pa,	#(@LR__0015-@LR__0013)
00ac4     35 00 A0 FD | 	call	#FCACHE_LOAD_
00ac8                 | LR__0013
00ac8     05 00 00 FF 
00acc     B8 05 DC FC | 	rep	@LR__0016, ##3000
00ad0                 | LR__0014
00ad0     90 22 61 FC | 	wrlong	arg02, arg01
00ad4     04 20 05 F1 | 	add	arg01, #4
00ad8                 | LR__0015
00ad8                 | LR__0016
00ad8                 | '  setwritecolors(fc,bc)
00ad8     00 22 05 F6 | 	mov	arg02, #0
00adc                 | ' 
00adc                 | ' ''---------- Set colors for write and writeln
00adc                 | ' 
00adc                 | ' write_color:=ff
00adc     17 00 00 FF 
00ae0     8C F3 04 F1 | 	add	objptr, ##12172
00ae4     79 8E 69 FC | 	wrlong	#199, objptr
00ae8                 | ' write_background:=bb
00ae8     04 F2 04 F1 | 	add	objptr, #4
00aec     79 00 68 FC | 	wrlong	#0, objptr
00af0                 | ' setwritecolors(c_green,c_black)
00af0                 | ' 
00af0                 | ' ''---------- Set colors for write and writeln
00af0                 | ' 
00af0                 | ' write_color:=ff
00af0     04 F2 84 F1 | 	sub	objptr, #4
00af4     79 8E 69 FC | 	wrlong	#199, objptr
00af8                 | ' write_background:=bb
00af8     04 F2 04 F1 | 	add	objptr, #4
00afc     79 00 68 FC | 	wrlong	#0, objptr
00b00                 | ' 
00b00                 | ' return cog
00b00     17 00 00 FF 
00b04     6C F3 84 F1 | 	sub	objptr, ##12140
00b08     79 00 01 FB | 	rdlong	result1, objptr
00b0c     9A F2 00 F6 | 	mov	objptr, local06
00b10     2A 00 00 FF 
00b14     C6 21 05 F6 | 	mov	arg01, ##@LR__0420
00b18     B8 FC BF FD | 	call	#_printf
00b1c     2A 00 00 FF 
00b20     CD 21 05 F6 | 	mov	arg01, ##@LR__0421
00b24     AC FC BF FD | 	call	#_printf
00b28                 | ' 
00b28                 | '     printf("hello\n");
00b28                 | '     printf("HELLO\n");
00b28                 | '     return 0;
00b28     00 00 05 F6 | 	mov	result1, #0
00b2c     46 F0 03 F6 | 	mov	ptra, fp
00b30     5A 00 A0 FD | 	call	#popregs_
00b34                 | _main_ret
00b34     2D 00 64 FD | 	ret
00b38                 | 
00b38                 | ___default_getc
00b38     0A 88 04 F6 | 	mov	COUNT_, #10
00b3c     4B 00 A0 FD | 	call	#pushregs_
00b40     90 2A 01 FB | 	rdlong	local01, arg01
00b44     95 2C 09 FB | 	rdlong	local02, local01 wz
00b48     68 00 90 5D |  if_ne	jmp	#LR__0018
00b4c     90 2E 01 FB | 	rdlong	local03, arg01
00b50     0C 2E 05 F1 | 	add	local03, #12
00b54     97 22 01 F6 | 	mov	arg02, local03
00b58     0C 2E 85 F1 | 	sub	local03, #12
00b5c     0C 20 05 F1 | 	add	arg01, #12
00b60     90 30 01 FB | 	rdlong	local04, arg01
00b64     0C 20 85 F1 | 	sub	arg01, #12
00b68     98 32 01 FB | 	rdlong	local05, local04
00b6c     04 30 05 F1 | 	add	local04, #4
00b70     98 34 01 FB | 	rdlong	local06, local04
00b74     0A 24 C5 F9 | 	decod	arg03, #10
00b78     79 36 01 F6 | 	mov	local07, objptr
00b7c     99 F2 00 F6 | 	mov	objptr, local05
00b80     2D 34 61 FD | 	call	local06
00b84     9B F2 00 F6 | 	mov	objptr, local07
00b88     80 38 01 F6 | 	mov	local08, result1
00b8c     00 38 5D F2 | 	cmps	local08, #0 wcz
00b90                 | '         return -1;
00b90     01 00 65 C6 |  if_b	neg	result1, #1
00b94     18 00 90 CD |  if_b	jmp	#LR__0017
00b98     97 38 61 FC | 	wrlong	local08, local03
00b9c     0C 2E 05 F1 | 	add	local03, #12
00ba0     97 3A 01 F6 | 	mov	local09, local03
00ba4     08 2E 85 F1 | 	sub	local03, #8
00ba8     97 3A 61 FC | 	wrlong	local09, local03
00bac                 | '     }
00bac                 | '     b->cnt = r;
00bac                 | '     b->ptr = &b->buf[0];
00bac                 | '     return r;
00bac     9C 00 01 F6 | 	mov	result1, local08
00bb0                 | LR__0017
00bb0     80 2C 01 F6 | 	mov	local02, result1
00bb4                 | LR__0018
00bb4     00 2C 5D F2 | 	cmps	local02, #0 wcz
00bb8                 | '         return -1;
00bb8     01 00 65 E6 |  if_be	neg	result1, #1
00bbc     1C 00 90 ED |  if_be	jmp	#LR__0019
00bc0     01 2C 85 F1 | 	sub	local02, #1
00bc4     95 2C 61 FC | 	wrlong	local02, local01
00bc8     04 2A 05 F1 | 	add	local01, #4
00bcc     95 3C 01 FB | 	rdlong	local10, local01
00bd0     9E 00 C1 FA | 	rdbyte	result1, local10
00bd4     01 3C 05 F1 | 	add	local10, #1
00bd8     95 3C 61 FC | 	wrlong	local10, local01
00bdc                 | '     }
00bdc                 | '     b->cnt = i-1;
00bdc                 | '     ptr = b->ptr;
00bdc                 | '     i = *ptr++;
00bdc                 | '     b->ptr = ptr;
00bdc                 | '     return i;
00bdc                 | LR__0019
00bdc     46 F0 03 F6 | 	mov	ptra, fp
00be0     5A 00 A0 FD | 	call	#popregs_
00be4                 | ___default_getc_ret
00be4     2D 00 64 FD | 	ret
00be8                 | 
00be8                 | ___default_putc
00be8     04 88 04 F6 | 	mov	COUNT_, #4
00bec     4B 00 A0 FD | 	call	#pushregs_
00bf0     91 2A 01 FB | 	rdlong	local01, arg02
00bf4     90 2C 01 F6 | 	mov	local02, arg01
00bf8     95 2E 01 FB | 	rdlong	local03, local01
00bfc     97 30 01 F6 | 	mov	local04, local03
00c00     0C 2A 05 F1 | 	add	local01, #12
00c04     95 30 01 F1 | 	add	local04, local01
00c08     98 2C 41 FC | 	wrbyte	local02, local04
00c0c     FF 2C 05 F5 | 	and	local02, #255
00c10     01 2E 05 F1 | 	add	local03, #1
00c14     0C 2A 85 F1 | 	sub	local01, #12
00c18     95 2E 61 FC | 	wrlong	local03, local01
00c1c     02 00 00 FF 
00c20     00 2E 0D F2 | 	cmp	local03, ##1024 wz
00c24     10 00 90 5D |  if_ne	jmp	#LR__0020
00c28     91 20 01 F6 | 	mov	arg01, arg02
00c2c     84 00 B0 FD | 	call	#___default_flush
00c30     00 00 0D F2 | 	cmp	result1, #0 wz
00c34     01 2C 65 56 |  if_ne	neg	local02, #1
00c38                 | LR__0020
00c38                 | '             c = -1;
00c38                 | '         }
00c38                 | '     }
00c38                 | '     return c;
00c38     96 00 01 F6 | 	mov	result1, local02
00c3c     46 F0 03 F6 | 	mov	ptra, fp
00c40     5A 00 A0 FD | 	call	#popregs_
00c44                 | ___default_putc_ret
00c44     2D 00 64 FD | 	ret
00c48                 | 
00c48                 | ___default_putc_terminal
00c48     05 88 04 F6 | 	mov	COUNT_, #5
00c4c     4B 00 A0 FD | 	call	#pushregs_
00c50     91 2A 01 F6 | 	mov	local01, arg02
00c54     95 2C 01 FB | 	rdlong	local02, local01
00c58     96 2E 01 FB | 	rdlong	local03, local02
00c5c     97 30 01 F6 | 	mov	local04, local03
00c60     0C 2C 05 F1 | 	add	local02, #12
00c64     96 30 01 F1 | 	add	local04, local02
00c68     98 20 41 FC | 	wrbyte	arg01, local04
00c6c     90 32 01 F6 | 	mov	local05, arg01
00c70     FF 32 05 F5 | 	and	local05, #255
00c74     0C 2C 85 F1 | 	sub	local02, #12
00c78     01 2E 05 F1 | 	add	local03, #1
00c7c     96 2E 61 FC | 	wrlong	local03, local02
00c80     0A 32 0D F2 | 	cmp	local05, #10 wz
00c84     0C 00 90 AD |  if_e	jmp	#LR__0021
00c88     02 00 00 FF 
00c8c     00 2E 0D F2 | 	cmp	local03, ##1024 wz
00c90     10 00 90 5D |  if_ne	jmp	#LR__0022
00c94                 | LR__0021
00c94     95 20 01 F6 | 	mov	arg01, local01
00c98     18 00 B0 FD | 	call	#___default_flush
00c9c     00 00 0D F2 | 	cmp	result1, #0 wz
00ca0     01 32 65 56 |  if_ne	neg	local05, #1
00ca4                 | LR__0022
00ca4                 | '             c = -1;
00ca4                 | '         }
00ca4                 | '     }
00ca4                 | '     return c;
00ca4     99 00 01 F6 | 	mov	result1, local05
00ca8     46 F0 03 F6 | 	mov	ptra, fp
00cac     5A 00 A0 FD | 	call	#popregs_
00cb0                 | ___default_putc_terminal_ret
00cb0     2D 00 64 FD | 	ret
00cb4                 | 
00cb4                 | ___default_flush
00cb4     08 88 04 F6 | 	mov	COUNT_, #8
00cb8     4B 00 A0 FD | 	call	#pushregs_
00cbc     90 2A 01 F6 | 	mov	local01, arg01
00cc0     95 2C 01 FB | 	rdlong	local02, local01
00cc4     96 2E 01 FB | 	rdlong	local03, local02
00cc8     00 2E 5D F2 | 	cmps	local03, #0 wcz
00ccc     B4 00 90 ED |  if_be	jmp	#LR__0025
00cd0     08 2A 05 F1 | 	add	local01, #8
00cd4     95 30 01 FB | 	rdlong	local04, local01
00cd8     08 2A 85 F1 | 	sub	local01, #8
00cdc     40 30 CD F7 | 	test	local04, #64 wz
00ce0     5C 00 90 AD |  if_e	jmp	#LR__0024
00ce4     08 2A 05 F1 | 	add	local01, #8
00ce8     95 30 01 FB | 	rdlong	local04, local01
00cec     08 2A 85 F1 | 	sub	local01, #8
00cf0     80 30 CD F7 | 	test	local04, #128 wz
00cf4     48 00 90 AD |  if_e	jmp	#LR__0023
00cf8     28 2A 05 F1 | 	add	local01, #40
00cfc     95 30 01 FB | 	rdlong	local04, local01
00d00     28 2A 85 F1 | 	sub	local01, #40
00d04     98 32 01 FB | 	rdlong	local05, local04
00d08     04 30 05 F1 | 	add	local04, #4
00d0c     98 34 01 FB | 	rdlong	local06, local04
00d10     95 20 01 F6 | 	mov	arg01, local01
00d14     00 22 05 F6 | 	mov	arg02, #0
00d18     02 24 05 F6 | 	mov	arg03, #2
00d1c     79 36 01 F6 | 	mov	local07, objptr
00d20     99 F2 00 F6 | 	mov	objptr, local05
00d24     2D 34 61 FD | 	call	local06
00d28     9B F2 00 F6 | 	mov	objptr, local07
00d2c     08 2A 05 F1 | 	add	local01, #8
00d30     95 30 01 FB | 	rdlong	local04, local01
00d34     80 30 25 F5 | 	andn	local04, #128
00d38     95 30 61 FC | 	wrlong	local04, local01
00d3c     08 2A 85 F1 | 	sub	local01, #8
00d40                 | LR__0023
00d40                 | LR__0024
00d40     0C 2C 05 F1 | 	add	local02, #12
00d44     96 22 01 F6 | 	mov	arg02, local02
00d48     0C 2C 85 F1 | 	sub	local02, #12
00d4c     10 2A 05 F1 | 	add	local01, #16
00d50     95 30 01 FB | 	rdlong	local04, local01
00d54     10 2A 85 F1 | 	sub	local01, #16
00d58     98 32 01 FB | 	rdlong	local05, local04
00d5c     04 30 05 F1 | 	add	local04, #4
00d60     98 34 01 FB | 	rdlong	local06, local04
00d64     95 20 01 F6 | 	mov	arg01, local01
00d68     97 24 01 F6 | 	mov	arg03, local03
00d6c     79 36 01 F6 | 	mov	local07, objptr
00d70     99 F2 00 F6 | 	mov	objptr, local05
00d74     2D 34 61 FD | 	call	local06
00d78     9B F2 00 F6 | 	mov	objptr, local07
00d7c     80 38 01 F6 | 	mov	local08, result1
00d80     04 00 90 FD | 	jmp	#LR__0026
00d84                 | LR__0025
00d84     00 38 05 F6 | 	mov	local08, #0
00d88                 | LR__0026
00d88     96 00 68 FC | 	wrlong	#0, local02
00d8c     04 2C 05 F1 | 	add	local02, #4
00d90     96 00 68 FC | 	wrlong	#0, local02
00d94     97 38 59 F2 | 	cmps	local08, local03 wcz
00d98                 | '         return -1;
00d98     01 00 65 C6 |  if_b	neg	result1, #1
00d9c                 | '     }
00d9c                 | '     return 0;
00d9c     00 00 05 36 |  if_ae	mov	result1, #0
00da0     46 F0 03 F6 | 	mov	ptra, fp
00da4     5A 00 A0 FD | 	call	#popregs_
00da8                 | ___default_flush_ret
00da8     2D 00 64 FD | 	ret
00dac                 | 
00dac                 | __rxtxioctl_0011
00dac     02 88 04 F6 | 	mov	COUNT_, #2
00db0     4B 00 A0 FD | 	call	#pushregs_
00db4     91 2A 01 F6 | 	mov	local01, arg02
00db8     92 2C 01 F6 | 	mov	local02, arg03
00dbc                 | '     switch (req) {
00dbc     00 2B 0D F2 | 	cmp	local01, #256 wz
00dc0     0C 00 90 AD |  if_e	jmp	#LR__0027
00dc4     01 2B 0D F2 | 	cmp	local01, #257 wz
00dc8     1C 00 90 AD |  if_e	jmp	#LR__0028
00dcc     30 00 90 FD | 	jmp	#LR__0029
00dd0                 | LR__0027
00dd0     08 F8 04 F1 | 	add	ptr___system__dat__, #8
00dd4     7C 00 01 FB | 	rdlong	result1, ptr___system__dat__
00dd8     08 F8 84 F1 | 	sub	ptr___system__dat__, #8
00ddc     96 00 61 FC | 	wrlong	result1, local02
00de0                 | '         *argl = _getrxtxflags();
00de0                 | '         return 0;
00de0     00 00 05 F6 | 	mov	result1, #0
00de4     20 00 90 FD | 	jmp	#LR__0030
00de8                 | LR__0028
00de8     96 20 01 FB | 	rdlong	arg01, local02
00dec     08 F8 04 F1 | 	add	ptr___system__dat__, #8
00df0     7C 20 61 FC | 	wrlong	arg01, ptr___system__dat__
00df4     08 F8 84 F1 | 	sub	ptr___system__dat__, #8
00df8                 | '         _setrxtxflags(*argl);
00df8                 | '         return 0;
00df8     00 00 05 F6 | 	mov	result1, #0
00dfc     08 00 90 FD | 	jmp	#LR__0030
00e00                 | LR__0029
00e00                 | '         return _seterror( 10 );
00e00     0A 20 05 F6 | 	mov	arg01, #10
00e04     A4 2C B0 FD | 	call	#__system___seterror
00e08                 | LR__0030
00e08     46 F0 03 F6 | 	mov	ptra, fp
00e0c     5A 00 A0 FD | 	call	#popregs_
00e10                 | __rxtxioctl_0011_ret
00e10     2D 00 64 FD | 	ret
00e14                 | 
00e14                 | ___dummy_flush_0012
00e14                 | ' {
00e14                 | '     return 0;
00e14     00 00 05 F6 | 	mov	result1, #0
00e18                 | ___dummy_flush_0012_ret
00e18     2D 00 64 FD | 	ret
00e1c                 | 
00e1c                 | __vfswrite
00e1c     0B 88 04 F6 | 	mov	COUNT_, #11
00e20     4B 00 A0 FD | 	call	#pushregs_
00e24     90 2A 01 F6 | 	mov	local01, arg01
00e28     91 2C 01 F6 | 	mov	local02, arg02
00e2c     92 2E 01 F6 | 	mov	local03, arg03
00e30     96 30 01 F6 | 	mov	local04, local02
00e34     08 2A 05 F1 | 	add	local01, #8
00e38     95 32 01 FB | 	rdlong	local05, local01
00e3c     08 2A 85 F1 | 	sub	local01, #8
00e40     02 32 CD F7 | 	test	local05, #2 wz
00e44     0C 00 90 5D |  if_ne	jmp	#LR__0031
00e48                 | '         return _seterror( 6 );
00e48     06 20 05 F6 | 	mov	arg01, #6
00e4c     5C 2C B0 FD | 	call	#__system___seterror
00e50     48 01 90 FD | 	jmp	#LR__0039
00e54                 | LR__0031
00e54     08 2A 05 F1 | 	add	local01, #8
00e58     95 32 01 FB | 	rdlong	local05, local01
00e5c     08 2A 85 F1 | 	sub	local01, #8
00e60     40 32 CD F7 | 	test	local05, #64 wz
00e64     5C 00 90 AD |  if_e	jmp	#LR__0033
00e68     08 2A 05 F1 | 	add	local01, #8
00e6c     95 32 01 FB | 	rdlong	local05, local01
00e70     08 2A 85 F1 | 	sub	local01, #8
00e74     80 32 CD F7 | 	test	local05, #128 wz
00e78     48 00 90 AD |  if_e	jmp	#LR__0032
00e7c     28 2A 05 F1 | 	add	local01, #40
00e80     95 32 01 FB | 	rdlong	local05, local01
00e84     28 2A 85 F1 | 	sub	local01, #40
00e88     99 34 01 FB | 	rdlong	local06, local05
00e8c     04 32 05 F1 | 	add	local05, #4
00e90     99 36 01 FB | 	rdlong	local07, local05
00e94     95 20 01 F6 | 	mov	arg01, local01
00e98     00 22 05 F6 | 	mov	arg02, #0
00e9c     02 24 05 F6 | 	mov	arg03, #2
00ea0     79 38 01 F6 | 	mov	local08, objptr
00ea4     9A F2 00 F6 | 	mov	objptr, local06
00ea8     2D 36 61 FD | 	call	local07
00eac     9C F2 00 F6 | 	mov	objptr, local08
00eb0     08 2A 05 F1 | 	add	local01, #8
00eb4     95 32 01 FB | 	rdlong	local05, local01
00eb8     80 32 25 F5 | 	andn	local05, #128
00ebc     95 32 61 FC | 	wrlong	local05, local01
00ec0     08 2A 85 F1 | 	sub	local01, #8
00ec4                 | LR__0032
00ec4                 | LR__0033
00ec4     10 2A 05 F1 | 	add	local01, #16
00ec8     95 32 09 FB | 	rdlong	local05, local01 wz
00ecc     10 2A 85 F1 | 	sub	local01, #16
00ed0     64 00 90 AD |  if_e	jmp	#LR__0035
00ed4     10 2A 05 F1 | 	add	local01, #16
00ed8     95 32 01 FB | 	rdlong	local05, local01
00edc     10 2A 85 F1 | 	sub	local01, #16
00ee0     99 34 01 FB | 	rdlong	local06, local05
00ee4     04 32 05 F1 | 	add	local05, #4
00ee8     99 36 01 FB | 	rdlong	local07, local05
00eec     96 22 01 F6 | 	mov	arg02, local02
00ef0     97 24 01 F6 | 	mov	arg03, local03
00ef4     95 20 01 F6 | 	mov	arg01, local01
00ef8     79 38 01 F6 | 	mov	local08, objptr
00efc     9A F2 00 F6 | 	mov	objptr, local06
00f00     2D 36 61 FD | 	call	local07
00f04     9C F2 00 F6 | 	mov	objptr, local08
00f08     80 3A 01 F6 | 	mov	local09, result1
00f0c     00 3A 5D F2 | 	cmps	local09, #0 wcz
00f10     1C 00 90 3D |  if_ae	jmp	#LR__0034
00f14     08 2A 05 F1 | 	add	local01, #8
00f18     95 32 01 FB | 	rdlong	local05, local01
00f1c     20 32 45 F5 | 	or	local05, #32
00f20     95 32 61 FC | 	wrlong	local05, local01
00f24                 | '             f->state |=  (0x20) ;
00f24                 | '             return _seterror(r);
00f24     9D 20 01 F6 | 	mov	arg01, local09
00f28     80 2B B0 FD | 	call	#__system___seterror
00f2c     6C 00 90 FD | 	jmp	#LR__0039
00f30                 | LR__0034
00f30                 | '         }
00f30                 | '         return r;
00f30     9D 00 01 F6 | 	mov	result1, local09
00f34     64 00 90 FD | 	jmp	#LR__0039
00f38                 | LR__0035
00f38     14 2A 05 F1 | 	add	local01, #20
00f3c     95 3C 09 FB | 	rdlong	local10, local01 wz
00f40     14 2A 85 F1 | 	sub	local01, #20
00f44     0C 00 90 5D |  if_ne	jmp	#LR__0036
00f48                 | '         return _seterror( 6 );
00f48     06 20 05 F6 | 	mov	arg01, #6
00f4c     5C 2B B0 FD | 	call	#__system___seterror
00f50     48 00 90 FD | 	jmp	#LR__0039
00f54                 | LR__0036
00f54     00 3A 05 F6 | 	mov	local09, #0
00f58                 | '     }
00f58                 | '     r = 0;
00f58                 | '     while (count > 0) {
00f58                 | LR__0037
00f58     00 2E 1D F2 | 	cmp	local03, #0 wcz
00f5c     38 00 90 ED |  if_be	jmp	#LR__0038
00f60     9E 32 01 F6 | 	mov	local05, local10
00f64     99 34 01 FB | 	rdlong	local06, local05
00f68     04 32 05 F1 | 	add	local05, #4
00f6c     99 36 01 FB | 	rdlong	local07, local05
00f70     98 20 C1 FA | 	rdbyte	arg01, local04
00f74     95 22 01 F6 | 	mov	arg02, local01
00f78     79 3E 01 F6 | 	mov	local11, objptr
00f7c     9A F2 00 F6 | 	mov	objptr, local06
00f80     01 30 05 F1 | 	add	local04, #1
00f84     2D 36 61 FD | 	call	local07
00f88     9F F2 00 F6 | 	mov	objptr, local11
00f8c     80 3A 01 F1 | 	add	local09, result1
00f90     01 2E 85 F1 | 	sub	local03, #1
00f94     C0 FF 9F FD | 	jmp	#LR__0037
00f98                 | LR__0038
00f98                 | '         r += (*tx)(*buf++, f);
00f98                 | '         --count;
00f98                 | '     }
00f98                 | '     return r;
00f98     9D 00 01 F6 | 	mov	result1, local09
00f9c                 | LR__0039
00f9c     46 F0 03 F6 | 	mov	ptra, fp
00fa0     5A 00 A0 FD | 	call	#popregs_
00fa4                 | __vfswrite_ret
00fa4     2D 00 64 FD | 	ret
00fa8                 | 
00fa8                 | __vfsread
00fa8     0F 88 04 F6 | 	mov	COUNT_, #15
00fac     4B 00 A0 FD | 	call	#pushregs_
00fb0     2C F0 07 F1 | 	add	ptra, #44
00fb4     04 8C 04 F1 | 	add	fp, #4
00fb8     46 20 61 FC | 	wrlong	arg01, fp
00fbc     04 8C 04 F1 | 	add	fp, #4
00fc0     46 22 61 FC | 	wrlong	arg02, fp
00fc4     04 8C 04 F1 | 	add	fp, #4
00fc8     46 24 61 FC | 	wrlong	arg03, fp
00fcc     04 8C 84 F1 | 	sub	fp, #4
00fd0     46 2A 01 FB | 	rdlong	local01, fp
00fd4     14 8C 04 F1 | 	add	fp, #20
00fd8     46 2A 61 FC | 	wrlong	local01, fp
00fdc     04 8C 04 F1 | 	add	fp, #4
00fe0     46 00 68 FC | 	wrlong	#0, fp
00fe4     1C 8C 84 F1 | 	sub	fp, #28
00fe8     46 2C 01 FB | 	rdlong	local02, fp
00fec     04 8C 84 F1 | 	sub	fp, #4
00ff0     08 2C 05 F1 | 	add	local02, #8
00ff4     96 2A 01 FB | 	rdlong	local01, local02
00ff8     01 2A CD F7 | 	test	local01, #1 wz
00ffc     0C 00 90 5D |  if_ne	jmp	#LR__0040
01000                 | '         return _seterror( 6 );
01000     06 20 05 F6 | 	mov	arg01, #6
01004     A4 2A B0 FD | 	call	#__system___seterror
01008     74 02 90 FD | 	jmp	#LR__0048
0100c                 | LR__0040
0100c     04 8C 04 F1 | 	add	fp, #4
01010     46 2A 01 FB | 	rdlong	local01, fp
01014     04 8C 84 F1 | 	sub	fp, #4
01018     0C 2A 05 F1 | 	add	local01, #12
0101c     95 2E 09 FB | 	rdlong	local03, local01 wz
01020     9C 00 90 AD |  if_e	jmp	#LR__0042
01024     04 8C 04 F1 | 	add	fp, #4
01028     46 30 01 FB | 	rdlong	local04, fp
0102c     0C 30 05 F1 | 	add	local04, #12
01030     98 2A 01 FB | 	rdlong	local01, local04
01034     95 2C 01 FB | 	rdlong	local02, local01
01038     04 2A 05 F1 | 	add	local01, #4
0103c     95 2E 01 FB | 	rdlong	local03, local01
01040     46 20 01 FB | 	rdlong	arg01, fp
01044     04 8C 04 F1 | 	add	fp, #4
01048     46 22 01 FB | 	rdlong	arg02, fp
0104c     04 8C 04 F1 | 	add	fp, #4
01050     46 24 01 FB | 	rdlong	arg03, fp
01054     0C 8C 84 F1 | 	sub	fp, #12
01058     79 32 01 F6 | 	mov	local05, objptr
0105c     96 F2 00 F6 | 	mov	objptr, local02
01060     2D 2E 61 FD | 	call	local03
01064     99 F2 00 F6 | 	mov	objptr, local05
01068     10 8C 04 F1 | 	add	fp, #16
0106c     46 00 61 FC | 	wrlong	result1, fp
01070     10 8C 84 F1 | 	sub	fp, #16
01074     00 00 5D F2 | 	cmps	result1, #0 wcz
01078     34 00 90 3D |  if_ae	jmp	#LR__0041
0107c     04 8C 04 F1 | 	add	fp, #4
01080     46 2A 01 FB | 	rdlong	local01, fp
01084     95 30 01 F6 | 	mov	local04, local01
01088     08 30 05 F1 | 	add	local04, #8
0108c     98 2E 01 FB | 	rdlong	local03, local04
01090     20 2E 45 F5 | 	or	local03, #32
01094     08 2A 05 F1 | 	add	local01, #8
01098     95 2E 61 FC | 	wrlong	local03, local01
0109c                 | '             f->state |=  (0x20) ;
0109c                 | '             return _seterror(r);
0109c     0C 8C 04 F1 | 	add	fp, #12
010a0     46 20 01 FB | 	rdlong	arg01, fp
010a4     10 8C 84 F1 | 	sub	fp, #16
010a8     00 2A B0 FD | 	call	#__system___seterror
010ac     D0 01 90 FD | 	jmp	#LR__0048
010b0                 | LR__0041
010b0                 | '         }
010b0                 | '         return r;
010b0     10 8C 04 F1 | 	add	fp, #16
010b4     46 00 01 FB | 	rdlong	result1, fp
010b8     10 8C 84 F1 | 	sub	fp, #16
010bc     C0 01 90 FD | 	jmp	#LR__0048
010c0                 | LR__0042
010c0     04 8C 04 F1 | 	add	fp, #4
010c4     46 2A 01 FB | 	rdlong	local01, fp
010c8     18 2A 05 F1 | 	add	local01, #24
010cc     95 2E 01 FB | 	rdlong	local03, local01
010d0     14 8C 04 F1 | 	add	fp, #20
010d4     46 2E 61 FC | 	wrlong	local03, fp
010d8     97 2A 09 F6 | 	mov	local01, local03 wz
010dc     18 8C 84 F1 | 	sub	fp, #24
010e0     0C 00 90 5D |  if_ne	jmp	#LR__0043
010e4                 | '         return _seterror( 6 );
010e4     06 20 05 F6 | 	mov	arg01, #6
010e8     C0 29 B0 FD | 	call	#__system___seterror
010ec     90 01 90 FD | 	jmp	#LR__0048
010f0                 | LR__0043
010f0     04 8C 04 F1 | 	add	fp, #4
010f4     46 2A 01 FB | 	rdlong	local01, fp
010f8     04 8C 84 F1 | 	sub	fp, #4
010fc     20 2A 05 F1 | 	add	local01, #32
01100     95 2E 09 FB | 	rdlong	local03, local01 wz
01104     A0 00 90 AD |  if_e	jmp	#LR__0045
01108     24 8C 04 F1 | 	add	fp, #36
0110c     46 34 01 F6 | 	mov	local06, fp
01110     20 8C 84 F1 | 	sub	fp, #32
01114     46 36 01 FB | 	rdlong	local07, fp
01118     9B 30 01 F6 | 	mov	local04, local07
0111c     20 30 05 F1 | 	add	local04, #32
01120     98 38 01 FB | 	rdlong	local08, local04
01124     9C 2A 01 F6 | 	mov	local01, local08
01128     95 2C 01 FB | 	rdlong	local02, local01
0112c     04 2A 05 F1 | 	add	local01, #4
01130     95 3A 01 FB | 	rdlong	local09, local01
01134     9D 2E 01 F6 | 	mov	local03, local09
01138     9B 3C 01 F6 | 	mov	local10, local07
0113c     04 8C 84 F1 | 	sub	fp, #4
01140     9E 3E 01 F6 | 	mov	local11, local10
01144     00 41 05 F6 | 	mov	local12, #256
01148     9A 42 01 F6 | 	mov	local13, local06
0114c     9F 20 01 F6 | 	mov	arg01, local11
01150     00 23 05 F6 | 	mov	arg02, #256
01154     A1 24 01 F6 | 	mov	arg03, local13
01158     79 44 01 F6 | 	mov	local14, objptr
0115c     96 F2 00 F6 | 	mov	objptr, local02
01160     2D 2E 61 FD | 	call	local03
01164     A2 F2 00 F6 | 	mov	objptr, local14
01168     80 46 01 F6 | 	mov	local15, result1
0116c     10 8C 04 F1 | 	add	fp, #16
01170     46 46 61 FC | 	wrlong	local15, fp
01174     A3 2C 09 F6 | 	mov	local02, local15 wz
01178     10 8C 84 F1 | 	sub	fp, #16
0117c     28 00 90 5D |  if_ne	jmp	#LR__0044
01180     24 8C 04 F1 | 	add	fp, #36
01184     46 30 01 FB | 	rdlong	local04, fp
01188     24 8C 84 F1 | 	sub	fp, #36
0118c     98 2E 01 F6 | 	mov	local03, local04
01190     02 2E 0D F5 | 	and	local03, #2 wz
01194     10 00 90 AD |  if_e	jmp	#LR__0044
01198     01 2A 05 F6 | 	mov	local01, #1
0119c     20 8C 04 F1 | 	add	fp, #32
011a0     46 02 68 FC | 	wrlong	#1, fp
011a4     20 8C 84 F1 | 	sub	fp, #32
011a8                 | LR__0044
011a8                 | LR__0045
011a8     10 8C 04 F1 | 	add	fp, #16
011ac     46 00 68 FC | 	wrlong	#0, fp
011b0     10 8C 84 F1 | 	sub	fp, #16
011b4                 | '             break_on_nl = 1;
011b4                 | '         }
011b4                 | '     }
011b4                 | '     r = 0;
011b4                 | '     while (count > 0) {
011b4                 | LR__0046
011b4     0C 8C 04 F1 | 	add	fp, #12
011b8     46 2A 01 FB | 	rdlong	local01, fp
011bc     0C 8C 84 F1 | 	sub	fp, #12
011c0     00 2A 1D F2 | 	cmp	local01, #0 wcz
011c4     AC 00 90 ED |  if_be	jmp	#LR__0047
011c8     18 8C 04 F1 | 	add	fp, #24
011cc     46 2A 01 FB | 	rdlong	local01, fp
011d0     95 2C 01 FB | 	rdlong	local02, local01
011d4     04 2A 05 F1 | 	add	local01, #4
011d8     95 2E 01 FB | 	rdlong	local03, local01
011dc     14 8C 84 F1 | 	sub	fp, #20
011e0     46 20 01 FB | 	rdlong	arg01, fp
011e4     04 8C 84 F1 | 	sub	fp, #4
011e8     79 3E 01 F6 | 	mov	local11, objptr
011ec     96 F2 00 F6 | 	mov	objptr, local02
011f0     2D 2E 61 FD | 	call	local03
011f4     9F F2 00 F6 | 	mov	objptr, local11
011f8     80 3C 01 F6 | 	mov	local10, result1
011fc     14 8C 04 F1 | 	add	fp, #20
01200     46 3C 61 FC | 	wrlong	local10, fp
01204     14 8C 84 F1 | 	sub	fp, #20
01208     00 3C 5D F2 | 	cmps	local10, #0 wcz
0120c     64 00 90 CD |  if_b	jmp	#LR__0047
01210     1C 8C 04 F1 | 	add	fp, #28
01214     46 2A 01 FB | 	rdlong	local01, fp
01218     95 2E 01 F6 | 	mov	local03, local01
0121c     01 2E 05 F1 | 	add	local03, #1
01220     46 2E 61 FC | 	wrlong	local03, fp
01224     08 8C 84 F1 | 	sub	fp, #8
01228     46 36 01 FB | 	rdlong	local07, fp
0122c     95 36 41 FC | 	wrbyte	local07, local01
01230     04 8C 84 F1 | 	sub	fp, #4
01234     46 2A 01 FB | 	rdlong	local01, fp
01238     01 2A 05 F1 | 	add	local01, #1
0123c     46 2A 61 FC | 	wrlong	local01, fp
01240     04 8C 84 F1 | 	sub	fp, #4
01244     46 2A 01 FB | 	rdlong	local01, fp
01248     01 2A 85 F1 | 	sub	local01, #1
0124c     46 2A 61 FC | 	wrlong	local01, fp
01250     14 8C 04 F1 | 	add	fp, #20
01254     46 2A 09 FB | 	rdlong	local01, fp wz
01258     20 8C 84 F1 | 	sub	fp, #32
0125c     54 FF 9F AD |  if_e	jmp	#LR__0046
01260     14 8C 04 F1 | 	add	fp, #20
01264     46 2E 01 FB | 	rdlong	local03, fp
01268     14 8C 84 F1 | 	sub	fp, #20
0126c     0A 2E 0D F2 | 	cmp	local03, #10 wz
01270                 | '             break;
01270     40 FF 9F 5D |  if_ne	jmp	#LR__0046
01274                 | LR__0047
01274                 | '         }
01274                 | '     }
01274                 | '     return r;
01274     10 8C 04 F1 | 	add	fp, #16
01278     46 00 01 FB | 	rdlong	result1, fp
0127c     10 8C 84 F1 | 	sub	fp, #16
01280                 | LR__0048
01280     46 F0 03 F6 | 	mov	ptra, fp
01284     5A 00 A0 FD | 	call	#popregs_
01288                 | __vfsread_ret
01288     2D 00 64 FD | 	ret
0128c                 | 
0128c                 | __dofmt
0128c     1D 88 04 F6 | 	mov	COUNT_, #29
01290     4B 00 A0 FD | 	call	#pushregs_
01294     C0 F0 07 F1 | 	add	ptra, #192
01298     04 8C 04 F1 | 	add	fp, #4
0129c     46 20 61 FC | 	wrlong	arg01, fp
012a0     04 8C 04 F1 | 	add	fp, #4
012a4     46 22 61 FC | 	wrlong	arg02, fp
012a8     04 8C 04 F1 | 	add	fp, #4
012ac     46 24 61 FC | 	wrlong	arg03, fp
012b0     00 2A 05 F6 | 	mov	local01, #0
012b4     10 8C 04 F1 | 	add	fp, #16
012b8     46 00 68 FC | 	wrlong	#0, fp
012bc     08 8C 04 F1 | 	add	fp, #8
012c0     46 00 68 FC | 	wrlong	#0, fp
012c4     04 8C 04 F1 | 	add	fp, #4
012c8     46 00 68 FC | 	wrlong	#0, fp
012cc     08 8C 04 F1 | 	add	fp, #8
012d0     46 00 68 FC | 	wrlong	#0, fp
012d4     30 8C 84 F1 | 	sub	fp, #48
012d8                 | ' #line 139 "C:/Users/Piotr/Downloads/flexprop(2)/flexprop/include/libsys/dofmt.c"
012d8                 | '     for(;;) {
012d8                 | LR__0049
012d8     08 8C 04 F1 | 	add	fp, #8
012dc     46 2C 01 FB | 	rdlong	local02, fp
012e0     96 2E 01 F6 | 	mov	local03, local02
012e4     01 2E 05 F1 | 	add	local03, #1
012e8     46 2E 61 FC | 	wrlong	local03, fp
012ec     96 2A C1 FA | 	rdbyte	local01, local02
012f0     08 8C 04 F1 | 	add	fp, #8
012f4     46 2A 61 FC | 	wrlong	local01, fp
012f8     95 2A 09 F6 | 	mov	local01, local01 wz
012fc     10 8C 84 F1 | 	sub	fp, #16
01300     60 07 90 AD |  if_e	jmp	#LR__0075
01304     10 8C 04 F1 | 	add	fp, #16
01308     46 2A 01 FB | 	rdlong	local01, fp
0130c     10 8C 84 F1 | 	sub	fp, #16
01310     25 2A 0D F2 | 	cmp	local01, #37 wz
01314     6C 00 90 AD |  if_e	jmp	#LR__0051
01318     04 8C 04 F1 | 	add	fp, #4
0131c     46 2A 01 FB | 	rdlong	local01, fp
01320     95 2C 01 FB | 	rdlong	local02, local01
01324     04 2A 05 F1 | 	add	local01, #4
01328     95 30 01 FB | 	rdlong	local04, local01
0132c     0C 8C 04 F1 | 	add	fp, #12
01330     46 20 01 FB | 	rdlong	arg01, fp
01334     10 8C 84 F1 | 	sub	fp, #16
01338     79 32 01 F6 | 	mov	local05, objptr
0133c     96 F2 00 F6 | 	mov	objptr, local02
01340     2D 30 61 FD | 	call	local04
01344     99 F2 00 F6 | 	mov	objptr, local05
01348     14 8C 04 F1 | 	add	fp, #20
0134c     46 00 61 FC | 	wrlong	result1, fp
01350     14 8C 84 F1 | 	sub	fp, #20
01354     00 00 5D F2 | 	cmps	result1, #0 wcz
01358     10 00 90 3D |  if_ae	jmp	#LR__0050
0135c     14 8C 04 F1 | 	add	fp, #20
01360     46 00 01 FB | 	rdlong	result1, fp
01364     14 8C 84 F1 | 	sub	fp, #20
01368     04 07 90 FD | 	jmp	#LR__0076
0136c                 | LR__0050
0136c     1C 8C 04 F1 | 	add	fp, #28
01370     46 30 01 FB | 	rdlong	local04, fp
01374     01 30 05 F1 | 	add	local04, #1
01378     46 30 61 FC | 	wrlong	local04, fp
0137c     1C 8C 84 F1 | 	sub	fp, #28
01380                 | '             bytes_written++;
01380                 | '             continue;
01380     54 FF 9F FD | 	jmp	#LR__0049
01384                 | LR__0051
01384     20 8C 04 F1 | 	add	fp, #32
01388     46 34 01 F6 | 	mov	local06, fp
0138c     18 8C 84 F1 | 	sub	fp, #24
01390     46 20 01 FB | 	rdlong	arg01, fp
01394     08 8C 84 F1 | 	sub	fp, #8
01398     9A 22 01 F6 | 	mov	arg02, local06
0139c     54 07 B0 FD | 	call	#_parseflags_0104
013a0     80 2E 01 F6 | 	mov	local03, result1
013a4     08 8C 04 F1 | 	add	fp, #8
013a8     46 2E 61 FC | 	wrlong	local03, fp
013ac     18 8C 04 F1 | 	add	fp, #24
013b0     46 36 01 FB | 	rdlong	local07, fp
013b4     18 36 45 F0 | 	shr	local07, #24
013b8     9B 38 01 F6 | 	mov	local08, local07
013bc     03 38 05 F5 | 	and	local08, #3
013c0     10 8C 04 F1 | 	add	fp, #16
013c4     46 38 61 FC | 	wrlong	local08, fp
013c8     28 8C 84 F1 | 	sub	fp, #40
013cc     46 3A 01 F6 | 	mov	local09, fp
013d0     04 8C 04 F1 | 	add	fp, #4
013d4     46 22 01 FB | 	rdlong	arg02, fp
013d8     0C 8C 84 F1 | 	sub	fp, #12
013dc     9D 20 01 F6 | 	mov	arg01, local09
013e0     98 06 B0 FD | 	call	#_parseint_0097
013e4     80 2E 01 F6 | 	mov	local03, result1
013e8     24 8C 04 F1 | 	add	fp, #36
013ec     46 2E 61 FC | 	wrlong	local03, fp
013f0     1C 8C 84 F1 | 	sub	fp, #28
013f4     46 2A 01 FB | 	rdlong	local01, fp
013f8     95 3C C1 FA | 	rdbyte	local10, local01
013fc     08 8C 04 F1 | 	add	fp, #8
01400     46 3C 61 FC | 	wrlong	local10, fp
01404     9E 2A 09 F6 | 	mov	local01, local10 wz
01408     10 8C 84 F1 | 	sub	fp, #16
0140c     54 06 90 AD |  if_e	jmp	#LR__0075
01410     10 8C 04 F1 | 	add	fp, #16
01414     46 2A 01 FB | 	rdlong	local01, fp
01418     10 8C 84 F1 | 	sub	fp, #16
0141c     2E 2A 0D F2 | 	cmp	local01, #46 wz
01420     58 00 90 5D |  if_ne	jmp	#LR__0052
01424     08 8C 04 F1 | 	add	fp, #8
01428     46 30 01 FB | 	rdlong	local04, fp
0142c     01 30 05 F1 | 	add	local04, #1
01430     46 30 61 FC | 	wrlong	local04, fp
01434     46 3E 01 F6 | 	mov	local11, fp
01438     04 8C 04 F1 | 	add	fp, #4
0143c     46 22 01 FB | 	rdlong	arg02, fp
01440     0C 8C 84 F1 | 	sub	fp, #12
01444     9F 20 01 F6 | 	mov	arg01, local11
01448     30 06 B0 FD | 	call	#_parseint_0097
0144c     80 2A 01 F6 | 	mov	local01, result1
01450     01 2A 05 F1 | 	add	local01, #1
01454     28 8C 04 F1 | 	add	fp, #40
01458     46 2A 61 FC | 	wrlong	local01, fp
0145c     20 8C 84 F1 | 	sub	fp, #32
01460     46 2A 01 FB | 	rdlong	local01, fp
01464     95 40 C1 FA | 	rdbyte	local12, local01
01468     08 8C 04 F1 | 	add	fp, #8
0146c     46 40 61 FC | 	wrlong	local12, fp
01470     A0 2A 09 F6 | 	mov	local01, local12 wz
01474     10 8C 84 F1 | 	sub	fp, #16
01478     E8 05 90 AD |  if_e	jmp	#LR__0075
0147c                 | LR__0052
0147c     2C 8C 04 F1 | 	add	fp, #44
01480     46 42 01 F6 | 	mov	local13, fp
01484     24 8C 84 F1 | 	sub	fp, #36
01488     46 20 01 FB | 	rdlong	arg01, fp
0148c     08 8C 84 F1 | 	sub	fp, #8
01490     A1 22 01 F6 | 	mov	arg02, local13
01494     0C 07 B0 FD | 	call	#_parsesize_0108
01498     08 8C 04 F1 | 	add	fp, #8
0149c     46 00 61 FC | 	wrlong	result1, fp
014a0     80 2C 01 F6 | 	mov	local02, result1
014a4     80 2E 01 F6 | 	mov	local03, result1
014a8     01 2E 05 F1 | 	add	local03, #1
014ac     46 2E 61 FC | 	wrlong	local03, fp
014b0     96 2A C1 FA | 	rdbyte	local01, local02
014b4     08 8C 04 F1 | 	add	fp, #8
014b8     46 2A 61 FC | 	wrlong	local01, fp
014bc     95 2A 09 F6 | 	mov	local01, local01 wz
014c0     10 8C 84 F1 | 	sub	fp, #16
014c4     9C 05 90 AD |  if_e	jmp	#LR__0075
014c8     10 8C 04 F1 | 	add	fp, #16
014cc     46 2A 01 FB | 	rdlong	local01, fp
014d0     10 8C 84 F1 | 	sub	fp, #16
014d4     25 2A 0D F2 | 	cmp	local01, #37 wz
014d8     30 00 90 5D |  if_ne	jmp	#LR__0053
014dc     04 8C 04 F1 | 	add	fp, #4
014e0     46 20 01 FB | 	rdlong	arg01, fp
014e4     1C 8C 04 F1 | 	add	fp, #28
014e8     46 22 01 FB | 	rdlong	arg02, fp
014ec     20 8C 84 F1 | 	sub	fp, #32
014f0     25 24 05 F6 | 	mov	arg03, #37
014f4     90 10 B0 FD | 	call	#__system___fmtchar
014f8     80 44 01 F6 | 	mov	local14, result1
014fc     14 8C 04 F1 | 	add	fp, #20
01500     46 44 61 FC | 	wrlong	local14, fp
01504     14 8C 84 F1 | 	sub	fp, #20
01508                 | '             q = _fmtchar(fn, flags, '%');
01508                 | '             continue;
01508     CC FD 9F FD | 	jmp	#LR__0049
0150c                 | LR__0053
0150c     14 8C 04 F1 | 	add	fp, #20
01510     46 00 68 FC | 	wrlong	#0, fp
01514     08 8C 84 F1 | 	sub	fp, #8
01518     46 30 01 FB | 	rdlong	local04, fp
0151c     98 2E 01 FB | 	rdlong	local03, local04
01520     97 2A 01 FB | 	rdlong	local01, local03
01524     98 44 01 F6 | 	mov	local14, local04
01528     A2 46 01 F6 | 	mov	local15, local14
0152c     98 48 01 F6 | 	mov	local16, local04
01530     A4 32 01 F6 | 	mov	local05, local16
01534     99 4A 01 FB | 	rdlong	local17, local05
01538     04 4A 05 F1 | 	add	local17, #4
0153c     A3 4A 61 FC | 	wrlong	local17, local15
01540     28 8C 04 F1 | 	add	fp, #40
01544     46 2A 61 FC | 	wrlong	local01, fp
01548     24 8C 84 F1 | 	sub	fp, #36
0154c     46 2A 01 FB | 	rdlong	local01, fp
01550     10 8C 84 F1 | 	sub	fp, #16
01554     41 2A 5D F2 | 	cmps	local01, #65 wcz
01558     48 00 90 CD |  if_b	jmp	#LR__0054
0155c     10 8C 04 F1 | 	add	fp, #16
01560     46 2E 01 FB | 	rdlong	local03, fp
01564     10 8C 84 F1 | 	sub	fp, #16
01568     97 30 01 F6 | 	mov	local04, local03
0156c     5A 30 5D F2 | 	cmps	local04, #90 wcz
01570     30 00 90 1D |  if_a	jmp	#LR__0054
01574     20 8C 04 F1 | 	add	fp, #32
01578     46 2A 01 FB | 	rdlong	local01, fp
0157c     1D 2A 25 F4 | 	bith	local01, #29
01580     46 2A 61 FC | 	wrlong	local01, fp
01584     10 8C 84 F1 | 	sub	fp, #16
01588     46 2C 01 FB | 	rdlong	local02, fp
0158c     41 2C 85 F1 | 	sub	local02, #65
01590     46 2C 61 FC | 	wrlong	local02, fp
01594     96 2A 01 F6 | 	mov	local01, local02
01598     61 2A 05 F1 | 	add	local01, #97
0159c     46 2A 61 FC | 	wrlong	local01, fp
015a0     10 8C 84 F1 | 	sub	fp, #16
015a4                 | LR__0054
015a4     28 8C 04 F1 | 	add	fp, #40
015a8     46 2A 01 FB | 	rdlong	local01, fp
015ac     28 8C 84 F1 | 	sub	fp, #40
015b0     00 2A 5D F2 | 	cmps	local01, #0 wcz
015b4     28 8C 04 C1 |  if_b	add	fp, #40
015b8     46 00 68 CC |  if_b	wrlong	#0, fp
015bc     28 8C 84 C1 |  if_b	sub	fp, #40
015c0     28 8C 04 F1 | 	add	fp, #40
015c4     46 2A 01 FB | 	rdlong	local01, fp
015c8     28 8C 84 F1 | 	sub	fp, #40
015cc     3F 2A 5D F2 | 	cmps	local01, #63 wcz
015d0     28 8C 04 11 |  if_a	add	fp, #40
015d4     46 7E 68 1C |  if_a	wrlong	#63, fp
015d8     28 8C 84 11 |  if_a	sub	fp, #40
015dc     24 8C 04 F1 | 	add	fp, #36
015e0     46 2A 01 FB | 	rdlong	local01, fp
015e4     24 8C 84 F1 | 	sub	fp, #36
015e8     00 2A 5D F2 | 	cmps	local01, #0 wcz
015ec     34 00 90 3D |  if_ae	jmp	#LR__0055
015f0     24 8C 04 F1 | 	add	fp, #36
015f4     46 2A 01 FB | 	rdlong	local01, fp
015f8     95 2A 61 F6 | 	neg	local01, local01
015fc     46 2A 61 FC | 	wrlong	local01, fp
01600     04 8C 84 F1 | 	sub	fp, #4
01604     46 2A 01 FB | 	rdlong	local01, fp
01608     36 2A 05 F4 | 	bitl	local01, #54
0160c     46 2A 61 FC | 	wrlong	local01, fp
01610     16 2A 25 F4 | 	bith	local01, #22
01614     46 2A 61 FC | 	wrlong	local01, fp
01618     10 8C 04 F1 | 	add	fp, #16
0161c     46 02 68 FC | 	wrlong	#1, fp
01620     30 8C 84 F1 | 	sub	fp, #48
01624                 | LR__0055
01624     24 8C 04 F1 | 	add	fp, #36
01628     46 4C 01 FB | 	rdlong	local18, fp
0162c     08 4C 65 F0 | 	shl	local18, #8
01630     04 8C 84 F1 | 	sub	fp, #4
01634     46 2A 01 FB | 	rdlong	local01, fp
01638     A6 2A 41 F5 | 	or	local01, local18
0163c     46 2A 61 FC | 	wrlong	local01, fp
01640     08 8C 04 F1 | 	add	fp, #8
01644     46 4E 01 FB | 	rdlong	local19, fp
01648     10 4E 65 F0 | 	shl	local19, #16
0164c     08 8C 84 F1 | 	sub	fp, #8
01650     46 2A 01 FB | 	rdlong	local01, fp
01654     A7 2A 41 F5 | 	or	local01, local19
01658     46 2A 61 FC | 	wrlong	local01, fp
0165c                 | '             width = -width;
0165c                 | '             flags &= ~( 0x3 << (22) );
0165c                 | '             flags |= ( 1 << (22) );
0165c                 | '             padchar =  1 ;
0165c                 | '         }
0165c                 | '         flags = flags | (width <<  (8) );
0165c                 | '         flags = flags | (prec <<  (16) );
0165c                 | '         switch (c) {
0165c     10 8C 84 F1 | 	sub	fp, #16
01660     46 50 01 FB | 	rdlong	local20, fp
01664     10 8C 84 F1 | 	sub	fp, #16
01668     63 50 0D F2 | 	cmp	local20, #99 wz
0166c     54 00 90 AD |  if_e	jmp	#LR__0056
01670     73 50 0D F2 | 	cmp	local20, #115 wz
01674     88 00 90 AD |  if_e	jmp	#LR__0057
01678     64 50 0D F2 | 	cmp	local20, #100 wz
0167c     F0 00 90 AD |  if_e	jmp	#LR__0059
01680     69 50 0D F2 | 	cmp	local20, #105 wz
01684     E8 00 90 AD |  if_e	jmp	#LR__0060
01688     75 50 0D F2 | 	cmp	local20, #117 wz
0168c     E0 00 90 AD |  if_e	jmp	#LR__0061
01690     6F 50 0D F2 | 	cmp	local20, #111 wz
01694     98 01 90 AD |  if_e	jmp	#LR__0064
01698     78 50 0D F2 | 	cmp	local20, #120 wz
0169c     38 02 90 AD |  if_e	jmp	#LR__0066
016a0     61 50 0D F2 | 	cmp	local20, #97 wz
016a4     D4 02 90 AD |  if_e	jmp	#LR__0068
016a8     65 50 0D F2 | 	cmp	local20, #101 wz
016ac     CC 02 90 AD |  if_e	jmp	#LR__0069
016b0     66 50 0D F2 | 	cmp	local20, #102 wz
016b4     C4 02 90 AD |  if_e	jmp	#LR__0070
016b8     67 50 0D F2 | 	cmp	local20, #103 wz
016bc     BC 02 90 AD |  if_e	jmp	#LR__0071
016c0     10 03 90 FD | 	jmp	#LR__0072
016c4                 | LR__0056
016c4     04 8C 04 F1 | 	add	fp, #4
016c8     46 20 01 FB | 	rdlong	arg01, fp
016cc     1C 8C 04 F1 | 	add	fp, #28
016d0     46 22 01 FB | 	rdlong	arg02, fp
016d4     14 8C 04 F1 | 	add	fp, #20
016d8     46 44 01 FB | 	rdlong	local14, fp
016dc     34 8C 84 F1 | 	sub	fp, #52
016e0     A2 46 01 F6 | 	mov	local15, local14
016e4     A3 24 01 F6 | 	mov	arg03, local15
016e8     9C 0E B0 FD | 	call	#__system___fmtchar
016ec     80 4A 01 F6 | 	mov	local17, result1
016f0     14 8C 04 F1 | 	add	fp, #20
016f4     46 4A 61 FC | 	wrlong	local17, fp
016f8     14 8C 84 F1 | 	sub	fp, #20
016fc                 | '             q = _fmtchar(fn, flags, val);
016fc                 | '             break;
016fc     1C 03 90 FD | 	jmp	#LR__0073
01700                 | LR__0057
01700     28 8C 04 F1 | 	add	fp, #40
01704     46 2A 09 FB | 	rdlong	local01, fp wz
01708     28 8C 84 F1 | 	sub	fp, #40
0170c     24 00 90 AD |  if_e	jmp	#LR__0058
01710     28 8C 04 F1 | 	add	fp, #40
01714     46 52 01 FB | 	rdlong	local21, fp
01718     01 52 85 F1 | 	sub	local21, #1
0171c     A9 54 01 F6 | 	mov	local22, local21
01720     08 8C 84 F1 | 	sub	fp, #8
01724     46 2A 01 FB | 	rdlong	local01, fp
01728     AA 2A 41 F5 | 	or	local01, local22
0172c     46 2A 61 FC | 	wrlong	local01, fp
01730     20 8C 84 F1 | 	sub	fp, #32
01734                 | LR__0058
01734     04 8C 04 F1 | 	add	fp, #4
01738     46 20 01 FB | 	rdlong	arg01, fp
0173c     1C 8C 04 F1 | 	add	fp, #28
01740     46 22 01 FB | 	rdlong	arg02, fp
01744     14 8C 04 F1 | 	add	fp, #20
01748     46 44 01 FB | 	rdlong	local14, fp
0174c     34 8C 84 F1 | 	sub	fp, #52
01750     A2 46 01 F6 | 	mov	local15, local14
01754     A3 24 01 F6 | 	mov	arg03, local15
01758     8C 0E B0 FD | 	call	#__system___fmtstr
0175c     80 4A 01 F6 | 	mov	local17, result1
01760     14 8C 04 F1 | 	add	fp, #20
01764     46 4A 61 FC | 	wrlong	local17, fp
01768     14 8C 84 F1 | 	sub	fp, #20
0176c                 | '             break;
0176c     AC 02 90 FD | 	jmp	#LR__0073
01770                 | LR__0059
01770                 | LR__0060
01770                 | LR__0061
01770     10 8C 04 F1 | 	add	fp, #16
01774     46 2A 01 FB | 	rdlong	local01, fp
01778     10 8C 84 F1 | 	sub	fp, #16
0177c     75 2A 0D F2 | 	cmp	local01, #117 wz
01780     14 00 90 5D |  if_ne	jmp	#LR__0062
01784     20 8C 04 F1 | 	add	fp, #32
01788     46 2A 01 FB | 	rdlong	local01, fp
0178c     3A 2A 25 F4 | 	bith	local01, #58
01790     46 2A 61 FC | 	wrlong	local01, fp
01794     20 8C 84 F1 | 	sub	fp, #32
01798                 | LR__0062
01798     28 8C 04 F1 | 	add	fp, #40
0179c     46 2A 09 FB | 	rdlong	local01, fp wz
017a0     28 8C 84 F1 | 	sub	fp, #40
017a4     44 00 90 5D |  if_ne	jmp	#LR__0063
017a8     30 8C 04 F1 | 	add	fp, #48
017ac     46 2E 01 FB | 	rdlong	local03, fp
017b0     30 8C 84 F1 | 	sub	fp, #48
017b4     97 30 01 F6 | 	mov	local04, local03
017b8     02 30 0D F2 | 	cmp	local04, #2 wz
017bc     2C 00 90 5D |  if_ne	jmp	#LR__0063
017c0     24 8C 04 F1 | 	add	fp, #36
017c4     46 56 01 FB | 	rdlong	local23, fp
017c8     01 56 05 F1 | 	add	local23, #1
017cc     AB 58 01 F6 | 	mov	local24, local23
017d0     10 58 65 F0 | 	shl	local24, #16
017d4     04 8C 84 F1 | 	sub	fp, #4
017d8     46 2C 01 FB | 	rdlong	local02, fp
017dc     96 2A 01 F6 | 	mov	local01, local02
017e0     AC 2A 41 F5 | 	or	local01, local24
017e4     46 2A 61 FC | 	wrlong	local01, fp
017e8     20 8C 84 F1 | 	sub	fp, #32
017ec                 | LR__0063
017ec     04 8C 04 F1 | 	add	fp, #4
017f0     46 20 01 FB | 	rdlong	arg01, fp
017f4     1C 8C 04 F1 | 	add	fp, #28
017f8     46 22 01 FB | 	rdlong	arg02, fp
017fc     14 8C 04 F1 | 	add	fp, #20
01800     46 44 01 FB | 	rdlong	local14, fp
01804     34 8C 84 F1 | 	sub	fp, #52
01808     A2 46 01 F6 | 	mov	local15, local14
0180c     0A 4A 05 F6 | 	mov	local17, #10
01810     A3 24 01 F6 | 	mov	arg03, local15
01814     0A 26 05 F6 | 	mov	arg04, #10
01818     C0 0E B0 FD | 	call	#__system___fmtnum
0181c     80 32 01 F6 | 	mov	local05, result1
01820     14 8C 04 F1 | 	add	fp, #20
01824     46 32 61 FC | 	wrlong	local05, fp
01828     14 8C 84 F1 | 	sub	fp, #20
0182c                 | '                 flags |= ((width+1)<< (16) );
0182c                 | '             }
0182c                 | '             q = _fmtnum(fn, flags, val, 10);
0182c                 | '             break;
0182c     EC 01 90 FD | 	jmp	#LR__0073
01830                 | LR__0064
01830     20 8C 04 F1 | 	add	fp, #32
01834     46 2A 01 FB | 	rdlong	local01, fp
01838     3A 2A 25 F4 | 	bith	local01, #58
0183c     46 2A 61 FC | 	wrlong	local01, fp
01840     08 8C 04 F1 | 	add	fp, #8
01844     46 2A 09 FB | 	rdlong	local01, fp wz
01848     28 8C 84 F1 | 	sub	fp, #40
0184c     44 00 90 5D |  if_ne	jmp	#LR__0065
01850     30 8C 04 F1 | 	add	fp, #48
01854     46 2E 01 FB | 	rdlong	local03, fp
01858     30 8C 84 F1 | 	sub	fp, #48
0185c     97 30 01 F6 | 	mov	local04, local03
01860     02 30 0D F2 | 	cmp	local04, #2 wz
01864     2C 00 90 5D |  if_ne	jmp	#LR__0065
01868     24 8C 04 F1 | 	add	fp, #36
0186c     46 5A 01 FB | 	rdlong	local25, fp
01870     01 5A 05 F1 | 	add	local25, #1
01874     AD 5C 01 F6 | 	mov	local26, local25
01878     10 5C 65 F0 | 	shl	local26, #16
0187c     04 8C 84 F1 | 	sub	fp, #4
01880     46 2C 01 FB | 	rdlong	local02, fp
01884     96 2A 01 F6 | 	mov	local01, local02
01888     AE 2A 41 F5 | 	or	local01, local26
0188c     46 2A 61 FC | 	wrlong	local01, fp
01890     20 8C 84 F1 | 	sub	fp, #32
01894                 | LR__0065
01894     04 8C 04 F1 | 	add	fp, #4
01898     46 20 01 FB | 	rdlong	arg01, fp
0189c     1C 8C 04 F1 | 	add	fp, #28
018a0     46 22 01 FB | 	rdlong	arg02, fp
018a4     14 8C 04 F1 | 	add	fp, #20
018a8     46 44 01 FB | 	rdlong	local14, fp
018ac     34 8C 84 F1 | 	sub	fp, #52
018b0     A2 46 01 F6 | 	mov	local15, local14
018b4     08 4A 05 F6 | 	mov	local17, #8
018b8     A3 24 01 F6 | 	mov	arg03, local15
018bc     08 26 05 F6 | 	mov	arg04, #8
018c0     18 0E B0 FD | 	call	#__system___fmtnum
018c4     80 32 01 F6 | 	mov	local05, result1
018c8     14 8C 04 F1 | 	add	fp, #20
018cc     46 32 61 FC | 	wrlong	local05, fp
018d0     14 8C 84 F1 | 	sub	fp, #20
018d4                 | '                 flags |= ((width+1)<< (16) );
018d4                 | '             }
018d4                 | '             q = _fmtnum(fn, flags, val, 8);
018d4                 | '             break;
018d4     44 01 90 FD | 	jmp	#LR__0073
018d8                 | LR__0066
018d8     28 8C 04 F1 | 	add	fp, #40
018dc     46 2A 09 FB | 	rdlong	local01, fp wz
018e0     28 8C 84 F1 | 	sub	fp, #40
018e4     44 00 90 5D |  if_ne	jmp	#LR__0067
018e8     30 8C 04 F1 | 	add	fp, #48
018ec     46 2E 01 FB | 	rdlong	local03, fp
018f0     30 8C 84 F1 | 	sub	fp, #48
018f4     97 30 01 F6 | 	mov	local04, local03
018f8     02 30 0D F2 | 	cmp	local04, #2 wz
018fc     2C 00 90 5D |  if_ne	jmp	#LR__0067
01900     24 8C 04 F1 | 	add	fp, #36
01904     46 5E 01 FB | 	rdlong	local27, fp
01908     01 5E 05 F1 | 	add	local27, #1
0190c     AF 60 01 F6 | 	mov	local28, local27
01910     10 60 65 F0 | 	shl	local28, #16
01914     04 8C 84 F1 | 	sub	fp, #4
01918     46 2C 01 FB | 	rdlong	local02, fp
0191c     96 2A 01 F6 | 	mov	local01, local02
01920     B0 2A 41 F5 | 	or	local01, local28
01924     46 2A 61 FC | 	wrlong	local01, fp
01928     20 8C 84 F1 | 	sub	fp, #32
0192c                 | LR__0067
0192c     20 8C 04 F1 | 	add	fp, #32
01930     46 2A 01 FB | 	rdlong	local01, fp
01934     3A 2A 25 F4 | 	bith	local01, #58
01938     46 2A 61 FC | 	wrlong	local01, fp
0193c     1C 8C 84 F1 | 	sub	fp, #28
01940     46 20 01 FB | 	rdlong	arg01, fp
01944     1C 8C 04 F1 | 	add	fp, #28
01948     46 22 01 FB | 	rdlong	arg02, fp
0194c     14 8C 04 F1 | 	add	fp, #20
01950     46 44 01 FB | 	rdlong	local14, fp
01954     34 8C 84 F1 | 	sub	fp, #52
01958     A2 46 01 F6 | 	mov	local15, local14
0195c     10 4A 05 F6 | 	mov	local17, #16
01960     A3 24 01 F6 | 	mov	arg03, local15
01964     10 26 05 F6 | 	mov	arg04, #16
01968     70 0D B0 FD | 	call	#__system___fmtnum
0196c     14 8C 04 F1 | 	add	fp, #20
01970     46 00 61 FC | 	wrlong	result1, fp
01974     14 8C 84 F1 | 	sub	fp, #20
01978                 | '                 flags |= ((width+1)<< (16) );
01978                 | '             }
01978                 | '             flags |=  3  <<  (26) ;
01978                 | '             q = _fmtnum(fn, flags, val, 16);
01978                 | '             break;
01978     A0 00 90 FD | 	jmp	#LR__0073
0197c                 | LR__0068
0197c                 | LR__0069
0197c                 | LR__0070
0197c                 | LR__0071
0197c     04 8C 04 F1 | 	add	fp, #4
01980     46 20 01 FB | 	rdlong	arg01, fp
01984     1C 8C 04 F1 | 	add	fp, #28
01988     46 30 01 FB | 	rdlong	local04, fp
0198c     14 8C 04 F1 | 	add	fp, #20
01990     46 44 01 FB | 	rdlong	local14, fp
01994     A2 46 01 F6 | 	mov	local15, local14
01998                 | '     v.i = x;
01998                 | '     return v.f;
01998     A3 00 01 F6 | 	mov	result1, local15
0199c     80 4A 01 F6 | 	mov	local17, result1
019a0     24 8C 84 F1 | 	sub	fp, #36
019a4     46 48 01 FB | 	rdlong	local16, fp
019a8     10 8C 84 F1 | 	sub	fp, #16
019ac     A4 32 01 F6 | 	mov	local05, local16
019b0     98 22 01 F6 | 	mov	arg02, local04
019b4     A5 24 01 F6 | 	mov	arg03, local17
019b8     99 26 01 F6 | 	mov	arg04, local05
019bc     64 10 B0 FD | 	call	#__system___fmtfloat
019c0     80 62 01 F6 | 	mov	local29, result1
019c4     14 8C 04 F1 | 	add	fp, #20
019c8     46 62 61 FC | 	wrlong	local29, fp
019cc     14 8C 84 F1 | 	sub	fp, #20
019d0                 | '             q = _fmtfloat(fn, flags, _asfloat(val), c);
019d0                 | '             break;
019d0     48 00 90 FD | 	jmp	#LR__0073
019d4                 | LR__0072
019d4     04 8C 04 F1 | 	add	fp, #4
019d8     46 2C 01 FB | 	rdlong	local02, fp
019dc     96 2A 01 F6 | 	mov	local01, local02
019e0     1C 8C 04 F1 | 	add	fp, #28
019e4     46 2E 01 FB | 	rdlong	local03, fp
019e8     20 8C 84 F1 | 	sub	fp, #32
019ec     97 30 01 F6 | 	mov	local04, local03
019f0     2A 00 00 FF 
019f4     D4 47 05 F6 | 	mov	local15, ##@LR__0422
019f8     A3 44 01 F6 | 	mov	local14, local15
019fc     95 20 01 F6 | 	mov	arg01, local01
01a00     98 22 01 F6 | 	mov	arg02, local04
01a04     A2 24 01 F6 | 	mov	arg03, local14
01a08     DC 0B B0 FD | 	call	#__system___fmtstr
01a0c     80 4A 01 F6 | 	mov	local17, result1
01a10     14 8C 04 F1 | 	add	fp, #20
01a14     46 4A 61 FC | 	wrlong	local17, fp
01a18     14 8C 84 F1 | 	sub	fp, #20
01a1c                 | '             q = _fmtstr(fn, flags, "???");
01a1c                 | '             break;
01a1c                 | LR__0073
01a1c     14 8C 04 F1 | 	add	fp, #20
01a20     46 2A 01 FB | 	rdlong	local01, fp
01a24     14 8C 84 F1 | 	sub	fp, #20
01a28     00 2A 5D F2 | 	cmps	local01, #0 wcz
01a2c     10 00 90 3D |  if_ae	jmp	#LR__0074
01a30                 | '             return q;
01a30     14 8C 04 F1 | 	add	fp, #20
01a34     46 00 01 FB | 	rdlong	result1, fp
01a38     14 8C 84 F1 | 	sub	fp, #20
01a3c     30 00 90 FD | 	jmp	#LR__0076
01a40                 | LR__0074
01a40     1C 8C 04 F1 | 	add	fp, #28
01a44     46 2A 01 FB | 	rdlong	local01, fp
01a48     08 8C 84 F1 | 	sub	fp, #8
01a4c     46 2E 01 FB | 	rdlong	local03, fp
01a50     97 2A 01 F1 | 	add	local01, local03
01a54     08 8C 04 F1 | 	add	fp, #8
01a58     46 2A 61 FC | 	wrlong	local01, fp
01a5c     1C 8C 84 F1 | 	sub	fp, #28
01a60     74 F8 9F FD | 	jmp	#LR__0049
01a64                 | LR__0075
01a64                 | '         }
01a64                 | '         bytes_written += q;
01a64                 | '     }
01a64                 | '     return bytes_written;
01a64     1C 8C 04 F1 | 	add	fp, #28
01a68     46 00 01 FB | 	rdlong	result1, fp
01a6c     1C 8C 84 F1 | 	sub	fp, #28
01a70                 | LR__0076
01a70     46 F0 03 F6 | 	mov	ptra, fp
01a74     5A 00 A0 FD | 	call	#popregs_
01a78                 | __dofmt_ret
01a78     2D 00 64 FD | 	ret
01a7c                 | 
01a7c                 | _parseint_0097
01a7c     90 0C 01 F6 | 	mov	_var01, arg01
01a80     91 0E 01 F6 | 	mov	_var02, arg02
01a84     86 10 01 FB | 	rdlong	_var03, _var01
01a88     00 12 05 F6 | 	mov	_var04, #0
01a8c     88 14 C1 FA | 	rdbyte	_var05, _var03
01a90     2A 14 0D F2 | 	cmp	_var05, #42 wz
01a94     18 00 90 5D |  if_ne	jmp	#LR__0077
01a98     87 16 01 FB | 	rdlong	_var06, _var02
01a9c     8B 12 01 FB | 	rdlong	_var04, _var06
01aa0     04 16 05 F1 | 	add	_var06, #4
01aa4     87 16 61 FC | 	wrlong	_var06, _var02
01aa8     01 10 05 F1 | 	add	_var03, #1
01aac     38 00 90 FD | 	jmp	#LR__0080
01ab0                 | LR__0077
01ab0                 | '         while ( (c>='0') && (c<='9') ) {
01ab0                 | LR__0078
01ab0     30 14 5D F2 | 	cmps	_var05, #48 wcz
01ab4     30 00 90 CD |  if_b	jmp	#LR__0079
01ab8     39 14 5D F2 | 	cmps	_var05, #57 wcz
01abc     28 00 90 1D |  if_a	jmp	#LR__0079
01ac0     89 18 01 F6 | 	mov	_var07, _var04
01ac4     02 18 65 F0 | 	shl	_var07, #2
01ac8     89 18 01 F1 | 	add	_var07, _var04
01acc     01 18 65 F0 | 	shl	_var07, #1
01ad0     30 14 85 F1 | 	sub	_var05, #48
01ad4     8A 18 01 F1 | 	add	_var07, _var05
01ad8     8C 12 01 F6 | 	mov	_var04, _var07
01adc     01 10 05 F1 | 	add	_var03, #1
01ae0     88 14 C1 FA | 	rdbyte	_var05, _var03
01ae4     C8 FF 9F FD | 	jmp	#LR__0078
01ae8                 | LR__0079
01ae8                 | LR__0080
01ae8     86 10 61 FC | 	wrlong	_var03, _var01
01aec                 | '             r = 10*r + (c-'0');
01aec                 | '             c = *++fmt;
01aec                 | '         }
01aec                 | '     }
01aec                 | '     *fmt_p = fmt;
01aec                 | '     return r;
01aec     89 00 01 F6 | 	mov	result1, _var04
01af0                 | _parseint_0097_ret
01af0     2D 00 64 FD | 	ret
01af4                 | 
01af4                 | _parseflags_0104
01af4     90 0C 01 F6 | 	mov	_var01, arg01
01af8     91 0E 01 F6 | 	mov	_var02, arg02
01afc     00 10 05 F6 | 	mov	_var03, #0
01b00     01 12 05 F6 | 	mov	_var04, #1
01b04     00 14 05 F6 | 	mov	_var05, #0
01b08     02 16 05 F6 | 	mov	_var06, #2
01b0c     00 18 05 F6 | 	mov	_var07, #0
01b10                 | ' 
01b10                 | '     while (!done) {
01b10                 | LR__0081
01b10     00 18 0D F2 | 	cmp	_var07, #0 wz
01b14     64 00 90 5D |  if_ne	jmp	#LR__0088
01b18     86 1A C1 FA | 	rdbyte	_var08, _var01
01b1c                 | '         c = *fmt++;
01b1c                 | '         switch (c) {
01b1c     2D 1A 0D F2 | 	cmp	_var08, #45 wz
01b20     01 0C 05 F1 | 	add	_var01, #1
01b24     24 00 90 AD |  if_e	jmp	#LR__0082
01b28     23 1A 0D F2 | 	cmp	_var08, #35 wz
01b2c     24 00 90 AD |  if_e	jmp	#LR__0083
01b30     2B 1A 0D F2 | 	cmp	_var08, #43 wz
01b34     24 00 90 AD |  if_e	jmp	#LR__0084
01b38     30 1A 0D F2 | 	cmp	_var08, #48 wz
01b3c     24 00 90 AD |  if_e	jmp	#LR__0085
01b40     20 1A 0D F2 | 	cmp	_var08, #32 wz
01b44     24 00 90 AD |  if_e	jmp	#LR__0086
01b48     28 00 90 FD | 	jmp	#LR__0087
01b4c                 | LR__0082
01b4c     01 16 05 F6 | 	mov	_var06, #1
01b50                 | '             justify =  1 ;
01b50                 | '             break;
01b50     BC FF 9F FD | 	jmp	#LR__0081
01b54                 | LR__0083
01b54     1C 10 45 F5 | 	or	_var03, #28
01b58                 | '             flags |=  (28) ;
01b58                 | '             break;
01b58     B4 FF 9F FD | 	jmp	#LR__0081
01b5c                 | LR__0084
01b5c     01 14 05 F6 | 	mov	_var05, #1
01b60                 | '             signchar =  1 ;
01b60                 | '             break;
01b60     AC FF 9F FD | 	jmp	#LR__0081
01b64                 | LR__0085
01b64     02 12 05 F6 | 	mov	_var04, #2
01b68                 | '             padchar =  2 ;
01b68                 | '             break;
01b68     A4 FF 9F FD | 	jmp	#LR__0081
01b6c                 | LR__0086
01b6c     01 12 05 F6 | 	mov	_var04, #1
01b70                 | '             padchar =  1 ;
01b70                 | '             break;
01b70     9C FF 9F FD | 	jmp	#LR__0081
01b74                 | LR__0087
01b74     01 18 05 F6 | 	mov	_var07, #1
01b78                 | '             done = 1;
01b78                 | '             break;
01b78     94 FF 9F FD | 	jmp	#LR__0081
01b7c                 | LR__0088
01b7c     18 12 65 F0 | 	shl	_var04, #24
01b80     89 10 41 F5 | 	or	_var03, _var04
01b84     1A 14 65 F0 | 	shl	_var05, #26
01b88     8A 10 41 F5 | 	or	_var03, _var05
01b8c     16 16 65 F0 | 	shl	_var06, #22
01b90     8B 10 41 F5 | 	or	_var03, _var06
01b94     87 10 61 FC | 	wrlong	_var03, _var02
01b98     01 0C 85 F1 | 	sub	_var01, #1
01b9c                 | '         }
01b9c                 | '     }
01b9c                 | '     flags |= (padchar <<  (24) );
01b9c                 | '     flags |= (signchar <<  (26) );
01b9c                 | '     flags |= (justify <<  (22) );
01b9c                 | '     *flag_p = flags;
01b9c                 | '     return fmt-1;
01b9c     86 00 01 F6 | 	mov	result1, _var01
01ba0                 | _parseflags_0104_ret
01ba0     2D 00 64 FD | 	ret
01ba4                 | 
01ba4                 | _parsesize_0108
01ba4     91 0C 01 F6 | 	mov	_var01, arg02
01ba8     04 0E 05 F6 | 	mov	_var02, #4
01bac     00 10 05 F6 | 	mov	_var03, #0
01bb0     90 12 01 F6 | 	mov	_var04, arg01
01bb4     90 14 01 F6 | 	mov	_var05, arg01
01bb8     01 14 05 F1 | 	add	_var05, #1
01bbc     8A 16 01 F6 | 	mov	_var06, _var05
01bc0     89 18 C1 FA | 	rdbyte	_var07, _var04
01bc4                 | '     c = *fmt++;
01bc4                 | ' 
01bc4                 | '     switch (c) {
01bc4     8C 1A 01 F6 | 	mov	_var08, _var07
01bc8     6C 1A 0D F2 | 	cmp	_var08, #108 wz
01bcc     2C 00 90 AD |  if_e	jmp	#LR__0089
01bd0     68 1A 0D F2 | 	cmp	_var08, #104 wz
01bd4     3C 00 90 AD |  if_e	jmp	#LR__0090
01bd8     6A 1A 0D F2 | 	cmp	_var08, #106 wz
01bdc     4C 00 90 AD |  if_e	jmp	#LR__0091
01be0     7A 1A 0D F2 | 	cmp	_var08, #122 wz
01be4     4C 00 90 AD |  if_e	jmp	#LR__0092
01be8     74 1A 0D F2 | 	cmp	_var08, #116 wz
01bec     44 00 90 AD |  if_e	jmp	#LR__0093
01bf0     4C 1A 0D F2 | 	cmp	_var08, #76 wz
01bf4     44 00 90 AD |  if_e	jmp	#LR__0094
01bf8     48 00 90 FD | 	jmp	#LR__0095
01bfc                 | LR__0089
01bfc     04 0E 05 F6 | 	mov	_var02, #4
01c00     8B 1C C1 FA | 	rdbyte	_var09, _var06
01c04     6C 1C 0D F2 | 	cmp	_var09, #108 wz
01c08     08 0E 05 A6 |  if_e	mov	_var02, #8
01c0c     01 16 05 A1 |  if_e	add	_var06, #1
01c10                 | '             fmt++;
01c10                 | '         }
01c10                 | '         break;
01c10     3C 00 90 FD | 	jmp	#LR__0096
01c14                 | LR__0090
01c14     02 0E 05 F6 | 	mov	_var02, #2
01c18     8B 1C C1 FA | 	rdbyte	_var09, _var06
01c1c     68 1C 0D F2 | 	cmp	_var09, #104 wz
01c20     01 0E 05 A6 |  if_e	mov	_var02, #1
01c24     01 16 05 A1 |  if_e	add	_var06, #1
01c28                 | '             fmt++;
01c28                 | '         }
01c28                 | '         break;
01c28     24 00 90 FD | 	jmp	#LR__0096
01c2c                 | LR__0091
01c2c     08 0E 05 F6 | 	mov	_var02, #8
01c30                 | '         break;
01c30     1C 00 90 FD | 	jmp	#LR__0096
01c34                 | LR__0092
01c34                 | LR__0093
01c34     04 0E 05 F6 | 	mov	_var02, #4
01c38                 | '         break;
01c38     14 00 90 FD | 	jmp	#LR__0096
01c3c                 | LR__0094
01c3c     04 0E 05 F6 | 	mov	_var02, #4
01c40                 | '         longflag = 1;
01c40                 | '         break;
01c40     0C 00 90 FD | 	jmp	#LR__0096
01c44                 | LR__0095
01c44     8B 1C 01 F6 | 	mov	_var09, _var06
01c48     01 1C 85 F1 | 	sub	_var09, #1
01c4c     8E 16 01 F6 | 	mov	_var06, _var09
01c50                 | ' 
01c50                 | '         --fmt;
01c50                 | '         break;
01c50                 | LR__0096
01c50     86 0E 61 FC | 	wrlong	_var02, _var01
01c54                 | '     }
01c54                 | '     *size_p = size;
01c54                 | '     return fmt;
01c54     8B 00 01 F6 | 	mov	result1, _var06
01c58                 | _parsesize_0108_ret
01c58     2D 00 64 FD | 	ret
01c5c                 | 
01c5c                 | ' 
01c5c                 | ' pub putchar(achar):r | c
01c5c                 | _hn008_spin2_putchar
01c5c     0A 88 04 F6 | 	mov	COUNT_, #10
01c60     4B 00 A0 FD | 	call	#pushregs_
01c64     90 2A 01 F6 | 	mov	local01, arg01
01c68                 | ' 
01c68                 | ' ''---------- Output a char at the cursor position, move the cursor
01c68                 | ' 
01c68                 | ' if achar==10 
01c68     0A 2A 0D F2 | 	cmp	local01, #10 wz
01c6c     4C 00 90 5D |  if_ne	jmp	#LR__0097
01c70                 | '   crlf()
01c70                 | ' 
01c70                 | ' ''----------- Set cursor at the first character in a new line, scroll if needed
01c70                 | ' 
01c70                 | ' cursor_x:=0
01c70     17 00 00 FF 
01c74     88 F3 04 F1 | 	add	objptr, ##12168
01c78     79 00 48 FC | 	wrbyte	#0, objptr
01c7c                 | ' cursor_y+=1
01c7c     01 F2 04 F1 | 	add	objptr, #1
01c80     79 2C C1 FA | 	rdbyte	local02, objptr
01c84     01 2C 05 F1 | 	add	local02, #1
01c88     79 2C 41 FC | 	wrbyte	local02, objptr
01c8c                 | ' if cursor_y>29
01c8c     79 2C C1 FA | 	rdbyte	local02, objptr
01c90     17 00 00 FF 
01c94     89 F3 84 F1 | 	sub	objptr, ##12169
01c98     1D 2C 5D F2 | 	cmps	local02, #29 wcz
01c9c     30 01 90 ED |  if_be	jmp	#LR__0100
01ca0                 | '   scrollup()
01ca0     3C 01 B0 FD | 	call	#_hn008_spin2_scrollup
01ca4                 | '   cursor_y:=29
01ca4     17 00 00 FF 
01ca8     89 F3 04 F1 | 	add	objptr, ##12169
01cac     79 3A 48 FC | 	wrbyte	#29, objptr
01cb0     17 00 00 FF 
01cb4     89 F3 84 F1 | 	sub	objptr, ##12169
01cb8                 | ' else
01cb8     14 01 90 FD | 	jmp	#LR__0100
01cbc                 | LR__0097
01cbc     17 00 00 FF 
01cc0     8C F3 04 F1 | 	add	objptr, ##12172
01cc4     79 2E 01 FB | 	rdlong	local03, objptr
01cc8     18 2E 65 F0 | 	shl	local03, #24
01ccc     04 F2 04 F1 | 	add	objptr, #4
01cd0     79 30 01 FB | 	rdlong	local04, objptr
01cd4     10 30 65 F0 | 	shl	local04, #16
01cd8     98 2E 01 F1 | 	add	local03, local04
01cdc                 | '   c:=write_color<<24+write_background<<16
01cdc     07 F2 84 F1 | 	sub	objptr, #7
01ce0     79 32 C1 FA | 	rdbyte	local05, objptr
01ce4     64 32 05 FD | 	qmul	local05, #100
01ce8     18 34 61 FD | 	getqx	local06
01cec     01 F2 84 F1 | 	sub	objptr, #1
01cf0     79 32 C1 FA | 	rdbyte	local05, objptr
01cf4     99 34 01 F1 | 	add	local06, local05
01cf8     02 34 65 F0 | 	shl	local06, #2
01cfc     17 00 00 FF 
01d00     E0 F2 84 F1 | 	sub	objptr, ##12000
01d04     79 34 01 F1 | 	add	local06, objptr
01d08     9A 36 01 FB | 	rdlong	local07, local06
01d0c     7F 00 00 FF 
01d10     FF 37 05 F5 | 	and	local07, ##65535
01d14     97 36 41 F5 | 	or	local07, local03
01d18                 | '   buf[100*cursor_y+cursor_x]:=buf[100*cursor_y+cursor_x] &$FFFF | c
01d18     9A 36 61 FC | 	wrlong	local07, local06
01d1c     17 00 00 FF 
01d20     E1 F2 04 F1 | 	add	objptr, ##12001
01d24     79 32 C1 FA | 	rdbyte	local05, objptr
01d28     64 32 05 FD | 	qmul	local05, #100
01d2c     18 38 61 FD | 	getqx	local08
01d30     01 F2 84 F1 | 	sub	objptr, #1
01d34     79 32 C1 FA | 	rdbyte	local05, objptr
01d38     99 38 01 F1 | 	add	local08, local05
01d3c     02 38 65 F0 | 	shl	local08, #2
01d40     17 00 00 FF 
01d44     E0 F2 84 F1 | 	sub	objptr, ##12000
01d48     79 38 01 F1 | 	add	local08, objptr
01d4c     9C 3A 01 FB | 	rdlong	local09, local08
01d50     FF 3A 25 F5 | 	andn	local09, #255
01d54     FF 2A 05 F5 | 	and	local01, #255
01d58     95 3A 41 F5 | 	or	local09, local01
01d5c                 | '   buf[100*cursor_y+cursor_x]:=(buf[100*cursor_y+cursor_x] & $FFFFFF00)  | (achar & $000000FF)
01d5c     9C 3A 61 FC | 	wrlong	local09, local08
01d60                 | '   cursor_x+=1
01d60     17 00 00 FF 
01d64     E0 F2 04 F1 | 	add	objptr, ##12000
01d68     79 3C C1 FA | 	rdbyte	local10, objptr
01d6c     01 3C 05 F1 | 	add	local10, #1
01d70     79 3C 41 FC | 	wrbyte	local10, objptr
01d74                 | '   if cursor_x==100
01d74     79 3C C1 FA | 	rdbyte	local10, objptr
01d78     17 00 00 FF 
01d7c     88 F3 84 F1 | 	sub	objptr, ##12168
01d80     64 3C 0D F2 | 	cmp	local10, #100 wz
01d84     48 00 90 5D |  if_ne	jmp	#LR__0099
01d88                 | '     cursor_x:=0
01d88     17 00 00 FF 
01d8c     88 F3 04 F1 | 	add	objptr, ##12168
01d90     79 00 48 FC | 	wrbyte	#0, objptr
01d94                 | '     cursor_y+=1
01d94     01 F2 04 F1 | 	add	objptr, #1
01d98     79 3C C1 FA | 	rdbyte	local10, objptr
01d9c     01 3C 05 F1 | 	add	local10, #1
01da0     79 3C 41 FC | 	wrbyte	local10, objptr
01da4                 | '     if cursor_y>29
01da4     79 3C C1 FA | 	rdbyte	local10, objptr
01da8     17 00 00 FF 
01dac     89 F3 84 F1 | 	sub	objptr, ##12169
01db0     1D 3C 5D F2 | 	cmps	local10, #29 wcz
01db4     18 00 90 ED |  if_be	jmp	#LR__0098
01db8                 | '       scrollup()
01db8     24 00 B0 FD | 	call	#_hn008_spin2_scrollup
01dbc                 | '       cursor_y:=29
01dbc     17 00 00 FF 
01dc0     89 F3 04 F1 | 	add	objptr, ##12169
01dc4     79 3A 48 FC | 	wrbyte	#29, objptr
01dc8     17 00 00 FF 
01dcc     89 F3 84 F1 | 	sub	objptr, ##12169
01dd0                 | LR__0098
01dd0                 | LR__0099
01dd0                 | LR__0100
01dd0                 | ' return 1
01dd0     01 00 05 F6 | 	mov	result1, #1
01dd4     46 F0 03 F6 | 	mov	ptra, fp
01dd8     5A 00 A0 FD | 	call	#popregs_
01ddc                 | _hn008_spin2_putchar_ret
01ddc     2D 00 64 FD | 	ret
01de0                 | 
01de0                 | ' 
01de0                 | ' pub scrollup() | i
01de0                 | _hn008_spin2_scrollup
01de0     02 88 04 F6 | 	mov	COUNT_, #2
01de4     4B 00 A0 FD | 	call	#pushregs_
01de8     A8 F2 04 F1 | 	add	objptr, #168
01dec     79 20 01 F6 | 	mov	arg01, objptr
01df0     A8 F2 84 F1 | 	sub	objptr, #168
01df4     90 22 01 F6 | 	mov	arg02, arg01
01df8     90 23 05 F1 | 	add	arg02, #400
01dfc                 | ' 
01dfc                 | ' ''-----------  Scroll the screen one line up
01dfc                 | ' 
01dfc                 | ' longmove(@buf,@buf+400,2900)
01dfc     05 00 00 FF 
01e00     54 25 05 F6 | 	mov	arg03, ##2900
01e04     84 05 B0 FD | 	call	#__system__longmove
01e08     16 00 00 FF 
01e0c     F8 F3 04 F1 | 	add	objptr, ##11768
01e10     79 2A 01 F6 | 	mov	local01, objptr
01e14     16 00 00 FF 
01e18     F8 F3 84 F1 | 	sub	objptr, ##11768
01e1c     FC E1 9F FE | 	loc	pa,	#(@LR__0103-@LR__0101)
01e20     35 00 A0 FD | 	call	#FCACHE_LOAD_
01e24                 | LR__0101
01e24     64 0C DC FC | 	rep	@LR__0104, #100
01e28                 | LR__0102
01e28     95 2C 01 FB | 	rdlong	local02, local01
01e2c     80 FF 7F FF 
01e30     00 2C 05 F5 | 	and	local02, ##-65536
01e34     20 2C 45 F5 | 	or	local02, #32
01e38                 | '   buf[i]:=(buf[i] & $FFFF0000) | 32
01e38     95 2C 61 FC | 	wrlong	local02, local01
01e3c     04 2A 05 F1 | 	add	local01, #4
01e40                 | LR__0103
01e40                 | LR__0104
01e40     46 F0 03 F6 | 	mov	ptra, fp
01e44     5A 00 A0 FD | 	call	#popregs_
01e48                 | _hn008_spin2_scrollup_ret
01e48     2D 00 64 FD | 	ret
01e4c                 | 
01e4c                 | ' 
01e4c                 | ' 
01e4c                 | ' pub setmode(mode)
01e4c                 | _hn008_spin2_setmode
01e4c                 | ' 
01e4c                 | ' if (mode==0)
01e4c     00 20 0D F2 | 	cmp	arg01, #0 wz
01e50     8C 00 90 5D |  if_ne	jmp	#LR__0107
01e54                 | ' 
01e54                 | '   timings[0]:= $70810000 + hdmi_base<<17 + 16          'before sync
01e54     17 00 00 FF 
01e58     B4 F3 04 F1 | 	add	objptr, ##12212
01e5c     80 70 B8 FF 
01e60     79 20 68 FC | 	wrlong	##1893793808, objptr
01e64                 | '   timings[1]:= $70810000 + hdmi_base<<17 + 80          'sync
01e64     04 F2 04 F1 | 	add	objptr, #4
01e68     80 70 B8 FF 
01e6c     79 A0 68 FC | 	wrlong	##1893793872, objptr
01e70                 | '   timings[2]:= $70810000 + hdmi_base<<17 + 20          'before visible
01e70     04 F2 04 F1 | 	add	objptr, #4
01e74     80 70 B8 FF 
01e78     79 28 68 FC | 	wrlong	##1893793812, objptr
01e7c                 | '   timings[3]:= $70810000 + hdmi_base<<17 + 1024        'visible 1024
01e7c     04 F2 04 F1 | 	add	objptr, #4
01e80     82 70 B8 FF 
01e84     79 00 68 FC | 	wrlong	##1893794816, objptr
01e88                 | '   timings[4]:= $70810000 + hdmi_base<<17 + 112         'immediate 112
01e88     04 F2 04 F1 | 	add	objptr, #4
01e8c     80 70 B8 FF 
01e90     79 E0 68 FC | 	wrlong	##1893793904, objptr
01e94                 | '   timings[5]:= $00880000 + hdmi_base<<17 + 8           'imm+lut, 1 char
01e94     04 F2 04 F1 | 	add	objptr, #4
01e98     00 74 80 FF 
01e9c     79 10 68 FC | 	wrlong	##15204360, objptr
01ea0                 | '   timings[6]:= 48
01ea0     04 F2 04 F1 | 	add	objptr, #4
01ea4     79 60 68 FC | 	wrlong	#48, objptr
01ea8                 | '   timings[7]:= 16
01ea8     04 F2 04 F1 | 	add	objptr, #4
01eac     79 20 68 FC | 	wrlong	#16, objptr
01eb0                 | '   timings[8]:= 16
01eb0     04 F2 04 F1 | 	add	objptr, #4
01eb4     79 20 68 FC | 	wrlong	#16, objptr
01eb8                 | '   timings[9]:= 16
01eb8     04 F2 04 F1 | 	add	objptr, #4
01ebc     79 20 68 FC | 	wrlong	#16, objptr
01ec0     17 00 00 FF 
01ec4     D8 F3 84 F1 | 	sub	objptr, ##12248
01ec8                 | ' 
01ec8                 | '   clkfreq:=354693878
01ec8     19 92 8A FF 
01ecc     14 EC 6D FC | 	wrlong	##354693878, #20
01ed0                 | '   org
01ed0     34 E1 9F FE | 	loc	pa,	#(@LR__0106-@LR__0105)
01ed4     35 00 A0 FD | 	call	#FCACHE_LOAD_
01ed8                 | LR__0105
01ed8     B6 E1 80 FF 
01edc     00 F6 65 FD | 	hubset	##29584635
01ee0                 | LR__0106
01ee0                 | LR__0107
01ee0                 | ' 
01ee0                 | ' 
01ee0                 | ' if (mode==1)   ' 1026 px per line
01ee0     01 20 0D F2 | 	cmp	arg01, #1 wz
01ee4     8C 00 90 5D |  if_ne	jmp	#LR__0110
01ee8                 | ' 
01ee8                 | '   timings[0]:= $70810000 + hdmi_base<<17 + 30          'before sync
01ee8     17 00 00 FF 
01eec     B4 F3 04 F1 | 	add	objptr, ##12212
01ef0     80 70 B8 FF 
01ef4     79 3C 68 FC | 	wrlong	##1893793822, objptr
01ef8                 | '   timings[1]:= $70810000 + hdmi_base<<17 + 80          'sync
01ef8     04 F2 04 F1 | 	add	objptr, #4
01efc     80 70 B8 FF 
01f00     79 A0 68 FC | 	wrlong	##1893793872, objptr
01f04                 | '   timings[2]:= $70810000 + hdmi_base<<17 + 20          'before visible
01f04     04 F2 04 F1 | 	add	objptr, #4
01f08     80 70 B8 FF 
01f0c     79 28 68 FC | 	wrlong	##1893793812, objptr
01f10                 | '   timings[3]:= $70810000 + hdmi_base<<17 + 896         'visible 896
01f10     04 F2 04 F1 | 	add	objptr, #4
01f14     81 70 B8 FF 
01f18     79 00 6B FC | 	wrlong	##1893794688, objptr
01f1c                 | '   timings[4]:= $70810000 + hdmi_base<<17 + 48          'immediate 48
01f1c     04 F2 04 F1 | 	add	objptr, #4
01f20     80 70 B8 FF 
01f24     79 60 68 FC | 	wrlong	##1893793840, objptr
01f28                 | '   timings[5]:= $00880000 + hdmi_base<<17 + 8           'imm+lut, 1 char
01f28     04 F2 04 F1 | 	add	objptr, #4
01f2c     00 74 80 FF 
01f30     79 10 68 FC | 	wrlong	##15204360, objptr
01f34                 | '   timings[6]:= 24
01f34     04 F2 04 F1 | 	add	objptr, #4
01f38     79 30 68 FC | 	wrlong	#24, objptr
01f3c                 | '   timings[7]:= 32
01f3c     04 F2 04 F1 | 	add	objptr, #4
01f40     79 40 68 FC | 	wrlong	#32, objptr
01f44                 | '   timings[8]:= 32
01f44     04 F2 04 F1 | 	add	objptr, #4
01f48     79 40 68 FC | 	wrlong	#32, objptr
01f4c                 | '   timings[9]:= 32
01f4c     04 F2 04 F1 | 	add	objptr, #4
01f50     79 40 68 FC | 	wrlong	#32, objptr
01f54     17 00 00 FF 
01f58     D8 F3 84 F1 | 	sub	objptr, ##12248
01f5c                 | ' 
01f5c                 | '   clkfreq:=319215686
01f5c     6C 83 89 FF 
01f60     14 8C 6C FC | 	wrlong	##319215686, #20
01f64                 | '   org
01f64     A0 E0 9F FE | 	loc	pa,	#(@LR__0109-@LR__0108)
01f68     35 00 A0 FD | 	call	#FCACHE_LOAD_
01f6c                 | LR__0108
01f6c     96 E5 80 FF 
01f70     00 F6 67 FD | 	hubset	##30092795
01f74                 | LR__0109
01f74                 | LR__0110
01f74                 | ' 
01f74                 | ' 
01f74                 | ' if (mode==2) ' 912 pixes per line     ' 283_751_600 80x PAL  - real settings: 64 908 283750000 - 0.9999944
01f74     02 20 0D F2 | 	cmp	arg01, #2 wz
01f78     8C 00 90 5D |  if_ne	jmp	#LR__0113
01f7c                 | ' 
01f7c                 | '   timings[0]:= $70810000 + hdmi_base<<17 + 16           'before sync
01f7c     17 00 00 FF 
01f80     B4 F3 04 F1 | 	add	objptr, ##12212
01f84     80 70 B8 FF 
01f88     79 20 68 FC | 	wrlong	##1893793808, objptr
01f8c                 | '   timings[1]:= $70810000 + hdmi_base<<17 + 64           'sync
01f8c     04 F2 04 F1 | 	add	objptr, #4
01f90     80 70 B8 FF 
01f94     79 80 68 FC | 	wrlong	##1893793856, objptr
01f98                 | '   timings[2]:= $70810000 + hdmi_base<<17 + 16           'before visible
01f98     04 F2 04 F1 | 	add	objptr, #4
01f9c     80 70 B8 FF 
01fa0     79 20 68 FC | 	wrlong	##1893793808, objptr
01fa4                 | '   timings[3]:= $70810000 + hdmi_base<<17 + 816          'visible 1024
01fa4     04 F2 04 F1 | 	add	objptr, #4
01fa8     81 70 B8 FF 
01fac     79 60 6A FC | 	wrlong	##1893794608, objptr
01fb0                 | '   timings[4]:= $70810000 + hdmi_base<<17 + 8            'immediate 112
01fb0     04 F2 04 F1 | 	add	objptr, #4
01fb4     80 70 B8 FF 
01fb8     79 10 68 FC | 	wrlong	##1893793800, objptr
01fbc                 | '   timings[5]:= $00880000 + hdmi_base<<17 + 8            'imm+lut, 1 char
01fbc     04 F2 04 F1 | 	add	objptr, #4
01fc0     00 74 80 FF 
01fc4     79 10 68 FC | 	wrlong	##15204360, objptr
01fc8                 | '   timings[6]:= 8
01fc8     04 F2 04 F1 | 	add	objptr, #4
01fcc     79 10 68 FC | 	wrlong	#8, objptr
01fd0                 | '   timings[7]:= 32
01fd0     04 F2 04 F1 | 	add	objptr, #4
01fd4     79 40 68 FC | 	wrlong	#32, objptr
01fd8                 | '   timings[8]:= 64
01fd8     04 F2 04 F1 | 	add	objptr, #4
01fdc     79 80 68 FC | 	wrlong	#64, objptr
01fe0                 | ' 
01fe0                 | '   timings[9]:= 32
01fe0     04 F2 04 F1 | 	add	objptr, #4
01fe4     79 40 68 FC | 	wrlong	#32, objptr
01fe8     17 00 00 FF 
01fec     D8 F3 84 F1 | 	sub	objptr, ##12248
01ff0                 | ' 
01ff0                 | '   clkfreq:=283750000
01ff0     D7 74 88 FF 
01ff4     14 E0 6C FC | 	wrlong	##283750000, #20
01ff8                 | '   org
01ff8     0C E0 9F FE | 	loc	pa,	#(@LR__0112-@LR__0111)
01ffc     35 00 A0 FD | 	call	#FCACHE_LOAD_
02000                 | LR__0111
02000     C5 FF 80 FF 
02004     00 F6 67 FD | 	hubset	##33524731
02008                 | LR__0112
02008                 | LR__0113
02008                 | ' 
02008                 | ' if (mode==256)
02008     00 21 0D F2 | 	cmp	arg01, #256 wz
0200c     8C 00 90 5D |  if_ne	jmp	#LR__0116
02010                 | ' 
02010                 | '   timings[0]:= $70810000 + hdmi_base<<17 + 80          'before sync
02010     17 00 00 FF 
02014     B4 F3 04 F1 | 	add	objptr, ##12212
02018     80 70 B8 FF 
0201c     79 A0 68 FC | 	wrlong	##1893793872, objptr
02020                 | '   timings[1]:= $70810000 + hdmi_base<<17 + 160         'sync
02020     04 F2 04 F1 | 	add	objptr, #4
02024     80 70 B8 FF 
02028     79 40 69 FC | 	wrlong	##1893793952, objptr
0202c                 | '   timings[2]:= $70810000 + hdmi_base<<17 + 84          'before visible
0202c     04 F2 04 F1 | 	add	objptr, #4
02030     80 70 B8 FF 
02034     79 A8 68 FC | 	wrlong	##1893793876, objptr
02038                 | '   timings[3]:= $70810000 + hdmi_base<<17 + 816         'visible 816
02038     04 F2 04 F1 | 	add	objptr, #4
0203c     81 70 B8 FF 
02040     79 60 6A FC | 	wrlong	##1893794608, objptr
02044                 | '   timings[4]:= $70810000 + hdmi_base<<17 + 8           'immediate 8
02044     04 F2 04 F1 | 	add	objptr, #4
02048     80 70 B8 FF 
0204c     79 10 68 FC | 	wrlong	##1893793800, objptr
02050                 | '   timings[5]:= $00880000 + hdmi_base<<17 + 8           'imm+lut, 1 char
02050     04 F2 04 F1 | 	add	objptr, #4
02054     00 74 80 FF 
02058     79 10 68 FC | 	wrlong	##15204360, objptr
0205c                 | '   timings[6]:= 8
0205c     04 F2 04 F1 | 	add	objptr, #4
02060     79 10 68 FC | 	wrlong	#8, objptr
02064                 | '   timings[7]:= 8
02064     04 F2 04 F1 | 	add	objptr, #4
02068     79 10 68 FC | 	wrlong	#8, objptr
0206c                 | '   timings[8]:= 12
0206c     04 F2 04 F1 | 	add	objptr, #4
02070     79 18 68 FC | 	wrlong	#12, objptr
02074                 | '   timings[9]:= 8
02074     04 F2 04 F1 | 	add	objptr, #4
02078     79 10 68 FC | 	wrlong	#8, objptr
0207c     17 00 00 FF 
02080     D8 F3 84 F1 | 	sub	objptr, ##12248
02084                 | ' 
02084                 | '   clkfreq:=357959184
02084     03 AB 8A FF 
02088     14 20 6C FC | 	wrlong	##357959184, #20
0208c                 | '   org
0208c     78 DF 9F FE | 	loc	pa,	#(@LR__0115-@LR__0114)
02090     35 00 A0 FD | 	call	#FCACHE_LOAD_
02094                 | LR__0114
02094     B2 E1 80 FF 
02098     00 F6 65 FD | 	hubset	##29582587
0209c                 | LR__0115
0209c                 | LR__0116
0209c                 | ' 
0209c                 | ' if (mode==257)  '1026 px
0209c     01 21 0D F2 | 	cmp	arg01, #257 wz
020a0     8C 00 90 5D |  if_ne	jmp	#LR__0119
020a4                 | ' 
020a4                 | '   timings[0]:= $70810000 + hdmi_base<<17 + 80          'before sync
020a4     17 00 00 FF 
020a8     B4 F3 04 F1 | 	add	objptr, ##12212
020ac     80 70 B8 FF 
020b0     79 A0 68 FC | 	wrlong	##1893793872, objptr
020b4                 | '   timings[1]:= $70810000 + hdmi_base<<17 + 50          'sync
020b4     04 F2 04 F1 | 	add	objptr, #4
020b8     80 70 B8 FF 
020bc     79 64 68 FC | 	wrlong	##1893793842, objptr
020c0                 | '   timings[2]:= $70810000 + hdmi_base<<17 + 80          'before visible
020c0     04 F2 04 F1 | 	add	objptr, #4
020c4     80 70 B8 FF 
020c8     79 A0 68 FC | 	wrlong	##1893793872, objptr
020cc                 | '   timings[3]:= $70810000 + hdmi_base<<17 + 816         'visible 816
020cc     04 F2 04 F1 | 	add	objptr, #4
020d0     81 70 B8 FF 
020d4     79 60 6A FC | 	wrlong	##1893794608, objptr
020d8                 | '   timings[4]:= $70810000 + hdmi_base<<17 + 8           'immediate 8
020d8     04 F2 04 F1 | 	add	objptr, #4
020dc     80 70 B8 FF 
020e0     79 10 68 FC | 	wrlong	##1893793800, objptr
020e4                 | '   timings[5]:= $00880000 + hdmi_base<<17 + 8           'imm+lut, 1 char
020e4     04 F2 04 F1 | 	add	objptr, #4
020e8     00 74 80 FF 
020ec     79 10 68 FC | 	wrlong	##15204360, objptr
020f0                 | '   timings[6]:= 8
020f0     04 F2 04 F1 | 	add	objptr, #4
020f4     79 10 68 FC | 	wrlong	#8, objptr
020f8                 | '   timings[7]:= 8
020f8     04 F2 04 F1 | 	add	objptr, #4
020fc     79 10 68 FC | 	wrlong	#8, objptr
02100                 | '   timings[8]:= 12
02100     04 F2 04 F1 | 	add	objptr, #4
02104     79 18 68 FC | 	wrlong	#12, objptr
02108                 | '   timings[9]:= 8
02108     04 F2 04 F1 | 	add	objptr, #4
0210c     79 10 68 FC | 	wrlong	#8, objptr
02110     17 00 00 FF 
02114     D8 F3 84 F1 | 	sub	objptr, ##12248
02118                 | ' 
02118                 | '   clkfreq:=322162162
02118     E6 99 89 FF 
0211c     14 E4 6F FC | 	wrlong	##322162162, #20
02120                 | '   org
02120     E4 DE 9F FE | 	loc	pa,	#(@LR__0118-@LR__0117)
02124     35 00 A0 FD | 	call	#FCACHE_LOAD_
02128                 | LR__0117
02128     29 C9 80 FF 
0212c     00 F6 67 FD | 	hubset	##26366971
02130                 | LR__0118
02130                 | LR__0119
02130                 | ' 
02130                 | ' if (mode==258)  '912 px
02130     02 21 0D F2 | 	cmp	arg01, #258 wz
02134     8C 00 90 5D |  if_ne	jmp	#LR__0122
02138                 | ' 
02138                 | '   timings[0]:= $70810000 + hdmi_base<<17 + 24          'before sync
02138     17 00 00 FF 
0213c     B4 F3 04 F1 | 	add	objptr, ##12212
02140     80 70 B8 FF 
02144     79 30 68 FC | 	wrlong	##1893793816, objptr
02148                 | '   timings[1]:= $70810000 + hdmi_base<<17 + 48         'sync
02148     04 F2 04 F1 | 	add	objptr, #4
0214c     80 70 B8 FF 
02150     79 60 68 FC | 	wrlong	##1893793840, objptr
02154                 | '   timings[2]:= $70810000 + hdmi_base<<17 + 24          'before visible
02154     04 F2 04 F1 | 	add	objptr, #4
02158     80 70 B8 FF 
0215c     79 30 68 FC | 	wrlong	##1893793816, objptr
02160                 | '   timings[3]:= $70810000 + hdmi_base<<17 + 816         'visible 816
02160     04 F2 04 F1 | 	add	objptr, #4
02164     81 70 B8 FF 
02168     79 60 6A FC | 	wrlong	##1893794608, objptr
0216c                 | '   timings[4]:= $70810000 + hdmi_base<<17 + 8           'immediate 8
0216c     04 F2 04 F1 | 	add	objptr, #4
02170     80 70 B8 FF 
02174     79 10 68 FC | 	wrlong	##1893793800, objptr
02178                 | '   timings[5]:= $00880000 + hdmi_base<<17 + 8           'imm+lut, 1 char
02178     04 F2 04 F1 | 	add	objptr, #4
0217c     00 74 80 FF 
02180     79 10 68 FC | 	wrlong	##15204360, objptr
02184                 | '   timings[6]:= 8
02184     04 F2 04 F1 | 	add	objptr, #4
02188     79 10 68 FC | 	wrlong	#8, objptr
0218c                 | '   timings[7]:= 8
0218c     04 F2 04 F1 | 	add	objptr, #4
02190     79 10 68 FC | 	wrlong	#8, objptr
02194                 | '   timings[8]:= 12
02194     04 F2 04 F1 | 	add	objptr, #4
02198     79 18 68 FC | 	wrlong	#12, objptr
0219c                 | '   timings[9]:= 8
0219c     04 F2 04 F1 | 	add	objptr, #4
021a0     79 10 68 FC | 	wrlong	#8, objptr
021a4     17 00 00 FF 
021a8     D8 F3 84 F1 | 	sub	objptr, ##12248
021ac                 | ' 
021ac                 | '   clkfreq:=286363636
021ac     C7 88 88 FF 
021b0     14 E8 6F FC | 	wrlong	##286363636, #20
021b4                 | '   org
021b4     50 DE 9F FE | 	loc	pa,	#(@LR__0121-@LR__0120)
021b8     35 00 A0 FD | 	call	#FCACHE_LOAD_
021bc                 | LR__0120
021bc     9D AA 80 FF 
021c0     00 F6 65 FD | 	hubset	##22362875
021c4                 | LR__0121
021c4                 | LR__0122
021c4                 | _hn008_spin2_setmode_ret
021c4     2D 00 64 FD | 	ret
021c8                 | 
021c8                 | ___struct__fmtfile_putchar
021c8     05 88 04 F6 | 	mov	COUNT_, #5
021cc     4B 00 A0 FD | 	call	#pushregs_
021d0                 | '         return f->putcf(c, f);
021d0     79 2A 01 FB | 	rdlong	local01, objptr
021d4     14 2A 05 F1 | 	add	local01, #20
021d8     95 2C 01 FB | 	rdlong	local02, local01
021dc     96 2E 01 FB | 	rdlong	local03, local02
021e0     04 2C 05 F1 | 	add	local02, #4
021e4     96 30 01 FB | 	rdlong	local04, local02
021e8     79 22 01 FB | 	rdlong	arg02, objptr
021ec     79 32 01 F6 | 	mov	local05, objptr
021f0     97 F2 00 F6 | 	mov	objptr, local03
021f4     2D 30 61 FD | 	call	local04
021f8     99 F2 00 F6 | 	mov	objptr, local05
021fc     46 F0 03 F6 | 	mov	ptra, fp
02200     5A 00 A0 FD | 	call	#popregs_
02204                 | ___struct__fmtfile_putchar_ret
02204     2D 00 64 FD | 	ret
02208                 | hubexit
02208     23 00 80 FD | 	jmp	#cogexit
0220c                 | 
0220c                 | __system___setbaud
0220c     14 9A 05 FB | 	rdlong	muldiva_, #20
02210     90 9C 01 F6 | 	mov	muldivb_, arg01
02214     6B 00 A0 FD | 	call	#divide_
02218     40 7C 64 FD | 	dirl	#62
0221c     40 7E 64 FD | 	dirl	#63
02220     7C 9C 61 FC | 	wrlong	muldivb_, ptr___system__dat__
02224     10 9C 65 F0 | 	shl	muldivb_, #16
02228     07 22 05 F6 | 	mov	arg02, #7
0222c     CE 22 01 F1 | 	add	arg02, muldivb_
02230     3E F8 0C FC | 	wrpin	#124, #62
02234     3E 22 15 FC | 	wxpin	arg02, #62
02238     3F 7C 0C FC | 	wrpin	#62, #63
0223c     14 22 05 F1 | 	add	arg02, #20
02240     3F 22 15 FC | 	wxpin	arg02, #63
02244     41 7C 64 FD | 	dirh	#62
02248     41 7E 64 FD | 	dirh	#63
0224c                 | __system___setbaud_ret
0224c     2D 00 64 FD | 	ret
02250                 | 
02250                 | __system___txraw
02250     02 88 04 F6 | 	mov	COUNT_, #2
02254     4B 00 A0 FD | 	call	#pushregs_
02258     90 2A 01 F6 | 	mov	local01, arg01
0225c     7C 2C 09 FB | 	rdlong	local02, ptr___system__dat__ wz
02260     0C 00 90 5D |  if_ne	jmp	#LR__0123
02264     C2 01 00 FF 
02268     00 20 05 F6 | 	mov	arg01, ##230400
0226c     9C FF BF FD | 	call	#__system___setbaud
02270                 | LR__0123
02270     3E 2A 25 FC | 	wypin	local01, #62
02274     1F 02 64 FD | 	waitx	#1
02278     8C DD 9F FE | 	loc	pa,	#(@LR__0125-@LR__0124)
0227c     35 00 A0 FD | 	call	#FCACHE_LOAD_
02280                 | LR__0124
02280     40 7C 74 FD | 	testp	#62 wc
02284     F8 FF 9F 3D |  if_nc	jmp	#LR__0124
02288                 | LR__0125
02288     01 00 05 F6 | 	mov	result1, #1
0228c     46 F0 03 F6 | 	mov	ptra, fp
02290     5A 00 A0 FD | 	call	#popregs_
02294                 | __system___txraw_ret
02294     2D 00 64 FD | 	ret
02298                 | 
02298                 | __system___rxraw
02298     0D 88 04 F6 | 	mov	COUNT_, #13
0229c     4B 00 A0 FD | 	call	#pushregs_
022a0     90 2A 01 F6 | 	mov	local01, arg01
022a4     7C 2C 09 FB | 	rdlong	local02, ptr___system__dat__ wz
022a8     0C 00 90 5D |  if_ne	jmp	#LR__0126
022ac     C2 01 00 FF 
022b0     00 20 05 F6 | 	mov	arg01, ##230400
022b4     54 FF BF FD | 	call	#__system___setbaud
022b8                 | LR__0126
022b8     00 2A 0D F2 | 	cmp	local01, #0 wz
022bc     18 00 90 AD |  if_e	jmp	#LR__0127
022c0     14 2E 05 FB | 	rdlong	local03, #20
022c4     0A 2E 45 F0 | 	shr	local03, #10
022c8     97 2A 01 FD | 	qmul	local01, local03
022cc     18 30 61 FD | 	getqx	local04
022d0     1A 32 61 FD | 	getct	local05
022d4     98 32 01 F1 | 	add	local05, local04
022d8                 | LR__0127
022d8     01 34 65 F6 | 	neg	local06, #1
022dc     00 36 05 F6 | 	mov	local07, #0
022e0     04 F8 04 F1 | 	add	ptr___system__dat__, #4
022e4     7C 38 01 FB | 	rdlong	local08, ptr___system__dat__
022e8     04 F8 84 F1 | 	sub	ptr___system__dat__, #4
022ec     80 DD 9F FE | 	loc	pa,	#(@LR__0130-@LR__0128)
022f0     35 00 A0 FD | 	call	#FCACHE_LOAD_
022f4                 | LR__0128
022f4     08 38 15 F4 | 	testb	local08, #8 wc
022f8     09 38 75 F4 | 	testbn	local08, #9 andc
022fc     0A 38 45 F0 | 	shr	local08, #10
02300     01 36 05 C6 |  if_b	mov	local07, #1
02304     10 00 90 CD |  if_b	jmp	#LR__0129
02308     40 7E 6C FD | 	testp	#63 wz
0230c     01 36 05 A6 |  if_e	mov	local07, #1
02310     3F 38 8D AA |  if_e	rdpin	local08, #63
02314     04 38 45 A0 |  if_e	shr	local08, #4
02318                 | LR__0129
02318     00 2C 05 F6 | 	mov	local02, #0
0231c     00 36 0D F2 | 	cmp	local07, #0 wz
02320     01 2C 65 56 |  if_ne	neg	local02, #1
02324     00 3A 05 F6 | 	mov	local09, #0
02328     00 3C 05 F6 | 	mov	local10, #0
0232c     00 2A 0D F2 | 	cmp	local01, #0 wz
02330     01 3C 65 56 |  if_ne	neg	local10, #1
02334     00 3E 05 F6 | 	mov	local11, #0
02338     00 40 05 F6 | 	mov	local12, #0
0233c     1A 42 61 FD | 	getct	local13
02340     99 42 81 F1 | 	sub	local13, local05
02344     00 42 5D F2 | 	cmps	local13, #0 wcz
02348     01 40 65 C6 |  if_b	neg	local12, #1
0234c     00 40 0D F2 | 	cmp	local12, #0 wz
02350     01 3E 65 56 |  if_ne	neg	local11, #1
02354     9F 3C C9 F7 | 	test	local10, local11 wz
02358     01 3A 65 56 |  if_ne	neg	local09, #1
0235c     9D 2C 49 F5 | 	or	local02, local09 wz
02360     90 FF 9F AD |  if_e	jmp	#LR__0128
02364                 | LR__0130
02364     00 36 0D F2 | 	cmp	local07, #0 wz
02368     9C 34 01 56 |  if_ne	mov	local06, local08
0236c     FF 34 05 55 |  if_ne	and	local06, #255
02370     04 F8 04 F1 | 	add	ptr___system__dat__, #4
02374     7C 38 61 FC | 	wrlong	local08, ptr___system__dat__
02378     04 F8 84 F1 | 	sub	ptr___system__dat__, #4
0237c     9A 00 01 F6 | 	mov	result1, local06
02380     46 F0 03 F6 | 	mov	ptra, fp
02384     5A 00 A0 FD | 	call	#popregs_
02388                 | __system___rxraw_ret
02388     2D 00 64 FD | 	ret
0238c                 | 
0238c                 | __system__longmove
0238c     90 0C 01 F6 | 	mov	_var01, arg01
02390     91 20 59 F2 | 	cmps	arg01, arg02 wcz
02394     28 00 90 3D |  if_ae	jmp	#LR__0135
02398     92 0E 09 F6 | 	mov	_var02, arg03 wz
0239c     54 00 90 AD |  if_e	jmp	#LR__0141
023a0     70 DC 9F FE | 	loc	pa,	#(@LR__0133-@LR__0131)
023a4     35 00 A0 FD | 	call	#FCACHE_LOAD_
023a8                 | LR__0131
023a8     87 08 D8 FC | 	rep	@LR__0134, _var02
023ac                 | LR__0132
023ac     91 10 01 FB | 	rdlong	_var03, arg02
023b0     90 10 61 FC | 	wrlong	_var03, arg01
023b4     04 20 05 F1 | 	add	arg01, #4
023b8     04 22 05 F1 | 	add	arg02, #4
023bc                 | LR__0133
023bc                 | LR__0134
023bc     34 00 90 FD | 	jmp	#LR__0141
023c0                 | LR__0135
023c0     92 12 01 F6 | 	mov	_var04, arg03
023c4     02 12 65 F0 | 	shl	_var04, #2
023c8     89 20 01 F1 | 	add	arg01, _var04
023cc     89 22 01 F1 | 	add	arg02, _var04
023d0     92 14 09 F6 | 	mov	_var05, arg03 wz
023d4     1C 00 90 AD |  if_e	jmp	#LR__0140
023d8     38 DC 9F FE | 	loc	pa,	#(@LR__0138-@LR__0136)
023dc     35 00 A0 FD | 	call	#FCACHE_LOAD_
023e0                 | LR__0136
023e0     8A 08 D8 FC | 	rep	@LR__0139, _var05
023e4                 | LR__0137
023e4     04 20 85 F1 | 	sub	arg01, #4
023e8     04 22 85 F1 | 	sub	arg02, #4
023ec     91 10 01 FB | 	rdlong	_var03, arg02
023f0     90 10 61 FC | 	wrlong	_var03, arg01
023f4                 | LR__0138
023f4                 | LR__0139
023f4                 | LR__0140
023f4                 | LR__0141
023f4     86 00 01 F6 | 	mov	result1, _var01
023f8                 | __system__longmove_ret
023f8     2D 00 64 FD | 	ret
023fc                 | 
023fc                 | __system____builtin_strcpy
023fc     90 0C 01 F6 | 	mov	_var01, arg01
02400     10 DC 9F FE | 	loc	pa,	#(@LR__0143-@LR__0142)
02404     35 00 A0 FD | 	call	#FCACHE_LOAD_
02408                 | LR__0142
02408     91 0E C9 FA | 	rdbyte	_var02, arg02 wz
0240c     90 0E 41 FC | 	wrbyte	_var02, arg01
02410     01 22 05 F1 | 	add	arg02, #1
02414     01 20 05 F1 | 	add	arg01, #1
02418     EC FF 9F 5D |  if_ne	jmp	#LR__0142
0241c                 | LR__0143
0241c     86 00 01 F6 | 	mov	result1, _var01
02420                 | __system____builtin_strcpy_ret
02420     2D 00 64 FD | 	ret
02424                 | 
02424                 | __system___make_methodptr
02424     04 88 04 F6 | 	mov	COUNT_, #4
02428     4B 00 A0 FD | 	call	#pushregs_
0242c     90 2A 01 F6 | 	mov	local01, arg01
02430     91 2C 01 F6 | 	mov	local02, arg02
02434     08 20 05 F6 | 	mov	arg01, #8
02438     00 25 B0 FD | 	call	#__system___gc_alloc_managed
0243c     80 2E 09 F6 | 	mov	local03, result1 wz
02440     10 00 90 AD |  if_e	jmp	#LR__0144
02444     97 2A 61 FC | 	wrlong	local01, local03
02448     97 30 01 F6 | 	mov	local04, local03
0244c     04 30 05 F1 | 	add	local04, #4
02450     98 2C 61 FC | 	wrlong	local02, local04
02454                 | LR__0144
02454     97 00 01 F6 | 	mov	result1, local03
02458     46 F0 03 F6 | 	mov	ptra, fp
0245c     5A 00 A0 FD | 	call	#popregs_
02460                 | __system___make_methodptr_ret
02460     2D 00 64 FD | 	ret
02464                 | 
02464                 | __system___tx
02464     02 88 04 F6 | 	mov	COUNT_, #2
02468     4B 00 A0 FD | 	call	#pushregs_
0246c     90 2A 01 F6 | 	mov	local01, arg01
02470     0A 2A 0D F2 | 	cmp	local01, #10 wz
02474     20 00 90 5D |  if_ne	jmp	#LR__0145
02478     08 F8 04 F1 | 	add	ptr___system__dat__, #8
0247c     7C 2C 01 FB | 	rdlong	local02, ptr___system__dat__
02480     08 F8 84 F1 | 	sub	ptr___system__dat__, #8
02484     02 2C CD F7 | 	test	local02, #2 wz
02488     0C 00 90 AD |  if_e	jmp	#LR__0145
0248c     0D 2C 05 F6 | 	mov	local02, #13
02490     0D 20 05 F6 | 	mov	arg01, #13
02494     B8 FD BF FD | 	call	#__system___txraw
02498                 | LR__0145
02498     95 20 01 F6 | 	mov	arg01, local01
0249c     B0 FD BF FD | 	call	#__system___txraw
024a0     46 F0 03 F6 | 	mov	ptra, fp
024a4     5A 00 A0 FD | 	call	#popregs_
024a8                 | __system___tx_ret
024a8     2D 00 64 FD | 	ret
024ac                 | 
024ac                 | __system___rx
024ac     02 88 04 F6 | 	mov	COUNT_, #2
024b0     4B 00 A0 FD | 	call	#pushregs_
024b4                 | LR__0146
024b4     00 20 05 F6 | 	mov	arg01, #0
024b8     DC FD BF FD | 	call	#__system___rxraw
024bc     80 2A 01 F6 | 	mov	local01, result1
024c0     FF FF 7F FF 
024c4     FF 2B 0D F2 | 	cmp	local01, ##-1 wz
024c8     E8 FF 9F AD |  if_e	jmp	#LR__0146
024cc     0D 2A 0D F2 | 	cmp	local01, #13 wz
024d0     14 00 90 5D |  if_ne	jmp	#LR__0147
024d4     08 F8 04 F1 | 	add	ptr___system__dat__, #8
024d8     7C 2C 01 FB | 	rdlong	local02, ptr___system__dat__
024dc     08 F8 84 F1 | 	sub	ptr___system__dat__, #8
024e0     02 2C CD F7 | 	test	local02, #2 wz
024e4     0A 2A 05 56 |  if_ne	mov	local01, #10
024e8                 | LR__0147
024e8     08 F8 04 F1 | 	add	ptr___system__dat__, #8
024ec     7C 2C 01 FB | 	rdlong	local02, ptr___system__dat__
024f0     08 F8 84 F1 | 	sub	ptr___system__dat__, #8
024f4     01 2C CD F7 | 	test	local02, #1 wz
024f8     1C 00 90 AD |  if_e	jmp	#LR__0150
024fc     7F 2A 0D F2 | 	cmp	local01, #127 wz
02500     0C 00 90 5D |  if_ne	jmp	#LR__0148
02504     08 20 05 F6 | 	mov	arg01, #8
02508     58 FF BF FD | 	call	#__system___tx
0250c     08 00 90 FD | 	jmp	#LR__0149
02510                 | LR__0148
02510     95 20 01 F6 | 	mov	arg01, local01
02514     4C FF BF FD | 	call	#__system___tx
02518                 | LR__0149
02518                 | LR__0150
02518     95 00 01 F6 | 	mov	result1, local01
0251c     46 F0 03 F6 | 	mov	ptra, fp
02520     5A 00 A0 FD | 	call	#popregs_
02524                 | __system___rx_ret
02524     2D 00 64 FD | 	ret
02528                 | 
02528                 | __system___lockmem
02528     02 88 04 F6 | 	mov	COUNT_, #2
0252c     4B 00 A0 FD | 	call	#pushregs_
02530     90 2A 01 F6 | 	mov	local01, arg01
02534     08 DB 9F FE | 	loc	pa,	#(@LR__0153-@LR__0151)
02538     35 00 A0 FD | 	call	#FCACHE_LOAD_
0253c                 | LR__0151
0253c                 | LR__0152
0253c     FF FF 7F FF 
02540     FD 21 05 FB | 	rdlong	arg01, ##-3
02544     06 20 71 FD | 	locktry	arg01 wc
02548     FF FF 7F FF 
0254c     FF 01 A5 F5 | 	muxnc	result1, ##-1
02550     00 00 0D F2 | 	cmp	result1, #0 wz
02554     E4 FF 9F 5D |  if_ne	jmp	#LR__0152
02558     95 2C C9 FA | 	rdbyte	local02, local01 wz
0255c     95 02 48 AC |  if_e	wrbyte	#1, local01
02560     FF FF 7F FF 
02564     FD 21 05 FB | 	rdlong	arg01, ##-3
02568     07 20 71 FD | 	lockrel	arg01 wc
0256c     FF FF 7F FF 
02570     FF 01 85 F5 | 	muxc	result1, ##-1
02574     00 2C 0D F2 | 	cmp	local02, #0 wz
02578     C0 FF 9F 5D |  if_ne	jmp	#LR__0151
0257c                 | LR__0153
0257c     46 F0 03 F6 | 	mov	ptra, fp
02580     5A 00 A0 FD | 	call	#popregs_
02584                 | __system___lockmem_ret
02584     2D 00 64 FD | 	ret
02588                 | 
02588                 | __system___fmtchar
02588     00 88 04 F6 | 	mov	COUNT_, #0
0258c     4B 00 A0 FD | 	call	#pushregs_
02590     18 F0 07 F1 | 	add	ptra, #24
02594     04 8C 04 F1 | 	add	fp, #4
02598     46 20 61 FC | 	wrlong	arg01, fp
0259c     04 8C 04 F1 | 	add	fp, #4
025a0     46 22 61 FC | 	wrlong	arg02, fp
025a4     04 8C 04 F1 | 	add	fp, #4
025a8     46 24 61 FC | 	wrlong	arg03, fp
025ac     04 8C 04 F1 | 	add	fp, #4
025b0     46 24 41 FC | 	wrbyte	arg03, fp
025b4     01 8C 04 F1 | 	add	fp, #1
025b8     46 00 48 FC | 	wrbyte	#0, fp
025bc     01 8C 84 F1 | 	sub	fp, #1
025c0     46 24 01 F6 | 	mov	arg03, fp
025c4     0C 8C 84 F1 | 	sub	fp, #12
025c8     46 20 01 FB | 	rdlong	arg01, fp
025cc     04 8C 04 F1 | 	add	fp, #4
025d0     46 22 01 FB | 	rdlong	arg02, fp
025d4     08 8C 84 F1 | 	sub	fp, #8
025d8     0C 00 B0 FD | 	call	#__system___fmtstr
025dc     46 F0 03 F6 | 	mov	ptra, fp
025e0     5A 00 A0 FD | 	call	#popregs_
025e4                 | __system___fmtchar_ret
025e4     2D 00 64 FD | 	ret
025e8                 | 
025e8                 | __system___fmtstr
025e8     0E 88 04 F6 | 	mov	COUNT_, #14
025ec     4B 00 A0 FD | 	call	#pushregs_
025f0     90 2A 01 F6 | 	mov	local01, arg01
025f4     91 2C 01 F6 | 	mov	local02, arg02
025f8     92 2E 01 F6 | 	mov	local03, arg03
025fc     96 30 01 F6 | 	mov	local04, local02
02600     FF 30 05 F5 | 	and	local04, #255
02604     97 20 01 F6 | 	mov	arg01, local03
02608     00 32 05 F6 | 	mov	local05, #0
0260c     00 DA 9F FE | 	loc	pa,	#(@LR__0155-@LR__0154)
02610     35 00 A0 FD | 	call	#FCACHE_LOAD_
02614                 | LR__0154
02614     90 34 C9 FA | 	rdbyte	local06, arg01 wz
02618     01 32 05 51 |  if_ne	add	local05, #1
0261c     01 20 05 51 |  if_ne	add	arg01, #1
02620     F0 FF 9F 5D |  if_ne	jmp	#LR__0154
02624                 | LR__0155
02624     99 00 01 F6 | 	mov	result1, local05
02628     80 36 01 F6 | 	mov	local07, result1
0262c     00 30 0D F2 | 	cmp	local04, #0 wz
02630     04 00 90 AD |  if_e	jmp	#LR__0156
02634     98 36 79 F3 | 	fles	local07, local04 wcz
02638                 | LR__0156
02638     95 20 01 F6 | 	mov	arg01, local01
0263c     96 22 01 F6 | 	mov	arg02, local02
02640     9B 24 01 F6 | 	mov	arg03, local07
02644     02 26 05 F6 | 	mov	arg04, #2
02648     1C 29 B0 FD | 	call	#__system___fmtpad
0264c     80 38 01 F6 | 	mov	local08, result1
02650     00 38 5D F2 | 	cmps	local08, #0 wcz
02654     9C 00 01 C6 |  if_b	mov	result1, local08
02658     74 00 90 CD |  if_b	jmp	#LR__0159
0265c     00 36 5D F2 | 	cmps	local07, #0 wcz
02660     44 00 90 ED |  if_be	jmp	#LR__0158
02664     9B 3A 01 F6 | 	mov	local09, local07
02668                 | LR__0157
02668     95 3C 01 F6 | 	mov	local10, local01
0266c     9E 3E 01 FB | 	rdlong	local11, local10
02670     04 3C 05 F1 | 	add	local10, #4
02674     9E 40 01 FB | 	rdlong	local12, local10
02678     97 20 C1 FA | 	rdbyte	arg01, local03
0267c     79 42 01 F6 | 	mov	local13, objptr
02680     9F F2 00 F6 | 	mov	objptr, local11
02684     01 2E 05 F1 | 	add	local03, #1
02688     2D 40 61 FD | 	call	local12
0268c     A1 F2 00 F6 | 	mov	objptr, local13
02690     80 44 01 F6 | 	mov	local14, result1
02694     00 44 5D F2 | 	cmps	local14, #0 wcz
02698     A2 00 01 C6 |  if_b	mov	result1, local14
0269c     30 00 90 CD |  if_b	jmp	#LR__0159
026a0     A2 38 01 F1 | 	add	local08, local14
026a4     F0 3B 6D FB | 	djnz	local09, #LR__0157
026a8                 | LR__0158
026a8     95 20 01 F6 | 	mov	arg01, local01
026ac     96 22 01 F6 | 	mov	arg02, local02
026b0     9B 24 01 F6 | 	mov	arg03, local07
026b4     01 26 05 F6 | 	mov	arg04, #1
026b8     AC 28 B0 FD | 	call	#__system___fmtpad
026bc     80 44 01 F6 | 	mov	local14, result1
026c0     00 44 5D F2 | 	cmps	local14, #0 wcz
026c4     A2 00 01 C6 |  if_b	mov	result1, local14
026c8     A2 38 01 31 |  if_ae	add	local08, local14
026cc     9C 00 01 36 |  if_ae	mov	result1, local08
026d0                 | LR__0159
026d0     46 F0 03 F6 | 	mov	ptra, fp
026d4     5A 00 A0 FD | 	call	#popregs_
026d8                 | __system___fmtstr_ret
026d8     2D 00 64 FD | 	ret
026dc                 | 
026dc                 | __system___fmtnum
026dc     0A 88 04 F6 | 	mov	COUNT_, #10
026e0     4B 00 A0 FD | 	call	#pushregs_
026e4     7C F0 07 F1 | 	add	ptra, #124
026e8     04 8C 04 F1 | 	add	fp, #4
026ec     46 20 61 FC | 	wrlong	arg01, fp
026f0     04 8C 04 F1 | 	add	fp, #4
026f4     46 22 61 FC | 	wrlong	arg02, fp
026f8     04 8C 04 F1 | 	add	fp, #4
026fc     46 24 61 FC | 	wrlong	arg03, fp
02700     04 8C 04 F1 | 	add	fp, #4
02704     46 26 61 FC | 	wrlong	arg04, fp
02708     04 8C 04 F1 | 	add	fp, #4
0270c     46 2A 01 F6 | 	mov	local01, fp
02710     44 8C 04 F1 | 	add	fp, #68
02714     46 2A 61 FC | 	wrlong	local01, fp
02718     04 8C 04 F1 | 	add	fp, #4
0271c     46 00 68 FC | 	wrlong	#0, fp
02720     54 8C 84 F1 | 	sub	fp, #84
02724     46 2A 01 FB | 	rdlong	local01, fp
02728     10 2A 45 F0 | 	shr	local01, #16
0272c     3F 2A 05 F5 | 	and	local01, #63
02730     58 8C 04 F1 | 	add	fp, #88
02734     46 2A 61 FC | 	wrlong	local01, fp
02738     58 8C 84 F1 | 	sub	fp, #88
0273c     46 2A 01 FB | 	rdlong	local01, fp
02740     FF 2A 05 F5 | 	and	local01, #255
02744     5C 8C 04 F1 | 	add	fp, #92
02748     46 2A 61 FC | 	wrlong	local01, fp
0274c     5C 8C 84 F1 | 	sub	fp, #92
02750     46 2A 01 FB | 	rdlong	local01, fp
02754     1A 2A 45 F0 | 	shr	local01, #26
02758     03 2A 05 F5 | 	and	local01, #3
0275c     60 8C 04 F1 | 	add	fp, #96
02760     46 2A 61 FC | 	wrlong	local01, fp
02764     08 8C 84 F1 | 	sub	fp, #8
02768     46 2A 01 FB | 	rdlong	local01, fp
0276c     60 8C 84 F1 | 	sub	fp, #96
02770     00 2A 5D F2 | 	cmps	local01, #0 wcz
02774     14 00 90 ED |  if_be	jmp	#LR__0160
02778     60 8C 04 F1 | 	add	fp, #96
0277c     46 2A 01 FB | 	rdlong	local01, fp
02780     01 2A 85 F1 | 	sub	local01, #1
02784     46 2A 61 FC | 	wrlong	local01, fp
02788     60 8C 84 F1 | 	sub	fp, #96
0278c                 | LR__0160
0278c     64 8C 04 F1 | 	add	fp, #100
02790     46 2A 01 FB | 	rdlong	local01, fp
02794     64 8C 84 F1 | 	sub	fp, #100
02798     40 2A 5D F2 | 	cmps	local01, #64 wcz
0279c     14 00 90 1D |  if_a	jmp	#LR__0161
027a0     64 8C 04 F1 | 	add	fp, #100
027a4     46 2C 01 FB | 	rdlong	local02, fp
027a8     64 8C 84 F1 | 	sub	fp, #100
027ac     96 2E 09 F6 | 	mov	local03, local02 wz
027b0     0C 00 90 5D |  if_ne	jmp	#LR__0162
027b4                 | LR__0161
027b4     64 8C 04 F1 | 	add	fp, #100
027b8     46 80 68 FC | 	wrlong	#64, fp
027bc     64 8C 84 F1 | 	sub	fp, #100
027c0                 | LR__0162
027c0     68 8C 04 F1 | 	add	fp, #104
027c4     46 2A 01 FB | 	rdlong	local01, fp
027c8     68 8C 84 F1 | 	sub	fp, #104
027cc     03 2A 0D F2 | 	cmp	local01, #3 wz
027d0     10 00 90 5D |  if_ne	jmp	#LR__0163
027d4     68 8C 04 F1 | 	add	fp, #104
027d8     46 00 68 FC | 	wrlong	#0, fp
027dc     68 8C 84 F1 | 	sub	fp, #104
027e0     30 00 90 FD | 	jmp	#LR__0165
027e4                 | LR__0163
027e4     0C 8C 04 F1 | 	add	fp, #12
027e8     46 2A 01 FB | 	rdlong	local01, fp
027ec     0C 8C 84 F1 | 	sub	fp, #12
027f0     00 2A 5D F2 | 	cmps	local01, #0 wcz
027f4     1C 00 90 3D |  if_ae	jmp	#LR__0164
027f8     68 8C 04 F1 | 	add	fp, #104
027fc     46 08 68 FC | 	wrlong	#4, fp
02800     5C 8C 84 F1 | 	sub	fp, #92
02804     46 2A 01 FB | 	rdlong	local01, fp
02808     95 2A 61 F6 | 	neg	local01, local01
0280c     46 2A 61 FC | 	wrlong	local01, fp
02810     0C 8C 84 F1 | 	sub	fp, #12
02814                 | LR__0164
02814                 | LR__0165
02814     68 8C 04 F1 | 	add	fp, #104
02818     46 2A 09 FB | 	rdlong	local01, fp wz
0281c     68 8C 84 F1 | 	sub	fp, #104
02820     08 01 90 AD |  if_e	jmp	#LR__0174
02824     5C 8C 04 F1 | 	add	fp, #92
02828     46 2E 01 FB | 	rdlong	local03, fp
0282c     01 2E 05 F1 | 	add	local03, #1
02830     46 2E 61 FC | 	wrlong	local03, fp
02834     04 8C 04 F1 | 	add	fp, #4
02838     46 30 01 FB | 	rdlong	local04, fp
0283c     04 8C 04 F1 | 	add	fp, #4
02840     46 2C 01 FB | 	rdlong	local02, fp
02844     64 8C 84 F1 | 	sub	fp, #100
02848     96 2E 01 F6 | 	mov	local03, local02
0284c     97 30 09 F2 | 	cmp	local04, local03 wz
02850     40 00 90 5D |  if_ne	jmp	#LR__0167
02854     60 8C 04 F1 | 	add	fp, #96
02858     46 2C 01 FB | 	rdlong	local02, fp
0285c     96 2E 01 F6 | 	mov	local03, local02
02860     01 2E 85 F1 | 	sub	local03, #1
02864     46 2E 61 FC | 	wrlong	local03, fp
02868     97 30 09 F6 | 	mov	local04, local03 wz
0286c     60 8C 84 F1 | 	sub	fp, #96
02870     20 00 90 5D |  if_ne	jmp	#LR__0166
02874     04 8C 04 F1 | 	add	fp, #4
02878     46 20 01 FB | 	rdlong	arg01, fp
0287c     04 8C 04 F1 | 	add	fp, #4
02880     46 22 01 FB | 	rdlong	arg02, fp
02884     08 8C 84 F1 | 	sub	fp, #8
02888     23 24 05 F6 | 	mov	arg03, #35
0288c     F8 FC BF FD | 	call	#__system___fmtchar
02890     84 01 90 FD | 	jmp	#LR__0179
02894                 | LR__0166
02894                 | LR__0167
02894     68 8C 04 F1 | 	add	fp, #104
02898     46 2A 01 FB | 	rdlong	local01, fp
0289c     68 8C 84 F1 | 	sub	fp, #104
028a0     95 32 01 F6 | 	mov	local05, local01
028a4     01 32 85 F1 | 	sub	local05, #1
028a8     04 32 25 F3 | 	fle	local05, #4
028ac     30 32 61 FD | 	jmprel	local05
028b0                 | LR__0168
028b0     30 00 90 FD | 	jmp	#LR__0171
028b4     0C 00 90 FD | 	jmp	#LR__0169
028b8     28 00 90 FD | 	jmp	#LR__0170
028bc     44 00 90 FD | 	jmp	#LR__0172
028c0     20 00 90 FD | 	jmp	#LR__0170
028c4                 | LR__0169
028c4     58 8C 04 F1 | 	add	fp, #88
028c8     46 30 01 FB | 	rdlong	local04, fp
028cc     98 2C 01 F6 | 	mov	local02, local04
028d0     01 2C 05 F1 | 	add	local02, #1
028d4     46 2C 61 FC | 	wrlong	local02, fp
028d8     58 8C 84 F1 | 	sub	fp, #88
028dc     98 40 48 FC | 	wrbyte	#32, local04
028e0     48 00 90 FD | 	jmp	#LR__0173
028e4                 | LR__0170
028e4                 | LR__0171
028e4     58 8C 04 F1 | 	add	fp, #88
028e8     46 30 01 FB | 	rdlong	local04, fp
028ec     98 2C 01 F6 | 	mov	local02, local04
028f0     01 2C 05 F1 | 	add	local02, #1
028f4     46 2C 61 FC | 	wrlong	local02, fp
028f8     58 8C 84 F1 | 	sub	fp, #88
028fc     98 56 48 FC | 	wrbyte	#43, local04
02900     28 00 90 FD | 	jmp	#LR__0173
02904                 | LR__0172
02904     58 8C 04 F1 | 	add	fp, #88
02908     46 2E 01 FB | 	rdlong	local03, fp
0290c     97 30 01 F6 | 	mov	local04, local03
02910     97 34 01 F6 | 	mov	local06, local03
02914     9A 2C 01 F6 | 	mov	local02, local06
02918     01 2C 05 F1 | 	add	local02, #1
0291c     46 2C 61 FC | 	wrlong	local02, fp
02920     58 8C 84 F1 | 	sub	fp, #88
02924     2D 36 05 F6 | 	mov	local07, #45
02928     98 5A 48 FC | 	wrbyte	#45, local04
0292c                 | LR__0173
0292c                 | LR__0174
0292c     58 8C 04 F1 | 	add	fp, #88
02930     46 20 01 FB | 	rdlong	arg01, fp
02934     4C 8C 84 F1 | 	sub	fp, #76
02938     46 22 01 FB | 	rdlong	arg02, fp
0293c     04 8C 04 F1 | 	add	fp, #4
02940     46 24 01 FB | 	rdlong	arg03, fp
02944     50 8C 04 F1 | 	add	fp, #80
02948     46 26 01 FB | 	rdlong	arg04, fp
0294c     00 38 05 F6 | 	mov	local08, #0
02950     58 8C 84 F1 | 	sub	fp, #88
02954     46 3A 01 FB | 	rdlong	local09, fp
02958     08 8C 84 F1 | 	sub	fp, #8
0295c     1D 3A 2D F4 | 	testbn	local09, #29 wz
02960     01 38 05 56 |  if_ne	mov	local08, #1
02964     9C 28 01 F6 | 	mov	arg05, local08
02968     BC 26 B0 FD | 	call	#__system___uitoa
0296c     80 3C 01 F6 | 	mov	local10, result1
02970     5C 8C 04 F1 | 	add	fp, #92
02974     46 2A 01 FB | 	rdlong	local01, fp
02978     9E 2A 01 F1 | 	add	local01, local10
0297c     46 2A 61 FC | 	wrlong	local01, fp
02980     08 8C 04 F1 | 	add	fp, #8
02984     46 2E 01 FB | 	rdlong	local03, fp
02988     64 8C 84 F1 | 	sub	fp, #100
0298c     97 2A 59 F2 | 	cmps	local01, local03 wcz
02990     64 00 90 ED |  if_be	jmp	#LR__0178
02994     A8 D6 9F FE | 	loc	pa,	#(@LR__0176-@LR__0175)
02998     35 00 A0 FD | 	call	#FCACHE_LOAD_
0299c                 | LR__0175
0299c     64 8C 04 F1 | 	add	fp, #100
029a0     46 2A 01 FB | 	rdlong	local01, fp
029a4     95 2E 01 F6 | 	mov	local03, local01
029a8     01 2E 85 F1 | 	sub	local03, #1
029ac     46 2E 61 FC | 	wrlong	local03, fp
029b0     64 8C 84 F1 | 	sub	fp, #100
029b4     00 2A 5D F2 | 	cmps	local01, #0 wcz
029b8     20 00 90 ED |  if_be	jmp	#LR__0177
029bc     58 8C 04 F1 | 	add	fp, #88
029c0     46 2A 01 FB | 	rdlong	local01, fp
029c4     95 2E 01 F6 | 	mov	local03, local01
029c8     01 2E 05 F1 | 	add	local03, #1
029cc     46 2E 61 FC | 	wrlong	local03, fp
029d0     58 8C 84 F1 | 	sub	fp, #88
029d4     95 46 48 FC | 	wrbyte	#35, local01
029d8     C0 FF 9F FD | 	jmp	#LR__0175
029dc                 | LR__0176
029dc                 | LR__0177
029dc     58 8C 04 F1 | 	add	fp, #88
029e0     46 2A 01 FB | 	rdlong	local01, fp
029e4     95 2E 01 F6 | 	mov	local03, local01
029e8     01 2E 05 F1 | 	add	local03, #1
029ec     46 2E 61 FC | 	wrlong	local03, fp
029f0     58 8C 84 F1 | 	sub	fp, #88
029f4     95 00 48 FC | 	wrbyte	#0, local01
029f8                 | LR__0178
029f8     14 8C 04 F1 | 	add	fp, #20
029fc     46 24 01 F6 | 	mov	arg03, fp
02a00     10 8C 84 F1 | 	sub	fp, #16
02a04     46 20 01 FB | 	rdlong	arg01, fp
02a08     04 8C 04 F1 | 	add	fp, #4
02a0c     46 22 01 FB | 	rdlong	arg02, fp
02a10     08 8C 84 F1 | 	sub	fp, #8
02a14     D0 FB BF FD | 	call	#__system___fmtstr
02a18                 | LR__0179
02a18     46 F0 03 F6 | 	mov	ptra, fp
02a1c     5A 00 A0 FD | 	call	#popregs_
02a20                 | __system___fmtnum_ret
02a20     2D 00 64 FD | 	ret
02a24                 | 
02a24                 | __system___fmtfloat
02a24     38 88 04 F6 | 	mov	COUNT_, #56
02a28     4B 00 A0 FD | 	call	#pushregs_
02a2c     A8 F1 07 F1 | 	add	ptra, #424
02a30     04 8C 04 F1 | 	add	fp, #4
02a34     46 20 61 FC | 	wrlong	arg01, fp
02a38     04 8C 04 F1 | 	add	fp, #4
02a3c     46 22 61 FC | 	wrlong	arg02, fp
02a40     04 8C 04 F1 | 	add	fp, #4
02a44     46 24 61 FC | 	wrlong	arg03, fp
02a48     04 8C 04 F1 | 	add	fp, #4
02a4c     46 26 61 FC | 	wrlong	arg04, fp
02a50     0C 8C 04 F1 | 	add	fp, #12
02a54     46 14 68 FC | 	wrlong	#10, fp
02a58     08 8C 04 F1 | 	add	fp, #8
02a5c     46 00 68 FC | 	wrlong	#0, fp
02a60     08 8C 04 F1 | 	add	fp, #8
02a64     46 00 68 FC | 	wrlong	#0, fp
02a68     08 8C 04 F1 | 	add	fp, #8
02a6c     46 00 68 FC | 	wrlong	#0, fp
02a70     04 8C 04 F1 | 	add	fp, #4
02a74     46 04 68 FC | 	wrlong	#2, fp
02a78     04 8C 04 F1 | 	add	fp, #4
02a7c     46 00 68 FC | 	wrlong	#0, fp
02a80     04 8C 04 F1 | 	add	fp, #4
02a84     46 00 68 FC | 	wrlong	#0, fp
02a88     04 8C 04 F1 | 	add	fp, #4
02a8c     46 00 68 FC | 	wrlong	#0, fp
02a90     04 8C 04 F1 | 	add	fp, #4
02a94     46 00 68 FC | 	wrlong	#0, fp
02a98     18 8C 04 F1 | 	add	fp, #24
02a9c     46 00 68 FC | 	wrlong	#0, fp
02aa0     60 8C 04 F1 | 	add	fp, #96
02aa4     46 F0 63 FC | 	wrlong	ptra, fp
02aa8     F8 2B 01 F6 | 	mov	local01, ptra
02aac     04 8C 04 F1 | 	add	fp, #4
02ab0     46 2A 61 FC | 	wrlong	local01, fp
02ab4     BC 8C 84 F1 | 	sub	fp, #188
02ab8     46 2C 01 FB | 	rdlong	local02, fp
02abc     10 2C 45 F0 | 	shr	local02, #16
02ac0     96 2E 01 F6 | 	mov	local03, local02
02ac4     3F 2E 05 F5 | 	and	local03, #63
02ac8     B0 8C 04 F1 | 	add	fp, #176
02acc     46 2E 61 FC | 	wrlong	local03, fp
02ad0     B0 8C 84 F1 | 	sub	fp, #176
02ad4     46 30 01 FB | 	rdlong	local04, fp
02ad8     1C 30 45 F0 | 	shr	local04, #28
02adc     98 32 01 F6 | 	mov	local05, local04
02ae0     01 32 05 F5 | 	and	local05, #1
02ae4     C4 8C 04 F1 | 	add	fp, #196
02ae8     46 32 61 FC | 	wrlong	local05, fp
02aec     14 8C 84 F1 | 	sub	fp, #20
02af0     46 34 09 FB | 	rdlong	local06, fp wz
02af4     B8 8C 84 F1 | 	sub	fp, #184
02af8     44 F0 07 F1 | 	add	ptra, #68
02afc     3C 00 90 5D |  if_ne	jmp	#LR__0181
02b00     10 8C 04 F1 | 	add	fp, #16
02b04     46 34 01 FB | 	rdlong	local06, fp
02b08     10 8C 84 F1 | 	sub	fp, #16
02b0c     61 34 0D F2 | 	cmp	local06, #97 wz
02b10     18 00 90 5D |  if_ne	jmp	#LR__0180
02b14     B8 8C 04 F1 | 	add	fp, #184
02b18     46 1A 68 FC | 	wrlong	#13, fp
02b1c     84 8C 84 F1 | 	sub	fp, #132
02b20     46 02 68 FC | 	wrlong	#1, fp
02b24     34 8C 84 F1 | 	sub	fp, #52
02b28     24 00 90 FD | 	jmp	#LR__0182
02b2c                 | LR__0180
02b2c     B8 8C 04 F1 | 	add	fp, #184
02b30     46 0C 68 FC | 	wrlong	#6, fp
02b34     B8 8C 84 F1 | 	sub	fp, #184
02b38     14 00 90 FD | 	jmp	#LR__0182
02b3c                 | LR__0181
02b3c     B8 8C 04 F1 | 	add	fp, #184
02b40     46 34 01 FB | 	rdlong	local06, fp
02b44     01 34 85 F1 | 	sub	local06, #1
02b48     46 34 61 FC | 	wrlong	local06, fp
02b4c     B8 8C 84 F1 | 	sub	fp, #184
02b50                 | LR__0182
02b50     08 8C 04 F1 | 	add	fp, #8
02b54     46 36 01 FB | 	rdlong	local07, fp
02b58     16 36 45 F0 | 	shr	local07, #22
02b5c     9B 38 01 F6 | 	mov	local08, local07
02b60     03 38 05 F5 | 	and	local08, #3
02b64     C0 8C 04 F1 | 	add	fp, #192
02b68     46 38 61 FC | 	wrlong	local08, fp
02b6c     C0 8C 84 F1 | 	sub	fp, #192
02b70     46 3A 01 FB | 	rdlong	local09, fp
02b74     1D 3A 45 F0 | 	shr	local09, #29
02b78     9D 3C 01 F6 | 	mov	local10, local09
02b7c     01 3C 05 F5 | 	and	local10, #1
02b80     B4 8C 04 F1 | 	add	fp, #180
02b84     46 3C 61 FC | 	wrlong	local10, fp
02b88     B4 8C 84 F1 | 	sub	fp, #180
02b8c     46 3E 01 FB | 	rdlong	local11, fp
02b90     08 3E 45 F0 | 	shr	local11, #8
02b94     9F 40 01 F6 | 	mov	local12, local11
02b98     FF 40 05 F5 | 	and	local12, #255
02b9c     60 8C 04 F1 | 	add	fp, #96
02ba0     46 40 61 FC | 	wrlong	local12, fp
02ba4     60 8C 84 F1 | 	sub	fp, #96
02ba8     46 42 01 FB | 	rdlong	local13, fp
02bac     A1 44 01 F6 | 	mov	local14, local13
02bb0     FF 44 05 F5 | 	and	local14, #255
02bb4     64 8C 04 F1 | 	add	fp, #100
02bb8     46 44 61 FC | 	wrlong	local14, fp
02bbc     00 34 05 F6 | 	mov	local06, #0
02bc0     5C 8C 84 F1 | 	sub	fp, #92
02bc4     46 2A 01 FB | 	rdlong	local01, fp
02bc8     65 2A 0D F2 | 	cmp	local01, #101 wz
02bcc     01 34 05 A6 |  if_e	mov	local06, #1
02bd0     14 8C 04 F1 | 	add	fp, #20
02bd4     46 34 61 FC | 	wrlong	local06, fp
02bd8     98 8C 04 F1 | 	add	fp, #152
02bdc     46 2A 09 FB | 	rdlong	local01, fp wz
02be0     45 34 05 56 |  if_ne	mov	local06, #69
02be4     65 34 05 A6 |  if_e	mov	local06, #101
02be8     8C 8C 84 F1 | 	sub	fp, #140
02bec     46 34 61 FC | 	wrlong	local06, fp
02bf0     20 8C 84 F1 | 	sub	fp, #32
02bf4     46 34 01 FB | 	rdlong	local06, fp
02bf8     10 8C 84 F1 | 	sub	fp, #16
02bfc     61 34 0D F2 | 	cmp	local06, #97 wz
02c00     4C 00 90 5D |  if_ne	jmp	#LR__0183
02c04     24 8C 04 F1 | 	add	fp, #36
02c08     46 02 68 FC | 	wrlong	#1, fp
02c0c     98 8C 04 F1 | 	add	fp, #152
02c10     46 2A 09 FB | 	rdlong	local01, fp wz
02c14     50 34 05 56 |  if_ne	mov	local06, #80
02c18     70 34 05 A6 |  if_e	mov	local06, #112
02c1c     8C 8C 84 F1 | 	sub	fp, #140
02c20     46 34 61 FC | 	wrlong	local06, fp
02c24     14 8C 84 F1 | 	sub	fp, #20
02c28     46 04 68 FC | 	wrlong	#2, fp
02c2c     1C 8C 04 F1 | 	add	fp, #28
02c30     46 02 68 FC | 	wrlong	#1, fp
02c34     84 8C 04 F1 | 	add	fp, #132
02c38     46 2A 09 FB | 	rdlong	local01, fp wz
02c3c     58 34 05 56 |  if_ne	mov	local06, #88
02c40     78 34 05 A6 |  if_e	mov	local06, #120
02c44     7C 8C 84 F1 | 	sub	fp, #124
02c48     46 34 61 FC | 	wrlong	local06, fp
02c4c     40 8C 84 F1 | 	sub	fp, #64
02c50                 | LR__0183
02c50     10 8C 04 F1 | 	add	fp, #16
02c54     46 34 01 FB | 	rdlong	local06, fp
02c58     10 8C 84 F1 | 	sub	fp, #16
02c5c     23 34 0D F2 | 	cmp	local06, #35 wz
02c60     3C 00 90 5D |  if_ne	jmp	#LR__0186
02c64     48 8C 04 F1 | 	add	fp, #72
02c68     46 02 68 FC | 	wrlong	#1, fp
02c6c     84 8C 04 F1 | 	add	fp, #132
02c70     46 34 09 FB | 	rdlong	local06, fp wz
02c74     CC 8C 84 F1 | 	sub	fp, #204
02c78     18 00 90 AD |  if_e	jmp	#LR__0184
02c7c     10 8C 04 F1 | 	add	fp, #16
02c80     46 CC 68 FC | 	wrlong	#102, fp
02c84     BC 8C 04 F1 | 	add	fp, #188
02c88     46 00 68 FC | 	wrlong	#0, fp
02c8c     CC 8C 84 F1 | 	sub	fp, #204
02c90     0C 00 90 FD | 	jmp	#LR__0185
02c94                 | LR__0184
02c94     CC 8C 04 F1 | 	add	fp, #204
02c98     46 02 68 FC | 	wrlong	#1, fp
02c9c     CC 8C 84 F1 | 	sub	fp, #204
02ca0                 | LR__0185
02ca0                 | LR__0186
02ca0     08 8C 04 F1 | 	add	fp, #8
02ca4     46 46 01 FB | 	rdlong	local15, fp
02ca8     1A 46 45 F0 | 	shr	local15, #26
02cac     A3 48 01 F6 | 	mov	local16, local15
02cb0     03 48 05 F5 | 	and	local16, #3
02cb4     5C 8C 04 F1 | 	add	fp, #92
02cb8     46 48 61 FC | 	wrlong	local16, fp
02cbc     58 8C 84 F1 | 	sub	fp, #88
02cc0     46 00 01 FB | 	rdlong	result1, fp
02cc4     0C 8C 84 F1 | 	sub	fp, #12
02cc8     1F 00 4D F0 | 	shr	result1, #31 wz
02ccc     20 00 90 AD |  if_e	jmp	#LR__0187
02cd0     2C 8C 04 F1 | 	add	fp, #44
02cd4     46 5A 68 FC | 	wrlong	#45, fp
02cd8     20 8C 84 F1 | 	sub	fp, #32
02cdc     46 00 01 FB | 	rdlong	result1, fp
02ce0     1F 00 E5 F4 | 	bitnot	result1, #31
02ce4     46 00 61 FC | 	wrlong	result1, fp
02ce8     0C 8C 84 F1 | 	sub	fp, #12
02cec     40 00 90 FD | 	jmp	#LR__0190
02cf0                 | LR__0187
02cf0     64 8C 04 F1 | 	add	fp, #100
02cf4     46 34 01 FB | 	rdlong	local06, fp
02cf8     64 8C 84 F1 | 	sub	fp, #100
02cfc     01 34 0D F2 | 	cmp	local06, #1 wz
02d00     10 00 90 5D |  if_ne	jmp	#LR__0188
02d04     2C 8C 04 F1 | 	add	fp, #44
02d08     46 56 68 FC | 	wrlong	#43, fp
02d0c     2C 8C 84 F1 | 	sub	fp, #44
02d10     1C 00 90 FD | 	jmp	#LR__0189
02d14                 | LR__0188
02d14     64 8C 04 F1 | 	add	fp, #100
02d18     46 34 01 FB | 	rdlong	local06, fp
02d1c     64 8C 84 F1 | 	sub	fp, #100
02d20     02 34 0D F2 | 	cmp	local06, #2 wz
02d24     2C 8C 04 A1 |  if_e	add	fp, #44
02d28     46 40 68 AC |  if_e	wrlong	#32, fp
02d2c     2C 8C 84 A1 |  if_e	sub	fp, #44
02d30                 | LR__0189
02d30                 | LR__0190
02d30     08 8C 04 F1 | 	add	fp, #8
02d34     46 4A 01 FB | 	rdlong	local17, fp
02d38     18 4A 45 F0 | 	shr	local17, #24
02d3c     A5 4C 01 F6 | 	mov	local18, local17
02d40     03 4C 05 F5 | 	and	local18, #3
02d44     3C 8C 04 F1 | 	add	fp, #60
02d48     46 4C 61 FC | 	wrlong	local18, fp
02d4c     00 34 05 F6 | 	mov	local06, #0
02d50     18 8C 84 F1 | 	sub	fp, #24
02d54     46 4E 01 FB | 	rdlong	local19, fp
02d58     2C 8C 84 F1 | 	sub	fp, #44
02d5c     A7 2A 09 F6 | 	mov	local01, local19 wz
02d60     18 00 90 5D |  if_ne	jmp	#LR__0191
02d64     1C 8C 04 F1 | 	add	fp, #28
02d68     46 50 01 FB | 	rdlong	local20, fp
02d6c     1C 8C 84 F1 | 	sub	fp, #28
02d70     A8 52 01 F6 | 	mov	local21, local20
02d74     0A 52 0D F2 | 	cmp	local21, #10 wz
02d78     04 00 90 AD |  if_e	jmp	#LR__0192
02d7c                 | LR__0191
02d7c     01 34 65 F5 | 	xor	local06, #1
02d80                 | LR__0192
02d80     3C 8C 04 F1 | 	add	fp, #60
02d84     46 34 61 FC | 	wrlong	local06, fp
02d88     9A 34 09 F6 | 	mov	local06, local06 wz
02d8c     3C 8C 84 F1 | 	sub	fp, #60
02d90     28 01 90 AD |  if_e	jmp	#LR__0195
02d94     44 8C 04 F1 | 	add	fp, #68
02d98     46 4E 01 FB | 	rdlong	local19, fp
02d9c     44 8C 84 F1 | 	sub	fp, #68
02da0     02 4E 0D F2 | 	cmp	local19, #2 wz
02da4     14 01 90 5D |  if_ne	jmp	#LR__0195
02da8     C8 8C 04 F1 | 	add	fp, #200
02dac     46 54 01 FB | 	rdlong	local22, fp
02db0     C8 8C 84 F1 | 	sub	fp, #200
02db4     AA 50 01 F6 | 	mov	local20, local22
02db8     02 50 0D F2 | 	cmp	local20, #2 wz
02dbc     FC 00 90 AD |  if_e	jmp	#LR__0195
02dc0     C0 8C 04 F1 | 	add	fp, #192
02dc4     46 20 01 FB | 	rdlong	arg01, fp
02dc8     94 8C 84 F1 | 	sub	fp, #148
02dcc     46 52 01 FB | 	rdlong	local21, fp
02dd0     A9 4E 01 F6 | 	mov	local19, local21
02dd4     14 8C 04 F1 | 	add	fp, #20
02dd8     46 54 01 FB | 	rdlong	local22, fp
02ddc     40 8C 84 F1 | 	sub	fp, #64
02de0     AA 50 01 F6 | 	mov	local20, local22
02de4     A7 22 01 F6 | 	mov	arg02, local19
02de8     A8 24 01 F6 | 	mov	arg03, local20
02dec     28 25 B0 FD | 	call	#__system__emitsign_0189
02df0     80 56 01 F6 | 	mov	local23, result1
02df4     D0 8C 04 F1 | 	add	fp, #208
02df8     46 56 61 FC | 	wrlong	local23, fp
02dfc     AB 34 01 F6 | 	mov	local06, local23
02e00     D0 8C 84 F1 | 	sub	fp, #208
02e04     00 34 5D F2 | 	cmps	local06, #0 wcz
02e08     10 00 90 3D |  if_ae	jmp	#LR__0193
02e0c     D0 8C 04 F1 | 	add	fp, #208
02e10     46 00 01 FB | 	rdlong	result1, fp
02e14     D0 8C 84 F1 | 	sub	fp, #208
02e18     84 0C 90 FD | 	jmp	#LR__0251
02e1c                 | LR__0193
02e1c     D0 8C 04 F1 | 	add	fp, #208
02e20     46 58 01 FB | 	rdlong	local24, fp
02e24     10 8C 84 F1 | 	sub	fp, #16
02e28     46 34 01 FB | 	rdlong	local06, fp
02e2c     AC 34 01 F1 | 	add	local06, local24
02e30     46 34 61 FC | 	wrlong	local06, fp
02e34     58 8C 84 F1 | 	sub	fp, #88
02e38     46 2A 09 FB | 	rdlong	local01, fp wz
02e3c     68 8C 84 F1 | 	sub	fp, #104
02e40     68 00 90 AD |  if_e	jmp	#LR__0194
02e44     68 8C 04 F1 | 	add	fp, #104
02e48     46 34 01 FB | 	rdlong	local06, fp
02e4c     68 8C 04 F1 | 	add	fp, #104
02e50     46 52 01 FB | 	rdlong	local21, fp
02e54     A9 4E 01 F6 | 	mov	local19, local21
02e58     A7 34 81 F1 | 	sub	local06, local19
02e5c     68 8C 84 F1 | 	sub	fp, #104
02e60     46 34 61 FC | 	wrlong	local06, fp
02e64     68 8C 84 F1 | 	sub	fp, #104
02e68     00 34 5D F2 | 	cmps	local06, #0 wcz
02e6c     68 8C 04 C1 |  if_b	add	fp, #104
02e70     46 00 68 CC |  if_b	wrlong	#0, fp
02e74     68 8C 84 C1 |  if_b	sub	fp, #104
02e78     08 8C 04 F1 | 	add	fp, #8
02e7c     46 34 01 FB | 	rdlong	local06, fp
02e80     E8 34 05 F4 | 	bitl	local06, #232
02e84     46 34 61 FC | 	wrlong	local06, fp
02e88     60 8C 04 F1 | 	add	fp, #96
02e8c     46 5A 01 FB | 	rdlong	local25, fp
02e90     08 5A 65 F0 | 	shl	local25, #8
02e94     60 8C 84 F1 | 	sub	fp, #96
02e98     46 2A 01 FB | 	rdlong	local01, fp
02e9c     95 34 01 F6 | 	mov	local06, local01
02ea0     AD 34 41 F5 | 	or	local06, local25
02ea4     46 34 61 FC | 	wrlong	local06, fp
02ea8     08 8C 84 F1 | 	sub	fp, #8
02eac                 | LR__0194
02eac     00 34 05 F6 | 	mov	local06, #0
02eb0     3C 8C 04 F1 | 	add	fp, #60
02eb4     46 00 68 FC | 	wrlong	#0, fp
02eb8     3C 8C 84 F1 | 	sub	fp, #60
02ebc                 | LR__0195
02ebc     0C 8C 04 F1 | 	add	fp, #12
02ec0     46 20 01 FB | 	rdlong	arg01, fp
02ec4     0C 8C 84 F1 | 	sub	fp, #12
02ec8     6C 16 B0 FD | 	call	#__system____builtin_ilogb
02ecc     FF FF 3F FF 
02ed0     FF 01 0D F2 | 	cmp	result1, ##2147483647 wz
02ed4     64 00 90 5D |  if_ne	jmp	#LR__0197
02ed8     C0 8C 04 F1 | 	add	fp, #192
02edc     46 F0 63 FC | 	wrlong	ptra, fp
02ee0     04 8C 04 F1 | 	add	fp, #4
02ee4     46 F0 63 FC | 	wrlong	ptra, fp
02ee8     98 8C 84 F1 | 	sub	fp, #152
02eec     46 34 09 FB | 	rdlong	local06, fp wz
02ef0     2C 8C 84 F1 | 	sub	fp, #44
02ef4     08 F0 07 F1 | 	add	ptra, #8
02ef8     24 00 90 AD |  if_e	jmp	#LR__0196
02efc     C0 8C 04 F1 | 	add	fp, #192
02f00     46 34 01 FB | 	rdlong	local06, fp
02f04     9A 4E 01 F6 | 	mov	local19, local06
02f08     01 4E 05 F1 | 	add	local19, #1
02f0c     46 4E 61 FC | 	wrlong	local19, fp
02f10     94 8C 84 F1 | 	sub	fp, #148
02f14     46 50 01 FB | 	rdlong	local20, fp
02f18     2C 8C 84 F1 | 	sub	fp, #44
02f1c     9A 50 41 FC | 	wrbyte	local20, local06
02f20                 | LR__0196
02f20     C0 8C 04 F1 | 	add	fp, #192
02f24     46 20 01 FB | 	rdlong	arg01, fp
02f28     C0 8C 84 F1 | 	sub	fp, #192
02f2c     2A 00 00 FF 
02f30     6C 23 05 F6 | 	mov	arg02, ##@LR__0415
02f34     C4 F4 BF FD | 	call	#__system____builtin_strcpy
02f38     70 09 90 FD | 	jmp	#LR__0239
02f3c                 | LR__0197
02f3c     0C 8C 04 F1 | 	add	fp, #12
02f40     46 20 01 FB | 	rdlong	arg01, fp
02f44     0C 8C 84 F1 | 	sub	fp, #12
02f48     EC 15 B0 FD | 	call	#__system____builtin_ilogb
02f4c     00 00 40 FF 
02f50     00 00 0D F2 | 	cmp	result1, ##-2147483648 wz
02f54     64 00 90 5D |  if_ne	jmp	#LR__0199
02f58     C0 8C 04 F1 | 	add	fp, #192
02f5c     46 F0 63 FC | 	wrlong	ptra, fp
02f60     04 8C 04 F1 | 	add	fp, #4
02f64     46 F0 63 FC | 	wrlong	ptra, fp
02f68     98 8C 84 F1 | 	sub	fp, #152
02f6c     46 34 09 FB | 	rdlong	local06, fp wz
02f70     2C 8C 84 F1 | 	sub	fp, #44
02f74     08 F0 07 F1 | 	add	ptra, #8
02f78     24 00 90 AD |  if_e	jmp	#LR__0198
02f7c     C0 8C 04 F1 | 	add	fp, #192
02f80     46 34 01 FB | 	rdlong	local06, fp
02f84     9A 4E 01 F6 | 	mov	local19, local06
02f88     01 4E 05 F1 | 	add	local19, #1
02f8c     46 4E 61 FC | 	wrlong	local19, fp
02f90     94 8C 84 F1 | 	sub	fp, #148
02f94     46 50 01 FB | 	rdlong	local20, fp
02f98     2C 8C 84 F1 | 	sub	fp, #44
02f9c     9A 50 41 FC | 	wrbyte	local20, local06
02fa0                 | LR__0198
02fa0     C0 8C 04 F1 | 	add	fp, #192
02fa4     46 20 01 FB | 	rdlong	arg01, fp
02fa8     C0 8C 84 F1 | 	sub	fp, #192
02fac     2A 00 00 FF 
02fb0     70 23 05 F6 | 	mov	arg02, ##@LR__0416
02fb4     44 F4 BF FD | 	call	#__system____builtin_strcpy
02fb8     F0 08 90 FD | 	jmp	#LR__0239
02fbc                 | LR__0199
02fbc     10 8C 04 F1 | 	add	fp, #16
02fc0     46 2A 01 FB | 	rdlong	local01, fp
02fc4     10 8C 84 F1 | 	sub	fp, #16
02fc8     67 2A 0D F2 | 	cmp	local01, #103 wz
02fcc     18 00 90 AD |  if_e	jmp	#LR__0200
02fd0     10 8C 04 F1 | 	add	fp, #16
02fd4     46 52 01 FB | 	rdlong	local21, fp
02fd8     10 8C 84 F1 | 	sub	fp, #16
02fdc     A9 4E 01 F6 | 	mov	local19, local21
02fe0     23 4E 0D F2 | 	cmp	local19, #35 wz
02fe4     AC 01 90 5D |  if_ne	jmp	#LR__0206
02fe8                 | LR__0200
02fe8     14 8C 04 F1 | 	add	fp, #20
02fec     46 5C 01 F6 | 	mov	local26, fp
02ff0     0C 8C 04 F1 | 	add	fp, #12
02ff4     46 5E 01 F6 | 	mov	local27, fp
02ff8     14 8C 84 F1 | 	sub	fp, #20
02ffc     46 20 01 FB | 	rdlong	arg01, fp
03000     AC 8C 04 F1 | 	add	fp, #172
03004     46 50 01 FB | 	rdlong	local20, fp
03008     9C 8C 84 F1 | 	sub	fp, #156
0300c     46 28 01 FB | 	rdlong	arg05, fp
03010     1C 8C 84 F1 | 	sub	fp, #28
03014     AE 22 01 F6 | 	mov	arg02, local26
03018     AF 24 01 F6 | 	mov	arg03, local27
0301c     A8 26 01 F6 | 	mov	arg04, local20
03020     94 20 B0 FD | 	call	#__system__disassemble_0187
03024     10 8C 04 F1 | 	add	fp, #16
03028     46 34 01 FB | 	rdlong	local06, fp
0302c     10 8C 84 F1 | 	sub	fp, #16
03030     23 34 0D F2 | 	cmp	local06, #35 wz
03034     A4 00 90 5D |  if_ne	jmp	#LR__0203
03038     20 8C 04 F1 | 	add	fp, #32
0303c     46 34 01 FB | 	rdlong	local06, fp
03040     98 8C 04 F1 | 	add	fp, #152
03044     46 4E 01 FB | 	rdlong	local19, fp
03048     B8 8C 84 F1 | 	sub	fp, #184
0304c     A7 34 59 F2 | 	cmps	local06, local19 wcz
03050     10 00 90 ED |  if_be	jmp	#LR__0201
03054     24 8C 04 F1 | 	add	fp, #36
03058     46 02 68 FC | 	wrlong	#1, fp
0305c     24 8C 84 F1 | 	sub	fp, #36
03060     C0 01 90 FD | 	jmp	#LR__0209
03064                 | LR__0201
03064     20 8C 04 F1 | 	add	fp, #32
03068     46 34 01 FB | 	rdlong	local06, fp
0306c     20 8C 84 F1 | 	sub	fp, #32
03070     00 34 5D F2 | 	cmps	local06, #0 wcz
03074     2C 00 90 3D |  if_ae	jmp	#LR__0202
03078     B8 8C 04 F1 | 	add	fp, #184
0307c     46 34 01 FB | 	rdlong	local06, fp
03080     9A 34 61 F6 | 	neg	local06, local06
03084     98 8C 84 F1 | 	sub	fp, #152
03088     46 4E 01 FB | 	rdlong	local19, fp
0308c     20 8C 84 F1 | 	sub	fp, #32
03090     9A 4E 59 F2 | 	cmps	local19, local06 wcz
03094     24 8C 04 E1 |  if_be	add	fp, #36
03098     46 02 68 EC |  if_be	wrlong	#1, fp
0309c     24 8C 84 E1 |  if_be	sub	fp, #36
030a0     80 01 90 FD | 	jmp	#LR__0209
030a4                 | LR__0202
030a4     20 8C 04 F1 | 	add	fp, #32
030a8     46 34 01 FB | 	rdlong	local06, fp
030ac     20 8C 84 F1 | 	sub	fp, #32
030b0     00 34 5D F2 | 	cmps	local06, #0 wcz
030b4     6C 01 90 ED |  if_be	jmp	#LR__0209
030b8     B8 8C 04 F1 | 	add	fp, #184
030bc     46 34 01 FB | 	rdlong	local06, fp
030c0     98 8C 84 F1 | 	sub	fp, #152
030c4     46 4E 01 FB | 	rdlong	local19, fp
030c8     A7 34 81 F1 | 	sub	local06, local19
030cc     98 8C 04 F1 | 	add	fp, #152
030d0     46 34 61 FC | 	wrlong	local06, fp
030d4     B8 8C 84 F1 | 	sub	fp, #184
030d8     48 01 90 FD | 	jmp	#LR__0209
030dc                 | LR__0203
030dc     00 34 05 F6 | 	mov	local06, #0
030e0     08 8C 04 F1 | 	add	fp, #8
030e4     46 2A 01 FB | 	rdlong	local01, fp
030e8     1C 2A 45 F0 | 	shr	local01, #28
030ec     01 2A CD F7 | 	test	local01, #1 wz
030f0     01 34 05 A6 |  if_e	mov	local06, #1
030f4     2C 8C 04 F1 | 	add	fp, #44
030f8     46 34 61 FC | 	wrlong	local06, fp
030fc     14 8C 84 F1 | 	sub	fp, #20
03100     46 2A 01 FB | 	rdlong	local01, fp
03104     95 34 01 F6 | 	mov	local06, local01
03108     98 8C 04 F1 | 	add	fp, #152
0310c     46 52 01 FB | 	rdlong	local21, fp
03110     B8 8C 84 F1 | 	sub	fp, #184
03114     A9 4E 01 F6 | 	mov	local19, local21
03118     A7 34 59 F2 | 	cmps	local06, local19 wcz
0311c     18 00 90 3D |  if_ae	jmp	#LR__0204
03120     20 8C 04 F1 | 	add	fp, #32
03124     46 54 01 FB | 	rdlong	local22, fp
03128     20 8C 84 F1 | 	sub	fp, #32
0312c     FF FF 7F FF 
03130     FC 55 5D F2 | 	cmps	local22, ##-4 wcz
03134     10 00 90 3D |  if_ae	jmp	#LR__0205
03138                 | LR__0204
03138     24 8C 04 F1 | 	add	fp, #36
0313c     46 02 68 FC | 	wrlong	#1, fp
03140     24 8C 84 F1 | 	sub	fp, #36
03144     DC 00 90 FD | 	jmp	#LR__0209
03148                 | LR__0205
03148     B8 8C 04 F1 | 	add	fp, #184
0314c     46 34 01 FB | 	rdlong	local06, fp
03150     98 8C 84 F1 | 	sub	fp, #152
03154     46 4E 01 FB | 	rdlong	local19, fp
03158     A7 34 81 F1 | 	sub	local06, local19
0315c     98 8C 04 F1 | 	add	fp, #152
03160     46 34 61 FC | 	wrlong	local06, fp
03164     AC 8C 84 F1 | 	sub	fp, #172
03168     46 20 01 FB | 	rdlong	arg01, fp
0316c     AC 8C 04 F1 | 	add	fp, #172
03170     46 50 01 FB | 	rdlong	local20, fp
03174     A8 26 61 F6 | 	neg	arg04, local20
03178     9C 8C 84 F1 | 	sub	fp, #156
0317c     46 28 01 FB | 	rdlong	arg05, fp
03180     1C 8C 84 F1 | 	sub	fp, #28
03184     AE 22 01 F6 | 	mov	arg02, local26
03188     AF 24 01 F6 | 	mov	arg03, local27
0318c     28 1F B0 FD | 	call	#__system__disassemble_0187
03190     90 00 90 FD | 	jmp	#LR__0209
03194                 | LR__0206
03194     24 8C 04 F1 | 	add	fp, #36
03198     46 34 09 FB | 	rdlong	local06, fp wz
0319c     24 8C 84 F1 | 	sub	fp, #36
031a0     3C 00 90 AD |  if_e	jmp	#LR__0207
031a4     14 8C 04 F1 | 	add	fp, #20
031a8     46 60 01 F6 | 	mov	local28, fp
031ac     0C 8C 04 F1 | 	add	fp, #12
031b0     46 62 01 F6 | 	mov	local29, fp
031b4     14 8C 84 F1 | 	sub	fp, #20
031b8     46 20 01 FB | 	rdlong	arg01, fp
031bc     AC 8C 04 F1 | 	add	fp, #172
031c0     46 26 01 FB | 	rdlong	arg04, fp
031c4     9C 8C 84 F1 | 	sub	fp, #156
031c8     46 28 01 FB | 	rdlong	arg05, fp
031cc     1C 8C 84 F1 | 	sub	fp, #28
031d0     B0 22 01 F6 | 	mov	arg02, local28
031d4     B1 24 01 F6 | 	mov	arg03, local29
031d8     DC 1E B0 FD | 	call	#__system__disassemble_0187
031dc     44 00 90 FD | 	jmp	#LR__0208
031e0                 | LR__0207
031e0     14 8C 04 F1 | 	add	fp, #20
031e4     46 64 01 F6 | 	mov	local30, fp
031e8     0C 8C 04 F1 | 	add	fp, #12
031ec     46 66 01 F6 | 	mov	local31, fp
031f0     98 8C 04 F1 | 	add	fp, #152
031f4     46 68 01 FB | 	rdlong	local32, fp
031f8     01 68 05 F1 | 	add	local32, #1
031fc     AC 8C 84 F1 | 	sub	fp, #172
03200     46 20 01 FB | 	rdlong	arg01, fp
03204     B4 50 01 F6 | 	mov	local20, local32
03208     A8 26 61 F6 | 	neg	arg04, local20
0320c     10 8C 04 F1 | 	add	fp, #16
03210     46 28 01 FB | 	rdlong	arg05, fp
03214     1C 8C 84 F1 | 	sub	fp, #28
03218     B2 22 01 F6 | 	mov	arg02, local30
0321c     B3 24 01 F6 | 	mov	arg03, local31
03220     94 1E B0 FD | 	call	#__system__disassemble_0187
03224                 | LR__0208
03224                 | LR__0209
03224     1C 8C 04 F1 | 	add	fp, #28
03228     46 34 01 FB | 	rdlong	local06, fp
0322c     1C 8C 84 F1 | 	sub	fp, #28
03230     02 34 0D F2 | 	cmp	local06, #2 wz
03234     4C 00 90 5D |  if_ne	jmp	#LR__0212
03238     1C 8C 04 F1 | 	add	fp, #28
0323c     46 20 68 FC | 	wrlong	#16, fp
03240     1C 8C 84 F1 | 	sub	fp, #28
03244                 | LR__0210
03244     14 8C 04 F1 | 	add	fp, #20
03248     46 34 09 FB | 	rdlong	local06, fp wz
0324c     14 8C 84 F1 | 	sub	fp, #20
03250     30 00 90 AD |  if_e	jmp	#LR__0211
03254     14 8C 04 F1 | 	add	fp, #20
03258     46 4E 01 FB | 	rdlong	local19, fp
0325c     14 8C 84 F1 | 	sub	fp, #20
03260     00 80 00 FF 
03264     00 4E 1D F2 | 	cmp	local19, ##16777216 wcz
03268     18 00 90 3D |  if_ae	jmp	#LR__0211
0326c     14 8C 04 F1 | 	add	fp, #20
03270     46 34 01 FB | 	rdlong	local06, fp
03274     01 34 65 F0 | 	shl	local06, #1
03278     46 34 61 FC | 	wrlong	local06, fp
0327c     14 8C 84 F1 | 	sub	fp, #20
03280     C0 FF 9F FD | 	jmp	#LR__0210
03284                 | LR__0211
03284                 | LR__0212
03284     70 8C 04 F1 | 	add	fp, #112
03288     46 6A 01 F6 | 	mov	local33, fp
0328c     5C 8C 84 F1 | 	sub	fp, #92
03290     46 22 01 FB | 	rdlong	arg02, fp
03294     08 8C 04 F1 | 	add	fp, #8
03298     46 24 01 FB | 	rdlong	arg03, fp
0329c     A0 8C 04 F1 | 	add	fp, #160
032a0     46 28 01 FB | 	rdlong	arg05, fp
032a4     BC 8C 84 F1 | 	sub	fp, #188
032a8     B5 20 01 F6 | 	mov	arg01, local33
032ac     01 26 05 F6 | 	mov	arg04, #1
032b0     74 1D B0 FD | 	call	#__system___uitoa
032b4     58 8C 04 F1 | 	add	fp, #88
032b8     46 00 61 FC | 	wrlong	result1, fp
032bc     38 8C 84 F1 | 	sub	fp, #56
032c0     46 34 01 FB | 	rdlong	local06, fp
032c4     20 8C 84 F1 | 	sub	fp, #32
032c8     00 34 5D F2 | 	cmps	local06, #0 wcz
032cc     68 00 90 3D |  if_ae	jmp	#LR__0213
032d0     60 8C 04 F1 | 	add	fp, #96
032d4     46 5A 68 FC | 	wrlong	#45, fp
032d8     50 8C 04 F1 | 	add	fp, #80
032dc     46 6C 01 F6 | 	mov	local34, fp
032e0     90 8C 84 F1 | 	sub	fp, #144
032e4     46 2A 01 FB | 	rdlong	local01, fp
032e8     95 52 61 F6 | 	neg	local21, local01
032ec     0A 50 05 F6 | 	mov	local20, #10
032f0     18 8C 04 F1 | 	add	fp, #24
032f4     46 56 01 FB | 	rdlong	local23, fp
032f8     AB 54 01 F6 | 	mov	local22, local23
032fc     84 8C 04 F1 | 	add	fp, #132
03300     46 6E 01 FB | 	rdlong	local35, fp
03304     BC 8C 84 F1 | 	sub	fp, #188
03308     B7 70 01 F6 | 	mov	local36, local35
0330c     B6 20 01 F6 | 	mov	arg01, local34
03310     A9 22 01 F6 | 	mov	arg02, local21
03314     0A 24 05 F6 | 	mov	arg03, #10
03318     AA 26 01 F6 | 	mov	arg04, local22
0331c     B8 28 01 F6 | 	mov	arg05, local36
03320     04 1D B0 FD | 	call	#__system___uitoa
03324     80 72 01 F6 | 	mov	local37, result1
03328     5C 8C 04 F1 | 	add	fp, #92
0332c     46 72 61 FC | 	wrlong	local37, fp
03330     5C 8C 84 F1 | 	sub	fp, #92
03334     54 00 90 FD | 	jmp	#LR__0214
03338                 | LR__0213
03338     60 8C 04 F1 | 	add	fp, #96
0333c     46 56 68 FC | 	wrlong	#43, fp
03340     50 8C 04 F1 | 	add	fp, #80
03344     46 74 01 F6 | 	mov	local38, fp
03348     90 8C 84 F1 | 	sub	fp, #144
0334c     46 22 01 FB | 	rdlong	arg02, fp
03350     18 8C 04 F1 | 	add	fp, #24
03354     46 54 01 FB | 	rdlong	local22, fp
03358     84 8C 04 F1 | 	add	fp, #132
0335c     46 70 01 FB | 	rdlong	local36, fp
03360     BC 8C 84 F1 | 	sub	fp, #188
03364     B8 56 01 F6 | 	mov	local23, local36
03368     BA 20 01 F6 | 	mov	arg01, local38
0336c     0A 24 05 F6 | 	mov	arg03, #10
03370     AA 26 01 F6 | 	mov	arg04, local22
03374     AB 28 01 F6 | 	mov	arg05, local23
03378     AC 1C B0 FD | 	call	#__system___uitoa
0337c     80 6E 01 F6 | 	mov	local35, result1
03380     5C 8C 04 F1 | 	add	fp, #92
03384     46 6E 61 FC | 	wrlong	local35, fp
03388     5C 8C 84 F1 | 	sub	fp, #92
0338c                 | LR__0214
0338c     24 8C 04 F1 | 	add	fp, #36
03390     46 34 09 FB | 	rdlong	local06, fp wz
03394     24 8C 84 F1 | 	sub	fp, #36
03398     2C 00 90 AD |  if_e	jmp	#LR__0215
0339c     50 8C 04 F1 | 	add	fp, #80
033a0     46 00 68 FC | 	wrlong	#0, fp
033a4     04 8C 84 F1 | 	sub	fp, #4
033a8     46 00 68 FC | 	wrlong	#0, fp
033ac     6C 8C 04 F1 | 	add	fp, #108
033b0     46 76 01 FB | 	rdlong	local39, fp
033b4     01 76 05 F1 | 	add	local39, #1
033b8     64 8C 84 F1 | 	sub	fp, #100
033bc     46 76 61 FC | 	wrlong	local39, fp
033c0     54 8C 84 F1 | 	sub	fp, #84
033c4     90 00 90 FD | 	jmp	#LR__0218
033c8                 | LR__0215
033c8     20 8C 04 F1 | 	add	fp, #32
033cc     46 34 01 FB | 	rdlong	local06, fp
033d0     20 8C 84 F1 | 	sub	fp, #32
033d4     00 34 5D F2 | 	cmps	local06, #0 wcz
033d8     44 00 90 3D |  if_ae	jmp	#LR__0216
033dc     20 8C 04 F1 | 	add	fp, #32
033e0     46 2A 01 FB | 	rdlong	local01, fp
033e4     30 8C 04 F1 | 	add	fp, #48
033e8     46 2A 61 FC | 	wrlong	local01, fp
033ec     04 8C 84 F1 | 	sub	fp, #4
033f0     46 2A 61 FC | 	wrlong	local01, fp
033f4     2C 8C 84 F1 | 	sub	fp, #44
033f8     46 78 01 FB | 	rdlong	local40, fp
033fc     98 8C 04 F1 | 	add	fp, #152
03400     46 2A 01 FB | 	rdlong	local01, fp
03404     95 78 01 F1 | 	add	local40, local01
03408     BC 7A 01 F6 | 	mov	local41, local40
0340c     01 7A 05 F1 | 	add	local41, #1
03410     64 8C 84 F1 | 	sub	fp, #100
03414     46 7A 61 FC | 	wrlong	local41, fp
03418     54 8C 84 F1 | 	sub	fp, #84
0341c     38 00 90 FD | 	jmp	#LR__0217
03420                 | LR__0216
03420     4C 8C 04 F1 | 	add	fp, #76
03424     46 00 68 FC | 	wrlong	#0, fp
03428     2C 8C 84 F1 | 	sub	fp, #44
0342c     46 7C 01 FB | 	rdlong	local42, fp
03430     30 8C 04 F1 | 	add	fp, #48
03434     46 7C 61 FC | 	wrlong	local42, fp
03438     68 8C 04 F1 | 	add	fp, #104
0343c     46 2A 01 FB | 	rdlong	local01, fp
03440     95 7C 01 F1 | 	add	local42, local01
03444     BE 7E 01 F6 | 	mov	local43, local42
03448     01 7E 05 F1 | 	add	local43, #1
0344c     64 8C 84 F1 | 	sub	fp, #100
03450     46 7E 61 FC | 	wrlong	local43, fp
03454     54 8C 84 F1 | 	sub	fp, #84
03458                 | LR__0217
03458                 | LR__0218
03458     54 8C 04 F1 | 	add	fp, #84
0345c     46 80 01 FB | 	rdlong	local44, fp
03460     08 8C 84 F1 | 	sub	fp, #8
03464     46 2A 01 FB | 	rdlong	local01, fp
03468     95 80 81 F1 | 	sub	local44, local01
0346c     C0 82 01 F6 | 	mov	local45, local44
03470     01 82 05 F1 | 	add	local45, #1
03474     24 8C 84 F1 | 	sub	fp, #36
03478     46 82 61 FC | 	wrlong	local45, fp
0347c     04 8C 04 F1 | 	add	fp, #4
03480     46 34 09 FB | 	rdlong	local06, fp wz
03484     2C 8C 84 F1 | 	sub	fp, #44
03488     14 00 90 AD |  if_e	jmp	#LR__0219
0348c     28 8C 04 F1 | 	add	fp, #40
03490     46 4E 01 FB | 	rdlong	local19, fp
03494     01 4E 05 F1 | 	add	local19, #1
03498     46 4E 61 FC | 	wrlong	local19, fp
0349c     28 8C 84 F1 | 	sub	fp, #40
034a0                 | LR__0219
034a0     1C 8C 04 F1 | 	add	fp, #28
034a4     46 34 01 FB | 	rdlong	local06, fp
034a8     1C 8C 84 F1 | 	sub	fp, #28
034ac     10 34 0D F2 | 	cmp	local06, #16 wz
034b0     14 00 90 5D |  if_ne	jmp	#LR__0220
034b4     28 8C 04 F1 | 	add	fp, #40
034b8     46 34 01 FB | 	rdlong	local06, fp
034bc     02 34 05 F1 | 	add	local06, #2
034c0     46 34 61 FC | 	wrlong	local06, fp
034c4     28 8C 84 F1 | 	sub	fp, #40
034c8                 | LR__0220
034c8     24 8C 04 F1 | 	add	fp, #36
034cc     46 34 09 FB | 	rdlong	local06, fp wz
034d0     24 8C 84 F1 | 	sub	fp, #36
034d4     24 00 90 AD |  if_e	jmp	#LR__0221
034d8     02 84 05 F6 | 	mov	local46, #2
034dc     5C 8C 04 F1 | 	add	fp, #92
034e0     46 34 01 FB | 	rdlong	local06, fp
034e4     9A 84 01 F1 | 	add	local46, local06
034e8     34 8C 84 F1 | 	sub	fp, #52
034ec     46 34 01 FB | 	rdlong	local06, fp
034f0     C2 34 01 F1 | 	add	local06, local46
034f4     46 34 61 FC | 	wrlong	local06, fp
034f8     28 8C 84 F1 | 	sub	fp, #40
034fc                 | LR__0221
034fc     28 8C 04 F1 | 	add	fp, #40
03500     46 34 01 FB | 	rdlong	local06, fp
03504     28 8C 84 F1 | 	sub	fp, #40
03508     40 34 5D F2 | 	cmps	local06, #64 wcz
0350c     01 00 65 16 |  if_a	neg	result1, #1
03510     8C 05 90 1D |  if_a	jmp	#LR__0251
03514     3C 8C 04 F1 | 	add	fp, #60
03518     46 34 09 FB | 	rdlong	local06, fp wz
0351c     3C 8C 84 F1 | 	sub	fp, #60
03520     6C 00 90 AD |  if_e	jmp	#LR__0223
03524     C0 8C 04 F1 | 	add	fp, #192
03528     46 20 01 FB | 	rdlong	arg01, fp
0352c     94 8C 84 F1 | 	sub	fp, #148
03530     46 22 01 FB | 	rdlong	arg02, fp
03534     14 8C 04 F1 | 	add	fp, #20
03538     46 54 01 FB | 	rdlong	local22, fp
0353c     40 8C 84 F1 | 	sub	fp, #64
03540     AA 24 01 F6 | 	mov	arg03, local22
03544     D0 1D B0 FD | 	call	#__system__emitsign_0189
03548     80 56 01 F6 | 	mov	local23, result1
0354c     D4 8C 04 F1 | 	add	fp, #212
03550     46 56 61 FC | 	wrlong	local23, fp
03554     AB 34 01 F6 | 	mov	local06, local23
03558     D4 8C 84 F1 | 	sub	fp, #212
0355c     00 34 5D F2 | 	cmps	local06, #0 wcz
03560     10 00 90 3D |  if_ae	jmp	#LR__0222
03564     D4 8C 04 F1 | 	add	fp, #212
03568     46 00 01 FB | 	rdlong	result1, fp
0356c     D4 8C 84 F1 | 	sub	fp, #212
03570     2C 05 90 FD | 	jmp	#LR__0251
03574                 | LR__0222
03574     D4 8C 04 F1 | 	add	fp, #212
03578     46 86 01 FB | 	rdlong	local47, fp
0357c     14 8C 84 F1 | 	sub	fp, #20
03580     46 34 01 FB | 	rdlong	local06, fp
03584     C3 34 01 F1 | 	add	local06, local47
03588     46 34 61 FC | 	wrlong	local06, fp
0358c     C0 8C 84 F1 | 	sub	fp, #192
03590                 | LR__0223
03590     4C 8C 04 F1 | 	add	fp, #76
03594     46 34 01 FB | 	rdlong	local06, fp
03598     34 8C 84 F1 | 	sub	fp, #52
0359c     46 34 61 FC | 	wrlong	local06, fp
035a0     18 8C 84 F1 | 	sub	fp, #24
035a4     AC CB 9F FE | 	loc	pa,	#(@LR__0229-@LR__0224)
035a8     35 00 A0 FD | 	call	#FCACHE_LOAD_
035ac                 | LR__0224
035ac     18 8C 04 F1 | 	add	fp, #24
035b0     46 4E 01 FB | 	rdlong	local19, fp
035b4     A7 2A 01 F6 | 	mov	local01, local19
035b8     3C 8C 04 F1 | 	add	fp, #60
035bc     46 50 01 FB | 	rdlong	local20, fp
035c0     54 8C 84 F1 | 	sub	fp, #84
035c4     A8 52 01 F6 | 	mov	local21, local20
035c8     A9 2A 59 F2 | 	cmps	local01, local21 wcz
035cc     30 01 90 3D |  if_ae	jmp	#LR__0230
035d0     18 8C 04 F1 | 	add	fp, #24
035d4     46 54 01 FB | 	rdlong	local22, fp
035d8     18 8C 84 F1 | 	sub	fp, #24
035dc     00 54 5D F2 | 	cmps	local22, #0 wcz
035e0     58 00 90 CD |  if_b	jmp	#LR__0225
035e4     18 8C 04 F1 | 	add	fp, #24
035e8     46 70 01 FB | 	rdlong	local36, fp
035ec     40 8C 04 F1 | 	add	fp, #64
035f0     46 88 01 FB | 	rdlong	local48, fp
035f4     58 8C 84 F1 | 	sub	fp, #88
035f8     C4 70 59 F2 | 	cmps	local36, local48 wcz
035fc     3C 00 90 3D |  if_ae	jmp	#LR__0225
03600     C0 8C 04 F1 | 	add	fp, #192
03604     46 54 01 FB | 	rdlong	local22, fp
03608     AA 70 01 F6 | 	mov	local36, local22
0360c     01 70 05 F1 | 	add	local36, #1
03610     46 70 61 FC | 	wrlong	local36, fp
03614     A8 8C 84 F1 | 	sub	fp, #168
03618     46 88 01 FB | 	rdlong	local48, fp
0361c     C4 72 01 F6 | 	mov	local37, local48
03620     58 8C 04 F1 | 	add	fp, #88
03624     46 8A 01 F6 | 	mov	local49, fp
03628     46 72 01 F1 | 	add	local37, fp
0362c     B9 8C C1 FA | 	rdbyte	local50, local37
03630     AA 8C 41 FC | 	wrbyte	local50, local22
03634     70 8C 84 F1 | 	sub	fp, #112
03638     20 00 90 FD | 	jmp	#LR__0226
0363c                 | LR__0225
0363c     C0 8C 04 F1 | 	add	fp, #192
03640     46 54 01 FB | 	rdlong	local22, fp
03644     AA 70 01 F6 | 	mov	local36, local22
03648     01 70 05 F1 | 	add	local36, #1
0364c     46 70 61 FC | 	wrlong	local36, fp
03650     C0 8C 84 F1 | 	sub	fp, #192
03654     30 72 05 F6 | 	mov	local37, #48
03658     AA 60 48 FC | 	wrbyte	#48, local22
0365c                 | LR__0226
0365c     18 8C 04 F1 | 	add	fp, #24
03660     46 54 01 FB | 	rdlong	local22, fp
03664     38 8C 04 F1 | 	add	fp, #56
03668     46 70 01 FB | 	rdlong	local36, fp
0366c     50 8C 84 F1 | 	sub	fp, #80
03670     B8 54 09 F2 | 	cmp	local22, local36 wz
03674     64 00 90 5D |  if_ne	jmp	#LR__0228
03678     CC 8C 04 F1 | 	add	fp, #204
0367c     46 88 01 FB | 	rdlong	local48, fp
03680     CC 8C 84 F1 | 	sub	fp, #204
03684     C4 72 09 F6 | 	mov	local37, local48 wz
03688     28 00 90 5D |  if_ne	jmp	#LR__0227
0368c     54 8C 04 F1 | 	add	fp, #84
03690     46 8C 01 FB | 	rdlong	local50, fp
03694     C6 8A 01 F6 | 	mov	local49, local50
03698     01 8A 85 F1 | 	sub	local49, #1
0369c     3C 8C 84 F1 | 	sub	fp, #60
036a0     46 8E 01 FB | 	rdlong	local51, fp
036a4     18 8C 84 F1 | 	sub	fp, #24
036a8     C7 90 01 F6 | 	mov	local52, local51
036ac     C5 90 59 F2 | 	cmps	local52, local49 wcz
036b0     28 00 90 3D |  if_ae	jmp	#LR__0228
036b4                 | LR__0227
036b4     C0 8C 04 F1 | 	add	fp, #192
036b8     46 56 01 FB | 	rdlong	local23, fp
036bc     AB 54 01 F6 | 	mov	local22, local23
036c0     AB 6E 01 F6 | 	mov	local35, local23
036c4     B7 70 01 F6 | 	mov	local36, local35
036c8     01 70 05 F1 | 	add	local36, #1
036cc     46 70 61 FC | 	wrlong	local36, fp
036d0     C0 8C 84 F1 | 	sub	fp, #192
036d4     2E 72 05 F6 | 	mov	local37, #46
036d8     AA 5C 48 FC | 	wrbyte	#46, local22
036dc                 | LR__0228
036dc     18 8C 04 F1 | 	add	fp, #24
036e0     46 56 01 FB | 	rdlong	local23, fp
036e4     AB 54 01 F6 | 	mov	local22, local23
036e8     AB 6E 01 F6 | 	mov	local35, local23
036ec     B7 70 01 F6 | 	mov	local36, local35
036f0     01 70 05 F1 | 	add	local36, #1
036f4     46 70 61 FC | 	wrlong	local36, fp
036f8     18 8C 84 F1 | 	sub	fp, #24
036fc     AC FE 9F FD | 	jmp	#LR__0224
03700                 | LR__0229
03700                 | LR__0230
03700     34 8C 04 F1 | 	add	fp, #52
03704     46 34 09 FB | 	rdlong	local06, fp wz
03708     34 8C 84 F1 | 	sub	fp, #52
0370c     B0 00 90 AD |  if_e	jmp	#LR__0235
03710     C0 8C 04 F1 | 	add	fp, #192
03714     46 34 01 FB | 	rdlong	local06, fp
03718     01 34 85 F1 | 	sub	local06, #1
0371c     46 34 61 FC | 	wrlong	local06, fp
03720     C0 8C 84 F1 | 	sub	fp, #192
03724     28 C9 9F FE | 	loc	pa,	#(@LR__0232-@LR__0231)
03728     35 00 A0 FD | 	call	#FCACHE_LOAD_
0372c                 | LR__0231
0372c     C0 8C 04 F1 | 	add	fp, #192
03730     46 34 01 FB | 	rdlong	local06, fp
03734     04 8C 04 F1 | 	add	fp, #4
03738     46 4E 01 FB | 	rdlong	local19, fp
0373c     C4 8C 84 F1 | 	sub	fp, #196
03740     A7 34 59 F2 | 	cmps	local06, local19 wcz
03744     34 00 90 ED |  if_be	jmp	#LR__0233
03748     C0 8C 04 F1 | 	add	fp, #192
0374c     46 56 01 FB | 	rdlong	local23, fp
03750     C0 8C 84 F1 | 	sub	fp, #192
03754     AB 54 01 F6 | 	mov	local22, local23
03758     AA 50 C1 FA | 	rdbyte	local20, local22
0375c     30 50 0D F2 | 	cmp	local20, #48 wz
03760     18 00 90 5D |  if_ne	jmp	#LR__0233
03764     C0 8C 04 F1 | 	add	fp, #192
03768     46 34 01 FB | 	rdlong	local06, fp
0376c     01 34 85 F1 | 	sub	local06, #1
03770     46 34 61 FC | 	wrlong	local06, fp
03774     C0 8C 84 F1 | 	sub	fp, #192
03778     B0 FF 9F FD | 	jmp	#LR__0231
0377c                 | LR__0232
0377c                 | LR__0233
0377c     C0 8C 04 F1 | 	add	fp, #192
03780     46 2A 01 FB | 	rdlong	local01, fp
03784     C0 8C 84 F1 | 	sub	fp, #192
03788     95 34 C1 FA | 	rdbyte	local06, local01
0378c     2E 34 0D F2 | 	cmp	local06, #46 wz
03790     14 00 90 5D |  if_ne	jmp	#LR__0234
03794     C0 8C 04 F1 | 	add	fp, #192
03798     46 34 01 FB | 	rdlong	local06, fp
0379c     01 34 85 F1 | 	sub	local06, #1
037a0     46 34 61 FC | 	wrlong	local06, fp
037a4     C0 8C 84 F1 | 	sub	fp, #192
037a8                 | LR__0234
037a8     C0 8C 04 F1 | 	add	fp, #192
037ac     46 52 01 FB | 	rdlong	local21, fp
037b0     A9 4E 01 F6 | 	mov	local19, local21
037b4     01 4E 05 F1 | 	add	local19, #1
037b8     46 4E 61 FC | 	wrlong	local19, fp
037bc     C0 8C 84 F1 | 	sub	fp, #192
037c0                 | LR__0235
037c0     24 8C 04 F1 | 	add	fp, #36
037c4     46 34 09 FB | 	rdlong	local06, fp wz
037c8     24 8C 84 F1 | 	sub	fp, #36
037cc     C4 00 90 AD |  if_e	jmp	#LR__0238
037d0     C0 8C 04 F1 | 	add	fp, #192
037d4     46 34 01 FB | 	rdlong	local06, fp
037d8     9A 4E 01 F6 | 	mov	local19, local06
037dc     01 4E 05 F1 | 	add	local19, #1
037e0     46 4E 61 FC | 	wrlong	local19, fp
037e4     90 8C 84 F1 | 	sub	fp, #144
037e8     46 50 01 FB | 	rdlong	local20, fp
037ec     9A 50 41 FC | 	wrbyte	local20, local06
037f0     90 8C 04 F1 | 	add	fp, #144
037f4     46 34 01 FB | 	rdlong	local06, fp
037f8     9A 4E 01 F6 | 	mov	local19, local06
037fc     01 4E 05 F1 | 	add	local19, #1
03800     46 4E 61 FC | 	wrlong	local19, fp
03804     60 8C 84 F1 | 	sub	fp, #96
03808     46 50 01 FB | 	rdlong	local20, fp
0380c     9A 50 41 FC | 	wrbyte	local20, local06
03810     48 8C 84 F1 | 	sub	fp, #72
03814     46 00 68 FC | 	wrlong	#0, fp
03818     18 8C 84 F1 | 	sub	fp, #24
0381c                 | LR__0236
0381c     18 8C 04 F1 | 	add	fp, #24
03820     46 2A 01 FB | 	rdlong	local01, fp
03824     44 8C 04 F1 | 	add	fp, #68
03828     46 50 01 FB | 	rdlong	local20, fp
0382c     5C 8C 84 F1 | 	sub	fp, #92
03830     A8 52 01 F6 | 	mov	local21, local20
03834     A9 2A 59 F2 | 	cmps	local01, local21 wcz
03838     58 00 90 3D |  if_ae	jmp	#LR__0237
0383c     C0 8C 04 F1 | 	add	fp, #192
03840     46 54 01 FB | 	rdlong	local22, fp
03844     AA 70 01 F6 | 	mov	local36, local22
03848     01 70 05 F1 | 	add	local36, #1
0384c     46 70 61 FC | 	wrlong	local36, fp
03850     A8 8C 84 F1 | 	sub	fp, #168
03854     46 88 01 FB | 	rdlong	local48, fp
03858     C4 72 01 F6 | 	mov	local37, local48
0385c     98 8C 04 F1 | 	add	fp, #152
03860     46 8A 01 F6 | 	mov	local49, fp
03864     46 72 01 F1 | 	add	local37, fp
03868     B9 8C C1 FA | 	rdbyte	local50, local37
0386c     AA 8C 41 FC | 	wrbyte	local50, local22
03870     98 8C 84 F1 | 	sub	fp, #152
03874     46 56 01 FB | 	rdlong	local23, fp
03878     AB 54 01 F6 | 	mov	local22, local23
0387c     AB 6E 01 F6 | 	mov	local35, local23
03880     B7 70 01 F6 | 	mov	local36, local35
03884     01 70 05 F1 | 	add	local36, #1
03888     46 70 61 FC | 	wrlong	local36, fp
0388c     18 8C 84 F1 | 	sub	fp, #24
03890     88 FF 9F FD | 	jmp	#LR__0236
03894                 | LR__0237
03894                 | LR__0238
03894     C0 8C 04 F1 | 	add	fp, #192
03898     46 2A 01 FB | 	rdlong	local01, fp
0389c     C0 8C 84 F1 | 	sub	fp, #192
038a0     95 34 01 F6 | 	mov	local06, local01
038a4     00 4E 05 F6 | 	mov	local19, #0
038a8     9A 00 48 FC | 	wrbyte	#0, local06
038ac                 | LR__0239
038ac     6C 8C 04 F1 | 	add	fp, #108
038b0     46 34 09 FB | 	rdlong	local06, fp wz
038b4     6C 8C 84 F1 | 	sub	fp, #108
038b8     C4 01 90 AD |  if_e	jmp	#LR__0250
038bc     48 8C 04 F1 | 	add	fp, #72
038c0     46 4E 09 FB | 	rdlong	local19, fp wz
038c4     48 8C 84 F1 | 	sub	fp, #72
038c8     B4 01 90 AD |  if_e	jmp	#LR__0250
038cc     C4 8C 04 F1 | 	add	fp, #196
038d0     46 54 01 FB | 	rdlong	local22, fp
038d4     C4 8C 84 F1 | 	sub	fp, #196
038d8     AA 20 01 F6 | 	mov	arg01, local22
038dc     00 92 05 F6 | 	mov	local53, #0
038e0     2C C7 9F FE | 	loc	pa,	#(@LR__0241-@LR__0240)
038e4     35 00 A0 FD | 	call	#FCACHE_LOAD_
038e8                 | LR__0240
038e8     90 94 C9 FA | 	rdbyte	local54, arg01 wz
038ec     01 92 05 51 |  if_ne	add	local53, #1
038f0     01 20 05 51 |  if_ne	add	arg01, #1
038f4     F0 FF 9F 5D |  if_ne	jmp	#LR__0240
038f8                 | LR__0241
038f8     C9 00 01 F6 | 	mov	result1, local53
038fc     80 56 01 F6 | 	mov	local23, result1
03900     6C 8C 04 F1 | 	add	fp, #108
03904     46 6E 01 FB | 	rdlong	local35, fp
03908     6C 8C 84 F1 | 	sub	fp, #108
0390c     B7 70 01 F6 | 	mov	local36, local35
03910     B8 56 59 F2 | 	cmps	local23, local36 wcz
03914     68 01 90 ED |  if_be	jmp	#LR__0250
03918     C4 8C 04 F1 | 	add	fp, #196
0391c     46 34 01 FB | 	rdlong	local06, fp
03920     18 8C 04 F1 | 	add	fp, #24
03924     46 34 61 FC | 	wrlong	local06, fp
03928     B8 8C 84 F1 | 	sub	fp, #184
0392c     46 34 09 FB | 	rdlong	local06, fp wz
03930     24 8C 84 F1 | 	sub	fp, #36
03934     20 00 90 AD |  if_e	jmp	#LR__0242
03938     B8 8C 04 F1 | 	add	fp, #184
0393c     46 00 68 FC | 	wrlong	#0, fp
03940     4C 8C 84 F1 | 	sub	fp, #76
03944     46 34 01 FB | 	rdlong	local06, fp
03948     6C 8C 04 F1 | 	add	fp, #108
0394c     46 34 61 FC | 	wrlong	local06, fp
03950     D8 8C 84 F1 | 	sub	fp, #216
03954     28 00 90 FD | 	jmp	#LR__0243
03958                 | LR__0242
03958     6C 8C 04 F1 | 	add	fp, #108
0395c     46 96 01 FB | 	rdlong	local55, fp
03960     01 96 85 F1 | 	sub	local55, #1
03964     CB 98 01 F6 | 	mov	local56, local55
03968     4C 8C 04 F1 | 	add	fp, #76
0396c     46 34 01 FB | 	rdlong	local06, fp
03970     9A 98 81 F1 | 	sub	local56, local06
03974     20 8C 04 F1 | 	add	fp, #32
03978     46 98 61 FC | 	wrlong	local56, fp
0397c     D8 8C 84 F1 | 	sub	fp, #216
03980                 | LR__0243
03980     BC C6 9F FE | 	loc	pa,	#(@LR__0245-@LR__0244)
03984     35 00 A0 FD | 	call	#FCACHE_LOAD_
03988                 | LR__0244
03988     D8 8C 04 F1 | 	add	fp, #216
0398c     46 34 09 FB | 	rdlong	local06, fp wz
03990     D8 8C 84 F1 | 	sub	fp, #216
03994     30 00 90 AD |  if_e	jmp	#LR__0246
03998     DC 8C 04 F1 | 	add	fp, #220
0399c     46 34 01 FB | 	rdlong	local06, fp
039a0     9A 4E 01 F6 | 	mov	local19, local06
039a4     01 4E 05 F1 | 	add	local19, #1
039a8     46 4E 61 FC | 	wrlong	local19, fp
039ac     9A 54 48 FC | 	wrbyte	#42, local06
039b0     04 8C 84 F1 | 	sub	fp, #4
039b4     46 34 01 FB | 	rdlong	local06, fp
039b8     01 34 85 F1 | 	sub	local06, #1
039bc     46 34 61 FC | 	wrlong	local06, fp
039c0     D8 8C 84 F1 | 	sub	fp, #216
039c4     C0 FF 9F FD | 	jmp	#LR__0244
039c8                 | LR__0245
039c8                 | LR__0246
039c8     B8 8C 04 F1 | 	add	fp, #184
039cc     46 34 09 FB | 	rdlong	local06, fp wz
039d0     B8 8C 84 F1 | 	sub	fp, #184
039d4     80 00 90 AD |  if_e	jmp	#LR__0249
039d8     DC 8C 04 F1 | 	add	fp, #220
039dc     46 34 01 FB | 	rdlong	local06, fp
039e0     9A 4E 01 F6 | 	mov	local19, local06
039e4     01 4E 05 F1 | 	add	local19, #1
039e8     46 4E 61 FC | 	wrlong	local19, fp
039ec     9A 5C 48 FC | 	wrbyte	#46, local06
039f0     04 8C 84 F1 | 	sub	fp, #4
039f4     46 00 68 FC | 	wrlong	#0, fp
039f8     D8 8C 84 F1 | 	sub	fp, #216
039fc                 | LR__0247
039fc     D8 8C 04 F1 | 	add	fp, #216
03a00     46 2A 01 FB | 	rdlong	local01, fp
03a04     20 8C 84 F1 | 	sub	fp, #32
03a08     46 52 01 FB | 	rdlong	local21, fp
03a0c     B8 8C 84 F1 | 	sub	fp, #184
03a10     A9 2A 59 F2 | 	cmps	local01, local21 wcz
03a14     40 00 90 3D |  if_ae	jmp	#LR__0248
03a18     DC 8C 04 F1 | 	add	fp, #220
03a1c     46 54 01 FB | 	rdlong	local22, fp
03a20     AA 70 01 F6 | 	mov	local36, local22
03a24     01 70 05 F1 | 	add	local36, #1
03a28     46 70 61 FC | 	wrlong	local36, fp
03a2c     2A 72 05 F6 | 	mov	local37, #42
03a30     AA 54 48 FC | 	wrbyte	#42, local22
03a34     04 8C 84 F1 | 	sub	fp, #4
03a38     46 56 01 FB | 	rdlong	local23, fp
03a3c     AB 54 01 F6 | 	mov	local22, local23
03a40     AB 6E 01 F6 | 	mov	local35, local23
03a44     B7 70 01 F6 | 	mov	local36, local35
03a48     01 70 05 F1 | 	add	local36, #1
03a4c     46 70 61 FC | 	wrlong	local36, fp
03a50     D8 8C 84 F1 | 	sub	fp, #216
03a54     A4 FF 9F FD | 	jmp	#LR__0247
03a58                 | LR__0248
03a58                 | LR__0249
03a58     DC 8C 04 F1 | 	add	fp, #220
03a5c     46 2A 01 FB | 	rdlong	local01, fp
03a60     95 34 01 F6 | 	mov	local06, local01
03a64     95 52 01 F6 | 	mov	local21, local01
03a68     A9 4E 01 F6 | 	mov	local19, local21
03a6c     01 4E 05 F1 | 	add	local19, #1
03a70     46 4E 61 FC | 	wrlong	local19, fp
03a74     DC 8C 84 F1 | 	sub	fp, #220
03a78     00 50 05 F6 | 	mov	local20, #0
03a7c     9A 00 48 FC | 	wrbyte	#0, local06
03a80                 | LR__0250
03a80     04 8C 04 F1 | 	add	fp, #4
03a84     46 20 01 FB | 	rdlong	arg01, fp
03a88     04 8C 04 F1 | 	add	fp, #4
03a8c     46 22 01 FB | 	rdlong	arg02, fp
03a90     BC 8C 04 F1 | 	add	fp, #188
03a94     46 24 01 FB | 	rdlong	arg03, fp
03a98     C4 8C 84 F1 | 	sub	fp, #196
03a9c     48 EB BF FD | 	call	#__system___fmtstr
03aa0                 | LR__0251
03aa0     46 F0 03 F6 | 	mov	ptra, fp
03aa4     5A 00 A0 FD | 	call	#popregs_
03aa8                 | __system___fmtfloat_ret
03aa8     2D 00 64 FD | 	ret
03aac                 | 
03aac                 | __system___seterror
03aac     00 20 0D F2 | 	cmp	arg01, #0 wz
03ab0     14 00 90 AD |  if_e	jmp	#LR__0252
03ab4     10 F8 04 F1 | 	add	ptr___system__dat__, #16
03ab8     7C 20 61 FC | 	wrlong	arg01, ptr___system__dat__
03abc     10 F8 84 F1 | 	sub	ptr___system__dat__, #16
03ac0     01 00 65 F6 | 	neg	result1, #1
03ac4     04 00 90 FD | 	jmp	#__system___seterror_ret
03ac8                 | LR__0252
03ac8     00 00 05 F6 | 	mov	result1, #0
03acc                 | __system___seterror_ret
03acc     2D 00 64 FD | 	ret
03ad0                 | 
03ad0                 | __system___float_fromuns
03ad0     02 88 04 F6 | 	mov	COUNT_, #2
03ad4     4B 00 A0 FD | 	call	#pushregs_
03ad8     90 2A 09 F6 | 	mov	local01, arg01 wz
03adc     95 00 01 A6 |  if_e	mov	result1, local01
03ae0     2C 00 90 AD |  if_e	jmp	#LR__0253
03ae4     95 22 01 F6 | 	mov	arg02, local01
03ae8     91 22 91 F7 | 	encod	arg02, arg02 wc
03aec     01 22 05 C1 |  if_b	add	arg02, #1
03af0     01 22 85 F1 | 	sub	arg02, #1
03af4     1F 2C 05 F6 | 	mov	local02, #31
03af8     91 2C 81 F1 | 	sub	local02, arg02
03afc     96 2A 61 F0 | 	shl	local01, local02
03b00     02 2A 45 F0 | 	shr	local01, #2
03b04     00 20 05 F6 | 	mov	arg01, #0
03b08     95 24 01 F6 | 	mov	arg03, local01
03b0c     90 09 B0 FD | 	call	#__system___float_Pack
03b10                 | LR__0253
03b10     46 F0 03 F6 | 	mov	ptra, fp
03b14     5A 00 A0 FD | 	call	#popregs_
03b18                 | __system___float_fromuns_ret
03b18     2D 00 64 FD | 	ret
03b1c                 | 
03b1c                 | __system___float_fromint
03b1c     02 88 04 F6 | 	mov	COUNT_, #2
03b20     4B 00 A0 FD | 	call	#pushregs_
03b24     90 2A 01 F6 | 	mov	local01, arg01
03b28     00 2A 5D F2 | 	cmps	local01, #0 wcz
03b2c     95 2A 61 C6 |  if_b	neg	local01, local01
03b30     01 2C 05 C6 |  if_b	mov	local02, #1
03b34     00 2C 05 36 |  if_ae	mov	local02, #0
03b38     95 20 01 F6 | 	mov	arg01, local01
03b3c     90 FF BF FD | 	call	#__system___float_fromuns
03b40     00 2C 0D F2 | 	cmp	local02, #0 wz
03b44     1F 00 E5 54 |  if_ne	bitnot	result1, #31
03b48     46 F0 03 F6 | 	mov	ptra, fp
03b4c     5A 00 A0 FD | 	call	#popregs_
03b50                 | __system___float_fromint_ret
03b50     2D 00 64 FD | 	ret
03b54                 | 
03b54                 | __system___float_add
03b54     1F 88 04 F6 | 	mov	COUNT_, #31
03b58     4B 00 A0 FD | 	call	#pushregs_
03b5c     90 2A 01 F6 | 	mov	local01, arg01
03b60     91 2C 01 F6 | 	mov	local02, arg02
03b64     00 2E 05 F6 | 	mov	local03, #0
03b68     95 30 01 F6 | 	mov	local04, local01
03b6c     98 32 01 F6 | 	mov	local05, local04
03b70     09 32 65 F0 | 	shl	local05, #9
03b74     99 34 01 F6 | 	mov	local06, local05
03b78     09 34 45 F0 | 	shr	local06, #9
03b7c     9A 36 01 F6 | 	mov	local07, local06
03b80     98 38 01 F6 | 	mov	local08, local04
03b84     01 38 65 F0 | 	shl	local08, #1
03b88     9C 3A 01 F6 | 	mov	local09, local08
03b8c     18 3A 45 F0 | 	shr	local09, #24
03b90     9D 3C 01 F6 | 	mov	local10, local09
03b94     1F 30 45 F0 | 	shr	local04, #31
03b98     96 20 01 F6 | 	mov	arg01, local02
03b9c     90 00 01 F6 | 	mov	result1, arg01
03ba0     80 3E 01 F6 | 	mov	local11, result1
03ba4     9F 40 01 F6 | 	mov	local12, local11
03ba8     09 40 65 F0 | 	shl	local12, #9
03bac     A0 42 01 F6 | 	mov	local13, local12
03bb0     09 42 45 F0 | 	shr	local13, #9
03bb4     A1 44 01 F6 | 	mov	local14, local13
03bb8     9F 46 01 F6 | 	mov	local15, local11
03bbc     01 46 65 F0 | 	shl	local15, #1
03bc0     A3 48 01 F6 | 	mov	local16, local15
03bc4     18 48 45 F0 | 	shr	local16, #24
03bc8     A4 4A 01 F6 | 	mov	local17, local16
03bcc     9F 4C 01 F6 | 	mov	local18, local11
03bd0     1F 4C 45 F0 | 	shr	local18, #31
03bd4     A6 4E 01 F6 | 	mov	local19, local18
03bd8     00 50 05 F6 | 	mov	local20, #0
03bdc     00 52 05 F6 | 	mov	local21, #0
03be0     A5 3C 19 F2 | 	cmp	local10, local17 wcz
03be4     10 00 90 CD |  if_b	jmp	#LR__0254
03be8     A5 3C 09 F2 | 	cmp	local10, local17 wz
03bec     2C 00 90 5D |  if_ne	jmp	#LR__0255
03bf0     A2 36 19 F2 | 	cmp	local07, local14 wcz
03bf4     24 00 90 3D |  if_ae	jmp	#LR__0255
03bf8                 | LR__0254
03bf8     9B 54 01 F6 | 	mov	local22, local07
03bfc     A2 36 01 F6 | 	mov	local07, local14
03c00     AA 44 01 F6 | 	mov	local14, local22
03c04     9E 54 01 F6 | 	mov	local22, local10
03c08     A5 3C 01 F6 | 	mov	local10, local17
03c0c     AA 4A 01 F6 | 	mov	local17, local22
03c10     98 54 01 F6 | 	mov	local22, local04
03c14     A7 30 01 F6 | 	mov	local04, local19
03c18     AA 4E 01 F6 | 	mov	local19, local22
03c1c                 | LR__0255
03c1c     FF 3C 0D F2 | 	cmp	local10, #255 wz
03c20     98 01 90 AD |  if_e	jmp	#LR__0271
03c24     00 3C 0D F2 | 	cmp	local10, #0 wz
03c28     D4 01 90 AD |  if_e	jmp	#LR__0273
03c2c     17 36 25 F4 | 	bith	local07, #23
03c30                 | LR__0256
03c30     00 4A 0D F2 | 	cmp	local17, #0 wz
03c34     14 02 90 AD |  if_e	jmp	#LR__0276
03c38     17 44 25 F4 | 	bith	local14, #23
03c3c                 | LR__0257
03c3c     7F 3C 85 F1 | 	sub	local10, #127
03c40     A5 4C 01 F6 | 	mov	local18, local17
03c44     7F 4C 85 F1 | 	sub	local18, #127
03c48     A6 4A 01 F6 | 	mov	local17, local18
03c4c     9E 56 01 F6 | 	mov	local23, local10
03c50     A5 56 81 F1 | 	sub	local23, local17
03c54     AB 58 01 F6 | 	mov	local24, local23
03c58     D0 C3 9F FE | 	loc	pa,	#(@LR__0259-@LR__0258)
03c5c     35 00 A0 FD | 	call	#FCACHE_LOAD_
03c60                 | LR__0258
03c60     20 58 5D F2 | 	cmps	local24, #32 wcz
03c64     24 00 90 CD |  if_b	jmp	#LR__0260
03c68     00 50 0D F2 | 	cmp	local20, #0 wz
03c6c     6F 3E 61 FD | 	wrnz	local11
03c70     9F 44 41 F5 | 	or	local14, local11
03c74     A2 50 01 F6 | 	mov	local20, local14
03c78     00 44 05 F6 | 	mov	local14, #0
03c7c     AC 4C 01 F6 | 	mov	local18, local24
03c80     20 4C 85 F1 | 	sub	local18, #32
03c84     A6 58 01 F6 | 	mov	local24, local18
03c88     D4 FF 9F FD | 	jmp	#LR__0258
03c8c                 | LR__0259
03c8c                 | LR__0260
03c8c     00 58 0D F2 | 	cmp	local24, #0 wz
03c90     40 00 90 AD |  if_e	jmp	#LR__0261
03c94     A2 5A 01 F6 | 	mov	local25, local14
03c98     20 3E 05 F6 | 	mov	local11, #32
03c9c     AC 3E 81 F1 | 	sub	local11, local24
03ca0     9F 5A 61 F0 | 	shl	local25, local11
03ca4     A8 5C 01 F6 | 	mov	local26, local20
03ca8     20 3E 05 F6 | 	mov	local11, #32
03cac     AC 3E 81 F1 | 	sub	local11, local24
03cb0     9F 5C 69 F0 | 	shl	local26, local11 wz
03cb4     AC 50 41 F0 | 	shr	local20, local24
03cb8     AC 44 41 F0 | 	shr	local14, local24
03cbc     AD 50 41 F5 | 	or	local20, local25
03cc0     A8 4C 01 F6 | 	mov	local18, local20
03cc4     00 3E 05 F6 | 	mov	local11, #0
03cc8     01 3E 05 56 |  if_ne	mov	local11, #1
03ccc     9F 4C 41 F5 | 	or	local18, local11
03cd0     A6 50 01 F6 | 	mov	local20, local18
03cd4                 | LR__0261
03cd4     98 5E 01 F6 | 	mov	local27, local04
03cd8     A7 5E 61 F5 | 	xor	local27, local19
03cdc     AF 60 01 F6 | 	mov	local28, local27
03ce0     01 60 05 F5 | 	and	local28, #1
03ce4     B0 62 09 F6 | 	mov	local29, local28 wz
03ce8     18 00 90 AD |  if_e	jmp	#LR__0262
03cec     A2 44 21 F6 | 	not	local14, local14
03cf0     A8 50 21 F6 | 	not	local20, local20
03cf4     01 50 0D F1 | 	add	local20, #1 wz
03cf8     00 3E 05 F6 | 	mov	local11, #0
03cfc     01 3E 05 A6 |  if_e	mov	local11, #1
03d00     9F 44 01 F1 | 	add	local14, local11
03d04                 | LR__0262
03d04     A8 52 11 F1 | 	add	local21, local20 wc
03d08     A2 36 21 F1 | 	addx	local07, local14
03d0c     00 36 5D F2 | 	cmps	local07, #0 wcz
03d10     1C 00 90 3D |  if_ae	jmp	#LR__0263
03d14     01 30 65 F5 | 	xor	local04, #1
03d18     9B 36 21 F6 | 	not	local07, local07
03d1c     A9 52 21 F6 | 	not	local21, local21
03d20     01 52 0D F1 | 	add	local21, #1 wz
03d24     00 3E 05 F6 | 	mov	local11, #0
03d28     01 3E 05 A6 |  if_e	mov	local11, #1
03d2c     9F 36 01 F1 | 	add	local07, local11
03d30                 | LR__0263
03d30     00 80 00 FF 
03d34     00 36 1D F2 | 	cmp	local07, ##16777216 wcz
03d38     28 00 90 CD |  if_b	jmp	#LR__0264
03d3c     01 3C 05 F1 | 	add	local10, #1
03d40     A9 64 01 F6 | 	mov	local30, local21
03d44     01 64 05 F5 | 	and	local30, #1
03d48     01 52 45 F0 | 	shr	local21, #1
03d4c     9B 66 01 F6 | 	mov	local31, local07
03d50     1F 66 65 F0 | 	shl	local31, #31
03d54     B3 52 41 F5 | 	or	local21, local31
03d58     B2 52 41 F5 | 	or	local21, local30
03d5c     01 36 45 F0 | 	shr	local07, #1
03d60     40 00 90 FD | 	jmp	#LR__0270
03d64                 | LR__0264
03d64     00 40 00 FF 
03d68     00 36 1D F2 | 	cmp	local07, ##8388608 wcz
03d6c     34 00 90 3D |  if_ae	jmp	#LR__0269
03d70     00 36 0D F2 | 	cmp	local07, #0 wz
03d74     10 00 90 5D |  if_ne	jmp	#LR__0265
03d78     00 52 0D F2 | 	cmp	local21, #0 wz
03d7c     08 30 45 A5 |  if_e	or	local04, #8
03d80     01 30 25 A5 |  if_e	andn	local04, #1
03d84     1C 00 90 AD |  if_e	jmp	#LR__0268
03d88                 | LR__0265
03d88                 | LR__0266
03d88     00 40 00 FF 
03d8c     00 36 1D F2 | 	cmp	local07, ##8388608 wcz
03d90     10 00 90 3D |  if_ae	jmp	#LR__0267
03d94     A9 52 11 F1 | 	add	local21, local21 wc
03d98     9B 36 21 F1 | 	addx	local07, local07
03d9c     01 3C 85 F1 | 	sub	local10, #1
03da0     E4 FF 9F FD | 	jmp	#LR__0266
03da4                 | LR__0267
03da4                 | LR__0268
03da4                 | LR__0269
03da4                 | LR__0270
03da4     9B 20 01 F6 | 	mov	arg01, local07
03da8     A9 22 01 F6 | 	mov	arg02, local21
03dac     9E 24 01 F6 | 	mov	arg03, local10
03db0     98 26 01 F6 | 	mov	arg04, local04
03db4     94 15 B0 FD | 	call	#__system__pack_0257
03db8     D4 00 90 FD | 	jmp	#LR__0279
03dbc                 | LR__0271
03dbc     FF 4A 0D F2 | 	cmp	local17, #255 wz
03dc0     10 00 90 5D |  if_ne	jmp	#LR__0272
03dc4     98 4E 09 F2 | 	cmp	local19, local04 wz
03dc8     00 F8 3F 5F 
03dcc     00 00 05 56 |  if_ne	mov	result1, ##2146435072
03dd0     BC 00 90 5D |  if_ne	jmp	#LR__0279
03dd4                 | LR__0272
03dd4     00 36 0D F2 | 	cmp	local07, #0 wz
03dd8     00 F8 3F 5F 
03ddc     00 00 05 56 |  if_ne	mov	result1, ##2146435072
03de0     AC 00 90 5D |  if_ne	jmp	#LR__0279
03de4     98 26 01 F6 | 	mov	arg04, local04
03de8     02 26 45 F5 | 	or	arg04, #2
03dec     9B 20 01 F6 | 	mov	arg01, local07
03df0     A9 22 01 F6 | 	mov	arg02, local21
03df4     9E 24 01 F6 | 	mov	arg03, local10
03df8     50 15 B0 FD | 	call	#__system__pack_0257
03dfc     90 00 90 FD | 	jmp	#LR__0279
03e00                 | LR__0273
03e00     00 36 0D F2 | 	cmp	local07, #0 wz
03e04     24 00 90 AD |  if_e	jmp	#LR__0275
03e08     01 36 65 F0 | 	shl	local07, #1
03e0c                 | LR__0274
03e0c     00 40 00 FF 
03e10     00 36 1D F2 | 	cmp	local07, ##8388608 wcz
03e14     18 FE 9F 3D |  if_ae	jmp	#LR__0256
03e18     9E 3E 01 F6 | 	mov	local11, local10
03e1c     01 3E 85 F1 | 	sub	local11, #1
03e20     9F 3C 01 F6 | 	mov	local10, local11
03e24     01 36 65 F0 | 	shl	local07, #1
03e28     E0 FF 9F FD | 	jmp	#LR__0274
03e2c                 | LR__0275
03e2c     A7 30 01 F5 | 	and	local04, local19
03e30     98 26 01 F6 | 	mov	arg04, local04
03e34     08 26 45 F5 | 	or	arg04, #8
03e38     00 20 05 F6 | 	mov	arg01, #0
03e3c     00 22 05 F6 | 	mov	arg02, #0
03e40     00 24 05 F6 | 	mov	arg03, #0
03e44     04 15 B0 FD | 	call	#__system__pack_0257
03e48     44 00 90 FD | 	jmp	#LR__0279
03e4c                 | LR__0276
03e4c     00 44 0D F2 | 	cmp	local14, #0 wz
03e50     24 00 90 AD |  if_e	jmp	#LR__0278
03e54     01 44 65 F0 | 	shl	local14, #1
03e58                 | LR__0277
03e58     00 40 00 FF 
03e5c     00 44 1D F2 | 	cmp	local14, ##8388608 wcz
03e60     D8 FD 9F 3D |  if_ae	jmp	#LR__0257
03e64     A5 3E 01 F6 | 	mov	local11, local17
03e68     01 3E 85 F1 | 	sub	local11, #1
03e6c     9F 4A 01 F6 | 	mov	local17, local11
03e70     01 44 65 F0 | 	shl	local14, #1
03e74     E0 FF 9F FD | 	jmp	#LR__0277
03e78                 | LR__0278
03e78     9E 24 01 F6 | 	mov	arg03, local10
03e7c     7F 24 85 F1 | 	sub	arg03, #127
03e80     9B 20 01 F6 | 	mov	arg01, local07
03e84     A9 22 01 F6 | 	mov	arg02, local21
03e88     98 26 01 F6 | 	mov	arg04, local04
03e8c     BC 14 B0 FD | 	call	#__system__pack_0257
03e90                 | LR__0279
03e90     46 F0 03 F6 | 	mov	ptra, fp
03e94     5A 00 A0 FD | 	call	#popregs_
03e98                 | __system___float_add_ret
03e98     2D 00 64 FD | 	ret
03e9c                 | 
03e9c                 | __system___float_mul
03e9c     1A 88 04 F6 | 	mov	COUNT_, #26
03ea0     4B 00 A0 FD | 	call	#pushregs_
03ea4     90 2A 01 F6 | 	mov	local01, arg01
03ea8     91 2C 01 F6 | 	mov	local02, arg02
03eac     95 2E 01 F6 | 	mov	local03, local01
03eb0     97 30 01 F6 | 	mov	local04, local03
03eb4     09 30 65 F0 | 	shl	local04, #9
03eb8     98 32 01 F6 | 	mov	local05, local04
03ebc     09 32 45 F0 | 	shr	local05, #9
03ec0     99 34 01 F6 | 	mov	local06, local05
03ec4     97 36 01 F6 | 	mov	local07, local03
03ec8     01 36 65 F0 | 	shl	local07, #1
03ecc     9B 38 01 F6 | 	mov	local08, local07
03ed0     18 38 45 F0 | 	shr	local08, #24
03ed4     9C 3A 01 F6 | 	mov	local09, local08
03ed8     1F 2E 45 F0 | 	shr	local03, #31
03edc     96 3C 01 F6 | 	mov	local10, local02
03ee0     9E 20 01 F6 | 	mov	arg01, local10
03ee4     90 00 01 F6 | 	mov	result1, arg01
03ee8     80 3E 01 F6 | 	mov	local11, result1
03eec     9F 40 01 F6 | 	mov	local12, local11
03ef0     A0 42 01 F6 | 	mov	local13, local12
03ef4     09 42 65 F0 | 	shl	local13, #9
03ef8     A1 44 01 F6 | 	mov	local14, local13
03efc     09 44 45 F0 | 	shr	local14, #9
03f00     A2 46 01 F6 | 	mov	local15, local14
03f04     A0 48 01 F6 | 	mov	local16, local12
03f08     01 48 65 F0 | 	shl	local16, #1
03f0c     A4 4A 01 F6 | 	mov	local17, local16
03f10     18 4A 45 F0 | 	shr	local17, #24
03f14     A5 4C 01 F6 | 	mov	local18, local17
03f18     1F 40 45 F0 | 	shr	local12, #31
03f1c     00 4E 05 F6 | 	mov	local19, #0
03f20     A0 2E 61 F5 | 	xor	local03, local12
03f24     FF 3A 0D F2 | 	cmp	local09, #255 wz
03f28     84 00 90 AD |  if_e	jmp	#LR__0283
03f2c     FF 4C 0D F2 | 	cmp	local18, #255 wz
03f30     D4 00 90 AD |  if_e	jmp	#LR__0286
03f34     00 3A 0D F2 | 	cmp	local09, #0 wz
03f38     08 01 90 AD |  if_e	jmp	#LR__0288
03f3c     17 34 25 F4 | 	bith	local06, #23
03f40                 | LR__0280
03f40     00 4C 0D F2 | 	cmp	local18, #0 wz
03f44     3C 01 90 AD |  if_e	jmp	#LR__0291
03f48     17 46 25 F4 | 	bith	local15, #23
03f4c                 | LR__0281
03f4c     9D 50 01 F6 | 	mov	local20, local09
03f50     A6 50 01 F1 | 	add	local20, local18
03f54     FE 50 85 F1 | 	sub	local20, #254
03f58     9A 52 01 F6 | 	mov	local21, local06
03f5c     04 52 65 F0 | 	shl	local21, #4
03f60     A3 54 01 F6 | 	mov	local22, local15
03f64     05 54 65 F0 | 	shl	local22, #5
03f68     AA 52 01 FD | 	qmul	local21, local22
03f6c     18 4E 61 FD | 	getqx	local19
03f70     19 56 61 FD | 	getqy	local23
03f74     00 80 00 FF 
03f78     00 56 1D F2 | 	cmp	local23, ##16777216 wcz
03f7c     18 00 90 CD |  if_b	jmp	#LR__0282
03f80     01 50 05 F1 | 	add	local20, #1
03f84     01 4E 45 F0 | 	shr	local19, #1
03f88     AB 58 01 F6 | 	mov	local24, local23
03f8c     1F 58 65 F0 | 	shl	local24, #31
03f90     AC 4E 41 F5 | 	or	local19, local24
03f94     01 56 45 F0 | 	shr	local23, #1
03f98                 | LR__0282
03f98     AB 20 01 F6 | 	mov	arg01, local23
03f9c     A7 22 01 F6 | 	mov	arg02, local19
03fa0     A8 24 01 F6 | 	mov	arg03, local20
03fa4     97 26 01 F6 | 	mov	arg04, local03
03fa8     A0 13 B0 FD | 	call	#__system__pack_0257
03fac     14 01 90 FD | 	jmp	#LR__0295
03fb0                 | LR__0283
03fb0     00 34 0D F2 | 	cmp	local06, #0 wz
03fb4     95 00 01 56 |  if_ne	mov	result1, local01
03fb8     08 01 90 5D |  if_ne	jmp	#LR__0295
03fbc     FF 4C 5D F2 | 	cmps	local18, #255 wcz
03fc0     1C 00 90 3D |  if_ae	jmp	#LR__0284
03fc4     00 4C 0D F2 | 	cmp	local18, #0 wz
03fc8     20 00 90 5D |  if_ne	jmp	#LR__0285
03fcc     00 46 0D F2 | 	cmp	local15, #0 wz
03fd0     18 00 90 5D |  if_ne	jmp	#LR__0285
03fd4     00 F8 3F FF 
03fd8     00 00 05 F6 | 	mov	result1, ##2146435072
03fdc     E4 00 90 FD | 	jmp	#LR__0295
03fe0                 | LR__0284
03fe0     00 46 0D F2 | 	cmp	local15, #0 wz
03fe4     96 00 01 56 |  if_ne	mov	result1, local02
03fe8     D8 00 90 5D |  if_ne	jmp	#LR__0295
03fec                 | LR__0285
03fec     97 26 01 F6 | 	mov	arg04, local03
03ff0     02 26 45 F5 | 	or	arg04, #2
03ff4     00 20 05 F6 | 	mov	arg01, #0
03ff8     00 22 05 F6 | 	mov	arg02, #0
03ffc     9D 24 01 F6 | 	mov	arg03, local09
04000     48 13 B0 FD | 	call	#__system__pack_0257
04004     BC 00 90 FD | 	jmp	#LR__0295
04008                 | LR__0286
04008     00 3A 0D F2 | 	cmp	local09, #0 wz
0400c     10 00 90 5D |  if_ne	jmp	#LR__0287
04010     00 34 0D F2 | 	cmp	local06, #0 wz
04014     00 F8 3F AF 
04018     00 00 05 A6 |  if_e	mov	result1, ##2146435072
0401c     A4 00 90 AD |  if_e	jmp	#LR__0295
04020                 | LR__0287
04020     00 46 0D F2 | 	cmp	local15, #0 wz
04024     96 00 01 56 |  if_ne	mov	result1, local02
04028     98 00 90 5D |  if_ne	jmp	#LR__0295
0402c     A6 24 01 F6 | 	mov	arg03, local18
04030     AD 26 01 F6 | 	mov	arg04, local25
04034     00 20 05 F6 | 	mov	arg01, #0
04038     00 22 05 F6 | 	mov	arg02, #0
0403c     0C 13 B0 FD | 	call	#__system__pack_0257
04040     80 00 90 FD | 	jmp	#LR__0295
04044                 | LR__0288
04044     00 34 0D F2 | 	cmp	local06, #0 wz
04048     1C 00 90 AD |  if_e	jmp	#LR__0290
0404c     01 34 65 F0 | 	shl	local06, #1
04050                 | LR__0289
04050     00 40 00 FF 
04054     00 34 1D F2 | 	cmp	local06, ##8388608 wcz
04058     E4 FE 9F 3D |  if_ae	jmp	#LR__0280
0405c     01 3A 85 F1 | 	sub	local09, #1
04060     01 34 65 F0 | 	shl	local06, #1
04064     E8 FF 9F FD | 	jmp	#LR__0289
04068                 | LR__0290
04068     97 26 01 F6 | 	mov	arg04, local03
0406c     08 26 45 F5 | 	or	arg04, #8
04070     00 20 05 F6 | 	mov	arg01, #0
04074     00 22 05 F6 | 	mov	arg02, #0
04078     00 24 05 F6 | 	mov	arg03, #0
0407c     CC 12 B0 FD | 	call	#__system__pack_0257
04080     40 00 90 FD | 	jmp	#LR__0295
04084                 | LR__0291
04084     00 46 0D F2 | 	cmp	local15, #0 wz
04088     24 00 90 AD |  if_e	jmp	#LR__0294
0408c     01 46 65 F0 | 	shl	local15, #1
04090     80 BF 9F FE | 	loc	pa,	#(@LR__0293-@LR__0292)
04094     35 00 A0 FD | 	call	#FCACHE_LOAD_
04098                 | LR__0292
04098     00 40 00 FF 
0409c     00 46 1D F2 | 	cmp	local15, ##8388608 wcz
040a0     01 4C 85 C1 |  if_b	sub	local18, #1
040a4     01 46 65 C0 |  if_b	shl	local15, #1
040a8     EC FF 9F CD |  if_b	jmp	#LR__0292
040ac                 | LR__0293
040ac     9C FE 9F FD | 	jmp	#LR__0281
040b0                 | LR__0294
040b0     AE 26 01 F6 | 	mov	arg04, local26
040b4     00 20 05 F6 | 	mov	arg01, #0
040b8     00 22 05 F6 | 	mov	arg02, #0
040bc     00 24 05 F6 | 	mov	arg03, #0
040c0     88 12 B0 FD | 	call	#__system__pack_0257
040c4                 | LR__0295
040c4     46 F0 03 F6 | 	mov	ptra, fp
040c8     5A 00 A0 FD | 	call	#popregs_
040cc                 | __system___float_mul_ret
040cc     2D 00 64 FD | 	ret
040d0                 | 
040d0                 | __system___float_div
040d0     1B 88 04 F6 | 	mov	COUNT_, #27
040d4     4B 00 A0 FD | 	call	#pushregs_
040d8     90 2E 01 F6 | 	mov	local03, arg01
040dc     91 30 01 F6 | 	mov	local04, arg02
040e0     97 32 01 F6 | 	mov	local05, local03
040e4     99 34 01 F6 | 	mov	local06, local05
040e8     09 34 65 F0 | 	shl	local06, #9
040ec     9A 36 01 F6 | 	mov	local07, local06
040f0     09 36 45 F0 | 	shr	local07, #9
040f4     9B 38 01 F6 | 	mov	local08, local07
040f8     99 3A 01 F6 | 	mov	local09, local05
040fc     01 3A 65 F0 | 	shl	local09, #1
04100     9D 3C 01 F6 | 	mov	local10, local09
04104     18 3C 45 F0 | 	shr	local10, #24
04108     9E 3E 01 F6 | 	mov	local11, local10
0410c     1F 32 45 F0 | 	shr	local05, #31
04110     98 00 01 F6 | 	mov	result1, local04
04114     80 40 01 F6 | 	mov	local12, result1
04118     A0 42 01 F6 | 	mov	local13, local12
0411c     09 42 65 F0 | 	shl	local13, #9
04120     A1 44 01 F6 | 	mov	local14, local13
04124     09 44 45 F0 | 	shr	local14, #9
04128     A2 46 01 F6 | 	mov	local15, local14
0412c     A0 48 01 F6 | 	mov	local16, local12
04130     01 48 65 F0 | 	shl	local16, #1
04134     A4 4A 01 F6 | 	mov	local17, local16
04138     18 4A 45 F0 | 	shr	local17, #24
0413c     A5 4C 01 F6 | 	mov	local18, local17
04140     1F 40 45 F0 | 	shr	local12, #31
04144     A0 32 61 F5 | 	xor	local05, local12
04148     FF 3E 0D F2 | 	cmp	local11, #255 wz
0414c     D8 00 90 AD |  if_e	jmp	#LR__0301
04150     FF 4C 0D F2 | 	cmp	local18, #255 wz
04154     08 01 90 AD |  if_e	jmp	#LR__0302
04158     00 3E 0D F2 | 	cmp	local11, #0 wz
0415c     28 01 90 AD |  if_e	jmp	#LR__0303
04160     17 38 25 F4 | 	bith	local08, #23
04164                 | LR__0296
04164     00 4C 0D F2 | 	cmp	local18, #0 wz
04168     78 01 90 AD |  if_e	jmp	#LR__0308
0416c     17 46 25 F4 | 	bith	local15, #23
04170                 | LR__0297
04170     9F 4E 01 F6 | 	mov	local19, local11
04174     A6 4E 81 F1 | 	sub	local19, local18
04178     9C 20 01 F6 | 	mov	arg01, local08
0417c     02 20 45 F0 | 	shr	arg01, #2
04180     9C 22 01 F6 | 	mov	arg02, local08
04184     1E 22 65 F0 | 	shl	arg02, #30
04188     A3 24 01 F6 | 	mov	arg03, local15
0418c     28 20 61 FD | 	setq	arg01
04190     92 22 11 FD | 	qdiv	arg02, arg03
04194     18 00 61 FD | 	getqx	result1
04198     19 02 61 FD | 	getqy	result2
0419c     80 2A 01 F6 | 	mov	local01, result1
041a0     81 2C 01 F6 | 	mov	local02, result2
041a4     95 50 01 F6 | 	mov	local20, local01
041a8     96 52 09 F6 | 	mov	local21, local02 wz
041ac     A8 54 01 F6 | 	mov	local22, local20
041b0     19 54 65 F0 | 	shl	local22, #25
041b4     00 56 05 F6 | 	mov	local23, #0
041b8     01 56 05 56 |  if_ne	mov	local23, #1
041bc     AB 54 41 F5 | 	or	local22, local23
041c0     07 50 45 F0 | 	shr	local20, #7
041c4     00 80 00 FF 
041c8     00 50 1D F2 | 	cmp	local20, ##16777216 wcz
041cc     1C 00 90 CD |  if_b	jmp	#LR__0298
041d0     01 4E 05 F1 | 	add	local19, #1
041d4     01 54 45 F0 | 	shr	local22, #1
041d8     A8 58 01 F6 | 	mov	local24, local20
041dc     1F 58 65 F0 | 	shl	local24, #31
041e0     AC 54 41 F5 | 	or	local22, local24
041e4     01 50 45 F0 | 	shr	local20, #1
041e8     24 00 90 FD | 	jmp	#LR__0300
041ec                 | LR__0298
041ec     00 40 00 FF 
041f0     00 50 1D F2 | 	cmp	local20, ##8388608 wcz
041f4     18 00 90 3D |  if_ae	jmp	#LR__0299
041f8     01 4E 85 F1 | 	sub	local19, #1
041fc     01 50 65 F0 | 	shl	local20, #1
04200     AA 5A 01 F6 | 	mov	local25, local22
04204     1F 5A 45 F0 | 	shr	local25, #31
04208     AD 50 41 F5 | 	or	local20, local25
0420c     01 54 65 F0 | 	shl	local22, #1
04210                 | LR__0299
04210                 | LR__0300
04210     A8 20 01 F6 | 	mov	arg01, local20
04214     AA 22 01 F6 | 	mov	arg02, local22
04218     A7 24 01 F6 | 	mov	arg03, local19
0421c     99 26 01 F6 | 	mov	arg04, local05
04220     28 11 B0 FD | 	call	#__system__pack_0257
04224     FC 00 90 FD | 	jmp	#LR__0312
04228                 | LR__0301
04228     00 38 0D F2 | 	cmp	local08, #0 wz
0422c     97 00 01 56 |  if_ne	mov	result1, local03
04230     F0 00 90 5D |  if_ne	jmp	#LR__0312
04234     FF 4C 0D F2 | 	cmp	local18, #255 wz
04238     00 F8 3F AF 
0423c     00 00 05 A6 |  if_e	mov	result1, ##2146435072
04240     E0 00 90 AD |  if_e	jmp	#LR__0312
04244     02 32 45 F5 | 	or	local05, #2
04248     00 20 05 F6 | 	mov	arg01, #0
0424c     00 22 05 F6 | 	mov	arg02, #0
04250     9F 24 01 F6 | 	mov	arg03, local11
04254     99 26 01 F6 | 	mov	arg04, local05
04258     F0 10 B0 FD | 	call	#__system__pack_0257
0425c     C4 00 90 FD | 	jmp	#LR__0312
04260                 | LR__0302
04260     00 46 0D F2 | 	cmp	local15, #0 wz
04264     98 00 01 56 |  if_ne	mov	result1, local04
04268     B8 00 90 5D |  if_ne	jmp	#LR__0312
0426c     99 26 01 F6 | 	mov	arg04, local05
04270     08 26 45 F5 | 	or	arg04, #8
04274     00 20 05 F6 | 	mov	arg01, #0
04278     00 22 05 F6 | 	mov	arg02, #0
0427c     00 24 05 F6 | 	mov	arg03, #0
04280     C8 10 B0 FD | 	call	#__system__pack_0257
04284     9C 00 90 FD | 	jmp	#LR__0312
04288                 | LR__0303
04288     00 38 0D F2 | 	cmp	local08, #0 wz
0428c     24 00 90 AD |  if_e	jmp	#LR__0306
04290     01 38 65 F0 | 	shl	local08, #1
04294     7C BD 9F FE | 	loc	pa,	#(@LR__0305-@LR__0304)
04298     35 00 A0 FD | 	call	#FCACHE_LOAD_
0429c                 | LR__0304
0429c     00 40 00 FF 
042a0     00 38 1D F2 | 	cmp	local08, ##8388608 wcz
042a4     01 3E 85 C1 |  if_b	sub	local11, #1
042a8     01 38 65 C0 |  if_b	shl	local08, #1
042ac     EC FF 9F CD |  if_b	jmp	#LR__0304
042b0                 | LR__0305
042b0     B0 FE 9F FD | 	jmp	#LR__0296
042b4                 | LR__0306
042b4     00 4C 0D F2 | 	cmp	local18, #0 wz
042b8     10 00 90 5D |  if_ne	jmp	#LR__0307
042bc     00 46 0D F2 | 	cmp	local15, #0 wz
042c0     00 F8 3F AF 
042c4     00 00 05 A6 |  if_e	mov	result1, ##2146435072
042c8     58 00 90 AD |  if_e	jmp	#LR__0312
042cc                 | LR__0307
042cc     AE 26 01 F6 | 	mov	arg04, local26
042d0     00 20 05 F6 | 	mov	arg01, #0
042d4     00 22 05 F6 | 	mov	arg02, #0
042d8     00 24 05 F6 | 	mov	arg03, #0
042dc     6C 10 B0 FD | 	call	#__system__pack_0257
042e0     40 00 90 FD | 	jmp	#LR__0312
042e4                 | LR__0308
042e4     00 46 0D F2 | 	cmp	local15, #0 wz
042e8     24 00 90 AD |  if_e	jmp	#LR__0311
042ec     01 46 65 F0 | 	shl	local15, #1
042f0     20 BD 9F FE | 	loc	pa,	#(@LR__0310-@LR__0309)
042f4     35 00 A0 FD | 	call	#FCACHE_LOAD_
042f8                 | LR__0309
042f8     00 40 00 FF 
042fc     00 46 1D F2 | 	cmp	local15, ##8388608 wcz
04300     01 4C 85 C1 |  if_b	sub	local18, #1
04304     01 46 65 C0 |  if_b	shl	local15, #1
04308     EC FF 9F CD |  if_b	jmp	#LR__0309
0430c                 | LR__0310
0430c     60 FE 9F FD | 	jmp	#LR__0297
04310                 | LR__0311
04310     AF 26 01 F6 | 	mov	arg04, local27
04314     00 20 05 F6 | 	mov	arg01, #0
04318     00 22 05 F6 | 	mov	arg02, #0
0431c     00 24 05 F6 | 	mov	arg03, #0
04320     28 10 B0 FD | 	call	#__system__pack_0257
04324                 | LR__0312
04324     46 F0 03 F6 | 	mov	ptra, fp
04328     5A 00 A0 FD | 	call	#popregs_
0432c                 | __system___float_div_ret
0432c     2D 00 64 FD | 	ret
04330                 | 
04330                 | __system___float_cmp
04330     90 0C 01 F6 | 	mov	_var01, arg01
04334     00 C0 3F FF 
04338     00 0C 5D F2 | 	cmps	_var01, ##2139095040 wcz
0433c     0C 00 90 1D |  if_a	jmp	#LR__0313
04340     00 C0 3F FF 
04344     00 22 5D F2 | 	cmps	arg02, ##2139095040 wcz
04348     08 00 90 ED |  if_be	jmp	#LR__0314
0434c                 | LR__0313
0434c     92 00 01 F6 | 	mov	result1, arg03
04350     88 00 90 FD | 	jmp	#__system___float_cmp_ret
04354                 | LR__0314
04354     00 C0 7F FF 
04358     00 0C 1D F2 | 	cmp	_var01, ##-8388608 wcz
0435c     0C 00 90 1D |  if_a	jmp	#LR__0315
04360     00 C0 7F FF 
04364     00 0C 1D F2 | 	cmp	_var01, ##-8388608 wcz
04368     08 00 90 ED |  if_be	jmp	#LR__0316
0436c                 | LR__0315
0436c     92 00 01 F6 | 	mov	result1, arg03
04370     68 00 90 FD | 	jmp	#__system___float_cmp_ret
04374                 | LR__0316
04374     00 0C 5D F2 | 	cmps	_var01, #0 wcz
04378     30 00 90 3D |  if_ae	jmp	#LR__0318
0437c     00 22 5D F2 | 	cmps	arg02, #0 wcz
04380     91 00 01 C6 |  if_b	mov	result1, arg02
04384     86 00 81 C1 |  if_b	sub	result1, _var01
04388     50 00 90 CD |  if_b	jmp	#__system___float_cmp_ret
0438c     00 22 0D F2 | 	cmp	arg02, #0 wz
04390     10 00 90 5D |  if_ne	jmp	#LR__0317
04394     00 00 40 FF 
04398     00 0C 0D F2 | 	cmp	_var01, ##-2147483648 wz
0439c     00 00 05 A6 |  if_e	mov	result1, #0
043a0     38 00 90 AD |  if_e	jmp	#__system___float_cmp_ret
043a4                 | LR__0317
043a4     01 00 65 F6 | 	neg	result1, #1
043a8     30 00 90 FD | 	jmp	#__system___float_cmp_ret
043ac                 | LR__0318
043ac     00 22 5D F2 | 	cmps	arg02, #0 wcz
043b0     20 00 90 3D |  if_ae	jmp	#LR__0320
043b4     00 0C 0D F2 | 	cmp	_var01, #0 wz
043b8     10 00 90 5D |  if_ne	jmp	#LR__0319
043bc     00 00 40 FF 
043c0     00 22 0D F2 | 	cmp	arg02, ##-2147483648 wz
043c4     00 00 05 A6 |  if_e	mov	result1, #0
043c8     10 00 90 AD |  if_e	jmp	#__system___float_cmp_ret
043cc                 | LR__0319
043cc     01 00 05 F6 | 	mov	result1, #1
043d0     08 00 90 FD | 	jmp	#__system___float_cmp_ret
043d4                 | LR__0320
043d4     91 0C 81 F1 | 	sub	_var01, arg02
043d8     86 00 01 F6 | 	mov	result1, _var01
043dc                 | __system___float_cmp_ret
043dc     2D 00 64 FD | 	ret
043e0                 | 
043e0                 | __system___float_tointeger
043e0     04 88 04 F6 | 	mov	COUNT_, #4
043e4     4B 00 A0 FD | 	call	#pushregs_
043e8     91 2A 01 F6 | 	mov	local01, arg02
043ec     54 00 B0 FD | 	call	#__system___float_Unpack
043f0     81 2C 01 F6 | 	mov	local02, result2
043f4     82 2E 01 F6 | 	mov	local03, result3
043f8     FF FF 7F FF 
043fc     FF 2D 5D F2 | 	cmps	local02, ##-1 wcz
04400     30 00 90 CD |  if_b	jmp	#LR__0321
04404     1E 2C 5D F2 | 	cmps	local02, #30 wcz
04408     28 00 90 1D |  if_a	jmp	#LR__0321
0440c     02 2E 65 F0 | 	shl	local03, #2
04410     1E 30 05 F6 | 	mov	local04, #30
04414     96 30 81 F1 | 	sub	local04, local02
04418     98 2E 41 F0 | 	shr	local03, local04
0441c     95 2E 01 F1 | 	add	local03, local01
04420     01 2E 45 F0 | 	shr	local03, #1
04424     00 00 0D F2 | 	cmp	result1, #0 wz
04428     97 2E 61 56 |  if_ne	neg	local03, local03
0442c     97 00 01 F6 | 	mov	result1, local03
04430     04 00 90 FD | 	jmp	#LR__0322
04434                 | LR__0321
04434     00 00 05 F6 | 	mov	result1, #0
04438                 | LR__0322
04438     46 F0 03 F6 | 	mov	ptra, fp
0443c     5A 00 A0 FD | 	call	#popregs_
04440                 | __system___float_tointeger_ret
04440     2D 00 64 FD | 	ret
04444                 | 
04444                 | __system___float_Unpack
04444     90 0C 01 F6 | 	mov	_var01, arg01
04448     1F 0C 45 F0 | 	shr	_var01, #31
0444c     90 0E 01 F6 | 	mov	_var02, arg01
04450     01 0E 65 F0 | 	shl	_var02, #1
04454     18 0E 4D F0 | 	shr	_var02, #24 wz
04458     FF 3F 00 FF 
0445c     FF 21 05 F5 | 	and	arg01, ##8388607
04460     06 20 65 50 |  if_ne	shl	arg01, #6
04464     1D 20 25 54 |  if_ne	bith	arg01, #29
04468     20 00 90 5D |  if_ne	jmp	#LR__0323
0446c     90 10 01 F6 | 	mov	_var03, arg01
04470     88 10 91 F7 | 	encod	_var03, _var03 wc
04474     01 10 05 C1 |  if_b	add	_var03, #1
04478     17 10 85 F1 | 	sub	_var03, #23
0447c     88 0E 01 F6 | 	mov	_var02, _var03
04480     07 12 05 F6 | 	mov	_var04, #7
04484     88 12 81 F1 | 	sub	_var04, _var03
04488     89 20 61 F0 | 	shl	arg01, _var04
0448c                 | LR__0323
0448c     7F 0E 85 F1 | 	sub	_var02, #127
04490     90 04 01 F6 | 	mov	result3, arg01
04494     86 00 01 F6 | 	mov	result1, _var01
04498     87 02 01 F6 | 	mov	result2, _var02
0449c                 | __system___float_Unpack_ret
0449c     2D 00 64 FD | 	ret
044a0                 | 
044a0                 | __system___float_Pack
044a0     00 0C 05 F6 | 	mov	_var01, #0
044a4     00 24 0D F2 | 	cmp	arg03, #0 wz
044a8     84 00 90 AD |  if_e	jmp	#LR__0325
044ac     92 0E 01 F6 | 	mov	_var02, arg03
044b0     87 0E 91 F7 | 	encod	_var02, _var02 wc
044b4     01 0E 05 C1 |  if_b	add	_var02, #1
044b8     21 0C 05 F6 | 	mov	_var01, #33
044bc     87 0C 81 F1 | 	sub	_var01, _var02
044c0     86 24 61 F0 | 	shl	arg03, _var01
044c4     03 10 05 F6 | 	mov	_var03, #3
044c8     86 10 81 F1 | 	sub	_var03, _var01
044cc     88 22 01 F1 | 	add	arg02, _var03
044d0     00 25 05 F1 | 	add	arg03, #256
044d4     92 12 01 F6 | 	mov	_var04, arg03
044d8     FF 12 2D F5 | 	andn	_var04, #255 wz
044dc     01 22 05 A1 |  if_e	add	arg02, #1
044e0     7F 22 05 F1 | 	add	arg02, #127
044e4     FF FF 7F FF 
044e8     E9 23 45 F3 | 	fges	arg02, ##-23
044ec     FF 22 65 F3 | 	fles	arg02, #255
044f0     01 22 5D F2 | 	cmps	arg02, #1 wcz
044f4     1C 00 90 3D |  if_ae	jmp	#LR__0324
044f8     01 24 45 F0 | 	shr	arg03, #1
044fc     1F 12 C5 F9 | 	decod	_var04, #31
04500     92 12 01 F1 | 	add	_var04, arg03
04504     91 22 61 F6 | 	neg	arg02, arg02
04508     91 12 41 F0 | 	shr	_var04, arg02
0450c     89 24 01 F6 | 	mov	arg03, _var04
04510     00 22 05 F6 | 	mov	arg02, #0
04514                 | LR__0324
04514     1F 20 65 F0 | 	shl	arg01, #31
04518     90 00 01 F6 | 	mov	result1, arg01
0451c     17 22 65 F0 | 	shl	arg02, #23
04520     91 00 41 F5 | 	or	result1, arg02
04524     09 24 45 F0 | 	shr	arg03, #9
04528     92 00 41 F5 | 	or	result1, arg03
0452c     04 00 90 FD | 	jmp	#__system___float_Pack_ret
04530                 | LR__0325
04530     86 00 01 F6 | 	mov	result1, _var01
04534                 | __system___float_Pack_ret
04534     2D 00 64 FD | 	ret
04538                 | 
04538                 | __system____builtin_ilogb
04538     02 88 04 F6 | 	mov	COUNT_, #2
0453c     4B 00 A0 FD | 	call	#pushregs_
04540     00 FF BF FD | 	call	#__system___float_Unpack
04544     81 2A 01 F6 | 	mov	local01, result2
04548     82 2C 09 F6 | 	mov	local02, result3 wz
0454c     00 00 40 AF 
04550     01 00 05 A6 |  if_e	mov	result1, ##-2147483647
04554     24 00 90 AD |  if_e	jmp	#LR__0327
04558     80 2A 0D F2 | 	cmp	local01, #128 wz
0455c     18 00 90 5D |  if_ne	jmp	#LR__0326
04560     00 00 10 FF 
04564     00 2C 0D F2 | 	cmp	local02, ##536870912 wz
04568     1E 00 CD A9 |  if_e	bmask	result1, #30
0456c     0C 00 90 AD |  if_e	jmp	#LR__0327
04570     1F 00 C5 F9 | 	decod	result1, #31
04574     04 00 90 FD | 	jmp	#LR__0327
04578                 | LR__0326
04578     95 00 01 F6 | 	mov	result1, local01
0457c                 | LR__0327
0457c     46 F0 03 F6 | 	mov	ptra, fp
04580     5A 00 A0 FD | 	call	#popregs_
04584                 | __system____builtin_ilogb_ret
04584     2D 00 64 FD | 	ret
04588                 | 
04588                 | __system___float_pow_n
04588     05 88 04 F6 | 	mov	COUNT_, #5
0458c     4B 00 A0 FD | 	call	#pushregs_
04590     90 2A 01 F6 | 	mov	local01, arg01
04594     91 2C 01 F6 | 	mov	local02, arg02
04598     92 2E 01 F6 | 	mov	local03, arg03
0459c     00 2E 5D F2 | 	cmps	local03, #0 wcz
045a0     18 00 90 3D |  if_ae	jmp	#LR__0328
045a4     01 30 05 F6 | 	mov	local04, #1
045a8     97 2E 61 F6 | 	neg	local03, local03
045ac     00 2E 5D F2 | 	cmps	local03, #0 wcz
045b0     00 00 05 C6 |  if_b	mov	result1, #0
045b4     94 00 90 CD |  if_b	jmp	#LR__0336
045b8     04 00 90 FD | 	jmp	#LR__0329
045bc                 | LR__0328
045bc     00 30 05 F6 | 	mov	local04, #0
045c0                 | LR__0329
045c0     00 C0 1F FF 
045c4     00 32 05 F6 | 	mov	local05, ##1065353216
045c8                 | LR__0330
045c8     00 2E 5D F2 | 	cmps	local03, #0 wcz
045cc     30 00 90 ED |  if_be	jmp	#LR__0332
045d0     01 2E CD F7 | 	test	local03, #1 wz
045d4     10 00 90 AD |  if_e	jmp	#LR__0331
045d8     99 20 01 F6 | 	mov	arg01, local05
045dc     96 22 01 F6 | 	mov	arg02, local02
045e0     B8 F8 BF FD | 	call	#__system___float_mul
045e4     80 32 01 F6 | 	mov	local05, result1
045e8                 | LR__0331
045e8     01 2E C5 F0 | 	sar	local03, #1
045ec     96 20 01 F6 | 	mov	arg01, local02
045f0     96 22 01 F6 | 	mov	arg02, local02
045f4     A4 F8 BF FD | 	call	#__system___float_mul
045f8     80 2C 01 F6 | 	mov	local02, result1
045fc     C8 FF 9F FD | 	jmp	#LR__0330
04600                 | LR__0332
04600     00 30 0D F2 | 	cmp	local04, #0 wz
04604     14 00 90 AD |  if_e	jmp	#LR__0333
04608     95 20 01 F6 | 	mov	arg01, local01
0460c     99 22 01 F6 | 	mov	arg02, local05
04610     BC FA BF FD | 	call	#__system___float_div
04614     80 32 01 F6 | 	mov	local05, result1
04618     2C 00 90 FD | 	jmp	#LR__0335
0461c                 | LR__0333
0461c     95 20 01 F6 | 	mov	arg01, local01
04620     00 C0 1F FF 
04624     00 22 05 F6 | 	mov	arg02, ##1065353216
04628     01 24 05 F6 | 	mov	arg03, #1
0462c     00 FD BF FD | 	call	#__system___float_cmp
04630     00 00 0D F2 | 	cmp	result1, #0 wz
04634     10 00 90 AD |  if_e	jmp	#LR__0334
04638     95 20 01 F6 | 	mov	arg01, local01
0463c     99 22 01 F6 | 	mov	arg02, local05
04640     58 F8 BF FD | 	call	#__system___float_mul
04644     80 32 01 F6 | 	mov	local05, result1
04648                 | LR__0334
04648                 | LR__0335
04648     99 00 01 F6 | 	mov	result1, local05
0464c                 | LR__0336
0464c     46 F0 03 F6 | 	mov	ptra, fp
04650     5A 00 A0 FD | 	call	#popregs_
04654                 | __system___float_pow_n_ret
04654     2D 00 64 FD | 	ret
04658                 | 
04658                 | __system___gc_ptrs
04658     75 0C 01 F6 | 	mov	_var01, __heap_ptr
0465c     86 0E 01 F6 | 	mov	_var02, _var01
04660     07 00 00 FF 
04664     F8 0F 05 F1 | 	add	_var02, ##4088
04668     86 10 09 FB | 	rdlong	_var03, _var01 wz
0466c     74 00 90 5D |  if_ne	jmp	#LR__0337
04670     87 12 01 F6 | 	mov	_var04, _var02
04674     86 12 81 F1 | 	sub	_var04, _var01
04678     86 02 58 FC | 	wrword	#1, _var01
0467c     86 14 01 F6 | 	mov	_var05, _var01
04680     02 14 05 F1 | 	add	_var05, #2
04684     36 00 80 FF 
04688     8A 20 59 FC | 	wrword	##27792, _var05
0468c     86 16 01 F6 | 	mov	_var06, _var01
04690     04 16 05 F1 | 	add	_var06, #4
04694     8B 00 58 FC | 	wrword	#0, _var06
04698     86 18 01 F6 | 	mov	_var07, _var01
0469c     06 18 05 F1 | 	add	_var07, #6
046a0     8C 02 58 FC | 	wrword	#1, _var07
046a4     10 0C 05 F1 | 	add	_var01, #16
046a8     89 10 51 F6 | 	abs	_var03, _var04 wc
046ac     04 10 45 F0 | 	shr	_var03, #4
046b0     88 10 61 C6 |  if_b	neg	_var03, _var03
046b4     86 10 51 FC | 	wrword	_var03, _var01
046b8     86 1A 01 F6 | 	mov	_var08, _var01
046bc     02 1A 05 F1 | 	add	_var08, #2
046c0     36 00 80 FF 
046c4     8D 1E 59 FC | 	wrword	##27791, _var08
046c8     86 1C 01 F6 | 	mov	_var09, _var01
046cc     04 1C 05 F1 | 	add	_var09, #4
046d0     8E 00 58 FC | 	wrword	#0, _var09
046d4     86 1E 01 F6 | 	mov	_var10, _var01
046d8     06 1E 05 F1 | 	add	_var10, #6
046dc     8F 00 58 FC | 	wrword	#0, _var10
046e0     10 0C 85 F1 | 	sub	_var01, #16
046e4                 | LR__0337
046e4     87 02 01 F6 | 	mov	result2, _var02
046e8     86 00 01 F6 | 	mov	result1, _var01
046ec                 | __system___gc_ptrs_ret
046ec     2D 00 64 FD | 	ret
046f0                 | 
046f0                 | __system___gc_nextBlockPtr
046f0     02 88 04 F6 | 	mov	COUNT_, #2
046f4     4B 00 A0 FD | 	call	#pushregs_
046f8     90 2A 01 F6 | 	mov	local01, arg01
046fc     95 2C E9 FA | 	rdword	local02, local01 wz
04700     10 00 90 5D |  if_ne	jmp	#LR__0338
04704     2A 00 00 FF 
04708     74 21 05 F6 | 	mov	arg01, ##@LR__0417
0470c     F8 01 B0 FD | 	call	#__system___gc_errmsg
04710     0C 00 90 FD | 	jmp	#LR__0339
04714                 | LR__0338
04714     04 2C 65 F0 | 	shl	local02, #4
04718     95 00 01 F6 | 	mov	result1, local01
0471c     96 00 01 F1 | 	add	result1, local02
04720                 | LR__0339
04720     46 F0 03 F6 | 	mov	ptra, fp
04724     5A 00 A0 FD | 	call	#popregs_
04728                 | __system___gc_nextBlockPtr_ret
04728     2D 00 64 FD | 	ret
0472c                 | 
0472c                 | __system___gc_tryalloc
0472c     1B 88 04 F6 | 	mov	COUNT_, #27
04730     4B 00 A0 FD | 	call	#pushregs_
04734     90 2A 01 F6 | 	mov	local01, arg01
04738     91 2C 01 F6 | 	mov	local02, arg02
0473c     18 FF BF FD | 	call	#__system___gc_ptrs
04740     80 2E 01 F6 | 	mov	local03, result1
04744     81 30 01 F6 | 	mov	local04, result2
04748     97 32 01 F6 | 	mov	local05, local03
0474c     00 34 05 F6 | 	mov	local06, #0
04750     04 B9 9F FE | 	loc	pa,	#(@LR__0341-@LR__0340)
04754     35 00 A0 FD | 	call	#FCACHE_LOAD_
04758                 | LR__0340
04758     99 36 01 F6 | 	mov	local07, local05
0475c     06 32 05 F1 | 	add	local05, #6
04760     99 38 01 F6 | 	mov	local08, local05
04764     97 3A 01 F6 | 	mov	local09, local03
04768     9C 3C E1 FA | 	rdword	local10, local08
0476c     9D 20 01 F6 | 	mov	arg01, local09
04770     9E 22 09 F6 | 	mov	arg02, local10 wz
04774     00 00 05 A6 |  if_e	mov	result1, #0
04778     04 22 65 50 |  if_ne	shl	arg02, #4
0477c     91 20 01 51 |  if_ne	add	arg01, arg02
04780     90 00 01 56 |  if_ne	mov	result1, arg01
04784     80 3E 01 F6 | 	mov	local11, result1
04788     9F 32 09 F6 | 	mov	local05, local11 wz
0478c     99 3A 01 56 |  if_ne	mov	local09, local05
04790     9D 40 01 56 |  if_ne	mov	local12, local09
04794     A0 34 E1 5A |  if_ne	rdword	local06, local12
04798     00 32 0D F2 | 	cmp	local05, #0 wz
0479c     10 00 90 AD |  if_e	jmp	#LR__0342
047a0     98 32 59 F2 | 	cmps	local05, local04 wcz
047a4     08 00 90 3D |  if_ae	jmp	#LR__0342
047a8     9A 2A 59 F2 | 	cmps	local01, local06 wcz
047ac     A8 FF 9F 1D |  if_a	jmp	#LR__0340
047b0                 | LR__0341
047b0                 | LR__0342
047b0     00 32 0D F2 | 	cmp	local05, #0 wz
047b4     99 00 01 A6 |  if_e	mov	result1, local05
047b8     40 01 90 AD |  if_e	jmp	#LR__0345
047bc     99 42 01 F6 | 	mov	local13, local05
047c0     06 42 05 F1 | 	add	local13, #6
047c4     A1 44 E1 FA | 	rdword	local14, local13
047c8     9A 2A 59 F2 | 	cmps	local01, local06 wcz
047cc     CC 00 90 3D |  if_ae	jmp	#LR__0344
047d0     99 46 01 F6 | 	mov	local15, local05
047d4     A3 2A 51 FC | 	wrword	local01, local15
047d8     95 48 01 F6 | 	mov	local16, local01
047dc     04 48 65 F0 | 	shl	local16, #4
047e0     99 4A 01 F6 | 	mov	local17, local05
047e4     A4 4A 01 F1 | 	add	local17, local16
047e8     9A 4C 01 F6 | 	mov	local18, local06
047ec     95 4C 81 F1 | 	sub	local18, local01
047f0     A5 4E 01 F6 | 	mov	local19, local17
047f4     A7 4C 51 FC | 	wrword	local18, local19
047f8     A5 50 01 F6 | 	mov	local20, local17
047fc     02 50 05 F1 | 	add	local20, #2
04800     36 00 80 FF 
04804     A8 1E 59 FC | 	wrword	##27791, local20
04808     A5 52 01 F6 | 	mov	local21, local17
0480c     04 52 05 F1 | 	add	local21, #4
04810     99 22 09 F6 | 	mov	arg02, local05 wz
04814     00 00 05 A6 |  if_e	mov	result1, #0
04818     97 22 81 51 |  if_ne	sub	arg02, local03
0481c     04 22 45 50 |  if_ne	shr	arg02, #4
04820     91 00 01 56 |  if_ne	mov	result1, arg02
04824     A9 00 51 FC | 	wrword	result1, local21
04828     A5 54 01 F6 | 	mov	local22, local17
0482c     A1 3A E1 FA | 	rdword	local09, local13
04830     06 54 05 F1 | 	add	local22, #6
04834     AA 3A 51 FC | 	wrword	local09, local22
04838     A5 56 01 F6 | 	mov	local23, local17
0483c     AB 22 09 F6 | 	mov	arg02, local23 wz
04840     00 00 05 A6 |  if_e	mov	result1, #0
04844     97 22 81 51 |  if_ne	sub	arg02, local03
04848     04 22 45 50 |  if_ne	shr	arg02, #4
0484c     91 00 01 56 |  if_ne	mov	result1, arg02
04850     80 44 01 F6 | 	mov	local14, result1
04854     A5 20 01 F6 | 	mov	arg01, local17
04858     94 FE BF FD | 	call	#__system___gc_nextBlockPtr
0485c     80 58 09 F6 | 	mov	local24, result1 wz
04860     38 00 90 AD |  if_e	jmp	#LR__0343
04864     98 58 59 F2 | 	cmps	local24, local04 wcz
04868     30 00 90 3D |  if_ae	jmp	#LR__0343
0486c     AC 5A 01 F6 | 	mov	local25, local24
04870     04 5A 05 F1 | 	add	local25, #4
04874     97 3A 01 F6 | 	mov	local09, local03
04878     AB 3C 01 F6 | 	mov	local10, local23
0487c     9D 20 01 F6 | 	mov	arg01, local09
04880     9E 22 09 F6 | 	mov	arg02, local10 wz
04884     00 00 05 A6 |  if_e	mov	result1, #0
04888     90 22 81 51 |  if_ne	sub	arg02, arg01
0488c     04 22 45 50 |  if_ne	shr	arg02, #4
04890     91 00 01 56 |  if_ne	mov	result1, arg02
04894     80 3E 01 F6 | 	mov	local11, result1
04898     AD 3E 51 FC | 	wrword	local11, local25
0489c                 | LR__0343
0489c                 | LR__0344
0489c     06 36 05 F1 | 	add	local07, #6
048a0     9B 44 51 FC | 	wrword	local14, local07
048a4     36 00 00 FF 
048a8     80 3A 05 F6 | 	mov	local09, ##27776
048ac     96 3A 41 F5 | 	or	local09, local02
048b0     99 5C 01 F6 | 	mov	local26, local05
048b4     02 5C 05 F1 | 	add	local26, #2
048b8     01 00 61 FD | 	cogid	result1
048bc     80 3A 41 F5 | 	or	local09, result1
048c0     AE 3A 51 FC | 	wrword	local09, local26
048c4     97 5E 01 F6 | 	mov	local27, local03
048c8     08 5E 05 F1 | 	add	local27, #8
048cc     AF 3A E1 FA | 	rdword	local09, local27
048d0     A1 3A 51 FC | 	wrword	local09, local13
048d4     99 22 09 F6 | 	mov	arg02, local05 wz
048d8     00 00 05 A6 |  if_e	mov	result1, #0
048dc     97 22 81 51 |  if_ne	sub	arg02, local03
048e0     04 22 45 50 |  if_ne	shr	arg02, #4
048e4     91 00 01 56 |  if_ne	mov	result1, arg02
048e8     AF 00 51 FC | 	wrword	result1, local27
048ec     08 32 05 F1 | 	add	local05, #8
048f0     99 00 01 F6 | 	mov	result1, local05
048f4     00 C0 31 FF 
048f8     00 00 45 F5 | 	or	result1, ##1669332992
048fc                 | LR__0345
048fc     46 F0 03 F6 | 	mov	ptra, fp
04900     5A 00 A0 FD | 	call	#popregs_
04904                 | __system___gc_tryalloc_ret
04904     2D 00 64 FD | 	ret
04908                 | 
04908                 | __system___gc_errmsg
04908     02 88 04 F6 | 	mov	COUNT_, #2
0490c     4B 00 A0 FD | 	call	#pushregs_
04910     90 2A 01 F6 | 	mov	local01, arg01
04914                 | LR__0346
04914     95 2C C9 FA | 	rdbyte	local02, local01 wz
04918     01 2A 05 F1 | 	add	local01, #1
0491c     0C 00 90 AD |  if_e	jmp	#LR__0347
04920     96 20 01 F6 | 	mov	arg01, local02
04924     3C DB BF FD | 	call	#__system___tx
04928     E8 FF 9F FD | 	jmp	#LR__0346
0492c                 | LR__0347
0492c     00 00 05 F6 | 	mov	result1, #0
04930     46 F0 03 F6 | 	mov	ptra, fp
04934     5A 00 A0 FD | 	call	#popregs_
04938                 | __system___gc_errmsg_ret
04938     2D 00 64 FD | 	ret
0493c                 | 
0493c                 | __system___gc_alloc_managed
0493c     02 88 04 F6 | 	mov	COUNT_, #2
04940     4B 00 A0 FD | 	call	#pushregs_
04944     90 2A 01 F6 | 	mov	local01, arg01
04948     00 22 05 F6 | 	mov	arg02, #0
0494c     30 00 B0 FD | 	call	#__system___gc_doalloc
04950     80 2C 09 F6 | 	mov	local02, result1 wz
04954     18 00 90 5D |  if_ne	jmp	#LR__0348
04958     00 2A 5D F2 | 	cmps	local01, #0 wcz
0495c     10 00 90 ED |  if_be	jmp	#LR__0348
04960     2A 00 00 FF 
04964     90 21 05 F6 | 	mov	arg01, ##@LR__0418
04968     9C FF BF FD | 	call	#__system___gc_errmsg
0496c     04 00 90 FD | 	jmp	#LR__0349
04970                 | LR__0348
04970     96 00 01 F6 | 	mov	result1, local02
04974                 | LR__0349
04974     46 F0 03 F6 | 	mov	ptra, fp
04978     5A 00 A0 FD | 	call	#popregs_
0497c                 | __system___gc_alloc_managed_ret
0497c     2D 00 64 FD | 	ret
04980                 | 
04980                 | __system___gc_doalloc
04980     07 88 04 F6 | 	mov	COUNT_, #7
04984     4B 00 A0 FD | 	call	#pushregs_
04988     90 2A 09 F6 | 	mov	local01, arg01 wz
0498c     91 2C 01 F6 | 	mov	local02, arg02
04990     00 00 05 A6 |  if_e	mov	result1, #0
04994     8C 00 90 AD |  if_e	jmp	#LR__0357
04998     17 2A 05 F1 | 	add	local01, #23
0499c     0F 2A 25 F5 | 	andn	local01, #15
049a0     04 2A 45 F0 | 	shr	local01, #4
049a4     0C F8 04 F1 | 	add	ptr___system__dat__, #12
049a8     7C 2E 01 F6 | 	mov	local03, ptr___system__dat__
049ac     97 20 01 F6 | 	mov	arg01, local03
049b0     0C F8 84 F1 | 	sub	ptr___system__dat__, #12
049b4     70 DB BF FD | 	call	#__system___lockmem
049b8     95 20 01 F6 | 	mov	arg01, local01
049bc     96 22 01 F6 | 	mov	arg02, local02
049c0     68 FD BF FD | 	call	#__system___gc_tryalloc
049c4     80 30 09 F6 | 	mov	local04, result1 wz
049c8     14 00 90 5D |  if_ne	jmp	#LR__0350
049cc     38 03 B0 FD | 	call	#__system___gc_docollect
049d0     95 20 01 F6 | 	mov	arg01, local01
049d4     96 22 01 F6 | 	mov	arg02, local02
049d8     50 FD BF FD | 	call	#__system___gc_tryalloc
049dc     80 30 01 F6 | 	mov	local04, result1
049e0                 | LR__0350
049e0     97 00 48 FC | 	wrbyte	#0, local03
049e4     00 30 0D F2 | 	cmp	local04, #0 wz
049e8     34 00 90 AD |  if_e	jmp	#LR__0356
049ec     04 2A 65 F0 | 	shl	local01, #4
049f0     08 2A 85 F1 | 	sub	local01, #8
049f4     95 32 51 F6 | 	abs	local05, local01 wc
049f8     02 32 45 F0 | 	shr	local05, #2
049fc     99 32 61 C6 |  if_b	neg	local05, local05
04a00     99 34 09 F6 | 	mov	local06, local05 wz
04a04     98 36 01 F6 | 	mov	local07, local04
04a08     14 00 90 AD |  if_e	jmp	#LR__0355
04a0c     FC B5 9F FE | 	loc	pa,	#(@LR__0353-@LR__0351)
04a10     35 00 A0 FD | 	call	#FCACHE_LOAD_
04a14                 | LR__0351
04a14     9A 04 D8 FC | 	rep	@LR__0354, local06
04a18                 | LR__0352
04a18     9B 00 68 FC | 	wrlong	#0, local07
04a1c     04 36 05 F1 | 	add	local07, #4
04a20                 | LR__0353
04a20                 | LR__0354
04a20                 | LR__0355
04a20                 | LR__0356
04a20     98 00 01 F6 | 	mov	result1, local04
04a24                 | LR__0357
04a24     46 F0 03 F6 | 	mov	ptra, fp
04a28     5A 00 A0 FD | 	call	#popregs_
04a2c                 | __system___gc_doalloc_ret
04a2c     2D 00 64 FD | 	ret
04a30                 | 
04a30                 | __system___gc_isvalidptr
04a30     92 0C 01 F6 | 	mov	_var01, arg03
04a34     86 0E 01 F6 | 	mov	_var02, _var01
04a38     00 F8 7F FF 
04a3c     00 0E 05 F5 | 	and	_var02, ##-1048576
04a40     00 C0 31 FF 
04a44     00 0E 0D F2 | 	cmp	_var02, ##1669332992 wz
04a48     00 00 05 56 |  if_ne	mov	result1, #0
04a4c     60 00 90 5D |  if_ne	jmp	#__system___gc_isvalidptr_ret
04a50     08 0C 85 F1 | 	sub	_var01, #8
04a54     86 10 01 F6 | 	mov	_var03, _var01
04a58     00 F8 7F FF 
04a5c     00 10 25 F5 | 	andn	_var03, ##-1048576
04a60     90 10 59 F2 | 	cmps	_var03, arg01 wcz
04a64     08 00 90 CD |  if_b	jmp	#LR__0358
04a68     91 10 59 F2 | 	cmps	_var03, arg02 wcz
04a6c     08 00 90 CD |  if_b	jmp	#LR__0359
04a70                 | LR__0358
04a70     00 00 05 F6 | 	mov	result1, #0
04a74     38 00 90 FD | 	jmp	#__system___gc_isvalidptr_ret
04a78                 | LR__0359
04a78     88 0E 01 F6 | 	mov	_var02, _var03
04a7c     90 0E 61 F5 | 	xor	_var02, arg01
04a80     0F 0E 0D F5 | 	and	_var02, #15 wz
04a84     00 00 05 56 |  if_ne	mov	result1, #0
04a88     24 00 90 5D |  if_ne	jmp	#__system___gc_isvalidptr_ret
04a8c     88 12 01 F6 | 	mov	_var04, _var03
04a90     02 12 05 F1 | 	add	_var04, #2
04a94     89 0E E1 FA | 	rdword	_var02, _var04
04a98     7F 00 00 FF 
04a9c     C0 0F 05 F5 | 	and	_var02, ##65472
04aa0     36 00 00 FF 
04aa4     80 0E 0D F2 | 	cmp	_var02, ##27776 wz
04aa8     00 00 05 56 |  if_ne	mov	result1, #0
04aac     88 00 01 A6 |  if_e	mov	result1, _var03
04ab0                 | __system___gc_isvalidptr_ret
04ab0     2D 00 64 FD | 	ret
04ab4                 | 
04ab4                 | __system___gc_dofree
04ab4     1A 88 04 F6 | 	mov	COUNT_, #26
04ab8     4B 00 A0 FD | 	call	#pushregs_
04abc     90 2A 01 F6 | 	mov	local01, arg01
04ac0     94 FB BF FD | 	call	#__system___gc_ptrs
04ac4     81 2C 01 F6 | 	mov	local02, result2
04ac8     80 2E 01 F6 | 	mov	local03, result1
04acc     95 30 01 F6 | 	mov	local04, local01
04ad0     02 30 05 F1 | 	add	local04, #2
04ad4     36 00 80 FF 
04ad8     98 1E 59 FC | 	wrword	##27791, local04
04adc     95 32 01 F6 | 	mov	local05, local01
04ae0     95 20 01 F6 | 	mov	arg01, local01
04ae4     08 FC BF FD | 	call	#__system___gc_nextBlockPtr
04ae8     80 34 01 F6 | 	mov	local06, result1
04aec     60 B5 9F FE | 	loc	pa,	#(@LR__0361-@LR__0360)
04af0     35 00 A0 FD | 	call	#FCACHE_LOAD_
04af4                 | LR__0360
04af4     04 32 05 F1 | 	add	local05, #4
04af8     99 36 01 F6 | 	mov	local07, local05
04afc     9B 22 E9 FA | 	rdword	arg02, local07 wz
04b00     97 20 01 F6 | 	mov	arg01, local03
04b04     00 00 05 A6 |  if_e	mov	result1, #0
04b08     04 22 65 50 |  if_ne	shl	arg02, #4
04b0c     91 20 01 51 |  if_ne	add	arg01, arg02
04b10     90 00 01 56 |  if_ne	mov	result1, arg01
04b14     80 32 09 F6 | 	mov	local05, result1 wz
04b18     28 00 90 AD |  if_e	jmp	#LR__0362
04b1c     99 20 01 F6 | 	mov	arg01, local05
04b20     00 38 05 F6 | 	mov	local08, #0
04b24     02 20 05 F1 | 	add	arg01, #2
04b28     90 3A E1 FA | 	rdword	local09, arg01
04b2c     36 00 00 FF 
04b30     8F 3A 0D F2 | 	cmp	local09, ##27791 wz
04b34     01 38 65 A6 |  if_e	neg	local08, #1
04b38     9C 00 01 F6 | 	mov	result1, local08
04b3c     80 3C 09 F6 | 	mov	local10, result1 wz
04b40     B0 FF 9F AD |  if_e	jmp	#LR__0360
04b44                 | LR__0361
04b44                 | LR__0362
04b44     00 32 0D F2 | 	cmp	local05, #0 wz
04b48     97 32 01 A6 |  if_e	mov	local05, local03
04b4c     99 3E 01 F6 | 	mov	local11, local05
04b50     06 3E 05 F1 | 	add	local11, #6
04b54     95 40 01 F6 | 	mov	local12, local01
04b58     9F 42 E1 FA | 	rdword	local13, local11
04b5c     06 40 05 F1 | 	add	local12, #6
04b60     A0 42 51 FC | 	wrword	local13, local12
04b64     95 22 09 F6 | 	mov	arg02, local01 wz
04b68     00 00 05 A6 |  if_e	mov	result1, #0
04b6c     97 22 81 51 |  if_ne	sub	arg02, local03
04b70     04 22 45 50 |  if_ne	shr	arg02, #4
04b74     91 00 01 56 |  if_ne	mov	result1, arg02
04b78     80 44 01 F6 | 	mov	local14, result1
04b7c     9F 44 51 FC | 	wrword	local14, local11
04b80     97 32 09 F2 | 	cmp	local05, local03 wz
04b84     74 00 90 AD |  if_e	jmp	#LR__0365
04b88     99 20 01 F6 | 	mov	arg01, local05
04b8c     60 FB BF FD | 	call	#__system___gc_nextBlockPtr
04b90     95 00 09 F2 | 	cmp	result1, local01 wz
04b94     64 00 90 5D |  if_ne	jmp	#LR__0364
04b98     99 46 01 F6 | 	mov	local15, local05
04b9c     A3 48 E1 FA | 	rdword	local16, local15
04ba0     95 4A 01 F6 | 	mov	local17, local01
04ba4     A5 3C E1 FA | 	rdword	local10, local17
04ba8     9E 48 01 F1 | 	add	local16, local10
04bac     A3 48 51 FC | 	wrword	local16, local15
04bb0     98 00 58 FC | 	wrword	#0, local04
04bb4     95 20 01 F6 | 	mov	arg01, local01
04bb8     34 FB BF FD | 	call	#__system___gc_nextBlockPtr
04bbc     80 34 01 F6 | 	mov	local06, result1
04bc0     96 34 59 F2 | 	cmps	local06, local02 wcz
04bc4     24 00 90 3D |  if_ae	jmp	#LR__0363
04bc8     9A 4C 01 F6 | 	mov	local18, local06
04bcc     04 4C 05 F1 | 	add	local18, #4
04bd0     99 22 09 F6 | 	mov	arg02, local05 wz
04bd4     00 00 05 A6 |  if_e	mov	result1, #0
04bd8     97 22 81 51 |  if_ne	sub	arg02, local03
04bdc     04 22 45 50 |  if_ne	shr	arg02, #4
04be0     91 00 01 56 |  if_ne	mov	result1, arg02
04be4     80 44 01 F6 | 	mov	local14, result1
04be8     A6 44 51 FC | 	wrword	local14, local18
04bec                 | LR__0363
04bec     A0 42 E1 FA | 	rdword	local13, local12
04bf0     9F 42 51 FC | 	wrword	local13, local11
04bf4     A0 00 58 FC | 	wrword	#0, local12
04bf8     99 2A 01 F6 | 	mov	local01, local05
04bfc                 | LR__0364
04bfc                 | LR__0365
04bfc     95 20 01 F6 | 	mov	arg01, local01
04c00     EC FA BF FD | 	call	#__system___gc_nextBlockPtr
04c04     80 4E 09 F6 | 	mov	local19, result1 wz
04c08     C4 00 90 AD |  if_e	jmp	#LR__0367
04c0c     96 4E 59 F2 | 	cmps	local19, local02 wcz
04c10     BC 00 90 3D |  if_ae	jmp	#LR__0367
04c14     A7 20 01 F6 | 	mov	arg01, local19
04c18     00 38 05 F6 | 	mov	local08, #0
04c1c     02 20 05 F1 | 	add	arg01, #2
04c20     90 3A E1 FA | 	rdword	local09, arg01
04c24     36 00 00 FF 
04c28     8F 3A 0D F2 | 	cmp	local09, ##27791 wz
04c2c     01 38 65 A6 |  if_e	neg	local08, #1
04c30     9C 00 09 F6 | 	mov	result1, local08 wz
04c34     98 00 90 AD |  if_e	jmp	#LR__0367
04c38     95 32 01 F6 | 	mov	local05, local01
04c3c     A7 2A 01 F6 | 	mov	local01, local19
04c40     99 50 01 F6 | 	mov	local20, local05
04c44     A8 52 E1 FA | 	rdword	local21, local20
04c48     95 54 01 F6 | 	mov	local22, local01
04c4c     AA 3C E1 FA | 	rdword	local10, local22
04c50     9E 52 01 F1 | 	add	local21, local10
04c54     A8 52 51 FC | 	wrword	local21, local20
04c58     95 56 01 F6 | 	mov	local23, local01
04c5c     06 56 05 F1 | 	add	local23, #6
04c60     99 58 01 F6 | 	mov	local24, local05
04c64     AB 42 E1 FA | 	rdword	local13, local23
04c68     06 58 05 F1 | 	add	local24, #6
04c6c     AC 42 51 FC | 	wrword	local13, local24
04c70     95 5A 01 F6 | 	mov	local25, local01
04c74     02 5A 05 F1 | 	add	local25, #2
04c78     AD 54 59 FC | 	wrword	#170, local25
04c7c     AB 00 58 FC | 	wrword	#0, local23
04c80     95 42 01 F6 | 	mov	local13, local01
04c84     A1 20 01 F6 | 	mov	arg01, local13
04c88     64 FA BF FD | 	call	#__system___gc_nextBlockPtr
04c8c     80 3C 01 F6 | 	mov	local10, result1
04c90     9E 34 09 F6 | 	mov	local06, local10 wz
04c94     38 00 90 AD |  if_e	jmp	#LR__0366
04c98     96 34 59 F2 | 	cmps	local06, local02 wcz
04c9c     30 00 90 3D |  if_ae	jmp	#LR__0366
04ca0     9A 5C 01 F6 | 	mov	local26, local06
04ca4     04 5C 05 F1 | 	add	local26, #4
04ca8     97 42 01 F6 | 	mov	local13, local03
04cac     99 3C 01 F6 | 	mov	local10, local05
04cb0     A1 20 01 F6 | 	mov	arg01, local13
04cb4     9E 22 09 F6 | 	mov	arg02, local10 wz
04cb8     00 00 05 A6 |  if_e	mov	result1, #0
04cbc     90 22 81 51 |  if_ne	sub	arg02, arg01
04cc0     04 22 45 50 |  if_ne	shr	arg02, #4
04cc4     91 00 01 56 |  if_ne	mov	result1, arg02
04cc8     80 44 01 F6 | 	mov	local14, result1
04ccc     AE 44 51 FC | 	wrword	local14, local26
04cd0                 | LR__0366
04cd0                 | LR__0367
04cd0     9A 00 01 F6 | 	mov	result1, local06
04cd4     46 F0 03 F6 | 	mov	ptra, fp
04cd8     5A 00 A0 FD | 	call	#popregs_
04cdc                 | __system___gc_dofree_ret
04cdc     2D 00 64 FD | 	ret
04ce0                 | 
04ce0                 | __system____topofstack
04ce0     00 88 04 F6 | 	mov	COUNT_, #0
04ce4     4B 00 A0 FD | 	call	#pushregs_
04ce8     0C F0 07 F1 | 	add	ptra, #12
04cec     04 8C 04 F1 | 	add	fp, #4
04cf0     46 20 61 FC | 	wrlong	arg01, fp
04cf4     46 00 01 F6 | 	mov	result1, fp
04cf8     04 8C 84 F1 | 	sub	fp, #4
04cfc     46 F0 03 F6 | 	mov	ptra, fp
04d00     5A 00 A0 FD | 	call	#popregs_
04d04                 | __system____topofstack_ret
04d04     2D 00 64 FD | 	ret
04d08                 | 
04d08                 | __system___gc_docollect
04d08     0C 88 04 F6 | 	mov	COUNT_, #12
04d0c     4B 00 A0 FD | 	call	#pushregs_
04d10     44 F9 BF FD | 	call	#__system___gc_ptrs
04d14     81 2A 01 F6 | 	mov	local01, result2
04d18     80 2C 01 F6 | 	mov	local02, result1
04d1c     96 20 01 F6 | 	mov	arg01, local02
04d20     CC F9 BF FD | 	call	#__system___gc_nextBlockPtr
04d24     80 2E 09 F6 | 	mov	local03, result1 wz
04d28     01 00 61 FD | 	cogid	result1
04d2c     80 30 01 F6 | 	mov	local04, result1
04d30     2C 00 90 AD |  if_e	jmp	#LR__0369
04d34                 | LR__0368
04d34     95 2E 59 F2 | 	cmps	local03, local01 wcz
04d38     24 00 90 3D |  if_ae	jmp	#LR__0369
04d3c     97 32 01 F6 | 	mov	local05, local03
04d40     02 32 05 F1 | 	add	local05, #2
04d44     99 34 E1 FA | 	rdword	local06, local05
04d48     20 34 25 F5 | 	andn	local06, #32
04d4c     99 34 51 FC | 	wrword	local06, local05
04d50     97 20 01 F6 | 	mov	arg01, local03
04d54     98 F9 BF FD | 	call	#__system___gc_nextBlockPtr
04d58     80 2E 09 F6 | 	mov	local03, result1 wz
04d5c     D4 FF 9F 5D |  if_ne	jmp	#LR__0368
04d60                 | LR__0369
04d60     00 36 05 F6 | 	mov	local07, #0
04d64     00 20 05 F6 | 	mov	arg01, #0
04d68     74 FF BF FD | 	call	#__system____topofstack
04d6c     80 38 01 F6 | 	mov	local08, result1
04d70     9B 20 01 F6 | 	mov	arg01, local07
04d74     9C 22 01 F6 | 	mov	arg02, local08
04d78     A0 00 B0 FD | 	call	#__system___gc_markhub
04d7c     2C 01 B0 FD | 	call	#__system___gc_markcog
04d80     96 20 01 F6 | 	mov	arg01, local02
04d84     68 F9 BF FD | 	call	#__system___gc_nextBlockPtr
04d88     80 3A 09 F6 | 	mov	local09, result1 wz
04d8c     10 00 90 5D |  if_ne	jmp	#LR__0370
04d90     2A 00 00 FF 
04d94     AD 21 05 F6 | 	mov	arg01, ##@LR__0419
04d98     6C FB BF FD | 	call	#__system___gc_errmsg
04d9c     70 00 90 FD | 	jmp	#LR__0376
04da0                 | LR__0370
04da0                 | LR__0371
04da0     9D 2E 01 F6 | 	mov	local03, local09
04da4     97 20 01 F6 | 	mov	arg01, local03
04da8     44 F9 BF FD | 	call	#__system___gc_nextBlockPtr
04dac     80 3A 01 F6 | 	mov	local09, result1
04db0     97 3C 01 F6 | 	mov	local10, local03
04db4     02 3C 05 F1 | 	add	local10, #2
04db8     9E 3E E1 FA | 	rdword	local11, local10
04dbc     20 3E CD F7 | 	test	local11, #32 wz
04dc0     3C 00 90 5D |  if_ne	jmp	#LR__0374
04dc4     9F 40 01 F6 | 	mov	local12, local11
04dc8     10 40 0D F5 | 	and	local12, #16 wz
04dcc     30 00 90 5D |  if_ne	jmp	#LR__0374
04dd0     9F 36 01 F6 | 	mov	local07, local11
04dd4     0F 36 05 F5 | 	and	local07, #15
04dd8     9B 3E 01 F6 | 	mov	local11, local07
04ddc     98 3E 09 F2 | 	cmp	local11, local04 wz
04de0     08 00 90 AD |  if_e	jmp	#LR__0372
04de4     0E 3E 0D F2 | 	cmp	local11, #14 wz
04de8     14 00 90 5D |  if_ne	jmp	#LR__0373
04dec                 | LR__0372
04dec     97 36 01 F6 | 	mov	local07, local03
04df0     9B 20 01 F6 | 	mov	arg01, local07
04df4     BC FC BF FD | 	call	#__system___gc_dofree
04df8     80 40 01 F6 | 	mov	local12, result1
04dfc     A0 3A 01 F6 | 	mov	local09, local12
04e00                 | LR__0373
04e00                 | LR__0374
04e00     00 3A 0D F2 | 	cmp	local09, #0 wz
04e04     08 00 90 AD |  if_e	jmp	#LR__0375
04e08     95 3A 59 F2 | 	cmps	local09, local01 wcz
04e0c     90 FF 9F CD |  if_b	jmp	#LR__0371
04e10                 | LR__0375
04e10                 | LR__0376
04e10     46 F0 03 F6 | 	mov	ptra, fp
04e14     5A 00 A0 FD | 	call	#popregs_
04e18                 | __system___gc_docollect_ret
04e18     2D 00 64 FD | 	ret
04e1c                 | 
04e1c                 | __system___gc_markhub
04e1c     0A 88 04 F6 | 	mov	COUNT_, #10
04e20     4B 00 A0 FD | 	call	#pushregs_
04e24     90 2A 01 F6 | 	mov	local01, arg01
04e28     91 2C 01 F6 | 	mov	local02, arg02
04e2c     28 F8 BF FD | 	call	#__system___gc_ptrs
04e30     80 2E 01 F6 | 	mov	local03, result1
04e34     81 30 01 F6 | 	mov	local04, result2
04e38                 | LR__0377
04e38     96 2A 59 F2 | 	cmps	local01, local02 wcz
04e3c     60 00 90 3D |  if_ae	jmp	#LR__0378
04e40     95 24 01 FB | 	rdlong	arg03, local01
04e44     04 2A 05 F1 | 	add	local01, #4
04e48     97 20 01 F6 | 	mov	arg01, local03
04e4c     98 22 01 F6 | 	mov	arg02, local04
04e50     DC FB BF FD | 	call	#__system___gc_isvalidptr
04e54     80 32 09 F6 | 	mov	local05, result1 wz
04e58     DC FF 9F AD |  if_e	jmp	#LR__0377
04e5c     99 20 01 F6 | 	mov	arg01, local05
04e60     00 34 05 F6 | 	mov	local06, #0
04e64     02 20 05 F1 | 	add	arg01, #2
04e68     90 36 E1 FA | 	rdword	local07, arg01
04e6c     36 00 00 FF 
04e70     8F 36 0D F2 | 	cmp	local07, ##27791 wz
04e74     01 34 65 A6 |  if_e	neg	local06, #1
04e78     9A 00 01 F6 | 	mov	result1, local06
04e7c     80 38 09 F6 | 	mov	local08, result1 wz
04e80     B4 FF 9F 5D |  if_ne	jmp	#LR__0377
04e84     99 3A 01 F6 | 	mov	local09, local05
04e88     02 3A 05 F1 | 	add	local09, #2
04e8c     9D 3C E1 FA | 	rdword	local10, local09
04e90     0F 3C 25 F5 | 	andn	local10, #15
04e94     2E 3C 45 F5 | 	or	local10, #46
04e98     9D 3C 51 FC | 	wrword	local10, local09
04e9c     98 FF 9F FD | 	jmp	#LR__0377
04ea0                 | LR__0378
04ea0     46 F0 03 F6 | 	mov	ptra, fp
04ea4     5A 00 A0 FD | 	call	#popregs_
04ea8                 | __system___gc_markhub_ret
04ea8     2D 00 64 FD | 	ret
04eac                 | 
04eac                 | __system___gc_markcog
04eac     07 88 04 F6 | 	mov	COUNT_, #7
04eb0     4B 00 A0 FD | 	call	#pushregs_
04eb4     A0 F7 BF FD | 	call	#__system___gc_ptrs
04eb8     80 2A 01 F6 | 	mov	local01, result1
04ebc     81 2C 01 F6 | 	mov	local02, result2
04ec0     00 2E 05 F6 | 	mov	local03, #0
04ec4                 | LR__0379
04ec4     F0 31 05 F6 | 	mov	local04, #496
04ec8     97 30 81 F1 | 	sub	local04, local03
04ecc     F0 33 05 F6 | 	mov	local05, #496
04ed0     98 32 01 F1 | 	add	local05, local04
04ed4                 | 	'.live	local05
04ed4     00 32 95 F9 | 	alts	local05, #0
04ed8     99 34 01 F6 | 	mov	local06, local05
04edc     96 22 01 F6 | 	mov	arg02, local02
04ee0     95 20 01 F6 | 	mov	arg01, local01
04ee4     9A 24 01 F6 | 	mov	arg03, local06
04ee8     44 FB BF FD | 	call	#__system___gc_isvalidptr
04eec     80 34 09 F6 | 	mov	local06, result1 wz
04ef0     10 00 90 AD |  if_e	jmp	#LR__0380
04ef4     02 34 05 F1 | 	add	local06, #2
04ef8     9A 36 E1 FA | 	rdword	local07, local06
04efc     20 36 45 F5 | 	or	local07, #32
04f00     9A 36 51 FC | 	wrword	local07, local06
04f04                 | LR__0380
04f04     01 2E 05 F1 | 	add	local03, #1
04f08     F0 2F 5D F2 | 	cmps	local03, #496 wcz
04f0c     B4 FF 9F CD |  if_b	jmp	#LR__0379
04f10     46 F0 03 F6 | 	mov	ptra, fp
04f14     5A 00 A0 FD | 	call	#popregs_
04f18                 | __system___gc_markcog_ret
04f18     2D 00 64 FD | 	ret
04f1c                 | 
04f1c                 | __system___strrev
04f1c     90 0C C9 FA | 	rdbyte	_var01, arg01 wz
04f20     40 00 90 AD |  if_e	jmp	#__system___strrev_ret
04f24     90 0E 01 F6 | 	mov	_var02, arg01
04f28     E0 B0 9F FE | 	loc	pa,	#(@LR__0382-@LR__0381)
04f2c     35 00 A0 FD | 	call	#FCACHE_LOAD_
04f30                 | LR__0381
04f30     87 0C C9 FA | 	rdbyte	_var01, _var02 wz
04f34     01 0E 05 51 |  if_ne	add	_var02, #1
04f38     F4 FF 9F 5D |  if_ne	jmp	#LR__0381
04f3c                 | LR__0382
04f3c     01 0E 85 F1 | 	sub	_var02, #1
04f40                 | LR__0383
04f40     90 0E 59 F2 | 	cmps	_var02, arg01 wcz
04f44     1C 00 90 ED |  if_be	jmp	#LR__0384
04f48     90 10 C1 FA | 	rdbyte	_var03, arg01
04f4c     87 12 C1 FA | 	rdbyte	_var04, _var02
04f50     90 12 41 FC | 	wrbyte	_var04, arg01
04f54     87 10 41 FC | 	wrbyte	_var03, _var02
04f58     01 20 05 F1 | 	add	arg01, #1
04f5c     01 0E 85 F1 | 	sub	_var02, #1
04f60     DC FF 9F FD | 	jmp	#LR__0383
04f64                 | LR__0384
04f64                 | __system___strrev_ret
04f64     2D 00 64 FD | 	ret
04f68                 | 
04f68                 | __system___fmtpad
04f68     0C 88 04 F6 | 	mov	COUNT_, #12
04f6c     4B 00 A0 FD | 	call	#pushregs_
04f70     90 2A 01 F6 | 	mov	local01, arg01
04f74     91 2C 01 F6 | 	mov	local02, arg02
04f78     93 2E 01 F6 | 	mov	local03, arg04
04f7c     96 30 E9 F8 | 	getbyte	local04, local02, #1
04f80     16 2C 45 F0 | 	shr	local02, #22
04f84     03 2C 0D F5 | 	and	local02, #3 wz
04f88     00 32 05 F6 | 	mov	local05, #0
04f8c     01 2C 05 A6 |  if_e	mov	local02, #1
04f90     97 2C C9 F7 | 	test	local02, local03 wz
04f94     00 00 05 A6 |  if_e	mov	result1, #0
04f98     80 00 90 AD |  if_e	jmp	#LR__0388
04f9c     92 30 81 F1 | 	sub	local04, arg03
04fa0     98 34 01 F6 | 	mov	local06, local04
04fa4     00 34 5D F2 | 	cmps	local06, #0 wcz
04fa8     00 00 05 E6 |  if_be	mov	result1, #0
04fac     6C 00 90 ED |  if_be	jmp	#LR__0388
04fb0     03 2C 0D F2 | 	cmp	local02, #3 wz
04fb4     18 00 90 5D |  if_ne	jmp	#LR__0385
04fb8     01 2E 0D F2 | 	cmp	local03, #1 wz
04fbc     6E 36 61 FD | 	wrz	local07
04fc0     9B 34 01 F1 | 	add	local06, local07
04fc4     9A 34 51 F6 | 	abs	local06, local06 wc
04fc8     01 34 45 F0 | 	shr	local06, #1
04fcc     9A 34 61 C6 |  if_b	neg	local06, local06
04fd0                 | LR__0385
04fd0     00 34 5D F2 | 	cmps	local06, #0 wcz
04fd4     40 00 90 ED |  if_be	jmp	#LR__0387
04fd8     9A 38 01 F6 | 	mov	local08, local06
04fdc                 | LR__0386
04fdc     95 3A 01 F6 | 	mov	local09, local01
04fe0     9D 36 01 FB | 	rdlong	local07, local09
04fe4     04 3A 05 F1 | 	add	local09, #4
04fe8     9D 3C 01 FB | 	rdlong	local10, local09
04fec     20 20 05 F6 | 	mov	arg01, #32
04ff0     79 3E 01 F6 | 	mov	local11, objptr
04ff4     9B F2 00 F6 | 	mov	objptr, local07
04ff8     2D 3C 61 FD | 	call	local10
04ffc     9F F2 00 F6 | 	mov	objptr, local11
05000     80 40 01 F6 | 	mov	local12, result1
05004     00 40 5D F2 | 	cmps	local12, #0 wcz
05008     A0 00 01 C6 |  if_b	mov	result1, local12
0500c     0C 00 90 CD |  if_b	jmp	#LR__0388
05010     A0 32 01 F1 | 	add	local05, local12
05014     F1 39 6D FB | 	djnz	local08, #LR__0386
05018                 | LR__0387
05018     99 00 01 F6 | 	mov	result1, local05
0501c                 | LR__0388
0501c     46 F0 03 F6 | 	mov	ptra, fp
05020     5A 00 A0 FD | 	call	#popregs_
05024                 | __system___fmtpad_ret
05024     2D 00 64 FD | 	ret
05028                 | 
05028                 | __system___uitoa
05028     09 88 04 F6 | 	mov	COUNT_, #9
0502c     4B 00 A0 FD | 	call	#pushregs_
05030     90 2A 01 F6 | 	mov	local01, arg01
05034     91 2C 01 F6 | 	mov	local02, arg02
05038     92 2E 01 F6 | 	mov	local03, arg03
0503c     93 30 01 F6 | 	mov	local04, arg04
05040     94 32 09 F6 | 	mov	local05, arg05 wz
05044     95 34 01 F6 | 	mov	local06, local01
05048     00 36 05 F6 | 	mov	local07, #0
0504c     37 38 05 56 |  if_ne	mov	local08, #55
05050     57 38 05 A6 |  if_e	mov	local08, #87
05054                 | LR__0389
05054     96 9A 01 F6 | 	mov	muldiva_, local02
05058     97 9C 01 F6 | 	mov	muldivb_, local03
0505c     67 00 A0 FD | 	call	#unsdivide_
05060     CD 3A 01 F6 | 	mov	local09, muldiva_
05064     0A 3A 1D F2 | 	cmp	local09, #10 wcz
05068     30 3A 05 C1 |  if_b	add	local09, #48
0506c     9C 3A 01 31 |  if_ae	add	local09, local08
05070     9A 3A 41 FC | 	wrbyte	local09, local06
05074     96 9A 01 F6 | 	mov	muldiva_, local02
05078     97 9C 01 F6 | 	mov	muldivb_, local03
0507c     01 34 05 F1 | 	add	local06, #1
05080     67 00 A0 FD | 	call	#unsdivide_
05084     CE 2C 01 F6 | 	mov	local02, muldivb_
05088     01 36 05 F1 | 	add	local07, #1
0508c     00 2C 1D F2 | 	cmp	local02, #0 wcz
05090     C0 FF 9F 1D |  if_a	jmp	#LR__0389
05094     98 36 19 F2 | 	cmp	local07, local04 wcz
05098     B8 FF 9F CD |  if_b	jmp	#LR__0389
0509c     9A 00 48 FC | 	wrbyte	#0, local06
050a0     95 20 01 F6 | 	mov	arg01, local01
050a4     74 FE BF FD | 	call	#__system___strrev
050a8     9B 00 01 F6 | 	mov	result1, local07
050ac     46 F0 03 F6 | 	mov	ptra, fp
050b0     5A 00 A0 FD | 	call	#popregs_
050b4                 | __system___uitoa_ret
050b4     2D 00 64 FD | 	ret
050b8                 | 
050b8                 | __system__disassemble_0187
050b8     19 88 04 F6 | 	mov	COUNT_, #25
050bc     4B 00 A0 FD | 	call	#pushregs_
050c0     90 2A 01 F6 | 	mov	local01, arg01
050c4     91 2C 01 F6 | 	mov	local02, arg02
050c8     92 2E 01 F6 | 	mov	local03, arg03
050cc     93 30 01 F6 | 	mov	local04, arg04
050d0     94 32 01 F6 | 	mov	local05, arg05
050d4     99 20 01 F6 | 	mov	arg01, local05
050d8     40 EA BF FD | 	call	#__system___float_fromint
050dc     80 34 01 F6 | 	mov	local06, result1
050e0     00 36 05 F6 | 	mov	local07, #0
050e4     01 38 05 F6 | 	mov	local08, #1
050e8     95 20 01 F6 | 	mov	arg01, local01
050ec     00 22 05 F6 | 	mov	arg02, #0
050f0     01 24 05 F6 | 	mov	arg03, #1
050f4     38 F2 BF FD | 	call	#__system___float_cmp
050f8     96 00 68 AC |  if_e	wrlong	#0, local02
050fc     80 3A 09 F6 | 	mov	local09, result1 wz
05100     97 00 68 AC |  if_e	wrlong	#0, local03
05104     04 02 90 AD |  if_e	jmp	#LR__0401
05108     95 20 01 F6 | 	mov	arg01, local01
0510c     28 F4 BF FD | 	call	#__system____builtin_ilogb
05110     80 3C 01 F6 | 	mov	local10, result1
05114     0A 32 0D F2 | 	cmp	local05, #10 wz
05118     28 00 90 5D |  if_ne	jmp	#LR__0390
0511c     9E 3E 01 F6 | 	mov	local11, local10
05120     01 3E 65 F0 | 	shl	local11, #1
05124     9E 3E 01 F1 | 	add	local11, local10
05128     9F 9A 01 F6 | 	mov	muldiva_, local11
0512c     0A 9C 05 F6 | 	mov	muldivb_, #10
05130     6B 00 A0 FD | 	call	#divide_
05134     CE 40 01 F6 | 	mov	local12, muldivb_
05138     A0 3C 01 F6 | 	mov	local10, local12
0513c     09 42 05 F6 | 	mov	local13, #9
05140     04 00 90 FD | 	jmp	#LR__0391
05144                 | LR__0390
05144     18 42 05 F6 | 	mov	local13, #24
05148                 | LR__0391
05148                 | LR__0392
05148     08 36 5D F2 | 	cmps	local07, #8 wcz
0514c     01 36 05 F1 | 	add	local07, #1
05150     74 00 90 3D |  if_ae	jmp	#LR__0393
05154     00 C0 1F FF 
05158     00 20 05 F6 | 	mov	arg01, ##1065353216
0515c     9A 22 01 F6 | 	mov	arg02, local06
05160     9E 24 01 F6 | 	mov	arg03, local10
05164     20 F4 BF FD | 	call	#__system___float_pow_n
05168     80 44 01 F6 | 	mov	local14, result1
0516c     95 20 01 F6 | 	mov	arg01, local01
05170     A2 22 01 F6 | 	mov	arg02, local14
05174     58 EF BF FD | 	call	#__system___float_div
05178     80 46 01 F6 | 	mov	local15, result1
0517c     A3 20 01 F6 | 	mov	arg01, local15
05180     01 38 05 F6 | 	mov	local08, #1
05184     00 C0 1F FF 
05188     00 22 05 F6 | 	mov	arg02, ##1065353216
0518c     01 24 05 F6 | 	mov	arg03, #1
05190     9C F1 BF FD | 	call	#__system___float_cmp
05194     80 3A 01 F6 | 	mov	local09, result1
05198     00 3A 5D F2 | 	cmps	local09, #0 wcz
0519c     01 3C 85 C1 |  if_b	sub	local10, #1
051a0     A4 FF 9F CD |  if_b	jmp	#LR__0392
051a4     A3 20 01 F6 | 	mov	arg01, local15
051a8     9A 22 01 F6 | 	mov	arg02, local06
051ac     01 38 65 F6 | 	neg	local08, #1
051b0     01 24 65 F6 | 	neg	arg03, #1
051b4     78 F1 BF FD | 	call	#__system___float_cmp
051b8     80 3A 01 F6 | 	mov	local09, result1
051bc     00 3A 5D F2 | 	cmps	local09, #0 wcz
051c0     01 3C 05 31 |  if_ae	add	local10, #1
051c4     80 FF 9F 3D |  if_ae	jmp	#LR__0392
051c8                 | LR__0393
051c8     A3 20 01 F6 | 	mov	arg01, local15
051cc     68 F3 BF FD | 	call	#__system____builtin_ilogb
051d0     80 48 01 F6 | 	mov	local16, result1
051d4     A3 4A 01 F6 | 	mov	local17, local15
051d8     A5 4C 01 F6 | 	mov	local18, local17
051dc     FF 3F 00 FF 
051e0     FF 4D 05 F5 | 	and	local18, ##8388607
051e4     17 4C 25 F4 | 	bith	local18, #23
051e8     A4 4C 61 F0 | 	shl	local18, local16
051ec     02 32 0D F2 | 	cmp	local05, #2 wz
051f0     02 30 65 A0 |  if_e	shl	local04, #2
051f4     00 4E 05 F6 | 	mov	local19, #0
051f8     00 30 5D F2 | 	cmps	local04, #0 wcz
051fc     18 00 90 3D |  if_ae	jmp	#LR__0394
05200     9E 50 01 F6 | 	mov	local20, local10
05204     98 50 81 F1 | 	sub	local20, local04
05208     A8 30 01 F6 | 	mov	local04, local20
0520c     00 30 5D F2 | 	cmps	local04, #0 wcz
05210     F0 00 90 CD |  if_b	jmp	#LR__0400
05214     04 00 90 FD | 	jmp	#LR__0395
05218                 | LR__0394
05218     01 30 05 F1 | 	add	local04, #1
0521c                 | LR__0395
0521c     A1 30 79 F3 | 	fles	local04, local13 wcz
05220     01 52 05 F6 | 	mov	local21, #1
05224                 | LR__0396
05224     00 40 00 FF 
05228     00 4E 1D F2 | 	cmp	local19, ##8388608 wcz
0522c     70 00 90 3D |  if_ae	jmp	#LR__0397
05230     00 30 5D F2 | 	cmps	local04, #0 wcz
05234     01 30 85 F1 | 	sub	local04, #1
05238     64 00 90 ED |  if_be	jmp	#LR__0397
0523c     A6 54 01 F6 | 	mov	local22, local18
05240     17 54 45 F0 | 	shr	local22, #23
05244     AA 20 01 F6 | 	mov	arg01, local22
05248     84 E8 BF FD | 	call	#__system___float_fromuns
0524c     80 56 01 F6 | 	mov	local23, result1
05250     FF 3F 00 FF 
05254     FF 4D 05 F5 | 	and	local18, ##8388607
05258     99 4E 01 FD | 	qmul	local19, local05
0525c     18 20 61 FD | 	getqx	arg01
05260     99 52 01 FD | 	qmul	local21, local05
05264     18 52 61 FD | 	getqx	local21
05268     99 4C 01 FD | 	qmul	local18, local05
0526c     18 4C 61 FD | 	getqx	local18
05270     5C E8 BF FD | 	call	#__system___float_fromuns
05274     80 20 01 F6 | 	mov	arg01, result1
05278     AB 38 01 F6 | 	mov	local08, local23
0527c     9C 22 01 F6 | 	mov	arg02, local08
05280     D0 E8 BF FD | 	call	#__system___float_add
05284     80 3A 01 F6 | 	mov	local09, result1
05288     9D 20 01 F6 | 	mov	arg01, local09
0528c     00 22 05 F6 | 	mov	arg02, #0
05290     4C F1 BF FD | 	call	#__system___float_tointeger
05294     80 58 01 F6 | 	mov	local24, result1
05298     AC 4E 01 F6 | 	mov	local19, local24
0529c     84 FF 9F FD | 	jmp	#LR__0396
052a0                 | LR__0397
052a0     99 50 01 F6 | 	mov	local20, local05
052a4     17 50 65 F0 | 	shl	local20, #23
052a8     A8 5A 51 F6 | 	abs	local25, local20 wc
052ac     01 5A 45 F0 | 	shr	local25, #1
052b0     AD 5A 61 C6 |  if_b	neg	local25, local25
052b4     AD 4C 19 F2 | 	cmp	local18, local25 wcz
052b8     28 00 90 1D |  if_a	jmp	#LR__0398
052bc     99 38 01 F6 | 	mov	local08, local05
052c0     17 38 65 F0 | 	shl	local08, #23
052c4     9C 3A 51 F6 | 	abs	local09, local08 wc
052c8     01 3A 45 F0 | 	shr	local09, #1
052cc     9D 3A 61 C6 |  if_b	neg	local09, local09
052d0     9D 4C 09 F2 | 	cmp	local18, local09 wz
052d4     2C 00 90 5D |  if_ne	jmp	#LR__0399
052d8     A7 58 01 F6 | 	mov	local24, local19
052dc     01 58 0D F5 | 	and	local24, #1 wz
052e0     20 00 90 AD |  if_e	jmp	#LR__0399
052e4                 | LR__0398
052e4     A7 50 01 F6 | 	mov	local20, local19
052e8     A7 5A 01 F6 | 	mov	local25, local19
052ec     01 5A 05 F1 | 	add	local25, #1
052f0     AD 4E 01 F6 | 	mov	local19, local25
052f4     A9 4E 09 F2 | 	cmp	local19, local21 wz
052f8     9E 50 01 A6 |  if_e	mov	local20, local10
052fc     01 50 05 A1 |  if_e	add	local20, #1
05300     A8 3C 01 A6 |  if_e	mov	local10, local20
05304                 | LR__0399
05304                 | LR__0400
05304     96 4E 61 FC | 	wrlong	local19, local02
05308     97 3C 61 FC | 	wrlong	local10, local03
0530c                 | LR__0401
0530c     46 F0 03 F6 | 	mov	ptra, fp
05310     5A 00 A0 FD | 	call	#popregs_
05314                 | __system__disassemble_0187_ret
05314     2D 00 64 FD | 	ret
05318                 | 
05318                 | __system__emitsign_0189
05318     00 0C 05 F6 | 	mov	_var01, #0
0531c     00 22 0D F2 | 	cmp	arg02, #0 wz
05320     90 22 41 5C |  if_ne	wrbyte	arg02, arg01
05324     01 0C 05 56 |  if_ne	mov	_var01, #1
05328     01 20 05 51 |  if_ne	add	arg01, #1
0532c     00 24 0D F2 | 	cmp	arg03, #0 wz
05330     10 00 90 AD |  if_e	jmp	#LR__0402
05334     90 60 48 FC | 	wrbyte	#48, arg01
05338     01 20 05 F1 | 	add	arg01, #1
0533c     90 24 41 FC | 	wrbyte	arg03, arg01
05340     02 0C 05 F1 | 	add	_var01, #2
05344                 | LR__0402
05344     86 00 01 F6 | 	mov	result1, _var01
05348                 | __system__emitsign_0189_ret
05348     2D 00 64 FD | 	ret
0534c                 | 
0534c                 | __system__pack_0257
0534c     0A 88 04 F6 | 	mov	COUNT_, #10
05350     4B 00 A0 FD | 	call	#pushregs_
05354     90 2A 01 F6 | 	mov	local01, arg01
05358     91 2C 01 F6 | 	mov	local02, arg02
0535c     92 2E 01 F6 | 	mov	local03, arg03
05360     93 30 01 F6 | 	mov	local04, arg04
05364     7F 2E 05 F1 | 	add	local03, #127
05368     04 30 CD F7 | 	test	local04, #4 wz
0536c     10 00 90 AD |  if_e	jmp	#LR__0403
05370     00 2A 0D F2 | 	cmp	local01, #0 wz
05374     16 2A C5 A9 |  if_e	decod	local01, #22
05378     F7 2A 25 F4 | 	bith	local01, #247
0537c     C0 00 90 FD | 	jmp	#LR__0412
05380                 | LR__0403
05380     02 30 CD F7 | 	test	local04, #2 wz
05384     00 C0 3F 5F 
05388     00 2A 05 56 |  if_ne	mov	local01, ##2139095040
0538c     00 2C 05 56 |  if_ne	mov	local02, #0
05390     AC 00 90 5D |  if_ne	jmp	#LR__0411
05394     98 32 01 F6 | 	mov	local05, local04
05398     08 32 CD F7 | 	test	local05, #8 wz
0539c     00 2A 05 56 |  if_ne	mov	local01, #0
053a0     9C 00 90 5D |  if_ne	jmp	#LR__0410
053a4     FF 2E 5D F2 | 	cmps	local03, #255 wcz
053a8     00 C0 3F 3F 
053ac     00 2A 05 36 |  if_ae	mov	local01, ##2139095040
053b0     00 2C 05 36 |  if_ae	mov	local02, #0
053b4     88 00 90 3D |  if_ae	jmp	#LR__0409
053b8     00 2E 5D F2 | 	cmps	local03, #0 wcz
053bc     70 00 90 1D |  if_a	jmp	#LR__0407
053c0     01 2C 45 F0 | 	shr	local02, #1
053c4     95 34 01 F6 | 	mov	local06, local01
053c8     01 34 05 F5 | 	and	local06, #1
053cc     1F 34 65 F0 | 	shl	local06, #31
053d0     9A 2C 41 F5 | 	or	local02, local06
053d4     01 2A 45 F0 | 	shr	local01, #1
053d8     60 AC 9F FE | 	loc	pa,	#(@LR__0405-@LR__0404)
053dc     35 00 A0 FD | 	call	#FCACHE_LOAD_
053e0                 | LR__0404
053e0     00 2E 5D F2 | 	cmps	local03, #0 wcz
053e4     34 00 90 3D |  if_ae	jmp	#LR__0406
053e8     00 2A 0D F2 | 	cmp	local01, #0 wz
053ec     2C 00 90 AD |  if_e	jmp	#LR__0406
053f0     96 36 01 F6 | 	mov	local07, local02
053f4     01 36 05 F5 | 	and	local07, #1
053f8     01 2E 05 F1 | 	add	local03, #1
053fc     01 2C 45 F0 | 	shr	local02, #1
05400     95 38 01 F6 | 	mov	local08, local01
05404     01 38 05 F5 | 	and	local08, #1
05408     1F 38 65 F0 | 	shl	local08, #31
0540c     9C 2C 41 F5 | 	or	local02, local08
05410     9B 2C 41 F5 | 	or	local02, local07
05414     01 2A 45 F0 | 	shr	local01, #1
05418     C4 FF 9F FD | 	jmp	#LR__0404
0541c                 | LR__0405
0541c                 | LR__0406
0541c     00 2E 5D F2 | 	cmps	local03, #0 wcz
05420     1C 00 90 3D |  if_ae	jmp	#LR__0408
05424     00 2C 0D F2 | 	cmp	local02, #0 wz
05428     6F 2C 61 FD | 	wrnz	local02
0542c     10 00 90 FD | 	jmp	#LR__0408
05430                 | LR__0407
05430     00 C0 7F FF 
05434     00 2A 25 F5 | 	andn	local01, ##-8388608
05438     17 2E 65 F0 | 	shl	local03, #23
0543c     97 2A 41 F5 | 	or	local01, local03
05440                 | LR__0408
05440                 | LR__0409
05440                 | LR__0410
05440                 | LR__0411
05440                 | LR__0412
05440     01 2A CD F7 | 	test	local01, #1 wz
05444     01 2C 45 55 |  if_ne	or	local02, #1
05448     96 3A 01 F6 | 	mov	local09, local02
0544c     00 3C 05 F6 | 	mov	local10, #0
05450     FF FF 3F FF 
05454     FF 2D 05 F1 | 	add	local02, ##2147483647
05458     9D 2C 19 F2 | 	cmp	local02, local09 wcz
0545c     01 3C 05 C6 |  if_b	mov	local10, #1
05460     9E 2A 01 F1 | 	add	local01, local10
05464     01 30 CD F7 | 	test	local04, #1 wz
05468     1F 2A 25 54 |  if_ne	bith	local01, #31
0546c     95 00 01 F6 | 	mov	result1, local01
05470     46 F0 03 F6 | 	mov	ptra, fp
05474     5A 00 A0 FD | 	call	#popregs_
05478                 | __system__pack_0257_ret
05478     2D 00 64 FD | 	ret
0547c                 | 
0547c                 | ___struct_s_vfs_file_t_putchar
0547c     04 88 04 F6 | 	mov	COUNT_, #4
05480     4B 00 A0 FD | 	call	#pushregs_
05484     14 F2 04 F1 | 	add	objptr, #20
05488     79 2A 09 FB | 	rdlong	local01, objptr wz
0548c     14 F2 84 F1 | 	sub	objptr, #20
05490     00 00 05 A6 |  if_e	mov	result1, #0
05494     3C 00 90 AD |  if_e	jmp	#LR__0413
05498     14 F2 04 F1 | 	add	objptr, #20
0549c     79 2A 01 FB | 	rdlong	local01, objptr
054a0     14 F2 84 F1 | 	sub	objptr, #20
054a4     95 2C 01 FB | 	rdlong	local02, local01
054a8     04 2A 05 F1 | 	add	local01, #4
054ac     95 2E 01 FB | 	rdlong	local03, local01
054b0     79 22 01 F6 | 	mov	arg02, objptr
054b4     79 30 01 F6 | 	mov	local04, objptr
054b8     96 F2 00 F6 | 	mov	objptr, local02
054bc     2D 2E 61 FD | 	call	local03
054c0     98 F2 00 F6 | 	mov	objptr, local04
054c4     00 00 5D F2 | 	cmps	result1, #0 wcz
054c8     00 2A 05 C6 |  if_b	mov	local01, #0
054cc     01 2A 05 36 |  if_ae	mov	local01, #1
054d0     95 00 01 F6 | 	mov	result1, local01
054d4                 | LR__0413
054d4     46 F0 03 F6 | 	mov	ptra, fp
054d8     5A 00 A0 FD | 	call	#popregs_
054dc                 | ___struct_s_vfs_file_t_putchar_ret
054dc     2D 00 64 FD | 	ret
054e0                 | 
054e0                 | ___struct_s_vfs_file_t_getchar
054e0     04 88 04 F6 | 	mov	COUNT_, #4
054e4     4B 00 A0 FD | 	call	#pushregs_
054e8     18 F2 04 F1 | 	add	objptr, #24
054ec     79 2A 09 FB | 	rdlong	local01, objptr wz
054f0     18 F2 84 F1 | 	sub	objptr, #24
054f4     01 00 65 A6 |  if_e	neg	result1, #1
054f8     2C 00 90 AD |  if_e	jmp	#LR__0414
054fc                 | '         return getcf(__this);
054fc     18 F2 04 F1 | 	add	objptr, #24
05500     79 2A 01 FB | 	rdlong	local01, objptr
05504     18 F2 84 F1 | 	sub	objptr, #24
05508     95 2C 01 FB | 	rdlong	local02, local01
0550c     04 2A 05 F1 | 	add	local01, #4
05510     95 2E 01 FB | 	rdlong	local03, local01
05514     79 20 01 F6 | 	mov	arg01, objptr
05518     79 30 01 F6 | 	mov	local04, objptr
0551c     96 F2 00 F6 | 	mov	objptr, local02
05520     2D 2E 61 FD | 	call	local03
05524     98 F2 00 F6 | 	mov	objptr, local04
05528                 | LR__0414
05528     46 F0 03 F6 | 	mov	ptra, fp
0552c     5A 00 A0 FD | 	call	#popregs_
05530                 | ___struct_s_vfs_file_t_getchar_ret
05530     2D 00 64 FD | 	ret
05534                 | 
05534                 | ___struct__bas_wrap_sender_tx
05534     04 88 04 F6 | 	mov	COUNT_, #4
05538     4B 00 A0 FD | 	call	#pushregs_
0553c     79 2A 01 FB | 	rdlong	local01, objptr
05540     95 2C 01 FB | 	rdlong	local02, local01
05544     04 2A 05 F1 | 	add	local01, #4
05548     95 2E 01 FB | 	rdlong	local03, local01
0554c     79 30 01 F6 | 	mov	local04, objptr
05550     96 F2 00 F6 | 	mov	objptr, local02
05554     2D 2E 61 FD | 	call	local03
05558     98 F2 00 F6 | 	mov	objptr, local04
0555c     01 00 05 F6 | 	mov	result1, #1
05560     46 F0 03 F6 | 	mov	ptra, fp
05564     5A 00 A0 FD | 	call	#popregs_
05568                 | ___struct__bas_wrap_sender_tx_ret
05568     2D 00 64 FD | 	ret
0556c                 | 
0556c                 | LR__0415
0556c     69 6E 66    | 	byte	"inf"
0556f     00          | 	byte	0
05570                 | LR__0416
05570     6E 61 6E    | 	byte	"nan"
05573     00          | 	byte	0
05574                 | LR__0417
05574     20 21 21 21 
05578     20 63 6F 72 
0557c     72 75 70 74 
05580     65 64 20 68 
05584     65 61 70 3F 
05588     3F 3F 20 21 
0558c     21 21 20    | 	byte	" !!! corrupted heap??? !!! "
0558f     00          | 	byte	0
05590                 | LR__0418
05590     20 21 21 21 
05594     20 6F 75 74 
05598     20 6F 66 20 
0559c     68 65 61 70 
055a0     20 6D 65 6D 
055a4     6F 72 79 20 
055a8     21 21 21 20 | 	byte	" !!! out of heap memory !!! "
055ac     00          | 	byte	0
055ad                 | LR__0419
055ad     20 21 21 21 
055b1     20 63 6F 72 
055b5     72 75 70 74 
055b9     65 64 20 68 
055bd     65 61 70 20 
055c1     21 21 21 20 | 	byte	" !!! corrupted heap !!! "
055c5     00          | 	byte	0
055c6                 | LR__0420
055c6     68 65 6C 6C 
055ca     6F 0A       | 	byte	"hello",10
055cc     00          | 	byte	0
055cd                 | LR__0421
055cd     48 45 4C 4C 
055d1     4F 0A       | 	byte	"HELLO",10
055d3     00          | 	byte	0
055d4                 | LR__0422
055d4     3F 3F 3F    | 	byte	"???"
055d7     00          | 	byte	0
055d8                 | 	alignl
055d8                 | _dat_
055d8     00 00 00 00 
      ...             
08628     00 00 00 00 
0862c     00 00 00 00 | 	byte	$00[12376]
08630     05 00 00 00 
08634     00 00 00 00 
08638     00 00 00 00 | 	byte	$05, $00, $00, $00, $00, $00, $00, $00, $00, $00, $00, $00
0863c     E0 87 00 00 | 	long	@@@_dat_ + 12808
08640     E8 87 00 00 | 	long	@@@_dat_ + 12816
08644     00 00 00 00 | 	byte	$00, $00, $00, $00
08648     F0 87 00 00 | 	long	@@@_dat_ + 12824
0864c     F8 87 00 00 | 	long	@@@_dat_ + 12832
08650     00 00 00 00 
08654     00 00 00 00 | 	byte	$00[8]
08658     01 00 00 00 
0865c     06 00 00 00 
08660     00 00 00 00 
08664     00 00 00 00 | 	byte	$01, $00, $00, $00, $06, $00, $00, $00, $00, $00, $00, $00, $00, $00, $00, $00
08668     00 88 00 00 | 	long	@@@_dat_ + 12840
0866c     08 88 00 00 | 	long	@@@_dat_ + 12848
08670     00 00 00 00 | 	byte	$00, $00, $00, $00
08674     10 88 00 00 | 	long	@@@_dat_ + 12856
08678     18 88 00 00 | 	long	@@@_dat_ + 12864
0867c     00 00 00 00 
08680     00 00 00 00 | 	byte	$00[8]
08684     01 00 00 00 
08688     06 00 00 00 
0868c     00 00 00 00 
08690     00 00 00 00 | 	byte	$01, $00, $00, $00, $06, $00, $00, $00, $00, $00, $00, $00, $00, $00, $00, $00
08694     20 88 00 00 | 	long	@@@_dat_ + 12872
08698     28 88 00 00 | 	long	@@@_dat_ + 12880
0869c     00 00 00 00 | 	byte	$00, $00, $00, $00
086a0     30 88 00 00 | 	long	@@@_dat_ + 12888
086a4     38 88 00 00 | 	long	@@@_dat_ + 12896
086a8     00 00 00 00 
      ...             
087dc     00 00 00 00 
087e0     00 00 00 00 | 	byte	$00[316]
087e4     64 24 00 00 | 	long	@@@__system___tx
087e8     00 00 00 00 | 	byte	$00, $00, $00, $00
087ec     AC 24 00 00 | 	long	@@@__system___rx
087f0     00 00 00 00 | 	byte	$00, $00, $00, $00
087f4     AC 0D 00 00 | 	long	@@@__rxtxioctl_0011
087f8     00 00 00 00 | 	byte	$00, $00, $00, $00
087fc     14 0E 00 00 | 	long	@@@___dummy_flush_0012
08800     00 00 00 00 | 	byte	$00, $00, $00, $00
08804     64 24 00 00 | 	long	@@@__system___tx
08808     00 00 00 00 | 	byte	$00, $00, $00, $00
0880c     AC 24 00 00 | 	long	@@@__system___rx
08810     00 00 00 00 | 	byte	$00, $00, $00, $00
08814     AC 0D 00 00 | 	long	@@@__rxtxioctl_0011
08818     00 00 00 00 | 	byte	$00, $00, $00, $00
0881c     14 0E 00 00 | 	long	@@@___dummy_flush_0012
08820     00 00 00 00 | 	byte	$00, $00, $00, $00
08824     64 24 00 00 | 	long	@@@__system___tx
08828     00 00 00 00 | 	byte	$00, $00, $00, $00
0882c     AC 24 00 00 | 	long	@@@__system___rx
08830     00 00 00 00 | 	byte	$00, $00, $00, $00
08834     AC 0D 00 00 | 	long	@@@__rxtxioctl_0011
08838     00 00 00 00 | 	byte	$00, $00, $00, $00
0883c     14 0E 00 00 | 	long	@@@___dummy_flush_0012
08840                 | 	alignl
08840                 | _hn008_spin2_dat_
08840     00 00 00 00 
      ...             
08870     00 00 00 00 
08874     00 00 00    | st_font                 file "st4font.def"
08877     FF FF 00 00 
0887b     00 00 00 00 
0887f     00 18 18 18 
08883     18 18 18 18 | 	byte	$ff, $ff, $00, $00, $00, $00, $00, $00, $00, $18, $18, $18, $18, $18, $18, $18
08887     18 18 18 18 
0888b     18 18 18 18 
0888f     18          | 	byte	$18[9]
08890     00 00 00 00 
08894     00 00 00    | 	byte	$00[7]
08897     FF FF 18 18 
0889b     18 18 18 18 
0889f     18 18 18 18 
088a3     18 18 18 18 | 	byte	$ff, $ff, $18, $18, $18, $18, $18, $18, $18, $18, $18, $18, $18, $18, $18, $18
088a7     FF FF 00 00 
088ab     00 00 00 00 
088af     00 18 18 18 
088b3     18 18 18 18 | 	byte	$ff, $ff, $00, $00, $00, $00, $00, $00, $00, $18, $18, $18, $18, $18, $18, $18
088b7     1F 1F 18 18 
088bb     18 18 18 18 
088bf     18 18 18 18 
088c3     18 18 18 18 | 	byte	$1f, $1f, $18, $18, $18, $18, $18, $18, $18, $18, $18, $18, $18, $18, $18, $18
088c7     F8 F8 18 18 
088cb     18 18 18 18 
088cf     18 00 00 00 
088d3     00 00 00 00 | 	byte	$f8, $f8, $18, $18, $18, $18, $18, $18, $18, $00, $00, $00, $00, $00, $00, $00
088d7     1F 1F 18 18 
088db     18 18 18 18 
088df     18 00 00 00 
088e3     00 00 00 00 | 	byte	$1f, $1f, $18, $18, $18, $18, $18, $18, $18, $00, $00, $00, $00, $00, $00, $00
088e7     F8 F8 18 18 
088eb     18 18 18 18 
088ef     18 18 18 18 
088f3     18 18 18 18 | 	byte	$f8, $f8, $18, $18, $18, $18, $18, $18, $18, $18, $18, $18, $18, $18, $18, $18
088f7     1F 1F 00 00 
088fb     00 00 00 00 
088ff     00 18 18 18 
08903     18 18 18 18 | 	byte	$1f, $1f, $00, $00, $00, $00, $00, $00, $00, $18, $18, $18, $18, $18, $18, $18
08907     F8 F8 00 00 
0890b     00 00 00 00 
0890f     00 18 18 18 
08913     18 18 18 18 | 	byte	$f8, $f8, $00, $00, $00, $00, $00, $00, $00, $18, $18, $18, $18, $18, $18, $18
08917     FF FF 18 18 
0891b     18 18 18 18 
0891f     18 00 00 18 
08923     3C 7E 66 66 | 	byte	$ff, $ff, $18, $18, $18, $18, $18, $18, $18, $00, $00, $18, $3c, $7e, $66, $66
08927     66 7E 7E 66 
0892b     66 66 66 30 
0892f     18 00 00 7E 
08933     7E 06 06 3E | 	byte	$66, $7e, $7e, $66, $66, $66, $66, $30, $18, $00, $00, $7e, $7e, $06, $06, $3e
08937     3E 06 06 06 
0893b     06 7E 7E 18 
0893f     0C 30 18 3C 
08943     7E 66 66 06 | 	byte	$3e, $06, $06, $06, $06, $7e, $7e, $18, $0c, $30, $18, $3c, $7e, $66, $66, $06
08947     06 06 06 66 
0894b     66 7E 3C 00 
0894f     00 30 18 66 
08953     66 66 6E 6E | 	byte	$06, $06, $06, $66, $66, $7e, $3c, $00, $00, $30, $18, $66, $66, $66, $6e, $6e
08957     7E 7E 76 76 
0895b     66 66 66 00 
0895f     00 30 18 7C 
08963     7E 06 06 0E | 	byte	$7e, $7e, $76, $76, $66, $66, $66, $00, $00, $30, $18, $7c, $7e, $06, $06, $0e
08967     1C 38 70 60 
0896b     60 7E 3E 00 
0896f     00 30 18 7E 
08973     7E 30 30 18 | 	byte	$1c, $38, $70, $60, $60, $7e, $3e, $00, $00, $30, $18, $7e, $7e, $30, $30, $18
08977     18 0C 0C 06 
0897b     06 7E 7E 00 
0897f     00 18 18 00 
08983     7E 7E 30 30 | 	byte	$18, $0c, $0c, $06, $06, $7e, $7e, $00, $00, $18, $18, $00, $7e, $7e, $30, $30
08987     18 18 0C 0C 
0898b     06 7E 7E 00 
0898f     00 30 18 3C 
08993     7E 66 66 66 | 	byte	$18, $18, $0c, $0c, $06, $7e, $7e, $00, $00, $30, $18, $3c, $7e, $66, $66, $66
08997     66 66 66 66 
0899b     66          | 	byte	$66[5]
0899c     7E 3C 00 00 
089a0     00 00 06 06 
089a4     06 06 16 1E 
089a8     0E 06 06 06 | 	byte	$7e, $3c, $00, $00, $00, $00, $06, $06, $06, $06, $16, $1e, $0e, $06, $06, $06
089ac     7E 7E 00 00 
089b0     00 00 00 00 
089b4     00 3C 7C 60 
089b8     7C 7E 66 66 | 	byte	$7e, $7e, $00, $00, $00, $00, $00, $00, $00, $3c, $7c, $60, $7c, $7e, $66, $66
089bc     7E 7C 30 18 
089c0     00 00 00 00 
089c4     00 3C 7E 66 
089c8     66 7E 06 06 | 	byte	$7e, $7c, $30, $18, $00, $00, $00, $00, $00, $3c, $7e, $66, $66, $7e, $06, $06
089cc     7E 7C 18 0C 
089d0     00 00 30 18 
089d4     00 3C 3E 06 
089d8     06 06 06 06 | 	byte	$7e, $7c, $18, $0c, $00, $00, $30, $18, $00, $3c, $3e, $06, $06, $06, $06, $06
089dc     7E 7C 00 00 
089e0     00 00 30 18 
089e4     00 3E 7E 66 
089e8     66 66 66 66 | 	byte	$7e, $7c, $00, $00, $00, $00, $30, $18, $00, $3e, $7e, $66, $66, $66, $66, $66
089ec     66 66 00 00 
089f0     00 00 30 18 
089f4     00 7C 7E 06 
089f8     0E 3C 70 60 | 	byte	$66, $66, $00, $00, $00, $00, $30, $18, $00, $7c, $7e, $06, $0e, $3c, $70, $60
089fc     7E 3E 00 00 
08a00     00 00 30 18 
08a04     00 7E 7E 30 
08a08     18 18 0C 0C | 	byte	$7e, $3e, $00, $00, $00, $00, $30, $18, $00, $7e, $7e, $30, $18, $18, $0c, $0c
08a0c     7E 7E 00 00 
08a10     00 00 18 18 
08a14     00 7E 7E 30 
08a18     18 18 0C 0C | 	byte	$7e, $7e, $00, $00, $00, $00, $18, $18, $00, $7e, $7e, $30, $18, $18, $0c, $0c
08a1c     7E 7E 00 00 
08a20     00 00 30 18 
08a24     00 3C 7E 66 
08a28     66 66 66 66 | 	byte	$7e, $7e, $00, $00, $00, $00, $30, $18, $00, $3c, $7e, $66, $66, $66, $66, $66
08a2c     7E 3C 00 00 
08a30     00 00 1C 1C 
08a34     18 18 38 3C 
08a38     1C 18 18 18 | 	byte	$7e, $3c, $00, $00, $00, $00, $1c, $1c, $18, $18, $38, $3c, $1c, $18, $18, $18
08a3c     3C 3C 00 00 
08a40     00 00 00 00 
08a44     00 00 00 00 
08a48     00 00 00 00 | 	byte	$3c, $3c, $00, $00, $00, $00, $00, $00, $00, $00, $00, $00, $00, $00, $00, $00
08a4c     00 00 00 00 
08a50     00 00       | 	byte	$00[6]
08a52     18 18 18 18 
08a56     18 18 18 18 | 	byte	$18[8]
08a5a     00 00 18 18 
08a5e     00 00 00 00 
08a62     66 66 66 66 
08a66     00 00 00 00 | 	byte	$00, $00, $18, $18, $00, $00, $00, $00, $66, $66, $66, $66, $00, $00, $00, $00
08a6a     00 00 00 00 
08a6e     00 00 00 00 
08a72     00          | 	byte	$00[9]
08a73     66 66 FF FF 
08a77     66 66 FF FF 
08a7b     66 66 00 00 
08a7f     00 00 18 18 | 	byte	$66, $66, $ff, $ff, $66, $66, $ff, $ff, $66, $66, $00, $00, $00, $00, $18, $18
08a83     7C 7E 06 06 
08a87     3E 7C 60 60 
08a8b     7E 3E 18 18 
08a8f     00 00 00 66 | 	byte	$7c, $7e, $06, $06, $3e, $7c, $60, $60, $7e, $3e, $18, $18, $00, $00, $00, $66
08a93     66 30 30 18 
08a97     18 0C 0C 66 
08a9b     66 00 00 00 
08a9f     00 00 3C 7E | 	byte	$66, $30, $30, $18, $18, $0c, $0c, $66, $66, $00, $00, $00, $00, $00, $3c, $7e
08aa3     66 66 3C 1C 
08aa7     1C FC FE 66 
08aab     66 FE FC 00 
08aaf     00 00 00 18 | 	byte	$66, $66, $3c, $1c, $1c, $fc, $fe, $66, $66, $fe, $fc, $00, $00, $00, $00, $18
08ab3     18 18 18 18 
08ab7     00 00 00 00 
08abb     00 00 00 00 
08abf     00 00 00 30 | 	byte	$18, $18, $18, $18, $00, $00, $00, $00, $00, $00, $00, $00, $00, $00, $00, $30
08ac3     18 1C 0C 0C 
08ac7     0C 0C 0C 0C 
08acb     1C 18 30 00 
08acf     00 00 00 0C | 	byte	$18, $1c, $0c, $0c, $0c, $0c, $0c, $0c, $1c, $18, $30, $00, $00, $00, $00, $0c
08ad3     18 38 30 30 
08ad7     30 30 30 30 
08adb     38 18 0C 00 
08adf     00 00 00 00 | 	byte	$18, $38, $30, $30, $30, $30, $30, $30, $38, $18, $0c, $00, $00, $00, $00, $00
08ae3     66 66 3C 3C 
08ae7     FF FF 3C 3C 
08aeb     66 66 00 00 
08aef     00 00 00 00 | 	byte	$66, $66, $3c, $3c, $ff, $ff, $3c, $3c, $66, $66, $00, $00, $00, $00, $00, $00
08af3     00 18 18 18 
08af7     7E 7E 18 18 
08afb     18 00 00 00 
08aff     00 00 00 00 | 	byte	$00, $18, $18, $18, $7e, $7e, $18, $18, $18, $00, $00, $00, $00, $00, $00, $00
08b03     00 00 00 00 
08b07     00 00       | 	byte	$00[6]
08b09     18 18 18 18 
08b0d     18          | 	byte	$18[5]
08b0e     0C 04 00 00 
08b12     00 00 00 00 
08b16     7E 7E 00 00 
08b1a     00 00 00 00 | 	byte	$0c, $04, $00, $00, $00, $00, $00, $00, $7e, $7e, $00, $00, $00, $00, $00, $00
08b1e     00 00 00 00 
08b22     00 00 00 00 
08b26     00 00 00 00 
08b2a     00          | 	byte	$00[13]
08b2b     18 18 18 00 
08b2f     00 00 00 60 
08b33     60 60 30 30 
08b37     18 18 0C 0C | 	byte	$18, $18, $18, $00, $00, $00, $00, $60, $60, $60, $30, $30, $18, $18, $0c, $0c
08b3b     06 06 06 00 
08b3f     00 00 00 3C 
08b43     7E 66 66 66 
08b47     76 6E 66 66 | 	byte	$06, $06, $06, $00, $00, $00, $00, $3c, $7e, $66, $66, $66, $76, $6e, $66, $66
08b4b     66 7E 3C 00 
08b4f     00 00 00 18 
08b53     18 1C 1C 18 
08b57     18 18 18 18 | 	byte	$66, $7e, $3c, $00, $00, $00, $00, $18, $18, $1c, $1c, $18, $18, $18, $18, $18
08b5b     18 7E 7E 00 
08b5f     00 00 00 3C 
08b63     7E 66 66 30 
08b67     30 18 18 0C | 	byte	$18, $7e, $7e, $00, $00, $00, $00, $3c, $7e, $66, $66, $30, $30, $18, $18, $0c
08b6b     0C 7E 7E 00 
08b6f     00 00 00 7E 
08b73     7E 30 30 18 
08b77     18 30 30 66 | 	byte	$0c, $7e, $7e, $00, $00, $00, $00, $7e, $7e, $30, $30, $18, $18, $30, $30, $66
08b7b     66 7E 3C 00 
08b7f     00 00 00 30 
08b83     30 38 38 3C 
08b87     3C 36 36 7E | 	byte	$66, $7e, $3c, $00, $00, $00, $00, $30, $30, $38, $38, $3c, $3c, $36, $36, $7e
08b8b     7E 30 30 00 
08b8f     00 00 00 7E 
08b93     7E 06 06 3E 
08b97     7E 60 60 60 | 	byte	$7e, $30, $30, $00, $00, $00, $00, $7e, $7e, $06, $06, $3e, $7e, $60, $60, $60
08b9b     66 7E 3C 00 
08b9f     00 00 00 38 
08ba3     3C 0E 06 06 
08ba7     3E 7E 66 66 | 	byte	$66, $7e, $3c, $00, $00, $00, $00, $38, $3c, $0e, $06, $06, $3e, $7e, $66, $66
08bab     66 7E 3C 00 
08baf     00 00 00 7E 
08bb3     7E 60 60 30 
08bb7     30 18 18 0C | 	byte	$66, $7e, $3c, $00, $00, $00, $00, $7e, $7e, $60, $60, $30, $30, $18, $18, $0c
08bbb     0C 0C 0C 00 
08bbf     00 00 00 3C 
08bc3     7E 66 66 3C 
08bc7     3C 66 66 66 | 	byte	$0c, $0c, $0c, $00, $00, $00, $00, $3c, $7e, $66, $66, $3c, $3c, $66, $66, $66
08bcb     66 7E 3C 00 
08bcf     00 00 00 3C 
08bd3     7E 66 66 7E 
08bd7     7C 60 60 60 | 	byte	$66, $7e, $3c, $00, $00, $00, $00, $3c, $7e, $66, $66, $7e, $7c, $60, $60, $60
08bdb     70 3C 1C 00 
08bdf     00 00 00 00 
08be3     00 00 18 18 
08be7     18 00 00 00 | 	byte	$70, $3c, $1c, $00, $00, $00, $00, $00, $00, $00, $18, $18, $18, $00, $00, $00
08beb     18 18 18 00 
08bef     00 00 00 00 
08bf3     00 00 18 18 
08bf7     18 00 00 18 | 	byte	$18, $18, $18, $00, $00, $00, $00, $00, $00, $00, $18, $18, $18, $00, $00, $18
08bfb     18 18 18 0C 
08bff     04 00 00 00 
08c03     70 38 1C 0E 
08c07     07 0E 1C 38 | 	byte	$18, $18, $18, $0c, $04, $00, $00, $00, $70, $38, $1c, $0e, $07, $0e, $1c, $38
08c0b     70 00 00 00 
08c0f     00 00 00 00 
08c13     00 00 7E 7E 
08c17     00 00 7E 7E | 	byte	$70, $00, $00, $00, $00, $00, $00, $00, $00, $00, $7e, $7e, $00, $00, $7e, $7e
08c1b     00 00 00 00 
08c1f     00 00 00 00 | 	byte	$00[8]
08c23     0E 1C 38 70 
08c27     E0 70 38 1C 
08c2b     0E 00 00 00 
08c2f     00 00 00 3C | 	byte	$0e, $1c, $38, $70, $e0, $70, $38, $1c, $0e, $00, $00, $00, $00, $00, $00, $3c
08c33     7E 66 66 30 
08c37     30 18 18 18 
08c3b     00 18 18 00 
08c3f     00 00 00 3C | 	byte	$7e, $66, $66, $30, $30, $18, $18, $18, $00, $18, $18, $00, $00, $00, $00, $3c
08c43     7E 66 66 66 
08c47     66 36 06 66 
08c4b     66 7E 3C 00 
08c4f     00 00 00 18 | 	byte	$7e, $66, $66, $66, $66, $36, $06, $66, $66, $7e, $3c, $00, $00, $00, $00, $18
08c53     3C 7E 66 66 
08c57     66 7E 7E 66 
08c5b     66 66 66 00 
08c5f     00 00 00 3E | 	byte	$3c, $7e, $66, $66, $66, $7e, $7e, $66, $66, $66, $66, $00, $00, $00, $00, $3e
08c63     7E 66 66 7E 
08c67     3E 66 66 66 
08c6b     66 7E 3E 00 
08c6f     00 00 00 3C | 	byte	$7e, $66, $66, $7e, $3e, $66, $66, $66, $66, $7e, $3e, $00, $00, $00, $00, $3c
08c73     7E 66 66 06 
08c77     06 06 06 66 
08c7b     66 7E 3C 00 
08c7f     00 00 00 3E | 	byte	$7e, $66, $66, $06, $06, $06, $06, $66, $66, $7e, $3c, $00, $00, $00, $00, $3e
08c83     7E 66 66 66 
08c87     66 66 66 66 
08c8b     66 7E 3E 00 
08c8f     00 00 00 7E | 	byte	$7e, $66, $66, $66, $66, $66, $66, $66, $66, $7e, $3e, $00, $00, $00, $00, $7e
08c93     7E 06 06 3E 
08c97     3E 06 06 06 
08c9b     06 7E 7E 00 
08c9f     00 00 00 7E | 	byte	$7e, $06, $06, $3e, $3e, $06, $06, $06, $06, $7e, $7e, $00, $00, $00, $00, $7e
08ca3     7E 06 06 3E 
08ca7     3E 06 06 06 
08cab     06 06 06 00 
08caf     00 00 00 7C | 	byte	$7e, $06, $06, $3e, $3e, $06, $06, $06, $06, $06, $06, $00, $00, $00, $00, $7c
08cb3     7E 06 06 76 
08cb7     76 66 66 66 
08cbb     66 7E 3C 00 
08cbf     00 00 00 66 | 	byte	$7e, $06, $06, $76, $76, $66, $66, $66, $66, $7e, $3c, $00, $00, $00, $00, $66
08cc3     66 66 66 7E 
08cc7     7E 66 66 66 
08ccb     66 66 66 00 
08ccf     00 00 00 7E | 	byte	$66, $66, $66, $7e, $7e, $66, $66, $66, $66, $66, $66, $00, $00, $00, $00, $7e
08cd3     7E 18 18 18 
08cd7     18 18 18 18 
08cdb     18 7E 7E 00 
08cdf     00 00 00 60 | 	byte	$7e, $18, $18, $18, $18, $18, $18, $18, $18, $7e, $7e, $00, $00, $00, $00, $60
08ce3     60 60 60 60 
08ce7     60 60 60    | 	byte	$60[7]
08cea     66 66 7E 3C 
08cee     00 00 00 00 
08cf2     66 66 36 36 
08cf6     1E 1E 36 36 | 	byte	$66, $66, $7e, $3c, $00, $00, $00, $00, $66, $66, $36, $36, $1e, $1e, $36, $36
08cfa     66 66 C6 C6 
08cfe     00 00 00 00 
08d02     06 06 06 06 
08d06     06 06 06 06 | 	byte	$66, $66, $c6, $c6, $00, $00, $00, $00, $06, $06, $06, $06, $06, $06, $06, $06
08d0a     06 06 7E 7E 
08d0e     00 00 00 00 
08d12     C6 C6 EE EE 
08d16     FE D6 D6 C6 | 	byte	$06, $06, $7e, $7e, $00, $00, $00, $00, $c6, $c6, $ee, $ee, $fe, $d6, $d6, $c6
08d1a     C6 C6 C6 C6 
08d1e     00 00 00 00 
08d22     66 66 66 6E 
08d26     6E 7E 7E 76 | 	byte	$c6, $c6, $c6, $c6, $00, $00, $00, $00, $66, $66, $66, $6e, $6e, $7e, $7e, $76
08d2a     76 66 66 66 
08d2e     00 00 00 00 
08d32     3C 7E 66 66 
08d36     66 66 66 66 | 	byte	$76, $66, $66, $66, $00, $00, $00, $00, $3c, $7e, $66, $66, $66, $66, $66, $66
08d3a     66 66 7E 3C 
08d3e     00 00 00 00 
08d42     3E 7E 66 66 
08d46     66 66 7E 3E | 	byte	$66, $66, $7e, $3c, $00, $00, $00, $00, $3e, $7e, $66, $66, $66, $66, $7e, $3e
08d4a     06 06 06 06 
08d4e     00 00 00 00 
08d52     3C 7E 66 66 
08d56     66 66 66 66 | 	byte	$06, $06, $06, $06, $00, $00, $00, $00, $3c, $7e, $66, $66, $66, $66, $66, $66
08d5a     66 56 3E 6C 
08d5e     00 00 00 00 
08d62     3E 7E 66 66 
08d66     66 7E 3E 36 | 	byte	$66, $56, $3e, $6c, $00, $00, $00, $00, $3e, $7e, $66, $66, $66, $7e, $3e, $36
08d6a     66 66 C6 C6 
08d6e     00 00 00 00 
08d72     7C 7E 06 06 
08d76     0E 1C 38 70 | 	byte	$66, $66, $c6, $c6, $00, $00, $00, $00, $7c, $7e, $06, $06, $0e, $1c, $38, $70
08d7a     60 60 7E 3E 
08d7e     00 00 00 00 
08d82     7E 7E 18 18 
08d86     18 18 18 18 | 	byte	$60, $60, $7e, $3e, $00, $00, $00, $00, $7e, $7e, $18, $18, $18, $18, $18, $18
08d8a     18 18 18 18 
08d8e     00 00 00 00 
08d92     66 66 66 66 
08d96     66 66 66 66 | 	byte	$18, $18, $18, $18, $00, $00, $00, $00, $66, $66, $66, $66, $66, $66, $66, $66
08d9a     66 66 7E 3C 
08d9e     00 00 00 00 
08da2     66 66 66 66 
08da6     66 66 66 66 | 	byte	$66, $66, $7e, $3c, $00, $00, $00, $00, $66, $66, $66, $66, $66, $66, $66, $66
08daa     3C 3C 18 18 
08dae     00 00 00 00 
08db2     C6 C6 C6 C6 
08db6     C6 D6 D6 FE | 	byte	$3c, $3c, $18, $18, $00, $00, $00, $00, $c6, $c6, $c6, $c6, $c6, $d6, $d6, $fe
08dba     FE EE C6 82 
08dbe     00 00 00 00 
08dc2     66 66 66 3C 
08dc6     3C 18 18 3C | 	byte	$fe, $ee, $c6, $82, $00, $00, $00, $00, $66, $66, $66, $3c, $3c, $18, $18, $3c
08dca     3C 66 66 66 
08dce     00 00 00 00 
08dd2     66 66 66 66 
08dd6     66 3C 3C 18 | 	byte	$3c, $66, $66, $66, $00, $00, $00, $00, $66, $66, $66, $66, $66, $3c, $3c, $18
08dda     18 18 18 18 
08dde     00 00 00 00 
08de2     7E 7E 30 30 
08de6     18 18 0C 0C | 	byte	$18, $18, $18, $18, $00, $00, $00, $00, $7e, $7e, $30, $30, $18, $18, $0c, $0c
08dea     06 06 7E 7E 
08dee     00 00 00 00 
08df2     3C 3C 0C 0C 
08df6     0C 0C 0C 0C | 	byte	$06, $06, $7e, $7e, $00, $00, $00, $00, $3c, $3c, $0c, $0c, $0c, $0c, $0c, $0c
08dfa     0C 0C 3C 3C 
08dfe     00 00 00 00 
08e02     06 06 0C 0C 
08e06     18 18 30 30 | 	byte	$0c, $0c, $3c, $3c, $00, $00, $00, $00, $06, $06, $0c, $0c, $18, $18, $30, $30
08e0a     60 60 C0 C0 
08e0e     00 00 00 00 
08e12     3C 3C 30 30 
08e16     30 30 30 30 | 	byte	$60, $60, $c0, $c0, $00, $00, $00, $00, $3c, $3c, $30, $30, $30, $30, $30, $30
08e1a     30 30 3C 3C 
08e1e     00 00 00 00 
08e22     18 18 3C 3C 
08e26     66 66 00 00 | 	byte	$30, $30, $3c, $3c, $00, $00, $00, $00, $18, $18, $3c, $3c, $66, $66, $00, $00
08e2a     00 00 00 00 
08e2e     00 00 00 00 
08e32     00 00 00 00 
08e36     00 00 00 00 
08e3a     00 00       | 	byte	$00[18]
08e3c     FE FE 00 00 
08e40     00 00 0C 0C 
08e44     18 18 00 00 
08e48     00 00 00 00 | 	byte	$fe, $fe, $00, $00, $00, $00, $0c, $0c, $18, $18, $00, $00, $00, $00, $00, $00
08e4c     00 00 00 00 
08e50     00 00 00 00 
08e54     00          | 	byte	$00[9]
08e55     3C 7C 60 7C 
08e59     7E 66 66 7E 
08e5d     7C 00 00 00 
08e61     00 06 06 06 | 	byte	$3c, $7c, $60, $7c, $7e, $66, $66, $7e, $7c, $00, $00, $00, $00, $06, $06, $06
08e65     3E 7E 66 66 
08e69     66 66 66 7E 
08e6d     3E 00 00 00 
08e71     00 00 00 00 | 	byte	$3e, $7e, $66, $66, $66, $66, $66, $7e, $3e, $00, $00, $00, $00, $00, $00, $00
08e75     3C 3E 06 06 
08e79     06 06 06 7E 
08e7d     7C 00 00 00 
08e81     00 60 60 60 | 	byte	$3c, $3e, $06, $06, $06, $06, $06, $7e, $7c, $00, $00, $00, $00, $60, $60, $60
08e85     7C 7E 66 66 
08e89     66 66 66 7E 
08e8d     7C 00 00 00 
08e91     00 00 00 00 | 	byte	$7c, $7e, $66, $66, $66, $66, $66, $7e, $7c, $00, $00, $00, $00, $00, $00, $00
08e95     3C 7E 66 66 
08e99     7E 06 06 7E 
08e9d     7C 00 00 00 
08ea1     00 70 78 18 | 	byte	$3c, $7e, $66, $66, $7e, $06, $06, $7e, $7c, $00, $00, $00, $00, $70, $78, $18
08ea5     18 7E 7E 18 
08ea9     18 18 18 18 
08ead     18 00 00 00 
08eb1     00 00 00 00 | 	byte	$18, $7e, $7e, $18, $18, $18, $18, $18, $18, $00, $00, $00, $00, $00, $00, $00
08eb5     7C 7E 66 66 
08eb9     66 66 7E 7C 
08ebd     60 7E 3E 00 
08ec1     00 06 06 06 | 	byte	$7c, $7e, $66, $66, $66, $66, $7e, $7c, $60, $7e, $3e, $00, $00, $06, $06, $06
08ec5     3E 7E 66 66 
08ec9     66 66 66 66 
08ecd     66 00 00 00 
08ed1     00 18 18 00 | 	byte	$3e, $7e, $66, $66, $66, $66, $66, $66, $66, $00, $00, $00, $00, $18, $18, $00
08ed5     1C 1C 18 18 
08ed9     18 18 18 3C 
08edd     3C 00 00 00 
08ee1     00 30 30 00 | 	byte	$1c, $1c, $18, $18, $18, $18, $18, $3c, $3c, $00, $00, $00, $00, $30, $30, $00
08ee5     30 30 30 30 
08ee9     30 30 30 30 
08eed     30          | 	byte	$30[9]
08eee     3E 1E 00 00 
08ef2     06 06 06 36 
08ef6     36 1E 1E 1E 
08efa     36 36 66 66 | 	byte	$3e, $1e, $00, $00, $06, $06, $06, $36, $36, $1e, $1e, $1e, $36, $36, $66, $66
08efe     00 00 00 00 
08f02     1C 1C 18 18 
08f06     18 18 18 18 
08f0a     18 18 3C 3C | 	byte	$00, $00, $00, $00, $1c, $1c, $18, $18, $18, $18, $18, $18, $18, $18, $3c, $3c
08f0e     00 00 00 00 
08f12     00 00 00    | 	byte	$00[7]
08f15     6C FE FE D6 
08f19     D6 C6 C6 C6 
08f1d     C6 00 00 00 
08f21     00 00 00 00 | 	byte	$6c, $fe, $fe, $d6, $d6, $c6, $c6, $c6, $c6, $00, $00, $00, $00, $00, $00, $00
08f25     3E 7E 66 66 
08f29     66 66 66 66 
08f2d     66 00 00 00 
08f31     00 00 00 00 | 	byte	$3e, $7e, $66, $66, $66, $66, $66, $66, $66, $00, $00, $00, $00, $00, $00, $00
08f35     3C 7E 66 66 
08f39     66 66 66 7E 
08f3d     3C 00 00 00 
08f41     00 00 00 00 | 	byte	$3c, $7e, $66, $66, $66, $66, $66, $7e, $3c, $00, $00, $00, $00, $00, $00, $00
08f45     3E 7E 66 66 
08f49     66 66 66 7E 
08f4d     3E 06 06 00 
08f51     00 00 00 00 | 	byte	$3e, $7e, $66, $66, $66, $66, $66, $7e, $3e, $06, $06, $00, $00, $00, $00, $00
08f55     7C 7E 66 66 
08f59     66 66 66 7E 
08f5d     7C 60 60 00 
08f61     00 00 00 00 | 	byte	$7c, $7e, $66, $66, $66, $66, $66, $7e, $7c, $60, $60, $00, $00, $00, $00, $00
08f65     3E 7E 66 06 
08f69     06 06 06 06 
08f6d     06 00 00 00 
08f71     00 00 00 00 | 	byte	$3e, $7e, $66, $06, $06, $06, $06, $06, $06, $00, $00, $00, $00, $00, $00, $00
08f75     7C 7E 06 0E 
08f79     3C 70 60 7E 
08f7d     3E 00 00 00 
08f81     00 00 18 18 | 	byte	$7c, $7e, $06, $0e, $3c, $70, $60, $7e, $3e, $00, $00, $00, $00, $00, $18, $18
08f85     7E 7E 18 18 
08f89     18 18 18 78 
08f8d     70 00 00 00 
08f91     00 00 00 00 | 	byte	$7e, $7e, $18, $18, $18, $18, $18, $78, $70, $00, $00, $00, $00, $00, $00, $00
08f95     66 66 66 66 
08f99     66 66 66    | 	byte	$66[7]
08f9c     7E 7C 00 00 
08fa0     00 00 00 00 
08fa4     00 66 66 66 
08fa8     66 66 3C 3C | 	byte	$7e, $7c, $00, $00, $00, $00, $00, $00, $00, $66, $66, $66, $66, $66, $3c, $3c
08fac     18 18 00 00 
08fb0     00 00 00 00 
08fb4     00 C6 C6 D6 
08fb8     D6 FE FE EE | 	byte	$18, $18, $00, $00, $00, $00, $00, $00, $00, $c6, $c6, $d6, $d6, $fe, $fe, $ee
08fbc     C6 82 00 00 
08fc0     00 00 00 00 
08fc4     00 66 66 3C 
08fc8     3C 18 3C 3C | 	byte	$c6, $82, $00, $00, $00, $00, $00, $00, $00, $66, $66, $3c, $3c, $18, $3c, $3c
08fcc     66 66 00 00 
08fd0     00 00 00 00 
08fd4     00 66 66 66 
08fd8     66 66 66 7E | 	byte	$66, $66, $00, $00, $00, $00, $00, $00, $00, $66, $66, $66, $66, $66, $66, $7e
08fdc     7C 60 7E 3E 
08fe0     00 00 00 00 
08fe4     00 7E 7E 30 
08fe8     18 18 0C 0C | 	byte	$7c, $60, $7e, $3e, $00, $00, $00, $00, $00, $7e, $7e, $30, $18, $18, $0c, $0c
08fec     7E 7E 00 00 
08ff0     00 00 30 18 
08ff4     18 18 18 0C 
08ff8     0C 18 18 18 | 	byte	$7e, $7e, $00, $00, $00, $00, $30, $18, $18, $18, $18, $0c, $0c, $18, $18, $18
08ffc     18 30 00 00 
09000     00 00 18 18 
09004     18 18 18 18 
09008     18 18 18 18 | 	byte	$18, $30, $00, $00, $00, $00, $18, $18, $18, $18, $18, $18, $18, $18, $18, $18
0900c     18 18 00 00 
09010     00 00 0C 18 
09014     18 18 18 30 
09018     30 18 18 18 | 	byte	$18, $18, $00, $00, $00, $00, $0c, $18, $18, $18, $18, $30, $30, $18, $18, $18
0901c     18 0C 00 00 
09020     00 00 6C 7E 
09024     36 00 00 00 
09028     00 00 00 00 | 	byte	$18, $0c, $00, $00, $00, $00, $6c, $7e, $36, $00, $00, $00, $00, $00, $00, $00
0902c     00 00 00 00 
09030     00 00 00 00 
09034     00          | 	byte	$00[9]
09035     18 18 18 18 
09039     18 18 00 00 
0903d     00 00 00    | 	byte	$18, $18, $18, $18, $18, $18, $00, $00, $00, $00, $00
09040     00 00 00 00 
09044     00 00 00 00 
09048     00 00 00 00 
0904c     00 00 00 00 
09050     00 00 00    | vga_font				file "vgafont.def"
09053     7E 81 A5 81 
09057     81 BD 99 81 
0905b     81 7E 00 00 
0905f     00 00 00 00 | 	byte	$7e, $81, $a5, $81, $81, $bd, $99, $81, $81, $7e, $00, $00, $00, $00, $00, $00
09063     7E FF DB FF 
09067     FF C3 E7 FF 
0906b     FF 7E 00 00 
0906f     00 00 00 00 | 	byte	$7e, $ff, $db, $ff, $ff, $c3, $e7, $ff, $ff, $7e, $00, $00, $00, $00, $00, $00
09073     00 36 7F 7F 
09077     7F 7F 3E 1C 
0907b     08 00 00 00 
0907f     00 00 00 00 | 	byte	$00, $36, $7f, $7f, $7f, $7f, $3e, $1c, $08, $00, $00, $00, $00, $00, $00, $00
09083     00 08 1C 3E 
09087     7F 3E 1C 08 
0908b     00 00 00 00 
0908f     00 00 00 00 | 	byte	$00, $08, $1c, $3e, $7f, $3e, $1c, $08, $00, $00, $00, $00, $00, $00, $00, $00
09093     18 3C 3C E7 
09097     E7 E7 18 18 
0909b     3C 00 00 00 
0909f     00 00 00 00 | 	byte	$18, $3c, $3c, $e7, $e7, $e7, $18, $18, $3c, $00, $00, $00, $00, $00, $00, $00
090a3     18 3C 7E FF 
090a7     FF 7E 18 18 
090ab     3C 00 00 00 
090af     00 00 00 00 | 	byte	$18, $3c, $7e, $ff, $ff, $7e, $18, $18, $3c, $00, $00, $00, $00, $00, $00, $00
090b3     00 00 00 18 
090b7     3C 3C 18 00 
090bb     00 00 00 00 
090bf     00 FF FF FF | 	byte	$00, $00, $00, $18, $3c, $3c, $18, $00, $00, $00, $00, $00, $00, $ff, $ff, $ff
090c3     FF FF FF E7 
090c7     C3 C3 E7 FF 
090cb     FF FF FF FF 
090cf     FF 00 00 00 | 	byte	$ff, $ff, $ff, $e7, $c3, $c3, $e7, $ff, $ff, $ff, $ff, $ff, $ff, $00, $00, $00
090d3     00 00 3C 66 
090d7     42 42 66 3C 
090db     00 00 00 00 
090df     00 FF FF FF | 	byte	$00, $00, $3c, $66, $42, $42, $66, $3c, $00, $00, $00, $00, $00, $ff, $ff, $ff
090e3     FF FF C3 99 
090e7     BD BD 99 C3 
090eb     FF FF FF FF 
090ef     FF 00 00 00 | 	byte	$ff, $ff, $c3, $99, $bd, $bd, $99, $c3, $ff, $ff, $ff, $ff, $ff, $00, $00, $00
090f3     78 70 58 4C 
090f7     1E 33 33 33 
090fb     33 1E 00 00 
090ff     00 00 00 00 | 	byte	$78, $70, $58, $4c, $1e, $33, $33, $33, $33, $1e, $00, $00, $00, $00, $00, $00
09103     3C 66 66 66 
09107     66 3C 18 7E 
0910b     18 18 00 00 
0910f     00 00 00 00 | 	byte	$3c, $66, $66, $66, $66, $3c, $18, $7e, $18, $18, $00, $00, $00, $00, $00, $00
09113     FC CC FC 0C 
09117     0C 0C 0C 0E 
0911b     0F 07 00 00 
0911f     00 00 00 00 | 	byte	$fc, $cc, $fc, $0c, $0c, $0c, $0c, $0e, $0f, $07, $00, $00, $00, $00, $00, $00
09123     FE C6 FE C6 
09127     C6 C6 C6 E6 
0912b     E7 67 03 00 
0912f     00 00 00 00 | 	byte	$fe, $c6, $fe, $c6, $c6, $c6, $c6, $e6, $e7, $67, $03, $00, $00, $00, $00, $00
09133     18 18 DB 3C 
09137     E7 3C DB 18 
0913b     18 00 00 00 
0913f     00 00 00 01 | 	byte	$18, $18, $db, $3c, $e7, $3c, $db, $18, $18, $00, $00, $00, $00, $00, $00, $01
09143     03 07 0F 1F 
09147     7F 1F 0F 07 
0914b     03 01 00 00 
0914f     00 00 00 40 | 	byte	$03, $07, $0f, $1f, $7f, $1f, $0f, $07, $03, $01, $00, $00, $00, $00, $00, $40
09153     60 70 78 7C 
09157     7F 7C 78 70 
0915b     60 40 00 00 
0915f     00 00 00 00 | 	byte	$60, $70, $78, $7c, $7f, $7c, $78, $70, $60, $40, $00, $00, $00, $00, $00, $00
09163     18 3C 7E 18 
09167     18 18 7E 3C 
0916b     18 00 00 00 
0916f     00 00 00 00 | 	byte	$18, $3c, $7e, $18, $18, $18, $7e, $3c, $18, $00, $00, $00, $00, $00, $00, $00
09173     66 66 66 66 
09177     66 66 66    | 	byte	$66[7]
0917a     00 66 66 00 
0917e     00 00 00 00 
09182     00 FE DB DB 
09186     DB DE D8 D8 | 	byte	$00, $66, $66, $00, $00, $00, $00, $00, $00, $fe, $db, $db, $db, $de, $d8, $d8
0918a     D8 D8 D8 00 
0918e     00 00 00 3E 
09192     63 06 1C 36 
09196     63 63 36 1C | 	byte	$d8, $d8, $d8, $00, $00, $00, $00, $3e, $63, $06, $1c, $36, $63, $63, $36, $1c
0919a     30 63 3E 00 
0919e     00 00 00 00 
091a2     00 00 00 00 
091a6     00 00 00 7F | 	byte	$30, $63, $3e, $00, $00, $00, $00, $00, $00, $00, $00, $00, $00, $00, $00, $7f
091aa     7F 7F 7F 00 
091ae     00 00 00 00 
091b2     00 18 3C 7E 
091b6     18 18 18 7E | 	byte	$7f, $7f, $7f, $00, $00, $00, $00, $00, $00, $18, $3c, $7e, $18, $18, $18, $7e
091ba     3C 18 7E 00 
091be     00 00 00 00 
091c2     00 18 3C 7E 
091c6     18 18 18 18 | 	byte	$3c, $18, $7e, $00, $00, $00, $00, $00, $00, $18, $3c, $7e, $18, $18, $18, $18
091ca     18 18 18 00 
091ce     00 00 00 00 
091d2     00 18 18 18 
091d6     18 18 18 18 | 	byte	$18, $18, $18, $00, $00, $00, $00, $00, $00, $18, $18, $18, $18, $18, $18, $18
091da     7E 3C 18 00 
091de     00 00 00 00 
091e2     00 00 00 18 
091e6     30 7F 30 18 | 	byte	$7e, $3c, $18, $00, $00, $00, $00, $00, $00, $00, $00, $18, $30, $7f, $30, $18
091ea     00 00 00 00 
091ee     00 00 00 00 
091f2     00 00 00    | 	byte	$00[11]
091f5     0C 06 7F 06 
091f9     0C 00 00 00 
091fd     00 00 00 00 
09201     00 00 00 00 | 	byte	$0c, $06, $7f, $06, $0c, $00, $00, $00, $00, $00, $00, $00, $00, $00, $00, $00
09205     00 03 03 03 
09209     7F 00 00 00 
0920d     00 00 00 00 
09211     00 00 00 00 | 	byte	$00, $03, $03, $03, $7f, $00, $00, $00, $00, $00, $00, $00, $00, $00, $00, $00
09215     14 36 7F 36 
09219     14 00 00 00 
0921d     00 00 00 00 
09221     00 00 00 08 | 	byte	$14, $36, $7f, $36, $14, $00, $00, $00, $00, $00, $00, $00, $00, $00, $00, $08
09225     1C 1C 3E 3E 
09229     7F 7F 00 00 
0922d     00 00 00 00 
09231     00 00 00 7F | 	byte	$1c, $1c, $3e, $3e, $7f, $7f, $00, $00, $00, $00, $00, $00, $00, $00, $00, $7f
09235     7F 3E 3E 1C 
09239     1C 08 00 00 
0923d     00 00 00 00 
09241     00 00 00 00 | 	byte	$7f, $3e, $3e, $1c, $1c, $08, $00, $00, $00, $00, $00, $00, $00, $00, $00, $00
09245     00 00 00 00 
09249     00 00 00 00 
0924d     00 00 00 00 
09251     00 00       | 	byte	$00[14]
09253     18 3C 3C 3C 
09257     18 18 18 00 
0925b     18 18 00 00 
0925f     00 00 66 66 | 	byte	$18, $3c, $3c, $3c, $18, $18, $18, $00, $18, $18, $00, $00, $00, $00, $66, $66
09263     66 24 00 00 
09267     00 00 00 00 
0926b     00 00 00 00 
0926f     00 00 00 00 | 	byte	$66, $24, $00, $00, $00, $00, $00, $00, $00, $00, $00, $00, $00, $00, $00, $00
09273     00 36 36 7F 
09277     36 36 36 7F 
0927b     36 36 00 00 
0927f     00 00 18 18 | 	byte	$00, $36, $36, $7f, $36, $36, $36, $7f, $36, $36, $00, $00, $00, $00, $18, $18
09283     3E 63 43 03 
09287     3E 60 60 61 
0928b     63 3E 18 18 
0928f     00 00 00 00 | 	byte	$3e, $63, $43, $03, $3e, $60, $60, $61, $63, $3e, $18, $18, $00, $00, $00, $00
09293     00 00 43 63 
09297     30 18 0C 06 
0929b     63 61 00 00 
0929f     00 00 00 00 | 	byte	$00, $00, $43, $63, $30, $18, $0c, $06, $63, $61, $00, $00, $00, $00, $00, $00
092a3     1C 36 36 1C 
092a7     6E 3B 33 33 
092ab     33 6E 00 00 
092af     00 00 00 00 | 	byte	$1c, $36, $36, $1c, $6e, $3b, $33, $33, $33, $6e, $00, $00, $00, $00, $00, $00
092b3     0C 0C 0C 06 
092b7     00 00 00 00 
092bb     00 00 00 00 
092bf     00 00 00 00 | 	byte	$0c, $0c, $0c, $06, $00, $00, $00, $00, $00, $00, $00, $00, $00, $00, $00, $00
092c3     30 18 0C 0C 
092c7     0C 0C 0C 0C 
092cb     18 30 00 00 
092cf     00 00 00 00 | 	byte	$30, $18, $0c, $0c, $0c, $0c, $0c, $0c, $18, $30, $00, $00, $00, $00, $00, $00
092d3     0C 18 30 30 
092d7     30 30 30 30 
092db     18 0C 00 00 
092df     00 00 00 00 | 	byte	$0c, $18, $30, $30, $30, $30, $30, $30, $18, $0c, $00, $00, $00, $00, $00, $00
092e3     00 00 00 66 
092e7     3C FF 3C 66 
092eb     00 00 00 00 
092ef     00 00 00 00 | 	byte	$00, $00, $00, $66, $3c, $ff, $3c, $66, $00, $00, $00, $00, $00, $00, $00, $00
092f3     00 00 00 18 
092f7     18 7E 18 18 
092fb     00 00 00 00 
092ff     00 00 00 00 | 	byte	$00, $00, $00, $18, $18, $7e, $18, $18, $00, $00, $00, $00, $00, $00, $00, $00
09303     00 00 00 00 
09307     00 00 00 00 | 	byte	$00[8]
0930b     18 18 18 0C 
0930f     00 00 00 00 
09313     00 00 00 00 
09317     00 7F 00 00 | 	byte	$18, $18, $18, $0c, $00, $00, $00, $00, $00, $00, $00, $00, $00, $7f, $00, $00
0931b     00 00 00 00 
0931f     00 00 00 00 
09323     00 00 00 00 
09327     00 00 00 00 | 	byte	$00[16]
0932b     18 18 00 00 
0932f     00 00 00 00 
09333     00 00 40 60 
09337     30 18 0C 06 | 	byte	$18, $18, $00, $00, $00, $00, $00, $00, $00, $00, $40, $60, $30, $18, $0c, $06
0933b     03 01 00 00 
0933f     00 00 00 00 
09343     1C 36 63 63 
09347     6B 6B 63 63 | 	byte	$03, $01, $00, $00, $00, $00, $00, $00, $1c, $36, $63, $63, $6b, $6b, $63, $63
0934b     36 1C 00 00 
0934f     00 00 00 00 
09353     18 1C 1E 18 
09357     18 18 18 18 | 	byte	$36, $1c, $00, $00, $00, $00, $00, $00, $18, $1c, $1e, $18, $18, $18, $18, $18
0935b     18 7E 00 00 
0935f     00 00 00 00 
09363     3E 63 60 30 
09367     18 0C 06 03 | 	byte	$18, $7e, $00, $00, $00, $00, $00, $00, $3e, $63, $60, $30, $18, $0c, $06, $03
0936b     63 7F 00 00 
0936f     00 00 00 00 
09373     3E 63 60 60 
09377     3C 60 60 60 | 	byte	$63, $7f, $00, $00, $00, $00, $00, $00, $3e, $63, $60, $60, $3c, $60, $60, $60
0937b     63 3E 00 00 
0937f     00 00 00 00 
09383     30 38 3C 36 
09387     33 7F 30 30 | 	byte	$63, $3e, $00, $00, $00, $00, $00, $00, $30, $38, $3c, $36, $33, $7f, $30, $30
0938b     30 78 00 00 
0938f     00 00 00 00 
09393     7F 03 03 03 
09397     3F 60 60 60 | 	byte	$30, $78, $00, $00, $00, $00, $00, $00, $7f, $03, $03, $03, $3f, $60, $60, $60
0939b     63 3E 00 00 
0939f     00 00 00 00 
093a3     1C 06 03 03 
093a7     3F 63 63 63 | 	byte	$63, $3e, $00, $00, $00, $00, $00, $00, $1c, $06, $03, $03, $3f, $63, $63, $63
093ab     63 3E 00 00 
093af     00 00 00 00 
093b3     7F 63 60 60 
093b7     30 18 0C 0C | 	byte	$63, $3e, $00, $00, $00, $00, $00, $00, $7f, $63, $60, $60, $30, $18, $0c, $0c
093bb     0C 0C 00 00 
093bf     00 00 00 00 
093c3     3E 63 63 63 
093c7     3E 63 63 63 | 	byte	$0c, $0c, $00, $00, $00, $00, $00, $00, $3e, $63, $63, $63, $3e, $63, $63, $63
093cb     63 3E 00 00 
093cf     00 00 00 00 
093d3     3E 63 63 63 
093d7     7E 60 60 60 | 	byte	$63, $3e, $00, $00, $00, $00, $00, $00, $3e, $63, $63, $63, $7e, $60, $60, $60
093db     30 1E 00 00 
093df     00 00 00 00 
093e3     00 00 00 18 
093e7     18 00 00 00 | 	byte	$30, $1e, $00, $00, $00, $00, $00, $00, $00, $00, $00, $18, $18, $00, $00, $00
093eb     18 18 00 00 
093ef     00 00 00 00 
093f3     00 00 00 18 
093f7     18 00 00 00 | 	byte	$18, $18, $00, $00, $00, $00, $00, $00, $00, $00, $00, $18, $18, $00, $00, $00
093fb     18 18 0C 00 
093ff     00 00 00 00 
09403     00 60 30 18 
09407     0C 06 0C 18 | 	byte	$18, $18, $0c, $00, $00, $00, $00, $00, $00, $60, $30, $18, $0c, $06, $0c, $18
0940b     30 60 00 00 
0940f     00 00 00 00 
09413     00 00 00 7E 
09417     00 00 7E 00 | 	byte	$30, $60, $00, $00, $00, $00, $00, $00, $00, $00, $00, $7e, $00, $00, $7e, $00
0941b     00 00 00 00 
0941f     00 00 00 00 
09423     00          | 	byte	$00[9]
09424     06 0C 18 30 
09428     60 30 18 0C 
0942c     06 00 00 00 
09430     00 00 00 3E | 	byte	$06, $0c, $18, $30, $60, $30, $18, $0c, $06, $00, $00, $00, $00, $00, $00, $3e
09434     63 63 30 18 
09438     18 18 00 18 
0943c     18 00 00 00 
09440     00 00 00 00 | 	byte	$63, $63, $30, $18, $18, $18, $00, $18, $18, $00, $00, $00, $00, $00, $00, $00
09444     3E 63 63 7B 
09448     7B 7B 3B 03 
0944c     3E 00 00 00 
09450     00 00 00 08 | 	byte	$3e, $63, $63, $7b, $7b, $7b, $3b, $03, $3e, $00, $00, $00, $00, $00, $00, $08
09454     1C 36 63 63 
09458     7F 63 63 63 
0945c     63 00 00 00 
09460     00 00 00 3F | 	byte	$1c, $36, $63, $63, $7f, $63, $63, $63, $63, $00, $00, $00, $00, $00, $00, $3f
09464     66 66 66 3E 
09468     66 66 66 66 
0946c     3F 00 00 00 
09470     00 00 00 3C | 	byte	$66, $66, $66, $3e, $66, $66, $66, $66, $3f, $00, $00, $00, $00, $00, $00, $3c
09474     66 43 03 03 
09478     03 03 43 66 
0947c     3C 00 00 00 
09480     00 00 00 1F | 	byte	$66, $43, $03, $03, $03, $03, $43, $66, $3c, $00, $00, $00, $00, $00, $00, $1f
09484     36 66 66 66 
09488     66 66 66 36 
0948c     1F 00 00 00 
09490     00 00 00 7F | 	byte	$36, $66, $66, $66, $66, $66, $66, $36, $1f, $00, $00, $00, $00, $00, $00, $7f
09494     66 46 16 1E 
09498     16 06 46 66 
0949c     7F 00 00 00 
094a0     00 00 00 7F | 	byte	$66, $46, $16, $1e, $16, $06, $46, $66, $7f, $00, $00, $00, $00, $00, $00, $7f
094a4     66 46 16 1E 
094a8     16 06 06 06 
094ac     0F 00 00 00 
094b0     00 00 00 3C | 	byte	$66, $46, $16, $1e, $16, $06, $06, $06, $0f, $00, $00, $00, $00, $00, $00, $3c
094b4     66 43 03 03 
094b8     7B 63 63 66 
094bc     5C 00 00 00 
094c0     00 00 00 63 | 	byte	$66, $43, $03, $03, $7b, $63, $63, $66, $5c, $00, $00, $00, $00, $00, $00, $63
094c4     63 63 63 7F 
094c8     63 63 63 63 
094cc     63 00 00 00 
094d0     00 00 00 3C | 	byte	$63, $63, $63, $7f, $63, $63, $63, $63, $63, $00, $00, $00, $00, $00, $00, $3c
094d4     18 18 18 18 
094d8     18 18 18 18 | 	byte	$18[8]
094dc     3C 00 00 00 
094e0     00 00 00 78 
094e4     30 30 30 30 
094e8     30 33 33 33 | 	byte	$3c, $00, $00, $00, $00, $00, $00, $78, $30, $30, $30, $30, $30, $33, $33, $33
094ec     1E 00 00 00 
094f0     00 00 00 67 
094f4     66 66 36 1E 
094f8     1E 36 66 66 | 	byte	$1e, $00, $00, $00, $00, $00, $00, $67, $66, $66, $36, $1e, $1e, $36, $66, $66
094fc     67 00 00 00 
09500     00 00 00 0F 
09504     06 06 06 06 
09508     06 06 46 66 | 	byte	$67, $00, $00, $00, $00, $00, $00, $0f, $06, $06, $06, $06, $06, $06, $46, $66
0950c     7F 00 00 00 
09510     00 00 00 63 
09514     77 7F 7F 6B 
09518     63 63 63 63 | 	byte	$7f, $00, $00, $00, $00, $00, $00, $63, $77, $7f, $7f, $6b, $63, $63, $63, $63
0951c     63 00 00 00 
09520     00 00 00 63 
09524     67 6F 7F 7B 
09528     73 63 63 63 | 	byte	$63, $00, $00, $00, $00, $00, $00, $63, $67, $6f, $7f, $7b, $73, $63, $63, $63
0952c     63 00 00 00 
09530     00 00 00 3E 
09534     63 63 63 63 
09538     63 63 63 63 | 	byte	$63, $00, $00, $00, $00, $00, $00, $3e, $63, $63, $63, $63, $63, $63, $63, $63
0953c     3E 00 00 00 
09540     00 00 00 3F 
09544     66 66 66 3E 
09548     06 06 06 06 | 	byte	$3e, $00, $00, $00, $00, $00, $00, $3f, $66, $66, $66, $3e, $06, $06, $06, $06
0954c     0F 00 00 00 
09550     00 00 00 3E 
09554     63 63 63 63 
09558     63 63 6B 7B | 	byte	$0f, $00, $00, $00, $00, $00, $00, $3e, $63, $63, $63, $63, $63, $63, $6b, $7b
0955c     3E 30 70 00 
09560     00 00 00 3F 
09564     66 66 66 3E 
09568     36 66 66 66 | 	byte	$3e, $30, $70, $00, $00, $00, $00, $3f, $66, $66, $66, $3e, $36, $66, $66, $66
0956c     67 00 00 00 
09570     00 00 00 3E 
09574     63 63 06 1C 
09578     30 60 63 63 | 	byte	$67, $00, $00, $00, $00, $00, $00, $3e, $63, $63, $06, $1c, $30, $60, $63, $63
0957c     3E 00 00 00 
09580     00 00 00 7E 
09584     7E 5A 18 18 
09588     18 18 18 18 | 	byte	$3e, $00, $00, $00, $00, $00, $00, $7e, $7e, $5a, $18, $18, $18, $18, $18, $18
0958c     3C 00 00 00 
09590     00 00 00 63 
09594     63 63 63 63 
09598     63 63 63 63 | 	byte	$3c, $00, $00, $00, $00, $00, $00, $63, $63, $63, $63, $63, $63, $63, $63, $63
0959c     3E 00 00 00 
095a0     00 00 00 63 
095a4     63 63 63 63 
095a8     63 63 36 1C | 	byte	$3e, $00, $00, $00, $00, $00, $00, $63, $63, $63, $63, $63, $63, $63, $36, $1c
095ac     08 00 00 00 
095b0     00 00 00 63 
095b4     63 63 63 6B 
095b8     6B 6B 7F 77 | 	byte	$08, $00, $00, $00, $00, $00, $00, $63, $63, $63, $63, $6b, $6b, $6b, $7f, $77
095bc     36 00 00 00 
095c0     00 00 00 63 
095c4     63 36 3E 1C 
095c8     1C 3E 36 63 | 	byte	$36, $00, $00, $00, $00, $00, $00, $63, $63, $36, $3e, $1c, $1c, $3e, $36, $63
095cc     63 00 00 00 
095d0     00 00 00 66 
095d4     66 66 66 3C 
095d8     18 18 18 18 | 	byte	$63, $00, $00, $00, $00, $00, $00, $66, $66, $66, $66, $3c, $18, $18, $18, $18
095dc     3C 00 00 00 
095e0     00 00 00 7F 
095e4     63 61 30 18 
095e8     0C 06 43 63 | 	byte	$3c, $00, $00, $00, $00, $00, $00, $7f, $63, $61, $30, $18, $0c, $06, $43, $63
095ec     7F 00 00 00 
095f0     00 00 00 3C 
095f4     0C 0C 0C 0C 
095f8     0C 0C 0C 0C | 	byte	$7f, $00, $00, $00, $00, $00, $00, $3c, $0c, $0c, $0c, $0c, $0c, $0c, $0c, $0c
095fc     3C 00 00 00 
09600     00 00 00 00 
09604     01 03 07 0E 
09608     1C 38 70 60 | 	byte	$3c, $00, $00, $00, $00, $00, $00, $00, $01, $03, $07, $0e, $1c, $38, $70, $60
0960c     40 00 00 00 
09610     00 00 00 3C 
09614     30 30 30 30 
09618     30 30 30 30 | 	byte	$40, $00, $00, $00, $00, $00, $00, $3c, $30, $30, $30, $30, $30, $30, $30, $30
0961c     3C 00 00 00 
09620     1C 36 00 00 
09624     00 00 00 00 
09628     00 00 00 00 | 	byte	$3c, $00, $00, $00, $1c, $36, $00, $00, $00, $00, $00, $00, $00, $00, $00, $00
0962c     00 00 00 00 
09630     00 00 00 00 
09634     00 00 00 00 
09638     00 00 00 00 
0963c     00          | 	byte	$00[17]
0963d     FF 00 00 0C 
09641     18 00 00 00 
09645     00 00 00 00 
09649     00 00 00 00 | 	byte	$ff, $00, $00, $0c, $18, $00, $00, $00, $00, $00, $00, $00, $00, $00, $00, $00
0964d     00 00 00 00 
09651     00 00 00 00 
09655     00          | 	byte	$00[9]
09656     1E 30 3E 33 
0965a     33 33 6E 00 
0965e     00 00 00 00 
09662     00 07 06 06 | 	byte	$1e, $30, $3e, $33, $33, $33, $6e, $00, $00, $00, $00, $00, $00, $07, $06, $06
09666     1E 36 66 66 
0966a     66 66 3E 00 
0966e     00 00 00 00 
09672     00 00 00 00 | 	byte	$1e, $36, $66, $66, $66, $66, $3e, $00, $00, $00, $00, $00, $00, $00, $00, $00
09676     3E 63 03 03 
0967a     03 63 3E 00 
0967e     00 00 00 00 
09682     00 38 30 30 | 	byte	$3e, $63, $03, $03, $03, $63, $3e, $00, $00, $00, $00, $00, $00, $38, $30, $30
09686     3C 36 33 33 
0968a     33 33 6E 00 
0968e     00 00 00 00 
09692     00 00 00 00 | 	byte	$3c, $36, $33, $33, $33, $33, $6e, $00, $00, $00, $00, $00, $00, $00, $00, $00
09696     3E 63 7F 03 
0969a     03 63 3E 00 
0969e     00 00 00 00 
096a2     00 38 6C 4C | 	byte	$3e, $63, $7f, $03, $03, $63, $3e, $00, $00, $00, $00, $00, $00, $38, $6c, $4c
096a6     0C 1E 0C 0C 
096aa     0C 0C 1E 00 
096ae     00 00 00 00 
096b2     00 00 00 00 | 	byte	$0c, $1e, $0c, $0c, $0c, $0c, $1e, $00, $00, $00, $00, $00, $00, $00, $00, $00
096b6     6E 33 33 33 
096ba     33 33 3E 30 
096be     33 1E 00 00 
096c2     00 07 06 06 | 	byte	$6e, $33, $33, $33, $33, $33, $3e, $30, $33, $1e, $00, $00, $00, $07, $06, $06
096c6     36 6E 66 66 
096ca     66 66 67 00 
096ce     00 00 00 00 
096d2     00 18 18 00 | 	byte	$36, $6e, $66, $66, $66, $66, $67, $00, $00, $00, $00, $00, $00, $18, $18, $00
096d6     1C 18 18 18 
096da     18 18 3C 00 
096de     00 00 00 00 
096e2     00 60 60 00 | 	byte	$1c, $18, $18, $18, $18, $18, $3c, $00, $00, $00, $00, $00, $00, $60, $60, $00
096e6     70 60 60 60 
096ea     60 60 60 66 
096ee     66 3C 00 00 
096f2     00 07 06 06 | 	byte	$70, $60, $60, $60, $60, $60, $60, $66, $66, $3c, $00, $00, $00, $07, $06, $06
096f6     66 36 1E 1E 
096fa     36 66 67 00 
096fe     00 00 00 00 
09702     00 1C 18 18 | 	byte	$66, $36, $1e, $1e, $36, $66, $67, $00, $00, $00, $00, $00, $00, $1c, $18, $18
09706     18 18 18 18 
0970a     18 18       | 	byte	$18[6]
0970c     3C 00 00 00 
09710     00 00 00 00 
09714     00 00 37 7F 
09718     6B 6B 6B 6B | 	byte	$3c, $00, $00, $00, $00, $00, $00, $00, $00, $00, $37, $7f, $6b, $6b, $6b, $6b
0971c     63 00 00 00 
09720     00 00 00 00 
09724     00 00 3B 66 
09728     66 66 66 66 | 	byte	$63, $00, $00, $00, $00, $00, $00, $00, $00, $00, $3b, $66, $66, $66, $66, $66
0972c     66 00 00 00 
09730     00 00 00 00 
09734     00 00 3E 63 
09738     63 63 63 63 | 	byte	$66, $00, $00, $00, $00, $00, $00, $00, $00, $00, $3e, $63, $63, $63, $63, $63
0973c     3E 00 00 00 
09740     00 00 00 00 
09744     00 00 3B 66 
09748     66 66 66 66 | 	byte	$3e, $00, $00, $00, $00, $00, $00, $00, $00, $00, $3b, $66, $66, $66, $66, $66
0974c     3E 06 06 0F 
09750     00 00 00 00 
09754     00 00 6E 33 
09758     33 33 33 33 | 	byte	$3e, $06, $06, $0f, $00, $00, $00, $00, $00, $00, $6e, $33, $33, $33, $33, $33
0975c     3E 30 30 78 
09760     00 00 00 00 
09764     00 00 3B 6E 
09768     66 06 06 06 | 	byte	$3e, $30, $30, $78, $00, $00, $00, $00, $00, $00, $3b, $6e, $66, $06, $06, $06
0976c     0F 00 00 00 
09770     00 00 00 00 
09774     00 00 3E 63 
09778     06 1C 30 63 | 	byte	$0f, $00, $00, $00, $00, $00, $00, $00, $00, $00, $3e, $63, $06, $1c, $30, $63
0977c     3E 00 00 00 
09780     00 00 00 08 
09784     0C 0C 3F 0C 
09788     0C 0C 0C 6C | 	byte	$3e, $00, $00, $00, $00, $00, $00, $08, $0c, $0c, $3f, $0c, $0c, $0c, $0c, $6c
0978c     38 00 00 00 
09790     00 00 00 00 
09794     00 00 33 33 
09798     33 33 33 33 | 	byte	$38, $00, $00, $00, $00, $00, $00, $00, $00, $00, $33, $33, $33, $33, $33, $33
0979c     6E 00 00 00 
097a0     00 00 00 00 
097a4     00 00 63 63 
097a8     63 63 63 36 | 	byte	$6e, $00, $00, $00, $00, $00, $00, $00, $00, $00, $63, $63, $63, $63, $63, $36
097ac     1C 00 00 00 
097b0     00 00 00 00 
097b4     00 00 63 63 
097b8     6B 6B 6B 7F | 	byte	$1c, $00, $00, $00, $00, $00, $00, $00, $00, $00, $63, $63, $6b, $6b, $6b, $7f
097bc     36 00 00 00 
097c0     00 00 00 00 
097c4     00 00 63 36 
097c8     1C 1C 1C 36 | 	byte	$36, $00, $00, $00, $00, $00, $00, $00, $00, $00, $63, $36, $1c, $1c, $1c, $36
097cc     63 00 00 00 
097d0     00 00 00 00 
097d4     00 00 63 63 
097d8     63 63 63 63 | 	byte	$63, $00, $00, $00, $00, $00, $00, $00, $00, $00, $63, $63, $63, $63, $63, $63
097dc     7E 60 30 1F 
097e0     00 00 00 00 
097e4     00 00 7F 33 
097e8     18 0C 06 63 | 	byte	$7e, $60, $30, $1f, $00, $00, $00, $00, $00, $00, $7f, $33, $18, $0c, $06, $63
097ec     7F 00 00 00 
097f0     00 00 00 70 
097f4     18 18 18 0E 
097f8     18 18 18 18 | 	byte	$7f, $00, $00, $00, $00, $00, $00, $70, $18, $18, $18, $0e, $18, $18, $18, $18
097fc     70 00 00 00 
09800     00 00 00 18 
09804     18 18 18 18 
09808     18 18 18 18 | 	byte	$70, $00, $00, $00, $00, $00, $00, $18, $18, $18, $18, $18, $18, $18, $18, $18
0980c     18 00 00 00 
09810     00 00 00 0E 
09814     18 18 18 70 
09818     18 18 18 18 | 	byte	$18, $00, $00, $00, $00, $00, $00, $0e, $18, $18, $18, $70, $18, $18, $18, $18
0981c     0E 00 00 00 
09820     6E 3B 00 00 
09824     00 00 00 00 
09828     00 00 00 00 | 	byte	$0e, $00, $00, $00, $6e, $3b, $00, $00, $00, $00, $00, $00, $00, $00, $00, $00
0982c     00 00 00 00 
09830     00 00 00 00 
09834     00 00       | 	byte	$00[10]
09836     08 1C 36 63 
0983a     63 63 7F 00 
0983e     00 00 00 00 
09842     00 3C 66 43 | 	byte	$08, $1c, $36, $63, $63, $63, $7f, $00, $00, $00, $00, $00, $00, $3c, $66, $43
09846     03 03 03 03 
0984a     43 66 3C 18 
0984e     30 1E 00 00 
09852     00 00 33 00 | 	byte	$03, $03, $03, $03, $43, $66, $3c, $18, $30, $1e, $00, $00, $00, $00, $33, $00
09856     33 33 33 33 
0985a     33 33       | 	byte	$33[6]
0985c     6E 00 00 00 
09860     00 00 60 30 
09864     18 00 3E 63 
09868     7F 03 03 63 | 	byte	$6e, $00, $00, $00, $00, $00, $60, $30, $18, $00, $3e, $63, $7f, $03, $03, $63
0986c     3E 00 00 00 
09870     00 00 08 1C 
09874     36 00 1E 30 
09878     3E 33 33 33 | 	byte	$3e, $00, $00, $00, $00, $00, $08, $1c, $36, $00, $1e, $30, $3e, $33, $33, $33
0987c     6E 00 00 00 
09880     00 00 00 00 
09884     33 00 1E 30 
09888     3E 33 33 33 | 	byte	$6e, $00, $00, $00, $00, $00, $00, $00, $33, $00, $1e, $30, $3e, $33, $33, $33
0988c     6E 00 00 00 
09890     00 00 1C 36 
09894     1C 00 33 33 
09898     33 33 33 33 | 	byte	$6e, $00, $00, $00, $00, $00, $1c, $36, $1c, $00, $33, $33, $33, $33, $33, $33
0989c     6E 00 00 00 
098a0     00 00 60 30 
098a4     18 00 3E 63 
098a8     03 03 03 63 | 	byte	$6e, $00, $00, $00, $00, $00, $60, $30, $18, $00, $3e, $63, $03, $03, $03, $63
098ac     3E 00 00 00 
098b0     00 00 00 00 
098b4     00 00 3E 63 
098b8     03 03 03 63 | 	byte	$3e, $00, $00, $00, $00, $00, $00, $00, $00, $00, $3e, $63, $03, $03, $03, $63
098bc     3E 18 30 1E 
098c0     00 00 00 1C 
098c4     58 78 38 18 
098c8     1C 1E 1A 18 | 	byte	$3e, $18, $30, $1e, $00, $00, $00, $1c, $58, $78, $38, $18, $1c, $1e, $1a, $18
098cc     3C 00 00 00 
098d0     00 00 00 00 
098d4     63 00 3E 63 
098d8     7F 03 03 63 | 	byte	$3c, $00, $00, $00, $00, $00, $00, $00, $63, $00, $3e, $63, $7f, $03, $03, $63
098dc     3E 00 00 00 
098e0     66 33 00 3E 
098e4     63 63 63 63 
098e8     63 63 63 63 | 	byte	$3e, $00, $00, $00, $66, $33, $00, $3e, $63, $63, $63, $63, $63, $63, $63, $63
098ec     3E 00 00 00 
098f0     00 00 CC 66 
098f4     33 00 3E 63 
098f8     63 63 63 63 | 	byte	$3e, $00, $00, $00, $00, $00, $cc, $66, $33, $00, $3e, $63, $63, $63, $63, $63
098fc     3E 00 00 00 
09900     00 00 18 3C 
09904     66 00 1C 18 
09908     18 18 18 18 | 	byte	$3e, $00, $00, $00, $00, $00, $18, $3c, $66, $00, $1c, $18, $18, $18, $18, $18
0990c     3C 00 00 00 
09910     30 18 00 7F 
09914     63 61 30 18 
09918     0C 06 43 63 | 	byte	$3c, $00, $00, $00, $30, $18, $00, $7f, $63, $61, $30, $18, $0c, $06, $43, $63
0991c     7F 00 00 00 
09920     00 63 00 08 
09924     1C 36 63 63 
09928     7F 63 63 63 | 	byte	$7f, $00, $00, $00, $00, $63, $00, $08, $1c, $36, $63, $63, $7f, $63, $63, $63
0992c     63 00 00 00 
09930     30 18 00 3C 
09934     66 43 03 03 
09938     03 03 43 66 | 	byte	$63, $00, $00, $00, $30, $18, $00, $3c, $66, $43, $03, $03, $03, $03, $43, $66
0993c     3C 00 00 00 
09940     30 18 00 7F 
09944     66 46 16 1E 
09948     16 06 46 66 | 	byte	$3c, $00, $00, $00, $30, $18, $00, $7f, $66, $46, $16, $1e, $16, $06, $46, $66
0994c     7F 00 00 00 
09950     0C 06 00 0F 
09954     06 06 06 06 
09958     06 06 46 66 | 	byte	$7f, $00, $00, $00, $0c, $06, $00, $0f, $06, $06, $06, $06, $06, $06, $46, $66
0995c     7F 00 00 00 
09960     30 18 00 1C 
09964     18 18 18 18 
09968     18 18 18 18 | 	byte	$7f, $00, $00, $00, $30, $18, $00, $1c, $18, $18, $18, $18, $18, $18, $18, $18
0996c     3C 00 00 00 
09970     00 00 08 1C 
09974     36 00 3E 63 
09978     63 63 63 63 | 	byte	$3c, $00, $00, $00, $00, $00, $08, $1c, $36, $00, $3e, $63, $63, $63, $63, $63
0997c     3E 00 00 00 
09980     00 00 00 00 
09984     63 00 3E 63 
09988     63 63 63 63 | 	byte	$3e, $00, $00, $00, $00, $00, $00, $00, $63, $00, $3e, $63, $63, $63, $63, $63
0998c     3E 00 00 00 
09990     00 00 00 6F 
09994     46 26 06 06 
09998     06 06 46 66 | 	byte	$3e, $00, $00, $00, $00, $00, $00, $6f, $46, $26, $06, $06, $06, $06, $46, $66
0999c     7F 00 00 00 
099a0     00 00 00 6E 
099a4     4C 2C 0C 0C 
099a8     0C 0C 0C 0C | 	byte	$7f, $00, $00, $00, $00, $00, $00, $6e, $4c, $2c, $0c, $0c, $0c, $0c, $0c, $0c
099ac     1E 00 00 00 
099b0     30 18 00 3E 
099b4     63 63 06 1C 
099b8     30 60 63 63 | 	byte	$1e, $00, $00, $00, $30, $18, $00, $3e, $63, $63, $06, $1c, $30, $60, $63, $63
099bc     3E 00 00 00 
099c0     00 00 60 30 
099c4     18 00 3E 63 
099c8     06 1C 30 63 | 	byte	$3e, $00, $00, $00, $00, $00, $60, $30, $18, $00, $3e, $63, $06, $1c, $30, $63
099cc     3E 00 00 00 
099d0     00 63 00 3E 
099d4     63 63 63 63 
099d8     63 63 63 63 | 	byte	$3e, $00, $00, $00, $00, $63, $00, $3e, $63, $63, $63, $63, $63, $63, $63, $63
099dc     3E 00 00 00 
099e0     00 63 00 63 
099e4     63 63 63 63 
099e8     63 63 63 63 | 	byte	$3e, $00, $00, $00, $00, $63, $00, $63, $63, $63, $63, $63, $63, $63, $63, $63
099ec     3E 00 00 00 
099f0     6C 38 00 7E 
099f4     7E 5A 18 18 
099f8     18 18 18 18 | 	byte	$3e, $00, $00, $00, $6c, $38, $00, $7e, $7e, $5a, $18, $18, $18, $18, $18, $18
099fc     3C 00 00 00 
09a00     00 00 60 48 
09a04     2C 0C 3F 0C 
09a08     0C 0C 0C 6C | 	byte	$3c, $00, $00, $00, $00, $00, $60, $48, $2c, $0c, $3f, $0c, $0c, $0c, $0c, $6c
09a0c     38 00 00 00 
09a10     00 00 00 0F 
09a14     26 36 1E 0E 
09a18     07 07 46 66 | 	byte	$38, $00, $00, $00, $00, $00, $00, $0f, $26, $36, $1e, $0e, $07, $07, $46, $66
09a1c     7F 00 00 00 
09a20     00 00 00 00 
09a24     00 63 36 1C 
09a28     1C 36 63 00 | 	byte	$7f, $00, $00, $00, $00, $00, $00, $00, $00, $63, $36, $1c, $1c, $36, $63, $00
09a2c     00 00 00 00 
09a30     00 00       | 	byte	$00[6]
09a32     36 1C 08 00 
09a36     3E 63 03 03 
09a3a     03 63 3E 00 
09a3e     00 00 00 00 | 	byte	$36, $1c, $08, $00, $3e, $63, $03, $03, $03, $63, $3e, $00, $00, $00, $00, $00
09a42     30 18 0C 00 
09a46     1E 30 3E 33 
09a4a     33 33 6E 00 
09a4e     00 00 00 00 | 	byte	$30, $18, $0c, $00, $1e, $30, $3e, $33, $33, $33, $6e, $00, $00, $00, $00, $00
09a52     60 30 18 00 
09a56     1C 18 18 18 
09a5a     18 18 3C 00 
09a5e     00 00 00 00 | 	byte	$60, $30, $18, $00, $1c, $18, $18, $18, $18, $18, $3c, $00, $00, $00, $00, $00
09a62     60 30 18 00 
09a66     3E 63 63 63 
09a6a     63 63 3E 00 
09a6e     00 00 00 00 | 	byte	$60, $30, $18, $00, $3e, $63, $63, $63, $63, $63, $3e, $00, $00, $00, $00, $00
09a72     30 18 0C 00 
09a76     33 33 33 33 
09a7a     33 33 6E 00 
09a7e     00 00 00 00 | 	byte	$30, $18, $0c, $00, $33, $33, $33, $33, $33, $33, $6e, $00, $00, $00, $00, $00
09a82     00 08 1C 36 
09a86     63 63 7F 63 
09a8a     63 63 63 18 
09a8e     0C 78 00 00 | 	byte	$00, $08, $1c, $36, $63, $63, $7f, $63, $63, $63, $63, $18, $0c, $78, $00, $00
09a92     00 00 00 00 
09a96     1E 30 3E 33 
09a9a     33 33 6E 18 
09a9e     0C 78 36 1C | 	byte	$00, $00, $00, $00, $1e, $30, $3e, $33, $33, $33, $6e, $18, $0c, $78, $36, $1c
09aa2     00 7F 63 61 
09aa6     30 18 0C 06 
09aaa     43 63 7F 00 
09aae     00 00 00 00 | 	byte	$00, $7f, $63, $61, $30, $18, $0c, $06, $43, $63, $7f, $00, $00, $00, $00, $00
09ab2     36 1C 08 00 
09ab6     7F 33 18 0C 
09aba     06 63 7F 00 
09abe     00 00 00 00 | 	byte	$36, $1c, $08, $00, $7f, $33, $18, $0c, $06, $63, $7f, $00, $00, $00, $00, $00
09ac2     00 7F 66 46 
09ac6     16 1E 16 06 
09aca     46 66 7F 18 
09ace     0C 78 00 00 | 	byte	$00, $7f, $66, $46, $16, $1e, $16, $06, $46, $66, $7f, $18, $0c, $78, $00, $00
09ad2     00 00 00 00 
09ad6     3E 63 7F 03 
09ada     03 63 3E 18 
09ade     0C 78 00 00 | 	byte	$00, $00, $00, $00, $3e, $63, $7f, $03, $03, $63, $3e, $18, $0c, $78, $00, $00
09ae2     00 3C 66 03 
09ae6     1F 03 0F 03 
09aea     03 66 3C 00 
09aee     00 00 00 00 | 	byte	$00, $3c, $66, $03, $1f, $03, $0f, $03, $03, $66, $3c, $00, $00, $00, $00, $00
09af2     60 30 18 00 
09af6     7F 33 18 0C 
09afa     06 63 7F 00 
09afe     00 00 6C 38 | 	byte	$60, $30, $18, $00, $7f, $33, $18, $0c, $06, $63, $7f, $00, $00, $00, $6c, $38
09b02     00 3C 66 43 
09b06     03 03 03 03 
09b0a     43 66 3C 00 
09b0e     00 00 00 00 | 	byte	$00, $3c, $66, $43, $03, $03, $03, $03, $43, $66, $3c, $00, $00, $00, $00, $00
09b12     00 00 00 00 
09b16     3E 63 06 1C 
09b1a     30 63 3E 18 
09b1e     30 1E 00 00 | 	byte	$00, $00, $00, $00, $3e, $63, $06, $1c, $30, $63, $3e, $18, $30, $1e, $00, $00
09b22     00 00 00 00 
09b26     00 00       | 	byte	$00[6]
09b28     6C 36 1B 36 
09b2c     6C 00 00 00 
09b30     00 00 00 00 
09b34     00 00 00 00 | 	byte	$6c, $36, $1b, $36, $6c, $00, $00, $00, $00, $00, $00, $00, $00, $00, $00, $00
09b38     1B 36 6C 36 
09b3c     1B 00 00 00 
09b40     88 22 88 22 
09b44     88 22 88 22 | 	byte	$1b, $36, $6c, $36, $1b, $00, $00, $00, $88, $22, $88, $22, $88, $22, $88, $22
09b48     88 22 88 22 
09b4c     88 22 88 22 
09b50     AA 55 AA 55 
09b54     AA 55 AA 55 | 	byte	$88, $22, $88, $22, $88, $22, $88, $22, $aa, $55, $aa, $55, $aa, $55, $aa, $55
09b58     AA 55 AA 55 
09b5c     AA 55 AA 55 
09b60     BB EE BB EE 
09b64     BB EE BB EE | 	byte	$aa, $55, $aa, $55, $aa, $55, $aa, $55, $bb, $ee, $bb, $ee, $bb, $ee, $bb, $ee
09b68     BB EE BB EE 
09b6c     BB EE BB EE 
09b70     18 18 18 18 
09b74     18 18 18 18 | 	byte	$bb, $ee, $bb, $ee, $bb, $ee, $bb, $ee, $18, $18, $18, $18, $18, $18, $18, $18
09b78     18 18 18 18 
09b7c     18 18 18 18 
09b80     18 18 18 18 
09b84     18 18 18    | 	byte	$18[15]
09b87     1F 18 18 18 
09b8b     18 18 18 18 
09b8f     18 30 18 00 
09b93     08 1C 36 63 | 	byte	$1f, $18, $18, $18, $18, $18, $18, $18, $18, $30, $18, $00, $08, $1c, $36, $63
09b97     63 7F 63 63 
09b9b     63 63 00 00 
09b9f     00 1C 36 00 
09ba3     08 1C 36 63 | 	byte	$63, $7f, $63, $63, $63, $63, $00, $00, $00, $1c, $36, $00, $08, $1c, $36, $63
09ba7     63 7F 63 63 
09bab     63 63 00 00 
09baf     00 36 1C 00 
09bb3     7F 66 46 16 | 	byte	$63, $7f, $63, $63, $63, $63, $00, $00, $00, $36, $1c, $00, $7f, $66, $46, $16
09bb7     1E 16 06 46 
09bbb     66 7F 00 00 
09bbf     00 00 00 00 
09bc3     3E 63 63 06 | 	byte	$1e, $16, $06, $46, $66, $7f, $00, $00, $00, $00, $00, $00, $3e, $63, $63, $06
09bc7     1C 30 60 63 
09bcb     63 3E 18 30 
09bcf     1E 6C 6C 6C 
09bd3     6C 6C 6F 60 | 	byte	$1c, $30, $60, $63, $63, $3e, $18, $30, $1e, $6c, $6c, $6c, $6c, $6c, $6f, $60
09bd7     6F 6C 6C 6C 
09bdb     6C 6C 6C 6C 
09bdf     6C 6C 6C 6C 
09be3     6C 6C 6C 6C | 	byte	$6f, $6c, $6c, $6c, $6c, $6c, $6c, $6c, $6c, $6c, $6c, $6c, $6c, $6c, $6c, $6c
09be7     6C 6C 6C 6C 
09beb     6C 6C 6C 6C 
09bef     6C          | 	byte	$6c[9]
09bf0     00 00 00 00 
09bf4     00          | 	byte	$00[5]
09bf5     7F 60 6F 6C 
09bf9     6C 6C 6C 6C 
09bfd     6C 6C 6C 6C 
09c01     6C 6C 6C 6C | 	byte	$7f, $60, $6f, $6c, $6c, $6c, $6c, $6c, $6c, $6c, $6c, $6c, $6c, $6c, $6c, $6c
09c05     6F 60 7F 00 
09c09     00 00 00 00 
09c0d     00 00 00 18 
09c11     18 00 7F 63 | 	byte	$6f, $60, $7f, $00, $00, $00, $00, $00, $00, $00, $00, $18, $18, $00, $7f, $63
09c15     61 30 18 0C 
09c19     06 43 63 7F 
09c1d     00 00 00 00 
09c21     00 00 18 18 | 	byte	$61, $30, $18, $0c, $06, $43, $63, $7f, $00, $00, $00, $00, $00, $00, $18, $18
09c25     00 7F 33 18 
09c29     0C 06 63 7F 
09c2d     00 00 00 00 
09c31     00 00 00 00 | 	byte	$00, $7f, $33, $18, $0c, $06, $63, $7f, $00, $00, $00, $00, $00, $00, $00, $00
09c35     00 00 1F 18 
09c39     18 18 18 18 
09c3d     18 18 18 18 
09c41     18 18 18 18 | 	byte	$00, $00, $1f, $18, $18, $18, $18, $18, $18, $18, $18, $18, $18, $18, $18, $18
09c45     18 18 F8 00 
09c49     00 00 00 00 
09c4d     00 00 00 18 
09c51     18 18 18 18 | 	byte	$18, $18, $f8, $00, $00, $00, $00, $00, $00, $00, $00, $18, $18, $18, $18, $18
09c55     18 18 FF 00 
09c59     00 00 00 00 
09c5d     00 00 00 00 
09c61     00 00 00 00 | 	byte	$18, $18, $ff, $00, $00, $00, $00, $00, $00, $00, $00, $00, $00, $00, $00, $00
09c65     00 00 FF 18 
09c69     18 18 18 18 
09c6d     18 18 18 18 
09c71     18 18 18 18 | 	byte	$00, $00, $ff, $18, $18, $18, $18, $18, $18, $18, $18, $18, $18, $18, $18, $18
09c75     18 18 F8 18 
09c79     18 18 18 18 
09c7d     18 18 18 00 
09c81     00 00 00 00 | 	byte	$18, $18, $f8, $18, $18, $18, $18, $18, $18, $18, $18, $00, $00, $00, $00, $00
09c85     00 00 FF 00 
09c89     00 00 00 00 
09c8d     00 00 00 18 
09c91     18 18 18 18 | 	byte	$00, $00, $ff, $00, $00, $00, $00, $00, $00, $00, $00, $18, $18, $18, $18, $18
09c95     18 18 FF 18 
09c99     18 18 18 18 
09c9d     18 18 18 63 
09ca1     3E 00 08 1C | 	byte	$18, $18, $ff, $18, $18, $18, $18, $18, $18, $18, $18, $63, $3e, $00, $08, $1c
09ca5     36 63 63 7F 
09ca9     63 63 63 63 
09cad     00 00 00 00 
09cb1     00 00 63 3E | 	byte	$36, $63, $63, $7f, $63, $63, $63, $63, $00, $00, $00, $00, $00, $00, $63, $3e
09cb5     00 1E 30 3E 
09cb9     33 33 33 6E 
09cbd     00 00 00 6C 
09cc1     6C 6C 6C 6C | 	byte	$00, $1e, $30, $3e, $33, $33, $33, $6e, $00, $00, $00, $6c, $6c, $6c, $6c, $6c
09cc5     EC 0C FC 00 
09cc9     00 00 00 00 
09ccd     00 00 00 00 
09cd1     00 00 00 00 | 	byte	$ec, $0c, $fc, $00, $00, $00, $00, $00, $00, $00, $00, $00, $00, $00, $00, $00
09cd5     FC 0C EC 6C 
09cd9     6C 6C 6C 6C 
09cdd     6C 6C 6C 6C 
09ce1     6C 6C 6C 6C | 	byte	$fc, $0c, $ec, $6c, $6c, $6c, $6c, $6c, $6c, $6c, $6c, $6c, $6c, $6c, $6c, $6c
09ce5     EF 00 FF 00 
09ce9     00 00 00 00 
09ced     00 00 00 00 
09cf1     00 00 00 00 | 	byte	$ef, $00, $ff, $00, $00, $00, $00, $00, $00, $00, $00, $00, $00, $00, $00, $00
09cf5     FF 00 EF 6C 
09cf9     6C 6C 6C 6C 
09cfd     6C 6C 6C 6C 
09d01     6C 6C 6C 6C | 	byte	$ff, $00, $ef, $6c, $6c, $6c, $6c, $6c, $6c, $6c, $6c, $6c, $6c, $6c, $6c, $6c
09d05     EC 0C EC 6C 
09d09     6C 6C 6C 6C 
09d0d     6C 6C 6C 00 
09d11     00 00 00 00 | 	byte	$ec, $0c, $ec, $6c, $6c, $6c, $6c, $6c, $6c, $6c, $6c, $00, $00, $00, $00, $00
09d15     FF 00 FF 00 
09d19     00 00 00 00 
09d1d     00 00 00 6C 
09d21     6C 6C 6C 6C | 	byte	$ff, $00, $ff, $00, $00, $00, $00, $00, $00, $00, $00, $6c, $6c, $6c, $6c, $6c
09d25     EF 00 EF 6C 
09d29     6C 6C 6C 6C 
09d2d     6C 6C 6C 00 
09d31     00 00 00 00 | 	byte	$ef, $00, $ef, $6c, $6c, $6c, $6c, $6c, $6c, $6c, $6c, $00, $00, $00, $00, $00
09d35     63 3E 63 63 
09d39     63 63 3E 63 
09d3d     00 00 00 00 
09d41     00 00 30 7E | 	byte	$63, $3e, $63, $63, $63, $63, $3e, $63, $00, $00, $00, $00, $00, $00, $30, $7e
09d45     30 3C 36 33 
09d49     33 33 33 6E 
09d4d     00 00 00 00 
09d51     00 00 1F 36 | 	byte	$30, $3c, $36, $33, $33, $33, $33, $6e, $00, $00, $00, $00, $00, $00, $1f, $36
09d55     66 66 6F 66 
09d59     66 66 36 1F 
09d5d     00 00 00 36 
09d61     1C 00 1F 36 | 	byte	$66, $66, $6f, $66, $66, $66, $36, $1f, $00, $00, $00, $36, $1c, $00, $1f, $36
09d65     66 66 66 66 
09d69     66 66       | 	byte	$66[6]
09d6b     36 1F 00 00 
09d6f     00 00 63 00 
09d73     7F 66 46 16 
09d77     1E 16 06 46 | 	byte	$36, $1f, $00, $00, $00, $00, $63, $00, $7f, $66, $46, $16, $1e, $16, $06, $46
09d7b     66 7F 00 00 
09d7f     00 6C 38 00 
09d83     38 30 30 3C 
09d87     36 33 33 33 | 	byte	$66, $7f, $00, $00, $00, $6c, $38, $00, $38, $30, $30, $3c, $36, $33, $33, $33
09d8b     33 6E 00 00 
09d8f     00 36 1C 00 
09d93     63 67 6F 7F 
09d97     7B 73 63 63 | 	byte	$33, $6e, $00, $00, $00, $36, $1c, $00, $63, $67, $6f, $7f, $7b, $73, $63, $63
09d9b     63 63 00 00 
09d9f     00 30 18 00 
09da3     3C 18 18 18 
09da7     18 18 18 18 | 	byte	$63, $63, $00, $00, $00, $30, $18, $00, $3c, $18, $18, $18, $18, $18, $18, $18
09dab     18 3C 00 00 
09daf     00 3C 66 00 
09db3     3C 18 18 18 
09db7     18 18 18 18 | 	byte	$18, $3c, $00, $00, $00, $3c, $66, $00, $3c, $18, $18, $18, $18, $18, $18, $18
09dbb     18 3C 00 00 
09dbf     00 00 00 36 
09dc3     1C 08 00 3E 
09dc7     63 7F 03 03 | 	byte	$18, $3c, $00, $00, $00, $00, $00, $36, $1c, $08, $00, $3e, $63, $7f, $03, $03
09dcb     63 3E 00 00 
09dcf     00 18 18 18 
09dd3     18 18 18 18 
09dd7     1F 00 00 00 | 	byte	$63, $3e, $00, $00, $00, $18, $18, $18, $18, $18, $18, $18, $1f, $00, $00, $00
09ddb     00 00 00 00 
09ddf     00 00 00 00 
09de3     00 00 00 00 | 	byte	$00[12]
09de7     F8 18 18 18 
09deb     18 18 18 18 
09def     18 FF FF FF 
09df3     FF FF FF FF | 	byte	$f8, $18, $18, $18, $18, $18, $18, $18, $18, $ff, $ff, $ff, $ff, $ff, $ff, $ff
09df7     FF FF FF FF 
09dfb     FF FF FF FF 
09dff     FF          | 	byte	$ff[9]
09e00     00 00 00 00 
09e04     00 00 00    | 	byte	$00[7]
09e07     FF FF FF FF 
09e0b     FF FF FF FF 
09e0f     FF          | 	byte	$ff[9]
09e10     00 00 00 7E 
09e14     7E 5A 18 18 
09e18     18 18 18 18 
09e1c     3C 18 30 1E | 	byte	$00, $00, $00, $7e, $7e, $5a, $18, $18, $18, $18, $18, $18, $3c, $18, $30, $1e
09e20     1C 36 1C 63 
09e24     63 63 63 63 
09e28     63 63 63 63 
09e2c     3E 00 00 00 | 	byte	$1c, $36, $1c, $63, $63, $63, $63, $63, $63, $63, $63, $63, $3e, $00, $00, $00
09e30     FF FF FF FF 
09e34     FF FF FF    | 	byte	$ff[7]
09e37     00 00 00 00 
09e3b     00 00 00 00 
09e3f     00          | 	byte	$00[9]
09e40     30 18 00 3E 
09e44     63 63 63 63 
09e48     63 63 63 63 
09e4c     3E 00 00 00 | 	byte	$30, $18, $00, $3e, $63, $63, $63, $63, $63, $63, $63, $63, $3e, $00, $00, $00
09e50     00 00 00 1E 
09e54     33 33 33 1B 
09e58     33 63 63 63 
09e5c     33 00 00 00 | 	byte	$00, $00, $00, $1e, $33, $33, $33, $1b, $33, $63, $63, $63, $33, $00, $00, $00
09e60     1C 36 00 3E 
09e64     63 63 63 63 
09e68     63 63 63 63 
09e6c     3E 00 00 00 | 	byte	$1c, $36, $00, $3e, $63, $63, $63, $63, $63, $63, $63, $63, $3e, $00, $00, $00
09e70     30 18 00 63 
09e74     67 6F 7F 7B 
09e78     73 63 63 63 
09e7c     63 00 00 00 | 	byte	$30, $18, $00, $63, $67, $6f, $7f, $7b, $73, $63, $63, $63, $63, $00, $00, $00
09e80     00 00 60 30 
09e84     18 00 3B 66 
09e88     66 66 66 66 
09e8c     66 00 00 00 | 	byte	$00, $00, $60, $30, $18, $00, $3b, $66, $66, $66, $66, $66, $66, $00, $00, $00
09e90     00 00 36 1C 
09e94     08 00 3B 66 
09e98     66 66 66 66 
09e9c     66 00 00 00 | 	byte	$00, $00, $36, $1c, $08, $00, $3b, $66, $66, $66, $66, $66, $66, $00, $00, $00
09ea0     36 1C 00 3E 
09ea4     63 63 06 1C 
09ea8     30 60 63 63 
09eac     3E 00 00 00 | 	byte	$36, $1c, $00, $3e, $63, $63, $06, $1c, $30, $60, $63, $63, $3e, $00, $00, $00
09eb0     00 00 36 1C 
09eb4     08 00 3E 63 
09eb8     06 1C 30 63 
09ebc     3E 00 00 00 | 	byte	$00, $00, $36, $1c, $08, $00, $3e, $63, $06, $1c, $30, $63, $3e, $00, $00, $00
09ec0     30 18 00 3F 
09ec4     66 66 66 3E 
09ec8     36 66 66 66 
09ecc     6F 00 00 00 | 	byte	$30, $18, $00, $3f, $66, $66, $66, $3e, $36, $66, $66, $66, $6f, $00, $00, $00
09ed0     30 18 00 63 
09ed4     63 63 63 63 
09ed8     63 63 63 63 
09edc     3E 00 00 00 | 	byte	$30, $18, $00, $63, $63, $63, $63, $63, $63, $63, $63, $63, $3e, $00, $00, $00
09ee0     00 00 60 30 
09ee4     18 00 3B 6E 
09ee8     66 06 06 06 
09eec     0F 00 00 00 | 	byte	$00, $00, $60, $30, $18, $00, $3b, $6e, $66, $06, $06, $06, $0f, $00, $00, $00
09ef0     66 33 00 63 
09ef4     63 63 63 63 
09ef8     63 63 63 63 
09efc     3E 00 00 00 | 	byte	$66, $33, $00, $63, $63, $63, $63, $63, $63, $63, $63, $63, $3e, $00, $00, $00
09f00     00 00 60 30 
09f04     18 00 63 63 
09f08     63 63 63 63 
09f0c     7E 60 30 1F | 	byte	$00, $00, $60, $30, $18, $00, $63, $63, $63, $63, $63, $63, $7e, $60, $30, $1f
09f10     30 18 00 66 
09f14     66 66 66 3C 
09f18     18 18 18 18 
09f1c     3C 00 00 00 | 	byte	$30, $18, $00, $66, $66, $66, $66, $3c, $18, $18, $18, $18, $3c, $00, $00, $00
09f20     00 00 00 08 
09f24     0C 0C 3F 0C 
09f28     0C 0C 0C 6C 
09f2c     38 18 30 1E | 	byte	$00, $00, $00, $08, $0c, $0c, $3f, $0c, $0c, $0c, $0c, $6c, $38, $18, $30, $1e
09f30     30 18 00 00 
09f34     00 00 00 00 
09f38     00 00 00 00 
09f3c     00 00 00 00 | 	byte	$30, $18, $00, $00, $00, $00, $00, $00, $00, $00, $00, $00, $00, $00, $00, $00
09f40     00 00 00 00 
09f44     00 00 00 00 | 	byte	$00[8]
09f48     7F 00 00 00 
09f4c     00 00 00 00 
09f50     66 33 00 00 
09f54     00 00 00 00 | 	byte	$7f, $00, $00, $00, $00, $00, $00, $00, $66, $33, $00, $00, $00, $00, $00, $00
09f58     00 00 00 00 
09f5c     00 00 00 00 
09f60     00 00 00 00 
09f64     00 00 00 00 
09f68     00 00 00 00 
09f6c     00          | 	byte	$00[21]
09f6d     0C 06 3C 36 
09f71     1C 00 00 00 
09f75     00 00 00 00 
09f79     00 00 00 00 | 	byte	$0c, $06, $3c, $36, $1c, $00, $00, $00, $00, $00, $00, $00, $00, $00, $00, $00
09f7d     00 00 00 63 
09f81     3E 00 00 00 
09f85     00 00 00 00 
09f89     00 00 00 00 | 	byte	$00, $00, $00, $63, $3e, $00, $00, $00, $00, $00, $00, $00, $00, $00, $00, $00
09f8d     00 00 00 00 
09f91     3E 63 06 1C 
09f95     36 63 63 36 
09f99     1C 30 63 3E | 	byte	$00, $00, $00, $00, $3e, $63, $06, $1c, $36, $63, $63, $36, $1c, $30, $63, $3e
09f9d     00 00 00 00 
09fa1     00 00 00 00 | 	byte	$00[8]
09fa5     18 00 7E 00 
09fa9     18 00 00 00 
09fad     00 00 00 00 
09fb1     00 00 00 00 | 	byte	$18, $00, $7e, $00, $18, $00, $00, $00, $00, $00, $00, $00, $00, $00, $00, $00
09fb5     00 00 00 00 
09fb9     00 00 00 00 | 	byte	$00[8]
09fbd     18 30 1E 00 
09fc1     00 00 1C 36 
09fc5     36 1C 00 00 
09fc9     00 00 00 00 | 	byte	$18, $30, $1e, $00, $00, $00, $1c, $36, $36, $1c, $00, $00, $00, $00, $00, $00
09fcd     00 00 00 00 
09fd1     63 00 00 00 
09fd5     00 00 00 00 
09fd9     00 00 00 00 | 	byte	$00, $00, $00, $00, $63, $00, $00, $00, $00, $00, $00, $00, $00, $00, $00, $00
09fdd     00 00 00 18 
09fe1     18 00 00 00 
09fe5     00 00 00 00 
09fe9     00 00 00 00 | 	byte	$00, $00, $00, $18, $18, $00, $00, $00, $00, $00, $00, $00, $00, $00, $00, $00
09fed     00 00 00 00 
09ff1     00          | 	byte	$00[5]
09ff2     CC 66 33 00 
09ff6     33 33 33 33 
09ffa     33 33 6E 00 
09ffe     00 00 36 1C | 	byte	$cc, $66, $33, $00, $33, $33, $33, $33, $33, $33, $6e, $00, $00, $00, $36, $1c
0a002     00 3F 66 66 
0a006     66 3E 36 66 
0a00a     66 66 6F 00 
0a00e     00 00 00 00 | 	byte	$00, $3f, $66, $66, $66, $3e, $36, $66, $66, $66, $6f, $00, $00, $00, $00, $00
0a012     36 1C 08 00 
0a016     3B 6E 66 06 
0a01a     06 06 0F 00 
0a01e     00 00 00 00 | 	byte	$36, $1c, $08, $00, $3b, $6e, $66, $06, $06, $06, $0f, $00, $00, $00, $00, $00
0a022     00 00 00 7E 
0a026     7E 7E 7E 7E 
0a02a     7E 7E 00 00 
0a02e     00 00 00 00 | 	byte	$00, $00, $00, $7e, $7e, $7e, $7e, $7e, $7e, $7e, $00, $00, $00, $00, $00, $00
0a032     00 00 00 00 
0a036     00 00 00 00 
0a03a     00 00 00 00 
0a03e     00 00       | 	byte	$00, $00, $00, $00, $00, $00, $00, $00, $00, $00, $00, $00, $00, $00
0a040                 | 
0a040     00 00 00 00 
0a044     00          | ataripalette            file "ataripalettep2.def"
0a045     11 11 11 00 
0a049     22 22 22 00 
0a04d     33 33 33 00 
0a051     44 44 44 00 | 	byte	$11, $11, $11, $00, $22, $22, $22, $00, $33, $33, $33, $00, $44, $44, $44, $00
0a055     55 55 55 00 
0a059     66 66 66 00 
0a05d     77 77 77 00 
0a061     88 88 88 00 | 	byte	$55, $55, $55, $00, $66, $66, $66, $00, $77, $77, $77, $00, $88, $88, $88, $00
0a065     99 99 99 00 
0a069     AA AA AA 00 
0a06d     BB BB BB 00 
0a071     CC CC CC 00 | 	byte	$99, $99, $99, $00, $aa, $aa, $aa, $00, $bb, $bb, $bb, $00, $cc, $cc, $cc, $00
0a075     DD DD DD 00 
0a079     EE EE EE 00 
0a07d     FF FF FF 00 
0a081     00 0A 20 00 | 	byte	$dd, $dd, $dd, $00, $ee, $ee, $ee, $00, $ff, $ff, $ff, $00, $00, $0a, $20, $00
0a085     00 14 40 00 
0a089     00 1E 60 00 
0a08d     00 28 80 00 
0a091     00 32 9F 00 | 	byte	$00, $14, $40, $00, $00, $1e, $60, $00, $00, $28, $80, $00, $00, $32, $9f, $00
0a095     00 3C BF 00 
0a099     00 46 DF 00 
0a09d     00 50 FF 00 
0a0a1     1C 63 FF 00 | 	byte	$00, $3c, $bf, $00, $00, $46, $df, $00, $00, $50, $ff, $00, $1c, $63, $ff, $00
0a0a5     39 77 FF 00 
0a0a9     55 8A FF 00 
0a0ad     71 9E FF 00 
0a0b1     8E B1 FF 00 | 	byte	$39, $77, $ff, $00, $55, $8a, $ff, $00, $71, $9e, $ff, $00, $8e, $b1, $ff, $00
0a0b5     AA C5 FF 00 
0a0b9     C6 D8 FF 00 
0a0bd     E3 EC FF 00 
0a0c1     00 00 20 00 | 	byte	$aa, $c5, $ff, $00, $c6, $d8, $ff, $00, $e3, $ec, $ff, $00, $00, $00, $20, $00
0a0c5     00 00 40 00 
0a0c9     00 00 60 00 
0a0cd     00 00 80 00 
0a0d1     00 00 9F 00 | 	byte	$00, $00, $40, $00, $00, $00, $60, $00, $00, $00, $80, $00, $00, $00, $9f, $00
0a0d5     00 00 BF 00 
0a0d9     00 00 DF 00 
0a0dd     00 00 FF 00 
0a0e1     1C 1C FF 00 | 	byte	$00, $00, $bf, $00, $00, $00, $df, $00, $00, $00, $ff, $00, $1c, $1c, $ff, $00
0a0e5     39 39 FF 00 
0a0e9     55 55 FF 00 
0a0ed     71 71 FF 00 
0a0f1     8E 8E FF 00 | 	byte	$39, $39, $ff, $00, $55, $55, $ff, $00, $71, $71, $ff, $00, $8e, $8e, $ff, $00
0a0f5     AA AA FF 00 
0a0f9     C6 C6 FF 00 
0a0fd     E3 E3 FF 00 
0a101     10 00 20 00 | 	byte	$aa, $aa, $ff, $00, $c6, $c6, $ff, $00, $e3, $e3, $ff, $00, $10, $00, $20, $00
0a105     20 00 40 00 
0a109     30 00 60 00 
0a10d     40 00 80 00 
0a111     50 00 9F 00 | 	byte	$20, $00, $40, $00, $30, $00, $60, $00, $40, $00, $80, $00, $50, $00, $9f, $00
0a115     60 00 BF 00 
0a119     70 00 DF 00 
0a11d     80 00 FF 00 
0a121     8E 1C FF 00 | 	byte	$60, $00, $bf, $00, $70, $00, $df, $00, $80, $00, $ff, $00, $8e, $1c, $ff, $00
0a125     9C 39 FF 00 
0a129     AA 55 FF 00 
0a12d     B8 71 FF 00 
0a131     C7 8E FF 00 | 	byte	$9c, $39, $ff, $00, $aa, $55, $ff, $00, $b8, $71, $ff, $00, $c7, $8e, $ff, $00
0a135     D5 AA FF 00 
0a139     E3 C6 FF 00 
0a13d     F1 E3 FF 00 
0a141     20 00 20 00 | 	byte	$d5, $aa, $ff, $00, $e3, $c6, $ff, $00, $f1, $e3, $ff, $00, $20, $00, $20, $00
0a145     40 00 40 00 
0a149     60 00 60 00 
0a14d     80 00 80 00 
0a151     9F 00 9F 00 | 	byte	$40, $00, $40, $00, $60, $00, $60, $00, $80, $00, $80, $00, $9f, $00, $9f, $00
0a155     BF 00 BF 00 
0a159     DF 00 DF 00 
0a15d     FF 00 FF 00 
0a161     FF 1C FF 00 | 	byte	$bf, $00, $bf, $00, $df, $00, $df, $00, $ff, $00, $ff, $00, $ff, $1c, $ff, $00
0a165     FF 39 FF 00 
0a169     FF 55 FF 00 
0a16d     FF 71 FF 00 
0a171     FF 8E FF 00 | 	byte	$ff, $39, $ff, $00, $ff, $55, $ff, $00, $ff, $71, $ff, $00, $ff, $8e, $ff, $00
0a175     FF AA FF 00 
0a179     FF C6 FF 00 
0a17d     FF E3 FF 00 
0a181     20 00 10 00 | 	byte	$ff, $aa, $ff, $00, $ff, $c6, $ff, $00, $ff, $e3, $ff, $00, $20, $00, $10, $00
0a185     40 00 20 00 
0a189     60 00 30 00 
0a18d     80 00 40 00 
0a191     9F 00 50 00 | 	byte	$40, $00, $20, $00, $60, $00, $30, $00, $80, $00, $40, $00, $9f, $00, $50, $00
0a195     BF 00 60 00 
0a199     DF 00 70 00 
0a19d     FF 00 80 00 
0a1a1     FF 1C 8E 00 | 	byte	$bf, $00, $60, $00, $df, $00, $70, $00, $ff, $00, $80, $00, $ff, $1c, $8e, $00
0a1a5     FF 39 9C 00 
0a1a9     FF 55 AA 00 
0a1ad     FF 71 B8 00 
0a1b1     FF 8E C7 00 | 	byte	$ff, $39, $9c, $00, $ff, $55, $aa, $00, $ff, $71, $b8, $00, $ff, $8e, $c7, $00
0a1b5     FF AA D5 00 
0a1b9     FF C6 E3 00 
0a1bd     FF E3 F1 00 
0a1c1     20 00 00 00 | 	byte	$ff, $aa, $d5, $00, $ff, $c6, $e3, $00, $ff, $e3, $f1, $00, $20, $00, $00, $00
0a1c5     40 00 00 00 
0a1c9     60 00 00 00 
0a1cd     80 00 00 00 
0a1d1     9F 00 00 00 | 	byte	$40, $00, $00, $00, $60, $00, $00, $00, $80, $00, $00, $00, $9f, $00, $00, $00
0a1d5     BF 00 00 00 
0a1d9     DF 00 00 00 
0a1dd     FF 00 00 00 
0a1e1     FF 1C 1C 00 | 	byte	$bf, $00, $00, $00, $df, $00, $00, $00, $ff, $00, $00, $00, $ff, $1c, $1c, $00
0a1e5     FF 39 39 00 
0a1e9     FF 55 55 00 
0a1ed     FF 71 71 00 
0a1f1     FF 8E 8E 00 | 	byte	$ff, $39, $39, $00, $ff, $55, $55, $00, $ff, $71, $71, $00, $ff, $8e, $8e, $00
0a1f5     FF AA AA 00 
0a1f9     FF C6 C6 00 
0a1fd     FF E3 E3 00 
0a201     20 08 00 00 | 	byte	$ff, $aa, $aa, $00, $ff, $c6, $c6, $00, $ff, $e3, $e3, $00, $20, $08, $00, $00
0a205     40 10 00 00 
0a209     60 18 00 00 
0a20d     80 20 00 00 
0a211     9F 28 00 00 | 	byte	$40, $10, $00, $00, $60, $18, $00, $00, $80, $20, $00, $00, $9f, $28, $00, $00
0a215     BF 30 00 00 
0a219     DF 38 00 00 
0a21d     FF 40 00 00 
0a221     FF 55 1C 00 | 	byte	$bf, $30, $00, $00, $df, $38, $00, $00, $ff, $40, $00, $00, $ff, $55, $1c, $00
0a225     FF 6A 39 00 
0a229     FF 80 55 00 
0a22d     FF 95 71 00 
0a231     FF AA 8E 00 | 	byte	$ff, $6a, $39, $00, $ff, $80, $55, $00, $ff, $95, $71, $00, $ff, $aa, $8e, $00
0a235     FF BF AA 00 
0a239     FF D5 C6 00 
0a23d     FF EA E3 00 
0a241     20 10 00 00 | 	byte	$ff, $bf, $aa, $00, $ff, $d5, $c6, $00, $ff, $ea, $e3, $00, $20, $10, $00, $00
0a245     40 20 00 00 
0a249     60 30 00 00 
0a24d     80 40 00 00 
0a251     9F 50 00 00 | 	byte	$40, $20, $00, $00, $60, $30, $00, $00, $80, $40, $00, $00, $9f, $50, $00, $00
0a255     BF 60 00 00 
0a259     DF 70 00 00 
0a25d     FF 80 00 00 
0a261     FF 8E 1C 00 | 	byte	$bf, $60, $00, $00, $df, $70, $00, $00, $ff, $80, $00, $00, $ff, $8e, $1c, $00
0a265     FF 9C 39 00 
0a269     FF AA 55 00 
0a26d     FF B8 71 00 
0a271     FF C7 8E 00 | 	byte	$ff, $9c, $39, $00, $ff, $aa, $55, $00, $ff, $b8, $71, $00, $ff, $c7, $8e, $00
0a275     FF D5 AA 00 
0a279     FF E3 C6 00 
0a27d     FF F1 E3 00 
0a281     20 18 00 00 | 	byte	$ff, $d5, $aa, $00, $ff, $e3, $c6, $00, $ff, $f1, $e3, $00, $20, $18, $00, $00
0a285     40 30 00 00 
0a289     60 48 00 00 
0a28d     80 60 00 00 
0a291     9F 78 00 00 | 	byte	$40, $30, $00, $00, $60, $48, $00, $00, $80, $60, $00, $00, $9f, $78, $00, $00
0a295     BF 90 00 00 
0a299     DF A8 00 00 
0a29d     FF C0 00 00 
0a2a1     FF C7 1C 00 | 	byte	$bf, $90, $00, $00, $df, $a8, $00, $00, $ff, $c0, $00, $00, $ff, $c7, $1c, $00
0a2a5     FF CE 39 00 
0a2a9     FF D5 55 00 
0a2ad     FF DC 71 00 
0a2b1     FF E3 8E 00 | 	byte	$ff, $ce, $39, $00, $ff, $d5, $55, $00, $ff, $dc, $71, $00, $ff, $e3, $8e, $00
0a2b5     FF EA AA 00 
0a2b9     FF F1 C6 00 
0a2bd     FF F8 E3 00 
0a2c1     18 20 00 00 | 	byte	$ff, $ea, $aa, $00, $ff, $f1, $c6, $00, $ff, $f8, $e3, $00, $18, $20, $00, $00
0a2c5     30 40 00 00 
0a2c9     48 60 00 00 
0a2cd     60 80 00 00 
0a2d1     78 9F 00 00 | 	byte	$30, $40, $00, $00, $48, $60, $00, $00, $60, $80, $00, $00, $78, $9f, $00, $00
0a2d5     90 BF 00 00 
0a2d9     A8 DF 00 00 
0a2dd     C0 FF 00 00 
0a2e1     C7 FF 1C 00 | 	byte	$90, $bf, $00, $00, $a8, $df, $00, $00, $c0, $ff, $00, $00, $c7, $ff, $1c, $00
0a2e5     CE FF 39 00 
0a2e9     D5 FF 55 00 
0a2ed     DC FF 71 00 
0a2f1     E3 FF 8E 00 | 	byte	$ce, $ff, $39, $00, $d5, $ff, $55, $00, $dc, $ff, $71, $00, $e3, $ff, $8e, $00
0a2f5     EA FF AA 00 
0a2f9     F1 FF C6 00 
0a2fd     F8 FF E3 00 
0a301     00 20 00 00 | 	byte	$ea, $ff, $aa, $00, $f1, $ff, $c6, $00, $f8, $ff, $e3, $00, $00, $20, $00, $00
0a305     00 40 00 00 
0a309     00 60 00 00 
0a30d     00 80 00 00 
0a311     00 9F 00 00 | 	byte	$00, $40, $00, $00, $00, $60, $00, $00, $00, $80, $00, $00, $00, $9f, $00, $00
0a315     00 BF 00 00 
0a319     00 DF 00 00 
0a31d     00 FF 00 00 
0a321     1C FF 1C 00 | 	byte	$00, $bf, $00, $00, $00, $df, $00, $00, $00, $ff, $00, $00, $1c, $ff, $1c, $00
0a325     39 FF 39 00 
0a329     55 FF 55 00 
0a32d     71 FF 71 00 
0a331     8E FF 8E 00 | 	byte	$39, $ff, $39, $00, $55, $ff, $55, $00, $71, $ff, $71, $00, $8e, $ff, $8e, $00
0a335     AA FF AA 00 
0a339     C6 FF C6 00 
0a33d     E3 FF E3 00 
0a341     00 20 0A 00 | 	byte	$aa, $ff, $aa, $00, $c6, $ff, $c6, $00, $e3, $ff, $e3, $00, $00, $20, $0a, $00
0a345     00 40 14 00 
0a349     00 60 1E 00 
0a34d     00 80 28 00 
0a351     00 9F 32 00 | 	byte	$00, $40, $14, $00, $00, $60, $1e, $00, $00, $80, $28, $00, $00, $9f, $32, $00
0a355     00 BF 3C 00 
0a359     00 DF 46 00 
0a35d     00 FF 50 00 
0a361     1C FF 63 00 | 	byte	$00, $bf, $3c, $00, $00, $df, $46, $00, $00, $ff, $50, $00, $1c, $ff, $63, $00
0a365     39 FF 77 00 
0a369     55 FF 8A 00 
0a36d     71 FF 9E 00 
0a371     8E FF B1 00 | 	byte	$39, $ff, $77, $00, $55, $ff, $8a, $00, $71, $ff, $9e, $00, $8e, $ff, $b1, $00
0a375     AA FF C5 00 
0a379     C6 FF D8 00 
0a37d     E3 FF EC 00 
0a381     00 20 14 00 | 	byte	$aa, $ff, $c5, $00, $c6, $ff, $d8, $00, $e3, $ff, $ec, $00, $00, $20, $14, $00
0a385     00 40 28 00 
0a389     00 60 3C 00 
0a38d     00 80 50 00 
0a391     00 9F 64 00 | 	byte	$00, $40, $28, $00, $00, $60, $3c, $00, $00, $80, $50, $00, $00, $9f, $64, $00
0a395     00 BF 78 00 
0a399     00 DF 8C 00 
0a39d     00 FF A0 00 
0a3a1     1C FF AB 00 | 	byte	$00, $bf, $78, $00, $00, $df, $8c, $00, $00, $ff, $a0, $00, $1c, $ff, $ab, $00
0a3a5     39 FF B5 00 
0a3a9     55 FF C0 00 
0a3ad     71 FF CA 00 
0a3b1     8E FF D5 00 | 	byte	$39, $ff, $b5, $00, $55, $ff, $c0, $00, $71, $ff, $ca, $00, $8e, $ff, $d5, $00
0a3b5     AA FF DF 00 
0a3b9     C6 FF EA 00 
0a3bd     E3 FF F4 00 
0a3c1     00 20 20 00 | 	byte	$aa, $ff, $df, $00, $c6, $ff, $ea, $00, $e3, $ff, $f4, $00, $00, $20, $20, $00
0a3c5     00 40 40 00 
0a3c9     00 60 60 00 
0a3cd     00 80 80 00 
0a3d1     00 9F 9F 00 | 	byte	$00, $40, $40, $00, $00, $60, $60, $00, $00, $80, $80, $00, $00, $9f, $9f, $00
0a3d5     00 BF BF 00 
0a3d9     00 DF DF 00 
0a3dd     00 FF FF 00 
0a3e1     1C FF FF 00 | 	byte	$00, $bf, $bf, $00, $00, $df, $df, $00, $00, $ff, $ff, $00, $1c, $ff, $ff, $00
0a3e5     39 FF FF 00 
0a3e9     55 FF FF 00 
0a3ed     71 FF FF 00 
0a3f1     8E FF FF 00 | 	byte	$39, $ff, $ff, $00, $55, $ff, $ff, $00, $71, $ff, $ff, $00, $8e, $ff, $ff, $00
0a3f5     AA FF FF 00 
0a3f9     C6 FF FF 00 
0a3fd     E3 FF FF 00 
0a401     00 14 20 00 | 	byte	$aa, $ff, $ff, $00, $c6, $ff, $ff, $00, $e3, $ff, $ff, $00, $00, $14, $20, $00
0a405     00 28 40 00 
0a409     00 3C 60 00 
0a40d     00 50 80 00 
0a411     00 64 9F 00 | 	byte	$00, $28, $40, $00, $00, $3c, $60, $00, $00, $50, $80, $00, $00, $64, $9f, $00
0a415     00 78 BF 00 
0a419     00 8C DF 00 
0a41d     00 A0 FF 00 
0a421     1C AB FF 00 | 	byte	$00, $78, $bf, $00, $00, $8c, $df, $00, $00, $a0, $ff, $00, $1c, $ab, $ff, $00
0a425     39 B5 FF 00 
0a429     55 C0 FF 00 
0a42d     71 CA FF 00 
0a431     8E D5 FF 00 | 	byte	$39, $b5, $ff, $00, $55, $c0, $ff, $00, $71, $ca, $ff, $00, $8e, $d5, $ff, $00
0a435     AA DF FF 00 
0a439     C6 EA FF 00 
0a43d     E3 F4 FF    | 	byte	$aa, $df, $ff, $00, $c6, $ea, $ff, $00, $e3, $f4, $ff
0a440                 | 
0a440     3C 00 66 FD | hdmi            setcmod #$100                           'enable HDMI mode
0a444     58 E0 67 FD |                 drvl    #7<<6 + hdmi_base               'enable HDMI pins
0a448     7B 0B 80 FF 
0a44c     F0 01 0F FC |                 wrpin   ##%10110_1111_0111_10_00000_0, #7<<6 + hdmi_base      ' a '123 ohm BITDAC for pins
0a450     66 66 86 FF 
0a454     1D 9A 65 FD |                 setxfrq ##$0CCCCCCC+1                   'set streamer freq to 1/10th clk (25 MHz)
0a458                 | 
0a458     28 10 64 FD |                 setq    #8
0a45c     61 0B 05 FB |                 rdlong  framebuf,  ptra++               'read pointers
0a460                 | 
0a460     29 FE 65 FD |                 setq2   #255
0a464     8B 00 00 FB |                 rdlong  $000, paletteptr                'read palette
0a468                 | 
0a468                 | '' Blank lines before the frame
0a468                 | 
0a468     28 12 64 FD | p101            setq    #9
0a46c     8A E0 00 FB |                 rdlong  m_bs,modeptr                    'read timings
0a470     01 FE 04 F1 |                 add     frames,#1
0a474     8D 08 01 FB | 				rdlong  fontstart,fontnumptr
0a478     86 08 01 F1 | 				add     fontstart,fontbuf
0a47c     89 00 01 FB |                 rdlong  cursorx, cursorptr
0a480     80 02 E9 F8 |                 getbyte cursory, cursorx,#1
0a484     80 FC F0 F8 |                 getbyte cursorsh,cursorx,#2
0a488     FF 00 05 F5 |                 and     cursorx,#255
0a48c                 | 
0a48c     87 1C 01 F6 |                 mov     borderptr2,borderptr
0a490     8E DE 00 FB |                 rdlong  border,borderptr2
0a494     04 1C 05 F1 |                 add     borderptr2,#4
0a498     08 DE 64 F0 |                 shl     border,#8
0a49c                 | 
0a49c     8C 28 01 FB |                 rdlong  t1,commandptr
0a4a0     04 18 05 F1 |                 add     commandptr,#4
0a4a4     8C 2A 01 FB |                 rdlong  t2,commandptr
0a4a8     04 18 85 F1 |                 sub     commandptr,#4
0a4ac     01 29 1D F2 |                 cmp     t1,#257  wcz
0a4b0     94 2A 31 CC |          if_lt  wrlut   t2,t1
0a4b4     01 29 05 F6 |                 mov     t1, #257
0a4b8     8C 28 61 FC |                 wrlong  t1,commandptr
0a4bc     6B 22 01 F6 |                 mov     hsync0,sync_000                 'vsync off
0a4c0     6C 24 01 F6 |                 mov     hsync1,sync_001
0a4c4     43 EE 44 FB |                 callpa  i_upporch ,#blank
0a4c8     88 00 48 FC |                 wrbyte  #0,vblankptr
0a4cc                 | 
0a4cc                 | '' Upper border.
0a4cc                 | 
0a4cc     04 FE 0C F4 |                 testb   frames,#4 wz                    'cursor blinks at framerate/16, todo: define
0a4d0     65 00 05 A6 |          if_z   mov     cursorx,#101
0a4d4                 | 
0a4d4                 | 
0a4d4     76 1E 01 F6 |                 mov     ii, i_vborder
0a4d8                 | 
0a4d8     04 01 B0 FD | up_border       call    #hsync
0a4dc     6F E6 C0 FC |                 xcont   m_vi,border
0a4e0     FD 1F 6D FB |                 djnz    ii,#up_border
0a4e4                 | 
0a4e4                 | '' 480 active lines
0a4e4                 | 
0a4e4     E0 1F 05 F6 |                 mov     ii,#480
0a4e8     00 F6 04 F6 |                 mov     linenum,#0
0a4ec                 | 
0a4ec     80 06 01 F6 | line1           mov     cursorpos2,cursorx
0a4f0                 | 
0a4f0     7B 26 41 F8 |                 getnib  fontline,linenum,#0             'fontline is 0 to 15, a line in font def
0a4f4     85 20 01 F6 |                 mov     framebuf2,framebuf              'compute a line start in the framebuffer, which is (line div 16)*100
0a4f8     7B F4 00 F6 |                 mov     linestart,linenum
0a4fc     04 F4 44 F0 |                 shr     linestart,#4
0a500     81 F4 08 F2 |                 cmp     linestart,cursory wz
0a504     78 06 05 56 |          if_nz  mov     cursorpos2,#120
0a508     90 F5 04 FA |                 mul     linestart,#400
0a50c     7A 20 01 F1 |                 add     framebuf2,linestart
0a510     CC 00 B0 FD |                 call    #hsync
0a514     00 26 0D F2 |                 cmp     fontline,#0 wz
0a518     0C 00 90 5D |          if_nz  jmp     #p102                          'if fontline >0, display it
0a51c                 | 
0a51c     8E DE 00 FB |                 rdlong  border,borderptr2
0a520     04 1C 05 F1 |                 add     borderptr2,#4
0a524     08 DE 64 F0 |                 shl     border,#8
0a528                 | 
0a528     6F E8 C0 FC | p102            xcont   m_border,border                 'display a left border
0a52c     7E 26 19 F2 |                 cmp     fontline,cursorsh wcz
0a530     65 04 05 C6 |          if_c   mov     cursorpos,#101
0a534     83 04 01 36 |         if_nc   mov     cursorpos,cursorpos2
0a538     01 04 05 F1 |                 add     cursorpos,#1
0a53c     84 2A 01 F6 |                 mov     t2,fontstart
0a540     93 2A 01 F1 |                 add     t2,fontline
0a544                 | 
0a544     64 26 DC FC |                 rep     @p103,#100                      'display 100 chars
0a548                 | ''---------------------------------------------------------------------------------------
0a548     90 2C 01 FB |                         rdlong  char,framebuf2                                                      '2
0a54c     96 2E F1 F8 |                         getbyte backcolor,char,#2                                                   '4
0a550     96 30 F9 F8 |                         getbyte charcolor,char,#3                                                   '6
0a554     96 2C E1 F8 |                         getbyte char,char, #0                                                       '8
0a558     04 20 05 F1 |                         add     framebuf2,#4                                                        '10
0a55c     04 2C 65 F0 |                         shl     char,#4                                                             '12
0a560     95 2C 01 F1 |                         add     char,t2                                                             '14
0a564     96 28 C1 FA |                         rdbyte  t1,char                                                             '16
0a568     01 04 8D F1 |                         sub     cursorpos,#1 wz                                                     '18
0a56c     FF 28 65 A5 |                 if_z    xor     t1, #$FF                                                            '20
0a570     94 EA C0 FC |                         xcont   m_lut1,t1                                                           '22
0a574                 | 
0a574     97 28 A1 FA |                         rdlut   t1,backcolor                                                        '25
0a578     7D 28 31 FC |                         wrlut   t1,lutaddr                                                          '28
0a57c     01 FA 04 F1 |                         add     lutaddr,#1                                                          '30
0a580                 | 
0a580     98 28 A1 FA |                         rdlut   t1,charcolor                                                        '33
0a584     7D 28 31 FC |                         wrlut   t1,lutaddr                                                          '46
0a588     01 FA 84 F1 |                         sub     lutaddr,#1                                                          '38
0a58c                 | 
0a58c     7C EA 60 F5 |                         xor     m_lut1,a00010000                                                    '40
0a590     20 FA 64 F5 |                         xor     lutaddr,#32                                                         '42    .....    38 left
0a594                 | 
0a594                 | '' rep end ----------------------------------------------------------------------------
0a594                 | 
0a594                 | 
0a594     6F E8 C0 FC | p103            xcont   m_border,border                     'display a right border
0a598                 | 
0a598     01 F6 04 F1 |                 add     linenum, #1
0a59c     D3 1F 6D FB |                 djnz    ii,#line1
0a5a0                 | 
0a5a0                 | '' end of active screen
0a5a0     88 02 68 FC |                 wrlong  #1,vblankptr
0a5a4     76 1E 01 F6 |                 mov     ii,i_vborder                         'lower border
0a5a8                 | 
0a5a8                 | 
0a5a8     8E DE 00 FB |                 rdlong  border,borderptr2
0a5ac     04 1C 05 F1 |                 add     borderptr2,#4
0a5b0     08 DE 64 F0 |                 shl     border,#8
0a5b4     28 00 B0 FD | down_border     call    #hsync
0a5b8     6F E6 C0 FC |                 xcont   m_vi,border
0a5bc     FD 1F 6D FB |                 djnz    ii,#down_border
0a5c0     04 F2 44 FB |                 callpa  i_downporch ,#blank                  'bottom blanks
0a5c4                 | 
0a5c4     6D 22 01 F6 |                 mov     hsync0,sync_222                      'vsync on
0a5c8     6E 24 01 F6 |                 mov     hsync1,sync_223
0a5cc     01 F0 44 FB |                 callpa  i_vsync,#blank                       'vertical sync blanks
0a5d0     94 FE 9F FD |                 jmp     #p101                                'loop
0a5d4                 | 
0a5d4                 | '' Subroutines
0a5d4                 | 
0a5d4     08 00 B0 FD | blank           call    #hsync                          'blank lines
0a5d8     91 E6 C0 FC |                 xcont   m_vi,hsync0
0a5dc     FD ED 6F 0B |         _ret_   djnz    pa,#blank
0a5e0                 | 
0a5e0     91 E0 C0 FC | hsync           xcont   m_bs,hsync0                     'horizontal sync
0a5e4     92 E2 B0 FC |                 xzero   m_sn,hsync1
0a5e8     91 E4 C0 0C |         _ret_   xcont   m_bv,hsync0
0a5ec                 | 
0a5ec                 | '' consts and vars
0a5ec                 | 
0a5ec     52 4D 35 D5 | sync_000        long    %1101010100_1101010100_1101010100_10    '
0a5f0     AE 42 35 D5 | sync_001        long    %1101010100_1101010100_0010101011_10    '        hsync
0a5f4     52 45 15 55 | sync_222        long    %0101010100_0101010100_0101010100_10    'vsync
0a5f8     AE 4A 15 55 | sync_223        long    %0101010100_0101010100_1010101011_10    'vsync + hsync
0a5fc                 | 
0a5fc     00 2C 1A 00 | border          long    %00000000_00011010_00101100_00000000
0a600                 | 
0a600     10 00 E1 70 | m_bs            long    $70810000 + hdmi_base<<17 + 16          'before sync
0a604     50 00 E1 70 | m_sn            long    $70810000 + hdmi_base<<17 + 80          'sync
0a608     14 00 E1 70 | m_bv            long    $70810000 + hdmi_base<<17 + 20          'before visible
0a60c     00 04 E1 70 | m_vi            long    $70810000 + hdmi_base<<17 + 1024        'visible 1024
0a610     70 00 E1 70 | m_border        long    $70810000 + hdmi_base<<17 + 112         'immediate 112
0a614     08 00 E0 00 | m_lut1          long    $00800000 + hdmi_base<<17 + 8          ' imm+lut, 1 char
0a618     30 00 00 00 | i_vborder       long    48
0a61c     10 00 00 00 | i_upporch       long    16
0a620     10 00 00 00 | i_vsync         long    16
0a624     10 00 00 00 | i_downporch     long    16
0a628                 | 
0a628     00 00 00 00 | linestart       long    0
0a62c     00 00 00 00 | linenum         long    0
0a630     00 00 01 00 | a00010000       long    $00010000
0a634     00 01 00 00 | lutaddr         long    256
0a638                 | 
0a638     0E 00 00 00 | cursorsh        long    14
0a63c     00 00 00 00 | frames          long    0
0a640     00 00 00 00 | cursorx         long    0
0a644     00 00 00 00 | cursory         long    0
0a648     00 00 00 00 | cursorpos       long    0
0a64c     00 00 00 00 | cursorpos2      long    0
0a650     00 00 00 00 | fontstart	    long 	0
0a654                 | 	alignl
0a654                 | __system__dat_
0a654     00 00 00 00 
0a658     00 00 00 00 | 	byte	$00[8]
0a65c     03 00 00 00 
0a660     00 00 00 00 
0a664     00 00 00 00 | 	byte	$03, $00, $00, $00, $00, $00, $00, $00, $00, $00, $00, $00
0a668                 | __heap_base
0a668     00 00 00 00 
      ...             
0b668     00 00 00 00 
0b66c     00 00 00 00 | 	long	0[1026]
0b670                 | objmem
0b670     00 00 00 00 | 	long	0[1]
0b674 083             | 	org	COG_BSS_START
0b674 083             | __asfloat_0110_v_0109
0b674 083             | 	res	1
0b674 084             | __system__asFloat_0252_fi_0251
0b674 084             | 	res	1
0b674 085             | __system__asInt_0254_fi_0253
0b674 085             | 	res	1
0b674 086             | _var01
0b674 086             | 	res	1
0b674 087             | _var02
0b674 087             | 	res	1
0b674 088             | _var03
0b674 088             | 	res	1
0b674 089             | _var04
0b674 089             | 	res	1
0b674 08a             | _var05
0b674 08a             | 	res	1
0b674 08b             | _var06
0b674 08b             | 	res	1
0b674 08c             | _var07
0b674 08c             | 	res	1
0b674 08d             | _var08
0b674 08d             | 	res	1
0b674 08e             | _var09
0b674 08e             | 	res	1
0b674 08f             | _var10
0b674 08f             | 	res	1
0b674 090             | arg01
0b674 090             | 	res	1
0b674 091             | arg02
0b674 091             | 	res	1
0b674 092             | arg03
0b674 092             | 	res	1
0b674 093             | arg04
0b674 093             | 	res	1
0b674 094             | arg05
0b674 094             | 	res	1
0b674 095             | local01
0b674 095             | 	res	1
0b674 096             | local02
0b674 096             | 	res	1
0b674 097             | local03
0b674 097             | 	res	1
0b674 098             | local04
0b674 098             | 	res	1
0b674 099             | local05
0b674 099             | 	res	1
0b674 09a             | local06
0b674 09a             | 	res	1
0b674 09b             | local07
0b674 09b             | 	res	1
0b674 09c             | local08
0b674 09c             | 	res	1
0b674 09d             | local09
0b674 09d             | 	res	1
0b674 09e             | local10
0b674 09e             | 	res	1
0b674 09f             | local11
0b674 09f             | 	res	1
0b674 0a0             | local12
0b674 0a0             | 	res	1
0b674 0a1             | local13
0b674 0a1             | 	res	1
0b674 0a2             | local14
0b674 0a2             | 	res	1
0b674 0a3             | local15
0b674 0a3             | 	res	1
0b674 0a4             | local16
0b674 0a4             | 	res	1
0b674 0a5             | local17
0b674 0a5             | 	res	1
0b674 0a6             | local18
0b674 0a6             | 	res	1
0b674 0a7             | local19
0b674 0a7             | 	res	1
0b674 0a8             | local20
0b674 0a8             | 	res	1
0b674 0a9             | local21
0b674 0a9             | 	res	1
0b674 0aa             | local22
0b674 0aa             | 	res	1
0b674 0ab             | local23
0b674 0ab             | 	res	1
0b674 0ac             | local24
0b674 0ac             | 	res	1
0b674 0ad             | local25
0b674 0ad             | 	res	1
0b674 0ae             | local26
0b674 0ae             | 	res	1
0b674 0af             | local27
0b674 0af             | 	res	1
0b674 0b0             | local28
0b674 0b0             | 	res	1
0b674 0b1             | local29
0b674 0b1             | 	res	1
0b674 0b2             | local30
0b674 0b2             | 	res	1
0b674 0b3             | local31
0b674 0b3             | 	res	1
0b674 0b4             | local32
0b674 0b4             | 	res	1
0b674 0b5             | local33
0b674 0b5             | 	res	1
0b674 0b6             | local34
0b674 0b6             | 	res	1
0b674 0b7             | local35
0b674 0b7             | 	res	1
0b674 0b8             | local36
0b674 0b8             | 	res	1
0b674 0b9             | local37
0b674 0b9             | 	res	1
0b674 0ba             | local38
0b674 0ba             | 	res	1
0b674 0bb             | local39
0b674 0bb             | 	res	1
0b674 0bc             | local40
0b674 0bc             | 	res	1
0b674 0bd             | local41
0b674 0bd             | 	res	1
0b674 0be             | local42
0b674 0be             | 	res	1
0b674 0bf             | local43
0b674 0bf             | 	res	1
0b674 0c0             | local44
0b674 0c0             | 	res	1
0b674 0c1             | local45
0b674 0c1             | 	res	1
0b674 0c2             | local46
0b674 0c2             | 	res	1
0b674 0c3             | local47
0b674 0c3             | 	res	1
0b674 0c4             | local48
0b674 0c4             | 	res	1
0b674 0c5             | local49
0b674 0c5             | 	res	1
0b674 0c6             | local50
0b674 0c6             | 	res	1
0b674 0c7             | local51
0b674 0c7             | 	res	1
0b674 0c8             | local52
0b674 0c8             | 	res	1
0b674 0c9             | local53
0b674 0c9             | 	res	1
0b674 0ca             | local54
0b674 0ca             | 	res	1
0b674 0cb             | local55
0b674 0cb             | 	res	1
0b674 0cc             | local56
0b674 0cc             | 	res	1
0b674 0cd             | muldiva_
0b674 0cd             | 	res	1
0b674 0ce             | muldivb_
0b674 0ce             | 	res	1
0b674 0cf             | 	fit	480