00000                 | 
00000                 | #line 1 "D:/Programowanie/ultibo-propeller/adctest/adctest.p2asm"
00000                 | ' _clkfreq        = 361_267_200  '  44100x8192
00000                 | con
00000                 | 	_clkfreq = 361267200
00000                 | ' '_clkfreq       = 393_216_000  '  48000x8192, too high for a P2
00000                 | ' 
00000                 | ' bank            = 32    ' accessory board at pin 0,
00000                 | 	bank = 32
00000                 | ' 
00000                 | ' adcpinl         = bank+0   ' input on cinch 0,1
00000                 | 	adcpinl = 32
00000                 | ' adcpinr         = bank+1
00000                 | 	adcpinr = 33
00000                 | ' hdmi_pin        = 48
00000                 | 	hdmi_pin = 48
00000                 | dat
00000 000 00 00 00 00 | 	nop
00004 001 01 EC 63 FD | 	cogid	pa
00008 002 02 00 00 FF 
0000c 003 04 EC E7 FC | 	coginit	pa,##$404
00010                 | 	orgh	$10
00010     00 00 00 00 | 	long	0	'reserved
00014     00 00 00 00 | 	long	0 ' clock frequency: will default to 361276668
00018     00 00 00 00 | 	long	0 ' clock mode: will default to $1bb50fb
0001c     00 00 00 00 
      ...             
003f8     00 00 00 00 
003fc     00 00 00 00 | 	orgh	$400
00400     00 B8 05 06 |  _ret_	mov	result1, #0
00404 000             | 	org	0
00404 000             | entry
00404 000 00 F0 0F F2 | 	cmp	ptra, #0 wz
00408 001 14 02 90 5D |  if_ne	jmp	#spininit
0040c 002 DB F0 03 F6 | 	mov	ptra, ptr_stackspace_
00410 003 14 EC 0F FB | 	rdlong	pa, #20 wz
00414 004 EC 01 90 5D |  if_ne	jmp	#skip_clock_set_
00418 005 00 00 64 FD | 	hubset	#0
0041c 006 A8 DD 80 FF 
00420 007 00 F0 65 FD | 	hubset	##29053176
00424 008 86 01 80 FF 
00428 009 1F 80 66 FD | 	waitx	##200000
0042c 00a A8 DD 00 FF 
00430 00b FB EC 07 F6 | 	mov	pa, ##29053179
00434 00c 00 EC 63 FD | 	hubset	pa
00438 00d 18 EC 67 FC | 	wrlong	pa, #24
0043c 00e 52 C4 8A FF 
00440 00f 14 F8 6D FC | 	wrlong	##361276668, #20
00444 010 BC 01 90 FD | 	jmp	#skip_clock_set_
00448 011 00 00 00 00 
      ...             
005fc 07e 00 00 00 00 
00600 07f 00 00 00 00 | 	orgf	128
00604 080             | skip_clock_set_
00604 080 04 A0 61 FD | 	locknew	__lockreg
00608 081 D4 A0 61 FC | 	wrlong	__lockreg, ptr___lockreg_
0060c 082 7C 07 A0 FD | 	call	#_start
00610 083             | cogexit
00610 083 38 01 80 FF 
00614 084 1F 00 66 FD | 	waitx	##160000
00618 085 01 FC 61 FD | 	cogid	arg01
0061c 086 03 FC 61 FD | 	cogstop	arg01
00620 087             | spininit
00620 087 00 A7 05 FB | 	rdlong	objptr, ptra
00624 088 04 F0 07 F1 | 	add	ptra, #4
00628 089 00 B9 05 FB | 	rdlong	result1, ptra
0062c 08a 04 F0 07 F1 | 	add	ptra, #4
00630 08b 00 FD 05 FB | 	rdlong	arg01, ptra
00634 08c 04 F0 07 F1 | 	add	ptra, #4
00638 08d 00 FF 05 FB | 	rdlong	arg02, ptra
0063c 08e 04 F0 07 F1 | 	add	ptra, #4
00640 08f 00 01 06 FB | 	rdlong	arg03, ptra
00644 090 04 F0 07 F1 | 	add	ptra, #4
00648 091 00 03 06 FB | 	rdlong	arg04, ptra
0064c 092 10 F0 87 F1 | 	sub	ptra, #16
00650 093 2D B8 61 FD | 	call	result1
00654 094 B8 FF 9F FD | 	jmp	#cogexit
00658 095             | FCACHE_LOAD_
00658 095 2B 42 61 FD |     pop	fcache_tmpb_
0065c 096 F6 43 01 F1 |     add	fcache_tmpb_, pa
00660 097 2A 42 61 FD |     push	fcache_tmpb_
00664 098 F6 43 81 F1 |     sub	fcache_tmpb_, pa
00668 099 02 EC 47 F0 |     shr	pa, #2
0066c 09a 00 EC 8F F9 |     altd	pa
00670 09b A0 00 00 F6 |     mov	 0-0, ret_instr_
00674 09c 01 EC 87 F1 |     sub	pa, #1
00678 09d 28 EC 63 FD |     setq	pa
0067c 09e A1 00 00 FB |     rdlong	$0, fcache_tmpb_
00680 09f 00 00 80 FD |     jmp	#\$0 ' jmp to cache
00684 0a0             | ret_instr_
00684 0a0 2D 00 64 FD |     ret
00688 0a1             | fcache_tmpb_
00688 0a1 00 00 00 00 |     long 0
0068c 0a2             | COUNT_
0068c 0a2 00 00 00 00 |     long 0
00690 0a3             | RETADDR_
00690 0a3 00 00 00 00 |     long 0
00694 0a4             | fp
00694 0a4 00 00 00 00 |     long 0
00698 0a5             | pushregs_
00698 0a5 2B EC 63 FD |     pop  pa
0069c 0a6 2B 46 61 FD |     pop  RETADDR_
006a0 0a7 04 44 95 FB |     tjz  COUNT_, #pushregs_done_
006a4 0a8 01 44 85 F1 |     sub  COUNT_, #1
006a8 0a9 28 44 61 FD |     setq COUNT_
006ac 0aa 00 07 66 FC |     wrlong local01, ptra
006b0 0ab 01 44 05 F1 |     add  COUNT_, #1
006b4 0ac             | pushregs_done_
006b4 0ac 02 44 65 F0 |     shl  COUNT_, #2
006b8 0ad A2 F0 03 F1 |     add  ptra, COUNT_
006bc 0ae 02 44 45 F0 |     shr  COUNT_, #2
006c0 0af 28 04 64 FD |     setq #2 ' push 3 registers starting at COUNT_
006c4 0b0 00 45 65 FC |     wrlong COUNT_, ptra
006c8 0b1 0C F0 07 F1 |     add    ptra, #12
006cc 0b2 F8 49 01 F6 |     mov    fp, ptra
006d0 0b3 2C EC 63 FD |     jmp  pa
006d4 0b4             |  popregs_
006d4 0b4 2B EC 63 FD |     pop    pa
006d8 0b5 0C F0 87 F1 |     sub    ptra, #12
006dc 0b6 28 04 64 FD |     setq   #2
006e0 0b7 00 45 05 FB |     rdlong COUNT_, ptra
006e4 0b8 06 44 95 FB |     tjz    COUNT_, #popregs__ret
006e8 0b9 02 44 65 F0 |     shl    COUNT_, #2
006ec 0ba A2 F0 83 F1 |     sub    ptra, COUNT_
006f0 0bb 02 44 45 F0 |     shr    COUNT_, #2
006f4 0bc 01 44 85 F1 |     sub    COUNT_, #1
006f8 0bd 28 44 61 FD |     setq   COUNT_
006fc 0be 00 07 06 FB |     rdlong local01, ptra
00700 0bf             | popregs__ret
00700 0bf 2A 46 61 FD |     push   RETADDR_
00704 0c0 2C EC 63 FD |     jmp    pa
00708 0c1             | 
00708 0c1             | unsdivide_
00708 0c1 28 00 64 FD |        setq    #0
0070c 0c2 12 23 12 FD |        qdiv    muldiva_, muldivb_
00710 0c3 18 24 62 FD |        getqx   muldivb_
00714 0c4 19 22 62 0D |  _ret_ getqy   muldiva_
00718 0c5             | 
00718 0c5             | divide_
00718 0c5 11 23 52 F6 |        abs     muldiva_,muldiva_     wc       'abs(x)
0071c 0c6 03 A4 85 F5 |        muxc    itmp2_,#%11                    'store sign of x
00720 0c7 12 25 5A F6 |        abs     muldivb_,muldivb_     wcz      'abs(y)
00724 0c8 02 A4 65 C5 |  if_c  xor     itmp2_,#%10                    'store sign of y
00728 0c9 2D 00 64 AD |  if_z  ret
0072c 0ca D8 FF BF FD |        call    #unsdivide_
00730 0cb 01 A4 D5 F7 |        test    itmp2_,#1        wc       'restore sign, remainder
00734 0cc 11 23 82 F6 |        negc    muldiva_,muldiva_ 
00738 0cd 02 A4 D5 F7 |        test    itmp2_,#%10      wc       'restore sign, division result
0073c 0ce 12 25 82 06 |  _ret_ negc    muldivb_,muldivb_
00740 0cf             | 
00740 0cf             | __heap_ptr
00740 0cf A8 4B 00 00 | 	long	@__heap_base
00744 0d0             | __lockreg
00744 0d0 00 00 00 00 | 	long	0
00748 0d1             | itmp1_
00748 0d1 00 00 00 00 | 	long	0
0074c 0d2             | itmp2_
0074c 0d2 00 00 00 00 | 	long	0
00750 0d3             | objptr
00750 0d3 B0 5B 00 00 | 	long	@objmem
00754 0d4             | ptr___lockreg_
00754 0d4 44 07 00 00 | 	long	@__lockreg
00758 0d5             | ptr___system__dat__
00758 0d5 98 4B 00 00 | 	long	@__system__dat_
0075c 0d6             | ptr__hng025_dat__
0075c 0d6 30 27 00 00 | 	long	@_hng025_dat_
00760 0d7             | ptr__hng025_putpixel1_
00760 0d7 94 09 00 00 | 	long	@_hng025_putpixel1
00764 0d8             | ptr__hng025_putpixel2_
00764 0d8 80 0A 00 00 | 	long	@_hng025_putpixel2
00768 0d9             | ptr__hng025_putpixel4_
00768 0d9 6C 0B 00 00 | 	long	@_hng025_putpixel4
0076c 0da             | ptr__hng025_putpixel8_
0076c 0da 58 0C 00 00 | 	long	@_hng025_putpixel8
00770 0db             | ptr_stackspace_
00770 0db 9C 5C 00 00 | 	long	@stackspace
00774 0dc             | result1
00774 0dc 00 00 00 00 | 	long	0
00778 0dd             | result2
00778 0dd 00 00 00 00 | 	long	0
0077c 0de             | COG_BSS_START
0077c 0de             | 	fit	480
0077c                 | 	orgh
0077c                 | hubentry
0077c                 | 
0077c                 | ' 
0077c                 | ' 
0077c                 | ' pub start()     |iii, m, n
0077c                 | _start
0077c                 | ' 
0077c                 | ' 
0077c                 | ' v .start(561,hdmi_pin)
0077c     01 00 00 FF 
00780     31 FC 05 F6 | 	mov	arg01, ##561
00784     30 FE 05 F6 | 	mov	arg02, #48
00788     F0 10 B0 FD | 	call	#_hng025_start
0078c                 | ' 'coginit(0,@mixer,0)
0078c                 | ' v.setbordercolor(0,0,0)
0078c     00 FC 05 F6 | 	mov	arg01, #0
00790     00 FE 05 F6 | 	mov	arg02, #0
00794     00 00 06 F6 | 	mov	arg03, #0
00798     B4 05 B0 FD | 	call	#_hng025_setbordercolor
0079c                 | ' v.cls(154,147)
0079c     9A FC 05 F6 | 	mov	arg01, #154
007a0     93 FE 05 F6 | 	mov	arg02, #147
007a4     CC 05 B0 FD | 	call	#_hng025_cls
007a8                 | ' v.setfontfamily(4)
007a8                 | ' 
007a8                 | ' font_family:=afontnum
007a8     C8 A6 05 F1 | 	add	objptr, #200
007ac     D3 08 68 FC | 	wrlong	#4, objptr
007b0     C8 A6 85 F1 | 	sub	objptr, #200
007b4                 | ' v.waitvbl(100)
007b4     64 FC 05 F6 | 	mov	arg01, #100
007b8     20 05 B0 FD | 	call	#_hng025_waitvbl
007bc                 | ' v.outtextxycg(16,16,string("READY"),154,147)
007bc     13 00 00 FF 
007c0     26 01 06 F6 | 	mov	arg03, ##@LR__0164
007c4     10 FC 05 F6 | 	mov	arg01, #16
007c8     10 FE 05 F6 | 	mov	arg02, #16
007cc     9A 02 06 F6 | 	mov	arg04, #154
007d0     93 04 06 F6 | 	mov	arg05, #147
007d4     1C 01 B0 FD | 	call	#_hng025_outtextxycg
007d8                 | ' v.outtextxycg(16,32,string(" "),147,154)
007d8     13 00 00 FF 
007dc     2C 01 06 F6 | 	mov	arg03, ##@LR__0165
007e0     10 FC 05 F6 | 	mov	arg01, #16
007e4     20 FE 05 F6 | 	mov	arg02, #32
007e8     93 02 06 F6 | 	mov	arg04, #147
007ec     9A 04 06 F6 | 	mov	arg05, #154
007f0     00 01 B0 FD | 	call	#_hng025_outtextxycg
007f4                 | _start_ret
007f4     2D 00 64 FD | 	ret
007f8                 | 
007f8                 | ' 
007f8                 | ' pub putcharxycg(x,y,achar,f,b) |xx, yy,bb
007f8                 | _hng025_putcharxycg
007f8     0D 44 05 F6 | 	mov	COUNT_, #13
007fc     A5 00 A0 FD | 	call	#pushregs_
00800     FE 06 02 F6 | 	mov	local01, arg01
00804     FF 08 02 F6 | 	mov	local02, arg02
00808     00 0B 02 F6 | 	mov	local03, arg03
0080c     01 0D 02 F6 | 	mov	local04, arg04
00810     02 0F 02 F6 | 	mov	local05, arg05
00814                 | ' 
00814                 | ' repeat yy from 0 to 15
00814     00 10 06 F6 | 	mov	local06, #0
00818                 | LR__0001
00818                 | '   bb:=byte[@vga_font+font_family<<10+achar<<4+yy]
00818     D6 12 02 F6 | 	mov	local07, ptr__hng025_dat__
0081c     C8 A6 05 F1 | 	add	objptr, #200
00820     D3 14 02 FB | 	rdlong	local08, objptr
00824     C8 A6 85 F1 | 	sub	objptr, #200
00828     0A 14 66 F0 | 	shl	local08, #10
0082c     0A 13 02 F1 | 	add	local07, local08
00830     05 17 02 F6 | 	mov	local09, local03
00834     04 16 66 F0 | 	shl	local09, #4
00838     0B 13 02 F1 | 	add	local07, local09
0083c     08 13 02 F1 | 	add	local07, local06
00840     09 19 C2 FA | 	rdbyte	local10, local07
00844                 | '   repeat xx from 0 to 7
00844     00 1A 06 F6 | 	mov	local11, #0
00848                 | LR__0002
00848                 | '     if (bb&(1<<xx))<>0
00848     0D 1D C2 F9 | 	decod	local12, local11
0084c     0E 19 CA F7 | 	test	local10, local12 wz
00850     40 00 90 AD |  if_e	jmp	#LR__0003
00854                 | '       putpixel(xx+x,yy+y,f)
00854     D8 A6 05 F1 | 	add	objptr, #216
00858     D3 12 02 FB | 	rdlong	local07, objptr
0085c     D8 A6 85 F1 | 	sub	objptr, #216
00860     09 1D 02 FB | 	rdlong	local12, local07
00864     04 12 06 F1 | 	add	local07, #4
00868     09 15 02 FB | 	rdlong	local08, local07
0086c     0D FD 01 F6 | 	mov	arg01, local11
00870     03 FD 01 F1 | 	add	arg01, local01
00874     08 FF 01 F6 | 	mov	arg02, local06
00878     04 FF 01 F1 | 	add	arg02, local02
0087c     06 01 02 F6 | 	mov	arg03, local04
00880     D3 1E 02 F6 | 	mov	local13, objptr
00884     0E A7 01 F6 | 	mov	objptr, local12
00888     2D 14 62 FD | 	call	local08
0088c     0F A7 01 F6 | 	mov	objptr, local13
00890                 | '     else
00890     3C 00 90 FD | 	jmp	#LR__0004
00894                 | LR__0003
00894                 | '       putpixel(xx+x,yy+y,b)
00894     D8 A6 05 F1 | 	add	objptr, #216
00898     D3 12 02 FB | 	rdlong	local07, objptr
0089c     D8 A6 85 F1 | 	sub	objptr, #216
008a0     09 1D 02 FB | 	rdlong	local12, local07
008a4     04 12 06 F1 | 	add	local07, #4
008a8     09 15 02 FB | 	rdlong	local08, local07
008ac     0D FD 01 F6 | 	mov	arg01, local11
008b0     03 FD 01 F1 | 	add	arg01, local01
008b4     08 FF 01 F6 | 	mov	arg02, local06
008b8     04 FF 01 F1 | 	add	arg02, local02
008bc     07 01 02 F6 | 	mov	arg03, local05
008c0     D3 1E 02 F6 | 	mov	local13, objptr
008c4     0E A7 01 F6 | 	mov	objptr, local12
008c8     2D 14 62 FD | 	call	local08
008cc     0F A7 01 F6 | 	mov	objptr, local13
008d0                 | LR__0004
008d0     01 1A 06 F1 | 	add	local11, #1
008d4     08 1A 5E F2 | 	cmps	local11, #8 wcz
008d8     6C FF 9F CD |  if_b	jmp	#LR__0002
008dc     01 10 06 F1 | 	add	local06, #1
008e0     10 10 5E F2 | 	cmps	local06, #16 wcz
008e4     30 FF 9F CD |  if_b	jmp	#LR__0001
008e8     A4 F0 03 F6 | 	mov	ptra, fp
008ec     B4 00 A0 FD | 	call	#popregs_
008f0                 | _hng025_putcharxycg_ret
008f0     2D 00 64 FD | 	ret
008f4                 | 
008f4                 | ' 
008f4                 | ' pub outtextxycg(x,y,text,f,b) | iii,c
008f4                 | _hng025_outtextxycg
008f4     0C 44 05 F6 | 	mov	COUNT_, #12
008f8     A5 00 A0 FD | 	call	#pushregs_
008fc     FE 06 02 F6 | 	mov	local01, arg01
00900     FF 08 02 F6 | 	mov	local02, arg02
00904     00 0B 02 F6 | 	mov	local03, arg03
00908     01 0D 02 F6 | 	mov	local04, arg04
0090c     02 0F 02 F6 | 	mov	local05, arg05
00910                 | ' 
00910                 | ' repeat iii from 0 to strsize(text)-1
00910     00 10 06 F6 | 	mov	local06, #0
00914     05 FD 01 F6 | 	mov	arg01, local03
00918     00 12 06 F6 | 	mov	local07, #0
0091c     F0 F6 9F FE | 	loc	pa,	#(@LR__0006-@LR__0005)
00920     95 00 A0 FD | 	call	#FCACHE_LOAD_
00924                 | LR__0005
00924     FE 14 CA FA | 	rdbyte	local08, arg01 wz
00928     01 12 06 51 |  if_ne	add	local07, #1
0092c     01 FC 05 51 |  if_ne	add	arg01, #1
00930     F0 FF 9F 5D |  if_ne	jmp	#LR__0005
00934                 | LR__0006
00934     09 B9 01 F6 | 	mov	result1, local07
00938     DC 16 02 F6 | 	mov	local09, result1
0093c     01 16 86 F1 | 	sub	local09, #1
00940     00 16 5E F2 | 	cmps	local09, #0 wcz
00944     01 18 06 16 |  if_a	mov	local10, #1
00948     01 18 66 E6 |  if_be	neg	local10, #1
0094c     0C 17 02 F1 | 	add	local09, local10
00950                 | LR__0007
00950                 | '   putcharxycg(x+8*iii,y,byte[text+iii],f,b)
00950     03 FD 01 F6 | 	mov	arg01, local01
00954     08 1B 02 F6 | 	mov	local11, local06
00958     03 1A 66 F0 | 	shl	local11, #3
0095c     0D FD 01 F1 | 	add	arg01, local11
00960     04 FF 01 F6 | 	mov	arg02, local02
00964     05 1D 02 F6 | 	mov	local12, local03
00968     08 1D 02 F1 | 	add	local12, local06
0096c     0E 01 C2 FA | 	rdbyte	arg03, local12
00970     06 03 02 F6 | 	mov	arg04, local04
00974     07 05 02 F6 | 	mov	arg05, local05
00978     7C FE BF FD | 	call	#_hng025_putcharxycg
0097c     0C 11 02 F1 | 	add	local06, local10
00980     0B 11 0A F2 | 	cmp	local06, local09 wz
00984     C8 FF 9F 5D |  if_ne	jmp	#LR__0007
00988     A4 F0 03 F6 | 	mov	ptra, fp
0098c     B4 00 A0 FD | 	call	#popregs_
00990                 | _hng025_outtextxycg_ret
00990     2D 00 64 FD | 	ret
00994                 | 
00994                 | ' 
00994                 | ' 
00994                 | ' ''---------- putpixel - put a pixel on the screen
00994                 | ' 
00994                 | ' pub putpixel1(x,y,c) |byte b
00994                 | _hng025_putpixel1
00994                 | ' 
00994                 | ' 
00994                 | ' if ((x>=0) & (x<32*cpl) & (y>=0) & (y<lines))
00994     00 BC 05 F6 | 	mov	_var01, #0
00998     00 FC 5D F2 | 	cmps	arg01, #0 wcz
0099c     01 BC 65 36 |  if_ae	neg	_var01, #1
009a0     00 BE 05 F6 | 	mov	_var02, #0
009a4     90 A6 05 F1 | 	add	objptr, #144
009a8     D3 C0 01 FB | 	rdlong	_var03, objptr
009ac     05 C0 65 F0 | 	shl	_var03, #5
009b0     E0 FC 59 F2 | 	cmps	arg01, _var03 wcz
009b4     01 BE 65 C6 |  if_b	neg	_var02, #1
009b8     DF BC 01 F5 | 	and	_var01, _var02
009bc     00 C2 05 F6 | 	mov	_var04, #0
009c0     00 FE 5D F2 | 	cmps	arg02, #0 wcz
009c4     01 C2 65 36 |  if_ae	neg	_var04, #1
009c8     E1 BC 01 F5 | 	and	_var01, _var04
009cc     00 C4 05 F6 | 	mov	_var05, #0
009d0     04 A6 05 F1 | 	add	objptr, #4
009d4     D3 C6 01 FB | 	rdlong	_var06, objptr
009d8     94 A6 85 F1 | 	sub	objptr, #148
009dc     E3 FE 59 F2 | 	cmps	arg02, _var06 wcz
009e0     01 C4 65 C6 |  if_b	neg	_var05, #1
009e4     E2 BC C9 F7 | 	test	_var01, _var05 wz
009e8     90 00 90 AD |  if_e	jmp	#LR__0010
009ec                 | '     b:=byte[buf_ptr+4*cpl*y+(x>>3)]
009ec     D3 BC 01 FB | 	rdlong	_var01, objptr
009f0     90 A6 05 F1 | 	add	objptr, #144
009f4     D3 BE 01 FB | 	rdlong	_var02, objptr
009f8     90 A6 85 F1 | 	sub	objptr, #144
009fc     02 BE 65 F0 | 	shl	_var02, #2
00a00     FF BE 01 FD | 	qmul	_var02, arg02
00a04     18 C8 61 FD | 	getqx	_var07
00a08     E4 BC 01 F1 | 	add	_var01, _var07
00a0c     FE C2 01 F6 | 	mov	_var04, arg01
00a10     03 C2 45 F0 | 	shr	_var04, #3
00a14     E1 BC 01 F1 | 	add	_var01, _var04
00a18     DE CA C1 FA | 	rdbyte	_var08, _var01
00a1c                 | '     if (c==0)
00a1c     00 00 0E F2 | 	cmp	arg03, #0 wz
00a20     18 00 90 5D |  if_ne	jmp	#LR__0008
00a24                 | '       b:=b & !(1<<(x//8))
00a24     FE C0 51 F6 | 	abs	_var03, arg01 wc
00a28     07 C0 05 F5 | 	and	_var03, #7
00a2c     E0 C0 61 C6 |  if_b	neg	_var03, _var03
00a30     E0 BE C1 F9 | 	decod	_var02, _var03
00a34     DF CA 21 F5 | 	andn	_var08, _var02
00a38                 | '     else
00a38     14 00 90 FD | 	jmp	#LR__0009
00a3c                 | LR__0008
00a3c                 | '       b:=b |(1<<(x//8))
00a3c     FE C0 51 F6 | 	abs	_var03, arg01 wc
00a40     07 C0 05 F5 | 	and	_var03, #7
00a44     E0 C0 61 C6 |  if_b	neg	_var03, _var03
00a48     E0 BE C1 F9 | 	decod	_var02, _var03
00a4c     DF CA 41 F5 | 	or	_var08, _var02
00a50                 | LR__0009
00a50                 | '     byte[buf_ptr+4*cpl*y+(x>>3)]:=b
00a50     D3 BC 01 FB | 	rdlong	_var01, objptr
00a54     90 A6 05 F1 | 	add	objptr, #144
00a58     D3 BE 01 FB | 	rdlong	_var02, objptr
00a5c     90 A6 85 F1 | 	sub	objptr, #144
00a60     02 BE 65 F0 | 	shl	_var02, #2
00a64     FF BE 01 FD | 	qmul	_var02, arg02
00a68     18 C8 61 FD | 	getqx	_var07
00a6c     E4 BC 01 F1 | 	add	_var01, _var07
00a70     03 FC 45 F0 | 	shr	arg01, #3
00a74     FE BC 01 F1 | 	add	_var01, arg01
00a78     DE CA 41 FC | 	wrbyte	_var08, _var01
00a7c                 | LR__0010
00a7c                 | _hng025_putpixel1_ret
00a7c     2D 00 64 FD | 	ret
00a80                 | 
00a80                 | ' 
00a80                 | ' 
00a80                 | ' pub putpixel2(x,y,c) |byte b
00a80                 | _hng025_putpixel2
00a80                 | ' 
00a80                 | ' 
00a80                 | ' if ((x>=0) & (x<16*cpl) & (y>=0) & (y<lines))
00a80     00 BC 05 F6 | 	mov	_var01, #0
00a84     00 FC 5D F2 | 	cmps	arg01, #0 wcz
00a88     01 BC 65 36 |  if_ae	neg	_var01, #1
00a8c     00 BE 05 F6 | 	mov	_var02, #0
00a90     90 A6 05 F1 | 	add	objptr, #144
00a94     D3 C0 01 FB | 	rdlong	_var03, objptr
00a98     04 C0 65 F0 | 	shl	_var03, #4
00a9c     E0 FC 59 F2 | 	cmps	arg01, _var03 wcz
00aa0     01 BE 65 C6 |  if_b	neg	_var02, #1
00aa4     DF BC 01 F5 | 	and	_var01, _var02
00aa8     00 C2 05 F6 | 	mov	_var04, #0
00aac     00 FE 5D F2 | 	cmps	arg02, #0 wcz
00ab0     01 C2 65 36 |  if_ae	neg	_var04, #1
00ab4     E1 BC 01 F5 | 	and	_var01, _var04
00ab8     00 C4 05 F6 | 	mov	_var05, #0
00abc     04 A6 05 F1 | 	add	objptr, #4
00ac0     D3 C6 01 FB | 	rdlong	_var06, objptr
00ac4     94 A6 85 F1 | 	sub	objptr, #148
00ac8     E3 FE 59 F2 | 	cmps	arg02, _var06 wcz
00acc     01 C4 65 C6 |  if_b	neg	_var05, #1
00ad0     E2 BC C9 F7 | 	test	_var01, _var05 wz
00ad4     90 00 90 AD |  if_e	jmp	#LR__0011
00ad8                 | '     b:=byte[buf_ptr+4*cpl*y+(x>>2)]
00ad8     D3 BC 01 FB | 	rdlong	_var01, objptr
00adc     90 A6 05 F1 | 	add	objptr, #144
00ae0     D3 BE 01 FB | 	rdlong	_var02, objptr
00ae4     90 A6 85 F1 | 	sub	objptr, #144
00ae8     02 BE 65 F0 | 	shl	_var02, #2
00aec     FF BE 01 FD | 	qmul	_var02, arg02
00af0     18 C8 61 FD | 	getqx	_var07
00af4     E4 BC 01 F1 | 	add	_var01, _var07
00af8     FE C2 01 F6 | 	mov	_var04, arg01
00afc     02 C2 45 F0 | 	shr	_var04, #2
00b00     E1 BC 01 F1 | 	add	_var01, _var04
00b04     DE CA C1 FA | 	rdbyte	_var08, _var01
00b08                 | '     b:=b & !(%11<<((x//4)<<1))
00b08     FE C0 51 F6 | 	abs	_var03, arg01 wc
00b0c     03 C0 05 F5 | 	and	_var03, #3
00b10     E0 C0 61 C6 |  if_b	neg	_var03, _var03
00b14     01 C0 65 F0 | 	shl	_var03, #1
00b18     03 BE 05 F6 | 	mov	_var02, #3
00b1c     E0 BE 61 F0 | 	shl	_var02, _var03
00b20     DF CA 21 F5 | 	andn	_var08, _var02
00b24                 | '     b:=b |(c<<((x//4)<<1))
00b24     FE C0 51 F6 | 	abs	_var03, arg01 wc
00b28     03 C0 05 F5 | 	and	_var03, #3
00b2c     E0 C0 61 C6 |  if_b	neg	_var03, _var03
00b30     01 C0 65 F0 | 	shl	_var03, #1
00b34     E0 00 62 F0 | 	shl	arg03, _var03
00b38     00 CB 41 F5 | 	or	_var08, arg03
00b3c                 | '     byte[buf_ptr+4*cpl*y+(x>>2)]:=b
00b3c     D3 BC 01 FB | 	rdlong	_var01, objptr
00b40     90 A6 05 F1 | 	add	objptr, #144
00b44     D3 BE 01 FB | 	rdlong	_var02, objptr
00b48     90 A6 85 F1 | 	sub	objptr, #144
00b4c     02 BE 65 F0 | 	shl	_var02, #2
00b50     FF BE 01 FD | 	qmul	_var02, arg02
00b54     18 C8 61 FD | 	getqx	_var07
00b58     E4 BC 01 F1 | 	add	_var01, _var07
00b5c     02 FC 45 F0 | 	shr	arg01, #2
00b60     FE BC 01 F1 | 	add	_var01, arg01
00b64     DE CA 41 FC | 	wrbyte	_var08, _var01
00b68                 | LR__0011
00b68                 | _hng025_putpixel2_ret
00b68     2D 00 64 FD | 	ret
00b6c                 | 
00b6c                 | ' 
00b6c                 | ' 
00b6c                 | ' pub putpixel4(x,y,c) |byte b
00b6c                 | _hng025_putpixel4
00b6c                 | ' 
00b6c                 | ' if ((x>=0) & (x<16*cpl) & (y>=0) & (y<lines))
00b6c     00 BC 05 F6 | 	mov	_var01, #0
00b70     00 FC 5D F2 | 	cmps	arg01, #0 wcz
00b74     01 BC 65 36 |  if_ae	neg	_var01, #1
00b78     00 BE 05 F6 | 	mov	_var02, #0
00b7c     90 A6 05 F1 | 	add	objptr, #144
00b80     D3 C0 01 FB | 	rdlong	_var03, objptr
00b84     04 C0 65 F0 | 	shl	_var03, #4
00b88     E0 FC 59 F2 | 	cmps	arg01, _var03 wcz
00b8c     01 BE 65 C6 |  if_b	neg	_var02, #1
00b90     DF BC 01 F5 | 	and	_var01, _var02
00b94     00 C2 05 F6 | 	mov	_var04, #0
00b98     00 FE 5D F2 | 	cmps	arg02, #0 wcz
00b9c     01 C2 65 36 |  if_ae	neg	_var04, #1
00ba0     E1 BC 01 F5 | 	and	_var01, _var04
00ba4     00 C4 05 F6 | 	mov	_var05, #0
00ba8     04 A6 05 F1 | 	add	objptr, #4
00bac     D3 C6 01 FB | 	rdlong	_var06, objptr
00bb0     94 A6 85 F1 | 	sub	objptr, #148
00bb4     E3 FE 59 F2 | 	cmps	arg02, _var06 wcz
00bb8     01 C4 65 C6 |  if_b	neg	_var05, #1
00bbc     E2 BC C9 F7 | 	test	_var01, _var05 wz
00bc0     90 00 90 AD |  if_e	jmp	#LR__0012
00bc4                 | '     b:=byte[buf_ptr+4*cpl*y+(x>>1)]
00bc4     D3 BC 01 FB | 	rdlong	_var01, objptr
00bc8     90 A6 05 F1 | 	add	objptr, #144
00bcc     D3 BE 01 FB | 	rdlong	_var02, objptr
00bd0     90 A6 85 F1 | 	sub	objptr, #144
00bd4     02 BE 65 F0 | 	shl	_var02, #2
00bd8     FF BE 01 FD | 	qmul	_var02, arg02
00bdc     18 C8 61 FD | 	getqx	_var07
00be0     E4 BC 01 F1 | 	add	_var01, _var07
00be4     FE C2 01 F6 | 	mov	_var04, arg01
00be8     01 C2 45 F0 | 	shr	_var04, #1
00bec     E1 BC 01 F1 | 	add	_var01, _var04
00bf0     DE CA C1 FA | 	rdbyte	_var08, _var01
00bf4                 | '     b:=b & !(%1111<<((x//2)<<2))
00bf4     FE C0 51 F6 | 	abs	_var03, arg01 wc
00bf8     01 C0 05 F5 | 	and	_var03, #1
00bfc     E0 C0 61 C6 |  if_b	neg	_var03, _var03
00c00     02 C0 65 F0 | 	shl	_var03, #2
00c04     0F BE 05 F6 | 	mov	_var02, #15
00c08     E0 BE 61 F0 | 	shl	_var02, _var03
00c0c     DF CA 21 F5 | 	andn	_var08, _var02
00c10                 | '     b:=b |(c<<((x//2)<<2))
00c10     FE C0 51 F6 | 	abs	_var03, arg01 wc
00c14     01 C0 05 F5 | 	and	_var03, #1
00c18     E0 C0 61 C6 |  if_b	neg	_var03, _var03
00c1c     02 C0 65 F0 | 	shl	_var03, #2
00c20     E0 00 62 F0 | 	shl	arg03, _var03
00c24     00 CB 41 F5 | 	or	_var08, arg03
00c28                 | '     byte[buf_ptr+4*cpl*y+(x>>1)]:=b
00c28     D3 BC 01 FB | 	rdlong	_var01, objptr
00c2c     90 A6 05 F1 | 	add	objptr, #144
00c30     D3 BE 01 FB | 	rdlong	_var02, objptr
00c34     90 A6 85 F1 | 	sub	objptr, #144
00c38     02 BE 65 F0 | 	shl	_var02, #2
00c3c     FF BE 01 FD | 	qmul	_var02, arg02
00c40     18 C8 61 FD | 	getqx	_var07
00c44     E4 BC 01 F1 | 	add	_var01, _var07
00c48     01 FC 45 F0 | 	shr	arg01, #1
00c4c     FE BC 01 F1 | 	add	_var01, arg01
00c50     DE CA 41 FC | 	wrbyte	_var08, _var01
00c54                 | LR__0012
00c54                 | _hng025_putpixel4_ret
00c54     2D 00 64 FD | 	ret
00c58                 | 
00c58                 | ' 
00c58                 | ' 
00c58                 | ' pub putpixel8(x,y,c)
00c58                 | _hng025_putpixel8
00c58                 | ' 
00c58                 | ' if ((x>=0) & (x<4*cpl) & (y>=0) & (y<lines))
00c58     00 BC 05 F6 | 	mov	_var01, #0
00c5c     00 FC 5D F2 | 	cmps	arg01, #0 wcz
00c60     01 BC 65 36 |  if_ae	neg	_var01, #1
00c64     00 BE 05 F6 | 	mov	_var02, #0
00c68     90 A6 05 F1 | 	add	objptr, #144
00c6c     D3 C0 01 FB | 	rdlong	_var03, objptr
00c70     02 C0 65 F0 | 	shl	_var03, #2
00c74     E0 FC 59 F2 | 	cmps	arg01, _var03 wcz
00c78     01 BE 65 C6 |  if_b	neg	_var02, #1
00c7c     DF BC 01 F5 | 	and	_var01, _var02
00c80     00 C2 05 F6 | 	mov	_var04, #0
00c84     00 FE 5D F2 | 	cmps	arg02, #0 wcz
00c88     01 C2 65 36 |  if_ae	neg	_var04, #1
00c8c     E1 BC 01 F5 | 	and	_var01, _var04
00c90     00 C4 05 F6 | 	mov	_var05, #0
00c94     04 A6 05 F1 | 	add	objptr, #4
00c98     D3 C6 01 FB | 	rdlong	_var06, objptr
00c9c     94 A6 85 F1 | 	sub	objptr, #148
00ca0     E3 FE 59 F2 | 	cmps	arg02, _var06 wcz
00ca4     01 C4 65 C6 |  if_b	neg	_var05, #1
00ca8     E2 BC C9 F7 | 	test	_var01, _var05 wz
00cac     28 00 90 AD |  if_e	jmp	#LR__0013
00cb0                 | '     byte[buf_ptr+4*cpl*y+x]:=c
00cb0     D3 BC 01 FB | 	rdlong	_var01, objptr
00cb4     90 A6 05 F1 | 	add	objptr, #144
00cb8     D3 BE 01 FB | 	rdlong	_var02, objptr
00cbc     90 A6 85 F1 | 	sub	objptr, #144
00cc0     02 BE 65 F0 | 	shl	_var02, #2
00cc4     FF BE 01 FD | 	qmul	_var02, arg02
00cc8     18 C8 61 FD | 	getqx	_var07
00ccc     E4 BC 01 F1 | 	add	_var01, _var07
00cd0     FE BC 01 F1 | 	add	_var01, arg01
00cd4     DE 00 42 FC | 	wrbyte	arg03, _var01
00cd8                 | LR__0013
00cd8                 | _hng025_putpixel8_ret
00cd8     2D 00 64 FD | 	ret
00cdc                 | 
00cdc                 | ' 
00cdc                 | ' '*************************************************************************
00cdc                 | ' '                                                                        *
00cdc                 | ' '  VBlank functions                                                      *
00cdc                 | ' '                                                                        *
00cdc                 | ' '*************************************************************************
00cdc                 | ' 
00cdc                 | ' pub waitvbl(amount) | i
00cdc                 | _hng025_waitvbl
00cdc     04 44 05 F6 | 	mov	COUNT_, #4
00ce0     A5 00 A0 FD | 	call	#pushregs_
00ce4     FE 06 02 F6 | 	mov	local01, arg01
00ce8                 | ' 
00ce8                 | ' ''---------- Wait for start of vblank. Amount=delay in frames
00ce8                 | ' 
00ce8                 | ' repeat i from 1 to amount
00ce8     01 08 06 F6 | 	mov	local02, #1
00cec     01 06 5E F2 | 	cmps	local01, #1 wcz
00cf0     01 0A 06 16 |  if_a	mov	local03, #1
00cf4     01 0A 66 E6 |  if_be	neg	local03, #1
00cf8     05 07 02 F1 | 	add	local01, local03
00cfc                 | LR__0014
00cfc                 | '   repeat until vblank==0
00cfc                 | LR__0015
00cfc     40 A6 05 F1 | 	add	objptr, #64
00d00     D3 0C 0A FB | 	rdlong	local04, objptr wz
00d04     40 A6 85 F1 | 	sub	objptr, #64
00d08     0C 00 90 AD |  if_e	jmp	#LR__0016
00d0c                 | '     waitus(100)
00d0c     64 FC 05 F6 | 	mov	arg01, #100
00d10     80 10 B0 FD | 	call	#__system___waitus
00d14     E4 FF 9F FD | 	jmp	#LR__0015
00d18                 | LR__0016
00d18                 | '   repeat until vblank==1
00d18                 | LR__0017
00d18     40 A6 05 F1 | 	add	objptr, #64
00d1c     D3 0C 02 FB | 	rdlong	local04, objptr
00d20     40 A6 85 F1 | 	sub	objptr, #64
00d24     01 0C 0E F2 | 	cmp	local04, #1 wz
00d28     0C 00 90 AD |  if_e	jmp	#LR__0018
00d2c                 | '     waitus(100)
00d2c     64 FC 05 F6 | 	mov	arg01, #100
00d30     60 10 B0 FD | 	call	#__system___waitus
00d34     E0 FF 9F FD | 	jmp	#LR__0017
00d38                 | LR__0018
00d38     05 09 02 F1 | 	add	local02, local03
00d3c     03 09 0A F2 | 	cmp	local02, local01 wz
00d40     B8 FF 9F 5D |  if_ne	jmp	#LR__0014
00d44     A4 F0 03 F6 | 	mov	ptra, fp
00d48     B4 00 A0 FD | 	call	#popregs_
00d4c                 | _hng025_waitvbl_ret
00d4c     2D 00 64 FD | 	ret
00d50                 | 
00d50                 | ' 
00d50                 | ' ''---------- Set the border color, o is upper border, lines+1 is lower border
00d50                 | ' 
00d50                 | ' pub setbordercolor(r,g,b) | color
00d50                 | _hng025_setbordercolor
00d50                 | ' 
00d50                 | ' color:=r<<24+g<<16+b<<8
00d50     18 FC 65 F0 | 	shl	arg01, #24
00d54     10 FE 65 F0 | 	shl	arg02, #16
00d58     FF FC 01 F1 | 	add	arg01, arg02
00d5c     08 00 66 F0 | 	shl	arg03, #8
00d60     00 FD 01 F1 | 	add	arg01, arg03
00d64                 | ' bordercolor:=color
00d64     2C A6 05 F1 | 	add	objptr, #44
00d68     D3 FC 61 FC | 	wrlong	arg01, objptr
00d6c     2C A6 85 F1 | 	sub	objptr, #44
00d70                 | _hng025_setbordercolor_ret
00d70     2D 00 64 FD | 	ret
00d74                 | 
00d74                 | ' 
00d74                 | ' 
00d74                 | ' '*************************************************************************
00d74                 | ' '                                                                        *
00d74                 | ' '  Text functions                                                        *
00d74                 | ' '                                                                        *
00d74                 | ' '*************************************************************************
00d74                 | ' 
00d74                 | ' ''---------- Clear the screen, set its foreground/background color
00d74                 | ' 
00d74                 | ' pub cls(fc,bc)   :c
00d74                 | _hng025_cls
00d74     06 44 05 F6 | 	mov	COUNT_, #6
00d78     A5 00 A0 FD | 	call	#pushregs_
00d7c     FE 06 02 F6 | 	mov	local01, arg01
00d80     FF 08 02 F6 | 	mov	local02, arg02
00d84                 | ' 
00d84                 | ' if (graphmode<512)
00d84     C4 A6 05 F1 | 	add	objptr, #196
00d88     D3 0A 02 FB | 	rdlong	local03, objptr
00d8c     C4 A6 85 F1 | 	sub	objptr, #196
00d90     01 00 00 FF 
00d94     00 0A 5E F2 | 	cmps	local03, ##512 wcz
00d98     48 00 90 3D |  if_ae	jmp	#LR__0023
00d9c                 | '   c:=fc<<24+bc<<16+$20
00d9c     03 0D 02 F6 | 	mov	local04, local01
00da0     18 0C 66 F0 | 	shl	local04, #24
00da4     04 0F 02 F6 | 	mov	local05, local02
00da8     10 0E 66 F0 | 	shl	local05, #16
00dac     07 0D 02 F1 | 	add	local04, local05
00db0     20 0C 06 F1 | 	add	local04, #32
00db4                 | '   longfill(buf_ptr,c,buflen)
00db4     D3 FC 01 FB | 	rdlong	arg01, objptr
00db8     30 A6 05 F1 | 	add	objptr, #48
00dbc     D3 00 0A FB | 	rdlong	arg03, objptr wz
00dc0     30 A6 85 F1 | 	sub	objptr, #48
00dc4     06 FF 01 F6 | 	mov	arg02, local04
00dc8     C4 00 90 AD |  if_e	jmp	#LR__0029
00dcc     3C F2 9F FE | 	loc	pa,	#(@LR__0021-@LR__0019)
00dd0     95 00 A0 FD | 	call	#FCACHE_LOAD_
00dd4                 | LR__0019
00dd4     00 05 D8 FC | 	rep	@LR__0022, arg03
00dd8                 | LR__0020
00dd8     FE FE 61 FC | 	wrlong	arg02, arg01
00ddc     04 FC 05 F1 | 	add	arg01, #4
00de0                 | LR__0021
00de0                 | LR__0022
00de0                 | ' else
00de0     AC 00 90 FD | 	jmp	#LR__0029
00de4                 | LR__0023
00de4                 | '   if (graphmode & 48) ==48
00de4     C4 A6 05 F1 | 	add	objptr, #196
00de8     D3 0A 02 FB | 	rdlong	local03, objptr
00dec     C4 A6 85 F1 | 	sub	objptr, #196
00df0     30 0A 06 F5 | 	and	local03, #48
00df4     30 0A 0E F2 | 	cmp	local03, #48 wz
00df8                 | '     c:=bc
00df8     04 0D 02 A6 |  if_e	mov	local04, local02
00dfc     74 00 90 AD |  if_e	jmp	#LR__0028
00e00                 | '   elseif (graphmode & 48) ==32
00e00     C4 A6 05 F1 | 	add	objptr, #196
00e04     D3 0A 02 FB | 	rdlong	local03, objptr
00e08     C4 A6 85 F1 | 	sub	objptr, #196
00e0c     30 0A 06 F5 | 	and	local03, #48
00e10     20 0A 0E F2 | 	cmp	local03, #32 wz
00e14     10 00 90 5D |  if_ne	jmp	#LR__0024
00e18                 | '     c:=bc<<4+bc
00e18     04 0D 02 F6 | 	mov	local04, local02
00e1c     04 0C 66 F0 | 	shl	local04, #4
00e20     04 0D 02 F1 | 	add	local04, local02
00e24     4C 00 90 FD | 	jmp	#LR__0027
00e28                 | LR__0024
00e28                 | '   elseif (graphmode & 48) ==16
00e28     C4 A6 05 F1 | 	add	objptr, #196
00e2c     D3 0A 02 FB | 	rdlong	local03, objptr
00e30     C4 A6 85 F1 | 	sub	objptr, #196
00e34     30 0A 06 F5 | 	and	local03, #48
00e38     10 0A 0E F2 | 	cmp	local03, #16 wz
00e3c     28 00 90 5D |  if_ne	jmp	#LR__0025
00e40                 | '     c:=bc<<6+bc<<4+bc<<2+bc
00e40     04 0D 02 F6 | 	mov	local04, local02
00e44     06 0C 66 F0 | 	shl	local04, #6
00e48     04 0F 02 F6 | 	mov	local05, local02
00e4c     04 0E 66 F0 | 	shl	local05, #4
00e50     07 0D 02 F1 | 	add	local04, local05
00e54     04 11 02 F6 | 	mov	local06, local02
00e58     02 10 66 F0 | 	shl	local06, #2
00e5c     08 0D 02 F1 | 	add	local04, local06
00e60     04 0D 02 F1 | 	add	local04, local02
00e64                 | '   else
00e64     0C 00 90 FD | 	jmp	#LR__0026
00e68                 | LR__0025
00e68                 | '     if bc==1
00e68     01 08 0E F2 | 	cmp	local02, #1 wz
00e6c                 | '       c:=255
00e6c     FF 0C 06 A6 |  if_e	mov	local04, #255
00e70                 | '     else
00e70                 | '       c:=0
00e70     00 0C 06 56 |  if_ne	mov	local04, #0
00e74                 | LR__0026
00e74                 | LR__0027
00e74                 | LR__0028
00e74                 | '   bytefill(buf_ptr,c,buflen*4)
00e74     D3 FC 01 FB | 	rdlong	arg01, objptr
00e78     30 A6 05 F1 | 	add	objptr, #48
00e7c     D3 00 02 FB | 	rdlong	arg03, objptr
00e80     30 A6 85 F1 | 	sub	objptr, #48
00e84     02 00 66 F0 | 	shl	arg03, #2
00e88     06 FF 01 F6 | 	mov	arg02, local04
00e8c     38 0C B0 FD | 	call	#__system____builtin_memset
00e90                 | LR__0029
00e90                 | ' setwritecolors(fc,bc)
00e90                 | ' 
00e90                 | ' 
00e90                 | ' write_color:=ff
00e90     38 A6 05 F1 | 	add	objptr, #56
00e94     D3 06 62 FC | 	wrlong	local01, objptr
00e98                 | ' write_background:=bb
00e98     04 A6 05 F1 | 	add	objptr, #4
00e9c     D3 08 62 FC | 	wrlong	local02, objptr
00ea0                 | ' cursor_x:=0
00ea0     08 A6 85 F1 | 	sub	objptr, #8
00ea4     D3 00 48 FC | 	wrbyte	#0, objptr
00ea8                 | ' cursor_y:=0
00ea8     01 A6 05 F1 | 	add	objptr, #1
00eac     D3 00 48 FC | 	wrbyte	#0, objptr
00eb0     35 A6 85 F1 | 	sub	objptr, #53
00eb4     06 B9 01 F6 | 	mov	result1, local04
00eb8     A4 F0 03 F6 | 	mov	ptra, fp
00ebc     B4 00 A0 FD | 	call	#popregs_
00ec0                 | _hng025_cls_ret
00ec0     2D 00 64 FD | 	ret
00ec4                 | 
00ec4                 | ' 
00ec4                 | ' 
00ec4                 | ' 
00ec4                 | ' '*************************************************************************
00ec4                 | ' '                                                                        *
00ec4                 | ' '  Mode setting and driver start                                                          *
00ec4                 | ' '                                                                        *
00ec4                 | ' '*************************************************************************
00ec4                 | ' 
00ec4                 | ' ''---------  Set the graphics mode
00ec4                 | ' 
00ec4                 | ' 
00ec4                 | ' 
00ec4                 | ' pub setmode(mode) | i', 'xzoom, yzoom, azoom
00ec4                 | _hng025_setmode
00ec4     0A 44 05 F6 | 	mov	COUNT_, #10
00ec8     A5 00 A0 FD | 	call	#pushregs_
00ecc     FE 06 02 F6 | 	mov	local01, arg01
00ed0                 | ' 
00ed0                 | ' '' mode:tn_bb_cc_vv_hh
00ed0                 | ' '' hh - h.zoom, vv-v.zoom, cc-c.depth,
00ed0                 | ' '' bb - borders/total pixels, 00-wide/1140, 01 medium/1026, 10 narrow/912, 11 no border, 1024 px PAL, 880 px NTSC
00ed0                 | ' 
00ed0                 | ' if mode==(512+192+48)
00ed0     01 00 00 FF 
00ed4     F0 06 0E F2 | 	cmp	local01, ##752 wz
00ed8                 | '   return 'no RAM
00ed8     A0 05 90 AD |  if_e	jmp	#LR__0051
00edc                 | ' 
00edc                 | ' case_fast (mode>>6) & 7 ' timings are the same for graphic and text
00edc     03 09 02 F6 | 	mov	local02, local01
00ee0     06 08 46 F0 | 	shr	local02, #6
00ee4     07 08 06 F5 | 	and	local02, #7
00ee8     08 08 26 F3 | 	fle	local02, #8
00eec     04 0B 02 F6 | 	mov	local03, local02
00ef0     30 0A 62 FD | 	jmprel	local03
00ef4                 | LR__0030
00ef4     20 00 90 FD | 	jmp	#LR__0031
00ef8     48 00 90 FD | 	jmp	#LR__0032
00efc     70 00 90 FD | 	jmp	#LR__0033
00f00     98 00 90 FD | 	jmp	#LR__0034
00f04     C0 00 90 FD | 	jmp	#LR__0035
00f08     E8 00 90 FD | 	jmp	#LR__0036
00f0c     10 01 90 FD | 	jmp	#LR__0037
00f10     38 01 90 FD | 	jmp	#LR__0038
00f14     70 01 90 FD | 	jmp	#LR__0039
00f18                 | LR__0031
00f18                 | ' 
00f18                 | '     0:  longmove(@timings,@timings000,16)   'PAL 50 Hz signaling 1140x624, active 800x480, 100x30 text, wide border, 2 colors per pixel, 00_00_00_00_00=0, 354_693_878 Hz
00f18     50 A6 05 F1 | 	add	objptr, #80
00f1c     D3 FC 01 F6 | 	mov	arg01, objptr
00f20     50 A6 85 F1 | 	sub	objptr, #80
00f24     0E 00 00 FF 
00f28     58 AC 05 F1 | 	add	ptr__hng025_dat__, ##7256
00f2c     D6 FE 01 F6 | 	mov	arg02, ptr__hng025_dat__
00f30     0E 00 00 FF 
00f34     58 AC 85 F1 | 	sub	ptr__hng025_dat__, ##7256
00f38     10 00 06 F6 | 	mov	arg03, #16
00f3c     78 0C B0 FD | 	call	#__system__longmove
00f40     44 01 90 FD | 	jmp	#LR__0039
00f44                 | LR__0032
00f44                 | '     1:  longmove(@timings,@timings064,16)   'PAL 50 Hz signaling 1026x624, active 880x496, 110x31 text, medium border, 2 colors per pixel 00_01_00_00_00=64, 319_215_686 Hz
00f44     50 A6 05 F1 | 	add	objptr, #80
00f48     D3 FC 01 F6 | 	mov	arg01, objptr
00f4c     50 A6 85 F1 | 	sub	objptr, #80
00f50     0E 00 00 FF 
00f54     98 AC 05 F1 | 	add	ptr__hng025_dat__, ##7320
00f58     D6 FE 01 F6 | 	mov	arg02, ptr__hng025_dat__
00f5c     0E 00 00 FF 
00f60     98 AC 85 F1 | 	sub	ptr__hng025_dat__, ##7320
00f64     10 00 06 F6 | 	mov	arg03, #16
00f68     4C 0C B0 FD | 	call	#__system__longmove
00f6c     18 01 90 FD | 	jmp	#LR__0039
00f70                 | LR__0033
00f70                 | '     2:  longmove(@timings,@timings128,16)   'PAL 50 Hz signaling 912x624, active 800x480, 100x30 text, medium border, 2 colors per pixel 00_10_00_00_00=64, 283750000z
00f70     50 A6 05 F1 | 	add	objptr, #80
00f74     D3 FC 01 F6 | 	mov	arg01, objptr
00f78     50 A6 85 F1 | 	sub	objptr, #80
00f7c     0E 00 00 FF 
00f80     D8 AC 05 F1 | 	add	ptr__hng025_dat__, ##7384
00f84     D6 FE 01 F6 | 	mov	arg02, ptr__hng025_dat__
00f88     0E 00 00 FF 
00f8c     D8 AC 85 F1 | 	sub	ptr__hng025_dat__, ##7384
00f90     10 00 06 F6 | 	mov	arg03, #16
00f94     20 0C B0 FD | 	call	#__system__longmove
00f98     EC 00 90 FD | 	jmp	#LR__0039
00f9c                 | LR__0034
00f9c                 | '     3:  longmove(@timings,@timings192,16)   'PAL 50 Hz signaling 1140x624, active 1024x576, 128x36 text, borderless, 2 colors per pixel 00_11_00_00_00=6192, 354_693_878 Hz
00f9c     50 A6 05 F1 | 	add	objptr, #80
00fa0     D3 FC 01 F6 | 	mov	arg01, objptr
00fa4     50 A6 85 F1 | 	sub	objptr, #80
00fa8     0E 00 00 FF 
00fac     18 AD 05 F1 | 	add	ptr__hng025_dat__, ##7448
00fb0     D6 FE 01 F6 | 	mov	arg02, ptr__hng025_dat__
00fb4     0E 00 00 FF 
00fb8     18 AD 85 F1 | 	sub	ptr__hng025_dat__, ##7448
00fbc     10 00 06 F6 | 	mov	arg03, #16
00fc0     F4 0B B0 FD | 	call	#__system__longmove
00fc4     C0 00 90 FD | 	jmp	#LR__0039
00fc8                 | LR__0035
00fc8                 | '     4:  longmove(@timings,@timings256,16)   'NTSC 50 Hz signaling 1140x524, active 800x480, 100x30 text, NO PLACE FOR wide border, 2 colors per pixel, 01_00_00_00_00=256, 357959184 Hz
00fc8     50 A6 05 F1 | 	add	objptr, #80
00fcc     D3 FC 01 F6 | 	mov	arg01, objptr
00fd0     50 A6 85 F1 | 	sub	objptr, #80
00fd4     0E 00 00 FF 
00fd8     58 AD 05 F1 | 	add	ptr__hng025_dat__, ##7512
00fdc     D6 FE 01 F6 | 	mov	arg02, ptr__hng025_dat__
00fe0     0E 00 00 FF 
00fe4     58 AD 85 F1 | 	sub	ptr__hng025_dat__, ##7512
00fe8     10 00 06 F6 | 	mov	arg03, #16
00fec     C8 0B B0 FD | 	call	#__system__longmove
00ff0     94 00 90 FD | 	jmp	#LR__0039
00ff4                 | LR__0036
00ff4                 | '     5:  longmove(@timings,@timings320,16)   'NTSC 50 Hz signaling 1026x524, active 800x480, 100x30 text, NO PLACE FOR wide border, 2 colors per pixel, 01_01_00_00_00=320, 322162162 Hz
00ff4     50 A6 05 F1 | 	add	objptr, #80
00ff8     D3 FC 01 F6 | 	mov	arg01, objptr
00ffc     50 A6 85 F1 | 	sub	objptr, #80
01000     0E 00 00 FF 
01004     98 AD 05 F1 | 	add	ptr__hng025_dat__, ##7576
01008     D6 FE 01 F6 | 	mov	arg02, ptr__hng025_dat__
0100c     0E 00 00 FF 
01010     98 AD 85 F1 | 	sub	ptr__hng025_dat__, ##7576
01014     10 00 06 F6 | 	mov	arg03, #16
01018     9C 0B B0 FD | 	call	#__system__longmove
0101c     68 00 90 FD | 	jmp	#LR__0039
01020                 | LR__0037
01020                 | '     6:  longmove(@timings,@timings384,16)   'NTSC 50 Hz signaling 912x524, active 800x480, 100x30 text, NO PLACE FOR wide border, 2 colors per pixel, 01_10_00_00_00=384, 286363636 Hz
01020     50 A6 05 F1 | 	add	objptr, #80
01024     D3 FC 01 F6 | 	mov	arg01, objptr
01028     50 A6 85 F1 | 	sub	objptr, #80
0102c     0E 00 00 FF 
01030     D8 AD 05 F1 | 	add	ptr__hng025_dat__, ##7640
01034     D6 FE 01 F6 | 	mov	arg02, ptr__hng025_dat__
01038     0E 00 00 FF 
0103c     D8 AD 85 F1 | 	sub	ptr__hng025_dat__, ##7640
01040     10 00 06 F6 | 	mov	arg03, #16
01044     70 0B B0 FD | 	call	#__system__longmove
01048     3C 00 90 FD | 	jmp	#LR__0039
0104c                 | LR__0038
0104c                 | '     7:  longmove(@timings,@timings448,16)   'NTSC 50 Hz signaling 1026x524, active 880x496, 110x31 text, borderless, 2 colors per pixel, 01_11_00_00_00=496, 322162162 Hz
0104c     50 A6 05 F1 | 	add	objptr, #80
01050     D3 0C 02 F6 | 	mov	local04, objptr
01054     06 0F 02 F6 | 	mov	local05, local04
01058     0F 00 00 FF 
0105c     18 AC 05 F1 | 	add	ptr__hng025_dat__, ##7704
01060     D6 10 02 F6 | 	mov	local06, ptr__hng025_dat__
01064     08 13 02 F6 | 	mov	local07, local06
01068     10 14 06 F6 | 	mov	local08, #16
0106c     07 FD 01 F6 | 	mov	arg01, local05
01070     09 FF 01 F6 | 	mov	arg02, local07
01074     10 00 06 F6 | 	mov	arg03, #16
01078     50 A6 85 F1 | 	sub	objptr, #80
0107c     0F 00 00 FF 
01080     18 AC 85 F1 | 	sub	ptr__hng025_dat__, ##7704
01084     30 0B B0 FD | 	call	#__system__longmove
01088                 | LR__0039
01088                 | ' 
01088                 | ' ' 4-bit graphics: do nothing with timings :)
01088                 | ' 
01088                 | ' if (mode & (%10_00_11_0000))==(%10_00_11_0000) ' 8bit graphics, 4 pixels per long instead of 8, cpp x2
01088     03 09 02 F6 | 	mov	local02, local01
0108c     01 00 00 FF 
01090     30 08 06 F5 | 	and	local02, ##560
01094     01 00 00 FF 
01098     30 08 0E F2 | 	cmp	local02, ##560 wz
0109c     44 00 90 5D |  if_ne	jmp	#LR__0040
010a0                 | '   timings[5]:=4
010a0     64 A6 05 F1 | 	add	objptr, #100
010a4     D3 08 68 FC | 	wrlong	#4, objptr
010a8                 | '   timings[11]:=timings[11]<<1
010a8     18 A6 05 F1 | 	add	objptr, #24
010ac     D3 08 02 FB | 	rdlong	local02, objptr
010b0     01 08 66 F0 | 	shl	local02, #1
010b4     D3 08 62 FC | 	wrlong	local02, objptr
010b8                 | '   putpixel:=p8
010b8     6C A6 05 F1 | 	add	objptr, #108
010bc     D3 08 02 FB | 	rdlong	local02, objptr
010c0     10 A6 85 F1 | 	sub	objptr, #16
010c4     D3 08 62 FC | 	wrlong	local02, objptr
010c8                 | '   palette_ptr:=@ataripalette
010c8     0C 00 00 FF 
010cc     58 AC 05 F1 | 	add	ptr__hng025_dat__, ##6232
010d0     C0 A6 85 F1 | 	sub	objptr, #192
010d4     D3 AC 61 FC | 	wrlong	ptr__hng025_dat__, objptr
010d8     18 A6 85 F1 | 	sub	objptr, #24
010dc     0C 00 00 FF 
010e0     58 AC 85 F1 | 	sub	ptr__hng025_dat__, ##6232
010e4                 | LR__0040
010e4                 | ' 
010e4                 | ' if (mode & (%10_00_11_0000))==(%10_00_01_0000) ' 2bit graphics, 16 pixels per long instead of 8, cpp /2
010e4     03 09 02 F6 | 	mov	local02, local01
010e8     01 00 00 FF 
010ec     30 08 06 F5 | 	and	local02, ##560
010f0     01 00 00 FF 
010f4     10 08 0E F2 | 	cmp	local02, ##528 wz
010f8     44 00 90 5D |  if_ne	jmp	#LR__0041
010fc                 | '   timings[5]:=16
010fc     64 A6 05 F1 | 	add	objptr, #100
01100     D3 20 68 FC | 	wrlong	#16, objptr
01104                 | '   timings[11]:=timings[11]>>1
01104     18 A6 05 F1 | 	add	objptr, #24
01108     D3 08 02 FB | 	rdlong	local02, objptr
0110c     01 08 46 F0 | 	shr	local02, #1
01110     D3 08 62 FC | 	wrlong	local02, objptr
01114                 | '   putpixel:=p2
01114     64 A6 05 F1 | 	add	objptr, #100
01118     D3 08 02 FB | 	rdlong	local02, objptr
0111c     08 A6 85 F1 | 	sub	objptr, #8
01120     D3 08 62 FC | 	wrlong	local02, objptr
01124                 | '   palette_ptr:=@fourcolors
01124     0C 00 00 FF 
01128     08 AC 05 F1 | 	add	ptr__hng025_dat__, ##6152
0112c     C0 A6 85 F1 | 	sub	objptr, #192
01130     D3 AC 61 FC | 	wrlong	ptr__hng025_dat__, objptr
01134     18 A6 85 F1 | 	sub	objptr, #24
01138     0C 00 00 FF 
0113c     08 AC 85 F1 | 	sub	ptr__hng025_dat__, ##6152
01140                 | LR__0041
01140                 | ' 
01140                 | ' if (mode & (%10_00_11_0000))==(%10_00_00_0000) ' 1bit graphics, 32 pixels per long instead of 8, cpp /4
01140     03 09 02 F6 | 	mov	local02, local01
01144     01 00 00 FF 
01148     30 08 06 F5 | 	and	local02, ##560
0114c     01 00 00 FF 
01150     00 08 0E F2 | 	cmp	local02, ##512 wz
01154     44 00 90 5D |  if_ne	jmp	#LR__0042
01158                 | '   timings[5]:=32
01158     64 A6 05 F1 | 	add	objptr, #100
0115c     D3 40 68 FC | 	wrlong	#32, objptr
01160                 | '   timings[11]:=timings[11]>>2
01160     18 A6 05 F1 | 	add	objptr, #24
01164     D3 08 02 FB | 	rdlong	local02, objptr
01168     02 08 46 F0 | 	shr	local02, #2
0116c     D3 08 62 FC | 	wrlong	local02, objptr
01170                 | '   putpixel:=p1
01170     60 A6 05 F1 | 	add	objptr, #96
01174     D3 08 02 FB | 	rdlong	local02, objptr
01178     04 A6 85 F1 | 	sub	objptr, #4
0117c     D3 08 62 FC | 	wrlong	local02, objptr
01180                 | '   palette_ptr:=@twocolors
01180     0C 00 00 FF 
01184     00 AC 05 F1 | 	add	ptr__hng025_dat__, ##6144
01188     C0 A6 85 F1 | 	sub	objptr, #192
0118c     D3 AC 61 FC | 	wrlong	ptr__hng025_dat__, objptr
01190     18 A6 85 F1 | 	sub	objptr, #24
01194     0C 00 00 FF 
01198     00 AC 85 F1 | 	sub	ptr__hng025_dat__, ##6144
0119c                 | LR__0042
0119c                 | ' 
0119c                 | ' if (mode & (%10_00_11_0000))==(%10_00_10_0000) ' 4bit graphics,
0119c     03 09 02 F6 | 	mov	local02, local01
011a0     01 00 00 FF 
011a4     30 08 06 F5 | 	and	local02, ##560
011a8     01 00 00 FF 
011ac     20 08 0E F2 | 	cmp	local02, ##544 wz
011b0     2C 00 90 5D |  if_ne	jmp	#LR__0043
011b4                 | '   putpixel:=p4
011b4     E4 A6 05 F1 | 	add	objptr, #228
011b8     D3 08 02 FB | 	rdlong	local02, objptr
011bc     0C A6 85 F1 | 	sub	objptr, #12
011c0     D3 08 62 FC | 	wrlong	local02, objptr
011c4                 | '   palette_ptr:=@vga16
011c4     0C 00 00 FF 
011c8     18 AC 05 F1 | 	add	ptr__hng025_dat__, ##6168
011cc     C0 A6 85 F1 | 	sub	objptr, #192
011d0     D3 AC 61 FC | 	wrlong	ptr__hng025_dat__, objptr
011d4     18 A6 85 F1 | 	sub	objptr, #24
011d8     0C 00 00 FF 
011dc     18 AC 85 F1 | 	sub	ptr__hng025_dat__, ##6168
011e0                 | LR__0043
011e0                 | ' 
011e0                 | ' repeat i from 0 to 4
011e0     00 16 06 F6 | 	mov	local09, #0
011e4     74 EE 9F FE | 	loc	pa,	#(@LR__0045-@LR__0044)
011e8     95 00 A0 FD | 	call	#FCACHE_LOAD_
011ec                 | LR__0044
011ec                 | '   timings[i]:=timings[i]+hdmibase<<17+ timingsxxt
011ec     0B 0D 02 F6 | 	mov	local04, local09
011f0     02 0C 66 F0 | 	shl	local04, #2
011f4     50 A6 05 F1 | 	add	objptr, #80
011f8     D3 0E 02 F6 | 	mov	local05, objptr
011fc     D3 0C 02 F1 | 	add	local04, objptr
01200     2C A6 85 F1 | 	sub	objptr, #44
01204     D3 12 02 FB | 	rdlong	local07, objptr
01208     09 11 02 F6 | 	mov	local06, local07
0120c     11 10 66 F0 | 	shl	local06, #17
01210     06 09 02 FB | 	rdlong	local02, local04
01214     08 09 02 F1 | 	add	local02, local06
01218     80 40 38 FF 
0121c     00 08 06 F1 | 	add	local02, ##1887502336
01220     0B 15 02 F6 | 	mov	local08, local09
01224     02 14 66 F0 | 	shl	local08, #2
01228     2C A6 05 F1 | 	add	objptr, #44
0122c     D3 18 02 F6 | 	mov	local10, objptr
01230     D3 14 02 F1 | 	add	local08, objptr
01234     0A 09 62 FC | 	wrlong	local02, local08
01238     01 16 06 F1 | 	add	local09, #1
0123c     05 16 5E F2 | 	cmps	local09, #5 wcz
01240     50 A6 85 F1 | 	sub	objptr, #80
01244     A4 FF 9F CD |  if_b	jmp	#LR__0044
01248                 | LR__0045
01248                 | ' timings[5]:=timings[5]+hdmibase<<17
01248     24 A6 05 F1 | 	add	objptr, #36
0124c     D3 0C 02 FB | 	rdlong	local04, objptr
01250     11 0C 66 F0 | 	shl	local04, #17
01254     40 A6 05 F1 | 	add	objptr, #64
01258     D3 10 02 FB | 	rdlong	local06, objptr
0125c     08 09 02 F6 | 	mov	local02, local06
01260     06 09 02 F1 | 	add	local02, local04
01264     D3 08 62 FC | 	wrlong	local02, objptr
01268                 | ' clkfreq:=timings[13]
01268     20 A6 05 F1 | 	add	objptr, #32
0126c     D3 08 02 FB | 	rdlong	local02, objptr
01270     14 08 66 FC | 	wrlong	local02, #20
01274                 | ' hubset(timings[14])
01274     04 A6 05 F1 | 	add	objptr, #4
01278     D3 FC 01 FB | 	rdlong	arg01, objptr
0127c     88 A6 85 F1 | 	sub	objptr, #136
01280     00 FC 61 FD | 	hubset	arg01
01284                 | ' waitms(1)
01284     01 FC 05 F6 | 	mov	arg01, #1
01288     A8 0A B0 FD | 	call	#__system___waitms
0128c                 | ' 
0128c                 | ' 
0128c                 | ' xzoom:=1<<(mode & 3)
0128c     03 0D 02 F6 | 	mov	local04, local01
01290     03 0C 06 F5 | 	and	local04, #3
01294     06 09 C2 F9 | 	decod	local02, local04
01298     CC A6 05 F1 | 	add	objptr, #204
0129c     D3 08 62 FC | 	wrlong	local02, objptr
012a0                 | ' 
012a0                 | ' if (xzoom==8) && (((mode>>4)&3)<>3)
012a0     04 0D 02 F6 | 	mov	local04, local02
012a4     CC A6 85 F1 | 	sub	objptr, #204
012a8     08 0C 0E F2 | 	cmp	local04, #8 wz
012ac     24 00 90 5D |  if_ne	jmp	#LR__0046
012b0     03 0F 02 F6 | 	mov	local05, local01
012b4     04 0E 46 F0 | 	shr	local05, #4
012b8     03 0E 06 F5 | 	and	local05, #3
012bc     03 0E 0E F2 | 	cmp	local05, #3 wz
012c0     10 00 90 AD |  if_e	jmp	#LR__0046
012c4                 | '   xzoom:=4
012c4     04 08 06 F6 | 	mov	local02, #4
012c8     CC A6 05 F1 | 	add	objptr, #204
012cc     D3 08 68 FC | 	wrlong	#4, objptr
012d0     CC A6 85 F1 | 	sub	objptr, #204
012d4                 | LR__0046
012d4                 | ' 
012d4                 | ' yzoom:=1<<((mode>>2) & 3)
012d4     03 0D 02 F6 | 	mov	local04, local01
012d8     02 0C 46 F0 | 	shr	local04, #2
012dc     03 0C 06 F5 | 	and	local04, #3
012e0     06 09 C2 F9 | 	decod	local02, local04
012e4     D0 A6 05 F1 | 	add	objptr, #208
012e8     D3 08 62 FC | 	wrlong	local02, objptr
012ec                 | ' azoom:=xzoom*yzoom
012ec     04 A6 85 F1 | 	sub	objptr, #4
012f0     D3 0C 02 FB | 	rdlong	local04, objptr
012f4     04 A6 05 F1 | 	add	objptr, #4
012f8     D3 10 02 FB | 	rdlong	local06, objptr
012fc     08 0D 02 FD | 	qmul	local04, local06
01300     18 08 62 FD | 	getqx	local02
01304     04 A6 05 F1 | 	add	objptr, #4
01308     D3 08 62 FC | 	wrlong	local02, objptr
0130c                 | ' 
0130c                 | ' cpl:=timings[11]
0130c     58 A6 85 F1 | 	sub	objptr, #88
01310     D3 08 02 FB | 	rdlong	local02, objptr
01314     14 A6 05 F1 | 	add	objptr, #20
01318     D3 08 62 FC | 	wrlong	local02, objptr
0131c     90 A6 85 F1 | 	sub	objptr, #144
01320                 | ' if (mode<512)
01320     01 00 00 FF 
01324     00 06 5E F2 | 	cmps	local01, ##512 wcz
01328     60 00 90 3D |  if_ae	jmp	#LR__0047
0132c                 | '   lines:=(timings[12]>>4)+/yzoom
0132c     80 A6 05 F1 | 	add	objptr, #128
01330     D3 22 02 FB | 	rdlong	muldiva_, objptr
01334     04 22 46 F0 | 	shr	muldiva_, #4
01338     50 A6 05 F1 | 	add	objptr, #80
0133c     D3 24 02 FB | 	rdlong	muldivb_, objptr
01340     D0 A6 85 F1 | 	sub	objptr, #208
01344     C1 00 A0 FD | 	call	#unsdivide_
01348     94 A6 05 F1 | 	add	objptr, #148
0134c     D3 24 62 FC | 	wrlong	muldivb_, objptr
01350                 | '   if ((timings[12]>>4)+//yzoom) <>0
01350     14 A6 85 F1 | 	sub	objptr, #20
01354     D3 22 02 FB | 	rdlong	muldiva_, objptr
01358     04 22 46 F0 | 	shr	muldiva_, #4
0135c     50 A6 05 F1 | 	add	objptr, #80
01360     D3 24 02 FB | 	rdlong	muldivb_, objptr
01364     D0 A6 85 F1 | 	sub	objptr, #208
01368     C1 00 A0 FD | 	call	#unsdivide_
0136c     00 22 0E F2 | 	cmp	muldiva_, #0 wz
01370     AC 00 90 AD |  if_e	jmp	#LR__0050
01374                 | '     lines +=1
01374     94 A6 05 F1 | 	add	objptr, #148
01378     D3 08 02 FB | 	rdlong	local02, objptr
0137c     01 08 06 F1 | 	add	local02, #1
01380     D3 08 62 FC | 	wrlong	local02, objptr
01384     94 A6 85 F1 | 	sub	objptr, #148
01388                 | ' 
01388                 | ' else
01388     94 00 90 FD | 	jmp	#LR__0050
0138c                 | LR__0047
0138c                 | '   lines:=timings[12]/yzoom
0138c     80 A6 05 F1 | 	add	objptr, #128
01390     D3 22 02 FB | 	rdlong	muldiva_, objptr
01394     50 A6 05 F1 | 	add	objptr, #80
01398     D3 24 02 FB | 	rdlong	muldivb_, objptr
0139c     D0 A6 85 F1 | 	sub	objptr, #208
013a0     C5 00 A0 FD | 	call	#divide_
013a4     94 A6 05 F1 | 	add	objptr, #148
013a8     D3 24 62 FC | 	wrlong	muldivb_, objptr
013ac                 | '   if cpl//xzoom==0
013ac     04 A6 85 F1 | 	sub	objptr, #4
013b0     D3 22 02 FB | 	rdlong	muldiva_, objptr
013b4     3C A6 05 F1 | 	add	objptr, #60
013b8     D3 24 02 FB | 	rdlong	muldivb_, objptr
013bc     CC A6 85 F1 | 	sub	objptr, #204
013c0     C5 00 A0 FD | 	call	#divide_
013c4     00 22 0E F2 | 	cmp	muldiva_, #0 wz
013c8     28 00 90 5D |  if_ne	jmp	#LR__0048
013cc                 | '     cpl:=cpl/xzoom
013cc     90 A6 05 F1 | 	add	objptr, #144
013d0     D3 22 02 FB | 	rdlong	muldiva_, objptr
013d4     3C A6 05 F1 | 	add	objptr, #60
013d8     D3 24 02 FB | 	rdlong	muldivb_, objptr
013dc     CC A6 85 F1 | 	sub	objptr, #204
013e0     C5 00 A0 FD | 	call	#divide_
013e4     90 A6 05 F1 | 	add	objptr, #144
013e8     D3 24 62 FC | 	wrlong	muldivb_, objptr
013ec     90 A6 85 F1 | 	sub	objptr, #144
013f0                 | '   else
013f0     2C 00 90 FD | 	jmp	#LR__0049
013f4                 | LR__0048
013f4                 | '     cpl:=cpl/xzoom+1
013f4     90 A6 05 F1 | 	add	objptr, #144
013f8     D3 22 02 FB | 	rdlong	muldiva_, objptr
013fc     3C A6 05 F1 | 	add	objptr, #60
01400     D3 24 02 FB | 	rdlong	muldivb_, objptr
01404     CC A6 85 F1 | 	sub	objptr, #204
01408     C5 00 A0 FD | 	call	#divide_
0140c     12 09 02 F6 | 	mov	local02, muldivb_
01410     01 08 06 F1 | 	add	local02, #1
01414     90 A6 05 F1 | 	add	objptr, #144
01418     D3 08 62 FC | 	wrlong	local02, objptr
0141c     90 A6 85 F1 | 	sub	objptr, #144
01420                 | LR__0049
01420                 | LR__0050
01420                 | ' 
01420                 | ' buflen:=(cpl*lines)
01420     90 A6 05 F1 | 	add	objptr, #144
01424     D3 0C 02 FB | 	rdlong	local04, objptr
01428     04 A6 05 F1 | 	add	objptr, #4
0142c     D3 10 02 FB | 	rdlong	local06, objptr
01430     08 0D 02 FD | 	qmul	local04, local06
01434     18 08 62 FD | 	getqx	local02
01438     64 A6 85 F1 | 	sub	objptr, #100
0143c     D3 08 62 FC | 	wrlong	local02, objptr
01440                 | ' 
01440                 | ' buf_ptr:=$80000-4*buflen
01440     04 0D 02 F6 | 	mov	local04, local02
01444     30 A6 85 F1 | 	sub	objptr, #48
01448     02 0C 66 F0 | 	shl	local04, #2
0144c     13 08 C6 F9 | 	decod	local02, #19
01450     06 09 82 F1 | 	sub	local02, local04
01454     D3 08 62 FC | 	wrlong	local02, objptr
01458                 | ' mode_ptr:=@timings
01458     50 A6 05 F1 | 	add	objptr, #80
0145c     D3 08 02 F6 | 	mov	local02, objptr
01460     3C A6 85 F1 | 	sub	objptr, #60
01464     D3 08 62 FC | 	wrlong	local02, objptr
01468                 | ' graphmode:=mode
01468     B0 A6 05 F1 | 	add	objptr, #176
0146c     D3 06 62 FC | 	wrlong	local01, objptr
01470     C4 A6 85 F1 | 	sub	objptr, #196
01474                 | ' makedl(mode)
01474     03 FD 01 F6 | 	mov	arg01, local01
01478     0C 00 B0 FD | 	call	#_hng025_makedl
0147c                 | LR__0051
0147c     A4 F0 03 F6 | 	mov	ptra, fp
01480     B4 00 A0 FD | 	call	#popregs_
01484                 | _hng025_setmode_ret
01484     2D 00 64 FD | 	ret
01488                 | 
01488                 | ' 
01488                 | ' 
01488                 | ' 
01488                 | ' 
01488                 | ' '---------- Make a display list
01488                 | ' 
01488                 | ' pub makedl (mode) |i, fontline2,charline,bufstart,zoom1,vzoom,lpc,hzoom
01488                 | _hng025_makedl
01488                 | ' 
01488                 | ' ''--%aaaa_aaaa_aaaa_aaaa_aazz_nnnn_llll_ll_01 - txt
01488                 | '   '' aaaa_aaaa_aaaa_aaaa_aazz_rrrr_rrrr_cc_10 - graph
01488                 | '   '' aaaa_aaaa_aaaa-aaaa_aarr_rrrr_rrrr_rr_11 - extended, next long to read
01488                 | ' 
01488                 | ' '   0 - display a up/down border line
01488                 | ' 
01488                 | ' '  ' aaaa_aaaa_aaaa_aaaa_aazz_nnnn_llll_ll_01 - text line
01488                 | ' '    aaaa_aaaa_aaaa_aaaa_aa00 - buffer start, has to be aligned, 1 long for char, ff_bb_rr_cc, foreground, background,reserved, charcode
01488                 | ' '    zz - zoom, 00-x1, 01-x2, 10-x4, 11-blank line
01488                 | ' '    nnnn - font line to display, 0..15
01488                 | ' '    llllll - character line, determines the cursor Y position
01488                 | ' 
01488                 | ' 
01488                 | ' if (mode &256==0)
01488     00 FD CD F7 | 	test	arg01, #256 wz
0148c     1C 00 90 5D |  if_ne	jmp	#LR__0052
01490                 | '   dl_ptr:=buf_ptr-4*576
01490     D3 BC 01 FB | 	rdlong	_var01, objptr
01494     04 00 00 FF 
01498     00 BD 85 F1 | 	sub	_var01, ##2304
0149c     1C A6 05 F1 | 	add	objptr, #28
014a0     D3 BC 61 FC | 	wrlong	_var01, objptr
014a4     1C A6 85 F1 | 	sub	objptr, #28
014a8                 | ' else
014a8     18 00 90 FD | 	jmp	#LR__0053
014ac                 | LR__0052
014ac                 | '   dl_ptr:=buf_ptr-4*496
014ac     D3 BC 01 FB | 	rdlong	_var01, objptr
014b0     03 00 00 FF 
014b4     C0 BD 85 F1 | 	sub	_var01, ##1984
014b8     1C A6 05 F1 | 	add	objptr, #28
014bc     D3 BC 61 FC | 	wrlong	_var01, objptr
014c0     1C A6 85 F1 | 	sub	objptr, #28
014c4                 | LR__0053
014c4                 | ' 
014c4                 | ' vzoom:=((mode>>2) & 3)
014c4     FE BE 01 F6 | 	mov	_var02, arg01
014c8     02 BE 45 F0 | 	shr	_var02, #2
014cc     03 BE 05 F5 | 	and	_var02, #3
014d0                 | ' 
014d0                 | ' 
014d0                 | ' if mode<512 '' text modes
014d0     01 00 00 FF 
014d4     00 FC 5D F2 | 	cmps	arg01, ##512 wcz
014d8     E8 01 90 3D |  if_ae	jmp	#LR__0061
014dc                 | ' 
014dc                 | '   if timings[6]>0 'borders
014dc     68 A6 05 F1 | 	add	objptr, #104
014e0     D3 BC 01 FB | 	rdlong	_var01, objptr
014e4     68 A6 85 F1 | 	sub	objptr, #104
014e8     00 BC 5D F2 | 	cmps	_var01, #0 wcz
014ec     D4 00 90 ED |  if_be	jmp	#LR__0058
014f0                 | '     repeat i from 0 to timings[6]-1 '0 to -1
014f0     00 C0 05 F6 | 	mov	_var03, #0
014f4     68 A6 05 F1 | 	add	objptr, #104
014f8     D3 C2 01 FB | 	rdlong	_var04, objptr
014fc     68 A6 85 F1 | 	sub	objptr, #104
01500     01 C2 85 F1 | 	sub	_var04, #1
01504     00 C2 5D F2 | 	cmps	_var04, #0 wcz
01508     01 C4 05 16 |  if_a	mov	_var05, #1
0150c     01 C4 65 E6 |  if_be	neg	_var05, #1
01510     E2 C6 01 F6 | 	mov	_var06, _var05
01514     E2 C2 01 F1 | 	add	_var04, _var05
01518     0C EB 9F FE | 	loc	pa,	#(@LR__0055-@LR__0054)
0151c     95 00 A0 FD | 	call	#FCACHE_LOAD_
01520                 | LR__0054
01520                 | '       long[dl_ptr+4*i]:=$0
01520     1C A6 05 F1 | 	add	objptr, #28
01524     D3 C8 01 FB | 	rdlong	_var07, objptr
01528     1C A6 85 F1 | 	sub	objptr, #28
0152c     E0 CA 01 F6 | 	mov	_var08, _var03
01530     02 CA 65 F0 | 	shl	_var08, #2
01534     E5 C8 01 F1 | 	add	_var07, _var08
01538     E4 00 68 FC | 	wrlong	#0, _var07
0153c     E3 C0 01 F1 | 	add	_var03, _var06
01540     E1 C0 09 F2 | 	cmp	_var03, _var04 wz
01544     D8 FF 9F 5D |  if_ne	jmp	#LR__0054
01548                 | LR__0055
01548                 | '     repeat i from timings[6]+timings[12] to timings[15]-1
01548     68 A6 05 F1 | 	add	objptr, #104
0154c     D3 C0 01 FB | 	rdlong	_var03, objptr
01550     18 A6 05 F1 | 	add	objptr, #24
01554     D3 C4 01 FB | 	rdlong	_var05, objptr
01558     E2 C0 01 F1 | 	add	_var03, _var05
0155c     0C A6 05 F1 | 	add	objptr, #12
01560     D3 CC 01 FB | 	rdlong	_var09, objptr
01564     01 CC 85 F1 | 	sub	_var09, #1
01568     24 A6 85 F1 | 	sub	objptr, #36
0156c     D3 CE 01 FB | 	rdlong	_var10, objptr
01570     18 A6 05 F1 | 	add	objptr, #24
01574     D3 D0 01 FB | 	rdlong	_var11, objptr
01578     80 A6 85 F1 | 	sub	objptr, #128
0157c     E8 CE 01 F1 | 	add	_var10, _var11
01580     E7 CC 59 F2 | 	cmps	_var09, _var10 wcz
01584     01 CA 05 16 |  if_a	mov	_var08, #1
01588     01 CA 65 E6 |  if_be	neg	_var08, #1
0158c     E5 D2 01 F6 | 	mov	_var12, _var08
01590     E5 CC 01 F1 | 	add	_var09, _var08
01594     90 EA 9F FE | 	loc	pa,	#(@LR__0057-@LR__0056)
01598     95 00 A0 FD | 	call	#FCACHE_LOAD_
0159c                 | LR__0056
0159c                 | '       long[dl_ptr+4*i]:=$0
0159c     1C A6 05 F1 | 	add	objptr, #28
015a0     D3 D4 01 FB | 	rdlong	_var13, objptr
015a4     1C A6 85 F1 | 	sub	objptr, #28
015a8     E0 D6 01 F6 | 	mov	_var14, _var03
015ac     02 D6 65 F0 | 	shl	_var14, #2
015b0     EB D4 01 F1 | 	add	_var13, _var14
015b4     EA 00 68 FC | 	wrlong	#0, _var13
015b8     E9 C0 01 F1 | 	add	_var03, _var12
015bc     E6 C0 09 F2 | 	cmp	_var03, _var09 wz
015c0     D8 FF 9F 5D |  if_ne	jmp	#LR__0056
015c4                 | LR__0057
015c4                 | LR__0058
015c4                 | '   lpc:=16<<vzoom
015c4     10 D8 05 F6 | 	mov	_var15, #16
015c8     DF D8 61 F0 | 	shl	_var15, _var02
015cc                 | '   repeat i from timings[6] to timings[6]+timings[12]-1
015cc     68 A6 05 F1 | 	add	objptr, #104
015d0     D3 C0 01 FB | 	rdlong	_var03, objptr
015d4     E0 DA 01 F6 | 	mov	_var16, _var03
015d8     18 A6 05 F1 | 	add	objptr, #24
015dc     D3 DC 01 FB | 	rdlong	_var17, objptr
015e0     EE DA 01 F1 | 	add	_var16, _var17
015e4     01 DA 85 F1 | 	sub	_var16, #1
015e8     18 A6 85 F1 | 	sub	objptr, #24
015ec     D3 CA 01 FB | 	rdlong	_var08, objptr
015f0     68 A6 85 F1 | 	sub	objptr, #104
015f4     E5 DA 59 F2 | 	cmps	_var16, _var08 wcz
015f8     01 DE 05 16 |  if_a	mov	_var18, #1
015fc     01 DE 65 E6 |  if_be	neg	_var18, #1
01600     EF E0 01 F6 | 	mov	_var19, _var18
01604     EF DA 01 F1 | 	add	_var16, _var18
01608     A8 EA 9F FE | 	loc	pa,	#(@LR__0060-@LR__0059)
0160c     95 00 A0 FD | 	call	#FCACHE_LOAD_
01610                 | LR__0059
01610                 | '     fontline2:=((i-timings[6])+//lpc)>>vzoom
01610     E0 22 02 F6 | 	mov	muldiva_, _var03
01614     68 A6 05 F1 | 	add	objptr, #104
01618     D3 E2 01 FB | 	rdlong	_var20, objptr
0161c     68 A6 85 F1 | 	sub	objptr, #104
01620     F1 22 82 F1 | 	sub	muldiva_, _var20
01624     EC 24 02 F6 | 	mov	muldivb_, _var15
01628     C1 00 A0 FD | 	call	#unsdivide_
0162c     DF 22 42 F0 | 	shr	muldiva_, _var02
01630     11 E5 01 F6 | 	mov	_var21, muldiva_
01634                 | '     charline:=(i-timings[6])+/lpc
01634     E0 22 02 F6 | 	mov	muldiva_, _var03
01638     68 A6 05 F1 | 	add	objptr, #104
0163c     D3 E6 01 FB | 	rdlong	_var22, objptr
01640     68 A6 85 F1 | 	sub	objptr, #104
01644     F3 22 82 F1 | 	sub	muldiva_, _var22
01648     EC 24 02 F6 | 	mov	muldivb_, _var15
0164c     C1 00 A0 FD | 	call	#unsdivide_
01650     12 E9 01 F6 | 	mov	_var23, muldivb_
01654                 | '     bufstart:=buf_ptr+4*((cpl)*charline)+(mode&3)
01654     D3 D0 01 FB | 	rdlong	_var11, objptr
01658     90 A6 05 F1 | 	add	objptr, #144
0165c     D3 E2 01 FB | 	rdlong	_var20, objptr
01660     F4 E2 01 FD | 	qmul	_var20, _var23
01664     18 EA 61 FD | 	getqx	_var24
01668     02 EA 65 F0 | 	shl	_var24, #2
0166c     F5 D0 01 F1 | 	add	_var11, _var24
01670     FE D6 01 F6 | 	mov	_var14, arg01
01674     03 D6 05 F5 | 	and	_var14, #3
01678     EB D0 01 F1 | 	add	_var11, _var14
0167c                 | '     long[dl_ptr+4*i]:=(bufstart<<12)+(fontline2<<8)+(charline<<2)+1
0167c     0C D0 65 F0 | 	shl	_var11, #12
01680     F2 E6 01 F6 | 	mov	_var22, _var21
01684     08 E6 65 F0 | 	shl	_var22, #8
01688     F3 D0 01 F1 | 	add	_var11, _var22
0168c     F4 E2 01 F6 | 	mov	_var20, _var23
01690     02 E2 65 F0 | 	shl	_var20, #2
01694     F1 D0 01 F1 | 	add	_var11, _var20
01698     01 D0 05 F1 | 	add	_var11, #1
0169c     74 A6 85 F1 | 	sub	objptr, #116
016a0     D3 D4 01 FB | 	rdlong	_var13, objptr
016a4     1C A6 85 F1 | 	sub	objptr, #28
016a8     E0 D6 01 F6 | 	mov	_var14, _var03
016ac     02 D6 65 F0 | 	shl	_var14, #2
016b0     EB D4 01 F1 | 	add	_var13, _var14
016b4     EA D0 61 FC | 	wrlong	_var11, _var13
016b8     F0 C0 01 F1 | 	add	_var03, _var19
016bc     ED C0 09 F2 | 	cmp	_var03, _var16 wz
016c0     4C FF 9F 5D |  if_ne	jmp	#LR__0059
016c4                 | LR__0060
016c4                 | LR__0061
016c4                 | ' 
016c4                 | ' 
016c4                 | ' 
016c4                 | ' if (mode>=512)' and (mode & (%10_00_00_0000))==(%10_00_00_0000) ' graphics -> all modes TODO :mode 560+192=752 = 10_11_11_0000 impossib,e because out of memory
016c4     01 00 00 FF 
016c8     00 FC 5D F2 | 	cmps	arg01, ##512 wcz
016cc     A8 01 90 CD |  if_b	jmp	#LR__0069
016d0                 | ' 
016d0                 | '   if timings[6]>0 'borders
016d0     68 A6 05 F1 | 	add	objptr, #104
016d4     D3 BC 01 FB | 	rdlong	_var01, objptr
016d8     68 A6 85 F1 | 	sub	objptr, #104
016dc     00 BC 5D F2 | 	cmps	_var01, #0 wcz
016e0     D4 00 90 ED |  if_be	jmp	#LR__0066
016e4                 | '     repeat i from 0 to timings[6]-1 '0 to -1
016e4     00 C0 05 F6 | 	mov	_var03, #0
016e8     68 A6 05 F1 | 	add	objptr, #104
016ec     D3 EC 01 FB | 	rdlong	_var25, objptr
016f0     68 A6 85 F1 | 	sub	objptr, #104
016f4     01 EC 85 F1 | 	sub	_var25, #1
016f8     00 EC 5D F2 | 	cmps	_var25, #0 wcz
016fc     01 C4 05 16 |  if_a	mov	_var05, #1
01700     01 C4 65 E6 |  if_be	neg	_var05, #1
01704     E2 EE 01 F6 | 	mov	_var26, _var05
01708     E2 EC 01 F1 | 	add	_var25, _var05
0170c     18 E9 9F FE | 	loc	pa,	#(@LR__0063-@LR__0062)
01710     95 00 A0 FD | 	call	#FCACHE_LOAD_
01714                 | LR__0062
01714                 | '       long[dl_ptr+4*i]:=$0
01714     1C A6 05 F1 | 	add	objptr, #28
01718     D3 C8 01 FB | 	rdlong	_var07, objptr
0171c     1C A6 85 F1 | 	sub	objptr, #28
01720     E0 CA 01 F6 | 	mov	_var08, _var03
01724     02 CA 65 F0 | 	shl	_var08, #2
01728     E5 C8 01 F1 | 	add	_var07, _var08
0172c     E4 00 68 FC | 	wrlong	#0, _var07
01730     F7 C0 01 F1 | 	add	_var03, _var26
01734     F6 C0 09 F2 | 	cmp	_var03, _var25 wz
01738     D8 FF 9F 5D |  if_ne	jmp	#LR__0062
0173c                 | LR__0063
0173c                 | '     repeat i from timings[6]+timings[12] to timings[15]-1
0173c     68 A6 05 F1 | 	add	objptr, #104
01740     D3 C0 01 FB | 	rdlong	_var03, objptr
01744     18 A6 05 F1 | 	add	objptr, #24
01748     D3 C4 01 FB | 	rdlong	_var05, objptr
0174c     E2 C0 01 F1 | 	add	_var03, _var05
01750     0C A6 05 F1 | 	add	objptr, #12
01754     D3 F0 01 FB | 	rdlong	_var27, objptr
01758     01 F0 85 F1 | 	sub	_var27, #1
0175c     24 A6 85 F1 | 	sub	objptr, #36
01760     D3 CE 01 FB | 	rdlong	_var10, objptr
01764     18 A6 05 F1 | 	add	objptr, #24
01768     D3 D0 01 FB | 	rdlong	_var11, objptr
0176c     80 A6 85 F1 | 	sub	objptr, #128
01770     E8 CE 01 F1 | 	add	_var10, _var11
01774     E7 F0 59 F2 | 	cmps	_var27, _var10 wcz
01778     01 CA 05 16 |  if_a	mov	_var08, #1
0177c     01 CA 65 E6 |  if_be	neg	_var08, #1
01780     E5 F2 01 F6 | 	mov	_var28, _var08
01784     E5 F0 01 F1 | 	add	_var27, _var08
01788     9C E8 9F FE | 	loc	pa,	#(@LR__0065-@LR__0064)
0178c     95 00 A0 FD | 	call	#FCACHE_LOAD_
01790                 | LR__0064
01790                 | '       long[dl_ptr+4*i]:=$0
01790     1C A6 05 F1 | 	add	objptr, #28
01794     D3 D4 01 FB | 	rdlong	_var13, objptr
01798     1C A6 85 F1 | 	sub	objptr, #28
0179c     E0 D6 01 F6 | 	mov	_var14, _var03
017a0     02 D6 65 F0 | 	shl	_var14, #2
017a4     EB D4 01 F1 | 	add	_var13, _var14
017a8     EA 00 68 FC | 	wrlong	#0, _var13
017ac     F9 C0 01 F1 | 	add	_var03, _var28
017b0     F8 C0 09 F2 | 	cmp	_var03, _var27 wz
017b4     D8 FF 9F 5D |  if_ne	jmp	#LR__0064
017b8                 | LR__0065
017b8                 | LR__0066
017b8                 | '   repeat i from timings[6] to timings[6]+timings[12]-1
017b8     68 A6 05 F1 | 	add	objptr, #104
017bc     D3 C0 01 FB | 	rdlong	_var03, objptr
017c0     E0 F4 01 F6 | 	mov	_var29, _var03
017c4     18 A6 05 F1 | 	add	objptr, #24
017c8     D3 DC 01 FB | 	rdlong	_var17, objptr
017cc     EE F4 01 F1 | 	add	_var29, _var17
017d0     01 F4 85 F1 | 	sub	_var29, #1
017d4     18 A6 85 F1 | 	sub	objptr, #24
017d8     D3 CA 01 FB | 	rdlong	_var08, objptr
017dc     68 A6 85 F1 | 	sub	objptr, #104
017e0     E5 F4 59 F2 | 	cmps	_var29, _var08 wcz
017e4     01 DE 05 16 |  if_a	mov	_var18, #1
017e8     01 DE 65 E6 |  if_be	neg	_var18, #1
017ec     EF F6 01 F6 | 	mov	_var30, _var18
017f0     EF F4 01 F1 | 	add	_var29, _var18
017f4     84 E8 9F FE | 	loc	pa,	#(@LR__0068-@LR__0067)
017f8     95 00 A0 FD | 	call	#FCACHE_LOAD_
017fc                 | LR__0067
017fc                 | '     bufstart:=buf_ptr+4*(cpl*((i-timings[6])>>vzoom))+(mode&3)
017fc     D3 D0 01 FB | 	rdlong	_var11, objptr
01800     E0 E6 01 F6 | 	mov	_var22, _var03
01804     68 A6 05 F1 | 	add	objptr, #104
01808     D3 E2 01 FB | 	rdlong	_var20, objptr
0180c     F1 E6 81 F1 | 	sub	_var22, _var20
01810     DF E6 41 F0 | 	shr	_var22, _var02
01814     28 A6 05 F1 | 	add	objptr, #40
01818     D3 D6 01 FB | 	rdlong	_var14, objptr
0181c     F3 D6 01 FD | 	qmul	_var14, _var22
01820     18 F8 61 FD | 	getqx	_var31
01824     02 F8 65 F0 | 	shl	_var31, #2
01828     FC D0 01 F1 | 	add	_var11, _var31
0182c     FE FA 01 F6 | 	mov	_var32, arg01
01830     03 FA 05 F5 | 	and	_var32, #3
01834     FD D0 01 F1 | 	add	_var11, _var32
01838                 | '     long[dl_ptr+4*i]:=(bufstart<<12)+2+(mode &48)>>2
01838     0C D0 65 F0 | 	shl	_var11, #12
0183c     02 D0 05 F1 | 	add	_var11, #2
01840     FE E6 01 F6 | 	mov	_var22, arg01
01844     30 E6 05 F5 | 	and	_var22, #48
01848     02 E6 45 F0 | 	shr	_var22, #2
0184c     F3 D0 01 F1 | 	add	_var11, _var22
01850     74 A6 85 F1 | 	sub	objptr, #116
01854     D3 E2 01 FB | 	rdlong	_var20, objptr
01858     1C A6 85 F1 | 	sub	objptr, #28
0185c     E0 EA 01 F6 | 	mov	_var24, _var03
01860     02 EA 65 F0 | 	shl	_var24, #2
01864     F5 E2 01 F1 | 	add	_var20, _var24
01868     F1 D0 61 FC | 	wrlong	_var11, _var20
0186c     FB C0 01 F1 | 	add	_var03, _var30
01870     FA C0 09 F2 | 	cmp	_var03, _var29 wz
01874     84 FF 9F 5D |  if_ne	jmp	#LR__0067
01878                 | LR__0068
01878                 | LR__0069
01878                 | _hng025_makedl_ret
01878     2D 00 64 FD | 	ret
0187c                 | 
0187c                 | '       
0187c                 | ' '--------- Start the driver with graphics mode 'mode' at pins 'base'
0187c                 | ' 
0187c                 | ' pub start(mode,base):result
0187c                 | _hng025_start
0187c     04 44 05 F6 | 	mov	COUNT_, #4
01880     A5 00 A0 FD | 	call	#pushregs_
01884     FE 06 02 F6 | 	mov	local01, arg01
01888                 | ' 
01888                 | ' ' initialize pointers and variables
01888                 | ' 
01888                 | ' border_ptr:=@bordercolor
01888     2C A6 05 F1 | 	add	objptr, #44
0188c     D3 08 02 F6 | 	mov	local02, objptr
01890     24 A6 85 F1 | 	sub	objptr, #36
01894     D3 08 62 FC | 	wrlong	local02, objptr
01898                 | ' font_ptr:=@st_font
01898     08 00 00 FF 
0189c     00 AC 05 F1 | 	add	ptr__hng025_dat__, ##4096
018a0     04 A6 85 F1 | 	sub	objptr, #4
018a4     D3 AC 61 FC | 	wrlong	ptr__hng025_dat__, objptr
018a8                 | ' hdmibase:=base
018a8     20 A6 05 F1 | 	add	objptr, #32
018ac     D3 FE 61 FC | 	wrlong	arg02, objptr
018b0     24 A6 85 F1 | 	sub	objptr, #36
018b4                 | ' p1:=@putpixel1
018b4     D3 FC 01 F6 | 	mov	arg01, objptr
018b8     D7 FE 01 F6 | 	mov	arg02, ptr__hng025_putpixel1_
018bc     08 00 00 FF 
018c0     00 AC 85 F1 | 	sub	ptr__hng025_dat__, ##4096
018c4     90 03 B0 FD | 	call	#__system___make_methodptr
018c8     DC 0A 02 F6 | 	mov	local03, result1
018cc     DC A6 05 F1 | 	add	objptr, #220
018d0     D3 0A 62 FC | 	wrlong	local03, objptr
018d4     DC A6 85 F1 | 	sub	objptr, #220
018d8                 | ' p2:=@putpixel2
018d8     D3 FC 01 F6 | 	mov	arg01, objptr
018dc     D8 FE 01 F6 | 	mov	arg02, ptr__hng025_putpixel2_
018e0     74 03 B0 FD | 	call	#__system___make_methodptr
018e4     DC 0A 02 F6 | 	mov	local03, result1
018e8     E0 A6 05 F1 | 	add	objptr, #224
018ec     D3 0A 62 FC | 	wrlong	local03, objptr
018f0     E0 A6 85 F1 | 	sub	objptr, #224
018f4                 | ' p4:=@putpixel4
018f4     D3 FC 01 F6 | 	mov	arg01, objptr
018f8     D9 FE 01 F6 | 	mov	arg02, ptr__hng025_putpixel4_
018fc     58 03 B0 FD | 	call	#__system___make_methodptr
01900     DC 0A 02 F6 | 	mov	local03, result1
01904     E4 A6 05 F1 | 	add	objptr, #228
01908     D3 0A 62 FC | 	wrlong	local03, objptr
0190c     E4 A6 85 F1 | 	sub	objptr, #228
01910                 | ' p8:=@putpixel8
01910     D3 FC 01 F6 | 	mov	arg01, objptr
01914     DA FE 01 F6 | 	mov	arg02, ptr__hng025_putpixel8_
01918     3C 03 B0 FD | 	call	#__system___make_methodptr
0191c     DC 0A 02 F6 | 	mov	local03, result1
01920     E8 A6 05 F1 | 	add	objptr, #232
01924     D3 0A 62 FC | 	wrlong	local03, objptr
01928     E8 A6 85 F1 | 	sub	objptr, #232
0192c                 | ' 
0192c                 | ' 
0192c                 | ' ' the mode has to be set here to enable computing the buffer length
0192c                 | ' 
0192c                 | ' setmode(mode)
0192c     03 FD 01 F6 | 	mov	arg01, local01
01930     90 F5 BF FD | 	call	#_hng025_setmode
01934                 | ' 
01934                 | ' vblank_ptr:=@vblank
01934     40 A6 05 F1 | 	add	objptr, #64
01938     D3 08 02 F6 | 	mov	local02, objptr
0193c     34 A6 85 F1 | 	sub	objptr, #52
01940     D3 08 62 FC | 	wrlong	local02, objptr
01944                 | ' cursor_ptr:=@cursor_x
01944     28 A6 05 F1 | 	add	objptr, #40
01948     D3 08 02 F6 | 	mov	local02, objptr
0194c     24 A6 85 F1 | 	sub	objptr, #36
01950     D3 08 62 FC | 	wrlong	local02, objptr
01954                 | ' 
01954                 | ' fontnum_ptr:=@fontnum
01954     88 A6 05 F1 | 	add	objptr, #136
01958     D3 08 02 F6 | 	mov	local02, objptr
0195c     78 A6 85 F1 | 	sub	objptr, #120
01960     D3 08 62 FC | 	wrlong	local02, objptr
01964                 | ' 
01964                 | ' fontnum:=0  ' PC type font ' TODO: font# in buffer byte #1
01964     78 A6 05 F1 | 	add	objptr, #120
01968     D3 00 68 FC | 	wrlong	#0, objptr
0196c                 | ' bytemove(@colors,@vgacolors,16)
0196c     1C A6 05 F1 | 	add	objptr, #28
01970     D3 FC 01 F6 | 	mov	arg01, objptr
01974     B4 A6 85 F1 | 	sub	objptr, #180
01978     0F 00 00 FF 
0197c     58 AC 05 F1 | 	add	ptr__hng025_dat__, ##7768
01980     D6 FE 01 F6 | 	mov	arg02, ptr__hng025_dat__
01984     0F 00 00 FF 
01988     58 AC 85 F1 | 	sub	ptr__hng025_dat__, ##7768
0198c     10 00 06 F6 | 	mov	arg03, #16
01990     94 01 B0 FD | 	call	#__system____builtin_memmove
01994                 | ' 
01994                 | ' ' initialize a cursor
01994                 | ' 
01994                 | ' cursor_x:=0
01994     34 A6 05 F1 | 	add	objptr, #52
01998     D3 00 48 FC | 	wrbyte	#0, objptr
0199c                 | ' cursor_y:=0
0199c     01 A6 05 F1 | 	add	objptr, #1
019a0     D3 00 48 FC | 	wrbyte	#0, objptr
019a4                 | ' cursor_sh:=14
019a4     01 A6 05 F1 | 	add	objptr, #1
019a8     D3 1C 48 FC | 	wrbyte	#14, objptr
019ac     36 A6 85 F1 | 	sub	objptr, #54
019b0                 | ' 
019b0                 | ' 
019b0                 | ' ' start the cog
019b0                 | ' 
019b0                 | ' cog:=coginit(16,@hdmi, @buf_ptr)
019b0     0F 00 00 FF 
019b4     68 AC 05 F1 | 	add	ptr__hng025_dat__, ##7784
019b8     D6 FE 01 F6 | 	mov	arg02, ptr__hng025_dat__
019bc     0F 00 00 FF 
019c0     68 AC 85 F1 | 	sub	ptr__hng025_dat__, ##7784
019c4     D3 00 02 F6 | 	mov	arg03, objptr
019c8     10 FC 05 F6 | 	mov	arg01, #16
019cc     28 00 62 FD | 	setq	arg03
019d0     FF FC F1 FC | 	coginit	arg01, arg02 wc
019d4     01 FC 65 C6 |  if_b	neg	arg01, #1
019d8     FE B8 01 F6 | 	mov	result1, arg01
019dc     DC 0C 02 F6 | 	mov	local04, result1
019e0     28 A6 05 F1 | 	add	objptr, #40
019e4     D3 0C 62 FC | 	wrlong	local04, objptr
019e8     28 A6 85 F1 | 	sub	objptr, #40
019ec                 | ' waitms(20)
019ec     14 FC 05 F6 | 	mov	arg01, #20
019f0     40 03 B0 FD | 	call	#__system___waitms
019f4                 | ' 
019f4                 | ' ' clear the screen and set the colors to green on black
019f4                 | ' 
019f4                 | ' cls(c_green,c_black)
019f4     C7 FC 05 F6 | 	mov	arg01, #199
019f8     00 FE 05 F6 | 	mov	arg02, #0
019fc     74 F3 BF FD | 	call	#_hng025_cls
01a00                 | ' setbordercolor(0,0,128)
01a00     00 FC 05 F6 | 	mov	arg01, #0
01a04     00 FE 05 F6 | 	mov	arg02, #0
01a08     80 00 06 F6 | 	mov	arg03, #128
01a0c     40 F3 BF FD | 	call	#_hng025_setbordercolor
01a10                 | ' setwritecolors(c_green,c_black)
01a10                 | ' 
01a10                 | ' 
01a10                 | ' write_color:=ff
01a10     38 A6 05 F1 | 	add	objptr, #56
01a14     D3 8E 69 FC | 	wrlong	#199, objptr
01a18                 | ' write_background:=bb
01a18     04 A6 05 F1 | 	add	objptr, #4
01a1c     D3 00 68 FC | 	wrlong	#0, objptr
01a20                 | ' 
01a20                 | ' return cog
01a20     14 A6 85 F1 | 	sub	objptr, #20
01a24     D3 B8 01 FB | 	rdlong	result1, objptr
01a28     28 A6 85 F1 | 	sub	objptr, #40
01a2c     A4 F0 03 F6 | 	mov	ptra, fp
01a30     B4 00 A0 FD | 	call	#popregs_
01a34                 | _hng025_start_ret
01a34     2D 00 64 FD | 	ret
01a38                 | hubexit
01a38     83 00 80 FD | 	jmp	#cogexit
01a3c                 | 
01a3c                 | __system___setbaud
01a3c     14 22 06 FB | 	rdlong	muldiva_, #20
01a40     FE 24 02 F6 | 	mov	muldivb_, arg01
01a44     C5 00 A0 FD | 	call	#divide_
01a48     40 7C 64 FD | 	dirl	#62
01a4c     40 7E 64 FD | 	dirl	#63
01a50     D5 24 62 FC | 	wrlong	muldivb_, ptr___system__dat__
01a54     10 24 66 F0 | 	shl	muldivb_, #16
01a58     07 FE 05 F6 | 	mov	arg02, #7
01a5c     12 FF 01 F1 | 	add	arg02, muldivb_
01a60     3E F8 0C FC | 	wrpin	#124, #62
01a64     3E FE 15 FC | 	wxpin	arg02, #62
01a68     3F 7C 0C FC | 	wrpin	#62, #63
01a6c     14 FE 05 F1 | 	add	arg02, #20
01a70     3F FE 15 FC | 	wxpin	arg02, #63
01a74     41 7C 64 FD | 	dirh	#62
01a78     41 7E 64 FD | 	dirh	#63
01a7c                 | __system___setbaud_ret
01a7c     2D 00 64 FD | 	ret
01a80                 | 
01a80                 | __system___txraw
01a80     02 44 05 F6 | 	mov	COUNT_, #2
01a84     A5 00 A0 FD | 	call	#pushregs_
01a88     FE 06 02 F6 | 	mov	local01, arg01
01a8c     D5 08 0A FB | 	rdlong	local02, ptr___system__dat__ wz
01a90     0C 00 90 5D |  if_ne	jmp	#LR__0070
01a94     42 0F 00 FF 
01a98     80 FC 05 F6 | 	mov	arg01, ##2000000
01a9c     9C FF BF FD | 	call	#__system___setbaud
01aa0                 | LR__0070
01aa0     3E 06 26 FC | 	wypin	local01, #62
01aa4     1F 02 64 FD | 	waitx	#1
01aa8     5C E5 9F FE | 	loc	pa,	#(@LR__0072-@LR__0071)
01aac     95 00 A0 FD | 	call	#FCACHE_LOAD_
01ab0                 | LR__0071
01ab0     40 7C 74 FD | 	testp	#62 wc
01ab4     F8 FF 9F 3D |  if_nc	jmp	#LR__0071
01ab8                 | LR__0072
01ab8     01 B8 05 F6 | 	mov	result1, #1
01abc     A4 F0 03 F6 | 	mov	ptra, fp
01ac0     B4 00 A0 FD | 	call	#popregs_
01ac4                 | __system___txraw_ret
01ac4     2D 00 64 FD | 	ret
01ac8                 | 
01ac8                 | __system____builtin_memset
01ac8     FE BC 01 F6 | 	mov	_var01, arg01
01acc     FF BE 01 F6 | 	mov	_var02, arg02
01ad0     08 BE 65 F0 | 	shl	_var02, #8
01ad4     FF BE 41 F5 | 	or	_var02, arg02
01ad8     DF C0 01 F6 | 	mov	_var03, _var02
01adc     10 C0 65 F0 | 	shl	_var03, #16
01ae0     DF C0 41 F5 | 	or	_var03, _var02
01ae4     30 E5 9F FE | 	loc	pa,	#(@LR__0074-@LR__0073)
01ae8     95 00 A0 FD | 	call	#FCACHE_LOAD_
01aec                 | LR__0073
01aec     03 00 5E F2 | 	cmps	arg03, #3 wcz
01af0     10 00 90 ED |  if_be	jmp	#LR__0075
01af4     FE C0 61 FC | 	wrlong	_var03, arg01
01af8     04 FC 05 F1 | 	add	arg01, #4
01afc     04 00 86 F1 | 	sub	arg03, #4
01b00     E8 FF 9F FD | 	jmp	#LR__0073
01b04                 | LR__0074
01b04                 | LR__0075
01b04     00 00 0E F2 | 	cmp	arg03, #0 wz
01b08     14 00 90 AD |  if_e	jmp	#LR__0080
01b0c     FC E4 9F FE | 	loc	pa,	#(@LR__0078-@LR__0076)
01b10     95 00 A0 FD | 	call	#FCACHE_LOAD_
01b14                 | LR__0076
01b14     00 05 D8 FC | 	rep	@LR__0079, arg03
01b18                 | LR__0077
01b18     FE FE 41 FC | 	wrbyte	arg02, arg01
01b1c     01 FC 05 F1 | 	add	arg01, #1
01b20                 | LR__0078
01b20                 | LR__0079
01b20                 | LR__0080
01b20     DE B8 01 F6 | 	mov	result1, _var01
01b24                 | __system____builtin_memset_ret
01b24     2D 00 64 FD | 	ret
01b28                 | 
01b28                 | __system____builtin_memmove
01b28     FE BC 01 F6 | 	mov	_var01, arg01
01b2c     FF FC 59 F2 | 	cmps	arg01, arg02 wcz
01b30     50 00 90 3D |  if_ae	jmp	#LR__0088
01b34     E8 E4 9F FE | 	loc	pa,	#(@LR__0082-@LR__0081)
01b38     95 00 A0 FD | 	call	#FCACHE_LOAD_
01b3c                 | LR__0081
01b3c     03 00 5E F2 | 	cmps	arg03, #3 wcz
01b40     18 00 90 ED |  if_be	jmp	#LR__0083
01b44     FF BE 01 FB | 	rdlong	_var02, arg02
01b48     FE BE 61 FC | 	wrlong	_var02, arg01
01b4c     04 FC 05 F1 | 	add	arg01, #4
01b50     04 FE 05 F1 | 	add	arg02, #4
01b54     04 00 86 F1 | 	sub	arg03, #4
01b58     E0 FF 9F FD | 	jmp	#LR__0081
01b5c                 | LR__0082
01b5c                 | LR__0083
01b5c     00 C1 09 F6 | 	mov	_var03, arg03 wz
01b60     4C 00 90 AD |  if_e	jmp	#LR__0094
01b64     AC E4 9F FE | 	loc	pa,	#(@LR__0086-@LR__0084)
01b68     95 00 A0 FD | 	call	#FCACHE_LOAD_
01b6c                 | LR__0084
01b6c     E0 08 D8 FC | 	rep	@LR__0087, _var03
01b70                 | LR__0085
01b70     FF BE C1 FA | 	rdbyte	_var02, arg02
01b74     FE BE 41 FC | 	wrbyte	_var02, arg01
01b78     01 FC 05 F1 | 	add	arg01, #1
01b7c     01 FE 05 F1 | 	add	arg02, #1
01b80                 | LR__0086
01b80                 | LR__0087
01b80     2C 00 90 FD | 	jmp	#LR__0094
01b84                 | LR__0088
01b84     00 FD 01 F1 | 	add	arg01, arg03
01b88     00 FF 01 F1 | 	add	arg02, arg03
01b8c     00 C3 09 F6 | 	mov	_var04, arg03 wz
01b90     1C 00 90 AD |  if_e	jmp	#LR__0093
01b94     7C E4 9F FE | 	loc	pa,	#(@LR__0091-@LR__0089)
01b98     95 00 A0 FD | 	call	#FCACHE_LOAD_
01b9c                 | LR__0089
01b9c     E1 08 D8 FC | 	rep	@LR__0092, _var04
01ba0                 | LR__0090
01ba0     01 FC 85 F1 | 	sub	arg01, #1
01ba4     01 FE 85 F1 | 	sub	arg02, #1
01ba8     FF BE C1 FA | 	rdbyte	_var02, arg02
01bac     FE BE 41 FC | 	wrbyte	_var02, arg01
01bb0                 | LR__0091
01bb0                 | LR__0092
01bb0                 | LR__0093
01bb0                 | LR__0094
01bb0     DE B8 01 F6 | 	mov	result1, _var01
01bb4                 | __system____builtin_memmove_ret
01bb4     2D 00 64 FD | 	ret
01bb8                 | 
01bb8                 | __system__longmove
01bb8     FE BC 01 F6 | 	mov	_var01, arg01
01bbc     FF FC 59 F2 | 	cmps	arg01, arg02 wcz
01bc0     28 00 90 3D |  if_ae	jmp	#LR__0099
01bc4     00 BF 09 F6 | 	mov	_var02, arg03 wz
01bc8     5C 00 90 AD |  if_e	jmp	#LR__0105
01bcc     44 E4 9F FE | 	loc	pa,	#(@LR__0097-@LR__0095)
01bd0     95 00 A0 FD | 	call	#FCACHE_LOAD_
01bd4                 | LR__0095
01bd4     DF 08 D8 FC | 	rep	@LR__0098, _var02
01bd8                 | LR__0096
01bd8     FF C0 01 FB | 	rdlong	_var03, arg02
01bdc     FE C0 61 FC | 	wrlong	_var03, arg01
01be0     04 FC 05 F1 | 	add	arg01, #4
01be4     04 FE 05 F1 | 	add	arg02, #4
01be8                 | LR__0097
01be8                 | LR__0098
01be8     3C 00 90 FD | 	jmp	#LR__0105
01bec                 | LR__0099
01bec     00 C3 01 F6 | 	mov	_var04, arg03
01bf0     02 C2 65 F0 | 	shl	_var04, #2
01bf4     E1 FC 01 F1 | 	add	arg01, _var04
01bf8     00 C3 01 F6 | 	mov	_var04, arg03
01bfc     02 C2 65 F0 | 	shl	_var04, #2
01c00     E1 FE 01 F1 | 	add	arg02, _var04
01c04     00 C5 09 F6 | 	mov	_var05, arg03 wz
01c08     1C 00 90 AD |  if_e	jmp	#LR__0104
01c0c     04 E4 9F FE | 	loc	pa,	#(@LR__0102-@LR__0100)
01c10     95 00 A0 FD | 	call	#FCACHE_LOAD_
01c14                 | LR__0100
01c14     E2 08 D8 FC | 	rep	@LR__0103, _var05
01c18                 | LR__0101
01c18     04 FC 85 F1 | 	sub	arg01, #4
01c1c     04 FE 85 F1 | 	sub	arg02, #4
01c20     FF C0 01 FB | 	rdlong	_var03, arg02
01c24     FE C0 61 FC | 	wrlong	_var03, arg01
01c28                 | LR__0102
01c28                 | LR__0103
01c28                 | LR__0104
01c28                 | LR__0105
01c28     DE B8 01 F6 | 	mov	result1, _var01
01c2c                 | __system__longmove_ret
01c2c     2D 00 64 FD | 	ret
01c30                 | 
01c30                 | __system____topofstack
01c30     00 44 05 F6 | 	mov	COUNT_, #0
01c34     A5 00 A0 FD | 	call	#pushregs_
01c38     08 F0 07 F1 | 	add	ptra, #8
01c3c     04 48 05 F1 | 	add	fp, #4
01c40     A4 FC 61 FC | 	wrlong	arg01, fp
01c44     A4 B8 01 F6 | 	mov	result1, fp
01c48     04 48 85 F1 | 	sub	fp, #4
01c4c     A4 F0 03 F6 | 	mov	ptra, fp
01c50     B4 00 A0 FD | 	call	#popregs_
01c54                 | __system____topofstack_ret
01c54     2D 00 64 FD | 	ret
01c58                 | 
01c58                 | __system___make_methodptr
01c58     04 44 05 F6 | 	mov	COUNT_, #4
01c5c     A5 00 A0 FD | 	call	#pushregs_
01c60     FE 06 02 F6 | 	mov	local01, arg01
01c64     FF 08 02 F6 | 	mov	local02, arg02
01c68     08 FC 05 F6 | 	mov	arg01, #8
01c6c     7C 04 B0 FD | 	call	#__system___gc_alloc_managed
01c70     DC 0A 0A F6 | 	mov	local03, result1 wz
01c74     10 00 90 AD |  if_e	jmp	#LR__0106
01c78     05 07 62 FC | 	wrlong	local01, local03
01c7c     05 0D 02 F6 | 	mov	local04, local03
01c80     04 0C 06 F1 | 	add	local04, #4
01c84     06 09 62 FC | 	wrlong	local02, local04
01c88                 | LR__0106
01c88     05 B9 01 F6 | 	mov	result1, local03
01c8c     A4 F0 03 F6 | 	mov	ptra, fp
01c90     B4 00 A0 FD | 	call	#popregs_
01c94                 | __system___make_methodptr_ret
01c94     2D 00 64 FD | 	ret
01c98                 | 
01c98                 | __system___tx
01c98     02 44 05 F6 | 	mov	COUNT_, #2
01c9c     A5 00 A0 FD | 	call	#pushregs_
01ca0     FE 06 02 F6 | 	mov	local01, arg01
01ca4     0A 06 0E F2 | 	cmp	local01, #10 wz
01ca8     20 00 90 5D |  if_ne	jmp	#LR__0107
01cac     08 AA 05 F1 | 	add	ptr___system__dat__, #8
01cb0     D5 08 02 FB | 	rdlong	local02, ptr___system__dat__
01cb4     08 AA 85 F1 | 	sub	ptr___system__dat__, #8
01cb8     02 08 CE F7 | 	test	local02, #2 wz
01cbc     0C 00 90 AD |  if_e	jmp	#LR__0107
01cc0     0D 08 06 F6 | 	mov	local02, #13
01cc4     0D FC 05 F6 | 	mov	arg01, #13
01cc8     B4 FD BF FD | 	call	#__system___txraw
01ccc                 | LR__0107
01ccc     03 FD 01 F6 | 	mov	arg01, local01
01cd0     AC FD BF FD | 	call	#__system___txraw
01cd4     A4 F0 03 F6 | 	mov	ptra, fp
01cd8     B4 00 A0 FD | 	call	#popregs_
01cdc                 | __system___tx_ret
01cdc     2D 00 64 FD | 	ret
01ce0                 | 
01ce0                 | __system___lockmem
01ce0     02 44 05 F6 | 	mov	COUNT_, #2
01ce4     A5 00 A0 FD | 	call	#pushregs_
01ce8     D0 B8 01 F6 | 	mov	result1, __lockreg
01cec     DC 06 02 F6 | 	mov	local01, result1
01cf0     3C E3 9F FE | 	loc	pa,	#(@LR__0110-@LR__0108)
01cf4     95 00 A0 FD | 	call	#FCACHE_LOAD_
01cf8                 | LR__0108
01cf8                 | LR__0109
01cf8     06 06 72 FD | 	locktry	local01 wc
01cfc     FF FF 7F FF 
01d00     FF B9 A5 F5 | 	muxnc	result1, ##-1
01d04     00 B8 0D F2 | 	cmp	result1, #0 wz
01d08     EC FF 9F 5D |  if_ne	jmp	#LR__0109
01d0c     FE 08 CA FA | 	rdbyte	local02, arg01 wz
01d10     FE 02 48 AC |  if_e	wrbyte	#1, arg01
01d14     07 06 72 FD | 	lockrel	local01 wc
01d18     FF FF 7F FF 
01d1c     FF B9 85 F5 | 	muxc	result1, ##-1
01d20     00 08 0E F2 | 	cmp	local02, #0 wz
01d24     D0 FF 9F 5D |  if_ne	jmp	#LR__0108
01d28                 | LR__0110
01d28     A4 F0 03 F6 | 	mov	ptra, fp
01d2c     B4 00 A0 FD | 	call	#popregs_
01d30                 | __system___lockmem_ret
01d30     2D 00 64 FD | 	ret
01d34                 | 
01d34                 | __system___waitms
01d34     02 44 05 F6 | 	mov	COUNT_, #2
01d38     A5 00 A0 FD | 	call	#pushregs_
01d3c     FE 06 02 F6 | 	mov	local01, arg01
01d40     14 08 06 FB | 	rdlong	local02, #20
01d44     D0 E2 9F FE | 	loc	pa,	#(@LR__0112-@LR__0111)
01d48     95 00 A0 FD | 	call	#FCACHE_LOAD_
01d4c                 | LR__0111
01d4c     01 00 00 FF 
01d50     E8 07 5E F2 | 	cmps	local01, ##1000 wcz
01d54     1F 08 62 1D |  if_a	waitx	local02
01d58     01 00 00 1F 
01d5c     E8 07 86 11 |  if_a	sub	local01, ##1000
01d60     E8 FF 9F 1D |  if_a	jmp	#LR__0111
01d64                 | LR__0112
01d64     00 06 5E F2 | 	cmps	local01, #0 wcz
01d68     1C 00 90 ED |  if_be	jmp	#LR__0113
01d6c     04 23 02 F6 | 	mov	muldiva_, local02
01d70     01 00 00 FF 
01d74     E8 25 06 F6 | 	mov	muldivb_, ##1000
01d78     C5 00 A0 FD | 	call	#divide_
01d7c     12 07 02 FD | 	qmul	local01, muldivb_
01d80     18 FC 61 FD | 	getqx	arg01
01d84     1F FC 61 FD | 	waitx	arg01
01d88                 | LR__0113
01d88     A4 F0 03 F6 | 	mov	ptra, fp
01d8c     B4 00 A0 FD | 	call	#popregs_
01d90                 | __system___waitms_ret
01d90     2D 00 64 FD | 	ret
01d94                 | 
01d94                 | __system___waitus
01d94     02 44 05 F6 | 	mov	COUNT_, #2
01d98     A5 00 A0 FD | 	call	#pushregs_
01d9c     FE 06 02 F6 | 	mov	local01, arg01
01da0     14 08 06 FB | 	rdlong	local02, #20
01da4     70 E2 9F FE | 	loc	pa,	#(@LR__0115-@LR__0114)
01da8     95 00 A0 FD | 	call	#FCACHE_LOAD_
01dac                 | LR__0114
01dac     A1 07 00 FF 
01db0     40 06 5E F2 | 	cmps	local01, ##1000000 wcz
01db4     1F 08 62 1D |  if_a	waitx	local02
01db8     A1 07 00 1F 
01dbc     40 06 86 11 |  if_a	sub	local01, ##1000000
01dc0     E8 FF 9F 1D |  if_a	jmp	#LR__0114
01dc4                 | LR__0115
01dc4     00 06 5E F2 | 	cmps	local01, #0 wcz
01dc8     1C 00 90 ED |  if_be	jmp	#LR__0116
01dcc     04 23 02 F6 | 	mov	muldiva_, local02
01dd0     A1 07 00 FF 
01dd4     40 24 06 F6 | 	mov	muldivb_, ##1000000
01dd8     C5 00 A0 FD | 	call	#divide_
01ddc     12 07 02 FD | 	qmul	local01, muldivb_
01de0     18 FC 61 FD | 	getqx	arg01
01de4     1F FC 61 FD | 	waitx	arg01
01de8                 | LR__0116
01de8     A4 F0 03 F6 | 	mov	ptra, fp
01dec     B4 00 A0 FD | 	call	#popregs_
01df0                 | __system___waitus_ret
01df0     2D 00 64 FD | 	ret
01df4                 | 
01df4                 | __system___gc_ptrs
01df4     04 44 05 F6 | 	mov	COUNT_, #4
01df8     A5 00 A0 FD | 	call	#pushregs_
01dfc     CF 06 02 F6 | 	mov	local01, __heap_ptr
01e00     03 09 02 F6 | 	mov	local02, local01
01e04     07 00 00 FF 
01e08     F8 09 06 F1 | 	add	local02, ##4088
01e0c     03 0B 0A FB | 	rdlong	local03, local01 wz
01e10     74 00 90 5D |  if_ne	jmp	#LR__0117
01e14     04 0D 02 F6 | 	mov	local04, local02
01e18     03 0D 82 F1 | 	sub	local04, local01
01e1c     03 03 58 FC | 	wrword	#1, local01
01e20     03 0B 02 F6 | 	mov	local03, local01
01e24     02 0A 06 F1 | 	add	local03, #2
01e28     36 00 80 FF 
01e2c     05 21 59 FC | 	wrword	##27792, local03
01e30     03 0B 02 F6 | 	mov	local03, local01
01e34     04 0A 06 F1 | 	add	local03, #4
01e38     05 01 58 FC | 	wrword	#0, local03
01e3c     03 0B 02 F6 | 	mov	local03, local01
01e40     06 0A 06 F1 | 	add	local03, #6
01e44     05 03 58 FC | 	wrword	#1, local03
01e48     10 06 06 F1 | 	add	local01, #16
01e4c     06 0B 52 F6 | 	abs	local03, local04 wc
01e50     04 0A 46 F0 | 	shr	local03, #4
01e54     05 0B 62 C6 |  if_b	neg	local03, local03
01e58     03 0B 52 FC | 	wrword	local03, local01
01e5c     03 0B 02 F6 | 	mov	local03, local01
01e60     02 0A 06 F1 | 	add	local03, #2
01e64     36 00 80 FF 
01e68     05 1F 59 FC | 	wrword	##27791, local03
01e6c     03 0B 02 F6 | 	mov	local03, local01
01e70     04 0A 06 F1 | 	add	local03, #4
01e74     05 01 58 FC | 	wrword	#0, local03
01e78     03 0B 02 F6 | 	mov	local03, local01
01e7c     06 0A 06 F1 | 	add	local03, #6
01e80     05 01 58 FC | 	wrword	#0, local03
01e84     10 06 86 F1 | 	sub	local01, #16
01e88                 | LR__0117
01e88     04 BB 01 F6 | 	mov	result2, local02
01e8c     03 B9 01 F6 | 	mov	result1, local01
01e90     A4 F0 03 F6 | 	mov	ptra, fp
01e94     B4 00 A0 FD | 	call	#popregs_
01e98                 | __system___gc_ptrs_ret
01e98     2D 00 64 FD | 	ret
01e9c                 | 
01e9c                 | __system___gc_nextBlockPtr
01e9c     02 44 05 F6 | 	mov	COUNT_, #2
01ea0     A5 00 A0 FD | 	call	#pushregs_
01ea4     FE 06 02 F6 | 	mov	local01, arg01
01ea8     03 09 EA FA | 	rdword	local02, local01 wz
01eac     10 00 90 5D |  if_ne	jmp	#LR__0118
01eb0     13 00 00 FF 
01eb4     D4 FC 05 F6 | 	mov	arg01, ##@LR__0161
01eb8     FC 01 B0 FD | 	call	#__system___gc_errmsg
01ebc     0C 00 90 FD | 	jmp	#LR__0119
01ec0                 | LR__0118
01ec0     03 B9 01 F6 | 	mov	result1, local01
01ec4     04 08 66 F0 | 	shl	local02, #4
01ec8     04 B9 01 F1 | 	add	result1, local02
01ecc                 | LR__0119
01ecc     A4 F0 03 F6 | 	mov	ptra, fp
01ed0     B4 00 A0 FD | 	call	#popregs_
01ed4                 | __system___gc_nextBlockPtr_ret
01ed4     2D 00 64 FD | 	ret
01ed8                 | 
01ed8                 | __system___gc_tryalloc
01ed8     0E 44 05 F6 | 	mov	COUNT_, #14
01edc     A5 00 A0 FD | 	call	#pushregs_
01ee0     FE 06 02 F6 | 	mov	local01, arg01
01ee4     FF 08 02 F6 | 	mov	local02, arg02
01ee8     08 FF BF FD | 	call	#__system___gc_ptrs
01eec     DC 0A 02 F6 | 	mov	local03, result1
01ef0     DD 0C 02 F6 | 	mov	local04, result2
01ef4     05 0F 02 F6 | 	mov	local05, local03
01ef8     00 10 06 F6 | 	mov	local06, #0
01efc     54 E1 9F FE | 	loc	pa,	#(@LR__0121-@LR__0120)
01f00     95 00 A0 FD | 	call	#FCACHE_LOAD_
01f04                 | LR__0120
01f04     07 13 02 F6 | 	mov	local07, local05
01f08     05 15 02 F6 | 	mov	local08, local03
01f0c     07 17 02 F6 | 	mov	local09, local05
01f10     06 16 06 F1 | 	add	local09, #6
01f14     0B 19 E2 FA | 	rdword	local10, local09
01f18     0A FD 01 F6 | 	mov	arg01, local08
01f1c     0C FF 09 F6 | 	mov	arg02, local10 wz
01f20     00 B8 05 A6 |  if_e	mov	result1, #0
01f24     04 FE 65 50 |  if_ne	shl	arg02, #4
01f28     FF FC 01 51 |  if_ne	add	arg01, arg02
01f2c     FE B8 01 56 |  if_ne	mov	result1, arg01
01f30     DC 1A 02 F6 | 	mov	local11, result1
01f34     0D 0F 0A F6 | 	mov	local05, local11 wz
01f38     07 15 02 56 |  if_ne	mov	local08, local05
01f3c     0A 11 E2 5A |  if_ne	rdword	local06, local08
01f40     00 0E 0E F2 | 	cmp	local05, #0 wz
01f44     10 00 90 AD |  if_e	jmp	#LR__0122
01f48     06 0F 5A F2 | 	cmps	local05, local04 wcz
01f4c     08 00 90 3D |  if_ae	jmp	#LR__0122
01f50     08 07 5A F2 | 	cmps	local01, local06 wcz
01f54     AC FF 9F 1D |  if_a	jmp	#LR__0120
01f58                 | LR__0121
01f58                 | LR__0122
01f58     00 0E 0E F2 | 	cmp	local05, #0 wz
01f5c     07 B9 01 A6 |  if_e	mov	result1, local05
01f60     48 01 90 AD |  if_e	jmp	#LR__0125
01f64     07 15 02 F6 | 	mov	local08, local05
01f68     06 14 06 F1 | 	add	local08, #6
01f6c     0A 1D E2 FA | 	rdword	local12, local08
01f70     08 07 5A F2 | 	cmps	local01, local06 wcz
01f74     C8 00 90 3D |  if_ae	jmp	#LR__0124
01f78     07 07 52 FC | 	wrword	local01, local05
01f7c     07 FD 01 F6 | 	mov	arg01, local05
01f80     03 17 02 F6 | 	mov	local09, local01
01f84     04 16 66 F0 | 	shl	local09, #4
01f88     0B FD 01 F1 | 	add	arg01, local09
01f8c     08 15 02 F6 | 	mov	local08, local06
01f90     03 15 82 F1 | 	sub	local08, local01
01f94     FE 14 52 FC | 	wrword	local08, arg01
01f98     FE 14 02 F6 | 	mov	local08, arg01
01f9c     02 14 06 F1 | 	add	local08, #2
01fa0     36 00 80 FF 
01fa4     0A 1F 59 FC | 	wrword	##27791, local08
01fa8     07 FF 09 F6 | 	mov	arg02, local05 wz
01fac     00 B8 05 A6 |  if_e	mov	result1, #0
01fb0     05 FF 81 51 |  if_ne	sub	arg02, local03
01fb4     04 FE 45 50 |  if_ne	shr	arg02, #4
01fb8     FF B8 01 56 |  if_ne	mov	result1, arg02
01fbc     FE 1A 02 F6 | 	mov	local11, arg01
01fc0     04 1A 06 F1 | 	add	local11, #4
01fc4     0D B9 51 FC | 	wrword	result1, local11
01fc8     07 15 02 F6 | 	mov	local08, local05
01fcc     06 14 06 F1 | 	add	local08, #6
01fd0     FE 16 02 F6 | 	mov	local09, arg01
01fd4     0A 19 E2 FA | 	rdword	local10, local08
01fd8     06 16 06 F1 | 	add	local09, #6
01fdc     0B 19 52 FC | 	wrword	local10, local09
01fe0     FE 1E 02 F6 | 	mov	local13, arg01
01fe4     0F FF 09 F6 | 	mov	arg02, local13 wz
01fe8     00 B8 05 A6 |  if_e	mov	result1, #0
01fec     05 FF 81 51 |  if_ne	sub	arg02, local03
01ff0     04 FE 45 50 |  if_ne	shr	arg02, #4
01ff4     FF B8 01 56 |  if_ne	mov	result1, arg02
01ff8     DC 1C 02 F6 | 	mov	local12, result1
01ffc     9C FE BF FD | 	call	#__system___gc_nextBlockPtr
02000     DC 20 0A F6 | 	mov	local14, result1 wz
02004     38 00 90 AD |  if_e	jmp	#LR__0123
02008     06 21 5A F2 | 	cmps	local14, local04 wcz
0200c     30 00 90 3D |  if_ae	jmp	#LR__0123
02010     05 15 02 F6 | 	mov	local08, local03
02014     0F 17 02 F6 | 	mov	local09, local13
02018     0A FD 01 F6 | 	mov	arg01, local08
0201c     0B FF 09 F6 | 	mov	arg02, local09 wz
02020     00 B8 05 A6 |  if_e	mov	result1, #0
02024     FE FE 81 51 |  if_ne	sub	arg02, arg01
02028     04 FE 45 50 |  if_ne	shr	arg02, #4
0202c     FF B8 01 56 |  if_ne	mov	result1, arg02
02030     DC 18 02 F6 | 	mov	local10, result1
02034     10 1B 02 F6 | 	mov	local11, local14
02038     04 1A 06 F1 | 	add	local11, #4
0203c     0D 19 52 FC | 	wrword	local10, local11
02040                 | LR__0123
02040                 | LR__0124
02040     06 12 06 F1 | 	add	local07, #6
02044     09 1D 52 FC | 	wrword	local12, local07
02048     36 00 00 FF 
0204c     80 14 06 F6 | 	mov	local08, ##27776
02050     04 15 42 F5 | 	or	local08, local02
02054     01 B8 61 FD | 	cogid	result1
02058     DC 14 42 F5 | 	or	local08, result1
0205c     07 19 02 F6 | 	mov	local10, local05
02060     02 18 06 F1 | 	add	local10, #2
02064     0C 15 52 FC | 	wrword	local08, local10
02068     05 15 02 F6 | 	mov	local08, local03
0206c     08 14 06 F1 | 	add	local08, #8
02070     07 17 02 F6 | 	mov	local09, local05
02074     0A 19 E2 FA | 	rdword	local10, local08
02078     06 16 06 F1 | 	add	local09, #6
0207c     0B 19 52 FC | 	wrword	local10, local09
02080     07 FF 09 F6 | 	mov	arg02, local05 wz
02084     00 B8 05 A6 |  if_e	mov	result1, #0
02088     05 FF 81 51 |  if_ne	sub	arg02, local03
0208c     04 FE 45 50 |  if_ne	shr	arg02, #4
02090     FF B8 01 56 |  if_ne	mov	result1, arg02
02094     08 0A 06 F1 | 	add	local03, #8
02098     05 B9 51 FC | 	wrword	result1, local03
0209c     08 0E 06 F1 | 	add	local05, #8
020a0     07 B9 01 F6 | 	mov	result1, local05
020a4     00 C0 31 FF 
020a8     00 B8 45 F5 | 	or	result1, ##1669332992
020ac                 | LR__0125
020ac     A4 F0 03 F6 | 	mov	ptra, fp
020b0     B4 00 A0 FD | 	call	#popregs_
020b4                 | __system___gc_tryalloc_ret
020b4     2D 00 64 FD | 	ret
020b8                 | 
020b8                 | __system___gc_errmsg
020b8     02 44 05 F6 | 	mov	COUNT_, #2
020bc     A5 00 A0 FD | 	call	#pushregs_
020c0     FE 06 02 F6 | 	mov	local01, arg01
020c4                 | LR__0126
020c4     03 09 CA FA | 	rdbyte	local02, local01 wz
020c8     01 06 06 F1 | 	add	local01, #1
020cc     0C 00 90 AD |  if_e	jmp	#LR__0127
020d0     04 FD 01 F6 | 	mov	arg01, local02
020d4     C0 FB BF FD | 	call	#__system___tx
020d8     E8 FF 9F FD | 	jmp	#LR__0126
020dc                 | LR__0127
020dc     00 B8 05 F6 | 	mov	result1, #0
020e0     A4 F0 03 F6 | 	mov	ptra, fp
020e4     B4 00 A0 FD | 	call	#popregs_
020e8                 | __system___gc_errmsg_ret
020e8     2D 00 64 FD | 	ret
020ec                 | 
020ec                 | __system___gc_alloc_managed
020ec     02 44 05 F6 | 	mov	COUNT_, #2
020f0     A5 00 A0 FD | 	call	#pushregs_
020f4     FE 06 02 F6 | 	mov	local01, arg01
020f8     00 FE 05 F6 | 	mov	arg02, #0
020fc     30 00 B0 FD | 	call	#__system___gc_doalloc
02100     DC 08 0A F6 | 	mov	local02, result1 wz
02104     18 00 90 5D |  if_ne	jmp	#LR__0128
02108     00 06 5E F2 | 	cmps	local01, #0 wcz
0210c     10 00 90 ED |  if_be	jmp	#LR__0128
02110     13 00 00 FF 
02114     F0 FC 05 F6 | 	mov	arg01, ##@LR__0162
02118     9C FF BF FD | 	call	#__system___gc_errmsg
0211c     04 00 90 FD | 	jmp	#LR__0129
02120                 | LR__0128
02120     04 B9 01 F6 | 	mov	result1, local02
02124                 | LR__0129
02124     A4 F0 03 F6 | 	mov	ptra, fp
02128     B4 00 A0 FD | 	call	#popregs_
0212c                 | __system___gc_alloc_managed_ret
0212c     2D 00 64 FD | 	ret
02130                 | 
02130                 | __system___gc_doalloc
02130     06 44 05 F6 | 	mov	COUNT_, #6
02134     A5 00 A0 FD | 	call	#pushregs_
02138     FE 06 0A F6 | 	mov	local01, arg01 wz
0213c     FF 08 02 F6 | 	mov	local02, arg02
02140     00 B8 05 A6 |  if_e	mov	result1, #0
02144     94 00 90 AD |  if_e	jmp	#LR__0137
02148     17 06 06 F1 | 	add	local01, #23
0214c     0F 06 26 F5 | 	andn	local01, #15
02150     04 06 46 F0 | 	shr	local01, #4
02154     0C AA 05 F1 | 	add	ptr___system__dat__, #12
02158     D5 FC 01 F6 | 	mov	arg01, ptr___system__dat__
0215c     0C AA 85 F1 | 	sub	ptr___system__dat__, #12
02160     7C FB BF FD | 	call	#__system___lockmem
02164     03 FD 01 F6 | 	mov	arg01, local01
02168     04 FF 01 F6 | 	mov	arg02, local02
0216c     68 FD BF FD | 	call	#__system___gc_tryalloc
02170     DC 0A 0A F6 | 	mov	local03, result1 wz
02174     14 00 90 5D |  if_ne	jmp	#LR__0130
02178     30 03 B0 FD | 	call	#__system___gc_docollect
0217c     03 FD 01 F6 | 	mov	arg01, local01
02180     04 FF 01 F6 | 	mov	arg02, local02
02184     50 FD BF FD | 	call	#__system___gc_tryalloc
02188     DC 0A 02 F6 | 	mov	local03, result1
0218c                 | LR__0130
0218c     0C AA 05 F1 | 	add	ptr___system__dat__, #12
02190     D5 FC 01 F6 | 	mov	arg01, ptr___system__dat__
02194     0C AA 85 F1 | 	sub	ptr___system__dat__, #12
02198     FE 00 48 FC | 	wrbyte	#0, arg01
0219c     00 0A 0E F2 | 	cmp	local03, #0 wz
021a0     34 00 90 AD |  if_e	jmp	#LR__0136
021a4     04 06 66 F0 | 	shl	local01, #4
021a8     08 06 86 F1 | 	sub	local01, #8
021ac     03 0D 52 F6 | 	abs	local04, local01 wc
021b0     02 0C 46 F0 | 	shr	local04, #2
021b4     06 0D 62 C6 |  if_b	neg	local04, local04
021b8     06 0F 0A F6 | 	mov	local05, local04 wz
021bc     05 11 02 F6 | 	mov	local06, local03
021c0     14 00 90 AD |  if_e	jmp	#LR__0135
021c4     44 DE 9F FE | 	loc	pa,	#(@LR__0133-@LR__0131)
021c8     95 00 A0 FD | 	call	#FCACHE_LOAD_
021cc                 | LR__0131
021cc     07 05 D8 FC | 	rep	@LR__0134, local05
021d0                 | LR__0132
021d0     08 01 68 FC | 	wrlong	#0, local06
021d4     04 10 06 F1 | 	add	local06, #4
021d8                 | LR__0133
021d8                 | LR__0134
021d8                 | LR__0135
021d8                 | LR__0136
021d8     05 B9 01 F6 | 	mov	result1, local03
021dc                 | LR__0137
021dc     A4 F0 03 F6 | 	mov	ptra, fp
021e0     B4 00 A0 FD | 	call	#popregs_
021e4                 | __system___gc_doalloc_ret
021e4     2D 00 64 FD | 	ret
021e8                 | 
021e8                 | __system___gc_isvalidptr
021e8     00 BD 01 F6 | 	mov	_var01, arg03
021ec     DE BE 01 F6 | 	mov	_var02, _var01
021f0     00 F8 7F FF 
021f4     00 BE 05 F5 | 	and	_var02, ##-1048576
021f8     00 C0 31 FF 
021fc     00 BE 0D F2 | 	cmp	_var02, ##1669332992 wz
02200     00 B8 05 56 |  if_ne	mov	result1, #0
02204     5C 00 90 5D |  if_ne	jmp	#__system___gc_isvalidptr_ret
02208     08 BC 85 F1 | 	sub	_var01, #8
0220c     00 F8 7F FF 
02210     00 BC 25 F5 | 	andn	_var01, ##-1048576
02214     FE BC 59 F2 | 	cmps	_var01, arg01 wcz
02218     08 00 90 CD |  if_b	jmp	#LR__0138
0221c     FF BC 59 F2 | 	cmps	_var01, arg02 wcz
02220     08 00 90 CD |  if_b	jmp	#LR__0139
02224                 | LR__0138
02224     00 B8 05 F6 | 	mov	result1, #0
02228     38 00 90 FD | 	jmp	#__system___gc_isvalidptr_ret
0222c                 | LR__0139
0222c     DE BE 01 F6 | 	mov	_var02, _var01
02230     FE BE 61 F5 | 	xor	_var02, arg01
02234     0F BE 0D F5 | 	and	_var02, #15 wz
02238     00 B8 05 56 |  if_ne	mov	result1, #0
0223c     24 00 90 5D |  if_ne	jmp	#__system___gc_isvalidptr_ret
02240     DE BE 01 F6 | 	mov	_var02, _var01
02244     02 BE 05 F1 | 	add	_var02, #2
02248     DF BE E1 FA | 	rdword	_var02, _var02
0224c     7F 00 00 FF 
02250     C0 BF 05 F5 | 	and	_var02, ##65472
02254     36 00 00 FF 
02258     80 BE 0D F2 | 	cmp	_var02, ##27776 wz
0225c     00 B8 05 56 |  if_ne	mov	result1, #0
02260     DE B8 01 A6 |  if_e	mov	result1, _var01
02264                 | __system___gc_isvalidptr_ret
02264     2D 00 64 FD | 	ret
02268                 | 
02268                 | __system___gc_dofree
02268     0D 44 05 F6 | 	mov	COUNT_, #13
0226c     A5 00 A0 FD | 	call	#pushregs_
02270     FE 06 02 F6 | 	mov	local01, arg01
02274     7C FB BF FD | 	call	#__system___gc_ptrs
02278     DC 08 02 F6 | 	mov	local02, result1
0227c     DD 0A 02 F6 | 	mov	local03, result2
02280     03 0D 02 F6 | 	mov	local04, local01
02284     02 0C 06 F1 | 	add	local04, #2
02288     36 00 80 FF 
0228c     06 1F 59 FC | 	wrword	##27791, local04
02290     03 0F 02 F6 | 	mov	local05, local01
02294     03 FD 01 F6 | 	mov	arg01, local01
02298     00 FC BF FD | 	call	#__system___gc_nextBlockPtr
0229c     DC 10 02 F6 | 	mov	local06, result1
022a0     A8 DD 9F FE | 	loc	pa,	#(@LR__0141-@LR__0140)
022a4     95 00 A0 FD | 	call	#FCACHE_LOAD_
022a8                 | LR__0140
022a8     04 0E 06 F1 | 	add	local05, #4
022ac     07 FF E9 FA | 	rdword	arg02, local05 wz
022b0     04 FD 01 F6 | 	mov	arg01, local02
022b4     00 B8 05 A6 |  if_e	mov	result1, #0
022b8     04 FE 65 50 |  if_ne	shl	arg02, #4
022bc     FF FC 01 51 |  if_ne	add	arg01, arg02
022c0     FE B8 01 56 |  if_ne	mov	result1, arg01
022c4     DC 0E 0A F6 | 	mov	local05, result1 wz
022c8     28 00 90 AD |  if_e	jmp	#LR__0142
022cc     07 FD 01 F6 | 	mov	arg01, local05
022d0     00 12 06 F6 | 	mov	local07, #0
022d4     02 FC 05 F1 | 	add	arg01, #2
022d8     FE 14 E2 FA | 	rdword	local08, arg01
022dc     36 00 00 FF 
022e0     8F 14 0E F2 | 	cmp	local08, ##27791 wz
022e4     01 12 66 A6 |  if_e	neg	local07, #1
022e8     09 B9 01 F6 | 	mov	result1, local07
022ec     DC 16 0A F6 | 	mov	local09, result1 wz
022f0     B4 FF 9F AD |  if_e	jmp	#LR__0140
022f4                 | LR__0141
022f4                 | LR__0142
022f4     00 0E 0E F2 | 	cmp	local05, #0 wz
022f8     04 0F 02 A6 |  if_e	mov	local05, local02
022fc     07 0D 02 F6 | 	mov	local04, local05
02300     06 0C 06 F1 | 	add	local04, #6
02304     03 17 02 F6 | 	mov	local09, local01
02308     06 19 E2 FA | 	rdword	local10, local04
0230c     06 16 06 F1 | 	add	local09, #6
02310     0B 19 52 FC | 	wrword	local10, local09
02314     03 FF 09 F6 | 	mov	arg02, local01 wz
02318     00 B8 05 A6 |  if_e	mov	result1, #0
0231c     04 FF 81 51 |  if_ne	sub	arg02, local02
02320     04 FE 45 50 |  if_ne	shr	arg02, #4
02324     FF B8 01 56 |  if_ne	mov	result1, arg02
02328     DC 18 02 F6 | 	mov	local10, result1
0232c     07 1B 02 F6 | 	mov	local11, local05
02330     06 1A 06 F1 | 	add	local11, #6
02334     0D 19 52 FC | 	wrword	local10, local11
02338     04 0F 0A F2 | 	cmp	local05, local02 wz
0233c     84 00 90 AD |  if_e	jmp	#LR__0145
02340     07 FD 01 F6 | 	mov	arg01, local05
02344     54 FB BF FD | 	call	#__system___gc_nextBlockPtr
02348     03 B9 09 F2 | 	cmp	result1, local01 wz
0234c     74 00 90 5D |  if_ne	jmp	#LR__0144
02350     07 0D E2 FA | 	rdword	local04, local05
02354     03 1B E2 FA | 	rdword	local11, local01
02358     0D 0D 02 F1 | 	add	local04, local11
0235c     07 0D 52 FC | 	wrword	local04, local05
02360     03 0D 02 F6 | 	mov	local04, local01
02364     02 0C 06 F1 | 	add	local04, #2
02368     06 01 58 FC | 	wrword	#0, local04
0236c     03 FD 01 F6 | 	mov	arg01, local01
02370     28 FB BF FD | 	call	#__system___gc_nextBlockPtr
02374     DC 10 02 F6 | 	mov	local06, result1
02378     05 11 5A F2 | 	cmps	local06, local03 wcz
0237c     20 00 90 3D |  if_ae	jmp	#LR__0143
02380     07 FF 09 F6 | 	mov	arg02, local05 wz
02384     00 B8 05 A6 |  if_e	mov	result1, #0
02388     04 FF 81 51 |  if_ne	sub	arg02, local02
0238c     04 FE 45 50 |  if_ne	shr	arg02, #4
02390     FF B8 01 56 |  if_ne	mov	result1, arg02
02394     08 1B 02 F6 | 	mov	local11, local06
02398     04 1A 06 F1 | 	add	local11, #4
0239c     0D B9 51 FC | 	wrword	result1, local11
023a0                 | LR__0143
023a0     03 0D 02 F6 | 	mov	local04, local01
023a4     06 0C 06 F1 | 	add	local04, #6
023a8     07 17 02 F6 | 	mov	local09, local05
023ac     06 19 E2 FA | 	rdword	local10, local04
023b0     06 16 06 F1 | 	add	local09, #6
023b4     0B 19 52 FC | 	wrword	local10, local09
023b8     06 06 06 F1 | 	add	local01, #6
023bc     03 01 58 FC | 	wrword	#0, local01
023c0     07 07 02 F6 | 	mov	local01, local05
023c4                 | LR__0144
023c4                 | LR__0145
023c4     03 FD 01 F6 | 	mov	arg01, local01
023c8     D0 FA BF FD | 	call	#__system___gc_nextBlockPtr
023cc     DC 1C 0A F6 | 	mov	local12, result1 wz
023d0     C8 00 90 AD |  if_e	jmp	#LR__0147
023d4     05 1D 5A F2 | 	cmps	local12, local03 wcz
023d8     C0 00 90 3D |  if_ae	jmp	#LR__0147
023dc     0E FD 01 F6 | 	mov	arg01, local12
023e0     00 12 06 F6 | 	mov	local07, #0
023e4     02 FC 05 F1 | 	add	arg01, #2
023e8     FE 14 E2 FA | 	rdword	local08, arg01
023ec     36 00 00 FF 
023f0     8F 14 0E F2 | 	cmp	local08, ##27791 wz
023f4     01 12 66 A6 |  if_e	neg	local07, #1
023f8     09 B9 09 F6 | 	mov	result1, local07 wz
023fc     9C 00 90 AD |  if_e	jmp	#LR__0147
02400     03 0F 02 F6 | 	mov	local05, local01
02404     07 0D E2 FA | 	rdword	local04, local05
02408     0E 07 02 F6 | 	mov	local01, local12
0240c     03 1B E2 FA | 	rdword	local11, local01
02410     0D 0D 02 F1 | 	add	local04, local11
02414     07 1F 02 F6 | 	mov	local13, local05
02418     0F 0D 52 FC | 	wrword	local04, local13
0241c     03 0D 02 F6 | 	mov	local04, local01
02420     06 0C 06 F1 | 	add	local04, #6
02424     07 17 02 F6 | 	mov	local09, local05
02428     06 19 E2 FA | 	rdword	local10, local04
0242c     06 16 06 F1 | 	add	local09, #6
02430     0B 19 52 FC | 	wrword	local10, local09
02434     03 0D 02 F6 | 	mov	local04, local01
02438     02 0C 06 F1 | 	add	local04, #2
0243c     06 55 59 FC | 	wrword	#170, local04
02440     03 0D 02 F6 | 	mov	local04, local01
02444     06 0C 06 F1 | 	add	local04, #6
02448     06 01 58 FC | 	wrword	#0, local04
0244c     03 0D 02 F6 | 	mov	local04, local01
02450     06 FD 01 F6 | 	mov	arg01, local04
02454     44 FA BF FD | 	call	#__system___gc_nextBlockPtr
02458     DC 16 02 F6 | 	mov	local09, result1
0245c     0B 11 0A F6 | 	mov	local06, local09 wz
02460     38 00 90 AD |  if_e	jmp	#LR__0146
02464     05 11 5A F2 | 	cmps	local06, local03 wcz
02468     30 00 90 3D |  if_ae	jmp	#LR__0146
0246c     04 0D 02 F6 | 	mov	local04, local02
02470     07 17 02 F6 | 	mov	local09, local05
02474     06 FD 01 F6 | 	mov	arg01, local04
02478     0B FF 09 F6 | 	mov	arg02, local09 wz
0247c     00 B8 05 A6 |  if_e	mov	result1, #0
02480     FE FE 81 51 |  if_ne	sub	arg02, arg01
02484     04 FE 45 50 |  if_ne	shr	arg02, #4
02488     FF B8 01 56 |  if_ne	mov	result1, arg02
0248c     DC 18 02 F6 | 	mov	local10, result1
02490     08 1B 02 F6 | 	mov	local11, local06
02494     04 1A 06 F1 | 	add	local11, #4
02498     0D 19 52 FC | 	wrword	local10, local11
0249c                 | LR__0146
0249c                 | LR__0147
0249c     08 B9 01 F6 | 	mov	result1, local06
024a0     A4 F0 03 F6 | 	mov	ptra, fp
024a4     B4 00 A0 FD | 	call	#popregs_
024a8                 | __system___gc_dofree_ret
024a8     2D 00 64 FD | 	ret
024ac                 | 
024ac                 | __system___gc_docollect
024ac     09 44 05 F6 | 	mov	COUNT_, #9
024b0     A5 00 A0 FD | 	call	#pushregs_
024b4     3C F9 BF FD | 	call	#__system___gc_ptrs
024b8     DD 06 02 F6 | 	mov	local01, result2
024bc     DC 08 02 F6 | 	mov	local02, result1
024c0     04 FD 01 F6 | 	mov	arg01, local02
024c4     D4 F9 BF FD | 	call	#__system___gc_nextBlockPtr
024c8     DC 0A 0A F6 | 	mov	local03, result1 wz
024cc     01 B8 61 FD | 	cogid	result1
024d0     DC 0C 02 F6 | 	mov	local04, result1
024d4     34 00 90 AD |  if_e	jmp	#LR__0149
024d8                 | LR__0148
024d8     03 0B 5A F2 | 	cmps	local03, local01 wcz
024dc     2C 00 90 3D |  if_ae	jmp	#LR__0149
024e0     05 0F 02 F6 | 	mov	local05, local03
024e4     02 0E 06 F1 | 	add	local05, #2
024e8     07 11 E2 FA | 	rdword	local06, local05
024ec     20 10 26 F5 | 	andn	local06, #32
024f0     05 13 02 F6 | 	mov	local07, local03
024f4     02 12 06 F1 | 	add	local07, #2
024f8     09 11 52 FC | 	wrword	local06, local07
024fc     05 FD 01 F6 | 	mov	arg01, local03
02500     98 F9 BF FD | 	call	#__system___gc_nextBlockPtr
02504     DC 0A 0A F6 | 	mov	local03, result1 wz
02508     CC FF 9F 5D |  if_ne	jmp	#LR__0148
0250c                 | LR__0149
0250c     00 10 06 F6 | 	mov	local06, #0
02510     00 FC 05 F6 | 	mov	arg01, #0
02514     18 F7 BF FD | 	call	#__system____topofstack
02518     DC 12 02 F6 | 	mov	local07, result1
0251c     08 FD 01 F6 | 	mov	arg01, local06
02520     09 FF 01 F6 | 	mov	arg02, local07
02524     A0 00 B0 FD | 	call	#__system___gc_markhub
02528     34 01 B0 FD | 	call	#__system___gc_markcog
0252c     04 FD 01 F6 | 	mov	arg01, local02
02530     68 F9 BF FD | 	call	#__system___gc_nextBlockPtr
02534     DC 14 0A F6 | 	mov	local08, result1 wz
02538     10 00 90 5D |  if_ne	jmp	#LR__0150
0253c     13 00 00 FF 
02540     0D FD 05 F6 | 	mov	arg01, ##@LR__0163
02544     70 FB BF FD | 	call	#__system___gc_errmsg
02548     70 00 90 FD | 	jmp	#LR__0156
0254c                 | LR__0150
0254c                 | LR__0151
0254c     0A 0B 02 F6 | 	mov	local03, local08
02550     05 FD 01 F6 | 	mov	arg01, local03
02554     44 F9 BF FD | 	call	#__system___gc_nextBlockPtr
02558     DC 14 02 F6 | 	mov	local08, result1
0255c     05 11 02 F6 | 	mov	local06, local03
02560     02 10 06 F1 | 	add	local06, #2
02564     08 17 E2 FA | 	rdword	local09, local06
02568     20 16 CE F7 | 	test	local09, #32 wz
0256c     3C 00 90 5D |  if_ne	jmp	#LR__0154
02570     0B 0F 02 F6 | 	mov	local05, local09
02574     10 0E 0E F5 | 	and	local05, #16 wz
02578     30 00 90 5D |  if_ne	jmp	#LR__0154
0257c     0B 11 02 F6 | 	mov	local06, local09
02580     0F 10 06 F5 | 	and	local06, #15
02584     08 17 02 F6 | 	mov	local09, local06
02588     06 17 0A F2 | 	cmp	local09, local04 wz
0258c     08 00 90 AD |  if_e	jmp	#LR__0152
02590     0E 16 0E F2 | 	cmp	local09, #14 wz
02594     14 00 90 5D |  if_ne	jmp	#LR__0153
02598                 | LR__0152
02598     05 11 02 F6 | 	mov	local06, local03
0259c     08 FD 01 F6 | 	mov	arg01, local06
025a0     C4 FC BF FD | 	call	#__system___gc_dofree
025a4     DC 0E 02 F6 | 	mov	local05, result1
025a8     07 15 02 F6 | 	mov	local08, local05
025ac                 | LR__0153
025ac                 | LR__0154
025ac     00 14 0E F2 | 	cmp	local08, #0 wz
025b0     08 00 90 AD |  if_e	jmp	#LR__0155
025b4     03 15 5A F2 | 	cmps	local08, local01 wcz
025b8     90 FF 9F CD |  if_b	jmp	#LR__0151
025bc                 | LR__0155
025bc                 | LR__0156
025bc     A4 F0 03 F6 | 	mov	ptra, fp
025c0     B4 00 A0 FD | 	call	#popregs_
025c4                 | __system___gc_docollect_ret
025c4     2D 00 64 FD | 	ret
025c8                 | 
025c8                 | __system___gc_markhub
025c8     0A 44 05 F6 | 	mov	COUNT_, #10
025cc     A5 00 A0 FD | 	call	#pushregs_
025d0     FE 06 02 F6 | 	mov	local01, arg01
025d4     FF 08 02 F6 | 	mov	local02, arg02
025d8     18 F8 BF FD | 	call	#__system___gc_ptrs
025dc     DC 0A 02 F6 | 	mov	local03, result1
025e0     DD 0C 02 F6 | 	mov	local04, result2
025e4                 | LR__0157
025e4     04 07 5A F2 | 	cmps	local01, local02 wcz
025e8     68 00 90 3D |  if_ae	jmp	#LR__0158
025ec     03 01 02 FB | 	rdlong	arg03, local01
025f0     04 06 06 F1 | 	add	local01, #4
025f4     05 FD 01 F6 | 	mov	arg01, local03
025f8     06 FF 01 F6 | 	mov	arg02, local04
025fc     E8 FB BF FD | 	call	#__system___gc_isvalidptr
02600     DC 0E 0A F6 | 	mov	local05, result1 wz
02604     DC FF 9F AD |  if_e	jmp	#LR__0157
02608     07 FD 01 F6 | 	mov	arg01, local05
0260c     00 10 06 F6 | 	mov	local06, #0
02610     02 FC 05 F1 | 	add	arg01, #2
02614     FE 12 E2 FA | 	rdword	local07, arg01
02618     36 00 00 FF 
0261c     8F 12 0E F2 | 	cmp	local07, ##27791 wz
02620     01 10 66 A6 |  if_e	neg	local06, #1
02624     08 B9 01 F6 | 	mov	result1, local06
02628     DC 14 0A F6 | 	mov	local08, result1 wz
0262c     B4 FF 9F 5D |  if_ne	jmp	#LR__0157
02630     07 17 02 F6 | 	mov	local09, local05
02634     02 16 06 F1 | 	add	local09, #2
02638     0B 19 E2 FA | 	rdword	local10, local09
0263c     0F 18 26 F5 | 	andn	local10, #15
02640     2E 18 46 F5 | 	or	local10, #46
02644     07 17 02 F6 | 	mov	local09, local05
02648     02 16 06 F1 | 	add	local09, #2
0264c     0B 19 52 FC | 	wrword	local10, local09
02650     90 FF 9F FD | 	jmp	#LR__0157
02654                 | LR__0158
02654     A4 F0 03 F6 | 	mov	ptra, fp
02658     B4 00 A0 FD | 	call	#popregs_
0265c                 | __system___gc_markhub_ret
0265c     2D 00 64 FD | 	ret
02660                 | 
02660                 | __system___gc_markcog
02660     06 44 05 F6 | 	mov	COUNT_, #6
02664     A5 00 A0 FD | 	call	#pushregs_
02668     88 F7 BF FD | 	call	#__system___gc_ptrs
0266c     DC 06 02 F6 | 	mov	local01, result1
02670     DD 08 02 F6 | 	mov	local02, result2
02674     00 0A 06 F6 | 	mov	local03, #0
02678                 | LR__0159
02678     F0 0D 06 F6 | 	mov	local04, #496
0267c     05 0D 82 F1 | 	sub	local04, local03
02680     F0 0D 06 F1 | 	add	local04, #496
02684                 | 	'.live	local04
02684     00 0C 96 F9 | 	alts	local04, #0
02688     06 0F 02 F6 | 	mov	local05, local04
0268c     03 FD 01 F6 | 	mov	arg01, local01
02690     04 FF 01 F6 | 	mov	arg02, local02
02694     07 01 02 F6 | 	mov	arg03, local05
02698     4C FB BF FD | 	call	#__system___gc_isvalidptr
0269c     DC 0E 0A F6 | 	mov	local05, result1 wz
026a0     18 00 90 AD |  if_e	jmp	#LR__0160
026a4     07 11 02 F6 | 	mov	local06, local05
026a8     02 10 06 F1 | 	add	local06, #2
026ac     08 0D E2 FA | 	rdword	local04, local06
026b0     20 0C 46 F5 | 	or	local04, #32
026b4     02 0E 06 F1 | 	add	local05, #2
026b8     07 0D 52 FC | 	wrword	local04, local05
026bc                 | LR__0160
026bc     01 0A 06 F1 | 	add	local03, #1
026c0     F0 0B 5E F2 | 	cmps	local03, #496 wcz
026c4     B0 FF 9F CD |  if_b	jmp	#LR__0159
026c8     A4 F0 03 F6 | 	mov	ptra, fp
026cc     B4 00 A0 FD | 	call	#popregs_
026d0                 | __system___gc_markcog_ret
026d0     2D 00 64 FD | 	ret
026d4                 | 
026d4                 | LR__0161
026d4     20 21 21 21 
026d8     20 63 6F 72 
026dc     72 75 70 74 
026e0     65 64 20 68 
026e4     65 61 70 3F 
026e8     3F 3F 20 21 
026ec     21 21 20    | 	byte	" !!! corrupted heap??? !!! "
026ef     00          | 	byte	0
026f0                 | LR__0162
026f0     20 21 21 21 
026f4     20 6F 75 74 
026f8     20 6F 66 20 
026fc     68 65 61 70 
02700     20 6D 65 6D 
02704     6F 72 79 20 
02708     21 21 21 20 | 	byte	" !!! out of heap memory !!! "
0270c     00          | 	byte	0
0270d                 | LR__0163
0270d     20 21 21 21 
02711     20 63 6F 72 
02715     72 75 70 74 
02719     65 64 20 68 
0271d     65 61 70 20 
02721     21 21 21 20 | 	byte	" !!! corrupted heap !!! "
02725     00          | 	byte	0
02726                 | LR__0164
02726     52 45 41 44 
0272a     59          | 	byte	"READY"
0272b     00          | 	byte	0
0272c                 | LR__0165
0272c     20          | 	byte	" "
0272d     00          | 	byte	0
0272e     00 00       | 	alignl
02730                 | _hng025_dat_
02730     00 00 00 00 
02734     00 00 00 00 
02738     00 00 00 00 
0273c     00 00 00 00 
02740     00 00 00    | vga_font       file "vgafont.def"
02743     7E 81 A5 81 
02747     81 BD 99 81 
0274b     81 7E 00 00 
0274f     00 00 00 00 | 	byte	$7e, $81, $a5, $81, $81, $bd, $99, $81, $81, $7e, $00, $00, $00, $00, $00, $00
02753     7E FF DB FF 
02757     FF C3 E7 FF 
0275b     FF 7E 00 00 
0275f     00 00 00 00 | 	byte	$7e, $ff, $db, $ff, $ff, $c3, $e7, $ff, $ff, $7e, $00, $00, $00, $00, $00, $00
02763     00 36 7F 7F 
02767     7F 7F 3E 1C 
0276b     08 00 00 00 
0276f     00 00 00 00 | 	byte	$00, $36, $7f, $7f, $7f, $7f, $3e, $1c, $08, $00, $00, $00, $00, $00, $00, $00
02773     00 08 1C 3E 
02777     7F 3E 1C 08 
0277b     00 00 00 00 
0277f     00 00 00 00 | 	byte	$00, $08, $1c, $3e, $7f, $3e, $1c, $08, $00, $00, $00, $00, $00, $00, $00, $00
02783     18 3C 3C E7 
02787     E7 E7 18 18 
0278b     3C 00 00 00 
0278f     00 00 00 00 | 	byte	$18, $3c, $3c, $e7, $e7, $e7, $18, $18, $3c, $00, $00, $00, $00, $00, $00, $00
02793     18 3C 7E FF 
02797     FF 7E 18 18 
0279b     3C 00 00 00 
0279f     00 00 00 00 | 	byte	$18, $3c, $7e, $ff, $ff, $7e, $18, $18, $3c, $00, $00, $00, $00, $00, $00, $00
027a3     00 00 00 18 
027a7     3C 3C 18 00 
027ab     00 00 00 00 
027af     00 FF FF FF | 	byte	$00, $00, $00, $18, $3c, $3c, $18, $00, $00, $00, $00, $00, $00, $ff, $ff, $ff
027b3     FF FF FF E7 
027b7     C3 C3 E7 FF 
027bb     FF FF FF FF 
027bf     FF 00 00 00 | 	byte	$ff, $ff, $ff, $e7, $c3, $c3, $e7, $ff, $ff, $ff, $ff, $ff, $ff, $00, $00, $00
027c3     00 00 3C 66 
027c7     42 42 66 3C 
027cb     00 00 00 00 
027cf     00 FF FF FF | 	byte	$00, $00, $3c, $66, $42, $42, $66, $3c, $00, $00, $00, $00, $00, $ff, $ff, $ff
027d3     FF FF C3 99 
027d7     BD BD 99 C3 
027db     FF FF FF FF 
027df     FF 00 00 00 | 	byte	$ff, $ff, $c3, $99, $bd, $bd, $99, $c3, $ff, $ff, $ff, $ff, $ff, $00, $00, $00
027e3     78 70 58 4C 
027e7     1E 33 33 33 
027eb     33 1E 00 00 
027ef     00 00 00 00 | 	byte	$78, $70, $58, $4c, $1e, $33, $33, $33, $33, $1e, $00, $00, $00, $00, $00, $00
027f3     3C 66 66 66 
027f7     66 3C 18 7E 
027fb     18 18 00 00 
027ff     00 00 00 00 | 	byte	$3c, $66, $66, $66, $66, $3c, $18, $7e, $18, $18, $00, $00, $00, $00, $00, $00
02803     FC CC FC 0C 
02807     0C 0C 0C 0E 
0280b     0F 07 00 00 
0280f     00 00 00 00 | 	byte	$fc, $cc, $fc, $0c, $0c, $0c, $0c, $0e, $0f, $07, $00, $00, $00, $00, $00, $00
02813     FE C6 FE C6 
02817     C6 C6 C6 E6 
0281b     E7 67 03 00 
0281f     00 00 00 00 | 	byte	$fe, $c6, $fe, $c6, $c6, $c6, $c6, $e6, $e7, $67, $03, $00, $00, $00, $00, $00
02823     18 18 DB 3C 
02827     E7 3C DB 18 
0282b     18 00 00 00 
0282f     00 00 00 01 | 	byte	$18, $18, $db, $3c, $e7, $3c, $db, $18, $18, $00, $00, $00, $00, $00, $00, $01
02833     03 07 0F 1F 
02837     7F 1F 0F 07 
0283b     03 01 00 00 
0283f     00 00 00 40 | 	byte	$03, $07, $0f, $1f, $7f, $1f, $0f, $07, $03, $01, $00, $00, $00, $00, $00, $40
02843     60 70 78 7C 
02847     7F 7C 78 70 
0284b     60 40 00 00 
0284f     00 00 00 00 | 	byte	$60, $70, $78, $7c, $7f, $7c, $78, $70, $60, $40, $00, $00, $00, $00, $00, $00
02853     18 3C 7E 18 
02857     18 18 7E 3C 
0285b     18 00 00 00 
0285f     00 00 00 00 | 	byte	$18, $3c, $7e, $18, $18, $18, $7e, $3c, $18, $00, $00, $00, $00, $00, $00, $00
02863     66 66 66 66 
02867     66 66 66    | 	byte	$66[7]
0286a     00 66 66 00 
0286e     00 00 00 00 
02872     00 FE DB DB 
02876     DB DE D8 D8 | 	byte	$00, $66, $66, $00, $00, $00, $00, $00, $00, $fe, $db, $db, $db, $de, $d8, $d8
0287a     D8 D8 D8 00 
0287e     00 00 00 3E 
02882     63 06 1C 36 
02886     63 63 36 1C | 	byte	$d8, $d8, $d8, $00, $00, $00, $00, $3e, $63, $06, $1c, $36, $63, $63, $36, $1c
0288a     30 63 3E 00 
0288e     00 00 00 00 
02892     00 00 00 00 
02896     00 00 00 7F | 	byte	$30, $63, $3e, $00, $00, $00, $00, $00, $00, $00, $00, $00, $00, $00, $00, $7f
0289a     7F 7F 7F 00 
0289e     00 00 00 00 
028a2     00 18 3C 7E 
028a6     18 18 18 7E | 	byte	$7f, $7f, $7f, $00, $00, $00, $00, $00, $00, $18, $3c, $7e, $18, $18, $18, $7e
028aa     3C 18 7E 00 
028ae     00 00 00 00 
028b2     00 18 3C 7E 
028b6     18 18 18 18 | 	byte	$3c, $18, $7e, $00, $00, $00, $00, $00, $00, $18, $3c, $7e, $18, $18, $18, $18
028ba     18 18 18 00 
028be     00 00 00 00 
028c2     00 18 18 18 
028c6     18 18 18 18 | 	byte	$18, $18, $18, $00, $00, $00, $00, $00, $00, $18, $18, $18, $18, $18, $18, $18
028ca     7E 3C 18 00 
028ce     00 00 00 00 
028d2     00 00 00 18 
028d6     30 7F 30 18 | 	byte	$7e, $3c, $18, $00, $00, $00, $00, $00, $00, $00, $00, $18, $30, $7f, $30, $18
028da     00 00 00 00 
028de     00 00 00 00 
028e2     00 00 00    | 	byte	$00[11]
028e5     0C 06 7F 06 
028e9     0C 00 00 00 
028ed     00 00 00 00 
028f1     00 00 00 00 | 	byte	$0c, $06, $7f, $06, $0c, $00, $00, $00, $00, $00, $00, $00, $00, $00, $00, $00
028f5     00 03 03 03 
028f9     7F 00 00 00 
028fd     00 00 00 00 
02901     00 00 00 00 | 	byte	$00, $03, $03, $03, $7f, $00, $00, $00, $00, $00, $00, $00, $00, $00, $00, $00
02905     14 36 7F 36 
02909     14 00 00 00 
0290d     00 00 00 00 
02911     00 00 00 08 | 	byte	$14, $36, $7f, $36, $14, $00, $00, $00, $00, $00, $00, $00, $00, $00, $00, $08
02915     1C 1C 3E 3E 
02919     7F 7F 00 00 
0291d     00 00 00 00 
02921     00 00 00 7F | 	byte	$1c, $1c, $3e, $3e, $7f, $7f, $00, $00, $00, $00, $00, $00, $00, $00, $00, $7f
02925     7F 3E 3E 1C 
02929     1C 08 00 00 
0292d     00 00 00 00 
02931     00 00 00 00 | 	byte	$7f, $3e, $3e, $1c, $1c, $08, $00, $00, $00, $00, $00, $00, $00, $00, $00, $00
02935     00 00 00 00 
02939     00 00 00 00 
0293d     00 00 00 00 
02941     00 00       | 	byte	$00[14]
02943     18 3C 3C 3C 
02947     18 18 18 00 
0294b     18 18 00 00 
0294f     00 00 66 66 | 	byte	$18, $3c, $3c, $3c, $18, $18, $18, $00, $18, $18, $00, $00, $00, $00, $66, $66
02953     66 24 00 00 
02957     00 00 00 00 
0295b     00 00 00 00 
0295f     00 00 00 00 | 	byte	$66, $24, $00, $00, $00, $00, $00, $00, $00, $00, $00, $00, $00, $00, $00, $00
02963     00 36 36 7F 
02967     36 36 36 7F 
0296b     36 36 00 00 
0296f     00 00 18 18 | 	byte	$00, $36, $36, $7f, $36, $36, $36, $7f, $36, $36, $00, $00, $00, $00, $18, $18
02973     3E 63 43 03 
02977     3E 60 60 61 
0297b     63 3E 18 18 
0297f     00 00 00 00 | 	byte	$3e, $63, $43, $03, $3e, $60, $60, $61, $63, $3e, $18, $18, $00, $00, $00, $00
02983     00 00 43 63 
02987     30 18 0C 06 
0298b     63 61 00 00 
0298f     00 00 00 00 | 	byte	$00, $00, $43, $63, $30, $18, $0c, $06, $63, $61, $00, $00, $00, $00, $00, $00
02993     1C 36 36 1C 
02997     6E 3B 33 33 
0299b     33 6E 00 00 
0299f     00 00 00 00 | 	byte	$1c, $36, $36, $1c, $6e, $3b, $33, $33, $33, $6e, $00, $00, $00, $00, $00, $00
029a3     0C 0C 0C 06 
029a7     00 00 00 00 
029ab     00 00 00 00 
029af     00 00 00 00 | 	byte	$0c, $0c, $0c, $06, $00, $00, $00, $00, $00, $00, $00, $00, $00, $00, $00, $00
029b3     30 18 0C 0C 
029b7     0C 0C 0C 0C 
029bb     18 30 00 00 
029bf     00 00 00 00 | 	byte	$30, $18, $0c, $0c, $0c, $0c, $0c, $0c, $18, $30, $00, $00, $00, $00, $00, $00
029c3     0C 18 30 30 
029c7     30 30 30 30 
029cb     18 0C 00 00 
029cf     00 00 00 00 | 	byte	$0c, $18, $30, $30, $30, $30, $30, $30, $18, $0c, $00, $00, $00, $00, $00, $00
029d3     00 00 00 66 
029d7     3C FF 3C 66 
029db     00 00 00 00 
029df     00 00 00 00 | 	byte	$00, $00, $00, $66, $3c, $ff, $3c, $66, $00, $00, $00, $00, $00, $00, $00, $00
029e3     00 00 00 18 
029e7     18 7E 18 18 
029eb     00 00 00 00 
029ef     00 00 00 00 | 	byte	$00, $00, $00, $18, $18, $7e, $18, $18, $00, $00, $00, $00, $00, $00, $00, $00
029f3     00 00 00 00 
029f7     00 00 00 00 | 	byte	$00[8]
029fb     18 18 18 0C 
029ff     00 00 00 00 
02a03     00 00 00 00 
02a07     00 7F 00 00 | 	byte	$18, $18, $18, $0c, $00, $00, $00, $00, $00, $00, $00, $00, $00, $7f, $00, $00
02a0b     00 00 00 00 
02a0f     00 00 00 00 
02a13     00 00 00 00 
02a17     00 00 00 00 | 	byte	$00[16]
02a1b     18 18 00 00 
02a1f     00 00 00 00 
02a23     00 00 40 60 
02a27     30 18 0C 06 | 	byte	$18, $18, $00, $00, $00, $00, $00, $00, $00, $00, $40, $60, $30, $18, $0c, $06
02a2b     03 01 00 00 
02a2f     00 00 00 00 
02a33     1C 36 63 63 
02a37     6B 6B 63 63 | 	byte	$03, $01, $00, $00, $00, $00, $00, $00, $1c, $36, $63, $63, $6b, $6b, $63, $63
02a3b     36 1C 00 00 
02a3f     00 00 00 00 
02a43     18 1C 1E 18 
02a47     18 18 18 18 | 	byte	$36, $1c, $00, $00, $00, $00, $00, $00, $18, $1c, $1e, $18, $18, $18, $18, $18
02a4b     18 7E 00 00 
02a4f     00 00 00 00 
02a53     3E 63 60 30 
02a57     18 0C 06 03 | 	byte	$18, $7e, $00, $00, $00, $00, $00, $00, $3e, $63, $60, $30, $18, $0c, $06, $03
02a5b     63 7F 00 00 
02a5f     00 00 00 00 
02a63     3E 63 60 60 
02a67     3C 60 60 60 | 	byte	$63, $7f, $00, $00, $00, $00, $00, $00, $3e, $63, $60, $60, $3c, $60, $60, $60
02a6b     63 3E 00 00 
02a6f     00 00 00 00 
02a73     30 38 3C 36 
02a77     33 7F 30 30 | 	byte	$63, $3e, $00, $00, $00, $00, $00, $00, $30, $38, $3c, $36, $33, $7f, $30, $30
02a7b     30 78 00 00 
02a7f     00 00 00 00 
02a83     7F 03 03 03 
02a87     3F 60 60 60 | 	byte	$30, $78, $00, $00, $00, $00, $00, $00, $7f, $03, $03, $03, $3f, $60, $60, $60
02a8b     63 3E 00 00 
02a8f     00 00 00 00 
02a93     1C 06 03 03 
02a97     3F 63 63 63 | 	byte	$63, $3e, $00, $00, $00, $00, $00, $00, $1c, $06, $03, $03, $3f, $63, $63, $63
02a9b     63 3E 00 00 
02a9f     00 00 00 00 
02aa3     7F 63 60 60 
02aa7     30 18 0C 0C | 	byte	$63, $3e, $00, $00, $00, $00, $00, $00, $7f, $63, $60, $60, $30, $18, $0c, $0c
02aab     0C 0C 00 00 
02aaf     00 00 00 00 
02ab3     3E 63 63 63 
02ab7     3E 63 63 63 | 	byte	$0c, $0c, $00, $00, $00, $00, $00, $00, $3e, $63, $63, $63, $3e, $63, $63, $63
02abb     63 3E 00 00 
02abf     00 00 00 00 
02ac3     3E 63 63 63 
02ac7     7E 60 60 60 | 	byte	$63, $3e, $00, $00, $00, $00, $00, $00, $3e, $63, $63, $63, $7e, $60, $60, $60
02acb     30 1E 00 00 
02acf     00 00 00 00 
02ad3     00 00 00 18 
02ad7     18 00 00 00 | 	byte	$30, $1e, $00, $00, $00, $00, $00, $00, $00, $00, $00, $18, $18, $00, $00, $00
02adb     18 18 00 00 
02adf     00 00 00 00 
02ae3     00 00 00 18 
02ae7     18 00 00 00 | 	byte	$18, $18, $00, $00, $00, $00, $00, $00, $00, $00, $00, $18, $18, $00, $00, $00
02aeb     18 18 0C 00 
02aef     00 00 00 00 
02af3     00 60 30 18 
02af7     0C 06 0C 18 | 	byte	$18, $18, $0c, $00, $00, $00, $00, $00, $00, $60, $30, $18, $0c, $06, $0c, $18
02afb     30 60 00 00 
02aff     00 00 00 00 
02b03     00 00 00 7E 
02b07     00 00 7E 00 | 	byte	$30, $60, $00, $00, $00, $00, $00, $00, $00, $00, $00, $7e, $00, $00, $7e, $00
02b0b     00 00 00 00 
02b0f     00 00 00 00 
02b13     00          | 	byte	$00[9]
02b14     06 0C 18 30 
02b18     60 30 18 0C 
02b1c     06 00 00 00 
02b20     00 00 00 3E | 	byte	$06, $0c, $18, $30, $60, $30, $18, $0c, $06, $00, $00, $00, $00, $00, $00, $3e
02b24     63 63 30 18 
02b28     18 18 00 18 
02b2c     18 00 00 00 
02b30     00 00 00 00 | 	byte	$63, $63, $30, $18, $18, $18, $00, $18, $18, $00, $00, $00, $00, $00, $00, $00
02b34     3E 63 63 7B 
02b38     7B 7B 3B 03 
02b3c     3E 00 00 00 
02b40     00 00 00 08 | 	byte	$3e, $63, $63, $7b, $7b, $7b, $3b, $03, $3e, $00, $00, $00, $00, $00, $00, $08
02b44     1C 36 63 63 
02b48     7F 63 63 63 
02b4c     63 00 00 00 
02b50     00 00 00 3F | 	byte	$1c, $36, $63, $63, $7f, $63, $63, $63, $63, $00, $00, $00, $00, $00, $00, $3f
02b54     66 66 66 3E 
02b58     66 66 66 66 
02b5c     3F 00 00 00 
02b60     00 00 00 3C | 	byte	$66, $66, $66, $3e, $66, $66, $66, $66, $3f, $00, $00, $00, $00, $00, $00, $3c
02b64     66 43 03 03 
02b68     03 03 43 66 
02b6c     3C 00 00 00 
02b70     00 00 00 1F | 	byte	$66, $43, $03, $03, $03, $03, $43, $66, $3c, $00, $00, $00, $00, $00, $00, $1f
02b74     36 66 66 66 
02b78     66 66 66 36 
02b7c     1F 00 00 00 
02b80     00 00 00 7F | 	byte	$36, $66, $66, $66, $66, $66, $66, $36, $1f, $00, $00, $00, $00, $00, $00, $7f
02b84     66 46 16 1E 
02b88     16 06 46 66 
02b8c     7F 00 00 00 
02b90     00 00 00 7F | 	byte	$66, $46, $16, $1e, $16, $06, $46, $66, $7f, $00, $00, $00, $00, $00, $00, $7f
02b94     66 46 16 1E 
02b98     16 06 06 06 
02b9c     0F 00 00 00 
02ba0     00 00 00 3C | 	byte	$66, $46, $16, $1e, $16, $06, $06, $06, $0f, $00, $00, $00, $00, $00, $00, $3c
02ba4     66 43 03 03 
02ba8     7B 63 63 66 
02bac     5C 00 00 00 
02bb0     00 00 00 63 | 	byte	$66, $43, $03, $03, $7b, $63, $63, $66, $5c, $00, $00, $00, $00, $00, $00, $63
02bb4     63 63 63 7F 
02bb8     63 63 63 63 
02bbc     63 00 00 00 
02bc0     00 00 00 3C | 	byte	$63, $63, $63, $7f, $63, $63, $63, $63, $63, $00, $00, $00, $00, $00, $00, $3c
02bc4     18 18 18 18 
02bc8     18 18 18 18 | 	byte	$18[8]
02bcc     3C 00 00 00 
02bd0     00 00 00 78 
02bd4     30 30 30 30 
02bd8     30 33 33 33 | 	byte	$3c, $00, $00, $00, $00, $00, $00, $78, $30, $30, $30, $30, $30, $33, $33, $33
02bdc     1E 00 00 00 
02be0     00 00 00 67 
02be4     66 66 36 1E 
02be8     1E 36 66 66 | 	byte	$1e, $00, $00, $00, $00, $00, $00, $67, $66, $66, $36, $1e, $1e, $36, $66, $66
02bec     67 00 00 00 
02bf0     00 00 00 0F 
02bf4     06 06 06 06 
02bf8     06 06 46 66 | 	byte	$67, $00, $00, $00, $00, $00, $00, $0f, $06, $06, $06, $06, $06, $06, $46, $66
02bfc     7F 00 00 00 
02c00     00 00 00 63 
02c04     77 7F 7F 6B 
02c08     63 63 63 63 | 	byte	$7f, $00, $00, $00, $00, $00, $00, $63, $77, $7f, $7f, $6b, $63, $63, $63, $63
02c0c     63 00 00 00 
02c10     00 00 00 63 
02c14     67 6F 7F 7B 
02c18     73 63 63 63 | 	byte	$63, $00, $00, $00, $00, $00, $00, $63, $67, $6f, $7f, $7b, $73, $63, $63, $63
02c1c     63 00 00 00 
02c20     00 00 00 3E 
02c24     63 63 63 63 
02c28     63 63 63 63 | 	byte	$63, $00, $00, $00, $00, $00, $00, $3e, $63, $63, $63, $63, $63, $63, $63, $63
02c2c     3E 00 00 00 
02c30     00 00 00 3F 
02c34     66 66 66 3E 
02c38     06 06 06 06 | 	byte	$3e, $00, $00, $00, $00, $00, $00, $3f, $66, $66, $66, $3e, $06, $06, $06, $06
02c3c     0F 00 00 00 
02c40     00 00 00 3E 
02c44     63 63 63 63 
02c48     63 63 6B 7B | 	byte	$0f, $00, $00, $00, $00, $00, $00, $3e, $63, $63, $63, $63, $63, $63, $6b, $7b
02c4c     3E 30 70 00 
02c50     00 00 00 3F 
02c54     66 66 66 3E 
02c58     36 66 66 66 | 	byte	$3e, $30, $70, $00, $00, $00, $00, $3f, $66, $66, $66, $3e, $36, $66, $66, $66
02c5c     67 00 00 00 
02c60     00 00 00 3E 
02c64     63 63 06 1C 
02c68     30 60 63 63 | 	byte	$67, $00, $00, $00, $00, $00, $00, $3e, $63, $63, $06, $1c, $30, $60, $63, $63
02c6c     3E 00 00 00 
02c70     00 00 00 7E 
02c74     7E 5A 18 18 
02c78     18 18 18 18 | 	byte	$3e, $00, $00, $00, $00, $00, $00, $7e, $7e, $5a, $18, $18, $18, $18, $18, $18
02c7c     3C 00 00 00 
02c80     00 00 00 63 
02c84     63 63 63 63 
02c88     63 63 63 63 | 	byte	$3c, $00, $00, $00, $00, $00, $00, $63, $63, $63, $63, $63, $63, $63, $63, $63
02c8c     3E 00 00 00 
02c90     00 00 00 63 
02c94     63 63 63 63 
02c98     63 63 36 1C | 	byte	$3e, $00, $00, $00, $00, $00, $00, $63, $63, $63, $63, $63, $63, $63, $36, $1c
02c9c     08 00 00 00 
02ca0     00 00 00 63 
02ca4     63 63 63 6B 
02ca8     6B 6B 7F 77 | 	byte	$08, $00, $00, $00, $00, $00, $00, $63, $63, $63, $63, $6b, $6b, $6b, $7f, $77
02cac     36 00 00 00 
02cb0     00 00 00 63 
02cb4     63 36 3E 1C 
02cb8     1C 3E 36 63 | 	byte	$36, $00, $00, $00, $00, $00, $00, $63, $63, $36, $3e, $1c, $1c, $3e, $36, $63
02cbc     63 00 00 00 
02cc0     00 00 00 66 
02cc4     66 66 66 3C 
02cc8     18 18 18 18 | 	byte	$63, $00, $00, $00, $00, $00, $00, $66, $66, $66, $66, $3c, $18, $18, $18, $18
02ccc     3C 00 00 00 
02cd0     00 00 00 7F 
02cd4     63 61 30 18 
02cd8     0C 06 43 63 | 	byte	$3c, $00, $00, $00, $00, $00, $00, $7f, $63, $61, $30, $18, $0c, $06, $43, $63
02cdc     7F 00 00 00 
02ce0     00 00 00 3C 
02ce4     0C 0C 0C 0C 
02ce8     0C 0C 0C 0C | 	byte	$7f, $00, $00, $00, $00, $00, $00, $3c, $0c, $0c, $0c, $0c, $0c, $0c, $0c, $0c
02cec     3C 00 00 00 
02cf0     00 00 00 00 
02cf4     01 03 07 0E 
02cf8     1C 38 70 60 | 	byte	$3c, $00, $00, $00, $00, $00, $00, $00, $01, $03, $07, $0e, $1c, $38, $70, $60
02cfc     40 00 00 00 
02d00     00 00 00 3C 
02d04     30 30 30 30 
02d08     30 30 30 30 | 	byte	$40, $00, $00, $00, $00, $00, $00, $3c, $30, $30, $30, $30, $30, $30, $30, $30
02d0c     3C 00 00 00 
02d10     1C 36 00 00 
02d14     00 00 00 00 
02d18     00 00 00 00 | 	byte	$3c, $00, $00, $00, $1c, $36, $00, $00, $00, $00, $00, $00, $00, $00, $00, $00
02d1c     00 00 00 00 
02d20     00 00 00 00 
02d24     00 00 00 00 
02d28     00 00 00 00 
02d2c     00          | 	byte	$00[17]
02d2d     FF 00 00 0C 
02d31     18 00 00 00 
02d35     00 00 00 00 
02d39     00 00 00 00 | 	byte	$ff, $00, $00, $0c, $18, $00, $00, $00, $00, $00, $00, $00, $00, $00, $00, $00
02d3d     00 00 00 00 
02d41     00 00 00 00 
02d45     00          | 	byte	$00[9]
02d46     1E 30 3E 33 
02d4a     33 33 6E 00 
02d4e     00 00 00 00 
02d52     00 07 06 06 | 	byte	$1e, $30, $3e, $33, $33, $33, $6e, $00, $00, $00, $00, $00, $00, $07, $06, $06
02d56     1E 36 66 66 
02d5a     66 66 3E 00 
02d5e     00 00 00 00 
02d62     00 00 00 00 | 	byte	$1e, $36, $66, $66, $66, $66, $3e, $00, $00, $00, $00, $00, $00, $00, $00, $00
02d66     3E 63 03 03 
02d6a     03 63 3E 00 
02d6e     00 00 00 00 
02d72     00 38 30 30 | 	byte	$3e, $63, $03, $03, $03, $63, $3e, $00, $00, $00, $00, $00, $00, $38, $30, $30
02d76     3C 36 33 33 
02d7a     33 33 6E 00 
02d7e     00 00 00 00 
02d82     00 00 00 00 | 	byte	$3c, $36, $33, $33, $33, $33, $6e, $00, $00, $00, $00, $00, $00, $00, $00, $00
02d86     3E 63 7F 03 
02d8a     03 63 3E 00 
02d8e     00 00 00 00 
02d92     00 38 6C 4C | 	byte	$3e, $63, $7f, $03, $03, $63, $3e, $00, $00, $00, $00, $00, $00, $38, $6c, $4c
02d96     0C 1E 0C 0C 
02d9a     0C 0C 1E 00 
02d9e     00 00 00 00 
02da2     00 00 00 00 | 	byte	$0c, $1e, $0c, $0c, $0c, $0c, $1e, $00, $00, $00, $00, $00, $00, $00, $00, $00
02da6     6E 33 33 33 
02daa     33 33 3E 30 
02dae     33 1E 00 00 
02db2     00 07 06 06 | 	byte	$6e, $33, $33, $33, $33, $33, $3e, $30, $33, $1e, $00, $00, $00, $07, $06, $06
02db6     36 6E 66 66 
02dba     66 66 67 00 
02dbe     00 00 00 00 
02dc2     00 18 18 00 | 	byte	$36, $6e, $66, $66, $66, $66, $67, $00, $00, $00, $00, $00, $00, $18, $18, $00
02dc6     1C 18 18 18 
02dca     18 18 3C 00 
02dce     00 00 00 00 
02dd2     00 60 60 00 | 	byte	$1c, $18, $18, $18, $18, $18, $3c, $00, $00, $00, $00, $00, $00, $60, $60, $00
02dd6     70 60 60 60 
02dda     60 60 60 66 
02dde     66 3C 00 00 
02de2     00 07 06 06 | 	byte	$70, $60, $60, $60, $60, $60, $60, $66, $66, $3c, $00, $00, $00, $07, $06, $06
02de6     66 36 1E 1E 
02dea     36 66 67 00 
02dee     00 00 00 00 
02df2     00 1C 18 18 | 	byte	$66, $36, $1e, $1e, $36, $66, $67, $00, $00, $00, $00, $00, $00, $1c, $18, $18
02df6     18 18 18 18 
02dfa     18 18       | 	byte	$18[6]
02dfc     3C 00 00 00 
02e00     00 00 00 00 
02e04     00 00 37 7F 
02e08     6B 6B 6B 6B | 	byte	$3c, $00, $00, $00, $00, $00, $00, $00, $00, $00, $37, $7f, $6b, $6b, $6b, $6b
02e0c     63 00 00 00 
02e10     00 00 00 00 
02e14     00 00 3B 66 
02e18     66 66 66 66 | 	byte	$63, $00, $00, $00, $00, $00, $00, $00, $00, $00, $3b, $66, $66, $66, $66, $66
02e1c     66 00 00 00 
02e20     00 00 00 00 
02e24     00 00 3E 63 
02e28     63 63 63 63 | 	byte	$66, $00, $00, $00, $00, $00, $00, $00, $00, $00, $3e, $63, $63, $63, $63, $63
02e2c     3E 00 00 00 
02e30     00 00 00 00 
02e34     00 00 3B 66 
02e38     66 66 66 66 | 	byte	$3e, $00, $00, $00, $00, $00, $00, $00, $00, $00, $3b, $66, $66, $66, $66, $66
02e3c     3E 06 06 0F 
02e40     00 00 00 00 
02e44     00 00 6E 33 
02e48     33 33 33 33 | 	byte	$3e, $06, $06, $0f, $00, $00, $00, $00, $00, $00, $6e, $33, $33, $33, $33, $33
02e4c     3E 30 30 78 
02e50     00 00 00 00 
02e54     00 00 3B 6E 
02e58     66 06 06 06 | 	byte	$3e, $30, $30, $78, $00, $00, $00, $00, $00, $00, $3b, $6e, $66, $06, $06, $06
02e5c     0F 00 00 00 
02e60     00 00 00 00 
02e64     00 00 3E 63 
02e68     06 1C 30 63 | 	byte	$0f, $00, $00, $00, $00, $00, $00, $00, $00, $00, $3e, $63, $06, $1c, $30, $63
02e6c     3E 00 00 00 
02e70     00 00 00 08 
02e74     0C 0C 3F 0C 
02e78     0C 0C 0C 6C | 	byte	$3e, $00, $00, $00, $00, $00, $00, $08, $0c, $0c, $3f, $0c, $0c, $0c, $0c, $6c
02e7c     38 00 00 00 
02e80     00 00 00 00 
02e84     00 00 33 33 
02e88     33 33 33 33 | 	byte	$38, $00, $00, $00, $00, $00, $00, $00, $00, $00, $33, $33, $33, $33, $33, $33
02e8c     6E 00 00 00 
02e90     00 00 00 00 
02e94     00 00 63 63 
02e98     63 63 63 36 | 	byte	$6e, $00, $00, $00, $00, $00, $00, $00, $00, $00, $63, $63, $63, $63, $63, $36
02e9c     1C 00 00 00 
02ea0     00 00 00 00 
02ea4     00 00 63 63 
02ea8     6B 6B 6B 7F | 	byte	$1c, $00, $00, $00, $00, $00, $00, $00, $00, $00, $63, $63, $6b, $6b, $6b, $7f
02eac     36 00 00 00 
02eb0     00 00 00 00 
02eb4     00 00 63 36 
02eb8     1C 1C 1C 36 | 	byte	$36, $00, $00, $00, $00, $00, $00, $00, $00, $00, $63, $36, $1c, $1c, $1c, $36
02ebc     63 00 00 00 
02ec0     00 00 00 00 
02ec4     00 00 63 63 
02ec8     63 63 63 63 | 	byte	$63, $00, $00, $00, $00, $00, $00, $00, $00, $00, $63, $63, $63, $63, $63, $63
02ecc     7E 60 30 1F 
02ed0     00 00 00 00 
02ed4     00 00 7F 33 
02ed8     18 0C 06 63 | 	byte	$7e, $60, $30, $1f, $00, $00, $00, $00, $00, $00, $7f, $33, $18, $0c, $06, $63
02edc     7F 00 00 00 
02ee0     00 00 00 70 
02ee4     18 18 18 0E 
02ee8     18 18 18 18 | 	byte	$7f, $00, $00, $00, $00, $00, $00, $70, $18, $18, $18, $0e, $18, $18, $18, $18
02eec     70 00 00 00 
02ef0     00 00 00 18 
02ef4     18 18 18 18 
02ef8     18 18 18 18 | 	byte	$70, $00, $00, $00, $00, $00, $00, $18, $18, $18, $18, $18, $18, $18, $18, $18
02efc     18 00 00 00 
02f00     00 00 00 0E 
02f04     18 18 18 70 
02f08     18 18 18 18 | 	byte	$18, $00, $00, $00, $00, $00, $00, $0e, $18, $18, $18, $70, $18, $18, $18, $18
02f0c     0E 00 00 00 
02f10     6E 3B 00 00 
02f14     00 00 00 00 
02f18     00 00 00 00 | 	byte	$0e, $00, $00, $00, $6e, $3b, $00, $00, $00, $00, $00, $00, $00, $00, $00, $00
02f1c     00 00 00 00 
02f20     00 00 00 00 
02f24     00 00       | 	byte	$00[10]
02f26     08 1C 36 63 
02f2a     63 63 7F 00 
02f2e     00 00 00 00 
02f32     00 3C 66 43 | 	byte	$08, $1c, $36, $63, $63, $63, $7f, $00, $00, $00, $00, $00, $00, $3c, $66, $43
02f36     03 03 03 03 
02f3a     43 66 3C 18 
02f3e     30 1E 00 00 
02f42     00 00 33 00 | 	byte	$03, $03, $03, $03, $43, $66, $3c, $18, $30, $1e, $00, $00, $00, $00, $33, $00
02f46     33 33 33 33 
02f4a     33 33       | 	byte	$33[6]
02f4c     6E 00 00 00 
02f50     00 00 60 30 
02f54     18 00 3E 63 
02f58     7F 03 03 63 | 	byte	$6e, $00, $00, $00, $00, $00, $60, $30, $18, $00, $3e, $63, $7f, $03, $03, $63
02f5c     3E 00 00 00 
02f60     00 00 08 1C 
02f64     36 00 1E 30 
02f68     3E 33 33 33 | 	byte	$3e, $00, $00, $00, $00, $00, $08, $1c, $36, $00, $1e, $30, $3e, $33, $33, $33
02f6c     6E 00 00 00 
02f70     00 00 00 00 
02f74     33 00 1E 30 
02f78     3E 33 33 33 | 	byte	$6e, $00, $00, $00, $00, $00, $00, $00, $33, $00, $1e, $30, $3e, $33, $33, $33
02f7c     6E 00 00 00 
02f80     00 00 1C 36 
02f84     1C 00 33 33 
02f88     33 33 33 33 | 	byte	$6e, $00, $00, $00, $00, $00, $1c, $36, $1c, $00, $33, $33, $33, $33, $33, $33
02f8c     6E 00 00 00 
02f90     00 00 60 30 
02f94     18 00 3E 63 
02f98     03 03 03 63 | 	byte	$6e, $00, $00, $00, $00, $00, $60, $30, $18, $00, $3e, $63, $03, $03, $03, $63
02f9c     3E 00 00 00 
02fa0     00 00 00 00 
02fa4     00 00 3E 63 
02fa8     03 03 03 63 | 	byte	$3e, $00, $00, $00, $00, $00, $00, $00, $00, $00, $3e, $63, $03, $03, $03, $63
02fac     3E 18 30 1E 
02fb0     00 00 00 1C 
02fb4     58 78 38 18 
02fb8     1C 1E 1A 18 | 	byte	$3e, $18, $30, $1e, $00, $00, $00, $1c, $58, $78, $38, $18, $1c, $1e, $1a, $18
02fbc     3C 00 00 00 
02fc0     00 00 00 00 
02fc4     63 00 3E 63 
02fc8     7F 03 03 63 | 	byte	$3c, $00, $00, $00, $00, $00, $00, $00, $63, $00, $3e, $63, $7f, $03, $03, $63
02fcc     3E 00 00 00 
02fd0     66 33 00 3E 
02fd4     63 63 63 63 
02fd8     63 63 63 63 | 	byte	$3e, $00, $00, $00, $66, $33, $00, $3e, $63, $63, $63, $63, $63, $63, $63, $63
02fdc     3E 00 00 00 
02fe0     00 00 CC 66 
02fe4     33 00 3E 63 
02fe8     63 63 63 63 | 	byte	$3e, $00, $00, $00, $00, $00, $cc, $66, $33, $00, $3e, $63, $63, $63, $63, $63
02fec     3E 00 00 00 
02ff0     00 00 18 3C 
02ff4     66 00 1C 18 
02ff8     18 18 18 18 | 	byte	$3e, $00, $00, $00, $00, $00, $18, $3c, $66, $00, $1c, $18, $18, $18, $18, $18
02ffc     3C 00 00 00 
03000     30 18 00 7F 
03004     63 61 30 18 
03008     0C 06 43 63 | 	byte	$3c, $00, $00, $00, $30, $18, $00, $7f, $63, $61, $30, $18, $0c, $06, $43, $63
0300c     7F 00 00 00 
03010     00 63 00 08 
03014     1C 36 63 63 
03018     7F 63 63 63 | 	byte	$7f, $00, $00, $00, $00, $63, $00, $08, $1c, $36, $63, $63, $7f, $63, $63, $63
0301c     63 00 00 00 
03020     30 18 00 3C 
03024     66 43 03 03 
03028     03 03 43 66 | 	byte	$63, $00, $00, $00, $30, $18, $00, $3c, $66, $43, $03, $03, $03, $03, $43, $66
0302c     3C 00 00 00 
03030     30 18 00 7F 
03034     66 46 16 1E 
03038     16 06 46 66 | 	byte	$3c, $00, $00, $00, $30, $18, $00, $7f, $66, $46, $16, $1e, $16, $06, $46, $66
0303c     7F 00 00 00 
03040     0C 06 00 0F 
03044     06 06 06 06 
03048     06 06 46 66 | 	byte	$7f, $00, $00, $00, $0c, $06, $00, $0f, $06, $06, $06, $06, $06, $06, $46, $66
0304c     7F 00 00 00 
03050     30 18 00 1C 
03054     18 18 18 18 
03058     18 18 18 18 | 	byte	$7f, $00, $00, $00, $30, $18, $00, $1c, $18, $18, $18, $18, $18, $18, $18, $18
0305c     3C 00 00 00 
03060     00 00 08 1C 
03064     36 00 3E 63 
03068     63 63 63 63 | 	byte	$3c, $00, $00, $00, $00, $00, $08, $1c, $36, $00, $3e, $63, $63, $63, $63, $63
0306c     3E 00 00 00 
03070     00 00 00 00 
03074     63 00 3E 63 
03078     63 63 63 63 | 	byte	$3e, $00, $00, $00, $00, $00, $00, $00, $63, $00, $3e, $63, $63, $63, $63, $63
0307c     3E 00 00 00 
03080     00 00 00 6F 
03084     46 26 06 06 
03088     06 06 46 66 | 	byte	$3e, $00, $00, $00, $00, $00, $00, $6f, $46, $26, $06, $06, $06, $06, $46, $66
0308c     7F 00 00 00 
03090     00 00 00 6E 
03094     4C 2C 0C 0C 
03098     0C 0C 0C 0C | 	byte	$7f, $00, $00, $00, $00, $00, $00, $6e, $4c, $2c, $0c, $0c, $0c, $0c, $0c, $0c
0309c     1E 00 00 00 
030a0     30 18 00 3E 
030a4     63 63 06 1C 
030a8     30 60 63 63 | 	byte	$1e, $00, $00, $00, $30, $18, $00, $3e, $63, $63, $06, $1c, $30, $60, $63, $63
030ac     3E 00 00 00 
030b0     00 00 60 30 
030b4     18 00 3E 63 
030b8     06 1C 30 63 | 	byte	$3e, $00, $00, $00, $00, $00, $60, $30, $18, $00, $3e, $63, $06, $1c, $30, $63
030bc     3E 00 00 00 
030c0     00 63 00 3E 
030c4     63 63 63 63 
030c8     63 63 63 63 | 	byte	$3e, $00, $00, $00, $00, $63, $00, $3e, $63, $63, $63, $63, $63, $63, $63, $63
030cc     3E 00 00 00 
030d0     00 63 00 63 
030d4     63 63 63 63 
030d8     63 63 63 63 | 	byte	$3e, $00, $00, $00, $00, $63, $00, $63, $63, $63, $63, $63, $63, $63, $63, $63
030dc     3E 00 00 00 
030e0     6C 38 00 7E 
030e4     7E 5A 18 18 
030e8     18 18 18 18 | 	byte	$3e, $00, $00, $00, $6c, $38, $00, $7e, $7e, $5a, $18, $18, $18, $18, $18, $18
030ec     3C 00 00 00 
030f0     00 00 60 48 
030f4     2C 0C 3F 0C 
030f8     0C 0C 0C 6C | 	byte	$3c, $00, $00, $00, $00, $00, $60, $48, $2c, $0c, $3f, $0c, $0c, $0c, $0c, $6c
030fc     38 00 00 00 
03100     00 00 00 0F 
03104     26 36 1E 0E 
03108     07 07 46 66 | 	byte	$38, $00, $00, $00, $00, $00, $00, $0f, $26, $36, $1e, $0e, $07, $07, $46, $66
0310c     7F 00 00 00 
03110     00 00 00 00 
03114     00 63 36 1C 
03118     1C 36 63 00 | 	byte	$7f, $00, $00, $00, $00, $00, $00, $00, $00, $63, $36, $1c, $1c, $36, $63, $00
0311c     00 00 00 00 
03120     00 00       | 	byte	$00[6]
03122     36 1C 08 00 
03126     3E 63 03 03 
0312a     03 63 3E 00 
0312e     00 00 00 00 | 	byte	$36, $1c, $08, $00, $3e, $63, $03, $03, $03, $63, $3e, $00, $00, $00, $00, $00
03132     30 18 0C 00 
03136     1E 30 3E 33 
0313a     33 33 6E 00 
0313e     00 00 00 00 | 	byte	$30, $18, $0c, $00, $1e, $30, $3e, $33, $33, $33, $6e, $00, $00, $00, $00, $00
03142     60 30 18 00 
03146     1C 18 18 18 
0314a     18 18 3C 00 
0314e     00 00 00 00 | 	byte	$60, $30, $18, $00, $1c, $18, $18, $18, $18, $18, $3c, $00, $00, $00, $00, $00
03152     60 30 18 00 
03156     3E 63 63 63 
0315a     63 63 3E 00 
0315e     00 00 00 00 | 	byte	$60, $30, $18, $00, $3e, $63, $63, $63, $63, $63, $3e, $00, $00, $00, $00, $00
03162     30 18 0C 00 
03166     33 33 33 33 
0316a     33 33 6E 00 
0316e     00 00 00 00 | 	byte	$30, $18, $0c, $00, $33, $33, $33, $33, $33, $33, $6e, $00, $00, $00, $00, $00
03172     00 08 1C 36 
03176     63 63 7F 63 
0317a     63 63 63 18 
0317e     0C 78 00 00 | 	byte	$00, $08, $1c, $36, $63, $63, $7f, $63, $63, $63, $63, $18, $0c, $78, $00, $00
03182     00 00 00 00 
03186     1E 30 3E 33 
0318a     33 33 6E 18 
0318e     0C 78 36 1C | 	byte	$00, $00, $00, $00, $1e, $30, $3e, $33, $33, $33, $6e, $18, $0c, $78, $36, $1c
03192     00 7F 63 61 
03196     30 18 0C 06 
0319a     43 63 7F 00 
0319e     00 00 00 00 | 	byte	$00, $7f, $63, $61, $30, $18, $0c, $06, $43, $63, $7f, $00, $00, $00, $00, $00
031a2     36 1C 08 00 
031a6     7F 33 18 0C 
031aa     06 63 7F 00 
031ae     00 00 00 00 | 	byte	$36, $1c, $08, $00, $7f, $33, $18, $0c, $06, $63, $7f, $00, $00, $00, $00, $00
031b2     00 7F 66 46 
031b6     16 1E 16 06 
031ba     46 66 7F 18 
031be     0C 78 00 00 | 	byte	$00, $7f, $66, $46, $16, $1e, $16, $06, $46, $66, $7f, $18, $0c, $78, $00, $00
031c2     00 00 00 00 
031c6     3E 63 7F 03 
031ca     03 63 3E 18 
031ce     0C 78 00 00 | 	byte	$00, $00, $00, $00, $3e, $63, $7f, $03, $03, $63, $3e, $18, $0c, $78, $00, $00
031d2     00 3C 66 03 
031d6     1F 03 0F 03 
031da     03 66 3C 00 
031de     00 00 00 00 | 	byte	$00, $3c, $66, $03, $1f, $03, $0f, $03, $03, $66, $3c, $00, $00, $00, $00, $00
031e2     60 30 18 00 
031e6     7F 33 18 0C 
031ea     06 63 7F 00 
031ee     00 00 6C 38 | 	byte	$60, $30, $18, $00, $7f, $33, $18, $0c, $06, $63, $7f, $00, $00, $00, $6c, $38
031f2     00 3C 66 43 
031f6     03 03 03 03 
031fa     43 66 3C 00 
031fe     00 00 00 00 | 	byte	$00, $3c, $66, $43, $03, $03, $03, $03, $43, $66, $3c, $00, $00, $00, $00, $00
03202     00 00 00 00 
03206     3E 63 06 1C 
0320a     30 63 3E 18 
0320e     30 1E 00 00 | 	byte	$00, $00, $00, $00, $3e, $63, $06, $1c, $30, $63, $3e, $18, $30, $1e, $00, $00
03212     00 00 00 00 
03216     00 00       | 	byte	$00[6]
03218     6C 36 1B 36 
0321c     6C 00 00 00 
03220     00 00 00 00 
03224     00 00 00 00 | 	byte	$6c, $36, $1b, $36, $6c, $00, $00, $00, $00, $00, $00, $00, $00, $00, $00, $00
03228     1B 36 6C 36 
0322c     1B 00 00 00 
03230     88 22 88 22 
03234     88 22 88 22 | 	byte	$1b, $36, $6c, $36, $1b, $00, $00, $00, $88, $22, $88, $22, $88, $22, $88, $22
03238     88 22 88 22 
0323c     88 22 88 22 
03240     AA 55 AA 55 
03244     AA 55 AA 55 | 	byte	$88, $22, $88, $22, $88, $22, $88, $22, $aa, $55, $aa, $55, $aa, $55, $aa, $55
03248     AA 55 AA 55 
0324c     AA 55 AA 55 
03250     BB EE BB EE 
03254     BB EE BB EE | 	byte	$aa, $55, $aa, $55, $aa, $55, $aa, $55, $bb, $ee, $bb, $ee, $bb, $ee, $bb, $ee
03258     BB EE BB EE 
0325c     BB EE BB EE 
03260     18 18 18 18 
03264     18 18 18 18 | 	byte	$bb, $ee, $bb, $ee, $bb, $ee, $bb, $ee, $18, $18, $18, $18, $18, $18, $18, $18
03268     18 18 18 18 
0326c     18 18 18 18 
03270     18 18 18 18 
03274     18 18 18    | 	byte	$18[15]
03277     1F 18 18 18 
0327b     18 18 18 18 
0327f     18 30 18 00 
03283     08 1C 36 63 | 	byte	$1f, $18, $18, $18, $18, $18, $18, $18, $18, $30, $18, $00, $08, $1c, $36, $63
03287     63 7F 63 63 
0328b     63 63 00 00 
0328f     00 1C 36 00 
03293     08 1C 36 63 | 	byte	$63, $7f, $63, $63, $63, $63, $00, $00, $00, $1c, $36, $00, $08, $1c, $36, $63
03297     63 7F 63 63 
0329b     63 63 00 00 
0329f     00 36 1C 00 
032a3     7F 66 46 16 | 	byte	$63, $7f, $63, $63, $63, $63, $00, $00, $00, $36, $1c, $00, $7f, $66, $46, $16
032a7     1E 16 06 46 
032ab     66 7F 00 00 
032af     00 00 00 00 
032b3     3E 63 63 06 | 	byte	$1e, $16, $06, $46, $66, $7f, $00, $00, $00, $00, $00, $00, $3e, $63, $63, $06
032b7     1C 30 60 63 
032bb     63 3E 18 30 
032bf     1E 6C 6C 6C 
032c3     6C 6C 6F 60 | 	byte	$1c, $30, $60, $63, $63, $3e, $18, $30, $1e, $6c, $6c, $6c, $6c, $6c, $6f, $60
032c7     6F 6C 6C 6C 
032cb     6C 6C 6C 6C 
032cf     6C 6C 6C 6C 
032d3     6C 6C 6C 6C | 	byte	$6f, $6c, $6c, $6c, $6c, $6c, $6c, $6c, $6c, $6c, $6c, $6c, $6c, $6c, $6c, $6c
032d7     6C 6C 6C 6C 
032db     6C 6C 6C 6C 
032df     6C          | 	byte	$6c[9]
032e0     00 00 00 00 
032e4     00          | 	byte	$00[5]
032e5     7F 60 6F 6C 
032e9     6C 6C 6C 6C 
032ed     6C 6C 6C 6C 
032f1     6C 6C 6C 6C | 	byte	$7f, $60, $6f, $6c, $6c, $6c, $6c, $6c, $6c, $6c, $6c, $6c, $6c, $6c, $6c, $6c
032f5     6F 60 7F 00 
032f9     00 00 00 00 
032fd     00 00 00 18 
03301     18 00 7F 63 | 	byte	$6f, $60, $7f, $00, $00, $00, $00, $00, $00, $00, $00, $18, $18, $00, $7f, $63
03305     61 30 18 0C 
03309     06 43 63 7F 
0330d     00 00 00 00 
03311     00 00 18 18 | 	byte	$61, $30, $18, $0c, $06, $43, $63, $7f, $00, $00, $00, $00, $00, $00, $18, $18
03315     00 7F 33 18 
03319     0C 06 63 7F 
0331d     00 00 00 00 
03321     00 00 00 00 | 	byte	$00, $7f, $33, $18, $0c, $06, $63, $7f, $00, $00, $00, $00, $00, $00, $00, $00
03325     00 00 1F 18 
03329     18 18 18 18 
0332d     18 18 18 18 
03331     18 18 18 18 | 	byte	$00, $00, $1f, $18, $18, $18, $18, $18, $18, $18, $18, $18, $18, $18, $18, $18
03335     18 18 F8 00 
03339     00 00 00 00 
0333d     00 00 00 18 
03341     18 18 18 18 | 	byte	$18, $18, $f8, $00, $00, $00, $00, $00, $00, $00, $00, $18, $18, $18, $18, $18
03345     18 18 FF 00 
03349     00 00 00 00 
0334d     00 00 00 00 
03351     00 00 00 00 | 	byte	$18, $18, $ff, $00, $00, $00, $00, $00, $00, $00, $00, $00, $00, $00, $00, $00
03355     00 00 FF 18 
03359     18 18 18 18 
0335d     18 18 18 18 
03361     18 18 18 18 | 	byte	$00, $00, $ff, $18, $18, $18, $18, $18, $18, $18, $18, $18, $18, $18, $18, $18
03365     18 18 F8 18 
03369     18 18 18 18 
0336d     18 18 18 00 
03371     00 00 00 00 | 	byte	$18, $18, $f8, $18, $18, $18, $18, $18, $18, $18, $18, $00, $00, $00, $00, $00
03375     00 00 FF 00 
03379     00 00 00 00 
0337d     00 00 00 18 
03381     18 18 18 18 | 	byte	$00, $00, $ff, $00, $00, $00, $00, $00, $00, $00, $00, $18, $18, $18, $18, $18
03385     18 18 FF 18 
03389     18 18 18 18 
0338d     18 18 18 63 
03391     3E 00 08 1C | 	byte	$18, $18, $ff, $18, $18, $18, $18, $18, $18, $18, $18, $63, $3e, $00, $08, $1c
03395     36 63 63 7F 
03399     63 63 63 63 
0339d     00 00 00 00 
033a1     00 00 63 3E | 	byte	$36, $63, $63, $7f, $63, $63, $63, $63, $00, $00, $00, $00, $00, $00, $63, $3e
033a5     00 1E 30 3E 
033a9     33 33 33 6E 
033ad     00 00 00 6C 
033b1     6C 6C 6C 6C | 	byte	$00, $1e, $30, $3e, $33, $33, $33, $6e, $00, $00, $00, $6c, $6c, $6c, $6c, $6c
033b5     EC 0C FC 00 
033b9     00 00 00 00 
033bd     00 00 00 00 
033c1     00 00 00 00 | 	byte	$ec, $0c, $fc, $00, $00, $00, $00, $00, $00, $00, $00, $00, $00, $00, $00, $00
033c5     FC 0C EC 6C 
033c9     6C 6C 6C 6C 
033cd     6C 6C 6C 6C 
033d1     6C 6C 6C 6C | 	byte	$fc, $0c, $ec, $6c, $6c, $6c, $6c, $6c, $6c, $6c, $6c, $6c, $6c, $6c, $6c, $6c
033d5     EF 00 FF 00 
033d9     00 00 00 00 
033dd     00 00 00 00 
033e1     00 00 00 00 | 	byte	$ef, $00, $ff, $00, $00, $00, $00, $00, $00, $00, $00, $00, $00, $00, $00, $00
033e5     FF 00 EF 6C 
033e9     6C 6C 6C 6C 
033ed     6C 6C 6C 6C 
033f1     6C 6C 6C 6C | 	byte	$ff, $00, $ef, $6c, $6c, $6c, $6c, $6c, $6c, $6c, $6c, $6c, $6c, $6c, $6c, $6c
033f5     EC 0C EC 6C 
033f9     6C 6C 6C 6C 
033fd     6C 6C 6C 00 
03401     00 00 00 00 | 	byte	$ec, $0c, $ec, $6c, $6c, $6c, $6c, $6c, $6c, $6c, $6c, $00, $00, $00, $00, $00
03405     FF 00 FF 00 
03409     00 00 00 00 
0340d     00 00 00 6C 
03411     6C 6C 6C 6C | 	byte	$ff, $00, $ff, $00, $00, $00, $00, $00, $00, $00, $00, $6c, $6c, $6c, $6c, $6c
03415     EF 00 EF 6C 
03419     6C 6C 6C 6C 
0341d     6C 6C 6C 00 
03421     00 00 00 00 | 	byte	$ef, $00, $ef, $6c, $6c, $6c, $6c, $6c, $6c, $6c, $6c, $00, $00, $00, $00, $00
03425     63 3E 63 63 
03429     63 63 3E 63 
0342d     00 00 00 00 
03431     00 00 30 7E | 	byte	$63, $3e, $63, $63, $63, $63, $3e, $63, $00, $00, $00, $00, $00, $00, $30, $7e
03435     30 3C 36 33 
03439     33 33 33 6E 
0343d     00 00 00 00 
03441     00 00 1F 36 | 	byte	$30, $3c, $36, $33, $33, $33, $33, $6e, $00, $00, $00, $00, $00, $00, $1f, $36
03445     66 66 6F 66 
03449     66 66 36 1F 
0344d     00 00 00 36 
03451     1C 00 1F 36 | 	byte	$66, $66, $6f, $66, $66, $66, $36, $1f, $00, $00, $00, $36, $1c, $00, $1f, $36
03455     66 66 66 66 
03459     66 66       | 	byte	$66[6]
0345b     36 1F 00 00 
0345f     00 00 63 00 
03463     7F 66 46 16 
03467     1E 16 06 46 | 	byte	$36, $1f, $00, $00, $00, $00, $63, $00, $7f, $66, $46, $16, $1e, $16, $06, $46
0346b     66 7F 00 00 
0346f     00 6C 38 00 
03473     38 30 30 3C 
03477     36 33 33 33 | 	byte	$66, $7f, $00, $00, $00, $6c, $38, $00, $38, $30, $30, $3c, $36, $33, $33, $33
0347b     33 6E 00 00 
0347f     00 36 1C 00 
03483     63 67 6F 7F 
03487     7B 73 63 63 | 	byte	$33, $6e, $00, $00, $00, $36, $1c, $00, $63, $67, $6f, $7f, $7b, $73, $63, $63
0348b     63 63 00 00 
0348f     00 30 18 00 
03493     3C 18 18 18 
03497     18 18 18 18 | 	byte	$63, $63, $00, $00, $00, $30, $18, $00, $3c, $18, $18, $18, $18, $18, $18, $18
0349b     18 3C 00 00 
0349f     00 3C 66 00 
034a3     3C 18 18 18 
034a7     18 18 18 18 | 	byte	$18, $3c, $00, $00, $00, $3c, $66, $00, $3c, $18, $18, $18, $18, $18, $18, $18
034ab     18 3C 00 00 
034af     00 00 00 36 
034b3     1C 08 00 3E 
034b7     63 7F 03 03 | 	byte	$18, $3c, $00, $00, $00, $00, $00, $36, $1c, $08, $00, $3e, $63, $7f, $03, $03
034bb     63 3E 00 00 
034bf     00 18 18 18 
034c3     18 18 18 18 
034c7     1F 00 00 00 | 	byte	$63, $3e, $00, $00, $00, $18, $18, $18, $18, $18, $18, $18, $1f, $00, $00, $00
034cb     00 00 00 00 
034cf     00 00 00 00 
034d3     00 00 00 00 | 	byte	$00[12]
034d7     F8 18 18 18 
034db     18 18 18 18 
034df     18 FF FF FF 
034e3     FF FF FF FF | 	byte	$f8, $18, $18, $18, $18, $18, $18, $18, $18, $ff, $ff, $ff, $ff, $ff, $ff, $ff
034e7     FF FF FF FF 
034eb     FF FF FF FF 
034ef     FF          | 	byte	$ff[9]
034f0     00 00 00 00 
034f4     00 00 00    | 	byte	$00[7]
034f7     FF FF FF FF 
034fb     FF FF FF FF 
034ff     FF          | 	byte	$ff[9]
03500     00 00 00 7E 
03504     7E 5A 18 18 
03508     18 18 18 18 
0350c     3C 18 30 1E | 	byte	$00, $00, $00, $7e, $7e, $5a, $18, $18, $18, $18, $18, $18, $3c, $18, $30, $1e
03510     1C 36 1C 63 
03514     63 63 63 63 
03518     63 63 63 63 
0351c     3E 00 00 00 | 	byte	$1c, $36, $1c, $63, $63, $63, $63, $63, $63, $63, $63, $63, $3e, $00, $00, $00
03520     FF FF FF FF 
03524     FF FF FF    | 	byte	$ff[7]
03527     00 00 00 00 
0352b     00 00 00 00 
0352f     00          | 	byte	$00[9]
03530     30 18 00 3E 
03534     63 63 63 63 
03538     63 63 63 63 
0353c     3E 00 00 00 | 	byte	$30, $18, $00, $3e, $63, $63, $63, $63, $63, $63, $63, $63, $3e, $00, $00, $00
03540     00 00 00 1E 
03544     33 33 33 1B 
03548     33 63 63 63 
0354c     33 00 00 00 | 	byte	$00, $00, $00, $1e, $33, $33, $33, $1b, $33, $63, $63, $63, $33, $00, $00, $00
03550     1C 36 00 3E 
03554     63 63 63 63 
03558     63 63 63 63 
0355c     3E 00 00 00 | 	byte	$1c, $36, $00, $3e, $63, $63, $63, $63, $63, $63, $63, $63, $3e, $00, $00, $00
03560     30 18 00 63 
03564     67 6F 7F 7B 
03568     73 63 63 63 
0356c     63 00 00 00 | 	byte	$30, $18, $00, $63, $67, $6f, $7f, $7b, $73, $63, $63, $63, $63, $00, $00, $00
03570     00 00 60 30 
03574     18 00 3B 66 
03578     66 66 66 66 
0357c     66 00 00 00 | 	byte	$00, $00, $60, $30, $18, $00, $3b, $66, $66, $66, $66, $66, $66, $00, $00, $00
03580     00 00 36 1C 
03584     08 00 3B 66 
03588     66 66 66 66 
0358c     66 00 00 00 | 	byte	$00, $00, $36, $1c, $08, $00, $3b, $66, $66, $66, $66, $66, $66, $00, $00, $00
03590     36 1C 00 3E 
03594     63 63 06 1C 
03598     30 60 63 63 
0359c     3E 00 00 00 | 	byte	$36, $1c, $00, $3e, $63, $63, $06, $1c, $30, $60, $63, $63, $3e, $00, $00, $00
035a0     00 00 36 1C 
035a4     08 00 3E 63 
035a8     06 1C 30 63 
035ac     3E 00 00 00 | 	byte	$00, $00, $36, $1c, $08, $00, $3e, $63, $06, $1c, $30, $63, $3e, $00, $00, $00
035b0     30 18 00 3F 
035b4     66 66 66 3E 
035b8     36 66 66 66 
035bc     6F 00 00 00 | 	byte	$30, $18, $00, $3f, $66, $66, $66, $3e, $36, $66, $66, $66, $6f, $00, $00, $00
035c0     30 18 00 63 
035c4     63 63 63 63 
035c8     63 63 63 63 
035cc     3E 00 00 00 | 	byte	$30, $18, $00, $63, $63, $63, $63, $63, $63, $63, $63, $63, $3e, $00, $00, $00
035d0     00 00 60 30 
035d4     18 00 3B 6E 
035d8     66 06 06 06 
035dc     0F 00 00 00 | 	byte	$00, $00, $60, $30, $18, $00, $3b, $6e, $66, $06, $06, $06, $0f, $00, $00, $00
035e0     66 33 00 63 
035e4     63 63 63 63 
035e8     63 63 63 63 
035ec     3E 00 00 00 | 	byte	$66, $33, $00, $63, $63, $63, $63, $63, $63, $63, $63, $63, $3e, $00, $00, $00
035f0     00 00 60 30 
035f4     18 00 63 63 
035f8     63 63 63 63 
035fc     7E 60 30 1F | 	byte	$00, $00, $60, $30, $18, $00, $63, $63, $63, $63, $63, $63, $7e, $60, $30, $1f
03600     30 18 00 66 
03604     66 66 66 3C 
03608     18 18 18 18 
0360c     3C 00 00 00 | 	byte	$30, $18, $00, $66, $66, $66, $66, $3c, $18, $18, $18, $18, $3c, $00, $00, $00
03610     00 00 00 08 
03614     0C 0C 3F 0C 
03618     0C 0C 0C 6C 
0361c     38 18 30 1E | 	byte	$00, $00, $00, $08, $0c, $0c, $3f, $0c, $0c, $0c, $0c, $6c, $38, $18, $30, $1e
03620     30 18 00 00 
03624     00 00 00 00 
03628     00 00 00 00 
0362c     00 00 00 00 | 	byte	$30, $18, $00, $00, $00, $00, $00, $00, $00, $00, $00, $00, $00, $00, $00, $00
03630     00 00 00 00 
03634     00 00 00 00 | 	byte	$00[8]
03638     7F 00 00 00 
0363c     00 00 00 00 
03640     66 33 00 00 
03644     00 00 00 00 | 	byte	$7f, $00, $00, $00, $00, $00, $00, $00, $66, $33, $00, $00, $00, $00, $00, $00
03648     00 00 00 00 
0364c     00 00 00 00 
03650     00 00 00 00 
03654     00 00 00 00 
03658     00 00 00 00 
0365c     00          | 	byte	$00[21]
0365d     0C 06 3C 36 
03661     1C 00 00 00 
03665     00 00 00 00 
03669     00 00 00 00 | 	byte	$0c, $06, $3c, $36, $1c, $00, $00, $00, $00, $00, $00, $00, $00, $00, $00, $00
0366d     00 00 00 63 
03671     3E 00 00 00 
03675     00 00 00 00 
03679     00 00 00 00 | 	byte	$00, $00, $00, $63, $3e, $00, $00, $00, $00, $00, $00, $00, $00, $00, $00, $00
0367d     00 00 00 00 
03681     3E 63 06 1C 
03685     36 63 63 36 
03689     1C 30 63 3E | 	byte	$00, $00, $00, $00, $3e, $63, $06, $1c, $36, $63, $63, $36, $1c, $30, $63, $3e
0368d     00 00 00 00 
03691     00 00 00 00 | 	byte	$00[8]
03695     18 00 7E 00 
03699     18 00 00 00 
0369d     00 00 00 00 
036a1     00 00 00 00 | 	byte	$18, $00, $7e, $00, $18, $00, $00, $00, $00, $00, $00, $00, $00, $00, $00, $00
036a5     00 00 00 00 
036a9     00 00 00 00 | 	byte	$00[8]
036ad     18 30 1E 00 
036b1     00 00 1C 36 
036b5     36 1C 00 00 
036b9     00 00 00 00 | 	byte	$18, $30, $1e, $00, $00, $00, $1c, $36, $36, $1c, $00, $00, $00, $00, $00, $00
036bd     00 00 00 00 
036c1     63 00 00 00 
036c5     00 00 00 00 
036c9     00 00 00 00 | 	byte	$00, $00, $00, $00, $63, $00, $00, $00, $00, $00, $00, $00, $00, $00, $00, $00
036cd     00 00 00 18 
036d1     18 00 00 00 
036d5     00 00 00 00 
036d9     00 00 00 00 | 	byte	$00, $00, $00, $18, $18, $00, $00, $00, $00, $00, $00, $00, $00, $00, $00, $00
036dd     00 00 00 00 
036e1     00          | 	byte	$00[5]
036e2     CC 66 33 00 
036e6     33 33 33 33 
036ea     33 33 6E 00 
036ee     00 00 36 1C | 	byte	$cc, $66, $33, $00, $33, $33, $33, $33, $33, $33, $6e, $00, $00, $00, $36, $1c
036f2     00 3F 66 66 
036f6     66 3E 36 66 
036fa     66 66 6F 00 
036fe     00 00 00 00 | 	byte	$00, $3f, $66, $66, $66, $3e, $36, $66, $66, $66, $6f, $00, $00, $00, $00, $00
03702     36 1C 08 00 
03706     3B 6E 66 06 
0370a     06 06 0F 00 
0370e     00 00 00 00 | 	byte	$36, $1c, $08, $00, $3b, $6e, $66, $06, $06, $06, $0f, $00, $00, $00, $00, $00
03712     00 00 00 7E 
03716     7E 7E 7E 7E 
0371a     7E 7E 00 00 
0371e     00 00 00 00 | 	byte	$00, $00, $00, $7e, $7e, $7e, $7e, $7e, $7e, $7e, $00, $00, $00, $00, $00, $00
03722     00 00 00 00 
03726     00 00 00 00 
0372a     00 00 00 00 
0372e     00 00       | 	byte	$00, $00, $00, $00, $00, $00, $00, $00, $00, $00, $00, $00, $00, $00
03730     00 00 00 00 
      ...             
03760     00 00 00 00 
03764     00 00 00    | st_font        file "st4font.def"
03767     FF FF 00 00 
0376b     00 00 00 00 
0376f     00 18 18 18 
03773     18 18 18 18 | 	byte	$ff, $ff, $00, $00, $00, $00, $00, $00, $00, $18, $18, $18, $18, $18, $18, $18
03777     18 18 18 18 
0377b     18 18 18 18 
0377f     18          | 	byte	$18[9]
03780     00 00 00 00 
03784     00 00 00    | 	byte	$00[7]
03787     FF FF 18 18 
0378b     18 18 18 18 
0378f     18 18 18 18 
03793     18 18 18 18 | 	byte	$ff, $ff, $18, $18, $18, $18, $18, $18, $18, $18, $18, $18, $18, $18, $18, $18
03797     FF FF 00 00 
0379b     00 00 00 00 
0379f     00 18 18 18 
037a3     18 18 18 18 | 	byte	$ff, $ff, $00, $00, $00, $00, $00, $00, $00, $18, $18, $18, $18, $18, $18, $18
037a7     1F 1F 18 18 
037ab     18 18 18 18 
037af     18 18 18 18 
037b3     18 18 18 18 | 	byte	$1f, $1f, $18, $18, $18, $18, $18, $18, $18, $18, $18, $18, $18, $18, $18, $18
037b7     F8 F8 18 18 
037bb     18 18 18 18 
037bf     18 00 00 00 
037c3     00 00 00 00 | 	byte	$f8, $f8, $18, $18, $18, $18, $18, $18, $18, $00, $00, $00, $00, $00, $00, $00
037c7     1F 1F 18 18 
037cb     18 18 18 18 
037cf     18 00 00 00 
037d3     00 00 00 00 | 	byte	$1f, $1f, $18, $18, $18, $18, $18, $18, $18, $00, $00, $00, $00, $00, $00, $00
037d7     F8 F8 18 18 
037db     18 18 18 18 
037df     18 18 18 18 
037e3     18 18 18 18 | 	byte	$f8, $f8, $18, $18, $18, $18, $18, $18, $18, $18, $18, $18, $18, $18, $18, $18
037e7     1F 1F 00 00 
037eb     00 00 00 00 
037ef     00 18 18 18 
037f3     18 18 18 18 | 	byte	$1f, $1f, $00, $00, $00, $00, $00, $00, $00, $18, $18, $18, $18, $18, $18, $18
037f7     F8 F8 00 00 
037fb     00 00 00 00 
037ff     00 18 18 18 
03803     18 18 18 18 | 	byte	$f8, $f8, $00, $00, $00, $00, $00, $00, $00, $18, $18, $18, $18, $18, $18, $18
03807     FF FF 18 18 
0380b     18 18 18 18 
0380f     18 00 00 18 
03813     3C 7E 66 66 | 	byte	$ff, $ff, $18, $18, $18, $18, $18, $18, $18, $00, $00, $18, $3c, $7e, $66, $66
03817     66 7E 7E 66 
0381b     66 66 66 30 
0381f     18 00 00 7E 
03823     7E 06 06 3E | 	byte	$66, $7e, $7e, $66, $66, $66, $66, $30, $18, $00, $00, $7e, $7e, $06, $06, $3e
03827     3E 06 06 06 
0382b     06 7E 7E 18 
0382f     0C 30 18 3C 
03833     7E 66 66 06 | 	byte	$3e, $06, $06, $06, $06, $7e, $7e, $18, $0c, $30, $18, $3c, $7e, $66, $66, $06
03837     06 06 06 66 
0383b     66 7E 3C 00 
0383f     00 30 18 66 
03843     66 66 6E 6E | 	byte	$06, $06, $06, $66, $66, $7e, $3c, $00, $00, $30, $18, $66, $66, $66, $6e, $6e
03847     7E 7E 76 76 
0384b     66 66 66 00 
0384f     00 30 18 7C 
03853     7E 06 06 0E | 	byte	$7e, $7e, $76, $76, $66, $66, $66, $00, $00, $30, $18, $7c, $7e, $06, $06, $0e
03857     1C 38 70 60 
0385b     60 7E 3E 00 
0385f     00 30 18 7E 
03863     7E 30 30 18 | 	byte	$1c, $38, $70, $60, $60, $7e, $3e, $00, $00, $30, $18, $7e, $7e, $30, $30, $18
03867     18 0C 0C 06 
0386b     06 7E 7E 00 
0386f     00 18 18 00 
03873     7E 7E 30 30 | 	byte	$18, $0c, $0c, $06, $06, $7e, $7e, $00, $00, $18, $18, $00, $7e, $7e, $30, $30
03877     18 18 0C 0C 
0387b     06 7E 7E 00 
0387f     00 30 18 3C 
03883     7E 66 66 66 | 	byte	$18, $18, $0c, $0c, $06, $7e, $7e, $00, $00, $30, $18, $3c, $7e, $66, $66, $66
03887     66 66 66 66 
0388b     66          | 	byte	$66[5]
0388c     7E 3C 00 00 
03890     00 00 06 06 
03894     06 06 16 1E 
03898     0E 06 06 06 | 	byte	$7e, $3c, $00, $00, $00, $00, $06, $06, $06, $06, $16, $1e, $0e, $06, $06, $06
0389c     7E 7E 00 00 
038a0     00 00 00 00 
038a4     00 3C 7C 60 
038a8     7C 7E 66 66 | 	byte	$7e, $7e, $00, $00, $00, $00, $00, $00, $00, $3c, $7c, $60, $7c, $7e, $66, $66
038ac     7E 7C 30 18 
038b0     00 00 00 00 
038b4     00 3C 7E 66 
038b8     66 7E 06 06 | 	byte	$7e, $7c, $30, $18, $00, $00, $00, $00, $00, $3c, $7e, $66, $66, $7e, $06, $06
038bc     7E 7C 18 0C 
038c0     00 00 30 18 
038c4     00 3C 3E 06 
038c8     06 06 06 06 | 	byte	$7e, $7c, $18, $0c, $00, $00, $30, $18, $00, $3c, $3e, $06, $06, $06, $06, $06
038cc     7E 7C 00 00 
038d0     00 00 30 18 
038d4     00 3E 7E 66 
038d8     66 66 66 66 | 	byte	$7e, $7c, $00, $00, $00, $00, $30, $18, $00, $3e, $7e, $66, $66, $66, $66, $66
038dc     66 66 00 00 
038e0     00 00 30 18 
038e4     00 7C 7E 06 
038e8     0E 3C 70 60 | 	byte	$66, $66, $00, $00, $00, $00, $30, $18, $00, $7c, $7e, $06, $0e, $3c, $70, $60
038ec     7E 3E 00 00 
038f0     00 00 30 18 
038f4     00 7E 7E 30 
038f8     18 18 0C 0C | 	byte	$7e, $3e, $00, $00, $00, $00, $30, $18, $00, $7e, $7e, $30, $18, $18, $0c, $0c
038fc     7E 7E 00 00 
03900     00 00 18 18 
03904     00 7E 7E 30 
03908     18 18 0C 0C | 	byte	$7e, $7e, $00, $00, $00, $00, $18, $18, $00, $7e, $7e, $30, $18, $18, $0c, $0c
0390c     7E 7E 00 00 
03910     00 00 30 18 
03914     00 3C 7E 66 
03918     66 66 66 66 | 	byte	$7e, $7e, $00, $00, $00, $00, $30, $18, $00, $3c, $7e, $66, $66, $66, $66, $66
0391c     7E 3C 00 00 
03920     00 00 1C 1C 
03924     18 18 38 3C 
03928     1C 18 18 18 | 	byte	$7e, $3c, $00, $00, $00, $00, $1c, $1c, $18, $18, $38, $3c, $1c, $18, $18, $18
0392c     3C 3C 00 00 
03930     00 00 00 00 
03934     00 00 00 00 
03938     00 00 00 00 | 	byte	$3c, $3c, $00, $00, $00, $00, $00, $00, $00, $00, $00, $00, $00, $00, $00, $00
0393c     00 00 00 00 
03940     00 00       | 	byte	$00[6]
03942     18 18 18 18 
03946     18 18 18 18 | 	byte	$18[8]
0394a     00 00 18 18 
0394e     00 00 00 00 
03952     66 66 66 66 
03956     00 00 00 00 | 	byte	$00, $00, $18, $18, $00, $00, $00, $00, $66, $66, $66, $66, $00, $00, $00, $00
0395a     00 00 00 00 
0395e     00 00 00 00 
03962     00          | 	byte	$00[9]
03963     66 66 FF FF 
03967     66 66 FF FF 
0396b     66 66 00 00 
0396f     00 00 18 18 | 	byte	$66, $66, $ff, $ff, $66, $66, $ff, $ff, $66, $66, $00, $00, $00, $00, $18, $18
03973     7C 7E 06 06 
03977     3E 7C 60 60 
0397b     7E 3E 18 18 
0397f     00 00 00 66 | 	byte	$7c, $7e, $06, $06, $3e, $7c, $60, $60, $7e, $3e, $18, $18, $00, $00, $00, $66
03983     66 30 30 18 
03987     18 0C 0C 66 
0398b     66 00 00 00 
0398f     00 00 3C 7E | 	byte	$66, $30, $30, $18, $18, $0c, $0c, $66, $66, $00, $00, $00, $00, $00, $3c, $7e
03993     66 66 3C 1C 
03997     1C FC FE 66 
0399b     66 FE FC 00 
0399f     00 00 00 18 | 	byte	$66, $66, $3c, $1c, $1c, $fc, $fe, $66, $66, $fe, $fc, $00, $00, $00, $00, $18
039a3     18 18 18 18 
039a7     00 00 00 00 
039ab     00 00 00 00 
039af     00 00 00 30 | 	byte	$18, $18, $18, $18, $00, $00, $00, $00, $00, $00, $00, $00, $00, $00, $00, $30
039b3     18 1C 0C 0C 
039b7     0C 0C 0C 0C 
039bb     1C 18 30 00 
039bf     00 00 00 0C | 	byte	$18, $1c, $0c, $0c, $0c, $0c, $0c, $0c, $1c, $18, $30, $00, $00, $00, $00, $0c
039c3     18 38 30 30 
039c7     30 30 30 30 
039cb     38 18 0C 00 
039cf     00 00 00 00 | 	byte	$18, $38, $30, $30, $30, $30, $30, $30, $38, $18, $0c, $00, $00, $00, $00, $00
039d3     66 66 3C 3C 
039d7     FF FF 3C 3C 
039db     66 66 00 00 
039df     00 00 00 00 | 	byte	$66, $66, $3c, $3c, $ff, $ff, $3c, $3c, $66, $66, $00, $00, $00, $00, $00, $00
039e3     00 18 18 18 
039e7     7E 7E 18 18 
039eb     18 00 00 00 
039ef     00 00 00 00 | 	byte	$00, $18, $18, $18, $7e, $7e, $18, $18, $18, $00, $00, $00, $00, $00, $00, $00
039f3     00 00 00 00 
039f7     00 00       | 	byte	$00[6]
039f9     18 18 18 18 
039fd     18          | 	byte	$18[5]
039fe     0C 04 00 00 
03a02     00 00 00 00 
03a06     7E 7E 00 00 
03a0a     00 00 00 00 | 	byte	$0c, $04, $00, $00, $00, $00, $00, $00, $7e, $7e, $00, $00, $00, $00, $00, $00
03a0e     00 00 00 00 
03a12     00 00 00 00 
03a16     00 00 00 00 
03a1a     00          | 	byte	$00[13]
03a1b     18 18 18 00 
03a1f     00 00 00 60 
03a23     60 60 30 30 
03a27     18 18 0C 0C | 	byte	$18, $18, $18, $00, $00, $00, $00, $60, $60, $60, $30, $30, $18, $18, $0c, $0c
03a2b     06 06 06 00 
03a2f     00 00 00 3C 
03a33     7E 66 66 66 
03a37     76 6E 66 66 | 	byte	$06, $06, $06, $00, $00, $00, $00, $3c, $7e, $66, $66, $66, $76, $6e, $66, $66
03a3b     66 7E 3C 00 
03a3f     00 00 00 18 
03a43     18 1C 1C 18 
03a47     18 18 18 18 | 	byte	$66, $7e, $3c, $00, $00, $00, $00, $18, $18, $1c, $1c, $18, $18, $18, $18, $18
03a4b     18 7E 7E 00 
03a4f     00 00 00 3C 
03a53     7E 66 66 30 
03a57     30 18 18 0C | 	byte	$18, $7e, $7e, $00, $00, $00, $00, $3c, $7e, $66, $66, $30, $30, $18, $18, $0c
03a5b     0C 7E 7E 00 
03a5f     00 00 00 7E 
03a63     7E 30 30 18 
03a67     18 30 30 66 | 	byte	$0c, $7e, $7e, $00, $00, $00, $00, $7e, $7e, $30, $30, $18, $18, $30, $30, $66
03a6b     66 7E 3C 00 
03a6f     00 00 00 30 
03a73     30 38 38 3C 
03a77     3C 36 36 7E | 	byte	$66, $7e, $3c, $00, $00, $00, $00, $30, $30, $38, $38, $3c, $3c, $36, $36, $7e
03a7b     7E 30 30 00 
03a7f     00 00 00 7E 
03a83     7E 06 06 3E 
03a87     7E 60 60 60 | 	byte	$7e, $30, $30, $00, $00, $00, $00, $7e, $7e, $06, $06, $3e, $7e, $60, $60, $60
03a8b     66 7E 3C 00 
03a8f     00 00 00 38 
03a93     3C 0E 06 06 
03a97     3E 7E 66 66 | 	byte	$66, $7e, $3c, $00, $00, $00, $00, $38, $3c, $0e, $06, $06, $3e, $7e, $66, $66
03a9b     66 7E 3C 00 
03a9f     00 00 00 7E 
03aa3     7E 60 60 30 
03aa7     30 18 18 0C | 	byte	$66, $7e, $3c, $00, $00, $00, $00, $7e, $7e, $60, $60, $30, $30, $18, $18, $0c
03aab     0C 0C 0C 00 
03aaf     00 00 00 3C 
03ab3     7E 66 66 3C 
03ab7     3C 66 66 66 | 	byte	$0c, $0c, $0c, $00, $00, $00, $00, $3c, $7e, $66, $66, $3c, $3c, $66, $66, $66
03abb     66 7E 3C 00 
03abf     00 00 00 3C 
03ac3     7E 66 66 7E 
03ac7     7C 60 60 60 | 	byte	$66, $7e, $3c, $00, $00, $00, $00, $3c, $7e, $66, $66, $7e, $7c, $60, $60, $60
03acb     70 3C 1C 00 
03acf     00 00 00 00 
03ad3     00 00 18 18 
03ad7     18 00 00 00 | 	byte	$70, $3c, $1c, $00, $00, $00, $00, $00, $00, $00, $18, $18, $18, $00, $00, $00
03adb     18 18 18 00 
03adf     00 00 00 00 
03ae3     00 00 18 18 
03ae7     18 00 00 18 | 	byte	$18, $18, $18, $00, $00, $00, $00, $00, $00, $00, $18, $18, $18, $00, $00, $18
03aeb     18 18 18 0C 
03aef     04 00 00 00 
03af3     70 38 1C 0E 
03af7     07 0E 1C 38 | 	byte	$18, $18, $18, $0c, $04, $00, $00, $00, $70, $38, $1c, $0e, $07, $0e, $1c, $38
03afb     70 00 00 00 
03aff     00 00 00 00 
03b03     00 00 7E 7E 
03b07     00 00 7E 7E | 	byte	$70, $00, $00, $00, $00, $00, $00, $00, $00, $00, $7e, $7e, $00, $00, $7e, $7e
03b0b     00 00 00 00 
03b0f     00 00 00 00 | 	byte	$00[8]
03b13     0E 1C 38 70 
03b17     E0 70 38 1C 
03b1b     0E 00 00 00 
03b1f     00 00 00 3C | 	byte	$0e, $1c, $38, $70, $e0, $70, $38, $1c, $0e, $00, $00, $00, $00, $00, $00, $3c
03b23     7E 66 66 30 
03b27     30 18 18 18 
03b2b     00 18 18 00 
03b2f     00 00 00 3C | 	byte	$7e, $66, $66, $30, $30, $18, $18, $18, $00, $18, $18, $00, $00, $00, $00, $3c
03b33     7E 66 66 66 
03b37     66 36 06 66 
03b3b     66 7E 3C 00 
03b3f     00 00 00 18 | 	byte	$7e, $66, $66, $66, $66, $36, $06, $66, $66, $7e, $3c, $00, $00, $00, $00, $18
03b43     3C 7E 66 66 
03b47     66 7E 7E 66 
03b4b     66 66 66 00 
03b4f     00 00 00 3E | 	byte	$3c, $7e, $66, $66, $66, $7e, $7e, $66, $66, $66, $66, $00, $00, $00, $00, $3e
03b53     7E 66 66 7E 
03b57     3E 66 66 66 
03b5b     66 7E 3E 00 
03b5f     00 00 00 3C | 	byte	$7e, $66, $66, $7e, $3e, $66, $66, $66, $66, $7e, $3e, $00, $00, $00, $00, $3c
03b63     7E 66 66 06 
03b67     06 06 06 66 
03b6b     66 7E 3C 00 
03b6f     00 00 00 3E | 	byte	$7e, $66, $66, $06, $06, $06, $06, $66, $66, $7e, $3c, $00, $00, $00, $00, $3e
03b73     7E 66 66 66 
03b77     66 66 66 66 
03b7b     66 7E 3E 00 
03b7f     00 00 00 7E | 	byte	$7e, $66, $66, $66, $66, $66, $66, $66, $66, $7e, $3e, $00, $00, $00, $00, $7e
03b83     7E 06 06 3E 
03b87     3E 06 06 06 
03b8b     06 7E 7E 00 
03b8f     00 00 00 7E | 	byte	$7e, $06, $06, $3e, $3e, $06, $06, $06, $06, $7e, $7e, $00, $00, $00, $00, $7e
03b93     7E 06 06 3E 
03b97     3E 06 06 06 
03b9b     06 06 06 00 
03b9f     00 00 00 7C | 	byte	$7e, $06, $06, $3e, $3e, $06, $06, $06, $06, $06, $06, $00, $00, $00, $00, $7c
03ba3     7E 06 06 76 
03ba7     76 66 66 66 
03bab     66 7E 3C 00 
03baf     00 00 00 66 | 	byte	$7e, $06, $06, $76, $76, $66, $66, $66, $66, $7e, $3c, $00, $00, $00, $00, $66
03bb3     66 66 66 7E 
03bb7     7E 66 66 66 
03bbb     66 66 66 00 
03bbf     00 00 00 7E | 	byte	$66, $66, $66, $7e, $7e, $66, $66, $66, $66, $66, $66, $00, $00, $00, $00, $7e
03bc3     7E 18 18 18 
03bc7     18 18 18 18 
03bcb     18 7E 7E 00 
03bcf     00 00 00 60 | 	byte	$7e, $18, $18, $18, $18, $18, $18, $18, $18, $7e, $7e, $00, $00, $00, $00, $60
03bd3     60 60 60 60 
03bd7     60 60 60    | 	byte	$60[7]
03bda     66 66 7E 3C 
03bde     00 00 00 00 
03be2     66 66 36 36 
03be6     1E 1E 36 36 | 	byte	$66, $66, $7e, $3c, $00, $00, $00, $00, $66, $66, $36, $36, $1e, $1e, $36, $36
03bea     66 66 C6 C6 
03bee     00 00 00 00 
03bf2     06 06 06 06 
03bf6     06 06 06 06 | 	byte	$66, $66, $c6, $c6, $00, $00, $00, $00, $06, $06, $06, $06, $06, $06, $06, $06
03bfa     06 06 7E 7E 
03bfe     00 00 00 00 
03c02     C6 C6 EE EE 
03c06     FE D6 D6 C6 | 	byte	$06, $06, $7e, $7e, $00, $00, $00, $00, $c6, $c6, $ee, $ee, $fe, $d6, $d6, $c6
03c0a     C6 C6 C6 C6 
03c0e     00 00 00 00 
03c12     66 66 66 6E 
03c16     6E 7E 7E 76 | 	byte	$c6, $c6, $c6, $c6, $00, $00, $00, $00, $66, $66, $66, $6e, $6e, $7e, $7e, $76
03c1a     76 66 66 66 
03c1e     00 00 00 00 
03c22     3C 7E 66 66 
03c26     66 66 66 66 | 	byte	$76, $66, $66, $66, $00, $00, $00, $00, $3c, $7e, $66, $66, $66, $66, $66, $66
03c2a     66 66 7E 3C 
03c2e     00 00 00 00 
03c32     3E 7E 66 66 
03c36     66 66 7E 3E | 	byte	$66, $66, $7e, $3c, $00, $00, $00, $00, $3e, $7e, $66, $66, $66, $66, $7e, $3e
03c3a     06 06 06 06 
03c3e     00 00 00 00 
03c42     3C 7E 66 66 
03c46     66 66 66 66 | 	byte	$06, $06, $06, $06, $00, $00, $00, $00, $3c, $7e, $66, $66, $66, $66, $66, $66
03c4a     66 56 3E 6C 
03c4e     00 00 00 00 
03c52     3E 7E 66 66 
03c56     66 7E 3E 36 | 	byte	$66, $56, $3e, $6c, $00, $00, $00, $00, $3e, $7e, $66, $66, $66, $7e, $3e, $36
03c5a     66 66 C6 C6 
03c5e     00 00 00 00 
03c62     7C 7E 06 06 
03c66     0E 1C 38 70 | 	byte	$66, $66, $c6, $c6, $00, $00, $00, $00, $7c, $7e, $06, $06, $0e, $1c, $38, $70
03c6a     60 60 7E 3E 
03c6e     00 00 00 00 
03c72     7E 7E 18 18 
03c76     18 18 18 18 | 	byte	$60, $60, $7e, $3e, $00, $00, $00, $00, $7e, $7e, $18, $18, $18, $18, $18, $18
03c7a     18 18 18 18 
03c7e     00 00 00 00 
03c82     66 66 66 66 
03c86     66 66 66 66 | 	byte	$18, $18, $18, $18, $00, $00, $00, $00, $66, $66, $66, $66, $66, $66, $66, $66
03c8a     66 66 7E 3C 
03c8e     00 00 00 00 
03c92     66 66 66 66 
03c96     66 66 66 66 | 	byte	$66, $66, $7e, $3c, $00, $00, $00, $00, $66, $66, $66, $66, $66, $66, $66, $66
03c9a     3C 3C 18 18 
03c9e     00 00 00 00 
03ca2     C6 C6 C6 C6 
03ca6     C6 D6 D6 FE | 	byte	$3c, $3c, $18, $18, $00, $00, $00, $00, $c6, $c6, $c6, $c6, $c6, $d6, $d6, $fe
03caa     FE EE C6 82 
03cae     00 00 00 00 
03cb2     66 66 66 3C 
03cb6     3C 18 18 3C | 	byte	$fe, $ee, $c6, $82, $00, $00, $00, $00, $66, $66, $66, $3c, $3c, $18, $18, $3c
03cba     3C 66 66 66 
03cbe     00 00 00 00 
03cc2     66 66 66 66 
03cc6     66 3C 3C 18 | 	byte	$3c, $66, $66, $66, $00, $00, $00, $00, $66, $66, $66, $66, $66, $3c, $3c, $18
03cca     18 18 18 18 
03cce     00 00 00 00 
03cd2     7E 7E 30 30 
03cd6     18 18 0C 0C | 	byte	$18, $18, $18, $18, $00, $00, $00, $00, $7e, $7e, $30, $30, $18, $18, $0c, $0c
03cda     06 06 7E 7E 
03cde     00 00 00 00 
03ce2     3C 3C 0C 0C 
03ce6     0C 0C 0C 0C | 	byte	$06, $06, $7e, $7e, $00, $00, $00, $00, $3c, $3c, $0c, $0c, $0c, $0c, $0c, $0c
03cea     0C 0C 3C 3C 
03cee     00 00 00 00 
03cf2     06 06 0C 0C 
03cf6     18 18 30 30 | 	byte	$0c, $0c, $3c, $3c, $00, $00, $00, $00, $06, $06, $0c, $0c, $18, $18, $30, $30
03cfa     60 60 C0 C0 
03cfe     00 00 00 00 
03d02     3C 3C 30 30 
03d06     30 30 30 30 | 	byte	$60, $60, $c0, $c0, $00, $00, $00, $00, $3c, $3c, $30, $30, $30, $30, $30, $30
03d0a     30 30 3C 3C 
03d0e     00 00 00 00 
03d12     18 18 3C 3C 
03d16     66 66 00 00 | 	byte	$30, $30, $3c, $3c, $00, $00, $00, $00, $18, $18, $3c, $3c, $66, $66, $00, $00
03d1a     00 00 00 00 
03d1e     00 00 00 00 
03d22     00 00 00 00 
03d26     00 00 00 00 
03d2a     00 00       | 	byte	$00[18]
03d2c     FE FE 00 00 
03d30     00 00 0C 0C 
03d34     18 18 00 00 
03d38     00 00 00 00 | 	byte	$fe, $fe, $00, $00, $00, $00, $0c, $0c, $18, $18, $00, $00, $00, $00, $00, $00
03d3c     00 00 00 00 
03d40     00 00 00 00 
03d44     00          | 	byte	$00[9]
03d45     3C 7C 60 7C 
03d49     7E 66 66 7E 
03d4d     7C 00 00 00 
03d51     00 06 06 06 | 	byte	$3c, $7c, $60, $7c, $7e, $66, $66, $7e, $7c, $00, $00, $00, $00, $06, $06, $06
03d55     3E 7E 66 66 
03d59     66 66 66 7E 
03d5d     3E 00 00 00 
03d61     00 00 00 00 | 	byte	$3e, $7e, $66, $66, $66, $66, $66, $7e, $3e, $00, $00, $00, $00, $00, $00, $00
03d65     3C 3E 06 06 
03d69     06 06 06 7E 
03d6d     7C 00 00 00 
03d71     00 60 60 60 | 	byte	$3c, $3e, $06, $06, $06, $06, $06, $7e, $7c, $00, $00, $00, $00, $60, $60, $60
03d75     7C 7E 66 66 
03d79     66 66 66 7E 
03d7d     7C 00 00 00 
03d81     00 00 00 00 | 	byte	$7c, $7e, $66, $66, $66, $66, $66, $7e, $7c, $00, $00, $00, $00, $00, $00, $00
03d85     3C 7E 66 66 
03d89     7E 06 06 7E 
03d8d     7C 00 00 00 
03d91     00 70 78 18 | 	byte	$3c, $7e, $66, $66, $7e, $06, $06, $7e, $7c, $00, $00, $00, $00, $70, $78, $18
03d95     18 7E 7E 18 
03d99     18 18 18 18 
03d9d     18 00 00 00 
03da1     00 00 00 00 | 	byte	$18, $7e, $7e, $18, $18, $18, $18, $18, $18, $00, $00, $00, $00, $00, $00, $00
03da5     7C 7E 66 66 
03da9     66 66 7E 7C 
03dad     60 7E 3E 00 
03db1     00 06 06 06 | 	byte	$7c, $7e, $66, $66, $66, $66, $7e, $7c, $60, $7e, $3e, $00, $00, $06, $06, $06
03db5     3E 7E 66 66 
03db9     66 66 66 66 
03dbd     66 00 00 00 
03dc1     00 18 18 00 | 	byte	$3e, $7e, $66, $66, $66, $66, $66, $66, $66, $00, $00, $00, $00, $18, $18, $00
03dc5     1C 1C 18 18 
03dc9     18 18 18 3C 
03dcd     3C 00 00 00 
03dd1     00 30 30 00 | 	byte	$1c, $1c, $18, $18, $18, $18, $18, $3c, $3c, $00, $00, $00, $00, $30, $30, $00
03dd5     30 30 30 30 
03dd9     30 30 30 30 
03ddd     30          | 	byte	$30[9]
03dde     3E 1E 00 00 
03de2     06 06 06 36 
03de6     36 1E 1E 1E 
03dea     36 36 66 66 | 	byte	$3e, $1e, $00, $00, $06, $06, $06, $36, $36, $1e, $1e, $1e, $36, $36, $66, $66
03dee     00 00 00 00 
03df2     1C 1C 18 18 
03df6     18 18 18 18 
03dfa     18 18 3C 3C | 	byte	$00, $00, $00, $00, $1c, $1c, $18, $18, $18, $18, $18, $18, $18, $18, $3c, $3c
03dfe     00 00 00 00 
03e02     00 00 00    | 	byte	$00[7]
03e05     6C FE FE D6 
03e09     D6 C6 C6 C6 
03e0d     C6 00 00 00 
03e11     00 00 00 00 | 	byte	$6c, $fe, $fe, $d6, $d6, $c6, $c6, $c6, $c6, $00, $00, $00, $00, $00, $00, $00
03e15     3E 7E 66 66 
03e19     66 66 66 66 
03e1d     66 00 00 00 
03e21     00 00 00 00 | 	byte	$3e, $7e, $66, $66, $66, $66, $66, $66, $66, $00, $00, $00, $00, $00, $00, $00
03e25     3C 7E 66 66 
03e29     66 66 66 7E 
03e2d     3C 00 00 00 
03e31     00 00 00 00 | 	byte	$3c, $7e, $66, $66, $66, $66, $66, $7e, $3c, $00, $00, $00, $00, $00, $00, $00
03e35     3E 7E 66 66 
03e39     66 66 66 7E 
03e3d     3E 06 06 00 
03e41     00 00 00 00 | 	byte	$3e, $7e, $66, $66, $66, $66, $66, $7e, $3e, $06, $06, $00, $00, $00, $00, $00
03e45     7C 7E 66 66 
03e49     66 66 66 7E 
03e4d     7C 60 60 00 
03e51     00 00 00 00 | 	byte	$7c, $7e, $66, $66, $66, $66, $66, $7e, $7c, $60, $60, $00, $00, $00, $00, $00
03e55     3E 7E 66 06 
03e59     06 06 06 06 
03e5d     06 00 00 00 
03e61     00 00 00 00 | 	byte	$3e, $7e, $66, $06, $06, $06, $06, $06, $06, $00, $00, $00, $00, $00, $00, $00
03e65     7C 7E 06 0E 
03e69     3C 70 60 7E 
03e6d     3E 00 00 00 
03e71     00 00 18 18 | 	byte	$7c, $7e, $06, $0e, $3c, $70, $60, $7e, $3e, $00, $00, $00, $00, $00, $18, $18
03e75     7E 7E 18 18 
03e79     18 18 18 78 
03e7d     70 00 00 00 
03e81     00 00 00 00 | 	byte	$7e, $7e, $18, $18, $18, $18, $18, $78, $70, $00, $00, $00, $00, $00, $00, $00
03e85     66 66 66 66 
03e89     66 66 66    | 	byte	$66[7]
03e8c     7E 7C 00 00 
03e90     00 00 00 00 
03e94     00 66 66 66 
03e98     66 66 3C 3C | 	byte	$7e, $7c, $00, $00, $00, $00, $00, $00, $00, $66, $66, $66, $66, $66, $3c, $3c
03e9c     18 18 00 00 
03ea0     00 00 00 00 
03ea4     00 C6 C6 D6 
03ea8     D6 FE FE EE | 	byte	$18, $18, $00, $00, $00, $00, $00, $00, $00, $c6, $c6, $d6, $d6, $fe, $fe, $ee
03eac     C6 82 00 00 
03eb0     00 00 00 00 
03eb4     00 66 66 3C 
03eb8     3C 18 3C 3C | 	byte	$c6, $82, $00, $00, $00, $00, $00, $00, $00, $66, $66, $3c, $3c, $18, $3c, $3c
03ebc     66 66 00 00 
03ec0     00 00 00 00 
03ec4     00 66 66 66 
03ec8     66 66 66 7E | 	byte	$66, $66, $00, $00, $00, $00, $00, $00, $00, $66, $66, $66, $66, $66, $66, $7e
03ecc     7C 60 7E 3E 
03ed0     00 00 00 00 
03ed4     00 7E 7E 30 
03ed8     18 18 0C 0C | 	byte	$7c, $60, $7e, $3e, $00, $00, $00, $00, $00, $7e, $7e, $30, $18, $18, $0c, $0c
03edc     7E 7E 00 00 
03ee0     00 00 30 18 
03ee4     18 18 18 0C 
03ee8     0C 18 18 18 | 	byte	$7e, $7e, $00, $00, $00, $00, $30, $18, $18, $18, $18, $0c, $0c, $18, $18, $18
03eec     18 30 00 00 
03ef0     00 00 18 18 
03ef4     18 18 18 18 
03ef8     18 18 18 18 | 	byte	$18, $30, $00, $00, $00, $00, $18, $18, $18, $18, $18, $18, $18, $18, $18, $18
03efc     18 18 00 00 
03f00     00 00 0C 18 
03f04     18 18 18 30 
03f08     30 18 18 18 | 	byte	$18, $18, $00, $00, $00, $00, $0c, $18, $18, $18, $18, $30, $30, $18, $18, $18
03f0c     18 0C 00 00 
03f10     00 00 6C 7E 
03f14     36 00 00 00 
03f18     00 00 00 00 | 	byte	$18, $0c, $00, $00, $00, $00, $6c, $7e, $36, $00, $00, $00, $00, $00, $00, $00
03f1c     00 00 00 00 
03f20     00 00 00 00 
03f24     00          | 	byte	$00[9]
03f25     18 18 18 18 
03f29     18 18 00 00 
03f2d     00 00 00    | 	byte	$18, $18, $18, $18, $18, $18, $00, $00, $00, $00, $00
03f30     00 00 00 00 
03f34     00 FF FF FF | twocolors      long  $00000000,$FFFFFF00
03f38     00 00 00 00 
03f3c     00 80 80 80 
03f40     00 00 00 FF 
03f44     00 FF FF FF | fourcolors     long  $00000000,$80808000,$FF000000,$FFFFFF00 'black,red,gray,white
03f48     00 00 00 00 
03f4c     00          | vga16          long  $00000000,$00008000,$00800000,$00808000,$80000000,$80008000,$80400000,$AAAAAA00,$55555500,$0000FF00,$00FF0000,$00FFFF00,$FF000000,$FF00FF00,$FFFF0000,$FFFFFF00
03f4d     80 00 00 00 
03f51     00 80 00 00 
03f55     80 80 00 00 
03f59     00 00 80 00 | 	byte	$80, $00, $00, $00, $00, $80, $00, $00, $80, $80, $00, $00, $00, $00, $80, $00
03f5d     80 00 80 00 
03f61     00 40 80 00 
03f65     AA AA AA 00 
03f69     55 55 55 00 | 	byte	$80, $00, $80, $00, $00, $40, $80, $00, $aa, $aa, $aa, $00, $55, $55, $55, $00
03f6d     FF 00 00 00 
03f71     00 FF 00 00 
03f75     FF FF 00 00 
03f79     00 00 FF 00 | 	byte	$ff, $00, $00, $00, $00, $ff, $00, $00, $ff, $ff, $00, $00, $00, $00, $ff, $00
03f7d     FF 00 FF 00 
03f81     00 FF FF 00 
03f85     FF FF FF    | 	byte	$ff, $00, $ff, $00, $00, $ff, $ff, $00, $ff, $ff, $ff
03f88     00 00 00 00 
03f8c     00          | ataripalette   file "ataripalettep2.def"
03f8d     11 11 11 00 
03f91     22 22 22 00 
03f95     33 33 33 00 
03f99     44 44 44 00 | 	byte	$11, $11, $11, $00, $22, $22, $22, $00, $33, $33, $33, $00, $44, $44, $44, $00
03f9d     55 55 55 00 
03fa1     66 66 66 00 
03fa5     77 77 77 00 
03fa9     88 88 88 00 | 	byte	$55, $55, $55, $00, $66, $66, $66, $00, $77, $77, $77, $00, $88, $88, $88, $00
03fad     99 99 99 00 
03fb1     AA AA AA 00 
03fb5     BB BB BB 00 
03fb9     CC CC CC 00 | 	byte	$99, $99, $99, $00, $aa, $aa, $aa, $00, $bb, $bb, $bb, $00, $cc, $cc, $cc, $00
03fbd     DD DD DD 00 
03fc1     EE EE EE 00 
03fc5     FF FF FF 00 
03fc9     00 0A 20 00 | 	byte	$dd, $dd, $dd, $00, $ee, $ee, $ee, $00, $ff, $ff, $ff, $00, $00, $0a, $20, $00
03fcd     00 14 40 00 
03fd1     00 1E 60 00 
03fd5     00 28 80 00 
03fd9     00 32 9F 00 | 	byte	$00, $14, $40, $00, $00, $1e, $60, $00, $00, $28, $80, $00, $00, $32, $9f, $00
03fdd     00 3C BF 00 
03fe1     00 46 DF 00 
03fe5     00 50 FF 00 
03fe9     1C 63 FF 00 | 	byte	$00, $3c, $bf, $00, $00, $46, $df, $00, $00, $50, $ff, $00, $1c, $63, $ff, $00
03fed     39 77 FF 00 
03ff1     55 8A FF 00 
03ff5     71 9E FF 00 
03ff9     8E B1 FF 00 | 	byte	$39, $77, $ff, $00, $55, $8a, $ff, $00, $71, $9e, $ff, $00, $8e, $b1, $ff, $00
03ffd     AA C5 FF 00 
04001     C6 D8 FF 00 
04005     E3 EC FF 00 
04009     00 00 20 00 | 	byte	$aa, $c5, $ff, $00, $c6, $d8, $ff, $00, $e3, $ec, $ff, $00, $00, $00, $20, $00
0400d     00 00 40 00 
04011     00 00 60 00 
04015     00 00 80 00 
04019     00 00 9F 00 | 	byte	$00, $00, $40, $00, $00, $00, $60, $00, $00, $00, $80, $00, $00, $00, $9f, $00
0401d     00 00 BF 00 
04021     00 00 DF 00 
04025     00 00 FF 00 
04029     1C 1C FF 00 | 	byte	$00, $00, $bf, $00, $00, $00, $df, $00, $00, $00, $ff, $00, $1c, $1c, $ff, $00
0402d     39 39 FF 00 
04031     55 55 FF 00 
04035     71 71 FF 00 
04039     8E 8E FF 00 | 	byte	$39, $39, $ff, $00, $55, $55, $ff, $00, $71, $71, $ff, $00, $8e, $8e, $ff, $00
0403d     AA AA FF 00 
04041     C6 C6 FF 00 
04045     E3 E3 FF 00 
04049     10 00 20 00 | 	byte	$aa, $aa, $ff, $00, $c6, $c6, $ff, $00, $e3, $e3, $ff, $00, $10, $00, $20, $00
0404d     20 00 40 00 
04051     30 00 60 00 
04055     40 00 80 00 
04059     50 00 9F 00 | 	byte	$20, $00, $40, $00, $30, $00, $60, $00, $40, $00, $80, $00, $50, $00, $9f, $00
0405d     60 00 BF 00 
04061     70 00 DF 00 
04065     80 00 FF 00 
04069     8E 1C FF 00 | 	byte	$60, $00, $bf, $00, $70, $00, $df, $00, $80, $00, $ff, $00, $8e, $1c, $ff, $00
0406d     9C 39 FF 00 
04071     AA 55 FF 00 
04075     B8 71 FF 00 
04079     C7 8E FF 00 | 	byte	$9c, $39, $ff, $00, $aa, $55, $ff, $00, $b8, $71, $ff, $00, $c7, $8e, $ff, $00
0407d     D5 AA FF 00 
04081     E3 C6 FF 00 
04085     F1 E3 FF 00 
04089     20 00 20 00 | 	byte	$d5, $aa, $ff, $00, $e3, $c6, $ff, $00, $f1, $e3, $ff, $00, $20, $00, $20, $00
0408d     40 00 40 00 
04091     60 00 60 00 
04095     80 00 80 00 
04099     9F 00 9F 00 | 	byte	$40, $00, $40, $00, $60, $00, $60, $00, $80, $00, $80, $00, $9f, $00, $9f, $00
0409d     BF 00 BF 00 
040a1     DF 00 DF 00 
040a5     FF 00 FF 00 
040a9     FF 1C FF 00 | 	byte	$bf, $00, $bf, $00, $df, $00, $df, $00, $ff, $00, $ff, $00, $ff, $1c, $ff, $00
040ad     FF 39 FF 00 
040b1     FF 55 FF 00 
040b5     FF 71 FF 00 
040b9     FF 8E FF 00 | 	byte	$ff, $39, $ff, $00, $ff, $55, $ff, $00, $ff, $71, $ff, $00, $ff, $8e, $ff, $00
040bd     FF AA FF 00 
040c1     FF C6 FF 00 
040c5     FF E3 FF 00 
040c9     20 00 10 00 | 	byte	$ff, $aa, $ff, $00, $ff, $c6, $ff, $00, $ff, $e3, $ff, $00, $20, $00, $10, $00
040cd     40 00 20 00 
040d1     60 00 30 00 
040d5     80 00 40 00 
040d9     9F 00 50 00 | 	byte	$40, $00, $20, $00, $60, $00, $30, $00, $80, $00, $40, $00, $9f, $00, $50, $00
040dd     BF 00 60 00 
040e1     DF 00 70 00 
040e5     FF 00 80 00 
040e9     FF 1C 8E 00 | 	byte	$bf, $00, $60, $00, $df, $00, $70, $00, $ff, $00, $80, $00, $ff, $1c, $8e, $00
040ed     FF 39 9C 00 
040f1     FF 55 AA 00 
040f5     FF 71 B8 00 
040f9     FF 8E C7 00 | 	byte	$ff, $39, $9c, $00, $ff, $55, $aa, $00, $ff, $71, $b8, $00, $ff, $8e, $c7, $00
040fd     FF AA D5 00 
04101     FF C6 E3 00 
04105     FF E3 F1 00 
04109     20 00 00 00 | 	byte	$ff, $aa, $d5, $00, $ff, $c6, $e3, $00, $ff, $e3, $f1, $00, $20, $00, $00, $00
0410d     40 00 00 00 
04111     60 00 00 00 
04115     80 00 00 00 
04119     9F 00 00 00 | 	byte	$40, $00, $00, $00, $60, $00, $00, $00, $80, $00, $00, $00, $9f, $00, $00, $00
0411d     BF 00 00 00 
04121     DF 00 00 00 
04125     FF 00 00 00 
04129     FF 1C 1C 00 | 	byte	$bf, $00, $00, $00, $df, $00, $00, $00, $ff, $00, $00, $00, $ff, $1c, $1c, $00
0412d     FF 39 39 00 
04131     FF 55 55 00 
04135     FF 71 71 00 
04139     FF 8E 8E 00 | 	byte	$ff, $39, $39, $00, $ff, $55, $55, $00, $ff, $71, $71, $00, $ff, $8e, $8e, $00
0413d     FF AA AA 00 
04141     FF C6 C6 00 
04145     FF E3 E3 00 
04149     20 08 00 00 | 	byte	$ff, $aa, $aa, $00, $ff, $c6, $c6, $00, $ff, $e3, $e3, $00, $20, $08, $00, $00
0414d     40 10 00 00 
04151     60 18 00 00 
04155     80 20 00 00 
04159     9F 28 00 00 | 	byte	$40, $10, $00, $00, $60, $18, $00, $00, $80, $20, $00, $00, $9f, $28, $00, $00
0415d     BF 30 00 00 
04161     DF 38 00 00 
04165     FF 40 00 00 
04169     FF 55 1C 00 | 	byte	$bf, $30, $00, $00, $df, $38, $00, $00, $ff, $40, $00, $00, $ff, $55, $1c, $00
0416d     FF 6A 39 00 
04171     FF 80 55 00 
04175     FF 95 71 00 
04179     FF AA 8E 00 | 	byte	$ff, $6a, $39, $00, $ff, $80, $55, $00, $ff, $95, $71, $00, $ff, $aa, $8e, $00
0417d     FF BF AA 00 
04181     FF D5 C6 00 
04185     FF EA E3 00 
04189     20 10 00 00 | 	byte	$ff, $bf, $aa, $00, $ff, $d5, $c6, $00, $ff, $ea, $e3, $00, $20, $10, $00, $00
0418d     40 20 00 00 
04191     60 30 00 00 
04195     80 40 00 00 
04199     9F 50 00 00 | 	byte	$40, $20, $00, $00, $60, $30, $00, $00, $80, $40, $00, $00, $9f, $50, $00, $00
0419d     BF 60 00 00 
041a1     DF 70 00 00 
041a5     FF 80 00 00 
041a9     FF 8E 1C 00 | 	byte	$bf, $60, $00, $00, $df, $70, $00, $00, $ff, $80, $00, $00, $ff, $8e, $1c, $00
041ad     FF 9C 39 00 
041b1     FF AA 55 00 
041b5     FF B8 71 00 
041b9     FF C7 8E 00 | 	byte	$ff, $9c, $39, $00, $ff, $aa, $55, $00, $ff, $b8, $71, $00, $ff, $c7, $8e, $00
041bd     FF D5 AA 00 
041c1     FF E3 C6 00 
041c5     FF F1 E3 00 
041c9     20 18 00 00 | 	byte	$ff, $d5, $aa, $00, $ff, $e3, $c6, $00, $ff, $f1, $e3, $00, $20, $18, $00, $00
041cd     40 30 00 00 
041d1     60 48 00 00 
041d5     80 60 00 00 
041d9     9F 78 00 00 | 	byte	$40, $30, $00, $00, $60, $48, $00, $00, $80, $60, $00, $00, $9f, $78, $00, $00
041dd     BF 90 00 00 
041e1     DF A8 00 00 
041e5     FF C0 00 00 
041e9     FF C7 1C 00 | 	byte	$bf, $90, $00, $00, $df, $a8, $00, $00, $ff, $c0, $00, $00, $ff, $c7, $1c, $00
041ed     FF CE 39 00 
041f1     FF D5 55 00 
041f5     FF DC 71 00 
041f9     FF E3 8E 00 | 	byte	$ff, $ce, $39, $00, $ff, $d5, $55, $00, $ff, $dc, $71, $00, $ff, $e3, $8e, $00
041fd     FF EA AA 00 
04201     FF F1 C6 00 
04205     FF F8 E3 00 
04209     18 20 00 00 | 	byte	$ff, $ea, $aa, $00, $ff, $f1, $c6, $00, $ff, $f8, $e3, $00, $18, $20, $00, $00
0420d     30 40 00 00 
04211     48 60 00 00 
04215     60 80 00 00 
04219     78 9F 00 00 | 	byte	$30, $40, $00, $00, $48, $60, $00, $00, $60, $80, $00, $00, $78, $9f, $00, $00
0421d     90 BF 00 00 
04221     A8 DF 00 00 
04225     C0 FF 00 00 
04229     C7 FF 1C 00 | 	byte	$90, $bf, $00, $00, $a8, $df, $00, $00, $c0, $ff, $00, $00, $c7, $ff, $1c, $00
0422d     CE FF 39 00 
04231     D5 FF 55 00 
04235     DC FF 71 00 
04239     E3 FF 8E 00 | 	byte	$ce, $ff, $39, $00, $d5, $ff, $55, $00, $dc, $ff, $71, $00, $e3, $ff, $8e, $00
0423d     EA FF AA 00 
04241     F1 FF C6 00 
04245     F8 FF E3 00 
04249     00 20 00 00 | 	byte	$ea, $ff, $aa, $00, $f1, $ff, $c6, $00, $f8, $ff, $e3, $00, $00, $20, $00, $00
0424d     00 40 00 00 
04251     00 60 00 00 
04255     00 80 00 00 
04259     00 9F 00 00 | 	byte	$00, $40, $00, $00, $00, $60, $00, $00, $00, $80, $00, $00, $00, $9f, $00, $00
0425d     00 BF 00 00 
04261     00 DF 00 00 
04265     00 FF 00 00 
04269     1C FF 1C 00 | 	byte	$00, $bf, $00, $00, $00, $df, $00, $00, $00, $ff, $00, $00, $1c, $ff, $1c, $00
0426d     39 FF 39 00 
04271     55 FF 55 00 
04275     71 FF 71 00 
04279     8E FF 8E 00 | 	byte	$39, $ff, $39, $00, $55, $ff, $55, $00, $71, $ff, $71, $00, $8e, $ff, $8e, $00
0427d     AA FF AA 00 
04281     C6 FF C6 00 
04285     E3 FF E3 00 
04289     00 20 0A 00 | 	byte	$aa, $ff, $aa, $00, $c6, $ff, $c6, $00, $e3, $ff, $e3, $00, $00, $20, $0a, $00
0428d     00 40 14 00 
04291     00 60 1E 00 
04295     00 80 28 00 
04299     00 9F 32 00 | 	byte	$00, $40, $14, $00, $00, $60, $1e, $00, $00, $80, $28, $00, $00, $9f, $32, $00
0429d     00 BF 3C 00 
042a1     00 DF 46 00 
042a5     00 FF 50 00 
042a9     1C FF 63 00 | 	byte	$00, $bf, $3c, $00, $00, $df, $46, $00, $00, $ff, $50, $00, $1c, $ff, $63, $00
042ad     39 FF 77 00 
042b1     55 FF 8A 00 
042b5     71 FF 9E 00 
042b9     8E FF B1 00 | 	byte	$39, $ff, $77, $00, $55, $ff, $8a, $00, $71, $ff, $9e, $00, $8e, $ff, $b1, $00
042bd     AA FF C5 00 
042c1     C6 FF D8 00 
042c5     E3 FF EC 00 
042c9     00 20 14 00 | 	byte	$aa, $ff, $c5, $00, $c6, $ff, $d8, $00, $e3, $ff, $ec, $00, $00, $20, $14, $00
042cd     00 40 28 00 
042d1     00 60 3C 00 
042d5     00 80 50 00 
042d9     00 9F 64 00 | 	byte	$00, $40, $28, $00, $00, $60, $3c, $00, $00, $80, $50, $00, $00, $9f, $64, $00
042dd     00 BF 78 00 
042e1     00 DF 8C 00 
042e5     00 FF A0 00 
042e9     1C FF AB 00 | 	byte	$00, $bf, $78, $00, $00, $df, $8c, $00, $00, $ff, $a0, $00, $1c, $ff, $ab, $00
042ed     39 FF B5 00 
042f1     55 FF C0 00 
042f5     71 FF CA 00 
042f9     8E FF D5 00 | 	byte	$39, $ff, $b5, $00, $55, $ff, $c0, $00, $71, $ff, $ca, $00, $8e, $ff, $d5, $00
042fd     AA FF DF 00 
04301     C6 FF EA 00 
04305     E3 FF F4 00 
04309     00 20 20 00 | 	byte	$aa, $ff, $df, $00, $c6, $ff, $ea, $00, $e3, $ff, $f4, $00, $00, $20, $20, $00
0430d     00 40 40 00 
04311     00 60 60 00 
04315     00 80 80 00 
04319     00 9F 9F 00 | 	byte	$00, $40, $40, $00, $00, $60, $60, $00, $00, $80, $80, $00, $00, $9f, $9f, $00
0431d     00 BF BF 00 
04321     00 DF DF 00 
04325     00 FF FF 00 
04329     1C FF FF 00 | 	byte	$00, $bf, $bf, $00, $00, $df, $df, $00, $00, $ff, $ff, $00, $1c, $ff, $ff, $00
0432d     39 FF FF 00 
04331     55 FF FF 00 
04335     71 FF FF 00 
04339     8E FF FF 00 | 	byte	$39, $ff, $ff, $00, $55, $ff, $ff, $00, $71, $ff, $ff, $00, $8e, $ff, $ff, $00
0433d     AA FF FF 00 
04341     C6 FF FF 00 
04345     E3 FF FF 00 
04349     00 14 20 00 | 	byte	$aa, $ff, $ff, $00, $c6, $ff, $ff, $00, $e3, $ff, $ff, $00, $00, $14, $20, $00
0434d     00 28 40 00 
04351     00 3C 60 00 
04355     00 50 80 00 
04359     00 64 9F 00 | 	byte	$00, $28, $40, $00, $00, $3c, $60, $00, $00, $50, $80, $00, $00, $64, $9f, $00
0435d     00 78 BF 00 
04361     00 8C DF 00 
04365     00 A0 FF 00 
04369     1C AB FF 00 | 	byte	$00, $78, $bf, $00, $00, $8c, $df, $00, $00, $a0, $ff, $00, $1c, $ab, $ff, $00
0436d     39 B5 FF 00 
04371     55 C0 FF 00 
04375     71 CA FF 00 
04379     8E D5 FF 00 | 	byte	$39, $b5, $ff, $00, $55, $c0, $ff, $00, $71, $ca, $ff, $00, $8e, $d5, $ff, $00
0437d     AA DF FF 00 
04381     C6 EA FF 00 
04385     E3 F4 FF    | 	byte	$aa, $df, $ff, $00, $c6, $ea, $ff, $00, $e3, $f4, $ff
04388                 | '**********************************************************************************
04388                 | '
04388                 | '        Timings and colors definitions
04388                 | '
04388                 | '**********************************************************************************
04388                 | 
04388                 |    'streamer sets for text mode, to add to timings[0..5]
04388                 | 
04388                 | 
04388                 | '                     bf.hs, hs,  bf.vis  visible, lr bord, pixel, ud bord,  up p., vsync, down p., mode, cpl, scanlines,  clock,                  hubset                  total vis lines
04388     10 00 00 00 
0438c     50 00 00 00 
04390     14 00 00 00 
04394     00 04 00 00 | timings000      long   16,   80,    20,    1024,    112,     8,     48,      16,      16,    16,      0,  100,   480,     354693878,   %1_110000__11_0110_1100__1111_1011,   576
04398     70 00 00 00 
0439c     08 00 00 00 
043a0     30 00 00 00 
043a4     10 00 00 00 | 	byte	$70, $00, $00, $00, $08, $00, $00, $00, $30, $00, $00, $00, $10, $00, $00, $00
043a8     10 00 00 00 
043ac     10 00 00 00 
043b0     00 00 00 00 
043b4     64 00 00 00 | 	byte	$10, $00, $00, $00, $10, $00, $00, $00, $00, $00, $00, $00, $64, $00, $00, $00
043b8     E0 01 00 00 
043bc     F6 32 24 15 
043c0     FB 6C C3 01 
043c4     40 02 00 00 | 	byte	$e0, $01, $00, $00, $f6, $32, $24, $15, $fb, $6c, $c3, $01, $40, $02, $00, $00
043c8     12 00 00 00 
043cc     30 00 00 00 
043d0     10 00 00 00 
043d4     B0 03 00 00 | timings064      long   18,   48,    16,     944,     24,     8,     24,      24,      32,    24,     64,  112,   496,     319215686,   %1_110010__11_0010_1101__1111_1011,   544
043d8     18 00 00 00 
043dc     08 00 00 00 
043e0     18 00 00 00 
043e4     18 00 00 00 | 	byte	$18, $00, $00, $00, $08, $00, $00, $00, $18, $00, $00, $00, $18, $00, $00, $00
043e8     20 00 00 00 
043ec     18 00 00 00 
043f0     40 00 00 00 
043f4     70 00 00 00 | 	byte	$20, $00, $00, $00, $18, $00, $00, $00, $40, $00, $00, $00, $70, $00, $00, $00
043f8     F0 01 00 00 
043fc     46 D8 06 13 
04400     FB 2D CB 01 
04404     20 02 00 00 | 	byte	$f0, $01, $00, $00, $46, $d8, $06, $13, $fb, $2d, $cb, $01, $20, $02, $00, $00
04408     10 00 00 00 
0440c     40 00 00 00 
04410     10 00 00 00 
04414     30 03 00 00 | timings128      long   16,   64,    16,     816,      8,     8,     8,       32,      64,    32,    128,  100,   480,     283750000,   %1_111111__11_1000_1011__1111_1011,   496
04418     08 00 00 00 
0441c     08 00 00 00 
04420     08 00 00 00 
04424     20 00 00 00 | 	byte	$08, $00, $00, $00, $08, $00, $00, $00, $08, $00, $00, $00, $20, $00, $00, $00
04428     40 00 00 00 
0442c     20 00 00 00 
04430     80 00 00 00 
04434     64 00 00 00 | 	byte	$40, $00, $00, $00, $20, $00, $00, $00, $80, $00, $00, $00, $64, $00, $00, $00
04438     E0 01 00 00 
0443c     70 AE E9 10 
04440     FB 8B FF 01 
04444     F0 01 00 00 | 	byte	$e0, $01, $00, $00, $70, $ae, $e9, $10, $fb, $8b, $ff, $01, $f0, $01, $00, $00
04448     10 00 00 00 
0444c     50 00 00 00 
04450     14 00 00 00 
04454     00 04 00 00 | timings192      long   16,   80,    20,    1024,      0,     8,     0,       16,      16,    16,    192,  128,   576,     354693878,   %1_110000__11_0110_1100__1111_1011,   576
04458     00 00 00 00 
0445c     08 00 00 00 
04460     00 00 00 00 
04464     10 00 00 00 | 	byte	$00, $00, $00, $00, $08, $00, $00, $00, $00, $00, $00, $00, $10, $00, $00, $00
04468     10 00 00 00 
0446c     10 00 00 00 
04470     C0 00 00 00 
04474     80 00 00 00 | 	byte	$10, $00, $00, $00, $10, $00, $00, $00, $c0, $00, $00, $00, $80, $00, $00, $00
04478     40 02 00 00 
0447c     F6 32 24 15 
04480     FB 6C C3 01 
04484     40 02 00 00 | 	byte	$40, $02, $00, $00, $f6, $32, $24, $15, $fb, $6c, $c3, $01, $40, $02, $00, $00
04488     50 00 00 00 
0448c     A0 00 00 00 
04490     54 00 00 00 
04494     30 03 00 00 | timings256      long   80,  160,    84,     816,      8,     8,     8,        8,      12,     8,    256,  100,   480,     357959184,   %1_110000__11_0110_0100__1111_1011,   496
04498     08 00 00 00 
0449c     08 00 00 00 
044a0     08 00 00 00 
044a4     08 00 00 00 | 	byte	$08, $00, $00, $00, $08, $00, $00, $00, $08, $00, $00, $00, $08, $00, $00, $00
044a8     0C 00 00 00 
044ac     08 00 00 00 
044b0     00 01 00 00 
044b4     64 00 00 00 | 	byte	$0c, $00, $00, $00, $08, $00, $00, $00, $00, $01, $00, $00, $64, $00, $00, $00
044b8     E0 01 00 00 
044bc     10 06 56 15 
044c0     FB 64 C3 01 
044c4     F0 01 00 00 | 	byte	$e0, $01, $00, $00, $10, $06, $56, $15, $fb, $64, $c3, $01, $f0, $01, $00, $00
044c8     50 00 00 00 
044cc     32 00 00 00 
044d0     50 00 00 00 
044d4     30 03 00 00 | timings320      long   80,   50,    80,     816,      8,     8,     8,        8,      12,     8,    320,  100,   480,     322162162,   %1_100100__10_0101_0011__1111_1011,   496
044d8     08 00 00 00 
044dc     08 00 00 00 
044e0     08 00 00 00 
044e4     08 00 00 00 | 	byte	$08, $00, $00, $00, $08, $00, $00, $00, $08, $00, $00, $00, $08, $00, $00, $00
044e8     0C 00 00 00 
044ec     08 00 00 00 
044f0     40 01 00 00 
044f4     64 00 00 00 | 	byte	$0c, $00, $00, $00, $08, $00, $00, $00, $40, $01, $00, $00, $64, $00, $00, $00
044f8     E0 01 00 00 
044fc     F2 CD 33 13 
04500     FB 53 92 01 
04504     F0 01 00 00 | 	byte	$e0, $01, $00, $00, $f2, $cd, $33, $13, $fb, $53, $92, $01, $f0, $01, $00, $00
04508     18 00 00 00 
0450c     30 00 00 00 
04510     18 00 00 00 
04514     30 03 00 00 | timings384      long   24,   48,    24,     816,      8,     8,     8,        8,      12,     8,    384,  100,   480,     286363636,   %1_010101__01_0011_1010__1111_1011,   496
04518     08 00 00 00 
0451c     08 00 00 00 
04520     08 00 00 00 
04524     08 00 00 00 | 	byte	$08, $00, $00, $00, $08, $00, $00, $00, $08, $00, $00, $00, $08, $00, $00, $00
04528     0C 00 00 00 
0452c     08 00 00 00 
04530     80 01 00 00 
04534     64 00 00 00 | 	byte	$0c, $00, $00, $00, $08, $00, $00, $00, $80, $01, $00, $00, $64, $00, $00, $00
04538     E0 01 00 00 
0453c     F4 8F 11 11 
04540     FB 3A 55 01 
04544     F0 01 00 00 | 	byte	$e0, $01, $00, $00, $f4, $8f, $11, $11, $fb, $3a, $55, $01, $f0, $01, $00, $00
04548     20 00 00 00 
0454c     40 00 00 00 
04550     22 00 00 00 
04554     80 03 00 00 | timings448      long   32,   64,    34,     896,      0,     8,     0,        8,      12,     8,    448,  112,   496,     322162162,   %1_100100__10_0101_0011__1111_1011,   496
04558     00 00 00 00 
0455c     08 00 00 00 
04560     00 00 00 00 
04564     08 00 00 00 | 	byte	$00, $00, $00, $00, $08, $00, $00, $00, $00, $00, $00, $00, $08, $00, $00, $00
04568     0C 00 00 00 
0456c     08 00 00 00 
04570     C0 01 00 00 
04574     70 00 00 00 | 	byte	$0c, $00, $00, $00, $08, $00, $00, $00, $c0, $01, $00, $00, $70, $00, $00, $00
04578     F0 01 00 00 
0457c     F2 CD 33 13 
04580     FB 53 92 01 
04584     F0 01 00 00 | 	byte	$f0, $01, $00, $00, $f2, $cd, $33, $13, $fb, $53, $92, $01, $f0, $01, $00, $00
04588                 | 'timings999      long    0,    0,     0,       0,      0,     0,     0,        0,       0,     0,      0,    0,     0,             0,                                    0,     0
04588     00 75 C7 97 
0458c     27 47 F6 0A 
04590     05 79 CB 9B 
04594     2B 4B EA 0F | vgacolors       byte   0, 117, 199, 151, 39, 71, 246, 10, 5, 121, 203, 155, 43, 75, 234, 15
04598                 | 
04598     28 12 64 FD | hdmi            setq    #9
0459c     00 E1 06 FB |                 rdlong  framebuf,  ptra                  'read pointers
045a0                 | 
045a0     00 28 6F FC |                 wrlong  #aend,#0                         'write driver length to hub#0: DEBUG/demo
045a4     3C 00 66 FD |                 setcmod #$100                            'enable HDMI mode
045a8     C0 FB 06 F6 |                 mov     ii,#448                          '7 << 6          
045ac     79 FB 02 F1 |                 add     ii,hbase
045b0     58 FA 62 FD |                 drvl    ii                                 '#7<<6 + hdmi_base      ' enable HDMI pins
045b4     7B 0B 80 FF 
045b8     7D 01 0B FC |                 wrpin   ##%10110_1111_0111_10_00000_0, ii  '#7<<6 + hdmi_base      ' a '123 ohm BITDAC for pins
045bc                 | 
045bc     66 66 86 FF 
045c0     1D 9A 65 FD |                 setxfrq ##$0CCCCCCC+1                   'set streamer freq to 1/10th clk
045c4                 | 
045c4                 | 
045c4                 | ''--------  frame rendering main loop  ---------------------------------------------------
045c4                 | 
045c4                 | p101
045c4     28 14 64 FD |                 setq    #10
045c8     00 E1 06 FB |                 rdlong  framebuf,  ptra
045cc     28 1E 64 FD |                 setq    #15
045d0     75 9D 02 FB |                 rdlong  m_bs,modeptr                     ' read timings
045d4     72 9B 02 FB |                 rdlong  border,borderptr
045d8                 | 
045d8     01 C6 06 F1 |                 add     frames,#1
045dc     77 F7 02 F6 |                 mov     dlptr2,dlptr
045e0                 | 
045e0     74 C9 02 FB |                 rdlong  cursorx, cursorptr               ' read cursor position
045e4     64 CB EA F8 |                 getbyte cursory, cursorx,#1              ' y position at byte #1
045e8     64 C5 F2 F8 |                 getbyte cursorsh,cursorx,#2              ' shape at byte #2
045ec     FF C8 06 F5 |                 and     cursorx,#255                     ' clear the cursor x varioble from y and shape
045f0                 |  '' up porch
045f0                 | 
045f0     49 FF 02 F6 |                 mov     hsync0,sync_000                  '
045f4     4A 01 03 F6 |                 mov     hsync1,sync_001
045f8     37 AA 46 FB |                 callpa  i_upporch ,#blank
045fc     73 01 68 FC |                 wrlong  #0,vblankptr
04600                 |                 
04600     1F EC 16 F4 |                 testb   paletteptr,#31 wc
04604     29 FE 65 3D |          if_nc  setq2   #255
04608     76 01 00 3B |          if_nc  rdlong  $000, paletteptr                'read palette
0460c                 | 
0460c                 | '' cursor blinking
0460c                 | 
0460c     04 C6 0E F4 |                 testb   frames,#4 wz                     ' cursor blinks at framerate/16, todo: define
04610     81 C8 06 A6 |          if_z   mov     cursorx,#129                     ' to switch the cursor off, move it out of the screen
04614                 | 
04614                 | '' main screen
04614                 | 
04614     00 C0 06 F6 |                 mov linenum,#0
04618     00 1A 07 F6 |                 mov rcnt,#0
0461c     00 1E 07 F6 |                 mov rcnt2a,#0
04620                 | 
04620                 | 
04620     00 1A 0F F2 | p301            cmp rcnt,#0 wz
04624     18 00 90 AD |         if_z    jmp #p306
04628     01 1A 87 F1 |                 sub rcnt,#1
0462c     91 F9 02 F6 |                 mov dl,rdl
04630     8E 1F 0B F7 |                incmod rcnt2a,rcnt2 wz
04634     90 F9 02 A1 |    if_z        add dl,roffset  
04638     7C 23 03 F6 |                 mov rdl,dl
0463c     04 00 90 FD |                 jmp #p307          
04640                 |           
04640                 |                 
04640     7B F9 02 FB | p306            rdlong  dl,dlptr2
04644     7C FD 1A F6 | p307            mov     framebuf2,dl wcz                  'read a line start in the framebuffer from DL entry
04648     6A FC 7A FD |                 rczr    framebuf2 wcz                     'but only if not %11 at lowest bits which means special DL entry
0464c     34 00 90 7D |    if_nz_or_nc  jmp     #p303                        
04650                 | 
04650                 | '' Special entry:
04650                 | '' - repeat                 %nnnn_nnnn_nnnn_qqqq_mmmm_mmmm_mmmm_0111    repeat the next dl line n times, after q lines add offset m
04650                 | '' - reload palette         %mmmm_mmmm_nnnn_nnnn_qqqq_qqqq_qqqq_1011    reload n palette entries from m color from palette_ptr+q
04650                 | '' - set border color       %rrrr_rrrr_gggg_gggg_bbbb_bbbb_0001_0011    set border to rgb
04650                 | '' - set border color       %0000_0000_0000_0000_pppp_pppp_0001_1011    set border color to palette entry #p
04650                 | '' todo: set horizontal scroll (if needed)
04650                 | 
04650     02 FC 66 F0 |                 shl framebuf2,#2
04654     7E 25 43 F8 |                 getnib dlc,framebuf2,#0
04658     04 24 0F F2 |                 cmp dlc,#%100 wz
0465c                 |   
0465c                 |                 
0465c     04 F6 06 F1 |                 add dlptr2,#4
04660     BC FF 9F 5D |                              if_nz  jmp #p301  '' now ignore unknown instruction 
04664     7B 23 03 FB |                  rdlong rdl,dlptr2
04668     7E 1B 3B F9 |                  getword rcnt,framebuf2,#1 
0466c     04 1A 47 F0 |                  shr rcnt,#4
04670                 |              
04670     7E 1D 63 F8 |                  getnib rcnt2,framebuf2,#4
04674     7E 21 33 F9 |                  getword roffset,framebuf2,#0
04678                 |                 
04678     04 20 47 F0 |                  shr roffset,#4
0467c     0C 20 67 F0 |                  shl roffset,#12
04680                 |   
04680     9C FF 9F FD |                  jmp #p301
04684                 |                  
04684                 |                  
04684                 | p303           ' mov     framebuf2,dl                    ' read a line start in the framebuffer from DL entry
04684     0C FC 46 F0 |                 shr     framebuf2,#12
04688     02 FC 66 F0 |                 shl     framebuf2,#2
0468c                 | 
0468c     7C 05 E3 F8 |                 getbyte t1,dl,#0
04690     00 04 0F F2 |                 cmp     t1,#0 wz
04694     34 00 90 AD |     if_z        jmp     #borderline
04698                 | 
04698     00 F8 16 F4 |                  testb   dl,#0  wc     ' bit 0 set = text OR extended:TODO
0469c     50 00 90 CD |           if_c   jmp     #textline
046a0     50 02 90 3D |           if_nc  jmp     #graphline
046a4                 | '
046a4     01 C0 06 F1 | p302            add     linenum,#1
046a8     04 F6 06 F1 |                 add     dlptr2,#4
046ac     5D C1 0A F2 |                 cmp     linenum,i_totalvis  wz
046b0     6C FF 9F 5D |          if_nz  jmp     #p301
046b4                 | 
046b4     73 03 68 FC | p112            wrlong  #1,vblankptr
046b8     07 AE 46 FB |                 callpa  i_downporch ,#blank             'bottom blanks
046bc                 | 
046bc     4B FF 02 F6 |                 mov     hsync0,sync_222                 'vsync on
046c0     4C 01 03 F6 |                 mov     hsync1,sync_223
046c4     04 AC 46 FB |                 callpa  i_vsync,#blank                  'vertical sync blanks
046c8     F8 FE 9F FD |                 jmp     #p101
046cc                 | 
046cc                 | '' ---------------  END of frame rendering loop -------------------------------------------
046cc                 | 
046cc                 | 
046cc     14 00 B0 FD | borderline      call    #hsync                      ' make a border
046d0     4D A3 C2 FC |                 xcont   m_vi,border
046d4     CC FF 9F FD |                 jmp     #p302
046d8                 | 
046d8                 | 
046d8     08 00 B0 FD | blank           call    #hsync                          'blank lines
046dc     7F A3 C2 FC |                 xcont   m_vi,hsync0
046e0     FD ED 6F 0B |         _ret_   djnz    pa,#blank
046e4                 | 
046e4     7F 9D C2 FC | hsync           xcont   m_bs,hsync0                     'horizontal sync
046e8     80 9F B2 FC |                 xzero   m_sn,hsync1
046ec     7F A1 C2 0C |         _ret_   xcont   m_bv,hsync0
046f0                 | 
046f0                 | 
046f0                 | 
046f0                 | ''--%aaaa_aaaa_aaaa_aaaa_aazz_nnnn_llll_ll_01 - txt
046f0                 |   '' aaaa_aaaa_aaaa_aaaa_aazz_rrrr_rrrr_cc_10 - graph
046f0                 |   '' aaaa_aaaa_aaaa-aaaa_aarr_rrrr_rrrr_rr_11 - extended, next long to read
046f0                 | 
046f0                 | '' Display a text line DL[31..12]=addr, nibble #1=textline, zoom: todo
046f0                 | 
046f0     64 CF 02 F6 | textline        mov     cursorpos2,cursorx              ' we need another var for cursor as this code will repeat 16x for every char line
046f4                 | 
046f4     7C 03 53 F8 |                 getnib  fontline,dl,#2                 ' fontline is 0 to 15, a line in font def
046f8     7C 19 5B F8 |                 getnib  zoom, dl,#3
046fc     03 18 07 F5 |                 and             zoom, #3
04700                 | 
04700                 | 
04700                 | 
04700     7C BF 02 F6 |                 mov     linestart,dl                    ' linestart will be used for checking cursor y and compute line start addr in the buffer
04704     02 BE 46 F0 |                 shr     linestart,#2                    ' scanline to char line
04708     3F BE 06 F5 |                 and     linestart,#63
0470c     65 BF 0A F2 |                 cmp     linestart,cursory wz            ' if the cursor is not here
04710     81 CE 06 56 |           if_nz mov     cursorpos2,#129                 ' move it out of the screen
04714                 | 
04714     CC FF BF FD |                 call    #hsync                          ' now call hsync to gain some time between xconts
04718                 | 
04718                 |                        ' if fontline =0, get a border color
04718                 | 
04718     52 05 33 F9 | p102            getword t1,m_border,#0
0471c     00 04 0F F2 |                 cmp     t1, #0 wz
04720     4D A5 C2 5C |           if_nz xcont   m_border,border                 ' display a left border if exists
04724                 | 
04724     62 03 1B F2 |                 cmp     fontline,cursorsh wcz           ' if the cursor have to be not displayed due to its shape
04728     81 CC 06 C6 |           if_c  mov     cursorpos,#129                  ' move it out of the screen
0472c     67 CD 02 36 |          if_nc  mov     cursorpos,cursorpos2
04730     01 CC 06 F1 |                 add     cursorpos,#1                    ' we will substract #1 below so compensate this here
04734     71 07 03 F6 |                 mov     t2,fontbuf                      ' font definition pointer
04738     81 07 03 F1 |                 add     t2,fontline                     ' add a current font line
0473c     53 BD 02 F6 |                 mov m_lut2, m_lut1
04740     6B BD 02 F1 |                 add m_lut2, lutt1
04744     59 11 03 F6 |                 mov cpl2,i_cpl
04748                 | 
04748     02 18 0F F2 |                cmp zoom,#2 wz
0474c     E4 00 90 AD |           if_z jmp #p420
04750     01 18 0F F2 |                cmp zoom,#1 wz
04754     64 00 90 AD |           if_z jmp #p410
04758     00 18 0F F2 |                 cmp zoom,#0 wz
0475c     04 00 90 AD |           if_z jmp #p400
04760     50 01 90 FD |                jmp #p430
04764                 | 
04764                 |                    '
04764                 |  ''---------------------------------------------------------------------------------------------------------
04764     7E 13 03 FB |  p400                   rdlong  char,framebuf2          ' read a long char                          '1
04768     89 15 F3 F8 |                         getbyte backcolor,char,#2       ' byte #2 - background color                '2
0476c     89 17 FB F8 |                         getbyte charcolor,char,#3       ' byte #3 - foreground color                '3
04770     89 13 E3 F8 |                         getbyte char,char, #0           ' word #0 - char code                       '4
04774     04 FC 06 F1 |                         add     framebuf2,#4            ' point to the next long                    '5
04778     04 12 67 F0 |                         shl     char,#4                 ' 1 char=16 bytes in font def               '6
0477c     83 13 03 F1 |                         add     char,t2                 ' add this to font/line pointer             '7
04780     89 05 C3 FA |                         rdbyte  t1,char                 ' and get 8 pixels prom there               '8
04784     01 CC 8E F1 |                         sub     cursorpos,#1 wz         ' if there is a cursor                      '9
04788     FF 04 67 A5 |                   if_z  xor     t1, #$FF                ' reverse the colors                        '10
0478c                 | 
0478c     82 BD C2 FC |                         xcont m_lut2,t1
04790                 | 
04790     8A 0D A3 FA |                         rdlut   t5,backcolor            ' read a background color from palette      '13
04794     61 0D 33 FC |                         wrlut   t5,lutaddr              ' and write it to LUT #0 or #32             '14
04798     01 C2 06 F1 |                         add     lutaddr,#1                                                          '15
0479c     8B 0D A3 FA |                         rdlut   t5,charcolor            ' the same for the foreground               '16
047a0     61 0D 33 FC |                         wrlut   t5,lutaddr                                                          '17
047a4     01 C2 86 F1 |                         sub     lutaddr,#1
047a8                 | 
047a8     10 BC E6 F4 |                         bitnot  m_lut2,#16                                                          '19
047ac     10 A6 E6 F4 |                         bitnot  m_lut1,#16                                                          '19
047b0     20 C2 66 F5 |                         xor     lutaddr,#32             ' use LUT #0-1 and 32-33                    '20
047b4                 | 
047b4     EB 11 6F FB |                         djnz   cpl2,#p400
047b8     28 01 90 FD |  p401                   jmp    #p103
047bc                 | 
047bc                 | ''------------------------------------------------------------------------------------------------------------
047bc                 | 
047bc     01 10 47 F0 |  p410                   shr cpl2,#1
047c0                 | 
047c0                 | ''---------------------------------------------------------------------------------------------------------
047c0     7E 13 03 FB |  p412                   rdlong  char,framebuf2          ' read a long char                          '1
047c4     89 15 F3 F8 |                         getbyte backcolor,char,#2       ' byte #2 - background color                '2
047c8     89 17 FB F8 |                         getbyte charcolor,char,#3       ' byte #3 - foreground color                '3
047cc     89 13 E3 F8 |                         getbyte char,char, #0           ' word #0 - char code                       '4
047d0     04 FC 06 F1 |                         add     framebuf2,#4            ' point to the next long                    '5
047d4     04 12 67 F0 |                         shl     char,#4                 ' 1 char=16 bytes in font def               '6
047d8     83 13 03 F1 |                         add     char,t2                 ' add this to font/line pointer             '7
047dc     89 05 C3 FA |                         rdbyte  t1,char                 ' and get 8 pixels prom there               '8
047e0     01 CC 8E F1 |                         sub     cursorpos,#1 wz         ' if there is a cursor                      '9
047e4     FF 04 67 A5 |                   if_z  xor     t1, #$FF                ' reverse the colors                        '10
047e8                 | 
047e8                 | 
047e8     82 09 4B F8 |                         getnib t3,t1,#1                   ' 4 pixels to t3                                              '1  - +
047ec     82 05 43 F8 |                         getnib t1,t1,#0                   ' 4 pixels to t1                                                      '2  - +
047f0     63 04 63 FD |                         mergew t1                         ' make 01010101 from 1111                                     '3  - +
047f4     03 04 07 FA |                         mul t1,#3
047f8     82 BD C2 FC |                         xcont m_lut2,t1
047fc     8A 0D A3 FA |                         rdlut   t5,backcolor            ' read a background color from palette      '13
04800     61 0D 33 FC |                         wrlut   t5,lutaddr              ' and write it to LUT #0 or #32             '14
04804     01 C2 06 F1 |                         add     lutaddr,#1                                                          '15
04808     8B 0D A3 FA |                         rdlut   t5,charcolor            ' the same for the foreground               '16
0480c     61 0D 33 FC |                         wrlut   t5,lutaddr                                                          '17
04810     01 C2 86 F1 |                         sub     lutaddr,#1
04814     63 08 63 FD |                         mergew t3
04818     03 08 07 FA |                         mul t3,#3
0481c     84 BD C2 FC |                         xcont m_lut2,t3
04820                 | 
04820     10 BC E6 F4 |                         bitnot  m_lut2,#16                                                          '19
04824     10 A6 E6 F4 |                         bitnot  m_lut1,#16                                                          '19
04828                 | 
04828     20 C2 66 F5 |                         xor     lutaddr,#32             ' use LUT #0-1 and 32-33                    '20
0482c                 | 
0482c     E4 11 6F FB |                         djnz   cpl2,#p412
04830     B0 00 90 FD |  p411                   jmp    #p103
04834                 | 
04834                 | ''------------------------------------------------------------------------------------------------------------
04834                 | 
04834     02 10 47 F0 |  p420                   shr cpl2,#2
04838                 | 
04838                 | ''---------------------------------------------------------------------------------------
04838     7E 13 03 FB |  p422                   rdlong  char,framebuf2          ' read a long char                          '1
0483c     89 15 F3 F8 |                         getbyte backcolor,char,#2       ' byte #2 - background color                '2
04840     89 17 FB F8 |                         getbyte charcolor,char,#3       ' byte #3 - foreground color                '3
04844     89 13 E3 F8 |                         getbyte char,char, #0           ' word #0 - char code                       '4
04848     04 FC 06 F1 |                         add     framebuf2,#4            ' point to the next long                    '5
0484c     04 12 67 F0 |                         shl     char,#4                 ' 1 char=16 bytes in font def               '6
04850     83 13 03 F1 |                         add     char,t2                 ' add this to font/line pointer             '7
04854     89 05 C3 FA |                         rdbyte  t1,char                 ' and get 8 pixels prom there               '8
04858     01 CC 8E F1 |                         sub     cursorpos,#1 wz         ' if there is a cursor                      '9
0485c     FF 04 67 A5 |                   if_z  xor     t1, #$FF                ' reverse the colors                        '10
04860                 | 
04860     61 04 63 FD |                         mergeb t1
04864     82 09 3B F9 |                         getword t3,t1,#1
04868     0F 04 07 FA |                         mul t1,#15
0486c     82 BD C2 FC |                         xcont m_lut2,t1
04870                 | 
04870     8A 0D A3 FA |                         rdlut   t5,backcolor            ' read a background color from palette      '13
04874     61 0D 33 FC |                         wrlut   t5,lutaddr              ' and write it to LUT #0 or #32             '14
04878     01 C2 06 F1 |                         add     lutaddr,#1                                                          '15
0487c     8B 0D A3 FA |                         rdlut   t5,charcolor            ' the same for the foreground               '16
04880     61 0D 33 FC |                         wrlut   t5,lutaddr                                                          '17
04884     01 C2 86 F1 |                         sub     lutaddr,#1
04888                 | 
04888     82 0B EB F8 |                         getbyte t4,t1,#1        '
0488c     85 BD C2 FC |                         xcont m_lut2,t4                                                                                                           '
04890                 | 
04890     0F 08 07 FA |                         mul t3,#15
04894     84 BD C2 FC |                         xcont m_lut2,t3
04898                 | 
04898     84 0D EB F8 |                         getbyte t5,t3,#1
0489c     86 BD C2 FC |                         xcont m_lut2, t5
048a0     10 BC E6 F4 |                         bitnot  m_lut2,#16                                                          '19
048a4     10 A6 E6 F4 |                         bitnot  m_lut1,#16                                                          '19
048a8                 | 
048a8     20 C2 66 F5 |                         xor     lutaddr,#32             ' use LUT #0-1 and 32-33                    '20
048ac                 | 
048ac     E2 11 6F FB |                         djnz   cpl2,#p422
048b0     30 00 90 FD |  p421                   jmp    #p103
048b4                 | 
048b4                 | '--------------------------------------------------------------------------------------------------------------
048b4                 | 
048b4     7E 13 03 FB |  p430                   rdlong  char,framebuf2          ' read a long char                          '1
048b8     89 15 F3 F8 |                         getbyte backcolor,char,#2       ' byte #2 - background color                '2
048bc     89 17 FB F8 |                         getbyte charcolor,char,#3       ' byte #3 - foreground color                '3
048c0                 | 
048c0     00 BC C6 FC |                         xcont m_lut2,#0
048c4                 | 
048c4     8A 0D A3 FA |                         rdlut   t5,backcolor            ' read a background color from palette      '13
048c8     61 0D 33 FC |                         wrlut   t5,lutaddr              ' and write it to LUT #0 or #32             '14
048cc     01 C2 06 F1 |                         add     lutaddr,#1                                                          '15
048d0     8B 0D A3 FA |                         rdlut   t5,charcolor            ' the same for the foreground               '16
048d4     61 0D 33 FC |                         wrlut   t5,lutaddr                                                          '17
048d8     01 C2 86 F1 |                         sub     lutaddr,#1
048dc                 | 
048dc     F5 11 6F FB |                         djnz   cpl2,#p430
048e0     00 00 90 FD |  p431                   jmp    #p103
048e4                 | 
048e4                 | ''------------------------------------------------------------------------------------------------------------
048e4                 | 
048e4                 | 
048e4                 | 
048e4     52 27 33 F9 | p103            getword  mb2,m_border,#0
048e8     00 26 0F F2 |                 cmp      mb2, #0 wz
048ec     4D A5 C2 5C |                 if_nz    xcont   m_border,border            'display a right border if exists
048f0                 | 
048f0     B0 FD 9F FD |                 jmp #p302
048f4                 | 
048f4                 | '' -------------------------------------- END of text line ---------------------------------
048f4                 | 
048f4                 |   '' aaaa_aaaa_aaaa_aaaa_aazz_rrrr_rrrr_cc_10 - graph - display a graphics line
048f4                 | 
048f4     EC FD BF FD | graphline       call    #hsync                          ' now call hsync to gain some time between xconts
048f8                 | 
048f8                 | 
048f8     52 27 33 F9 | p202            getword mb2,m_border,#0
048fc     00 26 0F F2 |                 cmp     mb2, #0 wz
04900     4D A5 C2 5C |           if_nz xcont   m_border,border                 ' display a left border if exists
04904                 | 
04904                 | '----------------------------------------- display pixels
04904                 | 
04904     53 BD 02 F6 |                 mov     m_lut2,m_lut1                   ' m_lut1 loaded from hub timing block, pixel per long
04908     59 11 03 F6 |                 mov     cpl2,i_cpl                      ' i_cpl in graphic modes is longs per line
0490c                 | 
0490c     7C 19 5B F8 |                 getnib  zoom, dl,#3
04910     03 18 07 F5 |                 and             zoom, #3                        ' get a horizontal zoom for the line
04914                 | 
04914     7C BF 02 F6 |                 mov     colordepth,dl                   ' get a color depth, reuse linestart var f         '
04918     0C BE 06 F5 |                 and     colordepth,#12
0491c                 | 
0491c     00 BE 0E F2 |                 cmp     colordepth,#%0000 wz            ' 1 bpp modes
04920     6C BD 02 A1 |           if_z  add     m_lut2,lutg1
04924     68 00 90 AD |           if_z  jmp     #p240
04928                 | 
04928     04 BE 0E F2 |                 cmp     colordepth,#%0100 wz            ' 2 bpp modes
0492c     6D BD 02 A1 |           if_z  add     m_lut2,lutg2
04930     9C 00 90 AD |           if_z  jmp     #p250
04934                 | 
04934     08 BE 0E F2 |                 cmp     colordepth,#%1000 wz            ' 4 bpp modes
04938     6E BD 02 A1 |           if_z  add     m_lut2,lutg4
0493c     00 01 90 AD |           if_z  jmp     #p260
04940                 | 
04940     6F BD 02 F1 |                 add m_lut2,lutg8                        ' 8 bpp modes
04944                 | 
04944                 | '' --- 8 bit color modes
04944                 | 
04944     00 18 0F F2 |                 cmp zoom, #%00 wz   '256 colors, zoom x1
04948     54 01 90 AD |                 if_z jmp #p251      'there is an universal loop for 1x zoom at p251, saves one long of skip pattern
0494c                 | 
0494c     01 18 0F F2 |                 cmp zoom, #%01 wz   '256 colors, zoom x2
04950     2A 0E 07 A6 |                 if_z mov skippattern,#%101010
04954     10 00 90 AD |                 if_z jmp #p235
04958                 |  '  
04958     02 18 0F F2 |                 cmp zoom, #%10 wz   '256 colors, zoom x4
0495c     25 0E 07 A6 |                 if_z mov skippattern,#%100101
04960                 |     
04960                 |  
04960     05 0E 07 56 |                 if_nz mov skippattern,#%000101
04964     01 10 47 50 |                 if_nz shr cpl2,#1         ' if 8x zoom, 2 xconts used in one loop, so divide loop count by 2
04968                 |         
04968                 | 
04968                 |         
04968     7E 13 03 FB | p235               rdlong  char,framebuf2
0496c     32 0E 63 FD |                    skipf skippattern
04970     02 FC 06 F1 |                    add     framebuf2,#2             '0 1 1
04974     01 FC 06 F1 |                    add     framebuf2,#1             '1 0 0
04978     50 12 FF F9 |                    movbyts char,#%01010000          '0 1 1
0497c     00 12 FF F9 |                    movbyts char,#%00000000          '1 0 0
04980     89 BD C2 FC |                    xcont   m_lut2,char              '0 0 0
04984     89 BD C2 FC |                    xcont   m_lut2,char              '1 1 0
04988     F7 11 6F FB |                    djnz    cpl2,#p235
0498c                 | 
0498c     20 01 90 FD |                jmp    #p203
04990                 |                   
04990                 | 
04990                 | 
04990                 | '' --- 1 bit color modes
04990                 | 
04990     00 18 0F F2 | p240          cmp zoom, #%00 wz     '2 colors, zoom x1
04994     08 01 90 AD |        if_z   jmp #p251              'there is an universal loop for 1x zoom at p251, saves one long of skip pattern
04998                 | 
04998     01 18 0F F2 |               cmp zoom, #%01 wz     '2 colors, zoom x2
0499c     13 0E 07 A6 |        if_z   mov skippattern,#%10011
049a0     08 0E 07 56 |        if_nz  mov skippattern,#%01000
049a4                 | 
049a4                 | 
049a4     7E 13 E3 FA | p241               rdword  char,framebuf2
049a8     44 12 FF F9 |                    movbyts char,#%01000100
049ac     63 12 63 FD |                    mergew  char
049b0     32 0E 63 FD |                    skipf skippattern
049b4     44 12 FF F9 |                    movbyts char,#%01000100         ' 1 0
049b8     63 12 63 FD |                    mergew  char                    ' 1 0
049bc     89 BD C2 FC |                    xcont   m_lut2,char             ' 0 0
049c0     02 FC 06 F1 |                    add     framebuf2,#2                    ' 0 1
049c4     01 FC 06 F1 |                    add     framebuf2,#1                ' 1 0
049c8     F6 11 6F FB |                    djnz   cpl2,#p241
049cc                 | 
049cc                 | 
049cc     E0 00 90 FD |                jmp    #p203
049d0                 | 
049d0                 | '' --- 2 bit color modes
049d0                 | 
049d0     00 18 0F F2 | p250          cmp zoom, #%00 wz     '4 colors, zoom x1
049d4     C8 00 90 AD |        if_z   jmp #p251
049d8                 | 
049d8     01 18 0F F2 |               cmp zoom, #%01 wz     '4 colors, zoom x2
049dc     30 00 90 AD |        if_z   jmp #p252
049e0                 | 
049e0                 | 
049e0     7E 13 C3 FA | p254               rdbyte char,framebuf2
049e4     04 0C 07 F6 |                    mov  t5,#4
049e8     02 12 67 F0 | p255               shl  char,#2
049ec     89 05 53 F8 |                    getnib  t1,char,#2
049f0     03 04 07 F5 |                    and     t1,#3
049f4     55 04 07 FA |                    mul     t1,#$55
049f8     82 07 03 F9 |                    rolbyte  t2,t1,#0
049fc     FA 0D 6F FB |                    djnz    t5,#p255
04a00     83 BD C2 FC |                    xcont   m_lut2,t2
04a04     01 FC 06 F1 |                    add     framebuf2,#1
04a08     F5 11 6F FB |                    djnz    cpl2,#p254
04a0c     A0 00 90 FD |                    jmp     #p203
04a10                 | 
04a10     7E 13 E3 FA | p252               rdword char,framebuf2
04a14     08 0C 07 F6 |                    mov  t5,#8
04a18     02 12 67 F0 | p253               shl  char,#2
04a1c     89 05 63 F8 |                    getnib  t1,char,#4
04a20     03 04 07 F5 |                    and     t1,#3
04a24     05 04 07 FA |                    mul     t1,#5
04a28     82 07 83 F8 |                    rolnib  t2,t1,#0
04a2c     FA 0D 6F FB |                    djnz    t5,#p253
04a30     83 BD C2 FC |                    xcont   m_lut2,t2
04a34     02 FC 06 F1 |                    add     framebuf2,#2
04a38     F5 11 6F FB |                    djnz    cpl2,#p252
04a3c     70 00 90 FD |                    jmp     #p203
04a40                 | 
04a40                 | '' ------ 4 bit color modes
04a40                 | 
04a40     00 18 0F F2 | p260          cmp zoom, #%00 wz     '4 colors, zoom x1, the same loop as 2bpp
04a44     58 00 90 AD |        if_z   jmp #p251
04a48                 | 
04a48     01 18 0F F2 |               cmp zoom, #%01 wz     '4 colors, zoom x2
04a4c     2C 00 90 AD |        if_z   jmp #p262
04a50                 | 
04a50                 | 
04a50     7E 13 C3 FA | p263               rdbyte char,framebuf2
04a54     02 0A DC FC |                            rep #5,#2
04a58     89 07 8B F8 |                              rolnib t2,char,#1
04a5c     89 07 8B F8 |                                  rolnib t2,char,#1
04a60     89 07 8B F8 |                              rolnib t2,char,#1
04a64     89 07 8B F8 |                                  rolnib t2,char,#1
04a68     04 12 67 F0 |                              shl char,#4
04a6c     83 BD C2 FC |                    xcont   m_lut2,t2
04a70     01 FC 06 F1 |                    add     framebuf2,#1
04a74     F6 11 6F FB |                    djnz    cpl2,#p263
04a78     34 00 90 FD |                    jmp     #p203
04a7c                 | 
04a7c     7E 13 E3 FA | p262               rdword  char,framebuf2
04a80     04 06 DC FC |                            rep #3,#4
04a84     89 07 9B F8 |                              rolnib t2,char,#3
04a88     89 07 9B F8 |                                  rolnib t2,char,#3
04a8c     04 12 67 F0 |                              shl char,#4
04a90     83 BD C2 FC |                    xcont   m_lut2,t2
04a94     02 FC 06 F1 |                    add     framebuf2,#2
04a98     F8 11 6F FB |                    djnz    cpl2,#p262
04a9c     10 00 90 FD |                    jmp     #p203
04aa0                 | 
04aa0                 | ''---------- all color modes without zoom
04aa0                 | 
04aa0     88 07 D8 FC | p251               rep  #3,cpl2
04aa4     7E 13 03 FB |                    rdlong  char,framebuf2
04aa8     04 FC 06 F1 |                    add     framebuf2,#4
04aac     89 BD C2 FC |                    xcont   m_lut2,char
04ab0                 |           
04ab0                 |  ''-----------------------------------------------------------------------------------------
04ab0                 | p203           ' getword  mb2,m_border,#0
04ab0     00 26 0F F2 |                 cmp      mb2, #0 wz
04ab4     4D A5 C2 5C |                 if_nz    xcont   m_border,border            'display a right border if exists
04ab8                 | 
04ab8     E8 FB 9F FD |                 jmp #p302
04abc                 | 
04abc                 | '' -------------------------------------- END of graph  line ---------------------------------
04abc                 | 
04abc                 | '' consts and vars
04abc                 | 
04abc     52 4D 35 D5 | sync_000        long    %1101010100_1101010100_1101010100_10    '
04ac0     AE 42 35 D5 | sync_001        long    %1101010100_1101010100_0010101011_10    '        hsync
04ac4     52 45 15 55 | sync_222        long    %0101010100_0101010100_0101010100_10    'vsync
04ac8     AE 4A 15 55 | sync_223        long    %0101010100_0101010100_1010101011_10    'vsync + hsync
04acc                 | 
04acc     00 2C 1A 00 | border          long    %00000000_00011010_00101100_00000000
04ad0                 | 
04ad0                 | '------ these longs will be set by setmode function
04ad0                 | 
04ad0     00 00 00 00 | m_bs            long    0        'blanks before sync
04ad4     00 00 00 00 | m_sn            long    0        'sync
04ad8     00 00 00 00 | m_bv            long    0        'blanks before visible
04adc     00 00 00 00 | m_vi            long    0        'visible pixels #
04ae0     00 00 00 00 | m_border        long    0        'left/right borders
04ae4     00 00 00 00 | m_lut1          long    0        'characters
04ae8     00 00 00 00 | i_vborder       long    0        'up/down borders
04aec     00 00 00 00 | i_upporch       long    0        'up porch lines
04af0     00 00 00 00 | i_vsync         long    0        'vsync lines
04af4     00 00 00 00 | i_downporch     long    0        'down porch lines
04af8     00 00 00 00 | i_modenum       long    0        'mode #
04afc     00 00 00 00 | i_cpl           long    0        'chars/longs per line
04b00     00 00 00 00 | i_lines         long    0        'scanlines #
04b04     00 00 00 00 | i_clock         long    0
04b08     00 00 00 00 | i_hubset        long    0
04b0c     00 00 00 00 | i_totalvis      long    0
04b10                 | 
04b10                 | '-------------------------------------
04b10                 | 
04b10     00 00 00 00 | m_lut2          long    0
04b14                 | 
04b14                 | colordepth
04b14     00 00 00 00 | linestart       long    0
04b18     00 00 00 00 | linenum         long    0
04b1c     00 01 00 00 | lutaddr         long    256
04b20                 | 
04b20     0E 00 00 00 | cursorsh        long    14
04b24     00 00 00 00 | frames          long    0
04b28     00 00 00 00 | cursorx         long    0
04b2c     00 00 00 00 | cursory         long    0
04b30     00 00 00 00 | cursorpos       long    0
04b34     00 00 00 00 | cursorpos2      long    0
04b38     00 00 00 00 | fontstart       long    0
04b3c     00 00 00 00 | border2         long 0
04b40     00 00 81 70 | lutiv           long $70810000
04b44     00 00 88 00 | lutt1           long $00880000
04b48     00 00 80 00 | lutg1           long $00800000
04b4c     00 00 80 10 | lutg2           long $10800000
04b50     00 00 80 20 | lutg4           long $20800000
04b54     00 00 80 30 | lutg8           long $30800000
04b58     00 00 00 00 | framebuf        long 0
04b5c     00 00 00 00 | fontbuf         long 0
04b60     00 00 00 00 | borderptr       long 0
04b64     00 00 00 00 | vblankptr       long 0
04b68     00 00 00 00 | cursorptr       long 0
04b6c     00 00 00 00 | modeptr         long 0
04b70     00 00 00 00 | paletteptr      long 0
04b74     00 00 00 00 | dlptr           long 0
04b78                 | fontnumptr      res     1
04b78                 | fontnumptr      res     1
04b78                 | hbase           res     1
04b78                 | hbase           res     1
04b78                 | borderptr2      res     1
04b78                 | borderptr2      res     1
04b78                 | dlptr2 res 1
04b78                 | dlptr2 res 1
04b78                 | dl              res 1
04b78                 | dl              res 1
04b78                 | ii              res     1
04b78                 | ii              res     1
04b78                 | framebuf2       res     1
04b78                 | framebuf2       res     1
04b78                 | hsync0          res     1
04b78                 | hsync0          res     1
04b78                 | hsync1          res     1
04b78                 | hsync1          res     1
04b78                 | fontline        res     1
04b78                 | fontline        res     1
04b78                 | t1              res     1
04b78                 | t1              res     1
04b78                 | t2              res     1
04b78                 | t2              res     1
04b78                 | t3 res 1
04b78                 | t3 res 1
04b78                 | t4 res 1
04b78                 | t4 res 1
04b78                 | t5 res 1
04b78                 | t5 res 1
04b78                 | skippattern res 1
04b78                 | skippattern res 1
04b78                 | cpl2 res 1
04b78                 | cpl2 res 1
04b78                 | char            res     1
04b78                 | char            res     1
04b78                 | backcolor       res     1
04b78                 | backcolor       res     1
04b78                 | charcolor       res     1
04b78                 | charcolor       res     1
04b78                 | zoom res 1
04b78                 | zoom res 1
04b78     00 00 00 00 | rcnt long 0 'dl repeat count
04b7c     00 00 00 00 | rcnt2 long 0
04b80     00 00 00 00 | rcnt2a long 0
04b84     00 00 00 00 | roffset long 0
04b88     00 00 00 00 | rdl long 0  'dl repeat line
04b8c     00 00 00 00 | dlc long 0 'dl command
04b90     00 00 00 00 | mb2 long 0
04b94     00 00 00 00 | aend             long 0
04b98                 |                 fit     496                     '
04b98                 | __system__dat_
04b98     00 00 00 00 
04b9c     00 00 00 00 
04ba0     03 00 00 00 
04ba4     00 00 00 00 | 	byte	$00, $00, $00, $00, $00, $00, $00, $00, $03, $00, $00, $00, $00, $00, $00, $00
04ba8                 | __heap_base
04ba8     00 00 00 00 
      ...             
05ba8     00 00 00 00 
05bac     00 00 00 00 | 	long	0[1026]
05bb0                 | objmem
05bb0     00 00 00 00 
      ...             
05c94     00 00 00 00 
05c98     00 00 00 00 | 	long	0[59]
05c9c                 | stackspace
05c9c     00 00 00 00 | 	long	0[1]
05ca0 0de             | 	org	COG_BSS_START
05ca0 0de             | _var01
05ca0 0de             | 	res	1
05ca0 0df             | _var02
05ca0 0df             | 	res	1
05ca0 0e0             | _var03
05ca0 0e0             | 	res	1
05ca0 0e1             | _var04
05ca0 0e1             | 	res	1
05ca0 0e2             | _var05
05ca0 0e2             | 	res	1
05ca0 0e3             | _var06
05ca0 0e3             | 	res	1
05ca0 0e4             | _var07
05ca0 0e4             | 	res	1
05ca0 0e5             | _var08
05ca0 0e5             | 	res	1
05ca0 0e6             | _var09
05ca0 0e6             | 	res	1
05ca0 0e7             | _var10
05ca0 0e7             | 	res	1
05ca0 0e8             | _var11
05ca0 0e8             | 	res	1
05ca0 0e9             | _var12
05ca0 0e9             | 	res	1
05ca0 0ea             | _var13
05ca0 0ea             | 	res	1
05ca0 0eb             | _var14
05ca0 0eb             | 	res	1
05ca0 0ec             | _var15
05ca0 0ec             | 	res	1
05ca0 0ed             | _var16
05ca0 0ed             | 	res	1
05ca0 0ee             | _var17
05ca0 0ee             | 	res	1
05ca0 0ef             | _var18
05ca0 0ef             | 	res	1
05ca0 0f0             | _var19
05ca0 0f0             | 	res	1
05ca0 0f1             | _var20
05ca0 0f1             | 	res	1
05ca0 0f2             | _var21
05ca0 0f2             | 	res	1
05ca0 0f3             | _var22
05ca0 0f3             | 	res	1
05ca0 0f4             | _var23
05ca0 0f4             | 	res	1
05ca0 0f5             | _var24
05ca0 0f5             | 	res	1
05ca0 0f6             | _var25
05ca0 0f6             | 	res	1
05ca0 0f7             | _var26
05ca0 0f7             | 	res	1
05ca0 0f8             | _var27
05ca0 0f8             | 	res	1
05ca0 0f9             | _var28
05ca0 0f9             | 	res	1
05ca0 0fa             | _var29
05ca0 0fa             | 	res	1
05ca0 0fb             | _var30
05ca0 0fb             | 	res	1
05ca0 0fc             | _var31
05ca0 0fc             | 	res	1
05ca0 0fd             | _var32
05ca0 0fd             | 	res	1
05ca0 0fe             | arg01
05ca0 0fe             | 	res	1
05ca0 0ff             | arg02
05ca0 0ff             | 	res	1
05ca0 100             | arg03
05ca0 100             | 	res	1
05ca0 101             | arg04
05ca0 101             | 	res	1
05ca0 102             | arg05
05ca0 102             | 	res	1
05ca0 103             | local01
05ca0 103             | 	res	1
05ca0 104             | local02
05ca0 104             | 	res	1
05ca0 105             | local03
05ca0 105             | 	res	1
05ca0 106             | local04
05ca0 106             | 	res	1
05ca0 107             | local05
05ca0 107             | 	res	1
05ca0 108             | local06
05ca0 108             | 	res	1
05ca0 109             | local07
05ca0 109             | 	res	1
05ca0 10a             | local08
05ca0 10a             | 	res	1
05ca0 10b             | local09
05ca0 10b             | 	res	1
05ca0 10c             | local10
05ca0 10c             | 	res	1
05ca0 10d             | local11
05ca0 10d             | 	res	1
05ca0 10e             | local12
05ca0 10e             | 	res	1
05ca0 10f             | local13
05ca0 10f             | 	res	1
05ca0 110             | local14
05ca0 110             | 	res	1
05ca0 111             | muldiva_
05ca0 111             | 	res	1
05ca0 112             | muldivb_
05ca0 112             | 	res	1
05ca0 113             | 	fit	480
05ca0 113             | 
