
00000                 | 
00000                 | #line 1 "D:/Programowanie/ultibo-propeller/adctest/hng025.p2asm"
00000                 | ' 
00000                 | ' 
00000                 | ' hdmi_base       = 48             'must be a multiple of 8
00000                 | con
00000                 | 	hdmi_base = 48
00000                 | ' _clkfreq        = 245_000_000    'start safe, hubset will do the rest. The clock will be changed to:
00000                 | 	_clkfreq = 245000000
00000                 | ' 
00000                 | ' ' 354_689_500   200x Atari 8-bit PAL,  50x Amiga PAL  - real settings: 49,869-> 354_693_878  - 1.0000123 - mode 0 and 192
00000                 | ' ' 357_954_500   200x Atari 8-bit NTSC, 50x Amiga NTSC - real settings: 49,877-> 357_959_184  - 1.0000131 - mode 256
00000                 | ' 
00000                 | ' ' 319_220_550   180x PAL  - real settings: 51,814-> 319_215_686 - 0.9999848 - mode 64
00000                 | ' ' 322_159_050   180x NTSC - real settings: 37,596-> 322_162_162 - 1.0000097 - mode 320 and 448
00000                 | ' 
00000                 | ' ' 283_751_600   160x PAL  - real settings: 64,908-> 283_750_000 - 0.9999944 - mode 128
00000                 | ' ' 286_363_600   160x NTSC - real settings: 22,315-> 286_363_636 - 1.0000001 - mode 384
00000                 | ' 
00000                 | ' ''--------- VGA DOS color definition constants
00000                 | ' 
00000                 | ' c_black         =    0
00000                 | 	c_black = 0
00000                 | ' c_blue          =  117
00000                 | 	c_blue = 117
00000                 | ' c_green         =  199
00000                 | 	c_green = 199
00000                 | ' c_cyan          =  149
00000                 | 	c_cyan = 149
00000                 | ' c_red           =   39
00000                 | 	c_red = 39
00000                 | ' c_magenta       =   71
00000                 | 	c_magenta = 71
00000                 | ' c_brown         =  246
00000                 | 	c_brown = 246
00000                 | ' c_lightgray     =   10
00000                 | 	c_lightgray = 10
00000                 | ' c_darkgray      =    5
00000                 | 	c_darkgray = 5
00000                 | ' c_lightblue     =  121
00000                 | 	c_lightblue = 121
00000                 | ' c_lightgreen    =  203
00000                 | 	c_lightgreen = 203
00000                 | ' c_lightcyan     =  155
00000                 | 	c_lightcyan = 155
00000                 | ' c_lightred      =   43
00000                 | 	c_lightred = 43
00000                 | ' c_lightmagenta  =   75
00000                 | 	c_lightmagenta = 75
00000                 | ' c_yellow        =  234
00000                 | 	c_yellow = 234
00000                 | ' c_white         =   15
00000                 | 	c_white = 15
00000                 | ' 
00000                 | ' timingsxxt      =  $70810000
00000                 | 	timingsxxt = 1887502336
00000                 | dat
00000 000 00 00 00 00 | 	nop
00004 001 01 EC 63 FD | 	cogid	pa
00008 002 02 00 00 FF 
0000c 003 04 EC E7 FC | 	coginit	pa,##$404
00010                 | 	orgh	$10
00010     00 00 00 00 | 	long	0	'reserved
00014     00 00 00 00 | 	long	0 ' clock frequency: will default to 245000000
00018     00 00 00 00 | 	long	0 ' clock mode: will default to $10c30fb
0001c     00 00 00 00 
      ...             
003f8     00 00 00 00 
003fc     00 00 00 00 | 	orgh	$400
00400     00 04 05 06 |  _ret_	mov	result1, #0
00404 000             | 	org	0
00404 000             | entry
00404 000 00 F0 0F F2 | 	cmp	ptra, #0 wz
00408 001 94 00 90 5D |  if_ne	jmp	#spininit
0040c 002 81 F0 03 F6 | 	mov	ptra, ptr_stackspace_
00410 003 14 EC 0F FB | 	rdlong	pa, #20 wz
00414 004 6C 00 90 5D |  if_ne	jmp	#skip_clock_set_
00418 005 00 00 64 FD | 	hubset	#0
0041c 006 18 86 80 FF 
00420 007 00 F0 65 FD | 	hubset	##17576184
00424 008 86 01 80 FF 
00428 009 1F 80 66 FD | 	waitx	##200000
0042c 00a 18 86 00 FF 
00430 00b FB EC 07 F6 | 	mov	pa, ##17576187
00434 00c 00 EC 63 FD | 	hubset	pa
00438 00d 18 EC 67 FC | 	wrlong	pa, #24
0043c 00e 33 4D 87 FF 
00440 00f 14 80 6E FC | 	wrlong	##245000000, #20
00444 010 3C 00 90 FD | 	jmp	#skip_clock_set_
00448 011 00 00 00 00 
      ...             
0047c 01e 00 00 00 00 
00480 01f 00 00 00 00 | 	orgf	32
00484 020             | skip_clock_set_
00484 020 04 EC 60 FD | 	locknew	__lockreg
00488 021 7A EC 60 FC | 	wrlong	__lockreg, ptr___lockreg_
0048c 022 14 06 A0 FD | 	call	#_dummy
00490 023             | cogexit
00490 023 38 01 80 FF 
00494 024 1F 00 66 FD | 	waitx	##160000
00498 025 01 4A 61 FD | 	cogid	arg01
0049c 026 03 4A 61 FD | 	cogstop	arg01
004a0 027             | spininit
004a0 027 00 F3 04 FB | 	rdlong	objptr, ptra
004a4 028 04 F0 07 F1 | 	add	ptra, #4
004a8 029 00 05 05 FB | 	rdlong	result1, ptra
004ac 02a 04 F0 07 F1 | 	add	ptra, #4
004b0 02b 00 4B 05 FB | 	rdlong	arg01, ptra
004b4 02c 04 F0 07 F1 | 	add	ptra, #4
004b8 02d 00 4D 05 FB | 	rdlong	arg02, ptra
004bc 02e 04 F0 07 F1 | 	add	ptra, #4
004c0 02f 00 4F 05 FB | 	rdlong	arg03, ptra
004c4 030 04 F0 07 F1 | 	add	ptra, #4
004c8 031 00 51 05 FB | 	rdlong	arg04, ptra
004cc 032 10 F0 87 F1 | 	sub	ptra, #16
004d0 033 2D 04 61 FD | 	call	result1
004d4 034 B8 FF 9F FD | 	jmp	#cogexit
004d8 035             | FCACHE_LOAD_
004d8 035 2B 86 60 FD |     pop	fcache_tmpb_
004dc 036 F6 87 00 F1 |     add	fcache_tmpb_, pa
004e0 037 2A 86 60 FD |     push	fcache_tmpb_
004e4 038 F6 87 80 F1 |     sub	fcache_tmpb_, pa
004e8 039 02 EC 47 F0 |     shr	pa, #2
004ec 03a F6 85 00 F6 |     mov	fcache_tmpa_, pa
004f0 03b 00 85 04 F1 |     add	fcache_tmpa_, #$100
004f4 03c 42 82 30 FC |     wrlut ret_instr_, fcache_tmpa_
004f8 03d 01 EC 87 F1 |     sub	pa, #1
004fc 03e 29 EC 63 FD |     setq2	pa
00500 03f 43 00 02 FB |     rdlong	$100-0, fcache_tmpb_
00504 040 00 03 80 FD |     jmp	#\$300 ' jmp to cache
00508 041             | ret_instr_
00508 041 2D 00 64 FD |     ret
0050c 042             | fcache_tmpa_
0050c 042 00 00 00 00 |     long 0
00510 043             | fcache_tmpb_
00510 043 00 00 00 00 |     long 0
00514 044             | COUNT_
00514 044 00 00 00 00 |     long 0
00518 045             | RETADDR_
00518 045 00 00 00 00 |     long 0
0051c 046             | fp
0051c 046 00 00 00 00 |     long 0
00520 047             | gosub_
00520 047 00 88 04 F6 |     mov  COUNT_, #0
00524 048 A5 EC 03 F6 |     mov  pa, arg01
00528 049 2B 8A 60 FD |     pop  RETADDR_
0052c 04a 1C 00 90 FD |     jmp  #pushregs_done_
00530 04b             | pushregs_
00530 04b 2B EC 63 FD |     pop  pa
00534 04c 2B 8A 60 FD |     pop  RETADDR_
00538 04d 04 88 94 FB |     tjz  COUNT_, #pushregs_done_
0053c 04e 01 88 84 F1 |     sub  COUNT_, #1
00540 04f 28 88 60 FD |     setq COUNT_
00544 050 00 55 65 FC |     wrlong local01, ptra
00548 051 01 88 04 F1 |     add  COUNT_, #1
0054c 052             | pushregs_done_
0054c 052 02 88 64 F0 |     shl  COUNT_, #2
00550 053 44 F0 03 F1 |     add  ptra, COUNT_
00554 054 02 88 44 F0 |     shr  COUNT_, #2
00558 055 28 04 64 FD |     setq #2 ' push 3 registers starting at COUNT_
0055c 056 00 89 64 FC |     wrlong COUNT_, ptra
00560 057 0C F0 07 F1 |     add    ptra, #12
00564 058 F8 8D 00 F6 |     mov    fp, ptra
00568 059 2C EC 63 FD |     jmp  pa
0056c 05a             |  popregs_
0056c 05a 2B EC 63 FD |     pop    pa
00570 05b 0C F0 87 F1 |     sub    ptra, #12
00574 05c 28 04 64 FD |     setq   #2
00578 05d 00 89 04 FB |     rdlong COUNT_, ptra
0057c 05e 06 88 94 FB |     tjz    COUNT_, #popregs__ret
00580 05f 02 88 64 F0 |     shl    COUNT_, #2
00584 060 44 F0 83 F1 |     sub    ptra, COUNT_
00588 061 02 88 44 F0 |     shr    COUNT_, #2
0058c 062 01 88 84 F1 |     sub    COUNT_, #1
00590 063 28 88 60 FD |     setq   COUNT_
00594 064 00 55 05 FB |     rdlong local01, ptra
00598 065             | popregs__ret
00598 065 2A 8A 60 FD |     push   RETADDR_
0059c 066 2C EC 63 FD |     jmp    pa
005a0 067             | 
005a0 067             | unsdivide_
005a0 067 28 00 64 FD |        setq    #0
005a4 068 BD 78 11 FD |        qdiv    muldiva_, muldivb_
005a8 069 18 7A 61 FD |        getqx   muldivb_
005ac 06a 19 78 61 0D |  _ret_ getqy   muldiva_
005b0 06b             | 
005b0 06b             | divide_
005b0 06b BC 78 51 F6 |        abs     muldiva_,muldiva_     wc       'abs(x)
005b4 06c 03 F0 84 F5 |        muxc    itmp2_,#%11                    'store sign of x
005b8 06d BD 7A 59 F6 |        abs     muldivb_,muldivb_     wcz      'abs(y)
005bc 06e 02 F0 64 C5 |  if_c  xor     itmp2_,#%10                    'store sign of y
005c0 06f 2D 00 64 AD |  if_z  ret
005c4 070 D8 FF BF FD |        call    #unsdivide_
005c8 071 01 F0 D4 F7 |        test    itmp2_,#1        wc       'restore sign, remainder
005cc 072 BC 78 81 F6 |        negc    muldiva_,muldiva_ 
005d0 073 02 F0 D4 F7 |        test    itmp2_,#%10      wc       'restore sign, division result
005d4 074 BD 7A 81 06 |  _ret_ negc    muldivb_,muldivb_
005d8 075             | 
005d8 075             | __heap_ptr
005d8 075 E4 5B 00 00 | 	long	@__heap_base
005dc 076             | __lockreg
005dc 076 00 00 00 00 | 	long	0
005e0 077             | itmp1_
005e0 077 00 00 00 00 | 	long	0
005e4 078             | itmp2_
005e4 078 00 00 00 00 | 	long	0
005e8 079             | objptr
005e8 079 EC 6B 00 00 | 	long	@objmem
005ec 07a             | ptr___lockreg_
005ec 07a DC 05 00 00 | 	long	@__lockreg
005f0 07b             | ptr___system__dat__
005f0 07b D4 5B 00 00 | 	long	@__system__dat_
005f4 07c             | ptr__dat__
005f4 07c 70 37 00 00 | 	long	@_dat_
005f8 07d             | ptr__putpixel1_
005f8 07d E4 16 00 00 | 	long	@_putpixel1
005fc 07e             | ptr__putpixel2_
005fc 07e D0 17 00 00 | 	long	@_putpixel2
00600 07f             | ptr__putpixel4_
00600 07f BC 18 00 00 | 	long	@_putpixel4
00604 080             | ptr__putpixel8_
00604 080 A8 19 00 00 | 	long	@_putpixel8
00608 081             | ptr_stackspace_
00608 081 D8 6C 00 00 | 	long	@stackspace
0060c 082             | result1
0060c 082 00 00 00 00 | 	long	0
00610 083             | result2
00610 083 00 00 00 00 | 	long	0
00614 084             | COG_BSS_START
00614 084             | 	fit	480
00614                 | 	orgh
00614                 | hubentry
00614                 | 
00614                 | ' 
00614                 | ' 
00614                 | ' ''--------- timings
00614                 | ' ' 0  m_bs        - before sync,             16      80
00614                 | ' ' 1  m_sn        - sync                     80     160
00614                 | ' ' 2  m_bv        - before visible           20      84
00614                 | ' ' 3  m_vi        - visible                1024     816
00614                 | ' ' 4  m_border    - left and right borders  112       8
00614                 | ' ' 5  m_lut1      - pixels per char           8       8
00614                 | ' ' 6  i_vborder   - up and down border       48       8
00614                 | ' ' 7  i_upporch   - up non visible           16       8
00614                 | ' ' 8  i_vsync     - vsync                    16      12
00614                 | ' ' 9  i_downporch - down non visible         16       8
00614                 | ' '10  mode #
00614                 | ' '11  cpl         - character per line
00614                 | ' '12  scanlines #
00614                 | ' '13  clock
00614                 | ' '14  hubset value for clock settings
00614                 | ' 
00614                 | ' 
00614                 | ' '*************************************************************************
00614                 | ' '                                                                        *
00614                 | ' '  A dummy start function if someone runs this driver alone              *
00614                 | ' '                                                                        *
00614                 | ' '*************************************************************************
00614                 | ' 
00614                 | ' pub dummy()|i,x,y,ntsc,bbb,ccc,zzx,zzy,amode,x1,x2,y1,y2,r
00614                 | _dummy
00614     08 88 04 F6 | 	mov	COUNT_, #8
00618     4B 00 A0 FD | 	call	#pushregs_
0061c                 | ' '' this is not a main program.
0061c                 | ' 
0061c                 | ' start(512+0+48,hdmi_base)
0061c     01 00 00 FF 
00620     30 4A 05 F6 | 	mov	arg01, ##560
00624     30 4C 05 F6 | 	mov	arg02, #48
00628     28 22 B0 FD | 	call	#_start
0062c                 | ' 
0062c                 | ' cls(147,154)
0062c     93 4A 05 F6 | 	mov	arg01, #147
00630     9A 4C 05 F6 | 	mov	arg02, #154
00634     8C 14 B0 FD | 	call	#_cls
00638                 | ' setfontfamily(0)
00638                 | ' 
00638                 | ' font_family:=afontnum
00638     C8 F2 04 F1 | 	add	objptr, #200
0063c     79 00 68 FC | 	wrlong	#0, objptr
00640     C8 F2 84 F1 | 	sub	objptr, #200
00644                 | ' waitvbl(100)
00644     64 4A 05 F6 | 	mov	arg01, #100
00648     E0 13 B0 FD | 	call	#_waitvbl
0064c                 | ' outtextxycg(0,0,inttostr(long[0]),154,147)
0064c     00 54 05 F6 | 	mov	local01, #0
00650     00 56 05 F6 | 	mov	local02, #0
00654     00 4A 05 FB | 	rdlong	arg01, #0
00658     B8 15 B0 FD | 	call	#_inttostr
0065c     82 4E 01 F6 | 	mov	arg03, result1
00660     AA 4A 01 F6 | 	mov	arg01, local01
00664     AB 4C 01 F6 | 	mov	arg02, local02
00668     9A 50 05 F6 | 	mov	arg04, #154
0066c     93 52 05 F6 | 	mov	arg05, #147
00670     D0 0F B0 FD | 	call	#_outtextxycg
00674                 | ' waitvbl(300)
00674     2C 4B 05 F6 | 	mov	arg01, #300
00678     B0 13 B0 FD | 	call	#_waitvbl
0067c                 | ' maketestdl(512+48)
0067c     01 00 00 FF 
00680     30 4A 05 F6 | 	mov	arg01, ##560
00684     54 20 B0 FD | 	call	#_maketestdl
00688                 | ' waitvbl(1200)
00688     02 00 00 FF 
0068c     B0 4A 05 F6 | 	mov	arg01, ##1200
00690     98 13 B0 FD | 	call	#_waitvbl
00694                 | ' repeat i from 0 to 10000
00694     00 58 05 F6 | 	mov	local03, #0
00698                 | LR__0001
00698                 | '   ccc:=getrnd()&255
00698     1B 5A 61 FD | 	getrnd	local04
0069c     FF 5A 05 F5 | 	and	local04, #255
006a0                 | '   x1:=getrnd()+//896
006a0     1B 04 61 FD | 	getrnd	result1
006a4     82 78 01 F6 | 	mov	muldiva_, result1
006a8     01 00 00 FF 
006ac     80 7B 05 F6 | 	mov	muldivb_, ##896
006b0     67 00 A0 FD | 	call	#unsdivide_
006b4     BC 5C 01 F6 | 	mov	local05, muldiva_
006b8                 | '   x2:=getrnd()+//896
006b8     1B 04 61 FD | 	getrnd	result1
006bc     82 78 01 F6 | 	mov	muldiva_, result1
006c0     01 00 00 FF 
006c4     80 7B 05 F6 | 	mov	muldivb_, ##896
006c8     67 00 A0 FD | 	call	#unsdivide_
006cc     BC 5E 01 F6 | 	mov	local06, muldiva_
006d0                 | '   y1:=getrnd()+//496
006d0     1B 04 61 FD | 	getrnd	result1
006d4     82 78 01 F6 | 	mov	muldiva_, result1
006d8     F0 7B 05 F6 | 	mov	muldivb_, #496
006dc     67 00 A0 FD | 	call	#unsdivide_
006e0     BC 60 01 F6 | 	mov	local07, muldiva_
006e4                 | '   y2:=getrnd()+//496
006e4     1B 04 61 FD | 	getrnd	result1
006e8     82 78 01 F6 | 	mov	muldiva_, result1
006ec     F0 7B 05 F6 | 	mov	muldivb_, #496
006f0     67 00 A0 FD | 	call	#unsdivide_
006f4                 | ' 
006f4                 | ' 
006f4                 | '   line(x1,y1,x2,y2,ccc)
006f4     AE 4A 01 F6 | 	mov	arg01, local05
006f8     B0 4C 01 F6 | 	mov	arg02, local07
006fc     AF 4E 01 F6 | 	mov	arg03, local06
00700     AD 52 01 F6 | 	mov	arg05, local04
00704     BC 50 01 F6 | 	mov	arg04, muldiva_
00708     90 0C B0 FD | 	call	#_line
0070c     01 58 05 F1 | 	add	local03, #1
00710     13 00 00 FF 
00714     11 59 5D F2 | 	cmps	local03, ##10001 wcz
00718     7C FF 9F CD |  if_b	jmp	#LR__0001
0071c                 | ' 
0071c                 | ' repeat i from 0 to 1000
0071c     00 58 05 F6 | 	mov	local03, #0
00720                 | LR__0002
00720                 | ' 
00720                 | '   x1:=getrnd()+//896
00720     1B 04 61 FD | 	getrnd	result1
00724     82 78 01 F6 | 	mov	muldiva_, result1
00728     01 00 00 FF 
0072c     80 7B 05 F6 | 	mov	muldivb_, ##896
00730     67 00 A0 FD | 	call	#unsdivide_
00734     BC 5C 01 F6 | 	mov	local05, muldiva_
00738                 | '   y1:=getrnd()+//496
00738     1B 04 61 FD | 	getrnd	result1
0073c     82 78 01 F6 | 	mov	muldiva_, result1
00740     F0 7B 05 F6 | 	mov	muldivb_, #496
00744     67 00 A0 FD | 	call	#unsdivide_
00748     BC 60 01 F6 | 	mov	local07, muldiva_
0074c                 | '   r:=getrnd()+//100
0074c     1B 04 61 FD | 	getrnd	result1
00750     82 78 01 F6 | 	mov	muldiva_, result1
00754     64 7A 05 F6 | 	mov	muldivb_, #100
00758     67 00 A0 FD | 	call	#unsdivide_
0075c                 | '   ccc:=getrnd()&255
0075c     1B 04 61 FD | 	getrnd	result1
00760     82 50 01 F6 | 	mov	arg04, result1
00764     FF 50 05 F5 | 	and	arg04, #255
00768                 | '   fcircle(x1,y1,r,ccc)   
00768     AE 4A 01 F6 | 	mov	arg01, local05
0076c     B0 4C 01 F6 | 	mov	arg02, local07
00770     BC 4E 01 F6 | 	mov	arg03, muldiva_
00774     F4 07 B0 FD | 	call	#_fcircle
00778     01 58 05 F1 | 	add	local03, #1
0077c     01 00 00 FF 
00780     E9 59 5D F2 | 	cmps	local03, ##1001 wcz
00784     98 FF 9F CD |  if_b	jmp	#LR__0002
00788                 | ' 
00788                 | ' repeat i from 0 to 10000
00788     00 58 05 F6 | 	mov	local03, #0
0078c                 | LR__0003
0078c                 | '   ccc:=getrnd()&255
0078c     1B 5A 61 FD | 	getrnd	local04
00790     FF 5A 05 F5 | 	and	local04, #255
00794                 | '   x1:=getrnd()+//896
00794     1B 04 61 FD | 	getrnd	result1
00798     82 78 01 F6 | 	mov	muldiva_, result1
0079c     01 00 00 FF 
007a0     80 7B 05 F6 | 	mov	muldivb_, ##896
007a4     67 00 A0 FD | 	call	#unsdivide_
007a8     BC 5C 01 F6 | 	mov	local05, muldiva_
007ac                 | '   x2:=getrnd()+//896
007ac     1B 04 61 FD | 	getrnd	result1
007b0     82 78 01 F6 | 	mov	muldiva_, result1
007b4     01 00 00 FF 
007b8     80 7B 05 F6 | 	mov	muldivb_, ##896
007bc     67 00 A0 FD | 	call	#unsdivide_
007c0     BC 5E 01 F6 | 	mov	local06, muldiva_
007c4                 | '   y1:=getrnd()+//496
007c4     1B 04 61 FD | 	getrnd	result1
007c8     82 78 01 F6 | 	mov	muldiva_, result1
007cc     F0 7B 05 F6 | 	mov	muldivb_, #496
007d0     67 00 A0 FD | 	call	#unsdivide_
007d4     BC 60 01 F6 | 	mov	local07, muldiva_
007d8                 | '   y2:=getrnd()+//496
007d8     1B 04 61 FD | 	getrnd	result1
007dc     82 78 01 F6 | 	mov	muldiva_, result1
007e0     F0 7B 05 F6 | 	mov	muldivb_, #496
007e4     67 00 A0 FD | 	call	#unsdivide_
007e8                 | ' 
007e8                 | ' 
007e8                 | '   frame(x1,y1,x2,y2,ccc)
007e8     AE 4A 01 F6 | 	mov	arg01, local05
007ec     B0 4C 01 F6 | 	mov	arg02, local07
007f0     AF 4E 01 F6 | 	mov	arg03, local06
007f4     AD 52 01 F6 | 	mov	arg05, local04
007f8     BC 50 01 F6 | 	mov	arg04, muldiva_
007fc     B8 0A B0 FD | 	call	#_frame
00800     01 58 05 F1 | 	add	local03, #1
00804     13 00 00 FF 
00808     11 59 5D F2 | 	cmps	local03, ##10001 wcz
0080c     7C FF 9F CD |  if_b	jmp	#LR__0003
00810                 | '   
00810                 | ' repeat i from 0 to 10000
00810     00 58 05 F6 | 	mov	local03, #0
00814                 | LR__0004
00814                 | ' 
00814                 | '   x1:=getrnd()+//896
00814     1B 04 61 FD | 	getrnd	result1
00818     82 78 01 F6 | 	mov	muldiva_, result1
0081c     01 00 00 FF 
00820     80 7B 05 F6 | 	mov	muldivb_, ##896
00824     67 00 A0 FD | 	call	#unsdivide_
00828     BC 5C 01 F6 | 	mov	local05, muldiva_
0082c                 | '   y1:=getrnd()+//496
0082c     1B 04 61 FD | 	getrnd	result1
00830     82 78 01 F6 | 	mov	muldiva_, result1
00834     F0 7B 05 F6 | 	mov	muldivb_, #496
00838     67 00 A0 FD | 	call	#unsdivide_
0083c     BC 60 01 F6 | 	mov	local07, muldiva_
00840                 | '   r:=getrnd()+//100
00840     1B 04 61 FD | 	getrnd	result1
00844     82 78 01 F6 | 	mov	muldiva_, result1
00848     64 7A 05 F6 | 	mov	muldivb_, #100
0084c     67 00 A0 FD | 	call	#unsdivide_
00850                 | '   ccc:=getrnd()&255
00850     1B 04 61 FD | 	getrnd	result1
00854     82 50 01 F6 | 	mov	arg04, result1
00858     FF 50 05 F5 | 	and	arg04, #255
0085c                 | '   circle(x1,y1,r,ccc) 
0085c     AE 4A 01 F6 | 	mov	arg01, local05
00860     B0 4C 01 F6 | 	mov	arg02, local07
00864     BC 4E 01 F6 | 	mov	arg03, muldiva_
00868     30 08 B0 FD | 	call	#_circle
0086c     01 58 05 F1 | 	add	local03, #1
00870     13 00 00 FF 
00874     11 59 5D F2 | 	cmps	local03, ##10001 wcz
00878     98 FF 9F CD |  if_b	jmp	#LR__0004
0087c                 | '   
0087c                 | ' repeat i from 0 to 1000
0087c     00 58 05 F6 | 	mov	local03, #0
00880                 | LR__0005
00880                 | '   ccc:=getrnd()&255
00880     1B 5A 61 FD | 	getrnd	local04
00884     FF 5A 05 F5 | 	and	local04, #255
00888                 | '   x1:=getrnd()+//896
00888     1B 04 61 FD | 	getrnd	result1
0088c     82 78 01 F6 | 	mov	muldiva_, result1
00890     01 00 00 FF 
00894     80 7B 05 F6 | 	mov	muldivb_, ##896
00898     67 00 A0 FD | 	call	#unsdivide_
0089c     BC 5C 01 F6 | 	mov	local05, muldiva_
008a0                 | '   x2:=getrnd()+//100
008a0     1B 04 61 FD | 	getrnd	result1
008a4     82 78 01 F6 | 	mov	muldiva_, result1
008a8     64 7A 05 F6 | 	mov	muldivb_, #100
008ac     67 00 A0 FD | 	call	#unsdivide_
008b0     BC 5E 01 F6 | 	mov	local06, muldiva_
008b4                 | '   y1:=getrnd()+//496
008b4     1B 04 61 FD | 	getrnd	result1
008b8     82 78 01 F6 | 	mov	muldiva_, result1
008bc     F0 7B 05 F6 | 	mov	muldivb_, #496
008c0     67 00 A0 FD | 	call	#unsdivide_
008c4     BC 60 01 F6 | 	mov	local07, muldiva_
008c8                 | '   y2:=getrnd()+//100
008c8     1B 04 61 FD | 	getrnd	result1
008cc     82 78 01 F6 | 	mov	muldiva_, result1
008d0     64 7A 05 F6 | 	mov	muldivb_, #100
008d4     67 00 A0 FD | 	call	#unsdivide_
008d8                 | ' 
008d8                 | ' 
008d8                 | '   box(x1,y1,x1+x2,y1+y2,ccc)  
008d8     AE 4A 01 F6 | 	mov	arg01, local05
008dc     B0 4C 01 F6 | 	mov	arg02, local07
008e0     AE 4E 01 F6 | 	mov	arg03, local05
008e4     AF 4E 01 F1 | 	add	arg03, local06
008e8     B0 50 01 F6 | 	mov	arg04, local07
008ec     BC 50 01 F1 | 	add	arg04, muldiva_
008f0     AD 52 01 F6 | 	mov	arg05, local04
008f4     48 0A B0 FD | 	call	#_box
008f8     01 58 05 F1 | 	add	local03, #1
008fc     01 00 00 FF 
00900     E9 59 5D F2 | 	cmps	local03, ##1001 wcz
00904     78 FF 9F CD |  if_b	jmp	#LR__0005
00908                 | '       
00908                 | '   
00908                 | ' {
00908                 | ' }
00908                 | ' setfontfamily(4)
00908                 | ' 
00908                 | ' font_family:=afontnum
00908     C8 F2 04 F1 | 	add	objptr, #200
0090c     79 08 68 FC | 	wrlong	#4, objptr
00910     C8 F2 84 F1 | 	sub	objptr, #200
00914                 | ' repeat amode from 512 to 1023
00914     09 62 C5 F9 | 	decod	local08, #9
00918                 | LR__0006
00918                 | '   setmode(amode)
00918     B1 4A 01 F6 | 	mov	arg01, local08
0091c     04 14 B0 FD | 	call	#_setmode
00920                 | '   ccc:=((amode>>4)&3)
00920     B1 5A 01 F6 | 	mov	local04, local08
00924     04 5A 45 F0 | 	shr	local04, #4
00928     03 5A 0D F5 | 	and	local04, #3 wz
0092c                 | '   if (ccc==0)
0092c     80 01 90 5D |  if_ne	jmp	#LR__0007
00930                 | '     cls(0,1)
00930     00 4A 05 F6 | 	mov	arg01, #0
00934     01 4C 05 F6 | 	mov	arg02, #1
00938     88 11 B0 FD | 	call	#_cls
0093c                 | '     outtextxycg(0,0,string("mode"),0,1)
0093c     1B 00 00 FF 
00940     F6 4E 05 F6 | 	mov	arg03, ##@LR__0214
00944     00 4A 05 F6 | 	mov	arg01, #0
00948     00 4C 05 F6 | 	mov	arg02, #0
0094c     00 50 05 F6 | 	mov	arg04, #0
00950     01 52 05 F6 | 	mov	arg05, #1
00954     EC 0C B0 FD | 	call	#_outtextxycg
00958                 | '     outtextxycg(0,16,string("cpl"),0,1)
00958     1B 00 00 FF 
0095c     FB 4E 05 F6 | 	mov	arg03, ##@LR__0215
00960     00 4A 05 F6 | 	mov	arg01, #0
00964     10 4C 05 F6 | 	mov	arg02, #16
00968     00 50 05 F6 | 	mov	arg04, #0
0096c     01 52 05 F6 | 	mov	arg05, #1
00970     D0 0C B0 FD | 	call	#_outtextxycg
00974                 | '     outtextxycg(0,32,string("bufptr"),0,1)
00974     1B 00 00 FF 
00978     FF 4E 05 F6 | 	mov	arg03, ##@LR__0216
0097c     00 4A 05 F6 | 	mov	arg01, #0
00980     20 4C 05 F6 | 	mov	arg02, #32
00984     00 50 05 F6 | 	mov	arg04, #0
00988     01 52 05 F6 | 	mov	arg05, #1
0098c     B4 0C B0 FD | 	call	#_outtextxycg
00990                 | '     outtextxycg(0,48,string("buflen"),0,1)
00990     1B 00 00 FF 
00994     06 4F 05 F6 | 	mov	arg03, ##@LR__0217
00998     00 4A 05 F6 | 	mov	arg01, #0
0099c     30 4C 05 F6 | 	mov	arg02, #48
009a0     00 50 05 F6 | 	mov	arg04, #0
009a4     01 52 05 F6 | 	mov	arg05, #1
009a8     98 0C B0 FD | 	call	#_outtextxycg
009ac                 | '     outtextxycg(0,64,string("lines"),0,1)
009ac     1B 00 00 FF 
009b0     0D 4F 05 F6 | 	mov	arg03, ##@LR__0218
009b4     00 4A 05 F6 | 	mov	arg01, #0
009b8     40 4C 05 F6 | 	mov	arg02, #64
009bc     00 50 05 F6 | 	mov	arg04, #0
009c0     01 52 05 F6 | 	mov	arg05, #1
009c4     7C 0C B0 FD | 	call	#_outtextxycg
009c8                 | '     outtextxycg(64,0,inttostr(amode),0,1)
009c8     40 54 05 F6 | 	mov	local01, #64
009cc     00 56 05 F6 | 	mov	local02, #0
009d0     B1 4A 01 F6 | 	mov	arg01, local08
009d4     3C 12 B0 FD | 	call	#_inttostr
009d8     82 4E 01 F6 | 	mov	arg03, result1
009dc     AA 4A 01 F6 | 	mov	arg01, local01
009e0     AB 4C 01 F6 | 	mov	arg02, local02
009e4     00 50 05 F6 | 	mov	arg04, #0
009e8     01 52 05 F6 | 	mov	arg05, #1
009ec     54 0C B0 FD | 	call	#_outtextxycg
009f0                 | '     outtextxycg(64,16,inttostr(cpl),0,1)
009f0     40 54 05 F6 | 	mov	local01, #64
009f4     10 56 05 F6 | 	mov	local02, #16
009f8     90 F2 04 F1 | 	add	objptr, #144
009fc     79 4A 01 FB | 	rdlong	arg01, objptr
00a00     90 F2 84 F1 | 	sub	objptr, #144
00a04     0C 12 B0 FD | 	call	#_inttostr
00a08     82 4E 01 F6 | 	mov	arg03, result1
00a0c     AA 4A 01 F6 | 	mov	arg01, local01
00a10     AB 4C 01 F6 | 	mov	arg02, local02
00a14     00 50 05 F6 | 	mov	arg04, #0
00a18     01 52 05 F6 | 	mov	arg05, #1
00a1c     24 0C B0 FD | 	call	#_outtextxycg
00a20                 | '     outtextxycg(64,32,inttostr(buf_ptr),0,1)
00a20     40 54 05 F6 | 	mov	local01, #64
00a24     20 56 05 F6 | 	mov	local02, #32
00a28     79 4A 01 FB | 	rdlong	arg01, objptr
00a2c     E4 11 B0 FD | 	call	#_inttostr
00a30     82 4E 01 F6 | 	mov	arg03, result1
00a34     AA 4A 01 F6 | 	mov	arg01, local01
00a38     AB 4C 01 F6 | 	mov	arg02, local02
00a3c     00 50 05 F6 | 	mov	arg04, #0
00a40     01 52 05 F6 | 	mov	arg05, #1
00a44     FC 0B B0 FD | 	call	#_outtextxycg
00a48                 | '     outtextxycg(64,48,inttostr(buflen*4),0,1)
00a48     40 54 05 F6 | 	mov	local01, #64
00a4c     30 56 05 F6 | 	mov	local02, #48
00a50     30 F2 04 F1 | 	add	objptr, #48
00a54     79 4A 01 FB | 	rdlong	arg01, objptr
00a58     30 F2 84 F1 | 	sub	objptr, #48
00a5c     02 4A 65 F0 | 	shl	arg01, #2
00a60     B0 11 B0 FD | 	call	#_inttostr
00a64     82 4E 01 F6 | 	mov	arg03, result1
00a68     AA 4A 01 F6 | 	mov	arg01, local01
00a6c     AB 4C 01 F6 | 	mov	arg02, local02
00a70     00 50 05 F6 | 	mov	arg04, #0
00a74     01 52 05 F6 | 	mov	arg05, #1
00a78     C8 0B B0 FD | 	call	#_outtextxycg
00a7c                 | '     outtextxycg(64,64,inttostr(lines),0,1)
00a7c     40 54 05 F6 | 	mov	local01, #64
00a80     40 56 05 F6 | 	mov	local02, #64
00a84     94 F2 04 F1 | 	add	objptr, #148
00a88     79 4A 01 FB | 	rdlong	arg01, objptr
00a8c     94 F2 84 F1 | 	sub	objptr, #148
00a90     80 11 B0 FD | 	call	#_inttostr
00a94     82 4E 01 F6 | 	mov	arg03, result1
00a98     AA 4A 01 F6 | 	mov	arg01, local01
00a9c     AB 4C 01 F6 | 	mov	arg02, local02
00aa0     00 50 05 F6 | 	mov	arg04, #0
00aa4     01 52 05 F6 | 	mov	arg05, #1
00aa8     98 0B B0 FD | 	call	#_outtextxycg
00aac     94 04 90 FD | 	jmp	#LR__0013
00ab0                 | LR__0007
00ab0                 | '   elseif (ccc==1)
00ab0     01 5A 0D F2 | 	cmp	local04, #1 wz
00ab4     80 01 90 5D |  if_ne	jmp	#LR__0008
00ab8                 | '     cls(0,0)
00ab8     00 4A 05 F6 | 	mov	arg01, #0
00abc     00 4C 05 F6 | 	mov	arg02, #0
00ac0     00 10 B0 FD | 	call	#_cls
00ac4                 | '     outtextxycg(0,0,string("mode"),3,0)
00ac4     1B 00 00 FF 
00ac8     13 4F 05 F6 | 	mov	arg03, ##@LR__0219
00acc     00 4A 05 F6 | 	mov	arg01, #0
00ad0     00 4C 05 F6 | 	mov	arg02, #0
00ad4     03 50 05 F6 | 	mov	arg04, #3
00ad8     00 52 05 F6 | 	mov	arg05, #0
00adc     64 0B B0 FD | 	call	#_outtextxycg
00ae0                 | '     outtextxycg(0,16,string("cpl"),3,0)'
00ae0     1B 00 00 FF 
00ae4     18 4F 05 F6 | 	mov	arg03, ##@LR__0220
00ae8     00 4A 05 F6 | 	mov	arg01, #0
00aec     10 4C 05 F6 | 	mov	arg02, #16
00af0     03 50 05 F6 | 	mov	arg04, #3
00af4     00 52 05 F6 | 	mov	arg05, #0
00af8     48 0B B0 FD | 	call	#_outtextxycg
00afc                 | '     outtextxycg(0,32,string("buf_ptr"),3,0)
00afc     1B 00 00 FF 
00b00     1C 4F 05 F6 | 	mov	arg03, ##@LR__0221
00b04     00 4A 05 F6 | 	mov	arg01, #0
00b08     20 4C 05 F6 | 	mov	arg02, #32
00b0c     03 50 05 F6 | 	mov	arg04, #3
00b10     00 52 05 F6 | 	mov	arg05, #0
00b14     2C 0B B0 FD | 	call	#_outtextxycg
00b18                 | '     outtextxycg(0,48,string("buflen"),3,0)
00b18     1B 00 00 FF 
00b1c     24 4F 05 F6 | 	mov	arg03, ##@LR__0222
00b20     00 4A 05 F6 | 	mov	arg01, #0
00b24     30 4C 05 F6 | 	mov	arg02, #48
00b28     03 50 05 F6 | 	mov	arg04, #3
00b2c     00 52 05 F6 | 	mov	arg05, #0
00b30     10 0B B0 FD | 	call	#_outtextxycg
00b34                 | '     outtextxycg(0,64,string("lines"),3,0)
00b34     1B 00 00 FF 
00b38     2B 4F 05 F6 | 	mov	arg03, ##@LR__0223
00b3c     00 4A 05 F6 | 	mov	arg01, #0
00b40     40 4C 05 F6 | 	mov	arg02, #64
00b44     03 50 05 F6 | 	mov	arg04, #3
00b48     00 52 05 F6 | 	mov	arg05, #0
00b4c     F4 0A B0 FD | 	call	#_outtextxycg
00b50                 | '     outtextxycg(64,0,inttostr(amode),2,0)
00b50     40 54 05 F6 | 	mov	local01, #64
00b54     00 56 05 F6 | 	mov	local02, #0
00b58     B1 4A 01 F6 | 	mov	arg01, local08
00b5c     B4 10 B0 FD | 	call	#_inttostr
00b60     82 4E 01 F6 | 	mov	arg03, result1
00b64     AA 4A 01 F6 | 	mov	arg01, local01
00b68     AB 4C 01 F6 | 	mov	arg02, local02
00b6c     02 50 05 F6 | 	mov	arg04, #2
00b70     00 52 05 F6 | 	mov	arg05, #0
00b74     CC 0A B0 FD | 	call	#_outtextxycg
00b78                 | '     outtextxycg(64,16,inttostr(cpl),2,0)
00b78     40 54 05 F6 | 	mov	local01, #64
00b7c     10 56 05 F6 | 	mov	local02, #16
00b80     90 F2 04 F1 | 	add	objptr, #144
00b84     79 4A 01 FB | 	rdlong	arg01, objptr
00b88     90 F2 84 F1 | 	sub	objptr, #144
00b8c     84 10 B0 FD | 	call	#_inttostr
00b90     82 4E 01 F6 | 	mov	arg03, result1
00b94     AA 4A 01 F6 | 	mov	arg01, local01
00b98     AB 4C 01 F6 | 	mov	arg02, local02
00b9c     02 50 05 F6 | 	mov	arg04, #2
00ba0     00 52 05 F6 | 	mov	arg05, #0
00ba4     9C 0A B0 FD | 	call	#_outtextxycg
00ba8                 | '     outtextxycg(64,32,inttostr(buf_ptr),2,0)
00ba8     40 54 05 F6 | 	mov	local01, #64
00bac     20 56 05 F6 | 	mov	local02, #32
00bb0     79 4A 01 FB | 	rdlong	arg01, objptr
00bb4     5C 10 B0 FD | 	call	#_inttostr
00bb8     82 4E 01 F6 | 	mov	arg03, result1
00bbc     AA 4A 01 F6 | 	mov	arg01, local01
00bc0     AB 4C 01 F6 | 	mov	arg02, local02
00bc4     02 50 05 F6 | 	mov	arg04, #2
00bc8     00 52 05 F6 | 	mov	arg05, #0
00bcc     74 0A B0 FD | 	call	#_outtextxycg
00bd0                 | '     outtextxycg(64,48,inttostr(buflen*4),2,0)
00bd0     40 54 05 F6 | 	mov	local01, #64
00bd4     30 56 05 F6 | 	mov	local02, #48
00bd8     30 F2 04 F1 | 	add	objptr, #48
00bdc     79 4A 01 FB | 	rdlong	arg01, objptr
00be0     30 F2 84 F1 | 	sub	objptr, #48
00be4     02 4A 65 F0 | 	shl	arg01, #2
00be8     28 10 B0 FD | 	call	#_inttostr
00bec     82 4E 01 F6 | 	mov	arg03, result1
00bf0     AA 4A 01 F6 | 	mov	arg01, local01
00bf4     AB 4C 01 F6 | 	mov	arg02, local02
00bf8     02 50 05 F6 | 	mov	arg04, #2
00bfc     00 52 05 F6 | 	mov	arg05, #0
00c00     40 0A B0 FD | 	call	#_outtextxycg
00c04                 | '     outtextxycg(64,64,inttostr(lines),2,0)
00c04     40 54 05 F6 | 	mov	local01, #64
00c08     40 56 05 F6 | 	mov	local02, #64
00c0c     94 F2 04 F1 | 	add	objptr, #148
00c10     79 4A 01 FB | 	rdlong	arg01, objptr
00c14     94 F2 84 F1 | 	sub	objptr, #148
00c18     F8 0F B0 FD | 	call	#_inttostr
00c1c     82 4E 01 F6 | 	mov	arg03, result1
00c20     AA 4A 01 F6 | 	mov	arg01, local01
00c24     AB 4C 01 F6 | 	mov	arg02, local02
00c28     02 50 05 F6 | 	mov	arg04, #2
00c2c     00 52 05 F6 | 	mov	arg05, #0
00c30     10 0A B0 FD | 	call	#_outtextxycg
00c34     0C 03 90 FD | 	jmp	#LR__0012
00c38                 | LR__0008
00c38                 | '   elseif (ccc==2)
00c38     02 5A 0D F2 | 	cmp	local04, #2 wz
00c3c     80 01 90 5D |  if_ne	jmp	#LR__0009
00c40                 | '     cls(0,0)
00c40     00 4A 05 F6 | 	mov	arg01, #0
00c44     00 4C 05 F6 | 	mov	arg02, #0
00c48     78 0E B0 FD | 	call	#_cls
00c4c                 | '     outtextxycg(0,0,string("mode"),9,0)
00c4c     1B 00 00 FF 
00c50     31 4F 05 F6 | 	mov	arg03, ##@LR__0224
00c54     00 4A 05 F6 | 	mov	arg01, #0
00c58     00 4C 05 F6 | 	mov	arg02, #0
00c5c     09 50 05 F6 | 	mov	arg04, #9
00c60     00 52 05 F6 | 	mov	arg05, #0
00c64     DC 09 B0 FD | 	call	#_outtextxycg
00c68                 | '     outtextxycg(0,16,string("cpl"),9,0)'
00c68     1B 00 00 FF 
00c6c     36 4F 05 F6 | 	mov	arg03, ##@LR__0225
00c70     00 4A 05 F6 | 	mov	arg01, #0
00c74     10 4C 05 F6 | 	mov	arg02, #16
00c78     09 50 05 F6 | 	mov	arg04, #9
00c7c     00 52 05 F6 | 	mov	arg05, #0
00c80     C0 09 B0 FD | 	call	#_outtextxycg
00c84                 | '     outtextxycg(0,32,string("buf_ptr"),9,0)
00c84     1B 00 00 FF 
00c88     3A 4F 05 F6 | 	mov	arg03, ##@LR__0226
00c8c     00 4A 05 F6 | 	mov	arg01, #0
00c90     20 4C 05 F6 | 	mov	arg02, #32
00c94     09 50 05 F6 | 	mov	arg04, #9
00c98     00 52 05 F6 | 	mov	arg05, #0
00c9c     A4 09 B0 FD | 	call	#_outtextxycg
00ca0                 | '     outtextxycg(0,48,string("buflen"),9,0)
00ca0     1B 00 00 FF 
00ca4     42 4F 05 F6 | 	mov	arg03, ##@LR__0227
00ca8     00 4A 05 F6 | 	mov	arg01, #0
00cac     30 4C 05 F6 | 	mov	arg02, #48
00cb0     09 50 05 F6 | 	mov	arg04, #9
00cb4     00 52 05 F6 | 	mov	arg05, #0
00cb8     88 09 B0 FD | 	call	#_outtextxycg
00cbc                 | '     outtextxycg(0,64,string("lines"),9,0)
00cbc     1B 00 00 FF 
00cc0     49 4F 05 F6 | 	mov	arg03, ##@LR__0228
00cc4     00 4A 05 F6 | 	mov	arg01, #0
00cc8     40 4C 05 F6 | 	mov	arg02, #64
00ccc     09 50 05 F6 | 	mov	arg04, #9
00cd0     00 52 05 F6 | 	mov	arg05, #0
00cd4     6C 09 B0 FD | 	call	#_outtextxycg
00cd8                 | '     outtextxycg(64,0,inttostr(amode),4,0)
00cd8     40 54 05 F6 | 	mov	local01, #64
00cdc     00 56 05 F6 | 	mov	local02, #0
00ce0     B1 4A 01 F6 | 	mov	arg01, local08
00ce4     2C 0F B0 FD | 	call	#_inttostr
00ce8     82 4E 01 F6 | 	mov	arg03, result1
00cec     AA 4A 01 F6 | 	mov	arg01, local01
00cf0     AB 4C 01 F6 | 	mov	arg02, local02
00cf4     04 50 05 F6 | 	mov	arg04, #4
00cf8     00 52 05 F6 | 	mov	arg05, #0
00cfc     44 09 B0 FD | 	call	#_outtextxycg
00d00                 | '     outtextxycg(64,16,inttostr(cpl),4,0)
00d00     40 54 05 F6 | 	mov	local01, #64
00d04     10 56 05 F6 | 	mov	local02, #16
00d08     90 F2 04 F1 | 	add	objptr, #144
00d0c     79 4A 01 FB | 	rdlong	arg01, objptr
00d10     90 F2 84 F1 | 	sub	objptr, #144
00d14     FC 0E B0 FD | 	call	#_inttostr
00d18     82 4E 01 F6 | 	mov	arg03, result1
00d1c     AA 4A 01 F6 | 	mov	arg01, local01
00d20     AB 4C 01 F6 | 	mov	arg02, local02
00d24     04 50 05 F6 | 	mov	arg04, #4
00d28     00 52 05 F6 | 	mov	arg05, #0
00d2c     14 09 B0 FD | 	call	#_outtextxycg
00d30                 | '     outtextxycg(64,32,inttostr(buf_ptr),4,0)
00d30     40 54 05 F6 | 	mov	local01, #64
00d34     20 56 05 F6 | 	mov	local02, #32
00d38     79 4A 01 FB | 	rdlong	arg01, objptr
00d3c     D4 0E B0 FD | 	call	#_inttostr
00d40     82 4E 01 F6 | 	mov	arg03, result1
00d44     AA 4A 01 F6 | 	mov	arg01, local01
00d48     AB 4C 01 F6 | 	mov	arg02, local02
00d4c     04 50 05 F6 | 	mov	arg04, #4
00d50     00 52 05 F6 | 	mov	arg05, #0
00d54     EC 08 B0 FD | 	call	#_outtextxycg
00d58                 | '     outtextxycg(64,48,inttostr(buflen*4),4,0)
00d58     40 54 05 F6 | 	mov	local01, #64
00d5c     30 56 05 F6 | 	mov	local02, #48
00d60     30 F2 04 F1 | 	add	objptr, #48
00d64     79 4A 01 FB | 	rdlong	arg01, objptr
00d68     30 F2 84 F1 | 	sub	objptr, #48
00d6c     02 4A 65 F0 | 	shl	arg01, #2
00d70     A0 0E B0 FD | 	call	#_inttostr
00d74     82 4E 01 F6 | 	mov	arg03, result1
00d78     AA 4A 01 F6 | 	mov	arg01, local01
00d7c     AB 4C 01 F6 | 	mov	arg02, local02
00d80     04 50 05 F6 | 	mov	arg04, #4
00d84     00 52 05 F6 | 	mov	arg05, #0
00d88     B8 08 B0 FD | 	call	#_outtextxycg
00d8c                 | '     outtextxycg(64,64,inttostr(lines),4,0)
00d8c     40 54 05 F6 | 	mov	local01, #64
00d90     40 56 05 F6 | 	mov	local02, #64
00d94     94 F2 04 F1 | 	add	objptr, #148
00d98     79 4A 01 FB | 	rdlong	arg01, objptr
00d9c     94 F2 84 F1 | 	sub	objptr, #148
00da0     70 0E B0 FD | 	call	#_inttostr
00da4     82 4E 01 F6 | 	mov	arg03, result1
00da8     AA 4A 01 F6 | 	mov	arg01, local01
00dac     AB 4C 01 F6 | 	mov	arg02, local02
00db0     04 50 05 F6 | 	mov	arg04, #4
00db4     00 52 05 F6 | 	mov	arg05, #0
00db8     88 08 B0 FD | 	call	#_outtextxycg
00dbc     84 01 90 FD | 	jmp	#LR__0011
00dc0                 | LR__0009
00dc0                 | '   elseif (ccc==3)
00dc0     03 5A 0D F2 | 	cmp	local04, #3 wz
00dc4     7C 01 90 5D |  if_ne	jmp	#LR__0010
00dc8                 | '     cls(0,0)
00dc8     00 4A 05 F6 | 	mov	arg01, #0
00dcc     00 4C 05 F6 | 	mov	arg02, #0
00dd0     F0 0C B0 FD | 	call	#_cls
00dd4                 | '     outtextxycg(0,0,string("mode"),120,0)
00dd4     1B 00 00 FF 
00dd8     4F 4F 05 F6 | 	mov	arg03, ##@LR__0229
00ddc     00 4A 05 F6 | 	mov	arg01, #0
00de0     00 4C 05 F6 | 	mov	arg02, #0
00de4     78 50 05 F6 | 	mov	arg04, #120
00de8     00 52 05 F6 | 	mov	arg05, #0
00dec     54 08 B0 FD | 	call	#_outtextxycg
00df0                 | '     outtextxycg(0,16,string("cpl"),120,0)'
00df0     1B 00 00 FF 
00df4     54 4F 05 F6 | 	mov	arg03, ##@LR__0230
00df8     00 4A 05 F6 | 	mov	arg01, #0
00dfc     10 4C 05 F6 | 	mov	arg02, #16
00e00     78 50 05 F6 | 	mov	arg04, #120
00e04     00 52 05 F6 | 	mov	arg05, #0
00e08     38 08 B0 FD | 	call	#_outtextxycg
00e0c                 | '     outtextxycg(0,32,string("buf_ptr"),120,0)
00e0c     1B 00 00 FF 
00e10     58 4F 05 F6 | 	mov	arg03, ##@LR__0231
00e14     00 4A 05 F6 | 	mov	arg01, #0
00e18     20 4C 05 F6 | 	mov	arg02, #32
00e1c     78 50 05 F6 | 	mov	arg04, #120
00e20     00 52 05 F6 | 	mov	arg05, #0
00e24     1C 08 B0 FD | 	call	#_outtextxycg
00e28                 | '     outtextxycg(0,48,string("buflen"),120,0)
00e28     1B 00 00 FF 
00e2c     60 4F 05 F6 | 	mov	arg03, ##@LR__0232
00e30     00 4A 05 F6 | 	mov	arg01, #0
00e34     30 4C 05 F6 | 	mov	arg02, #48
00e38     78 50 05 F6 | 	mov	arg04, #120
00e3c     00 52 05 F6 | 	mov	arg05, #0
00e40     00 08 B0 FD | 	call	#_outtextxycg
00e44                 | '     outtextxycg(0,64,string("lines"),120,0)
00e44     1B 00 00 FF 
00e48     67 4F 05 F6 | 	mov	arg03, ##@LR__0233
00e4c     00 4A 05 F6 | 	mov	arg01, #0
00e50     40 4C 05 F6 | 	mov	arg02, #64
00e54     78 50 05 F6 | 	mov	arg04, #120
00e58     00 52 05 F6 | 	mov	arg05, #0
00e5c     E4 07 B0 FD | 	call	#_outtextxycg
00e60                 | '     outtextxycg(64,0,inttostr(amode),40,0)
00e60     40 54 05 F6 | 	mov	local01, #64
00e64     00 56 05 F6 | 	mov	local02, #0
00e68     B1 4A 01 F6 | 	mov	arg01, local08
00e6c     A4 0D B0 FD | 	call	#_inttostr
00e70     82 4E 01 F6 | 	mov	arg03, result1
00e74     AA 4A 01 F6 | 	mov	arg01, local01
00e78     AB 4C 01 F6 | 	mov	arg02, local02
00e7c     28 50 05 F6 | 	mov	arg04, #40
00e80     00 52 05 F6 | 	mov	arg05, #0
00e84     BC 07 B0 FD | 	call	#_outtextxycg
00e88                 | '     outtextxycg(64,16,inttostr(cpl),40,0)
00e88     40 54 05 F6 | 	mov	local01, #64
00e8c     10 56 05 F6 | 	mov	local02, #16
00e90     90 F2 04 F1 | 	add	objptr, #144
00e94     79 4A 01 FB | 	rdlong	arg01, objptr
00e98     90 F2 84 F1 | 	sub	objptr, #144
00e9c     74 0D B0 FD | 	call	#_inttostr
00ea0     82 4E 01 F6 | 	mov	arg03, result1
00ea4     AA 4A 01 F6 | 	mov	arg01, local01
00ea8     AB 4C 01 F6 | 	mov	arg02, local02
00eac     28 50 05 F6 | 	mov	arg04, #40
00eb0     00 52 05 F6 | 	mov	arg05, #0
00eb4     8C 07 B0 FD | 	call	#_outtextxycg
00eb8                 | '     outtextxycg(64,32,inttostr(buf_ptr),40,0)
00eb8     40 54 05 F6 | 	mov	local01, #64
00ebc     20 56 05 F6 | 	mov	local02, #32
00ec0     79 4A 01 FB | 	rdlong	arg01, objptr
00ec4     4C 0D B0 FD | 	call	#_inttostr
00ec8     82 4E 01 F6 | 	mov	arg03, result1
00ecc     AA 4A 01 F6 | 	mov	arg01, local01
00ed0     AB 4C 01 F6 | 	mov	arg02, local02
00ed4     28 50 05 F6 | 	mov	arg04, #40
00ed8     00 52 05 F6 | 	mov	arg05, #0
00edc     64 07 B0 FD | 	call	#_outtextxycg
00ee0                 | '     outtextxycg(64,48,inttostr(buflen*4),40,0)
00ee0     40 54 05 F6 | 	mov	local01, #64
00ee4     30 56 05 F6 | 	mov	local02, #48
00ee8     30 F2 04 F1 | 	add	objptr, #48
00eec     79 4A 01 FB | 	rdlong	arg01, objptr
00ef0     30 F2 84 F1 | 	sub	objptr, #48
00ef4     02 4A 65 F0 | 	shl	arg01, #2
00ef8     18 0D B0 FD | 	call	#_inttostr
00efc     82 4E 01 F6 | 	mov	arg03, result1
00f00     AA 4A 01 F6 | 	mov	arg01, local01
00f04     AB 4C 01 F6 | 	mov	arg02, local02
00f08     28 50 05 F6 | 	mov	arg04, #40
00f0c     00 52 05 F6 | 	mov	arg05, #0
00f10     30 07 B0 FD | 	call	#_outtextxycg
00f14                 | '     outtextxycg(64,64,inttostr(lines),40,0)
00f14     40 54 05 F6 | 	mov	local01, #64
00f18     40 56 05 F6 | 	mov	local02, #64
00f1c     94 F2 04 F1 | 	add	objptr, #148
00f20     79 4A 01 FB | 	rdlong	arg01, objptr
00f24     94 F2 84 F1 | 	sub	objptr, #148
00f28     E8 0C B0 FD | 	call	#_inttostr
00f2c     82 4E 01 F6 | 	mov	arg03, result1
00f30     AA 4A 01 F6 | 	mov	arg01, local01
00f34     AB 4C 01 F6 | 	mov	arg02, local02
00f38     28 50 05 F6 | 	mov	arg04, #40
00f3c     00 52 05 F6 | 	mov	arg05, #0
00f40     00 07 B0 FD | 	call	#_outtextxycg
00f44                 | LR__0010
00f44                 | LR__0011
00f44                 | LR__0012
00f44                 | LR__0013
00f44                 | '   waitvbl(300)
00f44     2C 4B 05 F6 | 	mov	arg01, #300
00f48     E0 0A B0 FD | 	call	#_waitvbl
00f4c     01 62 05 F1 | 	add	local08, #1
00f50     02 00 00 FF 
00f54     00 62 5D F2 | 	cmps	local08, ##1024 wcz
00f58     BC F9 9F CD |  if_b	jmp	#LR__0006
00f5c                 | ' 
00f5c                 | ' repeat
00f5c                 | LR__0014
00f5c     FC FF 9F FD | 	jmp	#LR__0014
00f60     46 F0 03 F6 | 	mov	ptra, fp
00f64     5A 00 A0 FD | 	call	#popregs_
00f68                 | _dummy_ret
00f68     2D 00 64 FD | 	ret
00f6c                 | 
00f6c                 | ' 
00f6c                 | ' '------------------------------
00f6c                 | ' 
00f6c                 | ' pub fcircle(x0,y0,r,c) | d,x,y,da,db
00f6c                 | _fcircle
00f6c     0A 88 04 F6 | 	mov	COUNT_, #10
00f70     4B 00 A0 FD | 	call	#pushregs_
00f74     A5 54 01 F6 | 	mov	local01, arg01
00f78     A6 56 01 F6 | 	mov	local02, arg02
00f7c     A7 58 01 F6 | 	mov	local03, arg03
00f80     A8 5A 01 F6 | 	mov	local04, arg04
00f84                 | ' 
00f84                 | ' d:=5-4*r
00f84     AC 5C 01 F6 | 	mov	local05, local03
00f88     02 5C 65 F0 | 	shl	local05, #2
00f8c     05 5E 05 F6 | 	mov	local06, #5
00f90     AE 5E 81 F1 | 	sub	local06, local05
00f94                 | ' x:=0
00f94     00 60 05 F6 | 	mov	local07, #0
00f98                 | ' y:=r
00f98     AC 62 01 F6 | 	mov	local08, local03
00f9c                 | ' da:=(-2*r+5)*4
00f9c     FF FF 7F FF 
00fa0     FE 59 05 FD | 	qmul	local03, ##-2
00fa4     18 64 61 FD | 	getqx	local09
00fa8     05 64 05 F1 | 	add	local09, #5
00fac     02 64 65 F0 | 	shl	local09, #2
00fb0                 | ' db:=3*4
00fb0     0C 66 05 F6 | 	mov	local10, #12
00fb4                 | ' repeat while (x<=y) 
00fb4                 | LR__0015
00fb4     B1 60 59 F2 | 	cmps	local07, local08 wcz
00fb8     D4 00 90 1D |  if_a	jmp	#LR__0017
00fbc                 | '   line(x0-x,y0-y,x0+x,y0-y,c)
00fbc     AA 4A 01 F6 | 	mov	arg01, local01
00fc0     B0 4A 81 F1 | 	sub	arg01, local07
00fc4     AB 4C 01 F6 | 	mov	arg02, local02
00fc8     B1 4C 81 F1 | 	sub	arg02, local08
00fcc     AA 4E 01 F6 | 	mov	arg03, local01
00fd0     B0 4E 01 F1 | 	add	arg03, local07
00fd4     AB 50 01 F6 | 	mov	arg04, local02
00fd8     B1 50 81 F1 | 	sub	arg04, local08
00fdc     AD 52 01 F6 | 	mov	arg05, local04
00fe0     B8 03 B0 FD | 	call	#_line
00fe4                 | '   line(x0-x,y0+y,x0+x,y0+y,c)
00fe4     AA 4A 01 F6 | 	mov	arg01, local01
00fe8     B0 4A 81 F1 | 	sub	arg01, local07
00fec     AB 4C 01 F6 | 	mov	arg02, local02
00ff0     B1 4C 01 F1 | 	add	arg02, local08
00ff4     AA 4E 01 F6 | 	mov	arg03, local01
00ff8     B0 4E 01 F1 | 	add	arg03, local07
00ffc     AB 50 01 F6 | 	mov	arg04, local02
01000     B1 50 01 F1 | 	add	arg04, local08
01004     AD 52 01 F6 | 	mov	arg05, local04
01008     90 03 B0 FD | 	call	#_line
0100c                 | '   line(x0-y,y0-x,x0+y,y0-x,c)
0100c     AA 4A 01 F6 | 	mov	arg01, local01
01010     B1 4A 81 F1 | 	sub	arg01, local08
01014     AB 4C 01 F6 | 	mov	arg02, local02
01018     B0 4C 81 F1 | 	sub	arg02, local07
0101c     AA 4E 01 F6 | 	mov	arg03, local01
01020     B1 4E 01 F1 | 	add	arg03, local08
01024     AB 50 01 F6 | 	mov	arg04, local02
01028     B0 50 81 F1 | 	sub	arg04, local07
0102c     AD 52 01 F6 | 	mov	arg05, local04
01030     68 03 B0 FD | 	call	#_line
01034                 | '   line(x0-y,y0+x,x0+y,y0+x,c)
01034     AA 4A 01 F6 | 	mov	arg01, local01
01038     B1 4A 81 F1 | 	sub	arg01, local08
0103c     AB 4C 01 F6 | 	mov	arg02, local02
01040     B0 4C 01 F1 | 	add	arg02, local07
01044     AA 4E 01 F6 | 	mov	arg03, local01
01048     B1 4E 01 F1 | 	add	arg03, local08
0104c     AB 50 01 F6 | 	mov	arg04, local02
01050     B0 50 01 F1 | 	add	arg04, local07
01054     AD 52 01 F6 | 	mov	arg05, local04
01058     40 03 B0 FD | 	call	#_line
0105c                 | '   if d>0 
0105c     00 5E 5D F2 | 	cmps	local06, #0 wcz
01060     18 00 90 ED |  if_be	jmp	#LR__0016
01064                 | '     d+=da
01064     B2 5E 01 F1 | 	add	local06, local09
01068                 | '     y-=1
01068     01 62 85 F1 | 	sub	local08, #1
0106c                 | '     x+=1
0106c     01 60 05 F1 | 	add	local07, #1
01070                 | '     da+=4*4
01070     10 64 05 F1 | 	add	local09, #16
01074                 | '     db+=2*4
01074     08 66 05 F1 | 	add	local10, #8
01078                 | '   else
01078     38 FF 9F FD | 	jmp	#LR__0015
0107c                 | LR__0016
0107c                 | '     d+=db
0107c     B3 5E 01 F1 | 	add	local06, local10
01080                 | '     x+=1
01080     01 60 05 F1 | 	add	local07, #1
01084                 | '     da+=2*4
01084     08 64 05 F1 | 	add	local09, #8
01088                 | '     db+=2*4
01088     08 66 05 F1 | 	add	local10, #8
0108c     24 FF 9F FD | 	jmp	#LR__0015
01090                 | LR__0017
01090     46 F0 03 F6 | 	mov	ptra, fp
01094     5A 00 A0 FD | 	call	#popregs_
01098                 | _fcircle_ret
01098     2D 00 64 FD | 	ret
0109c                 | 
0109c                 | '  
0109c                 | '  
0109c                 | '  
0109c                 | ' pub circle(x0,y0,r,c) | d,x,y,da,db
0109c                 | _circle
0109c     0D 88 04 F6 | 	mov	COUNT_, #13
010a0     4B 00 A0 FD | 	call	#pushregs_
010a4     A5 54 01 F6 | 	mov	local01, arg01
010a8     A6 56 01 F6 | 	mov	local02, arg02
010ac     A7 58 01 F6 | 	mov	local03, arg03
010b0     A8 5A 01 F6 | 	mov	local04, arg04
010b4                 | ' 
010b4                 | '  
010b4                 | ' d:=5-4*r
010b4     AC 5C 01 F6 | 	mov	local05, local03
010b8     02 5C 65 F0 | 	shl	local05, #2
010bc     05 5E 05 F6 | 	mov	local06, #5
010c0     AE 5E 81 F1 | 	sub	local06, local05
010c4                 | ' x:=0
010c4     00 60 05 F6 | 	mov	local07, #0
010c8                 | ' y:=r
010c8     AC 62 01 F6 | 	mov	local08, local03
010cc                 | ' da:=(-2*r+5)*4
010cc     FF FF 7F FF 
010d0     FE 59 05 FD | 	qmul	local03, ##-2
010d4     18 64 61 FD | 	getqx	local09
010d8     05 64 05 F1 | 	add	local09, #5
010dc     02 64 65 F0 | 	shl	local09, #2
010e0                 | ' db:=3*4
010e0     0C 66 05 F6 | 	mov	local10, #12
010e4                 | ' repeat while (x<=y) 
010e4                 | LR__0018
010e4     B1 60 59 F2 | 	cmps	local07, local08 wcz
010e8     C0 01 90 1D |  if_a	jmp	#LR__0020
010ec                 | '   putpixel(x0-x,y0-y,c)
010ec     D8 F2 04 F1 | 	add	objptr, #216
010f0     79 68 01 FB | 	rdlong	local11, objptr
010f4     D8 F2 84 F1 | 	sub	objptr, #216
010f8     B4 5C 01 FB | 	rdlong	local05, local11
010fc     04 68 05 F1 | 	add	local11, #4
01100     B4 6A 01 FB | 	rdlong	local12, local11
01104     AA 4A 01 F6 | 	mov	arg01, local01
01108     B0 4A 81 F1 | 	sub	arg01, local07
0110c     AB 4C 01 F6 | 	mov	arg02, local02
01110     B1 4C 81 F1 | 	sub	arg02, local08
01114     AD 4E 01 F6 | 	mov	arg03, local04
01118     79 6C 01 F6 | 	mov	local13, objptr
0111c     AE F2 00 F6 | 	mov	objptr, local05
01120     2D 6A 61 FD | 	call	local12
01124                 | '   putpixel(x0-x,y0+y,c)
01124     D8 6C 05 F1 | 	add	local13, #216
01128     B6 68 01 FB | 	rdlong	local11, local13
0112c     D8 6C 85 F1 | 	sub	local13, #216
01130     B4 F2 00 FB | 	rdlong	objptr, local11
01134     04 68 05 F1 | 	add	local11, #4
01138     B4 6A 01 FB | 	rdlong	local12, local11
0113c     AA 4A 01 F6 | 	mov	arg01, local01
01140     B0 4A 81 F1 | 	sub	arg01, local07
01144     AB 4C 01 F6 | 	mov	arg02, local02
01148     B1 4C 01 F1 | 	add	arg02, local08
0114c     AD 4E 01 F6 | 	mov	arg03, local04
01150     2D 6A 61 FD | 	call	local12
01154                 | '   putpixel(x0+x,y0-y,c)
01154     D8 6C 05 F1 | 	add	local13, #216
01158     B6 68 01 FB | 	rdlong	local11, local13
0115c     D8 6C 85 F1 | 	sub	local13, #216
01160     B4 F2 00 FB | 	rdlong	objptr, local11
01164     04 68 05 F1 | 	add	local11, #4
01168     B4 6A 01 FB | 	rdlong	local12, local11
0116c     AA 4A 01 F6 | 	mov	arg01, local01
01170     B0 4A 01 F1 | 	add	arg01, local07
01174     AB 4C 01 F6 | 	mov	arg02, local02
01178     B1 4C 81 F1 | 	sub	arg02, local08
0117c     AD 4E 01 F6 | 	mov	arg03, local04
01180     2D 6A 61 FD | 	call	local12
01184                 | '   putpixel(x0+x,y0+y,c)
01184     D8 6C 05 F1 | 	add	local13, #216
01188     B6 68 01 FB | 	rdlong	local11, local13
0118c     D8 6C 85 F1 | 	sub	local13, #216
01190     B4 F2 00 FB | 	rdlong	objptr, local11
01194     04 68 05 F1 | 	add	local11, #4
01198     B4 6A 01 FB | 	rdlong	local12, local11
0119c     AA 4A 01 F6 | 	mov	arg01, local01
011a0     B0 4A 01 F1 | 	add	arg01, local07
011a4     AB 4C 01 F6 | 	mov	arg02, local02
011a8     B1 4C 01 F1 | 	add	arg02, local08
011ac     AD 4E 01 F6 | 	mov	arg03, local04
011b0     2D 6A 61 FD | 	call	local12
011b4                 | '   putpixel(x0-y,y0-x,c)
011b4     D8 6C 05 F1 | 	add	local13, #216
011b8     B6 68 01 FB | 	rdlong	local11, local13
011bc     D8 6C 85 F1 | 	sub	local13, #216
011c0     B4 F2 00 FB | 	rdlong	objptr, local11
011c4     04 68 05 F1 | 	add	local11, #4
011c8     B4 6A 01 FB | 	rdlong	local12, local11
011cc     AA 4A 01 F6 | 	mov	arg01, local01
011d0     B1 4A 81 F1 | 	sub	arg01, local08
011d4     AB 4C 01 F6 | 	mov	arg02, local02
011d8     B0 4C 81 F1 | 	sub	arg02, local07
011dc     AD 4E 01 F6 | 	mov	arg03, local04
011e0     2D 6A 61 FD | 	call	local12
011e4                 | '   putpixel(x0-y,y0+x,c)
011e4     D8 6C 05 F1 | 	add	local13, #216
011e8     B6 68 01 FB | 	rdlong	local11, local13
011ec     D8 6C 85 F1 | 	sub	local13, #216
011f0     B4 F2 00 FB | 	rdlong	objptr, local11
011f4     04 68 05 F1 | 	add	local11, #4
011f8     B4 6A 01 FB | 	rdlong	local12, local11
011fc     AA 4A 01 F6 | 	mov	arg01, local01
01200     B1 4A 81 F1 | 	sub	arg01, local08
01204     AB 4C 01 F6 | 	mov	arg02, local02
01208     B0 4C 01 F1 | 	add	arg02, local07
0120c     AD 4E 01 F6 | 	mov	arg03, local04
01210     2D 6A 61 FD | 	call	local12
01214                 | '   putpixel(x0+y,y0-x,c)
01214     D8 6C 05 F1 | 	add	local13, #216
01218     B6 68 01 FB | 	rdlong	local11, local13
0121c     D8 6C 85 F1 | 	sub	local13, #216
01220     B4 F2 00 FB | 	rdlong	objptr, local11
01224     04 68 05 F1 | 	add	local11, #4
01228     B4 6A 01 FB | 	rdlong	local12, local11
0122c     AA 4A 01 F6 | 	mov	arg01, local01
01230     B1 4A 01 F1 | 	add	arg01, local08
01234     AB 4C 01 F6 | 	mov	arg02, local02
01238     B0 4C 81 F1 | 	sub	arg02, local07
0123c     AD 4E 01 F6 | 	mov	arg03, local04
01240     2D 6A 61 FD | 	call	local12
01244                 | '   putpixel(x0+y,y0+x,c)
01244     D8 6C 05 F1 | 	add	local13, #216
01248     B6 68 01 FB | 	rdlong	local11, local13
0124c     D8 6C 85 F1 | 	sub	local13, #216
01250     B4 F2 00 FB | 	rdlong	objptr, local11
01254     04 68 05 F1 | 	add	local11, #4
01258     B4 6A 01 FB | 	rdlong	local12, local11
0125c     AA 4A 01 F6 | 	mov	arg01, local01
01260     B1 4A 01 F1 | 	add	arg01, local08
01264     AB 4C 01 F6 | 	mov	arg02, local02
01268     B0 4C 01 F1 | 	add	arg02, local07
0126c     AD 4E 01 F6 | 	mov	arg03, local04
01270     2D 6A 61 FD | 	call	local12
01274     B6 F2 00 F6 | 	mov	objptr, local13
01278                 | '   if d>0 
01278     00 5E 5D F2 | 	cmps	local06, #0 wcz
0127c     18 00 90 ED |  if_be	jmp	#LR__0019
01280                 | '     d+=da
01280     B2 5E 01 F1 | 	add	local06, local09
01284                 | '     y-=1
01284     01 62 85 F1 | 	sub	local08, #1
01288                 | '     x+=1
01288     01 60 05 F1 | 	add	local07, #1
0128c                 | '     da+=4*4
0128c     10 64 05 F1 | 	add	local09, #16
01290                 | '     db+=2*4
01290     08 66 05 F1 | 	add	local10, #8
01294                 | '   else
01294     4C FE 9F FD | 	jmp	#LR__0018
01298                 | LR__0019
01298                 | '     d+=db
01298     B3 5E 01 F1 | 	add	local06, local10
0129c                 | '     x+=1
0129c     01 60 05 F1 | 	add	local07, #1
012a0                 | '     da+=2*4
012a0     08 64 05 F1 | 	add	local09, #8
012a4                 | '     db+=2*4
012a4     08 66 05 F1 | 	add	local10, #8
012a8     38 FE 9F FD | 	jmp	#LR__0018
012ac                 | LR__0020
012ac     46 F0 03 F6 | 	mov	ptra, fp
012b0     5A 00 A0 FD | 	call	#popregs_
012b4                 | _circle_ret
012b4     2D 00 64 FD | 	ret
012b8                 | 
012b8                 | ' 
012b8                 | ' 
012b8                 | ' pub frame(x1,y1,x2,y2,c)
012b8                 | _frame
012b8     05 88 04 F6 | 	mov	COUNT_, #5
012bc     4B 00 A0 FD | 	call	#pushregs_
012c0     A5 54 01 F6 | 	mov	local01, arg01
012c4     A6 56 01 F6 | 	mov	local02, arg02
012c8     A7 58 01 F6 | 	mov	local03, arg03
012cc     A8 5A 01 F6 | 	mov	local04, arg04
012d0     A9 5C 01 F6 | 	mov	local05, arg05
012d4                 | ' 
012d4                 | ' line(x1,y1,x2,y1,c)
012d4     AA 4A 01 F6 | 	mov	arg01, local01
012d8     AB 4C 01 F6 | 	mov	arg02, local02
012dc     AC 4E 01 F6 | 	mov	arg03, local03
012e0     AB 50 01 F6 | 	mov	arg04, local02
012e4     AE 52 01 F6 | 	mov	arg05, local05
012e8     B0 00 B0 FD | 	call	#_line
012ec                 | ' line(x1,y2,x2,y2,c)
012ec     AA 4A 01 F6 | 	mov	arg01, local01
012f0     AD 4C 01 F6 | 	mov	arg02, local04
012f4     AC 4E 01 F6 | 	mov	arg03, local03
012f8     AD 50 01 F6 | 	mov	arg04, local04
012fc     AE 52 01 F6 | 	mov	arg05, local05
01300     98 00 B0 FD | 	call	#_line
01304                 | ' line(x1,y1,x1,y2,c)
01304     AA 4A 01 F6 | 	mov	arg01, local01
01308     AB 4C 01 F6 | 	mov	arg02, local02
0130c     AA 4E 01 F6 | 	mov	arg03, local01
01310     AD 50 01 F6 | 	mov	arg04, local04
01314     AE 52 01 F6 | 	mov	arg05, local05
01318     80 00 B0 FD | 	call	#_line
0131c                 | ' line(x2,y1,x2,y2,c)
0131c     AC 4A 01 F6 | 	mov	arg01, local03
01320     AB 4C 01 F6 | 	mov	arg02, local02
01324     AC 4E 01 F6 | 	mov	arg03, local03
01328     AD 50 01 F6 | 	mov	arg04, local04
0132c     AE 52 01 F6 | 	mov	arg05, local05
01330     68 00 B0 FD | 	call	#_line
01334     46 F0 03 F6 | 	mov	ptra, fp
01338     5A 00 A0 FD | 	call	#popregs_
0133c                 | _frame_ret
0133c     2D 00 64 FD | 	ret
01340                 | 
01340                 | ' 
01340                 | ' pub box(x1,y1,x2,y2,c) |yy
01340                 | _box
01340     06 88 04 F6 | 	mov	COUNT_, #6
01344     4B 00 A0 FD | 	call	#pushregs_
01348     A5 54 01 F6 | 	mov	local01, arg01
0134c     A6 56 01 F6 | 	mov	local02, arg02
01350     A7 58 01 F6 | 	mov	local03, arg03
01354     A8 5A 01 F6 | 	mov	local04, arg04
01358     A9 5C 01 F6 | 	mov	local05, arg05
0135c                 | ' 
0135c                 | ' repeat yy from y1 to y2
0135c     AB 5A 59 F2 | 	cmps	local04, local02 wcz
01360     01 5E 05 16 |  if_a	mov	local06, #1
01364     01 5E 65 E6 |  if_be	neg	local06, #1
01368     AF 5A 01 F1 | 	add	local04, local06
0136c                 | LR__0021
0136c                 | '   line(x1,yy,x2,yy,c)
0136c     AA 4A 01 F6 | 	mov	arg01, local01
01370     AC 4E 01 F6 | 	mov	arg03, local03
01374     AE 52 01 F6 | 	mov	arg05, local05
01378     AB 4C 01 F6 | 	mov	arg02, local02
0137c     AB 50 01 F6 | 	mov	arg04, local02
01380     18 00 B0 FD | 	call	#_line
01384     AF 56 01 F1 | 	add	local02, local06
01388     AD 56 09 F2 | 	cmp	local02, local04 wz
0138c     DC FF 9F 5D |  if_ne	jmp	#LR__0021
01390     46 F0 03 F6 | 	mov	ptra, fp
01394     5A 00 A0 FD | 	call	#popregs_
01398                 | _box_ret
01398     2D 00 64 FD | 	ret
0139c                 | 
0139c                 | ' 
0139c                 | ' 
0139c                 | ' pub line(x1,y1,x2,y2,c) | d,dx,dy,ai,bi,xi,yi,x,y
0139c                 | _line
0139c     12 88 04 F6 | 	mov	COUNT_, #18
013a0     4B 00 A0 FD | 	call	#pushregs_
013a4     A5 54 01 F6 | 	mov	local01, arg01
013a8     A6 56 01 F6 | 	mov	local02, arg02
013ac     A7 58 01 F6 | 	mov	local03, arg03
013b0     A8 5A 01 F6 | 	mov	local04, arg04
013b4     A9 5C 01 F6 | 	mov	local05, arg05
013b8                 | ' 
013b8                 | ' 
013b8                 | ' x:=x1
013b8     AA 5E 01 F6 | 	mov	local06, local01
013bc                 | ' y:=y1
013bc     AB 60 01 F6 | 	mov	local07, local02
013c0                 | ' 
013c0                 | ' if (x1<x2) 
013c0     AC 54 59 F2 | 	cmps	local01, local03 wcz
013c4     10 00 90 3D |  if_ae	jmp	#LR__0022
013c8                 | '   xi:=1
013c8     01 62 05 F6 | 	mov	local08, #1
013cc                 | '   dx:=x2-x1
013cc     AC 64 01 F6 | 	mov	local09, local03
013d0     AA 64 81 F1 | 	sub	local09, local01
013d4                 | ' else
013d4     0C 00 90 FD | 	jmp	#LR__0023
013d8                 | LR__0022
013d8                 | '   xi:=-1
013d8     01 62 65 F6 | 	neg	local08, #1
013dc                 | '   dx:=x1-x2
013dc     AC 54 81 F1 | 	sub	local01, local03
013e0     AA 64 01 F6 | 	mov	local09, local01
013e4                 | LR__0023
013e4                 | '   
013e4                 | ' if (y1<y2) 
013e4     AD 56 59 F2 | 	cmps	local02, local04 wcz
013e8     10 00 90 3D |  if_ae	jmp	#LR__0024
013ec                 | '   yi:=1
013ec     01 66 05 F6 | 	mov	local10, #1
013f0                 | '   dy:=y2-y1
013f0     AD 68 01 F6 | 	mov	local11, local04
013f4     AB 68 81 F1 | 	sub	local11, local02
013f8                 | ' else
013f8     0C 00 90 FD | 	jmp	#LR__0025
013fc                 | LR__0024
013fc                 | '   yi:=-1
013fc     01 66 65 F6 | 	neg	local10, #1
01400                 | '   dy:=y1-y2
01400     AD 56 81 F1 | 	sub	local02, local04
01404     AB 68 01 F6 | 	mov	local11, local02
01408                 | LR__0025
01408                 | ' 
01408                 | ' putpixel(x,y,c)
01408     D8 F2 04 F1 | 	add	objptr, #216
0140c     79 6A 01 FB | 	rdlong	local12, objptr
01410     D8 F2 84 F1 | 	sub	objptr, #216
01414     B5 6C 01 FB | 	rdlong	local13, local12
01418     04 6A 05 F1 | 	add	local12, #4
0141c     B5 6E 01 FB | 	rdlong	local14, local12
01420     AF 4A 01 F6 | 	mov	arg01, local06
01424     B0 4C 01 F6 | 	mov	arg02, local07
01428     AE 4E 01 F6 | 	mov	arg03, local05
0142c     79 70 01 F6 | 	mov	local15, objptr
01430     B6 F2 00 F6 | 	mov	objptr, local13
01434     2D 6E 61 FD | 	call	local14
01438     B8 F2 00 F6 | 	mov	objptr, local15
0143c                 | ' 
0143c                 | ' if (dx>dy)
0143c     B4 64 59 F2 | 	cmps	local09, local11 wcz
01440     7C 00 90 ED |  if_be	jmp	#LR__0029
01444                 | '   ai:=(dy-dx)*2
01444     B4 72 01 F6 | 	mov	local16, local11
01448     B2 72 81 F1 | 	sub	local16, local09
0144c     01 72 65 F0 | 	shl	local16, #1
01450                 | '   bi:=dy*2
01450     01 68 65 F0 | 	shl	local11, #1
01454     B4 74 01 F6 | 	mov	local17, local11
01458                 | '   d:= bi-dx
01458     BA 76 01 F6 | 	mov	local18, local17
0145c     B2 76 81 F1 | 	sub	local18, local09
01460                 | '   repeat while (x<>x2) 
01460                 | LR__0026
01460     AC 5E 09 F2 | 	cmp	local06, local03 wz
01464     D4 00 90 AD |  if_e	jmp	#LR__0034
01468                 | '     if (d>=0) 
01468     00 76 5D F2 | 	cmps	local18, #0 wcz
0146c     10 00 90 CD |  if_b	jmp	#LR__0027
01470                 | '       x+=xi
01470     B1 5E 01 F1 | 	add	local06, local08
01474                 | '       y+=yi
01474     B3 60 01 F1 | 	add	local07, local10
01478                 | '       d+=ai
01478     B9 76 01 F1 | 	add	local18, local16
0147c                 | '     else
0147c     08 00 90 FD | 	jmp	#LR__0028
01480                 | LR__0027
01480                 | '       d+=bi
01480     BA 76 01 F1 | 	add	local18, local17
01484                 | '       x+=xi
01484     B1 5E 01 F1 | 	add	local06, local08
01488                 | LR__0028
01488                 | '     putpixel(x,y,c)
01488     D8 F2 04 F1 | 	add	objptr, #216
0148c     79 6A 01 FB | 	rdlong	local12, objptr
01490     D8 F2 84 F1 | 	sub	objptr, #216
01494     B5 6C 01 FB | 	rdlong	local13, local12
01498     04 6A 05 F1 | 	add	local12, #4
0149c     B5 6E 01 FB | 	rdlong	local14, local12
014a0     AF 4A 01 F6 | 	mov	arg01, local06
014a4     B0 4C 01 F6 | 	mov	arg02, local07
014a8     AE 4E 01 F6 | 	mov	arg03, local05
014ac     79 70 01 F6 | 	mov	local15, objptr
014b0     B6 F2 00 F6 | 	mov	objptr, local13
014b4     2D 6E 61 FD | 	call	local14
014b8     B8 F2 00 F6 | 	mov	objptr, local15
014bc     A0 FF 9F FD | 	jmp	#LR__0026
014c0                 | ' else
014c0                 | LR__0029
014c0                 | '   ai:=(dx-dy)*2
014c0     B2 72 01 F6 | 	mov	local16, local09
014c4     B4 72 81 F1 | 	sub	local16, local11
014c8     01 72 65 F0 | 	shl	local16, #1
014cc                 | '   bi:=dx*2
014cc     01 64 65 F0 | 	shl	local09, #1
014d0     B2 74 01 F6 | 	mov	local17, local09
014d4                 | '   d:=bi-dy
014d4     BA 76 01 F6 | 	mov	local18, local17
014d8     B4 76 81 F1 | 	sub	local18, local11
014dc                 | '   repeat while (y<>y2)
014dc                 | LR__0030
014dc     AD 60 09 F2 | 	cmp	local07, local04 wz
014e0     58 00 90 AD |  if_e	jmp	#LR__0033
014e4                 | '     if (d>=0)
014e4     00 76 5D F2 | 	cmps	local18, #0 wcz
014e8     10 00 90 CD |  if_b	jmp	#LR__0031
014ec                 | '       x+=xi
014ec     B1 5E 01 F1 | 	add	local06, local08
014f0                 | '       y+=yi
014f0     B3 60 01 F1 | 	add	local07, local10
014f4                 | '       d+=ai
014f4     B9 76 01 F1 | 	add	local18, local16
014f8                 | '     else
014f8     08 00 90 FD | 	jmp	#LR__0032
014fc                 | LR__0031
014fc                 | '       d+=bi
014fc     BA 76 01 F1 | 	add	local18, local17
01500                 | '       y+=yi
01500     B3 60 01 F1 | 	add	local07, local10
01504                 | LR__0032
01504                 | '     putpixel(x, y,c)
01504     D8 F2 04 F1 | 	add	objptr, #216
01508     79 6A 01 FB | 	rdlong	local12, objptr
0150c     D8 F2 84 F1 | 	sub	objptr, #216
01510     B5 6C 01 FB | 	rdlong	local13, local12
01514     04 6A 05 F1 | 	add	local12, #4
01518     B5 6E 01 FB | 	rdlong	local14, local12
0151c     AF 4A 01 F6 | 	mov	arg01, local06
01520     B0 4C 01 F6 | 	mov	arg02, local07
01524     AE 4E 01 F6 | 	mov	arg03, local05
01528     79 70 01 F6 | 	mov	local15, objptr
0152c     B6 F2 00 F6 | 	mov	objptr, local13
01530     2D 6E 61 FD | 	call	local14
01534     B8 F2 00 F6 | 	mov	objptr, local15
01538     A0 FF 9F FD | 	jmp	#LR__0030
0153c                 | LR__0033
0153c                 | LR__0034
0153c     46 F0 03 F6 | 	mov	ptra, fp
01540     5A 00 A0 FD | 	call	#popregs_
01544                 | _line_ret
01544     2D 00 64 FD | 	ret
01548                 | 
01548                 | ' 
01548                 | ' pub putcharxycg(x,y,achar,f,b) |xx, yy,bb
01548                 | _putcharxycg
01548     0D 88 04 F6 | 	mov	COUNT_, #13
0154c     4B 00 A0 FD | 	call	#pushregs_
01550     A5 54 01 F6 | 	mov	local01, arg01
01554     A6 56 01 F6 | 	mov	local02, arg02
01558     A7 58 01 F6 | 	mov	local03, arg03
0155c     A8 5A 01 F6 | 	mov	local04, arg04
01560     A9 5C 01 F6 | 	mov	local05, arg05
01564                 | ' 
01564                 | ' repeat yy from 0 to 15
01564     00 5E 05 F6 | 	mov	local06, #0
01568                 | LR__0035
01568                 | '   bb:=byte[@vga_font+font_family<<10+achar<<4+yy]
01568     7C 60 01 F6 | 	mov	local07, ptr__dat__
0156c     C8 F2 04 F1 | 	add	objptr, #200
01570     79 62 01 FB | 	rdlong	local08, objptr
01574     C8 F2 84 F1 | 	sub	objptr, #200
01578     0A 62 65 F0 | 	shl	local08, #10
0157c     B1 60 01 F1 | 	add	local07, local08
01580     AC 64 01 F6 | 	mov	local09, local03
01584     04 64 65 F0 | 	shl	local09, #4
01588     B2 60 01 F1 | 	add	local07, local09
0158c     AF 60 01 F1 | 	add	local07, local06
01590     B0 66 C1 FA | 	rdbyte	local10, local07
01594                 | '   repeat xx from 0 to 7
01594     00 68 05 F6 | 	mov	local11, #0
01598                 | LR__0036
01598                 | '     if (bb&(1<<xx))<>0
01598     B4 6A C1 F9 | 	decod	local12, local11
0159c     B5 66 C9 F7 | 	test	local10, local12 wz
015a0     40 00 90 AD |  if_e	jmp	#LR__0037
015a4                 | '       putpixel(xx+x,yy+y,f)
015a4     D8 F2 04 F1 | 	add	objptr, #216
015a8     79 60 01 FB | 	rdlong	local07, objptr
015ac     D8 F2 84 F1 | 	sub	objptr, #216
015b0     B0 6A 01 FB | 	rdlong	local12, local07
015b4     04 60 05 F1 | 	add	local07, #4
015b8     B0 62 01 FB | 	rdlong	local08, local07
015bc     B4 4A 01 F6 | 	mov	arg01, local11
015c0     AA 4A 01 F1 | 	add	arg01, local01
015c4     AF 4C 01 F6 | 	mov	arg02, local06
015c8     AB 4C 01 F1 | 	add	arg02, local02
015cc     AD 4E 01 F6 | 	mov	arg03, local04
015d0     79 6C 01 F6 | 	mov	local13, objptr
015d4     B5 F2 00 F6 | 	mov	objptr, local12
015d8     2D 62 61 FD | 	call	local08
015dc     B6 F2 00 F6 | 	mov	objptr, local13
015e0                 | '     else
015e0     3C 00 90 FD | 	jmp	#LR__0038
015e4                 | LR__0037
015e4                 | '       putpixel(xx+x,yy+y,b)
015e4     D8 F2 04 F1 | 	add	objptr, #216
015e8     79 60 01 FB | 	rdlong	local07, objptr
015ec     D8 F2 84 F1 | 	sub	objptr, #216
015f0     B0 6A 01 FB | 	rdlong	local12, local07
015f4     04 60 05 F1 | 	add	local07, #4
015f8     B0 62 01 FB | 	rdlong	local08, local07
015fc     B4 4A 01 F6 | 	mov	arg01, local11
01600     AA 4A 01 F1 | 	add	arg01, local01
01604     AF 4C 01 F6 | 	mov	arg02, local06
01608     AB 4C 01 F1 | 	add	arg02, local02
0160c     AE 4E 01 F6 | 	mov	arg03, local05
01610     79 6C 01 F6 | 	mov	local13, objptr
01614     B5 F2 00 F6 | 	mov	objptr, local12
01618     2D 62 61 FD | 	call	local08
0161c     B6 F2 00 F6 | 	mov	objptr, local13
01620                 | LR__0038
01620     01 68 05 F1 | 	add	local11, #1
01624     08 68 5D F2 | 	cmps	local11, #8 wcz
01628     6C FF 9F CD |  if_b	jmp	#LR__0036
0162c     01 5E 05 F1 | 	add	local06, #1
01630     10 5E 5D F2 | 	cmps	local06, #16 wcz
01634     30 FF 9F CD |  if_b	jmp	#LR__0035
01638     46 F0 03 F6 | 	mov	ptra, fp
0163c     5A 00 A0 FD | 	call	#popregs_
01640                 | _putcharxycg_ret
01640     2D 00 64 FD | 	ret
01644                 | 
01644                 | ' 
01644                 | ' pub outtextxycg(x,y,text,f,b) | iii,c
01644                 | _outtextxycg
01644     0C 88 04 F6 | 	mov	COUNT_, #12
01648     4B 00 A0 FD | 	call	#pushregs_
0164c     A5 54 01 F6 | 	mov	local01, arg01
01650     A6 56 01 F6 | 	mov	local02, arg02
01654     A7 58 01 F6 | 	mov	local03, arg03
01658     A8 5A 01 F6 | 	mov	local04, arg04
0165c     A9 5C 01 F6 | 	mov	local05, arg05
01660                 | ' 
01660                 | ' repeat iii from 0 to strsize(text)-1
01660     00 5E 05 F6 | 	mov	local06, #0
01664     AC 4A 01 F6 | 	mov	arg01, local03
01668     00 60 05 F6 | 	mov	local07, #0
0166c     A0 E9 9F FE | 	loc	pa,	#(@LR__0040-@LR__0039)
01670     35 00 A0 FD | 	call	#FCACHE_LOAD_
01674                 | LR__0039
01674     A5 62 C9 FA | 	rdbyte	local08, arg01 wz
01678     01 60 05 51 |  if_ne	add	local07, #1
0167c     01 4A 05 51 |  if_ne	add	arg01, #1
01680     F0 FF 9F 5D |  if_ne	jmp	#LR__0039
01684                 | LR__0040
01684     B0 04 01 F6 | 	mov	result1, local07
01688     82 64 01 F6 | 	mov	local09, result1
0168c     01 64 85 F1 | 	sub	local09, #1
01690     00 64 5D F2 | 	cmps	local09, #0 wcz
01694     01 66 05 16 |  if_a	mov	local10, #1
01698     01 66 65 E6 |  if_be	neg	local10, #1
0169c     B3 64 01 F1 | 	add	local09, local10
016a0                 | LR__0041
016a0                 | '   putcharxycg(x+8*iii,y,byte[text+iii],f,b)
016a0     AA 4A 01 F6 | 	mov	arg01, local01
016a4     AF 68 01 F6 | 	mov	local11, local06
016a8     03 68 65 F0 | 	shl	local11, #3
016ac     B4 4A 01 F1 | 	add	arg01, local11
016b0     AB 4C 01 F6 | 	mov	arg02, local02
016b4     AC 6A 01 F6 | 	mov	local12, local03
016b8     AF 6A 01 F1 | 	add	local12, local06
016bc     B5 4E C1 FA | 	rdbyte	arg03, local12
016c0     AD 50 01 F6 | 	mov	arg04, local04
016c4     AE 52 01 F6 | 	mov	arg05, local05
016c8     7C FE BF FD | 	call	#_putcharxycg
016cc     B3 5E 01 F1 | 	add	local06, local10
016d0     B2 5E 09 F2 | 	cmp	local06, local09 wz
016d4     C8 FF 9F 5D |  if_ne	jmp	#LR__0041
016d8     46 F0 03 F6 | 	mov	ptra, fp
016dc     5A 00 A0 FD | 	call	#popregs_
016e0                 | _outtextxycg_ret
016e0     2D 00 64 FD | 	ret
016e4                 | 
016e4                 | ' 
016e4                 | ' 
016e4                 | ' ''---------- putpixel - put a pixel on the screen
016e4                 | ' 
016e4                 | ' pub putpixel1(x,y,c) |byte b
016e4                 | _putpixel1
016e4                 | ' 
016e4                 | ' 
016e4                 | ' if ((x>=0) & (x<32*cpl) & (y>=0) & (y<lines))
016e4     00 0A 05 F6 | 	mov	_var01, #0
016e8     00 4A 5D F2 | 	cmps	arg01, #0 wcz
016ec     01 0A 65 36 |  if_ae	neg	_var01, #1
016f0     00 0C 05 F6 | 	mov	_var02, #0
016f4     90 F2 04 F1 | 	add	objptr, #144
016f8     79 0E 01 FB | 	rdlong	_var03, objptr
016fc     05 0E 65 F0 | 	shl	_var03, #5
01700     87 4A 59 F2 | 	cmps	arg01, _var03 wcz
01704     01 0C 65 C6 |  if_b	neg	_var02, #1
01708     86 0A 01 F5 | 	and	_var01, _var02
0170c     00 10 05 F6 | 	mov	_var04, #0
01710     00 4C 5D F2 | 	cmps	arg02, #0 wcz
01714     01 10 65 36 |  if_ae	neg	_var04, #1
01718     88 0A 01 F5 | 	and	_var01, _var04
0171c     00 12 05 F6 | 	mov	_var05, #0
01720     04 F2 04 F1 | 	add	objptr, #4
01724     79 14 01 FB | 	rdlong	_var06, objptr
01728     94 F2 84 F1 | 	sub	objptr, #148
0172c     8A 4C 59 F2 | 	cmps	arg02, _var06 wcz
01730     01 12 65 C6 |  if_b	neg	_var05, #1
01734     89 0A C9 F7 | 	test	_var01, _var05 wz
01738     90 00 90 AD |  if_e	jmp	#LR__0044
0173c                 | '     b:=byte[buf_ptr+4*cpl*y+(x>>3)]
0173c     79 0A 01 FB | 	rdlong	_var01, objptr
01740     90 F2 04 F1 | 	add	objptr, #144
01744     79 0C 01 FB | 	rdlong	_var02, objptr
01748     90 F2 84 F1 | 	sub	objptr, #144
0174c     02 0C 65 F0 | 	shl	_var02, #2
01750     A6 0C 01 FD | 	qmul	_var02, arg02
01754     18 16 61 FD | 	getqx	_var07
01758     8B 0A 01 F1 | 	add	_var01, _var07
0175c     A5 10 01 F6 | 	mov	_var04, arg01
01760     03 10 45 F0 | 	shr	_var04, #3
01764     88 0A 01 F1 | 	add	_var01, _var04
01768     85 18 C1 FA | 	rdbyte	_var08, _var01
0176c                 | '     if (c==0)
0176c     00 4E 0D F2 | 	cmp	arg03, #0 wz
01770     18 00 90 5D |  if_ne	jmp	#LR__0042
01774                 | '       b:=b & !(1<<(x//8))
01774     A5 0E 51 F6 | 	abs	_var03, arg01 wc
01778     07 0E 05 F5 | 	and	_var03, #7
0177c     87 0E 61 C6 |  if_b	neg	_var03, _var03
01780     87 0C C1 F9 | 	decod	_var02, _var03
01784     86 18 21 F5 | 	andn	_var08, _var02
01788                 | '     else
01788     14 00 90 FD | 	jmp	#LR__0043
0178c                 | LR__0042
0178c                 | '       b:=b |(1<<(x//8))
0178c     A5 0E 51 F6 | 	abs	_var03, arg01 wc
01790     07 0E 05 F5 | 	and	_var03, #7
01794     87 0E 61 C6 |  if_b	neg	_var03, _var03
01798     87 0C C1 F9 | 	decod	_var02, _var03
0179c     86 18 41 F5 | 	or	_var08, _var02
017a0                 | LR__0043
017a0                 | '     byte[buf_ptr+4*cpl*y+(x>>3)]:=b
017a0     79 0A 01 FB | 	rdlong	_var01, objptr
017a4     90 F2 04 F1 | 	add	objptr, #144
017a8     79 0C 01 FB | 	rdlong	_var02, objptr
017ac     90 F2 84 F1 | 	sub	objptr, #144
017b0     02 0C 65 F0 | 	shl	_var02, #2
017b4     A6 0C 01 FD | 	qmul	_var02, arg02
017b8     18 16 61 FD | 	getqx	_var07
017bc     8B 0A 01 F1 | 	add	_var01, _var07
017c0     03 4A 45 F0 | 	shr	arg01, #3
017c4     A5 0A 01 F1 | 	add	_var01, arg01
017c8     85 18 41 FC | 	wrbyte	_var08, _var01
017cc                 | LR__0044
017cc                 | _putpixel1_ret
017cc     2D 00 64 FD | 	ret
017d0                 | 
017d0                 | ' 
017d0                 | ' 
017d0                 | ' pub putpixel2(x,y,c) |byte b
017d0                 | _putpixel2
017d0                 | ' 
017d0                 | ' 
017d0                 | ' if ((x>=0) & (x<16*cpl) & (y>=0) & (y<lines))
017d0     00 0A 05 F6 | 	mov	_var01, #0
017d4     00 4A 5D F2 | 	cmps	arg01, #0 wcz
017d8     01 0A 65 36 |  if_ae	neg	_var01, #1
017dc     00 0C 05 F6 | 	mov	_var02, #0
017e0     90 F2 04 F1 | 	add	objptr, #144
017e4     79 0E 01 FB | 	rdlong	_var03, objptr
017e8     04 0E 65 F0 | 	shl	_var03, #4
017ec     87 4A 59 F2 | 	cmps	arg01, _var03 wcz
017f0     01 0C 65 C6 |  if_b	neg	_var02, #1
017f4     86 0A 01 F5 | 	and	_var01, _var02
017f8     00 10 05 F6 | 	mov	_var04, #0
017fc     00 4C 5D F2 | 	cmps	arg02, #0 wcz
01800     01 10 65 36 |  if_ae	neg	_var04, #1
01804     88 0A 01 F5 | 	and	_var01, _var04
01808     00 12 05 F6 | 	mov	_var05, #0
0180c     04 F2 04 F1 | 	add	objptr, #4
01810     79 14 01 FB | 	rdlong	_var06, objptr
01814     94 F2 84 F1 | 	sub	objptr, #148
01818     8A 4C 59 F2 | 	cmps	arg02, _var06 wcz
0181c     01 12 65 C6 |  if_b	neg	_var05, #1
01820     89 0A C9 F7 | 	test	_var01, _var05 wz
01824     90 00 90 AD |  if_e	jmp	#LR__0045
01828                 | '     b:=byte[buf_ptr+4*cpl*y+(x>>2)]
01828     79 0A 01 FB | 	rdlong	_var01, objptr
0182c     90 F2 04 F1 | 	add	objptr, #144
01830     79 0C 01 FB | 	rdlong	_var02, objptr
01834     90 F2 84 F1 | 	sub	objptr, #144
01838     02 0C 65 F0 | 	shl	_var02, #2
0183c     A6 0C 01 FD | 	qmul	_var02, arg02
01840     18 16 61 FD | 	getqx	_var07
01844     8B 0A 01 F1 | 	add	_var01, _var07
01848     A5 10 01 F6 | 	mov	_var04, arg01
0184c     02 10 45 F0 | 	shr	_var04, #2
01850     88 0A 01 F1 | 	add	_var01, _var04
01854     85 18 C1 FA | 	rdbyte	_var08, _var01
01858                 | '     b:=b & !(%11<<((x//4)<<1))
01858     A5 0E 51 F6 | 	abs	_var03, arg01 wc
0185c     03 0E 05 F5 | 	and	_var03, #3
01860     87 0E 61 C6 |  if_b	neg	_var03, _var03
01864     01 0E 65 F0 | 	shl	_var03, #1
01868     03 0C 05 F6 | 	mov	_var02, #3
0186c     87 0C 61 F0 | 	shl	_var02, _var03
01870     86 18 21 F5 | 	andn	_var08, _var02
01874                 | '     b:=b |(c<<((x//4)<<1))
01874     A5 0E 51 F6 | 	abs	_var03, arg01 wc
01878     03 0E 05 F5 | 	and	_var03, #3
0187c     87 0E 61 C6 |  if_b	neg	_var03, _var03
01880     01 0E 65 F0 | 	shl	_var03, #1
01884     87 4E 61 F0 | 	shl	arg03, _var03
01888     A7 18 41 F5 | 	or	_var08, arg03
0188c                 | '     byte[buf_ptr+4*cpl*y+(x>>2)]:=b
0188c     79 0A 01 FB | 	rdlong	_var01, objptr
01890     90 F2 04 F1 | 	add	objptr, #144
01894     79 0C 01 FB | 	rdlong	_var02, objptr
01898     90 F2 84 F1 | 	sub	objptr, #144
0189c     02 0C 65 F0 | 	shl	_var02, #2
018a0     A6 0C 01 FD | 	qmul	_var02, arg02
018a4     18 16 61 FD | 	getqx	_var07
018a8     8B 0A 01 F1 | 	add	_var01, _var07
018ac     02 4A 45 F0 | 	shr	arg01, #2
018b0     A5 0A 01 F1 | 	add	_var01, arg01
018b4     85 18 41 FC | 	wrbyte	_var08, _var01
018b8                 | LR__0045
018b8                 | _putpixel2_ret
018b8     2D 00 64 FD | 	ret
018bc                 | 
018bc                 | ' 
018bc                 | ' 
018bc                 | ' pub putpixel4(x,y,c) |byte b
018bc                 | _putpixel4
018bc                 | ' 
018bc                 | ' if ((x>=0) & (x<16*cpl) & (y>=0) & (y<lines))
018bc     00 0A 05 F6 | 	mov	_var01, #0
018c0     00 4A 5D F2 | 	cmps	arg01, #0 wcz
018c4     01 0A 65 36 |  if_ae	neg	_var01, #1
018c8     00 0C 05 F6 | 	mov	_var02, #0
018cc     90 F2 04 F1 | 	add	objptr, #144
018d0     79 0E 01 FB | 	rdlong	_var03, objptr
018d4     04 0E 65 F0 | 	shl	_var03, #4
018d8     87 4A 59 F2 | 	cmps	arg01, _var03 wcz
018dc     01 0C 65 C6 |  if_b	neg	_var02, #1
018e0     86 0A 01 F5 | 	and	_var01, _var02
018e4     00 10 05 F6 | 	mov	_var04, #0
018e8     00 4C 5D F2 | 	cmps	arg02, #0 wcz
018ec     01 10 65 36 |  if_ae	neg	_var04, #1
018f0     88 0A 01 F5 | 	and	_var01, _var04
018f4     00 12 05 F6 | 	mov	_var05, #0
018f8     04 F2 04 F1 | 	add	objptr, #4
018fc     79 14 01 FB | 	rdlong	_var06, objptr
01900     94 F2 84 F1 | 	sub	objptr, #148
01904     8A 4C 59 F2 | 	cmps	arg02, _var06 wcz
01908     01 12 65 C6 |  if_b	neg	_var05, #1
0190c     89 0A C9 F7 | 	test	_var01, _var05 wz
01910     90 00 90 AD |  if_e	jmp	#LR__0046
01914                 | '     b:=byte[buf_ptr+4*cpl*y+(x>>1)]
01914     79 0A 01 FB | 	rdlong	_var01, objptr
01918     90 F2 04 F1 | 	add	objptr, #144
0191c     79 0C 01 FB | 	rdlong	_var02, objptr
01920     90 F2 84 F1 | 	sub	objptr, #144
01924     02 0C 65 F0 | 	shl	_var02, #2
01928     A6 0C 01 FD | 	qmul	_var02, arg02
0192c     18 16 61 FD | 	getqx	_var07
01930     8B 0A 01 F1 | 	add	_var01, _var07
01934     A5 10 01 F6 | 	mov	_var04, arg01
01938     01 10 45 F0 | 	shr	_var04, #1
0193c     88 0A 01 F1 | 	add	_var01, _var04
01940     85 18 C1 FA | 	rdbyte	_var08, _var01
01944                 | '     b:=b & !(%1111<<((x//2)<<2))
01944     A5 0E 51 F6 | 	abs	_var03, arg01 wc
01948     01 0E 05 F5 | 	and	_var03, #1
0194c     87 0E 61 C6 |  if_b	neg	_var03, _var03
01950     02 0E 65 F0 | 	shl	_var03, #2
01954     0F 0C 05 F6 | 	mov	_var02, #15
01958     87 0C 61 F0 | 	shl	_var02, _var03
0195c     86 18 21 F5 | 	andn	_var08, _var02
01960                 | '     b:=b |(c<<((x//2)<<2))
01960     A5 0E 51 F6 | 	abs	_var03, arg01 wc
01964     01 0E 05 F5 | 	and	_var03, #1
01968     87 0E 61 C6 |  if_b	neg	_var03, _var03
0196c     02 0E 65 F0 | 	shl	_var03, #2
01970     87 4E 61 F0 | 	shl	arg03, _var03
01974     A7 18 41 F5 | 	or	_var08, arg03
01978                 | '     byte[buf_ptr+4*cpl*y+(x>>1)]:=b
01978     79 0A 01 FB | 	rdlong	_var01, objptr
0197c     90 F2 04 F1 | 	add	objptr, #144
01980     79 0C 01 FB | 	rdlong	_var02, objptr
01984     90 F2 84 F1 | 	sub	objptr, #144
01988     02 0C 65 F0 | 	shl	_var02, #2
0198c     A6 0C 01 FD | 	qmul	_var02, arg02
01990     18 16 61 FD | 	getqx	_var07
01994     8B 0A 01 F1 | 	add	_var01, _var07
01998     01 4A 45 F0 | 	shr	arg01, #1
0199c     A5 0A 01 F1 | 	add	_var01, arg01
019a0     85 18 41 FC | 	wrbyte	_var08, _var01
019a4                 | LR__0046
019a4                 | _putpixel4_ret
019a4     2D 00 64 FD | 	ret
019a8                 | 
019a8                 | ' 
019a8                 | ' 
019a8                 | ' pub putpixel8(x,y,c)
019a8                 | _putpixel8
019a8                 | ' 
019a8                 | ' if ((x>=0) & (x<4*cpl) & (y>=0) & (y<lines))
019a8     00 0A 05 F6 | 	mov	_var01, #0
019ac     00 4A 5D F2 | 	cmps	arg01, #0 wcz
019b0     01 0A 65 36 |  if_ae	neg	_var01, #1
019b4     00 0C 05 F6 | 	mov	_var02, #0
019b8     90 F2 04 F1 | 	add	objptr, #144
019bc     79 0E 01 FB | 	rdlong	_var03, objptr
019c0     02 0E 65 F0 | 	shl	_var03, #2
019c4     87 4A 59 F2 | 	cmps	arg01, _var03 wcz
019c8     01 0C 65 C6 |  if_b	neg	_var02, #1
019cc     86 0A 01 F5 | 	and	_var01, _var02
019d0     00 10 05 F6 | 	mov	_var04, #0
019d4     00 4C 5D F2 | 	cmps	arg02, #0 wcz
019d8     01 10 65 36 |  if_ae	neg	_var04, #1
019dc     88 0A 01 F5 | 	and	_var01, _var04
019e0     00 12 05 F6 | 	mov	_var05, #0
019e4     04 F2 04 F1 | 	add	objptr, #4
019e8     79 14 01 FB | 	rdlong	_var06, objptr
019ec     94 F2 84 F1 | 	sub	objptr, #148
019f0     8A 4C 59 F2 | 	cmps	arg02, _var06 wcz
019f4     01 12 65 C6 |  if_b	neg	_var05, #1
019f8     89 0A C9 F7 | 	test	_var01, _var05 wz
019fc     28 00 90 AD |  if_e	jmp	#LR__0047
01a00                 | '     byte[buf_ptr+4*cpl*y+x]:=c
01a00     79 0A 01 FB | 	rdlong	_var01, objptr
01a04     90 F2 04 F1 | 	add	objptr, #144
01a08     79 0C 01 FB | 	rdlong	_var02, objptr
01a0c     90 F2 84 F1 | 	sub	objptr, #144
01a10     02 0C 65 F0 | 	shl	_var02, #2
01a14     A6 0C 01 FD | 	qmul	_var02, arg02
01a18     18 16 61 FD | 	getqx	_var07
01a1c     8B 0A 01 F1 | 	add	_var01, _var07
01a20     A5 0A 01 F1 | 	add	_var01, arg01
01a24     85 4E 41 FC | 	wrbyte	arg03, _var01
01a28                 | LR__0047
01a28                 | _putpixel8_ret
01a28     2D 00 64 FD | 	ret
01a2c                 | 
01a2c                 | ' 
01a2c                 | ' '*************************************************************************
01a2c                 | ' '                                                                        *
01a2c                 | ' '  VBlank functions                                                      *
01a2c                 | ' '                                                                        *
01a2c                 | ' '*************************************************************************
01a2c                 | ' 
01a2c                 | ' pub waitvbl(amount) | i
01a2c                 | _waitvbl
01a2c     04 88 04 F6 | 	mov	COUNT_, #4
01a30     4B 00 A0 FD | 	call	#pushregs_
01a34     A5 54 01 F6 | 	mov	local01, arg01
01a38                 | ' 
01a38                 | ' ''---------- Wait for start of vblank. Amount=delay in frames
01a38                 | ' 
01a38                 | ' repeat i from 1 to amount
01a38     01 56 05 F6 | 	mov	local02, #1
01a3c     01 54 5D F2 | 	cmps	local01, #1 wcz
01a40     01 58 05 16 |  if_a	mov	local03, #1
01a44     01 58 65 E6 |  if_be	neg	local03, #1
01a48     AC 54 01 F1 | 	add	local01, local03
01a4c                 | LR__0048
01a4c                 | '   repeat until vblank==0
01a4c                 | LR__0049
01a4c     40 F2 04 F1 | 	add	objptr, #64
01a50     79 5A 09 FB | 	rdlong	local04, objptr wz
01a54     40 F2 84 F1 | 	sub	objptr, #64
01a58     0C 00 90 AD |  if_e	jmp	#LR__0050
01a5c                 | '     waitus(100)
01a5c     64 4A 05 F6 | 	mov	arg01, #100
01a60     E4 12 B0 FD | 	call	#__system___waitus
01a64     E4 FF 9F FD | 	jmp	#LR__0049
01a68                 | LR__0050
01a68                 | '   repeat until vblank==1
01a68                 | LR__0051
01a68     40 F2 04 F1 | 	add	objptr, #64
01a6c     79 5A 01 FB | 	rdlong	local04, objptr
01a70     40 F2 84 F1 | 	sub	objptr, #64
01a74     01 5A 0D F2 | 	cmp	local04, #1 wz
01a78     0C 00 90 AD |  if_e	jmp	#LR__0052
01a7c                 | '     waitus(100)
01a7c     64 4A 05 F6 | 	mov	arg01, #100
01a80     C4 12 B0 FD | 	call	#__system___waitus
01a84     E0 FF 9F FD | 	jmp	#LR__0051
01a88                 | LR__0052
01a88     AC 56 01 F1 | 	add	local02, local03
01a8c     AA 56 09 F2 | 	cmp	local02, local01 wz
01a90     B8 FF 9F 5D |  if_ne	jmp	#LR__0048
01a94     46 F0 03 F6 | 	mov	ptra, fp
01a98     5A 00 A0 FD | 	call	#popregs_
01a9c                 | _waitvbl_ret
01a9c     2D 00 64 FD | 	ret
01aa0                 | 
01aa0                 | ' 
01aa0                 | ' ''---------- Set the border color, o is upper border, lines+1 is lower border
01aa0                 | ' 
01aa0                 | ' pub setbordercolor(r,g,b) | color
01aa0                 | _setbordercolor
01aa0                 | ' 
01aa0                 | ' color:=r<<24+g<<16+b<<8
01aa0     18 4A 65 F0 | 	shl	arg01, #24
01aa4     10 4C 65 F0 | 	shl	arg02, #16
01aa8     A6 4A 01 F1 | 	add	arg01, arg02
01aac     08 4E 65 F0 | 	shl	arg03, #8
01ab0     A7 4A 01 F1 | 	add	arg01, arg03
01ab4                 | ' bordercolor:=color
01ab4     2C F2 04 F1 | 	add	objptr, #44
01ab8     79 4A 61 FC | 	wrlong	arg01, objptr
01abc     2C F2 84 F1 | 	sub	objptr, #44
01ac0                 | _setbordercolor_ret
01ac0     2D 00 64 FD | 	ret
01ac4                 | 
01ac4                 | ' 
01ac4                 | ' 
01ac4                 | ' '*************************************************************************
01ac4                 | ' '                                                                        *
01ac4                 | ' '  Text functions                                                        *
01ac4                 | ' '                                                                        *
01ac4                 | ' '*************************************************************************
01ac4                 | ' 
01ac4                 | ' ''---------- Clear the screen, set its foreground/background color
01ac4                 | ' 
01ac4                 | ' pub cls(fc,bc)   :c
01ac4                 | _cls
01ac4     06 88 04 F6 | 	mov	COUNT_, #6
01ac8     4B 00 A0 FD | 	call	#pushregs_
01acc     A5 54 01 F6 | 	mov	local01, arg01
01ad0     A6 56 01 F6 | 	mov	local02, arg02
01ad4                 | ' 
01ad4                 | ' if (graphmode<512)
01ad4     C4 F2 04 F1 | 	add	objptr, #196
01ad8     79 58 01 FB | 	rdlong	local03, objptr
01adc     C4 F2 84 F1 | 	sub	objptr, #196
01ae0     01 00 00 FF 
01ae4     00 58 5D F2 | 	cmps	local03, ##512 wcz
01ae8     48 00 90 3D |  if_ae	jmp	#LR__0057
01aec                 | '   c:=fc<<24+bc<<16+$20
01aec     AA 5A 01 F6 | 	mov	local04, local01
01af0     18 5A 65 F0 | 	shl	local04, #24
01af4     AB 5C 01 F6 | 	mov	local05, local02
01af8     10 5C 65 F0 | 	shl	local05, #16
01afc     AE 5A 01 F1 | 	add	local04, local05
01b00     20 5A 05 F1 | 	add	local04, #32
01b04                 | '   longfill(buf_ptr,c,buflen)
01b04     79 4A 01 FB | 	rdlong	arg01, objptr
01b08     30 F2 04 F1 | 	add	objptr, #48
01b0c     79 4E 09 FB | 	rdlong	arg03, objptr wz
01b10     30 F2 84 F1 | 	sub	objptr, #48
01b14     AD 4C 01 F6 | 	mov	arg02, local04
01b18     C4 00 90 AD |  if_e	jmp	#LR__0063
01b1c     EC E4 9F FE | 	loc	pa,	#(@LR__0055-@LR__0053)
01b20     35 00 A0 FD | 	call	#FCACHE_LOAD_
01b24                 | LR__0053
01b24     A7 04 D8 FC | 	rep	@LR__0056, arg03
01b28                 | LR__0054
01b28     A5 4C 61 FC | 	wrlong	arg02, arg01
01b2c     04 4A 05 F1 | 	add	arg01, #4
01b30                 | LR__0055
01b30                 | LR__0056
01b30                 | ' else
01b30     AC 00 90 FD | 	jmp	#LR__0063
01b34                 | LR__0057
01b34                 | '   if (graphmode & 48) ==48
01b34     C4 F2 04 F1 | 	add	objptr, #196
01b38     79 58 01 FB | 	rdlong	local03, objptr
01b3c     C4 F2 84 F1 | 	sub	objptr, #196
01b40     30 58 05 F5 | 	and	local03, #48
01b44     30 58 0D F2 | 	cmp	local03, #48 wz
01b48                 | '     c:=bc
01b48     AB 5A 01 A6 |  if_e	mov	local04, local02
01b4c     74 00 90 AD |  if_e	jmp	#LR__0062
01b50                 | '   elseif (graphmode & 48) ==32
01b50     C4 F2 04 F1 | 	add	objptr, #196
01b54     79 58 01 FB | 	rdlong	local03, objptr
01b58     C4 F2 84 F1 | 	sub	objptr, #196
01b5c     30 58 05 F5 | 	and	local03, #48
01b60     20 58 0D F2 | 	cmp	local03, #32 wz
01b64     10 00 90 5D |  if_ne	jmp	#LR__0058
01b68                 | '     c:=bc<<4+bc
01b68     AB 5A 01 F6 | 	mov	local04, local02
01b6c     04 5A 65 F0 | 	shl	local04, #4
01b70     AB 5A 01 F1 | 	add	local04, local02
01b74     4C 00 90 FD | 	jmp	#LR__0061
01b78                 | LR__0058
01b78                 | '   elseif (graphmode & 48) ==16
01b78     C4 F2 04 F1 | 	add	objptr, #196
01b7c     79 58 01 FB | 	rdlong	local03, objptr
01b80     C4 F2 84 F1 | 	sub	objptr, #196
01b84     30 58 05 F5 | 	and	local03, #48
01b88     10 58 0D F2 | 	cmp	local03, #16 wz
01b8c     28 00 90 5D |  if_ne	jmp	#LR__0059
01b90                 | '     c:=bc<<6+bc<<4+bc<<2+bc
01b90     AB 5A 01 F6 | 	mov	local04, local02
01b94     06 5A 65 F0 | 	shl	local04, #6
01b98     AB 5C 01 F6 | 	mov	local05, local02
01b9c     04 5C 65 F0 | 	shl	local05, #4
01ba0     AE 5A 01 F1 | 	add	local04, local05
01ba4     AB 5E 01 F6 | 	mov	local06, local02
01ba8     02 5E 65 F0 | 	shl	local06, #2
01bac     AF 5A 01 F1 | 	add	local04, local06
01bb0     AB 5A 01 F1 | 	add	local04, local02
01bb4                 | '   else
01bb4     0C 00 90 FD | 	jmp	#LR__0060
01bb8                 | LR__0059
01bb8                 | '     if bc==1
01bb8     01 56 0D F2 | 	cmp	local02, #1 wz
01bbc                 | '       c:=255
01bbc     FF 5A 05 A6 |  if_e	mov	local04, #255
01bc0                 | '     else
01bc0                 | '       c:=0
01bc0     00 5A 05 56 |  if_ne	mov	local04, #0
01bc4                 | LR__0060
01bc4                 | LR__0061
01bc4                 | LR__0062
01bc4                 | '   bytefill(buf_ptr,c,buflen*4)
01bc4     79 4A 01 FB | 	rdlong	arg01, objptr
01bc8     30 F2 04 F1 | 	add	objptr, #48
01bcc     79 4E 01 FB | 	rdlong	arg03, objptr
01bd0     30 F2 84 F1 | 	sub	objptr, #48
01bd4     02 4E 65 F0 | 	shl	arg03, #2
01bd8     AD 4C 01 F6 | 	mov	arg02, local04
01bdc     C0 0E B0 FD | 	call	#__system__bytefill
01be0                 | LR__0063
01be0                 | ' setwritecolors(fc,bc)
01be0                 | ' 
01be0                 | ' 
01be0                 | ' write_color:=ff
01be0     38 F2 04 F1 | 	add	objptr, #56
01be4     79 54 61 FC | 	wrlong	local01, objptr
01be8                 | ' write_background:=bb
01be8     04 F2 04 F1 | 	add	objptr, #4
01bec     79 56 61 FC | 	wrlong	local02, objptr
01bf0                 | ' cursor_x:=0
01bf0     08 F2 84 F1 | 	sub	objptr, #8
01bf4     79 00 48 FC | 	wrbyte	#0, objptr
01bf8                 | ' cursor_y:=0
01bf8     01 F2 04 F1 | 	add	objptr, #1
01bfc     79 00 48 FC | 	wrbyte	#0, objptr
01c00     35 F2 84 F1 | 	sub	objptr, #53
01c04     AD 04 01 F6 | 	mov	result1, local04
01c08     46 F0 03 F6 | 	mov	ptra, fp
01c0c     5A 00 A0 FD | 	call	#popregs_
01c10                 | _cls_ret
01c10     2D 00 64 FD | 	ret
01c14                 | 
01c14                 | ' 
01c14                 | ' 
01c14                 | ' '*************************************************************************
01c14                 | ' '                                                                        *
01c14                 | ' '  Conversions                                                           *
01c14                 | ' '                                                                        *
01c14                 | ' '*************************************************************************
01c14                 | ' 
01c14                 | ' ''---------- Convert a integer to dec string, return a pointer
01c14                 | ' 
01c14                 | ' pub inttostr(i):result |q,pos,k,j
01c14                 | _inttostr
01c14     06 88 04 F6 | 	mov	COUNT_, #6
01c18     4B 00 A0 FD | 	call	#pushregs_
01c1c     A5 54 01 F6 | 	mov	local01, arg01
01c20                 | ' 
01c20                 | ' j:=i
01c20     AA 56 09 F6 | 	mov	local02, local01 wz
01c24                 | ' pos:=10
01c24     0A 58 05 F6 | 	mov	local03, #10
01c28                 | ' k:=0
01c28     00 5A 05 F6 | 	mov	local04, #0
01c2c                 | ' 
01c2c                 | ' if (j==0)
01c2c     18 00 90 5D |  if_ne	jmp	#LR__0064
01c30                 | '   n_string[0]:=48
01c30     44 F2 04 F1 | 	add	objptr, #68
01c34     79 60 48 FC | 	wrbyte	#48, objptr
01c38                 | '   n_string[1]:=0
01c38     01 F2 04 F1 | 	add	objptr, #1
01c3c     79 00 48 FC | 	wrbyte	#0, objptr
01c40     45 F2 84 F1 | 	sub	objptr, #69
01c44                 | ' 
01c44                 | ' else
01c44     C4 00 90 FD | 	jmp	#LR__0071
01c48                 | LR__0064
01c48                 | '   if (j<0)
01c48     00 56 5D F2 | 	cmps	local02, #0 wcz
01c4c                 | '     j:=0-j
01c4c     AB 56 61 C6 |  if_b	neg	local02, local02
01c50                 | '     k:=45
01c50     2D 5A 05 C6 |  if_b	mov	local04, #45
01c54                 | ' 
01c54                 | '   n_string[11]:=0
01c54     4F F2 04 F1 | 	add	objptr, #79
01c58     79 00 48 FC | 	wrbyte	#0, objptr
01c5c     4F F2 84 F1 | 	sub	objptr, #79
01c60     DC E3 9F FE | 	loc	pa,	#(@LR__0066-@LR__0065)
01c64     35 00 A0 FD | 	call	#FCACHE_LOAD_
01c68                 | '   repeat while (pos>-1)
01c68                 | LR__0065
01c68     FF FF 7F FF 
01c6c     FF 59 5D F2 | 	cmps	local03, ##-1 wcz
01c70     34 00 90 ED |  if_be	jmp	#LR__0067
01c74                 | '     q:=j//10
01c74     AB 78 01 F6 | 	mov	muldiva_, local02
01c78     0A 7A 05 F6 | 	mov	muldivb_, #10
01c7c     6B 00 A0 FD | 	call	#divide_
01c80                 | '     q:=48+q
01c80     30 5C 05 F6 | 	mov	local05, #48
01c84     BC 5C 01 F1 | 	add	local05, muldiva_
01c88                 | '     n_string[pos]:=q
01c88     AC 5E 01 F6 | 	mov	local06, local03
01c8c     44 F2 04 F1 | 	add	objptr, #68
01c90     79 5E 01 F1 | 	add	local06, objptr
01c94     AF 5C 41 FC | 	wrbyte	local05, local06
01c98                 | '     j:=j/10
01c98     BD 56 01 F6 | 	mov	local02, muldivb_
01c9c                 | '     pos-=1
01c9c     01 58 85 F1 | 	sub	local03, #1
01ca0     44 F2 84 F1 | 	sub	objptr, #68
01ca4     C0 FF 9F FD | 	jmp	#LR__0065
01ca8                 | LR__0066
01ca8                 | LR__0067
01ca8                 | '   repeat while n_string[0]==48
01ca8                 | LR__0068
01ca8     44 F2 04 F1 | 	add	objptr, #68
01cac     79 5E C1 FA | 	rdbyte	local06, objptr
01cb0     44 F2 84 F1 | 	sub	objptr, #68
01cb4     30 5E 0D F2 | 	cmp	local06, #48 wz
01cb8     20 00 90 5D |  if_ne	jmp	#LR__0069
01cbc                 | '     bytemove(@n_string,@n_string+1,12)
01cbc     44 F2 04 F1 | 	add	objptr, #68
01cc0     79 4A 01 F6 | 	mov	arg01, objptr
01cc4     79 4C 01 F6 | 	mov	arg02, objptr
01cc8     44 F2 84 F1 | 	sub	objptr, #68
01ccc     01 4C 05 F1 | 	add	arg02, #1
01cd0     0C 4E 05 F6 | 	mov	arg03, #12
01cd4     20 0E B0 FD | 	call	#__system__bytemove
01cd8     CC FF 9F FD | 	jmp	#LR__0068
01cdc                 | LR__0069
01cdc                 | ' 
01cdc                 | '   if k==45
01cdc     2D 5A 0D F2 | 	cmp	local04, #45 wz
01ce0     28 00 90 5D |  if_ne	jmp	#LR__0070
01ce4                 | '      bytemove(@n_string+1,@n_string,12)
01ce4     44 F2 04 F1 | 	add	objptr, #68
01ce8     79 4A 01 F6 | 	mov	arg01, objptr
01cec     01 4A 05 F1 | 	add	arg01, #1
01cf0     79 4C 01 F6 | 	mov	arg02, objptr
01cf4     44 F2 84 F1 | 	sub	objptr, #68
01cf8     0C 4E 05 F6 | 	mov	arg03, #12
01cfc     F8 0D B0 FD | 	call	#__system__bytemove
01d00                 | '      n_string[0]:=k
01d00     44 F2 04 F1 | 	add	objptr, #68
01d04     79 5A 41 FC | 	wrbyte	local04, objptr
01d08     44 F2 84 F1 | 	sub	objptr, #68
01d0c                 | LR__0070
01d0c                 | LR__0071
01d0c                 | ' 
01d0c                 | ' q:=@n_string
01d0c     44 F2 04 F1 | 	add	objptr, #68
01d10     79 04 01 F6 | 	mov	result1, objptr
01d14     44 F2 84 F1 | 	sub	objptr, #68
01d18                 | ' return q
01d18     46 F0 03 F6 | 	mov	ptra, fp
01d1c     5A 00 A0 FD | 	call	#popregs_
01d20                 | _inttostr_ret
01d20     2D 00 64 FD | 	ret
01d24                 | 
01d24                 | ' 
01d24                 | ' 
01d24                 | ' 
01d24                 | ' '*************************************************************************
01d24                 | ' '                                                                        *
01d24                 | ' '  Mode setting and driver start                                                          *
01d24                 | ' '                                                                        *
01d24                 | ' '*************************************************************************
01d24                 | ' 
01d24                 | ' ''---------  Set the graphics mode
01d24                 | ' 
01d24                 | ' 
01d24                 | ' 
01d24                 | ' pub setmode(mode) | i', 'xzoom, yzoom, azoom
01d24                 | _setmode
01d24     0A 88 04 F6 | 	mov	COUNT_, #10
01d28     4B 00 A0 FD | 	call	#pushregs_
01d2c     A5 54 01 F6 | 	mov	local01, arg01
01d30                 | ' 
01d30                 | ' '' mode:tn_bb_cc_vv_hh
01d30                 | ' '' hh - h.zoom, vv-v.zoom, cc-c.depth,
01d30                 | ' '' bb - borders/total pixels, 00-wide/1140, 01 medium/1026, 10 narrow/912, 11 no border, 1024 px PAL, 880 px NTSC
01d30                 | ' 
01d30                 | ' if mode==(512+192+48)
01d30     01 00 00 FF 
01d34     F0 54 0D F2 | 	cmp	local01, ##752 wz
01d38                 | '   return 'no RAM
01d38     A0 05 90 AD |  if_e	jmp	#LR__0093
01d3c                 | ' 
01d3c                 | ' case_fast (mode>>6) & 7 ' timings are the same for graphic and text
01d3c     AA 56 01 F6 | 	mov	local02, local01
01d40     06 56 45 F0 | 	shr	local02, #6
01d44     07 56 05 F5 | 	and	local02, #7
01d48     08 56 25 F3 | 	fle	local02, #8
01d4c     AB 58 01 F6 | 	mov	local03, local02
01d50     30 58 61 FD | 	jmprel	local03
01d54                 | LR__0072
01d54     20 00 90 FD | 	jmp	#LR__0073
01d58     48 00 90 FD | 	jmp	#LR__0074
01d5c     70 00 90 FD | 	jmp	#LR__0075
01d60     98 00 90 FD | 	jmp	#LR__0076
01d64     C0 00 90 FD | 	jmp	#LR__0077
01d68     E8 00 90 FD | 	jmp	#LR__0078
01d6c     10 01 90 FD | 	jmp	#LR__0079
01d70     38 01 90 FD | 	jmp	#LR__0080
01d74     70 01 90 FD | 	jmp	#LR__0081
01d78                 | LR__0073
01d78                 | ' 
01d78                 | '     0:  longmove(@timings,@timings000,16)   'PAL 50 Hz signaling 1140x624, active 800x480, 100x30 text, wide border, 2 colors per pixel, 00_00_00_00_00=0, 354_693_878 Hz
01d78     50 F2 04 F1 | 	add	objptr, #80
01d7c     79 4A 01 F6 | 	mov	arg01, objptr
01d80     50 F2 84 F1 | 	sub	objptr, #80
01d84     0E 00 00 FF 
01d88     58 F8 04 F1 | 	add	ptr__dat__, ##7256
01d8c     7C 4C 01 F6 | 	mov	arg02, ptr__dat__
01d90     0E 00 00 FF 
01d94     58 F8 84 F1 | 	sub	ptr__dat__, ##7256
01d98     10 4E 05 F6 | 	mov	arg03, #16
01d9c     E8 0D B0 FD | 	call	#__system__longmove
01da0     44 01 90 FD | 	jmp	#LR__0081
01da4                 | LR__0074
01da4                 | '     1:  longmove(@timings,@timings064,16)   'PAL 50 Hz signaling 1026x624, active 880x496, 110x31 text, medium border, 2 colors per pixel 00_01_00_00_00=64, 319_215_686 Hz
01da4     50 F2 04 F1 | 	add	objptr, #80
01da8     79 4A 01 F6 | 	mov	arg01, objptr
01dac     50 F2 84 F1 | 	sub	objptr, #80
01db0     0E 00 00 FF 
01db4     98 F8 04 F1 | 	add	ptr__dat__, ##7320
01db8     7C 4C 01 F6 | 	mov	arg02, ptr__dat__
01dbc     0E 00 00 FF 
01dc0     98 F8 84 F1 | 	sub	ptr__dat__, ##7320
01dc4     10 4E 05 F6 | 	mov	arg03, #16
01dc8     BC 0D B0 FD | 	call	#__system__longmove
01dcc     18 01 90 FD | 	jmp	#LR__0081
01dd0                 | LR__0075
01dd0                 | '     2:  longmove(@timings,@timings128,16)   'PAL 50 Hz signaling 912x624, active 800x480, 100x30 text, medium border, 2 colors per pixel 00_10_00_00_00=64, 283750000z
01dd0     50 F2 04 F1 | 	add	objptr, #80
01dd4     79 4A 01 F6 | 	mov	arg01, objptr
01dd8     50 F2 84 F1 | 	sub	objptr, #80
01ddc     0E 00 00 FF 
01de0     D8 F8 04 F1 | 	add	ptr__dat__, ##7384
01de4     7C 4C 01 F6 | 	mov	arg02, ptr__dat__
01de8     0E 00 00 FF 
01dec     D8 F8 84 F1 | 	sub	ptr__dat__, ##7384
01df0     10 4E 05 F6 | 	mov	arg03, #16
01df4     90 0D B0 FD | 	call	#__system__longmove
01df8     EC 00 90 FD | 	jmp	#LR__0081
01dfc                 | LR__0076
01dfc                 | '     3:  longmove(@timings,@timings192,16)   'PAL 50 Hz signaling 1140x624, active 1024x576, 128x36 text, borderless, 2 colors per pixel 00_11_00_00_00=6192, 354_693_878 Hz
01dfc     50 F2 04 F1 | 	add	objptr, #80
01e00     79 4A 01 F6 | 	mov	arg01, objptr
01e04     50 F2 84 F1 | 	sub	objptr, #80
01e08     0E 00 00 FF 
01e0c     18 F9 04 F1 | 	add	ptr__dat__, ##7448
01e10     7C 4C 01 F6 | 	mov	arg02, ptr__dat__
01e14     0E 00 00 FF 
01e18     18 F9 84 F1 | 	sub	ptr__dat__, ##7448
01e1c     10 4E 05 F6 | 	mov	arg03, #16
01e20     64 0D B0 FD | 	call	#__system__longmove
01e24     C0 00 90 FD | 	jmp	#LR__0081
01e28                 | LR__0077
01e28                 | '     4:  longmove(@timings,@timings256,16)   'NTSC 50 Hz signaling 1140x524, active 800x480, 100x30 text, NO PLACE FOR wide border, 2 colors per pixel, 01_00_00_00_00=256, 357959184 Hz
01e28     50 F2 04 F1 | 	add	objptr, #80
01e2c     79 4A 01 F6 | 	mov	arg01, objptr
01e30     50 F2 84 F1 | 	sub	objptr, #80
01e34     0E 00 00 FF 
01e38     58 F9 04 F1 | 	add	ptr__dat__, ##7512
01e3c     7C 4C 01 F6 | 	mov	arg02, ptr__dat__
01e40     0E 00 00 FF 
01e44     58 F9 84 F1 | 	sub	ptr__dat__, ##7512
01e48     10 4E 05 F6 | 	mov	arg03, #16
01e4c     38 0D B0 FD | 	call	#__system__longmove
01e50     94 00 90 FD | 	jmp	#LR__0081
01e54                 | LR__0078
01e54                 | '     5:  longmove(@timings,@timings320,16)   'NTSC 50 Hz signaling 1026x524, active 800x480, 100x30 text, NO PLACE FOR wide border, 2 colors per pixel, 01_01_00_00_00=320, 322162162 Hz
01e54     50 F2 04 F1 | 	add	objptr, #80
01e58     79 4A 01 F6 | 	mov	arg01, objptr
01e5c     50 F2 84 F1 | 	sub	objptr, #80
01e60     0E 00 00 FF 
01e64     98 F9 04 F1 | 	add	ptr__dat__, ##7576
01e68     7C 4C 01 F6 | 	mov	arg02, ptr__dat__
01e6c     0E 00 00 FF 
01e70     98 F9 84 F1 | 	sub	ptr__dat__, ##7576
01e74     10 4E 05 F6 | 	mov	arg03, #16
01e78     0C 0D B0 FD | 	call	#__system__longmove
01e7c     68 00 90 FD | 	jmp	#LR__0081
01e80                 | LR__0079
01e80                 | '     6:  longmove(@timings,@timings384,16)   'NTSC 50 Hz signaling 912x524, active 800x480, 100x30 text, NO PLACE FOR wide border, 2 colors per pixel, 01_10_00_00_00=384, 286363636 Hz
01e80     50 F2 04 F1 | 	add	objptr, #80
01e84     79 4A 01 F6 | 	mov	arg01, objptr
01e88     50 F2 84 F1 | 	sub	objptr, #80
01e8c     0E 00 00 FF 
01e90     D8 F9 04 F1 | 	add	ptr__dat__, ##7640
01e94     7C 4C 01 F6 | 	mov	arg02, ptr__dat__
01e98     0E 00 00 FF 
01e9c     D8 F9 84 F1 | 	sub	ptr__dat__, ##7640
01ea0     10 4E 05 F6 | 	mov	arg03, #16
01ea4     E0 0C B0 FD | 	call	#__system__longmove
01ea8     3C 00 90 FD | 	jmp	#LR__0081
01eac                 | LR__0080
01eac                 | '     7:  longmove(@timings,@timings448,16)   'NTSC 50 Hz signaling 1026x524, active 880x496, 110x31 text, borderless, 2 colors per pixel, 01_11_00_00_00=496, 322162162 Hz
01eac     50 F2 04 F1 | 	add	objptr, #80
01eb0     79 5A 01 F6 | 	mov	local04, objptr
01eb4     AD 5C 01 F6 | 	mov	local05, local04
01eb8     0F 00 00 FF 
01ebc     18 F8 04 F1 | 	add	ptr__dat__, ##7704
01ec0     7C 5E 01 F6 | 	mov	local06, ptr__dat__
01ec4     AF 60 01 F6 | 	mov	local07, local06
01ec8     10 62 05 F6 | 	mov	local08, #16
01ecc     AE 4A 01 F6 | 	mov	arg01, local05
01ed0     B0 4C 01 F6 | 	mov	arg02, local07
01ed4     10 4E 05 F6 | 	mov	arg03, #16
01ed8     50 F2 84 F1 | 	sub	objptr, #80
01edc     0F 00 00 FF 
01ee0     18 F8 84 F1 | 	sub	ptr__dat__, ##7704
01ee4     A0 0C B0 FD | 	call	#__system__longmove
01ee8                 | LR__0081
01ee8                 | ' 
01ee8                 | ' ' 4-bit graphics: do nothing with timings :)
01ee8                 | ' 
01ee8                 | ' if (mode & (%10_00_11_0000))==(%10_00_11_0000) ' 8bit graphics, 4 pixels per long instead of 8, cpp x2
01ee8     AA 56 01 F6 | 	mov	local02, local01
01eec     01 00 00 FF 
01ef0     30 56 05 F5 | 	and	local02, ##560
01ef4     01 00 00 FF 
01ef8     30 56 0D F2 | 	cmp	local02, ##560 wz
01efc     44 00 90 5D |  if_ne	jmp	#LR__0082
01f00                 | '   timings[5]:=4
01f00     64 F2 04 F1 | 	add	objptr, #100
01f04     79 08 68 FC | 	wrlong	#4, objptr
01f08                 | '   timings[11]:=timings[11]<<1
01f08     18 F2 04 F1 | 	add	objptr, #24
01f0c     79 56 01 FB | 	rdlong	local02, objptr
01f10     01 56 65 F0 | 	shl	local02, #1
01f14     79 56 61 FC | 	wrlong	local02, objptr
01f18                 | '   putpixel:=p8
01f18     6C F2 04 F1 | 	add	objptr, #108
01f1c     79 56 01 FB | 	rdlong	local02, objptr
01f20     10 F2 84 F1 | 	sub	objptr, #16
01f24     79 56 61 FC | 	wrlong	local02, objptr
01f28                 | '   palette_ptr:=@ataripalette
01f28     0C 00 00 FF 
01f2c     58 F8 04 F1 | 	add	ptr__dat__, ##6232
01f30     C0 F2 84 F1 | 	sub	objptr, #192
01f34     79 F8 60 FC | 	wrlong	ptr__dat__, objptr
01f38     18 F2 84 F1 | 	sub	objptr, #24
01f3c     0C 00 00 FF 
01f40     58 F8 84 F1 | 	sub	ptr__dat__, ##6232
01f44                 | LR__0082
01f44                 | ' 
01f44                 | ' if (mode & (%10_00_11_0000))==(%10_00_01_0000) ' 2bit graphics, 16 pixels per long instead of 8, cpp /2
01f44     AA 56 01 F6 | 	mov	local02, local01
01f48     01 00 00 FF 
01f4c     30 56 05 F5 | 	and	local02, ##560
01f50     01 00 00 FF 
01f54     10 56 0D F2 | 	cmp	local02, ##528 wz
01f58     44 00 90 5D |  if_ne	jmp	#LR__0083
01f5c                 | '   timings[5]:=16
01f5c     64 F2 04 F1 | 	add	objptr, #100
01f60     79 20 68 FC | 	wrlong	#16, objptr
01f64                 | '   timings[11]:=timings[11]>>1
01f64     18 F2 04 F1 | 	add	objptr, #24
01f68     79 56 01 FB | 	rdlong	local02, objptr
01f6c     01 56 45 F0 | 	shr	local02, #1
01f70     79 56 61 FC | 	wrlong	local02, objptr
01f74                 | '   putpixel:=p2
01f74     64 F2 04 F1 | 	add	objptr, #100
01f78     79 56 01 FB | 	rdlong	local02, objptr
01f7c     08 F2 84 F1 | 	sub	objptr, #8
01f80     79 56 61 FC | 	wrlong	local02, objptr
01f84                 | '   palette_ptr:=@fourcolors
01f84     0C 00 00 FF 
01f88     08 F8 04 F1 | 	add	ptr__dat__, ##6152
01f8c     C0 F2 84 F1 | 	sub	objptr, #192
01f90     79 F8 60 FC | 	wrlong	ptr__dat__, objptr
01f94     18 F2 84 F1 | 	sub	objptr, #24
01f98     0C 00 00 FF 
01f9c     08 F8 84 F1 | 	sub	ptr__dat__, ##6152
01fa0                 | LR__0083
01fa0                 | ' 
01fa0                 | ' if (mode & (%10_00_11_0000))==(%10_00_00_0000) ' 1bit graphics, 32 pixels per long instead of 8, cpp /4
01fa0     AA 56 01 F6 | 	mov	local02, local01
01fa4     01 00 00 FF 
01fa8     30 56 05 F5 | 	and	local02, ##560
01fac     01 00 00 FF 
01fb0     00 56 0D F2 | 	cmp	local02, ##512 wz
01fb4     44 00 90 5D |  if_ne	jmp	#LR__0084
01fb8                 | '   timings[5]:=32
01fb8     64 F2 04 F1 | 	add	objptr, #100
01fbc     79 40 68 FC | 	wrlong	#32, objptr
01fc0                 | '   timings[11]:=timings[11]>>2
01fc0     18 F2 04 F1 | 	add	objptr, #24
01fc4     79 56 01 FB | 	rdlong	local02, objptr
01fc8     02 56 45 F0 | 	shr	local02, #2
01fcc     79 56 61 FC | 	wrlong	local02, objptr
01fd0                 | '   putpixel:=p1
01fd0     60 F2 04 F1 | 	add	objptr, #96
01fd4     79 56 01 FB | 	rdlong	local02, objptr
01fd8     04 F2 84 F1 | 	sub	objptr, #4
01fdc     79 56 61 FC | 	wrlong	local02, objptr
01fe0                 | '   palette_ptr:=@twocolors
01fe0     0C 00 00 FF 
01fe4     00 F8 04 F1 | 	add	ptr__dat__, ##6144
01fe8     C0 F2 84 F1 | 	sub	objptr, #192
01fec     79 F8 60 FC | 	wrlong	ptr__dat__, objptr
01ff0     18 F2 84 F1 | 	sub	objptr, #24
01ff4     0C 00 00 FF 
01ff8     00 F8 84 F1 | 	sub	ptr__dat__, ##6144
01ffc                 | LR__0084
01ffc                 | ' 
01ffc                 | ' if (mode & (%10_00_11_0000))==(%10_00_10_0000) ' 4bit graphics,
01ffc     AA 56 01 F6 | 	mov	local02, local01
02000     01 00 00 FF 
02004     30 56 05 F5 | 	and	local02, ##560
02008     01 00 00 FF 
0200c     20 56 0D F2 | 	cmp	local02, ##544 wz
02010     2C 00 90 5D |  if_ne	jmp	#LR__0085
02014                 | '   putpixel:=p4
02014     E4 F2 04 F1 | 	add	objptr, #228
02018     79 56 01 FB | 	rdlong	local02, objptr
0201c     0C F2 84 F1 | 	sub	objptr, #12
02020     79 56 61 FC | 	wrlong	local02, objptr
02024                 | '   palette_ptr:=@vga16
02024     0C 00 00 FF 
02028     18 F8 04 F1 | 	add	ptr__dat__, ##6168
0202c     C0 F2 84 F1 | 	sub	objptr, #192
02030     79 F8 60 FC | 	wrlong	ptr__dat__, objptr
02034     18 F2 84 F1 | 	sub	objptr, #24
02038     0C 00 00 FF 
0203c     18 F8 84 F1 | 	sub	ptr__dat__, ##6168
02040                 | LR__0085
02040                 | ' 
02040                 | ' repeat i from 0 to 4
02040     00 64 05 F6 | 	mov	local09, #0
02044     14 E0 9F FE | 	loc	pa,	#(@LR__0087-@LR__0086)
02048     35 00 A0 FD | 	call	#FCACHE_LOAD_
0204c                 | LR__0086
0204c                 | '   timings[i]:=timings[i]+hdmibase<<17+ timingsxxt
0204c     B2 5A 01 F6 | 	mov	local04, local09
02050     02 5A 65 F0 | 	shl	local04, #2
02054     50 F2 04 F1 | 	add	objptr, #80
02058     79 5C 01 F6 | 	mov	local05, objptr
0205c     79 5A 01 F1 | 	add	local04, objptr
02060     2C F2 84 F1 | 	sub	objptr, #44
02064     79 60 01 FB | 	rdlong	local07, objptr
02068     B0 5E 01 F6 | 	mov	local06, local07
0206c     11 5E 65 F0 | 	shl	local06, #17
02070     AD 56 01 FB | 	rdlong	local02, local04
02074     AF 56 01 F1 | 	add	local02, local06
02078     80 40 38 FF 
0207c     00 56 05 F1 | 	add	local02, ##1887502336
02080     B2 62 01 F6 | 	mov	local08, local09
02084     02 62 65 F0 | 	shl	local08, #2
02088     2C F2 04 F1 | 	add	objptr, #44
0208c     79 66 01 F6 | 	mov	local10, objptr
02090     79 62 01 F1 | 	add	local08, objptr
02094     B1 56 61 FC | 	wrlong	local02, local08
02098     01 64 05 F1 | 	add	local09, #1
0209c     05 64 5D F2 | 	cmps	local09, #5 wcz
020a0     50 F2 84 F1 | 	sub	objptr, #80
020a4     A4 FF 9F CD |  if_b	jmp	#LR__0086
020a8                 | LR__0087
020a8                 | ' timings[5]:=timings[5]+hdmibase<<17
020a8     24 F2 04 F1 | 	add	objptr, #36
020ac     79 5A 01 FB | 	rdlong	local04, objptr
020b0     11 5A 65 F0 | 	shl	local04, #17
020b4     40 F2 04 F1 | 	add	objptr, #64
020b8     79 5E 01 FB | 	rdlong	local06, objptr
020bc     AF 56 01 F6 | 	mov	local02, local06
020c0     AD 56 01 F1 | 	add	local02, local04
020c4     79 56 61 FC | 	wrlong	local02, objptr
020c8                 | ' clkfreq:=timings[13]
020c8     20 F2 04 F1 | 	add	objptr, #32
020cc     79 56 01 FB | 	rdlong	local02, objptr
020d0     14 56 65 FC | 	wrlong	local02, #20
020d4                 | ' hubset(timings[14])
020d4     04 F2 04 F1 | 	add	objptr, #4
020d8     79 4A 01 FB | 	rdlong	arg01, objptr
020dc     88 F2 84 F1 | 	sub	objptr, #136
020e0     00 4A 61 FD | 	hubset	arg01
020e4                 | ' waitms(1)
020e4     01 4A 05 F6 | 	mov	arg01, #1
020e8     FC 0B B0 FD | 	call	#__system___waitms
020ec                 | ' 
020ec                 | ' 
020ec                 | ' xzoom:=1<<(mode & 3)
020ec     AA 5A 01 F6 | 	mov	local04, local01
020f0     03 5A 05 F5 | 	and	local04, #3
020f4     AD 56 C1 F9 | 	decod	local02, local04
020f8     CC F2 04 F1 | 	add	objptr, #204
020fc     79 56 61 FC | 	wrlong	local02, objptr
02100                 | ' 
02100                 | ' if (xzoom==8) && (((mode>>4)&3)<>3)
02100     AB 5A 01 F6 | 	mov	local04, local02
02104     CC F2 84 F1 | 	sub	objptr, #204
02108     08 5A 0D F2 | 	cmp	local04, #8 wz
0210c     24 00 90 5D |  if_ne	jmp	#LR__0088
02110     AA 5C 01 F6 | 	mov	local05, local01
02114     04 5C 45 F0 | 	shr	local05, #4
02118     03 5C 05 F5 | 	and	local05, #3
0211c     03 5C 0D F2 | 	cmp	local05, #3 wz
02120     10 00 90 AD |  if_e	jmp	#LR__0088
02124                 | '   xzoom:=4
02124     04 56 05 F6 | 	mov	local02, #4
02128     CC F2 04 F1 | 	add	objptr, #204
0212c     79 08 68 FC | 	wrlong	#4, objptr
02130     CC F2 84 F1 | 	sub	objptr, #204
02134                 | LR__0088
02134                 | ' 
02134                 | ' yzoom:=1<<((mode>>2) & 3)
02134     AA 5A 01 F6 | 	mov	local04, local01
02138     02 5A 45 F0 | 	shr	local04, #2
0213c     03 5A 05 F5 | 	and	local04, #3
02140     AD 56 C1 F9 | 	decod	local02, local04
02144     D0 F2 04 F1 | 	add	objptr, #208
02148     79 56 61 FC | 	wrlong	local02, objptr
0214c                 | ' azoom:=xzoom*yzoom
0214c     04 F2 84 F1 | 	sub	objptr, #4
02150     79 5A 01 FB | 	rdlong	local04, objptr
02154     04 F2 04 F1 | 	add	objptr, #4
02158     79 5E 01 FB | 	rdlong	local06, objptr
0215c     AF 5A 01 FD | 	qmul	local04, local06
02160     18 56 61 FD | 	getqx	local02
02164     04 F2 04 F1 | 	add	objptr, #4
02168     79 56 61 FC | 	wrlong	local02, objptr
0216c                 | ' 
0216c                 | ' cpl:=timings[11]
0216c     58 F2 84 F1 | 	sub	objptr, #88
02170     79 56 01 FB | 	rdlong	local02, objptr
02174     14 F2 04 F1 | 	add	objptr, #20
02178     79 56 61 FC | 	wrlong	local02, objptr
0217c     90 F2 84 F1 | 	sub	objptr, #144
02180                 | ' if (mode<512)
02180     01 00 00 FF 
02184     00 54 5D F2 | 	cmps	local01, ##512 wcz
02188     60 00 90 3D |  if_ae	jmp	#LR__0089
0218c                 | '   lines:=(timings[12]>>4)+/yzoom
0218c     80 F2 04 F1 | 	add	objptr, #128
02190     79 78 01 FB | 	rdlong	muldiva_, objptr
02194     04 78 45 F0 | 	shr	muldiva_, #4
02198     50 F2 04 F1 | 	add	objptr, #80
0219c     79 7A 01 FB | 	rdlong	muldivb_, objptr
021a0     D0 F2 84 F1 | 	sub	objptr, #208
021a4     67 00 A0 FD | 	call	#unsdivide_
021a8     94 F2 04 F1 | 	add	objptr, #148
021ac     79 7A 61 FC | 	wrlong	muldivb_, objptr
021b0                 | '   if ((timings[12]>>4)+//yzoom) <>0
021b0     14 F2 84 F1 | 	sub	objptr, #20
021b4     79 78 01 FB | 	rdlong	muldiva_, objptr
021b8     04 78 45 F0 | 	shr	muldiva_, #4
021bc     50 F2 04 F1 | 	add	objptr, #80
021c0     79 7A 01 FB | 	rdlong	muldivb_, objptr
021c4     D0 F2 84 F1 | 	sub	objptr, #208
021c8     67 00 A0 FD | 	call	#unsdivide_
021cc     00 78 0D F2 | 	cmp	muldiva_, #0 wz
021d0     AC 00 90 AD |  if_e	jmp	#LR__0092
021d4                 | '     lines +=1
021d4     94 F2 04 F1 | 	add	objptr, #148
021d8     79 56 01 FB | 	rdlong	local02, objptr
021dc     01 56 05 F1 | 	add	local02, #1
021e0     79 56 61 FC | 	wrlong	local02, objptr
021e4     94 F2 84 F1 | 	sub	objptr, #148
021e8                 | ' 
021e8                 | ' else
021e8     94 00 90 FD | 	jmp	#LR__0092
021ec                 | LR__0089
021ec                 | '   lines:=timings[12]/yzoom
021ec     80 F2 04 F1 | 	add	objptr, #128
021f0     79 78 01 FB | 	rdlong	muldiva_, objptr
021f4     50 F2 04 F1 | 	add	objptr, #80
021f8     79 7A 01 FB | 	rdlong	muldivb_, objptr
021fc     D0 F2 84 F1 | 	sub	objptr, #208
02200     6B 00 A0 FD | 	call	#divide_
02204     94 F2 04 F1 | 	add	objptr, #148
02208     79 7A 61 FC | 	wrlong	muldivb_, objptr
0220c                 | '   if cpl//xzoom==0
0220c     04 F2 84 F1 | 	sub	objptr, #4
02210     79 78 01 FB | 	rdlong	muldiva_, objptr
02214     3C F2 04 F1 | 	add	objptr, #60
02218     79 7A 01 FB | 	rdlong	muldivb_, objptr
0221c     CC F2 84 F1 | 	sub	objptr, #204
02220     6B 00 A0 FD | 	call	#divide_
02224     00 78 0D F2 | 	cmp	muldiva_, #0 wz
02228     28 00 90 5D |  if_ne	jmp	#LR__0090
0222c                 | '     cpl:=cpl/xzoom
0222c     90 F2 04 F1 | 	add	objptr, #144
02230     79 78 01 FB | 	rdlong	muldiva_, objptr
02234     3C F2 04 F1 | 	add	objptr, #60
02238     79 7A 01 FB | 	rdlong	muldivb_, objptr
0223c     CC F2 84 F1 | 	sub	objptr, #204
02240     6B 00 A0 FD | 	call	#divide_
02244     90 F2 04 F1 | 	add	objptr, #144
02248     79 7A 61 FC | 	wrlong	muldivb_, objptr
0224c     90 F2 84 F1 | 	sub	objptr, #144
02250                 | '   else
02250     2C 00 90 FD | 	jmp	#LR__0091
02254                 | LR__0090
02254                 | '     cpl:=cpl/xzoom+1
02254     90 F2 04 F1 | 	add	objptr, #144
02258     79 78 01 FB | 	rdlong	muldiva_, objptr
0225c     3C F2 04 F1 | 	add	objptr, #60
02260     79 7A 01 FB | 	rdlong	muldivb_, objptr
02264     CC F2 84 F1 | 	sub	objptr, #204
02268     6B 00 A0 FD | 	call	#divide_
0226c     BD 56 01 F6 | 	mov	local02, muldivb_
02270     01 56 05 F1 | 	add	local02, #1
02274     90 F2 04 F1 | 	add	objptr, #144
02278     79 56 61 FC | 	wrlong	local02, objptr
0227c     90 F2 84 F1 | 	sub	objptr, #144
02280                 | LR__0091
02280                 | LR__0092
02280                 | ' 
02280                 | ' buflen:=(cpl*lines)
02280     90 F2 04 F1 | 	add	objptr, #144
02284     79 5A 01 FB | 	rdlong	local04, objptr
02288     04 F2 04 F1 | 	add	objptr, #4
0228c     79 5E 01 FB | 	rdlong	local06, objptr
02290     AF 5A 01 FD | 	qmul	local04, local06
02294     18 56 61 FD | 	getqx	local02
02298     64 F2 84 F1 | 	sub	objptr, #100
0229c     79 56 61 FC | 	wrlong	local02, objptr
022a0                 | ' 
022a0                 | ' buf_ptr:=$80000-4*buflen
022a0     AB 5A 01 F6 | 	mov	local04, local02
022a4     30 F2 84 F1 | 	sub	objptr, #48
022a8     02 5A 65 F0 | 	shl	local04, #2
022ac     13 56 C5 F9 | 	decod	local02, #19
022b0     AD 56 81 F1 | 	sub	local02, local04
022b4     79 56 61 FC | 	wrlong	local02, objptr
022b8                 | ' mode_ptr:=@timings
022b8     50 F2 04 F1 | 	add	objptr, #80
022bc     79 56 01 F6 | 	mov	local02, objptr
022c0     3C F2 84 F1 | 	sub	objptr, #60
022c4     79 56 61 FC | 	wrlong	local02, objptr
022c8                 | ' graphmode:=mode
022c8     B0 F2 04 F1 | 	add	objptr, #176
022cc     79 54 61 FC | 	wrlong	local01, objptr
022d0     C4 F2 84 F1 | 	sub	objptr, #196
022d4                 | ' makedl(mode)
022d4     AA 4A 01 F6 | 	mov	arg01, local01
022d8     0C 00 B0 FD | 	call	#_makedl
022dc                 | LR__0093
022dc     46 F0 03 F6 | 	mov	ptra, fp
022e0     5A 00 A0 FD | 	call	#popregs_
022e4                 | _setmode_ret
022e4     2D 00 64 FD | 	ret
022e8                 | 
022e8                 | ' 
022e8                 | ' 
022e8                 | ' 
022e8                 | ' 
022e8                 | ' '---------- Make a display list
022e8                 | ' 
022e8                 | ' pub makedl (mode) |i, fontline2,charline,bufstart,zoom1,vzoom,lpc,hzoom
022e8                 | _makedl
022e8                 | ' 
022e8                 | ' ''--%aaaa_aaaa_aaaa_aaaa_aazz_nnnn_llll_ll_01 - txt
022e8                 | '   '' aaaa_aaaa_aaaa_aaaa_aazz_rrrr_rrrr_cc_10 - graph
022e8                 | '   '' aaaa_aaaa_aaaa-aaaa_aarr_rrrr_rrrr_rr_11 - extended, next long to read
022e8                 | ' 
022e8                 | ' '   0 - display a up/down border line
022e8                 | ' 
022e8                 | ' '  ' aaaa_aaaa_aaaa_aaaa_aazz_nnnn_llll_ll_01 - text line
022e8                 | ' '    aaaa_aaaa_aaaa_aaaa_aa00 - buffer start, has to be aligned, 1 long for char, ff_bb_rr_cc, foreground, background,reserved, charcode
022e8                 | ' '    zz - zoom, 00-x1, 01-x2, 10-x4, 11-blank line
022e8                 | ' '    nnnn - font line to display, 0..15
022e8                 | ' '    llllll - character line, determines the cursor Y position
022e8                 | ' 
022e8                 | ' 
022e8                 | ' if (mode &256==0)
022e8     00 4B CD F7 | 	test	arg01, #256 wz
022ec     1C 00 90 5D |  if_ne	jmp	#LR__0094
022f0                 | '   dl_ptr:=buf_ptr-4*576
022f0     79 0A 01 FB | 	rdlong	_var01, objptr
022f4     04 00 00 FF 
022f8     00 0B 85 F1 | 	sub	_var01, ##2304
022fc     1C F2 04 F1 | 	add	objptr, #28
02300     79 0A 61 FC | 	wrlong	_var01, objptr
02304     1C F2 84 F1 | 	sub	objptr, #28
02308                 | ' else
02308     18 00 90 FD | 	jmp	#LR__0095
0230c                 | LR__0094
0230c                 | '   dl_ptr:=buf_ptr-4*496
0230c     79 0A 01 FB | 	rdlong	_var01, objptr
02310     03 00 00 FF 
02314     C0 0B 85 F1 | 	sub	_var01, ##1984
02318     1C F2 04 F1 | 	add	objptr, #28
0231c     79 0A 61 FC | 	wrlong	_var01, objptr
02320     1C F2 84 F1 | 	sub	objptr, #28
02324                 | LR__0095
02324                 | ' 
02324                 | ' vzoom:=((mode>>2) & 3)
02324     A5 0C 01 F6 | 	mov	_var02, arg01
02328     02 0C 45 F0 | 	shr	_var02, #2
0232c     03 0C 05 F5 | 	and	_var02, #3
02330                 | ' 
02330                 | ' 
02330                 | ' if mode<512 '' text modes
02330     01 00 00 FF 
02334     00 4A 5D F2 | 	cmps	arg01, ##512 wcz
02338     E8 01 90 3D |  if_ae	jmp	#LR__0103
0233c                 | ' 
0233c                 | '   if timings[6]>0 'borders
0233c     68 F2 04 F1 | 	add	objptr, #104
02340     79 0A 01 FB | 	rdlong	_var01, objptr
02344     68 F2 84 F1 | 	sub	objptr, #104
02348     00 0A 5D F2 | 	cmps	_var01, #0 wcz
0234c     D4 00 90 ED |  if_be	jmp	#LR__0100
02350                 | '     repeat i from 0 to timings[6]-1 '0 to -1
02350     00 0E 05 F6 | 	mov	_var03, #0
02354     68 F2 04 F1 | 	add	objptr, #104
02358     79 10 01 FB | 	rdlong	_var04, objptr
0235c     68 F2 84 F1 | 	sub	objptr, #104
02360     01 10 85 F1 | 	sub	_var04, #1
02364     00 10 5D F2 | 	cmps	_var04, #0 wcz
02368     01 12 05 16 |  if_a	mov	_var05, #1
0236c     01 12 65 E6 |  if_be	neg	_var05, #1
02370     89 14 01 F6 | 	mov	_var06, _var05
02374     89 10 01 F1 | 	add	_var04, _var05
02378     AC DC 9F FE | 	loc	pa,	#(@LR__0097-@LR__0096)
0237c     35 00 A0 FD | 	call	#FCACHE_LOAD_
02380                 | LR__0096
02380                 | '       long[dl_ptr+4*i]:=$0
02380     1C F2 04 F1 | 	add	objptr, #28
02384     79 16 01 FB | 	rdlong	_var07, objptr
02388     1C F2 84 F1 | 	sub	objptr, #28
0238c     87 18 01 F6 | 	mov	_var08, _var03
02390     02 18 65 F0 | 	shl	_var08, #2
02394     8C 16 01 F1 | 	add	_var07, _var08
02398     8B 00 68 FC | 	wrlong	#0, _var07
0239c     8A 0E 01 F1 | 	add	_var03, _var06
023a0     88 0E 09 F2 | 	cmp	_var03, _var04 wz
023a4     D8 FF 9F 5D |  if_ne	jmp	#LR__0096
023a8                 | LR__0097
023a8                 | '     repeat i from timings[6]+timings[12] to timings[15]-1
023a8     68 F2 04 F1 | 	add	objptr, #104
023ac     79 0E 01 FB | 	rdlong	_var03, objptr
023b0     18 F2 04 F1 | 	add	objptr, #24
023b4     79 12 01 FB | 	rdlong	_var05, objptr
023b8     89 0E 01 F1 | 	add	_var03, _var05
023bc     0C F2 04 F1 | 	add	objptr, #12
023c0     79 1A 01 FB | 	rdlong	_var09, objptr
023c4     01 1A 85 F1 | 	sub	_var09, #1
023c8     24 F2 84 F1 | 	sub	objptr, #36
023cc     79 1C 01 FB | 	rdlong	_var10, objptr
023d0     18 F2 04 F1 | 	add	objptr, #24
023d4     79 1E 01 FB | 	rdlong	_var11, objptr
023d8     80 F2 84 F1 | 	sub	objptr, #128
023dc     8F 1C 01 F1 | 	add	_var10, _var11
023e0     8E 1A 59 F2 | 	cmps	_var09, _var10 wcz
023e4     01 18 05 16 |  if_a	mov	_var08, #1
023e8     01 18 65 E6 |  if_be	neg	_var08, #1
023ec     8C 20 01 F6 | 	mov	_var12, _var08
023f0     8C 1A 01 F1 | 	add	_var09, _var08
023f4     30 DC 9F FE | 	loc	pa,	#(@LR__0099-@LR__0098)
023f8     35 00 A0 FD | 	call	#FCACHE_LOAD_
023fc                 | LR__0098
023fc                 | '       long[dl_ptr+4*i]:=$0
023fc     1C F2 04 F1 | 	add	objptr, #28
02400     79 22 01 FB | 	rdlong	_var13, objptr
02404     1C F2 84 F1 | 	sub	objptr, #28
02408     87 24 01 F6 | 	mov	_var14, _var03
0240c     02 24 65 F0 | 	shl	_var14, #2
02410     92 22 01 F1 | 	add	_var13, _var14
02414     91 00 68 FC | 	wrlong	#0, _var13
02418     90 0E 01 F1 | 	add	_var03, _var12
0241c     8D 0E 09 F2 | 	cmp	_var03, _var09 wz
02420     D8 FF 9F 5D |  if_ne	jmp	#LR__0098
02424                 | LR__0099
02424                 | LR__0100
02424                 | '   lpc:=16<<vzoom
02424     10 26 05 F6 | 	mov	_var15, #16
02428     86 26 61 F0 | 	shl	_var15, _var02
0242c                 | '   repeat i from timings[6] to timings[6]+timings[12]-1
0242c     68 F2 04 F1 | 	add	objptr, #104
02430     79 0E 01 FB | 	rdlong	_var03, objptr
02434     87 28 01 F6 | 	mov	_var16, _var03
02438     18 F2 04 F1 | 	add	objptr, #24
0243c     79 2A 01 FB | 	rdlong	_var17, objptr
02440     95 28 01 F1 | 	add	_var16, _var17
02444     01 28 85 F1 | 	sub	_var16, #1
02448     18 F2 84 F1 | 	sub	objptr, #24
0244c     79 18 01 FB | 	rdlong	_var08, objptr
02450     68 F2 84 F1 | 	sub	objptr, #104
02454     8C 28 59 F2 | 	cmps	_var16, _var08 wcz
02458     01 2C 05 16 |  if_a	mov	_var18, #1
0245c     01 2C 65 E6 |  if_be	neg	_var18, #1
02460     96 2E 01 F6 | 	mov	_var19, _var18
02464     96 28 01 F1 | 	add	_var16, _var18
02468     48 DC 9F FE | 	loc	pa,	#(@LR__0102-@LR__0101)
0246c     35 00 A0 FD | 	call	#FCACHE_LOAD_
02470                 | LR__0101
02470                 | '     fontline2:=((i-timings[6])+//lpc)>>vzoom
02470     87 78 01 F6 | 	mov	muldiva_, _var03
02474     68 F2 04 F1 | 	add	objptr, #104
02478     79 30 01 FB | 	rdlong	_var20, objptr
0247c     68 F2 84 F1 | 	sub	objptr, #104
02480     98 78 81 F1 | 	sub	muldiva_, _var20
02484     93 7A 01 F6 | 	mov	muldivb_, _var15
02488     67 00 A0 FD | 	call	#unsdivide_
0248c     86 78 41 F0 | 	shr	muldiva_, _var02
02490     BC 32 01 F6 | 	mov	_var21, muldiva_
02494                 | '     charline:=(i-timings[6])+/lpc
02494     87 78 01 F6 | 	mov	muldiva_, _var03
02498     68 F2 04 F1 | 	add	objptr, #104
0249c     79 34 01 FB | 	rdlong	_var22, objptr
024a0     68 F2 84 F1 | 	sub	objptr, #104
024a4     9A 78 81 F1 | 	sub	muldiva_, _var22
024a8     93 7A 01 F6 | 	mov	muldivb_, _var15
024ac     67 00 A0 FD | 	call	#unsdivide_
024b0     BD 36 01 F6 | 	mov	_var23, muldivb_
024b4                 | '     bufstart:=buf_ptr+4*((cpl)*charline)+(mode&3)
024b4     79 1E 01 FB | 	rdlong	_var11, objptr
024b8     90 F2 04 F1 | 	add	objptr, #144
024bc     79 30 01 FB | 	rdlong	_var20, objptr
024c0     9B 30 01 FD | 	qmul	_var20, _var23
024c4     18 38 61 FD | 	getqx	_var24
024c8     02 38 65 F0 | 	shl	_var24, #2
024cc     9C 1E 01 F1 | 	add	_var11, _var24
024d0     A5 24 01 F6 | 	mov	_var14, arg01
024d4     03 24 05 F5 | 	and	_var14, #3
024d8     92 1E 01 F1 | 	add	_var11, _var14
024dc                 | '     long[dl_ptr+4*i]:=(bufstart<<12)+(fontline2<<8)+(charline<<2)+1
024dc     0C 1E 65 F0 | 	shl	_var11, #12
024e0     99 34 01 F6 | 	mov	_var22, _var21
024e4     08 34 65 F0 | 	shl	_var22, #8
024e8     9A 1E 01 F1 | 	add	_var11, _var22
024ec     9B 30 01 F6 | 	mov	_var20, _var23
024f0     02 30 65 F0 | 	shl	_var20, #2
024f4     98 1E 01 F1 | 	add	_var11, _var20
024f8     01 1E 05 F1 | 	add	_var11, #1
024fc     74 F2 84 F1 | 	sub	objptr, #116
02500     79 22 01 FB | 	rdlong	_var13, objptr
02504     1C F2 84 F1 | 	sub	objptr, #28
02508     87 24 01 F6 | 	mov	_var14, _var03
0250c     02 24 65 F0 | 	shl	_var14, #2
02510     92 22 01 F1 | 	add	_var13, _var14
02514     91 1E 61 FC | 	wrlong	_var11, _var13
02518     97 0E 01 F1 | 	add	_var03, _var19
0251c     94 0E 09 F2 | 	cmp	_var03, _var16 wz
02520     4C FF 9F 5D |  if_ne	jmp	#LR__0101
02524                 | LR__0102
02524                 | LR__0103
02524                 | ' 
02524                 | ' 
02524                 | ' 
02524                 | ' if (mode>=512)' and (mode & (%10_00_00_0000))==(%10_00_00_0000) ' graphics -> all modes TODO :mode 560+192=752 = 10_11_11_0000 impossib,e because out of memory
02524     01 00 00 FF 
02528     00 4A 5D F2 | 	cmps	arg01, ##512 wcz
0252c     A8 01 90 CD |  if_b	jmp	#LR__0111
02530                 | ' 
02530                 | '   if timings[6]>0 'borders
02530     68 F2 04 F1 | 	add	objptr, #104
02534     79 0A 01 FB | 	rdlong	_var01, objptr
02538     68 F2 84 F1 | 	sub	objptr, #104
0253c     00 0A 5D F2 | 	cmps	_var01, #0 wcz
02540     D4 00 90 ED |  if_be	jmp	#LR__0108
02544                 | '     repeat i from 0 to timings[6]-1 '0 to -1
02544     00 0E 05 F6 | 	mov	_var03, #0
02548     68 F2 04 F1 | 	add	objptr, #104
0254c     79 3A 01 FB | 	rdlong	_var25, objptr
02550     68 F2 84 F1 | 	sub	objptr, #104
02554     01 3A 85 F1 | 	sub	_var25, #1
02558     00 3A 5D F2 | 	cmps	_var25, #0 wcz
0255c     01 12 05 16 |  if_a	mov	_var05, #1
02560     01 12 65 E6 |  if_be	neg	_var05, #1
02564     89 3C 01 F6 | 	mov	_var26, _var05
02568     89 3A 01 F1 | 	add	_var25, _var05
0256c     B8 DA 9F FE | 	loc	pa,	#(@LR__0105-@LR__0104)
02570     35 00 A0 FD | 	call	#FCACHE_LOAD_
02574                 | LR__0104
02574                 | '       long[dl_ptr+4*i]:=$0
02574     1C F2 04 F1 | 	add	objptr, #28
02578     79 16 01 FB | 	rdlong	_var07, objptr
0257c     1C F2 84 F1 | 	sub	objptr, #28
02580     87 18 01 F6 | 	mov	_var08, _var03
02584     02 18 65 F0 | 	shl	_var08, #2
02588     8C 16 01 F1 | 	add	_var07, _var08
0258c     8B 00 68 FC | 	wrlong	#0, _var07
02590     9E 0E 01 F1 | 	add	_var03, _var26
02594     9D 0E 09 F2 | 	cmp	_var03, _var25 wz
02598     D8 FF 9F 5D |  if_ne	jmp	#LR__0104
0259c                 | LR__0105
0259c                 | '     repeat i from timings[6]+timings[12] to timings[15]-1
0259c     68 F2 04 F1 | 	add	objptr, #104
025a0     79 0E 01 FB | 	rdlong	_var03, objptr
025a4     18 F2 04 F1 | 	add	objptr, #24
025a8     79 12 01 FB | 	rdlong	_var05, objptr
025ac     89 0E 01 F1 | 	add	_var03, _var05
025b0     0C F2 04 F1 | 	add	objptr, #12
025b4     79 3E 01 FB | 	rdlong	_var27, objptr
025b8     01 3E 85 F1 | 	sub	_var27, #1
025bc     24 F2 84 F1 | 	sub	objptr, #36
025c0     79 1C 01 FB | 	rdlong	_var10, objptr
025c4     18 F2 04 F1 | 	add	objptr, #24
025c8     79 1E 01 FB | 	rdlong	_var11, objptr
025cc     80 F2 84 F1 | 	sub	objptr, #128
025d0     8F 1C 01 F1 | 	add	_var10, _var11
025d4     8E 3E 59 F2 | 	cmps	_var27, _var10 wcz
025d8     01 18 05 16 |  if_a	mov	_var08, #1
025dc     01 18 65 E6 |  if_be	neg	_var08, #1
025e0     8C 40 01 F6 | 	mov	_var28, _var08
025e4     8C 3E 01 F1 | 	add	_var27, _var08
025e8     3C DA 9F FE | 	loc	pa,	#(@LR__0107-@LR__0106)
025ec     35 00 A0 FD | 	call	#FCACHE_LOAD_
025f0                 | LR__0106
025f0                 | '       long[dl_ptr+4*i]:=$0
025f0     1C F2 04 F1 | 	add	objptr, #28
025f4     79 22 01 FB | 	rdlong	_var13, objptr
025f8     1C F2 84 F1 | 	sub	objptr, #28
025fc     87 24 01 F6 | 	mov	_var14, _var03
02600     02 24 65 F0 | 	shl	_var14, #2
02604     92 22 01 F1 | 	add	_var13, _var14
02608     91 00 68 FC | 	wrlong	#0, _var13
0260c     A0 0E 01 F1 | 	add	_var03, _var28
02610     9F 0E 09 F2 | 	cmp	_var03, _var27 wz
02614     D8 FF 9F 5D |  if_ne	jmp	#LR__0106
02618                 | LR__0107
02618                 | LR__0108
02618                 | '   repeat i from timings[6] to timings[6]+timings[12]-1
02618     68 F2 04 F1 | 	add	objptr, #104
0261c     79 0E 01 FB | 	rdlong	_var03, objptr
02620     87 42 01 F6 | 	mov	_var29, _var03
02624     18 F2 04 F1 | 	add	objptr, #24
02628     79 2A 01 FB | 	rdlong	_var17, objptr
0262c     95 42 01 F1 | 	add	_var29, _var17
02630     01 42 85 F1 | 	sub	_var29, #1
02634     18 F2 84 F1 | 	sub	objptr, #24
02638     79 18 01 FB | 	rdlong	_var08, objptr
0263c     68 F2 84 F1 | 	sub	objptr, #104
02640     8C 42 59 F2 | 	cmps	_var29, _var08 wcz
02644     01 2C 05 16 |  if_a	mov	_var18, #1
02648     01 2C 65 E6 |  if_be	neg	_var18, #1
0264c     96 44 01 F6 | 	mov	_var30, _var18
02650     96 42 01 F1 | 	add	_var29, _var18
02654     24 DA 9F FE | 	loc	pa,	#(@LR__0110-@LR__0109)
02658     35 00 A0 FD | 	call	#FCACHE_LOAD_
0265c                 | LR__0109
0265c                 | '     bufstart:=buf_ptr+4*(cpl*((i-timings[6])>>vzoom))+(mode&3)
0265c     79 1E 01 FB | 	rdlong	_var11, objptr
02660     87 34 01 F6 | 	mov	_var22, _var03
02664     68 F2 04 F1 | 	add	objptr, #104
02668     79 30 01 FB | 	rdlong	_var20, objptr
0266c     98 34 81 F1 | 	sub	_var22, _var20
02670     86 34 41 F0 | 	shr	_var22, _var02
02674     28 F2 04 F1 | 	add	objptr, #40
02678     79 24 01 FB | 	rdlong	_var14, objptr
0267c     9A 24 01 FD | 	qmul	_var14, _var22
02680     18 46 61 FD | 	getqx	_var31
02684     02 46 65 F0 | 	shl	_var31, #2
02688     A3 1E 01 F1 | 	add	_var11, _var31
0268c     A5 48 01 F6 | 	mov	_var32, arg01
02690     03 48 05 F5 | 	and	_var32, #3
02694     A4 1E 01 F1 | 	add	_var11, _var32
02698                 | '     long[dl_ptr+4*i]:=(bufstart<<12)+2+(mode &48)>>2
02698     0C 1E 65 F0 | 	shl	_var11, #12
0269c     02 1E 05 F1 | 	add	_var11, #2
026a0     A5 34 01 F6 | 	mov	_var22, arg01
026a4     30 34 05 F5 | 	and	_var22, #48
026a8     02 34 45 F0 | 	shr	_var22, #2
026ac     9A 1E 01 F1 | 	add	_var11, _var22
026b0     74 F2 84 F1 | 	sub	objptr, #116
026b4     79 30 01 FB | 	rdlong	_var20, objptr
026b8     1C F2 84 F1 | 	sub	objptr, #28
026bc     87 38 01 F6 | 	mov	_var24, _var03
026c0     02 38 65 F0 | 	shl	_var24, #2
026c4     9C 30 01 F1 | 	add	_var20, _var24
026c8     98 1E 61 FC | 	wrlong	_var11, _var20
026cc     A2 0E 01 F1 | 	add	_var03, _var30
026d0     A1 0E 09 F2 | 	cmp	_var03, _var29 wz
026d4     84 FF 9F 5D |  if_ne	jmp	#LR__0109
026d8                 | LR__0110
026d8                 | LR__0111
026d8                 | _makedl_ret
026d8     2D 00 64 FD | 	ret
026dc                 | 
026dc                 | ' 
026dc                 | ' 
026dc                 | ' pub maketestdl (mode) |i, fontline2,charline,bufstart,zoom1,vzoom,lpc,hzoom
026dc                 | _maketestdl
026dc                 | ' 
026dc                 | ' 
026dc                 | ' 
026dc                 | ' 
026dc                 | ' if (mode &256==0)
026dc     00 4B CD F7 | 	test	arg01, #256 wz
026e0     1C 00 90 5D |  if_ne	jmp	#LR__0112
026e4                 | '   dl_ptr:=buf_ptr-4*576-100
026e4     79 0A 01 FB | 	rdlong	_var01, objptr
026e8     04 00 00 FF 
026ec     64 0B 85 F1 | 	sub	_var01, ##2404
026f0     1C F2 04 F1 | 	add	objptr, #28
026f4     79 0A 61 FC | 	wrlong	_var01, objptr
026f8     1C F2 84 F1 | 	sub	objptr, #28
026fc                 | ' else
026fc     18 00 90 FD | 	jmp	#LR__0113
02700                 | LR__0112
02700                 | '   dl_ptr:=buf_ptr-4*496-100
02700     79 0A 01 FB | 	rdlong	_var01, objptr
02704     04 00 00 FF 
02708     24 0A 85 F1 | 	sub	_var01, ##2084
0270c     1C F2 04 F1 | 	add	objptr, #28
02710     79 0A 61 FC | 	wrlong	_var01, objptr
02714     1C F2 84 F1 | 	sub	objptr, #28
02718                 | LR__0113
02718                 | ' 
02718                 | ' vzoom:=((mode>>2) & 3)
02718                 | ' 
02718                 | ' if (mode>=512)' and (mode & (%10_00_00_0000))==(%10_00_00_0000) ' graphics -> all modes TODO :mode 560+192=752 = 10_11_11_0000 impossib,e because out of memory
02718     01 00 00 FF 
0271c     00 4A 5D F2 | 	cmps	arg01, ##512 wcz
02720     2C 01 90 CD |  if_b	jmp	#LR__0119
02724                 | ' 
02724                 | '   if timings[6]>0 'borders
02724     68 F2 04 F1 | 	add	objptr, #104
02728     79 0A 01 FB | 	rdlong	_var01, objptr
0272c     68 F2 84 F1 | 	sub	objptr, #104
02730     00 0A 5D F2 | 	cmps	_var01, #0 wcz
02734     18 01 90 ED |  if_be	jmp	#LR__0118
02738                 | '     repeat i from 0 to timings[6]-1 '0 to -1
02738     00 0C 05 F6 | 	mov	_var02, #0
0273c     68 F2 04 F1 | 	add	objptr, #104
02740     79 0E 01 FB | 	rdlong	_var03, objptr
02744     68 F2 84 F1 | 	sub	objptr, #104
02748     01 0E 85 F1 | 	sub	_var03, #1
0274c     00 0E 5D F2 | 	cmps	_var03, #0 wcz
02750     01 10 05 16 |  if_a	mov	_var04, #1
02754     01 10 65 E6 |  if_be	neg	_var04, #1
02758     88 12 01 F6 | 	mov	_var05, _var04
0275c     88 0E 01 F1 | 	add	_var03, _var04
02760     C4 D8 9F FE | 	loc	pa,	#(@LR__0115-@LR__0114)
02764     35 00 A0 FD | 	call	#FCACHE_LOAD_
02768                 | LR__0114
02768                 | '       long[dl_ptr+4*i]:=$0
02768     1C F2 04 F1 | 	add	objptr, #28
0276c     79 14 01 FB | 	rdlong	_var06, objptr
02770     1C F2 84 F1 | 	sub	objptr, #28
02774     86 16 01 F6 | 	mov	_var07, _var02
02778     02 16 65 F0 | 	shl	_var07, #2
0277c     8B 14 01 F1 | 	add	_var06, _var07
02780     8A 00 68 FC | 	wrlong	#0, _var06
02784     89 0C 01 F1 | 	add	_var02, _var05
02788     87 0C 09 F2 | 	cmp	_var02, _var03 wz
0278c     D8 FF 9F 5D |  if_ne	jmp	#LR__0114
02790                 | LR__0115
02790                 | '     repeat i from timings[6] to timings[15]+20
02790     68 F2 04 F1 | 	add	objptr, #104
02794     79 0C 01 FB | 	rdlong	_var02, objptr
02798     24 F2 04 F1 | 	add	objptr, #36
0279c     79 18 01 FB | 	rdlong	_var08, objptr
027a0     14 18 05 F1 | 	add	_var08, #20
027a4     24 F2 84 F1 | 	sub	objptr, #36
027a8     79 14 01 FB | 	rdlong	_var06, objptr
027ac     68 F2 84 F1 | 	sub	objptr, #104
027b0     8A 18 59 F2 | 	cmps	_var08, _var06 wcz
027b4     01 1A 05 16 |  if_a	mov	_var09, #1
027b8     01 1A 65 E6 |  if_be	neg	_var09, #1
027bc     8D 1C 01 F6 | 	mov	_var10, _var09
027c0     8D 18 01 F1 | 	add	_var08, _var09
027c4     60 D8 9F FE | 	loc	pa,	#(@LR__0117-@LR__0116)
027c8     35 00 A0 FD | 	call	#FCACHE_LOAD_
027cc                 | LR__0116
027cc                 | '       long[dl_ptr+4*i]:=$0
027cc     1C F2 04 F1 | 	add	objptr, #28
027d0     79 1E 01 FB | 	rdlong	_var11, objptr
027d4     1C F2 84 F1 | 	sub	objptr, #28
027d8     86 20 01 F6 | 	mov	_var12, _var02
027dc     02 20 65 F0 | 	shl	_var12, #2
027e0     90 1E 01 F1 | 	add	_var11, _var12
027e4     8F 00 68 FC | 	wrlong	#0, _var11
027e8     8E 0C 01 F1 | 	add	_var02, _var10
027ec     8C 0C 09 F2 | 	cmp	_var02, _var08 wz
027f0     D8 FF 9F 5D |  if_ne	jmp	#LR__0116
027f4                 | LR__0117
027f4                 | '     i:=timings[6]
027f4     68 F2 04 F1 | 	add	objptr, #104
027f8     79 14 01 FB | 	rdlong	_var06, objptr
027fc                 | '       long[dl_ptr+4*i]:=%0001_1110_0000_0000_0011_0010_0000_0111  
027fc     4C F2 84 F1 | 	sub	objptr, #76
02800     79 0A 01 FB | 	rdlong	_var01, objptr
02804     1C F2 84 F1 | 	sub	objptr, #28
02808     8A 10 01 F6 | 	mov	_var04, _var06
0280c     02 10 65 F0 | 	shl	_var04, #2
02810     88 0A 01 F1 | 	add	_var01, _var04
02814     19 00 8F FF 
02818     85 0E 68 FC | 	wrlong	##503329287, _var01
0281c                 | '       long[dl_ptr+4*i+4]:=(buf_ptr<<12)+2+(mode &48)>>2
0281c     79 0A 01 FB | 	rdlong	_var01, objptr
02820     0C 0A 65 F0 | 	shl	_var01, #12
02824     02 0A 05 F1 | 	add	_var01, #2
02828     30 4A 05 F5 | 	and	arg01, #48
0282c     02 4A 45 F0 | 	shr	arg01, #2
02830     A5 0A 01 F1 | 	add	_var01, arg01
02834     1C F2 04 F1 | 	add	objptr, #28
02838     79 10 01 FB | 	rdlong	_var04, objptr
0283c     1C F2 84 F1 | 	sub	objptr, #28
02840     02 14 65 F0 | 	shl	_var06, #2
02844     8A 10 01 F1 | 	add	_var04, _var06
02848     04 10 05 F1 | 	add	_var04, #4
0284c     88 0A 61 FC | 	wrlong	_var01, _var04
02850                 | LR__0118
02850                 | LR__0119
02850                 | _maketestdl_ret
02850     2D 00 64 FD | 	ret
02854                 | 
02854                 | '       
02854                 | ' '--------- Start the driver with graphics mode 'mode' at pins 'base'
02854                 | ' 
02854                 | ' pub start(mode,base):result
02854                 | _start
02854     04 88 04 F6 | 	mov	COUNT_, #4
02858     4B 00 A0 FD | 	call	#pushregs_
0285c     A5 54 01 F6 | 	mov	local01, arg01
02860                 | ' 
02860                 | ' ' initialize pointers and variables
02860                 | ' 
02860                 | ' border_ptr:=@bordercolor
02860     2C F2 04 F1 | 	add	objptr, #44
02864     79 56 01 F6 | 	mov	local02, objptr
02868     24 F2 84 F1 | 	sub	objptr, #36
0286c     79 56 61 FC | 	wrlong	local02, objptr
02870                 | ' font_ptr:=@st_font
02870     08 00 00 FF 
02874     00 F8 04 F1 | 	add	ptr__dat__, ##4096
02878     04 F2 84 F1 | 	sub	objptr, #4
0287c     79 F8 60 FC | 	wrlong	ptr__dat__, objptr
02880                 | ' hdmibase:=base
02880     20 F2 04 F1 | 	add	objptr, #32
02884     79 4C 61 FC | 	wrlong	arg02, objptr
02888     24 F2 84 F1 | 	sub	objptr, #36
0288c                 | ' p1:=@putpixel1
0288c     79 4A 01 F6 | 	mov	arg01, objptr
02890     7D 4C 01 F6 | 	mov	arg02, ptr__putpixel1_
02894     08 00 00 FF 
02898     00 F8 84 F1 | 	sub	ptr__dat__, ##4096
0289c     60 03 B0 FD | 	call	#__system___make_methodptr
028a0     82 58 01 F6 | 	mov	local03, result1
028a4     DC F2 04 F1 | 	add	objptr, #220
028a8     79 58 61 FC | 	wrlong	local03, objptr
028ac     DC F2 84 F1 | 	sub	objptr, #220
028b0                 | ' p2:=@putpixel2
028b0     79 4A 01 F6 | 	mov	arg01, objptr
028b4     7E 4C 01 F6 | 	mov	arg02, ptr__putpixel2_
028b8     44 03 B0 FD | 	call	#__system___make_methodptr
028bc     82 58 01 F6 | 	mov	local03, result1
028c0     E0 F2 04 F1 | 	add	objptr, #224
028c4     79 58 61 FC | 	wrlong	local03, objptr
028c8     E0 F2 84 F1 | 	sub	objptr, #224
028cc                 | ' p4:=@putpixel4
028cc     79 4A 01 F6 | 	mov	arg01, objptr
028d0     7F 4C 01 F6 | 	mov	arg02, ptr__putpixel4_
028d4     28 03 B0 FD | 	call	#__system___make_methodptr
028d8     82 58 01 F6 | 	mov	local03, result1
028dc     E4 F2 04 F1 | 	add	objptr, #228
028e0     79 58 61 FC | 	wrlong	local03, objptr
028e4     E4 F2 84 F1 | 	sub	objptr, #228
028e8                 | ' p8:=@putpixel8
028e8     79 4A 01 F6 | 	mov	arg01, objptr
028ec     80 4C 01 F6 | 	mov	arg02, ptr__putpixel8_
028f0     0C 03 B0 FD | 	call	#__system___make_methodptr
028f4     82 58 01 F6 | 	mov	local03, result1
028f8     E8 F2 04 F1 | 	add	objptr, #232
028fc     79 58 61 FC | 	wrlong	local03, objptr
02900     E8 F2 84 F1 | 	sub	objptr, #232
02904                 | ' 
02904                 | ' 
02904                 | ' ' the mode has to be set here to enable computing the buffer length
02904                 | ' 
02904                 | ' setmode(mode)
02904     AA 4A 01 F6 | 	mov	arg01, local01
02908     18 F4 BF FD | 	call	#_setmode
0290c                 | ' 
0290c                 | ' vblank_ptr:=@vblank
0290c     40 F2 04 F1 | 	add	objptr, #64
02910     79 56 01 F6 | 	mov	local02, objptr
02914     34 F2 84 F1 | 	sub	objptr, #52
02918     79 56 61 FC | 	wrlong	local02, objptr
0291c                 | ' cursor_ptr:=@cursor_x
0291c     28 F2 04 F1 | 	add	objptr, #40
02920     79 56 01 F6 | 	mov	local02, objptr
02924     24 F2 84 F1 | 	sub	objptr, #36
02928     79 56 61 FC | 	wrlong	local02, objptr
0292c                 | ' 
0292c                 | ' fontnum_ptr:=@fontnum
0292c     88 F2 04 F1 | 	add	objptr, #136
02930     79 56 01 F6 | 	mov	local02, objptr
02934     78 F2 84 F1 | 	sub	objptr, #120
02938     79 56 61 FC | 	wrlong	local02, objptr
0293c                 | ' 
0293c                 | ' fontnum:=0  ' PC type font ' TODO: font# in buffer byte #1
0293c     78 F2 04 F1 | 	add	objptr, #120
02940     79 00 68 FC | 	wrlong	#0, objptr
02944                 | ' bytemove(@colors,@vgacolors,16)
02944     1C F2 04 F1 | 	add	objptr, #28
02948     79 4A 01 F6 | 	mov	arg01, objptr
0294c     B4 F2 84 F1 | 	sub	objptr, #180
02950     0F 00 00 FF 
02954     58 F8 04 F1 | 	add	ptr__dat__, ##7768
02958     7C 4C 01 F6 | 	mov	arg02, ptr__dat__
0295c     0F 00 00 FF 
02960     58 F8 84 F1 | 	sub	ptr__dat__, ##7768
02964     10 4E 05 F6 | 	mov	arg03, #16
02968     8C 01 B0 FD | 	call	#__system__bytemove
0296c                 | ' 
0296c                 | ' ' initialize a cursor
0296c                 | ' 
0296c                 | ' cursor_x:=0
0296c     34 F2 04 F1 | 	add	objptr, #52
02970     79 00 48 FC | 	wrbyte	#0, objptr
02974                 | ' cursor_y:=0
02974     01 F2 04 F1 | 	add	objptr, #1
02978     79 00 48 FC | 	wrbyte	#0, objptr
0297c                 | ' cursor_sh:=14
0297c     01 F2 04 F1 | 	add	objptr, #1
02980     79 1C 48 FC | 	wrbyte	#14, objptr
02984     36 F2 84 F1 | 	sub	objptr, #54
02988                 | ' 
02988                 | ' 
02988                 | ' ' start the cog
02988                 | ' 
02988                 | ' cog:=coginit(16,@hdmi, @buf_ptr)
02988     0F 00 00 FF 
0298c     68 F8 04 F1 | 	add	ptr__dat__, ##7784
02990     7C 4C 01 F6 | 	mov	arg02, ptr__dat__
02994     0F 00 00 FF 
02998     68 F8 84 F1 | 	sub	ptr__dat__, ##7784
0299c     79 4E 01 F6 | 	mov	arg03, objptr
029a0     10 4A 05 F6 | 	mov	arg01, #16
029a4     28 4E 61 FD | 	setq	arg03
029a8     A6 4A F1 FC | 	coginit	arg01, arg02 wc
029ac     01 4A 65 C6 |  if_b	neg	arg01, #1
029b0     A5 04 01 F6 | 	mov	result1, arg01
029b4     82 5A 01 F6 | 	mov	local04, result1
029b8     28 F2 04 F1 | 	add	objptr, #40
029bc     79 5A 61 FC | 	wrlong	local04, objptr
029c0     28 F2 84 F1 | 	sub	objptr, #40
029c4                 | ' waitms(20)
029c4     14 4A 05 F6 | 	mov	arg01, #20
029c8     1C 03 B0 FD | 	call	#__system___waitms
029cc                 | ' 
029cc                 | ' ' clear the screen and set the colors to green on black
029cc                 | ' 
029cc                 | ' cls(c_green,c_black)
029cc     C7 4A 05 F6 | 	mov	arg01, #199
029d0     00 4C 05 F6 | 	mov	arg02, #0
029d4     EC F0 BF FD | 	call	#_cls
029d8                 | ' setbordercolor(0,0,128)
029d8     00 4A 05 F6 | 	mov	arg01, #0
029dc     00 4C 05 F6 | 	mov	arg02, #0
029e0     80 4E 05 F6 | 	mov	arg03, #128
029e4     B8 F0 BF FD | 	call	#_setbordercolor
029e8                 | ' setwritecolors(c_green,c_black)
029e8                 | ' 
029e8                 | ' 
029e8                 | ' write_color:=ff
029e8     38 F2 04 F1 | 	add	objptr, #56
029ec     79 8E 69 FC | 	wrlong	#199, objptr
029f0                 | ' write_background:=bb
029f0     04 F2 04 F1 | 	add	objptr, #4
029f4     79 00 68 FC | 	wrlong	#0, objptr
029f8                 | ' 
029f8                 | ' return cog
029f8     14 F2 84 F1 | 	sub	objptr, #20
029fc     79 04 01 FB | 	rdlong	result1, objptr
02a00     28 F2 84 F1 | 	sub	objptr, #40
02a04     46 F0 03 F6 | 	mov	ptra, fp
02a08     5A 00 A0 FD | 	call	#popregs_
02a0c                 | _start_ret
02a0c     2D 00 64 FD | 	ret
02a10                 | hubexit
02a10     23 00 80 FD | 	jmp	#cogexit
02a14                 | 
02a14                 | __system___setbaud
02a14     14 78 05 FB | 	rdlong	muldiva_, #20
02a18     A5 7A 01 F6 | 	mov	muldivb_, arg01
02a1c     6B 00 A0 FD | 	call	#divide_
02a20     40 7C 64 FD | 	dirl	#62
02a24     40 7E 64 FD | 	dirl	#63
02a28     7B 7A 61 FC | 	wrlong	muldivb_, ptr___system__dat__
02a2c     10 7A 65 F0 | 	shl	muldivb_, #16
02a30     07 4C 05 F6 | 	mov	arg02, #7
02a34     BD 4C 01 F1 | 	add	arg02, muldivb_
02a38     3E F8 0C FC | 	wrpin	#124, #62
02a3c     3E 4C 15 FC | 	wxpin	arg02, #62
02a40     3F 7C 0C FC | 	wrpin	#62, #63
02a44     14 4C 05 F1 | 	add	arg02, #20
02a48     3F 4C 15 FC | 	wxpin	arg02, #63
02a4c     41 7C 64 FD | 	dirh	#62
02a50     41 7E 64 FD | 	dirh	#63
02a54                 | __system___setbaud_ret
02a54     2D 00 64 FD | 	ret
02a58                 | 
02a58                 | __system___txraw
02a58     02 88 04 F6 | 	mov	COUNT_, #2
02a5c     4B 00 A0 FD | 	call	#pushregs_
02a60     A5 54 01 F6 | 	mov	local01, arg01
02a64     7B 56 09 FB | 	rdlong	local02, ptr___system__dat__ wz
02a68     0C 00 90 5D |  if_ne	jmp	#LR__0120
02a6c     C2 01 00 FF 
02a70     00 4A 05 F6 | 	mov	arg01, ##230400
02a74     9C FF BF FD | 	call	#__system___setbaud
02a78                 | LR__0120
02a78     3E 54 25 FC | 	wypin	local01, #62
02a7c     1F 02 64 FD | 	waitx	#1
02a80     84 D5 9F FE | 	loc	pa,	#(@LR__0122-@LR__0121)
02a84     35 00 A0 FD | 	call	#FCACHE_LOAD_
02a88                 | LR__0121
02a88     40 7C 74 FD | 	testp	#62 wc
02a8c     F8 FF 9F 3D |  if_nc	jmp	#LR__0121
02a90                 | LR__0122
02a90     01 04 05 F6 | 	mov	result1, #1
02a94     46 F0 03 F6 | 	mov	ptra, fp
02a98     5A 00 A0 FD | 	call	#popregs_
02a9c                 | __system___txraw_ret
02a9c     2D 00 64 FD | 	ret
02aa0                 | 
02aa0                 | __system__bytefill
02aa0     A6 0A 01 F6 | 	mov	_var01, arg02
02aa4     08 0A 65 F0 | 	shl	_var01, #8
02aa8     A6 0A 41 F5 | 	or	_var01, arg02
02aac     85 0C 01 F6 | 	mov	_var02, _var01
02ab0     10 0C 65 F0 | 	shl	_var02, #16
02ab4     85 0C 41 F5 | 	or	_var02, _var01
02ab8     5C D5 9F FE | 	loc	pa,	#(@LR__0124-@LR__0123)
02abc     35 00 A0 FD | 	call	#FCACHE_LOAD_
02ac0                 | LR__0123
02ac0     03 4E 5D F2 | 	cmps	arg03, #3 wcz
02ac4     10 00 90 ED |  if_be	jmp	#LR__0125
02ac8     A5 0C 61 FC | 	wrlong	_var02, arg01
02acc     04 4A 05 F1 | 	add	arg01, #4
02ad0     04 4E 85 F1 | 	sub	arg03, #4
02ad4     E8 FF 9F FD | 	jmp	#LR__0123
02ad8                 | LR__0124
02ad8                 | LR__0125
02ad8     00 4E 0D F2 | 	cmp	arg03, #0 wz
02adc     14 00 90 AD |  if_e	jmp	#LR__0130
02ae0     28 D5 9F FE | 	loc	pa,	#(@LR__0128-@LR__0126)
02ae4     35 00 A0 FD | 	call	#FCACHE_LOAD_
02ae8                 | LR__0126
02ae8     A7 04 D8 FC | 	rep	@LR__0129, arg03
02aec                 | LR__0127
02aec     A5 4C 41 FC | 	wrbyte	arg02, arg01
02af0     01 4A 05 F1 | 	add	arg01, #1
02af4                 | LR__0128
02af4                 | LR__0129
02af4                 | LR__0130
02af4                 | __system__bytefill_ret
02af4     2D 00 64 FD | 	ret
02af8                 | 
02af8                 | __system__bytemove
02af8     A5 0A 01 F6 | 	mov	_var01, arg01
02afc     A6 4A 59 F2 | 	cmps	arg01, arg02 wcz
02b00     50 00 90 3D |  if_ae	jmp	#LR__0138
02b04     18 D5 9F FE | 	loc	pa,	#(@LR__0132-@LR__0131)
02b08     35 00 A0 FD | 	call	#FCACHE_LOAD_
02b0c                 | LR__0131
02b0c     03 4E 5D F2 | 	cmps	arg03, #3 wcz
02b10     18 00 90 ED |  if_be	jmp	#LR__0133
02b14     A6 0C 01 FB | 	rdlong	_var02, arg02
02b18     A5 0C 61 FC | 	wrlong	_var02, arg01
02b1c     04 4A 05 F1 | 	add	arg01, #4
02b20     04 4C 05 F1 | 	add	arg02, #4
02b24     04 4E 85 F1 | 	sub	arg03, #4
02b28     E0 FF 9F FD | 	jmp	#LR__0131
02b2c                 | LR__0132
02b2c                 | LR__0133
02b2c     A7 0E 09 F6 | 	mov	_var03, arg03 wz
02b30     4C 00 90 AD |  if_e	jmp	#LR__0144
02b34     DC D4 9F FE | 	loc	pa,	#(@LR__0136-@LR__0134)
02b38     35 00 A0 FD | 	call	#FCACHE_LOAD_
02b3c                 | LR__0134
02b3c     87 08 D8 FC | 	rep	@LR__0137, _var03
02b40                 | LR__0135
02b40     A6 0C C1 FA | 	rdbyte	_var02, arg02
02b44     A5 0C 41 FC | 	wrbyte	_var02, arg01
02b48     01 4A 05 F1 | 	add	arg01, #1
02b4c     01 4C 05 F1 | 	add	arg02, #1
02b50                 | LR__0136
02b50                 | LR__0137
02b50     2C 00 90 FD | 	jmp	#LR__0144
02b54                 | LR__0138
02b54     A7 4A 01 F1 | 	add	arg01, arg03
02b58     A7 4C 01 F1 | 	add	arg02, arg03
02b5c     A7 10 09 F6 | 	mov	_var04, arg03 wz
02b60     1C 00 90 AD |  if_e	jmp	#LR__0143
02b64     AC D4 9F FE | 	loc	pa,	#(@LR__0141-@LR__0139)
02b68     35 00 A0 FD | 	call	#FCACHE_LOAD_
02b6c                 | LR__0139
02b6c     88 08 D8 FC | 	rep	@LR__0142, _var04
02b70                 | LR__0140
02b70     01 4A 85 F1 | 	sub	arg01, #1
02b74     01 4C 85 F1 | 	sub	arg02, #1
02b78     A6 0C C1 FA | 	rdbyte	_var02, arg02
02b7c     A5 0C 41 FC | 	wrbyte	_var02, arg01
02b80                 | LR__0141
02b80                 | LR__0142
02b80                 | LR__0143
02b80                 | LR__0144
02b80     85 04 01 F6 | 	mov	result1, _var01
02b84                 | __system__bytemove_ret
02b84     2D 00 64 FD | 	ret
02b88                 | 
02b88                 | __system__longmove
02b88     A5 0A 01 F6 | 	mov	_var01, arg01
02b8c     A6 4A 59 F2 | 	cmps	arg01, arg02 wcz
02b90     28 00 90 3D |  if_ae	jmp	#LR__0149
02b94     A7 0C 09 F6 | 	mov	_var02, arg03 wz
02b98     5C 00 90 AD |  if_e	jmp	#LR__0155
02b9c     74 D4 9F FE | 	loc	pa,	#(@LR__0147-@LR__0145)
02ba0     35 00 A0 FD | 	call	#FCACHE_LOAD_
02ba4                 | LR__0145
02ba4     86 08 D8 FC | 	rep	@LR__0148, _var02
02ba8                 | LR__0146
02ba8     A6 0E 01 FB | 	rdlong	_var03, arg02
02bac     A5 0E 61 FC | 	wrlong	_var03, arg01
02bb0     04 4A 05 F1 | 	add	arg01, #4
02bb4     04 4C 05 F1 | 	add	arg02, #4
02bb8                 | LR__0147
02bb8                 | LR__0148
02bb8     3C 00 90 FD | 	jmp	#LR__0155
02bbc                 | LR__0149
02bbc     A7 10 01 F6 | 	mov	_var04, arg03
02bc0     02 10 65 F0 | 	shl	_var04, #2
02bc4     88 4A 01 F1 | 	add	arg01, _var04
02bc8     A7 10 01 F6 | 	mov	_var04, arg03
02bcc     02 10 65 F0 | 	shl	_var04, #2
02bd0     88 4C 01 F1 | 	add	arg02, _var04
02bd4     A7 12 09 F6 | 	mov	_var05, arg03 wz
02bd8     1C 00 90 AD |  if_e	jmp	#LR__0154
02bdc     34 D4 9F FE | 	loc	pa,	#(@LR__0152-@LR__0150)
02be0     35 00 A0 FD | 	call	#FCACHE_LOAD_
02be4                 | LR__0150
02be4     89 08 D8 FC | 	rep	@LR__0153, _var05
02be8                 | LR__0151
02be8     04 4A 85 F1 | 	sub	arg01, #4
02bec     04 4C 85 F1 | 	sub	arg02, #4
02bf0     A6 0E 01 FB | 	rdlong	_var03, arg02
02bf4     A5 0E 61 FC | 	wrlong	_var03, arg01
02bf8                 | LR__0152
02bf8                 | LR__0153
02bf8                 | LR__0154
02bf8                 | LR__0155
02bf8     85 04 01 F6 | 	mov	result1, _var01
02bfc                 | __system__longmove_ret
02bfc     2D 00 64 FD | 	ret
02c00                 | 
02c00                 | __system___make_methodptr
02c00     04 88 04 F6 | 	mov	COUNT_, #4
02c04     4B 00 A0 FD | 	call	#pushregs_
02c08     A5 54 01 F6 | 	mov	local01, arg01
02c0c     A6 56 01 F6 | 	mov	local02, arg02
02c10     08 4A 05 F6 | 	mov	arg01, #8
02c14     78 04 B0 FD | 	call	#__system___gc_alloc_managed
02c18     82 58 09 F6 | 	mov	local03, result1 wz
02c1c     10 00 90 AD |  if_e	jmp	#LR__0156
02c20     AC 54 61 FC | 	wrlong	local01, local03
02c24     AC 5A 01 F6 | 	mov	local04, local03
02c28     04 5A 05 F1 | 	add	local04, #4
02c2c     AD 56 61 FC | 	wrlong	local02, local04
02c30                 | LR__0156
02c30     AC 04 01 F6 | 	mov	result1, local03
02c34     46 F0 03 F6 | 	mov	ptra, fp
02c38     5A 00 A0 FD | 	call	#popregs_
02c3c                 | __system___make_methodptr_ret
02c3c     2D 00 64 FD | 	ret
02c40                 | 
02c40                 | __system___tx
02c40     02 88 04 F6 | 	mov	COUNT_, #2
02c44     4B 00 A0 FD | 	call	#pushregs_
02c48     A5 54 01 F6 | 	mov	local01, arg01
02c4c     0A 54 0D F2 | 	cmp	local01, #10 wz
02c50     20 00 90 5D |  if_ne	jmp	#LR__0157
02c54     08 F6 04 F1 | 	add	ptr___system__dat__, #8
02c58     7B 56 01 FB | 	rdlong	local02, ptr___system__dat__
02c5c     08 F6 84 F1 | 	sub	ptr___system__dat__, #8
02c60     02 56 CD F7 | 	test	local02, #2 wz
02c64     0C 00 90 AD |  if_e	jmp	#LR__0157
02c68     0D 56 05 F6 | 	mov	local02, #13
02c6c     0D 4A 05 F6 | 	mov	arg01, #13
02c70     E4 FD BF FD | 	call	#__system___txraw
02c74                 | LR__0157
02c74     AA 4A 01 F6 | 	mov	arg01, local01
02c78     DC FD BF FD | 	call	#__system___txraw
02c7c     46 F0 03 F6 | 	mov	ptra, fp
02c80     5A 00 A0 FD | 	call	#popregs_
02c84                 | __system___tx_ret
02c84     2D 00 64 FD | 	ret
02c88                 | 
02c88                 | __system___lockmem
02c88     02 88 04 F6 | 	mov	COUNT_, #2
02c8c     4B 00 A0 FD | 	call	#pushregs_
02c90     A5 54 01 F6 | 	mov	local01, arg01
02c94     A8 D3 9F FE | 	loc	pa,	#(@LR__0160-@LR__0158)
02c98     35 00 A0 FD | 	call	#FCACHE_LOAD_
02c9c                 | LR__0158
02c9c                 | LR__0159
02c9c     FF FF 7F FF 
02ca0     FD 4B 05 FB | 	rdlong	arg01, ##-3
02ca4     06 4A 71 FD | 	locktry	arg01 wc
02ca8     FF FF 7F FF 
02cac     FF 05 A5 F5 | 	muxnc	result1, ##-1
02cb0     00 04 0D F2 | 	cmp	result1, #0 wz
02cb4     E4 FF 9F 5D |  if_ne	jmp	#LR__0159
02cb8     AA 56 C9 FA | 	rdbyte	local02, local01 wz
02cbc     AA 02 48 AC |  if_e	wrbyte	#1, local01
02cc0     FF FF 7F FF 
02cc4     FD 4B 05 FB | 	rdlong	arg01, ##-3
02cc8     07 4A 71 FD | 	lockrel	arg01 wc
02ccc     FF FF 7F FF 
02cd0     FF 05 85 F5 | 	muxc	result1, ##-1
02cd4     00 56 0D F2 | 	cmp	local02, #0 wz
02cd8     C0 FF 9F 5D |  if_ne	jmp	#LR__0158
02cdc                 | LR__0160
02cdc     46 F0 03 F6 | 	mov	ptra, fp
02ce0     5A 00 A0 FD | 	call	#popregs_
02ce4                 | __system___lockmem_ret
02ce4     2D 00 64 FD | 	ret
02ce8                 | 
02ce8                 | __system___waitms
02ce8     02 88 04 F6 | 	mov	COUNT_, #2
02cec     4B 00 A0 FD | 	call	#pushregs_
02cf0     A5 54 01 F6 | 	mov	local01, arg01
02cf4     14 56 05 FB | 	rdlong	local02, #20
02cf8     1C D3 9F FE | 	loc	pa,	#(@LR__0162-@LR__0161)
02cfc     35 00 A0 FD | 	call	#FCACHE_LOAD_
02d00                 | LR__0161
02d00     01 00 00 FF 
02d04     E8 55 5D F2 | 	cmps	local01, ##1000 wcz
02d08     1F 56 61 1D |  if_a	waitx	local02
02d0c     01 00 00 1F 
02d10     E8 55 85 11 |  if_a	sub	local01, ##1000
02d14     E8 FF 9F 1D |  if_a	jmp	#LR__0161
02d18                 | LR__0162
02d18     00 54 5D F2 | 	cmps	local01, #0 wcz
02d1c     1C 00 90 ED |  if_be	jmp	#LR__0163
02d20     AB 78 01 F6 | 	mov	muldiva_, local02
02d24     01 00 00 FF 
02d28     E8 7B 05 F6 | 	mov	muldivb_, ##1000
02d2c     6B 00 A0 FD | 	call	#divide_
02d30     BD 54 01 FD | 	qmul	local01, muldivb_
02d34     18 4A 61 FD | 	getqx	arg01
02d38     1F 4A 61 FD | 	waitx	arg01
02d3c                 | LR__0163
02d3c     46 F0 03 F6 | 	mov	ptra, fp
02d40     5A 00 A0 FD | 	call	#popregs_
02d44                 | __system___waitms_ret
02d44     2D 00 64 FD | 	ret
02d48                 | 
02d48                 | __system___waitus
02d48     02 88 04 F6 | 	mov	COUNT_, #2
02d4c     4B 00 A0 FD | 	call	#pushregs_
02d50     A5 54 01 F6 | 	mov	local01, arg01
02d54     14 56 05 FB | 	rdlong	local02, #20
02d58     BC D2 9F FE | 	loc	pa,	#(@LR__0165-@LR__0164)
02d5c     35 00 A0 FD | 	call	#FCACHE_LOAD_
02d60                 | LR__0164
02d60     A1 07 00 FF 
02d64     40 54 5D F2 | 	cmps	local01, ##1000000 wcz
02d68     1F 56 61 1D |  if_a	waitx	local02
02d6c     A1 07 00 1F 
02d70     40 54 85 11 |  if_a	sub	local01, ##1000000
02d74     E8 FF 9F 1D |  if_a	jmp	#LR__0164
02d78                 | LR__0165
02d78     00 54 5D F2 | 	cmps	local01, #0 wcz
02d7c     1C 00 90 ED |  if_be	jmp	#LR__0166
02d80     AB 78 01 F6 | 	mov	muldiva_, local02
02d84     A1 07 00 FF 
02d88     40 7A 05 F6 | 	mov	muldivb_, ##1000000
02d8c     6B 00 A0 FD | 	call	#divide_
02d90     BD 54 01 FD | 	qmul	local01, muldivb_
02d94     18 4A 61 FD | 	getqx	arg01
02d98     1F 4A 61 FD | 	waitx	arg01
02d9c                 | LR__0166
02d9c     46 F0 03 F6 | 	mov	ptra, fp
02da0     5A 00 A0 FD | 	call	#popregs_
02da4                 | __system___waitus_ret
02da4     2D 00 64 FD | 	ret
02da8                 | 
02da8                 | __system___gc_ptrs
02da8     75 0A 01 F6 | 	mov	_var01, __heap_ptr
02dac     85 0C 01 F6 | 	mov	_var02, _var01
02db0     07 00 00 FF 
02db4     F8 0D 05 F1 | 	add	_var02, ##4088
02db8     85 0E 09 FB | 	rdlong	_var03, _var01 wz
02dbc     74 00 90 5D |  if_ne	jmp	#LR__0167
02dc0     86 10 01 F6 | 	mov	_var04, _var02
02dc4     85 10 81 F1 | 	sub	_var04, _var01
02dc8     85 02 58 FC | 	wrword	#1, _var01
02dcc     85 0E 01 F6 | 	mov	_var03, _var01
02dd0     02 0E 05 F1 | 	add	_var03, #2
02dd4     36 00 80 FF 
02dd8     87 20 59 FC | 	wrword	##27792, _var03
02ddc     85 0E 01 F6 | 	mov	_var03, _var01
02de0     04 0E 05 F1 | 	add	_var03, #4
02de4     87 00 58 FC | 	wrword	#0, _var03
02de8     85 0E 01 F6 | 	mov	_var03, _var01
02dec     06 0E 05 F1 | 	add	_var03, #6
02df0     87 02 58 FC | 	wrword	#1, _var03
02df4     10 0A 05 F1 | 	add	_var01, #16
02df8     88 0E 51 F6 | 	abs	_var03, _var04 wc
02dfc     04 0E 45 F0 | 	shr	_var03, #4
02e00     87 0E 61 C6 |  if_b	neg	_var03, _var03
02e04     85 0E 51 FC | 	wrword	_var03, _var01
02e08     85 0E 01 F6 | 	mov	_var03, _var01
02e0c     02 0E 05 F1 | 	add	_var03, #2
02e10     36 00 80 FF 
02e14     87 1E 59 FC | 	wrword	##27791, _var03
02e18     85 0E 01 F6 | 	mov	_var03, _var01
02e1c     04 0E 05 F1 | 	add	_var03, #4
02e20     87 00 58 FC | 	wrword	#0, _var03
02e24     85 0E 01 F6 | 	mov	_var03, _var01
02e28     06 0E 05 F1 | 	add	_var03, #6
02e2c     87 00 58 FC | 	wrword	#0, _var03
02e30     10 0A 85 F1 | 	sub	_var01, #16
02e34                 | LR__0167
02e34     86 06 01 F6 | 	mov	result2, _var02
02e38     85 04 01 F6 | 	mov	result1, _var01
02e3c                 | __system___gc_ptrs_ret
02e3c     2D 00 64 FD | 	ret
02e40                 | 
02e40                 | __system___gc_nextBlockPtr
02e40     02 88 04 F6 | 	mov	COUNT_, #2
02e44     4B 00 A0 FD | 	call	#pushregs_
02e48     A5 54 01 F6 | 	mov	local01, arg01
02e4c     AA 56 E9 FA | 	rdword	local02, local01 wz
02e50     10 00 90 5D |  if_ne	jmp	#LR__0168
02e54     1B 00 00 FF 
02e58     A4 4A 05 F6 | 	mov	arg01, ##@LR__0211
02e5c     FC 01 B0 FD | 	call	#__system___gc_errmsg
02e60     0C 00 90 FD | 	jmp	#LR__0169
02e64                 | LR__0168
02e64     AA 04 01 F6 | 	mov	result1, local01
02e68     04 56 65 F0 | 	shl	local02, #4
02e6c     AB 04 01 F1 | 	add	result1, local02
02e70                 | LR__0169
02e70     46 F0 03 F6 | 	mov	ptra, fp
02e74     5A 00 A0 FD | 	call	#popregs_
02e78                 | __system___gc_nextBlockPtr_ret
02e78     2D 00 64 FD | 	ret
02e7c                 | 
02e7c                 | __system___gc_tryalloc
02e7c     0E 88 04 F6 | 	mov	COUNT_, #14
02e80     4B 00 A0 FD | 	call	#pushregs_
02e84     A5 54 01 F6 | 	mov	local01, arg01
02e88     A6 56 01 F6 | 	mov	local02, arg02
02e8c     18 FF BF FD | 	call	#__system___gc_ptrs
02e90     82 58 01 F6 | 	mov	local03, result1
02e94     83 5A 01 F6 | 	mov	local04, result2
02e98     AC 5C 01 F6 | 	mov	local05, local03
02e9c     00 5E 05 F6 | 	mov	local06, #0
02ea0     B0 D1 9F FE | 	loc	pa,	#(@LR__0171-@LR__0170)
02ea4     35 00 A0 FD | 	call	#FCACHE_LOAD_
02ea8                 | LR__0170
02ea8     AE 60 01 F6 | 	mov	local07, local05
02eac     AC 62 01 F6 | 	mov	local08, local03
02eb0     AE 64 01 F6 | 	mov	local09, local05
02eb4     06 64 05 F1 | 	add	local09, #6
02eb8     B2 66 E1 FA | 	rdword	local10, local09
02ebc     B1 4A 01 F6 | 	mov	arg01, local08
02ec0     B3 4C 09 F6 | 	mov	arg02, local10 wz
02ec4     00 04 05 A6 |  if_e	mov	result1, #0
02ec8     04 4C 65 50 |  if_ne	shl	arg02, #4
02ecc     A6 4A 01 51 |  if_ne	add	arg01, arg02
02ed0     A5 04 01 56 |  if_ne	mov	result1, arg01
02ed4     82 68 01 F6 | 	mov	local11, result1
02ed8     B4 5C 09 F6 | 	mov	local05, local11 wz
02edc     AE 62 01 56 |  if_ne	mov	local08, local05
02ee0     B1 5E E1 5A |  if_ne	rdword	local06, local08
02ee4     00 5C 0D F2 | 	cmp	local05, #0 wz
02ee8     10 00 90 AD |  if_e	jmp	#LR__0172
02eec     AD 5C 59 F2 | 	cmps	local05, local04 wcz
02ef0     08 00 90 3D |  if_ae	jmp	#LR__0172
02ef4     AF 54 59 F2 | 	cmps	local01, local06 wcz
02ef8     AC FF 9F 1D |  if_a	jmp	#LR__0170
02efc                 | LR__0171
02efc                 | LR__0172
02efc     00 5C 0D F2 | 	cmp	local05, #0 wz
02f00     AE 04 01 A6 |  if_e	mov	result1, local05
02f04     48 01 90 AD |  if_e	jmp	#LR__0175
02f08     AE 62 01 F6 | 	mov	local08, local05
02f0c     06 62 05 F1 | 	add	local08, #6
02f10     B1 6A E1 FA | 	rdword	local12, local08
02f14     AF 54 59 F2 | 	cmps	local01, local06 wcz
02f18     C8 00 90 3D |  if_ae	jmp	#LR__0174
02f1c     AE 54 51 FC | 	wrword	local01, local05
02f20     AE 4A 01 F6 | 	mov	arg01, local05
02f24     AA 64 01 F6 | 	mov	local09, local01
02f28     04 64 65 F0 | 	shl	local09, #4
02f2c     B2 4A 01 F1 | 	add	arg01, local09
02f30     AF 62 01 F6 | 	mov	local08, local06
02f34     AA 62 81 F1 | 	sub	local08, local01
02f38     A5 62 51 FC | 	wrword	local08, arg01
02f3c     A5 62 01 F6 | 	mov	local08, arg01
02f40     02 62 05 F1 | 	add	local08, #2
02f44     36 00 80 FF 
02f48     B1 1E 59 FC | 	wrword	##27791, local08
02f4c     AE 4C 09 F6 | 	mov	arg02, local05 wz
02f50     00 04 05 A6 |  if_e	mov	result1, #0
02f54     AC 4C 81 51 |  if_ne	sub	arg02, local03
02f58     04 4C 45 50 |  if_ne	shr	arg02, #4
02f5c     A6 04 01 56 |  if_ne	mov	result1, arg02
02f60     A5 68 01 F6 | 	mov	local11, arg01
02f64     04 68 05 F1 | 	add	local11, #4
02f68     B4 04 51 FC | 	wrword	result1, local11
02f6c     AE 62 01 F6 | 	mov	local08, local05
02f70     06 62 05 F1 | 	add	local08, #6
02f74     A5 64 01 F6 | 	mov	local09, arg01
02f78     B1 66 E1 FA | 	rdword	local10, local08
02f7c     06 64 05 F1 | 	add	local09, #6
02f80     B2 66 51 FC | 	wrword	local10, local09
02f84     A5 6C 01 F6 | 	mov	local13, arg01
02f88     B6 4C 09 F6 | 	mov	arg02, local13 wz
02f8c     00 04 05 A6 |  if_e	mov	result1, #0
02f90     AC 4C 81 51 |  if_ne	sub	arg02, local03
02f94     04 4C 45 50 |  if_ne	shr	arg02, #4
02f98     A6 04 01 56 |  if_ne	mov	result1, arg02
02f9c     82 6A 01 F6 | 	mov	local12, result1
02fa0     9C FE BF FD | 	call	#__system___gc_nextBlockPtr
02fa4     82 6E 09 F6 | 	mov	local14, result1 wz
02fa8     38 00 90 AD |  if_e	jmp	#LR__0173
02fac     AD 6E 59 F2 | 	cmps	local14, local04 wcz
02fb0     30 00 90 3D |  if_ae	jmp	#LR__0173
02fb4     AC 62 01 F6 | 	mov	local08, local03
02fb8     B6 64 01 F6 | 	mov	local09, local13
02fbc     B1 4A 01 F6 | 	mov	arg01, local08
02fc0     B2 4C 09 F6 | 	mov	arg02, local09 wz
02fc4     00 04 05 A6 |  if_e	mov	result1, #0
02fc8     A5 4C 81 51 |  if_ne	sub	arg02, arg01
02fcc     04 4C 45 50 |  if_ne	shr	arg02, #4
02fd0     A6 04 01 56 |  if_ne	mov	result1, arg02
02fd4     82 66 01 F6 | 	mov	local10, result1
02fd8     B7 68 01 F6 | 	mov	local11, local14
02fdc     04 68 05 F1 | 	add	local11, #4
02fe0     B4 66 51 FC | 	wrword	local10, local11
02fe4                 | LR__0173
02fe4                 | LR__0174
02fe4     06 60 05 F1 | 	add	local07, #6
02fe8     B0 6A 51 FC | 	wrword	local12, local07
02fec     36 00 00 FF 
02ff0     80 62 05 F6 | 	mov	local08, ##27776
02ff4     AB 62 41 F5 | 	or	local08, local02
02ff8     01 04 61 FD | 	cogid	result1
02ffc     82 62 41 F5 | 	or	local08, result1
03000     AE 66 01 F6 | 	mov	local10, local05
03004     02 66 05 F1 | 	add	local10, #2
03008     B3 62 51 FC | 	wrword	local08, local10
0300c     AC 62 01 F6 | 	mov	local08, local03
03010     08 62 05 F1 | 	add	local08, #8
03014     AE 64 01 F6 | 	mov	local09, local05
03018     B1 66 E1 FA | 	rdword	local10, local08
0301c     06 64 05 F1 | 	add	local09, #6
03020     B2 66 51 FC | 	wrword	local10, local09
03024     AE 4C 09 F6 | 	mov	arg02, local05 wz
03028     00 04 05 A6 |  if_e	mov	result1, #0
0302c     AC 4C 81 51 |  if_ne	sub	arg02, local03
03030     04 4C 45 50 |  if_ne	shr	arg02, #4
03034     A6 04 01 56 |  if_ne	mov	result1, arg02
03038     08 58 05 F1 | 	add	local03, #8
0303c     AC 04 51 FC | 	wrword	result1, local03
03040     08 5C 05 F1 | 	add	local05, #8
03044     AE 04 01 F6 | 	mov	result1, local05
03048     00 C0 31 FF 
0304c     00 04 45 F5 | 	or	result1, ##1669332992
03050                 | LR__0175
03050     46 F0 03 F6 | 	mov	ptra, fp
03054     5A 00 A0 FD | 	call	#popregs_
03058                 | __system___gc_tryalloc_ret
03058     2D 00 64 FD | 	ret
0305c                 | 
0305c                 | __system___gc_errmsg
0305c     02 88 04 F6 | 	mov	COUNT_, #2
03060     4B 00 A0 FD | 	call	#pushregs_
03064     A5 54 01 F6 | 	mov	local01, arg01
03068                 | LR__0176
03068     AA 56 C9 FA | 	rdbyte	local02, local01 wz
0306c     01 54 05 F1 | 	add	local01, #1
03070     0C 00 90 AD |  if_e	jmp	#LR__0177
03074     AB 4A 01 F6 | 	mov	arg01, local02
03078     C4 FB BF FD | 	call	#__system___tx
0307c     E8 FF 9F FD | 	jmp	#LR__0176
03080                 | LR__0177
03080     00 04 05 F6 | 	mov	result1, #0
03084     46 F0 03 F6 | 	mov	ptra, fp
03088     5A 00 A0 FD | 	call	#popregs_
0308c                 | __system___gc_errmsg_ret
0308c     2D 00 64 FD | 	ret
03090                 | 
03090                 | __system___gc_alloc_managed
03090     02 88 04 F6 | 	mov	COUNT_, #2
03094     4B 00 A0 FD | 	call	#pushregs_
03098     A5 54 01 F6 | 	mov	local01, arg01
0309c     00 4C 05 F6 | 	mov	arg02, #0
030a0     30 00 B0 FD | 	call	#__system___gc_doalloc
030a4     82 56 09 F6 | 	mov	local02, result1 wz
030a8     18 00 90 5D |  if_ne	jmp	#LR__0178
030ac     00 54 5D F2 | 	cmps	local01, #0 wcz
030b0     10 00 90 ED |  if_be	jmp	#LR__0178
030b4     1B 00 00 FF 
030b8     C0 4A 05 F6 | 	mov	arg01, ##@LR__0212
030bc     9C FF BF FD | 	call	#__system___gc_errmsg
030c0     04 00 90 FD | 	jmp	#LR__0179
030c4                 | LR__0178
030c4     AB 04 01 F6 | 	mov	result1, local02
030c8                 | LR__0179
030c8     46 F0 03 F6 | 	mov	ptra, fp
030cc     5A 00 A0 FD | 	call	#popregs_
030d0                 | __system___gc_alloc_managed_ret
030d0     2D 00 64 FD | 	ret
030d4                 | 
030d4                 | __system___gc_doalloc
030d4     06 88 04 F6 | 	mov	COUNT_, #6
030d8     4B 00 A0 FD | 	call	#pushregs_
030dc     A5 54 09 F6 | 	mov	local01, arg01 wz
030e0     A6 56 01 F6 | 	mov	local02, arg02
030e4     00 04 05 A6 |  if_e	mov	result1, #0
030e8     94 00 90 AD |  if_e	jmp	#LR__0187
030ec     17 54 05 F1 | 	add	local01, #23
030f0     0F 54 25 F5 | 	andn	local01, #15
030f4     04 54 45 F0 | 	shr	local01, #4
030f8     0C F6 04 F1 | 	add	ptr___system__dat__, #12
030fc     7B 4A 01 F6 | 	mov	arg01, ptr___system__dat__
03100     0C F6 84 F1 | 	sub	ptr___system__dat__, #12
03104     80 FB BF FD | 	call	#__system___lockmem
03108     AA 4A 01 F6 | 	mov	arg01, local01
0310c     AB 4C 01 F6 | 	mov	arg02, local02
03110     68 FD BF FD | 	call	#__system___gc_tryalloc
03114     82 58 09 F6 | 	mov	local03, result1 wz
03118     14 00 90 5D |  if_ne	jmp	#LR__0180
0311c     58 03 B0 FD | 	call	#__system___gc_docollect
03120     AA 4A 01 F6 | 	mov	arg01, local01
03124     AB 4C 01 F6 | 	mov	arg02, local02
03128     50 FD BF FD | 	call	#__system___gc_tryalloc
0312c     82 58 01 F6 | 	mov	local03, result1
03130                 | LR__0180
03130     0C F6 04 F1 | 	add	ptr___system__dat__, #12
03134     7B 4A 01 F6 | 	mov	arg01, ptr___system__dat__
03138     0C F6 84 F1 | 	sub	ptr___system__dat__, #12
0313c     A5 00 48 FC | 	wrbyte	#0, arg01
03140     00 58 0D F2 | 	cmp	local03, #0 wz
03144     34 00 90 AD |  if_e	jmp	#LR__0186
03148     04 54 65 F0 | 	shl	local01, #4
0314c     08 54 85 F1 | 	sub	local01, #8
03150     AA 5A 51 F6 | 	abs	local04, local01 wc
03154     02 5A 45 F0 | 	shr	local04, #2
03158     AD 5A 61 C6 |  if_b	neg	local04, local04
0315c     AD 5C 09 F6 | 	mov	local05, local04 wz
03160     AC 5E 01 F6 | 	mov	local06, local03
03164     14 00 90 AD |  if_e	jmp	#LR__0185
03168     A0 CE 9F FE | 	loc	pa,	#(@LR__0183-@LR__0181)
0316c     35 00 A0 FD | 	call	#FCACHE_LOAD_
03170                 | LR__0181
03170     AE 04 D8 FC | 	rep	@LR__0184, local05
03174                 | LR__0182
03174     AF 00 68 FC | 	wrlong	#0, local06
03178     04 5E 05 F1 | 	add	local06, #4
0317c                 | LR__0183
0317c                 | LR__0184
0317c                 | LR__0185
0317c                 | LR__0186
0317c     AC 04 01 F6 | 	mov	result1, local03
03180                 | LR__0187
03180     46 F0 03 F6 | 	mov	ptra, fp
03184     5A 00 A0 FD | 	call	#popregs_
03188                 | __system___gc_doalloc_ret
03188     2D 00 64 FD | 	ret
0318c                 | 
0318c                 | __system___gc_isvalidptr
0318c     A7 0A 01 F6 | 	mov	_var01, arg03
03190     85 0C 01 F6 | 	mov	_var02, _var01
03194     00 F8 7F FF 
03198     00 0C 05 F5 | 	and	_var02, ##-1048576
0319c     00 C0 31 FF 
031a0     00 0C 0D F2 | 	cmp	_var02, ##1669332992 wz
031a4     00 04 05 56 |  if_ne	mov	result1, #0
031a8     5C 00 90 5D |  if_ne	jmp	#__system___gc_isvalidptr_ret
031ac     08 0A 85 F1 | 	sub	_var01, #8
031b0     00 F8 7F FF 
031b4     00 0A 25 F5 | 	andn	_var01, ##-1048576
031b8     A5 0A 59 F2 | 	cmps	_var01, arg01 wcz
031bc     08 00 90 CD |  if_b	jmp	#LR__0188
031c0     A6 0A 59 F2 | 	cmps	_var01, arg02 wcz
031c4     08 00 90 CD |  if_b	jmp	#LR__0189
031c8                 | LR__0188
031c8     00 04 05 F6 | 	mov	result1, #0
031cc     38 00 90 FD | 	jmp	#__system___gc_isvalidptr_ret
031d0                 | LR__0189
031d0     85 0C 01 F6 | 	mov	_var02, _var01
031d4     A5 0C 61 F5 | 	xor	_var02, arg01
031d8     0F 0C 0D F5 | 	and	_var02, #15 wz
031dc     00 04 05 56 |  if_ne	mov	result1, #0
031e0     24 00 90 5D |  if_ne	jmp	#__system___gc_isvalidptr_ret
031e4     85 0C 01 F6 | 	mov	_var02, _var01
031e8     02 0C 05 F1 | 	add	_var02, #2
031ec     86 0C E1 FA | 	rdword	_var02, _var02
031f0     7F 00 00 FF 
031f4     C0 0D 05 F5 | 	and	_var02, ##65472
031f8     36 00 00 FF 
031fc     80 0C 0D F2 | 	cmp	_var02, ##27776 wz
03200     00 04 05 56 |  if_ne	mov	result1, #0
03204     85 04 01 A6 |  if_e	mov	result1, _var01
03208                 | __system___gc_isvalidptr_ret
03208     2D 00 64 FD | 	ret
0320c                 | 
0320c                 | __system___gc_dofree
0320c     0D 88 04 F6 | 	mov	COUNT_, #13
03210     4B 00 A0 FD | 	call	#pushregs_
03214     A5 54 01 F6 | 	mov	local01, arg01
03218     8C FB BF FD | 	call	#__system___gc_ptrs
0321c     82 56 01 F6 | 	mov	local02, result1
03220     83 58 01 F6 | 	mov	local03, result2
03224     AA 5A 01 F6 | 	mov	local04, local01
03228     02 5A 05 F1 | 	add	local04, #2
0322c     36 00 80 FF 
03230     AD 1E 59 FC | 	wrword	##27791, local04
03234     AA 5C 01 F6 | 	mov	local05, local01
03238     AA 4A 01 F6 | 	mov	arg01, local01
0323c     00 FC BF FD | 	call	#__system___gc_nextBlockPtr
03240     82 5E 01 F6 | 	mov	local06, result1
03244     04 CE 9F FE | 	loc	pa,	#(@LR__0191-@LR__0190)
03248     35 00 A0 FD | 	call	#FCACHE_LOAD_
0324c                 | LR__0190
0324c     04 5C 05 F1 | 	add	local05, #4
03250     AE 4C E9 FA | 	rdword	arg02, local05 wz
03254     AB 4A 01 F6 | 	mov	arg01, local02
03258     00 04 05 A6 |  if_e	mov	result1, #0
0325c     04 4C 65 50 |  if_ne	shl	arg02, #4
03260     A6 4A 01 51 |  if_ne	add	arg01, arg02
03264     A5 04 01 56 |  if_ne	mov	result1, arg01
03268     82 5C 09 F6 | 	mov	local05, result1 wz
0326c     28 00 90 AD |  if_e	jmp	#LR__0192
03270     AE 4A 01 F6 | 	mov	arg01, local05
03274     00 60 05 F6 | 	mov	local07, #0
03278     02 4A 05 F1 | 	add	arg01, #2
0327c     A5 62 E1 FA | 	rdword	local08, arg01
03280     36 00 00 FF 
03284     8F 62 0D F2 | 	cmp	local08, ##27791 wz
03288     01 60 65 A6 |  if_e	neg	local07, #1
0328c     B0 04 01 F6 | 	mov	result1, local07
03290     82 64 09 F6 | 	mov	local09, result1 wz
03294     B4 FF 9F AD |  if_e	jmp	#LR__0190
03298                 | LR__0191
03298                 | LR__0192
03298     00 5C 0D F2 | 	cmp	local05, #0 wz
0329c     AB 5C 01 A6 |  if_e	mov	local05, local02
032a0     AE 5A 01 F6 | 	mov	local04, local05
032a4     06 5A 05 F1 | 	add	local04, #6
032a8     AA 64 01 F6 | 	mov	local09, local01
032ac     AD 66 E1 FA | 	rdword	local10, local04
032b0     06 64 05 F1 | 	add	local09, #6
032b4     B2 66 51 FC | 	wrword	local10, local09
032b8     AA 4C 09 F6 | 	mov	arg02, local01 wz
032bc     00 04 05 A6 |  if_e	mov	result1, #0
032c0     AB 4C 81 51 |  if_ne	sub	arg02, local02
032c4     04 4C 45 50 |  if_ne	shr	arg02, #4
032c8     A6 04 01 56 |  if_ne	mov	result1, arg02
032cc     82 66 01 F6 | 	mov	local10, result1
032d0     AE 68 01 F6 | 	mov	local11, local05
032d4     06 68 05 F1 | 	add	local11, #6
032d8     B4 66 51 FC | 	wrword	local10, local11
032dc     AB 5C 09 F2 | 	cmp	local05, local02 wz
032e0     84 00 90 AD |  if_e	jmp	#LR__0195
032e4     AE 4A 01 F6 | 	mov	arg01, local05
032e8     54 FB BF FD | 	call	#__system___gc_nextBlockPtr
032ec     AA 04 09 F2 | 	cmp	result1, local01 wz
032f0     74 00 90 5D |  if_ne	jmp	#LR__0194
032f4     AE 5A E1 FA | 	rdword	local04, local05
032f8     AA 68 E1 FA | 	rdword	local11, local01
032fc     B4 5A 01 F1 | 	add	local04, local11
03300     AE 5A 51 FC | 	wrword	local04, local05
03304     AA 5A 01 F6 | 	mov	local04, local01
03308     02 5A 05 F1 | 	add	local04, #2
0330c     AD 00 58 FC | 	wrword	#0, local04
03310     AA 4A 01 F6 | 	mov	arg01, local01
03314     28 FB BF FD | 	call	#__system___gc_nextBlockPtr
03318     82 5E 01 F6 | 	mov	local06, result1
0331c     AC 5E 59 F2 | 	cmps	local06, local03 wcz
03320     20 00 90 3D |  if_ae	jmp	#LR__0193
03324     AE 4C 09 F6 | 	mov	arg02, local05 wz
03328     00 04 05 A6 |  if_e	mov	result1, #0
0332c     AB 4C 81 51 |  if_ne	sub	arg02, local02
03330     04 4C 45 50 |  if_ne	shr	arg02, #4
03334     A6 04 01 56 |  if_ne	mov	result1, arg02
03338     AF 68 01 F6 | 	mov	local11, local06
0333c     04 68 05 F1 | 	add	local11, #4
03340     B4 04 51 FC | 	wrword	result1, local11
03344                 | LR__0193
03344     AA 5A 01 F6 | 	mov	local04, local01
03348     06 5A 05 F1 | 	add	local04, #6
0334c     AE 64 01 F6 | 	mov	local09, local05
03350     AD 66 E1 FA | 	rdword	local10, local04
03354     06 64 05 F1 | 	add	local09, #6
03358     B2 66 51 FC | 	wrword	local10, local09
0335c     06 54 05 F1 | 	add	local01, #6
03360     AA 00 58 FC | 	wrword	#0, local01
03364     AE 54 01 F6 | 	mov	local01, local05
03368                 | LR__0194
03368                 | LR__0195
03368     AA 4A 01 F6 | 	mov	arg01, local01
0336c     D0 FA BF FD | 	call	#__system___gc_nextBlockPtr
03370     82 6A 09 F6 | 	mov	local12, result1 wz
03374     C8 00 90 AD |  if_e	jmp	#LR__0197
03378     AC 6A 59 F2 | 	cmps	local12, local03 wcz
0337c     C0 00 90 3D |  if_ae	jmp	#LR__0197
03380     B5 4A 01 F6 | 	mov	arg01, local12
03384     00 60 05 F6 | 	mov	local07, #0
03388     02 4A 05 F1 | 	add	arg01, #2
0338c     A5 62 E1 FA | 	rdword	local08, arg01
03390     36 00 00 FF 
03394     8F 62 0D F2 | 	cmp	local08, ##27791 wz
03398     01 60 65 A6 |  if_e	neg	local07, #1
0339c     B0 04 09 F6 | 	mov	result1, local07 wz
033a0     9C 00 90 AD |  if_e	jmp	#LR__0197
033a4     AA 5C 01 F6 | 	mov	local05, local01
033a8     AE 5A E1 FA | 	rdword	local04, local05
033ac     B5 54 01 F6 | 	mov	local01, local12
033b0     AA 68 E1 FA | 	rdword	local11, local01
033b4     B4 5A 01 F1 | 	add	local04, local11
033b8     AE 6C 01 F6 | 	mov	local13, local05
033bc     B6 5A 51 FC | 	wrword	local04, local13
033c0     AA 5A 01 F6 | 	mov	local04, local01
033c4     06 5A 05 F1 | 	add	local04, #6
033c8     AE 64 01 F6 | 	mov	local09, local05
033cc     AD 66 E1 FA | 	rdword	local10, local04
033d0     06 64 05 F1 | 	add	local09, #6
033d4     B2 66 51 FC | 	wrword	local10, local09
033d8     AA 5A 01 F6 | 	mov	local04, local01
033dc     02 5A 05 F1 | 	add	local04, #2
033e0     AD 54 59 FC | 	wrword	#170, local04
033e4     AA 5A 01 F6 | 	mov	local04, local01
033e8     06 5A 05 F1 | 	add	local04, #6
033ec     AD 00 58 FC | 	wrword	#0, local04
033f0     AA 5A 01 F6 | 	mov	local04, local01
033f4     AD 4A 01 F6 | 	mov	arg01, local04
033f8     44 FA BF FD | 	call	#__system___gc_nextBlockPtr
033fc     82 64 01 F6 | 	mov	local09, result1
03400     B2 5E 09 F6 | 	mov	local06, local09 wz
03404     38 00 90 AD |  if_e	jmp	#LR__0196
03408     AC 5E 59 F2 | 	cmps	local06, local03 wcz
0340c     30 00 90 3D |  if_ae	jmp	#LR__0196
03410     AB 5A 01 F6 | 	mov	local04, local02
03414     AE 64 01 F6 | 	mov	local09, local05
03418     AD 4A 01 F6 | 	mov	arg01, local04
0341c     B2 4C 09 F6 | 	mov	arg02, local09 wz
03420     00 04 05 A6 |  if_e	mov	result1, #0
03424     A5 4C 81 51 |  if_ne	sub	arg02, arg01
03428     04 4C 45 50 |  if_ne	shr	arg02, #4
0342c     A6 04 01 56 |  if_ne	mov	result1, arg02
03430     82 66 01 F6 | 	mov	local10, result1
03434     AF 68 01 F6 | 	mov	local11, local06
03438     04 68 05 F1 | 	add	local11, #4
0343c     B4 66 51 FC | 	wrword	local10, local11
03440                 | LR__0196
03440                 | LR__0197
03440     AF 04 01 F6 | 	mov	result1, local06
03444     46 F0 03 F6 | 	mov	ptra, fp
03448     5A 00 A0 FD | 	call	#popregs_
0344c                 | __system___gc_dofree_ret
0344c     2D 00 64 FD | 	ret
03450                 | 
03450                 | __system____topofstack
03450     00 88 04 F6 | 	mov	COUNT_, #0
03454     4B 00 A0 FD | 	call	#pushregs_
03458     08 F0 07 F1 | 	add	ptra, #8
0345c     04 8C 04 F1 | 	add	fp, #4
03460     46 4A 61 FC | 	wrlong	arg01, fp
03464     46 04 01 F6 | 	mov	result1, fp
03468     04 8C 84 F1 | 	sub	fp, #4
0346c     46 F0 03 F6 | 	mov	ptra, fp
03470     5A 00 A0 FD | 	call	#popregs_
03474                 | __system____topofstack_ret
03474     2D 00 64 FD | 	ret
03478                 | 
03478                 | __system___gc_docollect
03478     09 88 04 F6 | 	mov	COUNT_, #9
0347c     4B 00 A0 FD | 	call	#pushregs_
03480     24 F9 BF FD | 	call	#__system___gc_ptrs
03484     83 54 01 F6 | 	mov	local01, result2
03488     82 56 01 F6 | 	mov	local02, result1
0348c     AB 4A 01 F6 | 	mov	arg01, local02
03490     AC F9 BF FD | 	call	#__system___gc_nextBlockPtr
03494     82 58 09 F6 | 	mov	local03, result1 wz
03498     01 04 61 FD | 	cogid	result1
0349c     82 5A 01 F6 | 	mov	local04, result1
034a0     34 00 90 AD |  if_e	jmp	#LR__0199
034a4                 | LR__0198
034a4     AA 58 59 F2 | 	cmps	local03, local01 wcz
034a8     2C 00 90 3D |  if_ae	jmp	#LR__0199
034ac     AC 5C 01 F6 | 	mov	local05, local03
034b0     02 5C 05 F1 | 	add	local05, #2
034b4     AE 5E E1 FA | 	rdword	local06, local05
034b8     20 5E 25 F5 | 	andn	local06, #32
034bc     AC 60 01 F6 | 	mov	local07, local03
034c0     02 60 05 F1 | 	add	local07, #2
034c4     B0 5E 51 FC | 	wrword	local06, local07
034c8     AC 4A 01 F6 | 	mov	arg01, local03
034cc     70 F9 BF FD | 	call	#__system___gc_nextBlockPtr
034d0     82 58 09 F6 | 	mov	local03, result1 wz
034d4     CC FF 9F 5D |  if_ne	jmp	#LR__0198
034d8                 | LR__0199
034d8     00 5E 05 F6 | 	mov	local06, #0
034dc     00 4A 05 F6 | 	mov	arg01, #0
034e0     6C FF BF FD | 	call	#__system____topofstack
034e4     82 60 01 F6 | 	mov	local07, result1
034e8     AF 4A 01 F6 | 	mov	arg01, local06
034ec     B0 4C 01 F6 | 	mov	arg02, local07
034f0     A0 00 B0 FD | 	call	#__system___gc_markhub
034f4     34 01 B0 FD | 	call	#__system___gc_markcog
034f8     AB 4A 01 F6 | 	mov	arg01, local02
034fc     40 F9 BF FD | 	call	#__system___gc_nextBlockPtr
03500     82 62 09 F6 | 	mov	local08, result1 wz
03504     10 00 90 5D |  if_ne	jmp	#LR__0200
03508     1B 00 00 FF 
0350c     DD 4A 05 F6 | 	mov	arg01, ##@LR__0213
03510     48 FB BF FD | 	call	#__system___gc_errmsg
03514     70 00 90 FD | 	jmp	#LR__0206
03518                 | LR__0200
03518                 | LR__0201
03518     B1 58 01 F6 | 	mov	local03, local08
0351c     AC 4A 01 F6 | 	mov	arg01, local03
03520     1C F9 BF FD | 	call	#__system___gc_nextBlockPtr
03524     82 62 01 F6 | 	mov	local08, result1
03528     AC 5E 01 F6 | 	mov	local06, local03
0352c     02 5E 05 F1 | 	add	local06, #2
03530     AF 64 E1 FA | 	rdword	local09, local06
03534     20 64 CD F7 | 	test	local09, #32 wz
03538     3C 00 90 5D |  if_ne	jmp	#LR__0204
0353c     B2 5C 01 F6 | 	mov	local05, local09
03540     10 5C 0D F5 | 	and	local05, #16 wz
03544     30 00 90 5D |  if_ne	jmp	#LR__0204
03548     B2 5E 01 F6 | 	mov	local06, local09
0354c     0F 5E 05 F5 | 	and	local06, #15
03550     AF 64 01 F6 | 	mov	local09, local06
03554     AD 64 09 F2 | 	cmp	local09, local04 wz
03558     08 00 90 AD |  if_e	jmp	#LR__0202
0355c     0E 64 0D F2 | 	cmp	local09, #14 wz
03560     14 00 90 5D |  if_ne	jmp	#LR__0203
03564                 | LR__0202
03564     AC 5E 01 F6 | 	mov	local06, local03
03568     AF 4A 01 F6 | 	mov	arg01, local06
0356c     9C FC BF FD | 	call	#__system___gc_dofree
03570     82 5C 01 F6 | 	mov	local05, result1
03574     AE 62 01 F6 | 	mov	local08, local05
03578                 | LR__0203
03578                 | LR__0204
03578     00 62 0D F2 | 	cmp	local08, #0 wz
0357c     08 00 90 AD |  if_e	jmp	#LR__0205
03580     AA 62 59 F2 | 	cmps	local08, local01 wcz
03584     90 FF 9F CD |  if_b	jmp	#LR__0201
03588                 | LR__0205
03588                 | LR__0206
03588     46 F0 03 F6 | 	mov	ptra, fp
0358c     5A 00 A0 FD | 	call	#popregs_
03590                 | __system___gc_docollect_ret
03590     2D 00 64 FD | 	ret
03594                 | 
03594                 | __system___gc_markhub
03594     0A 88 04 F6 | 	mov	COUNT_, #10
03598     4B 00 A0 FD | 	call	#pushregs_
0359c     A5 54 01 F6 | 	mov	local01, arg01
035a0     A6 56 01 F6 | 	mov	local02, arg02
035a4     00 F8 BF FD | 	call	#__system___gc_ptrs
035a8     82 58 01 F6 | 	mov	local03, result1
035ac     83 5A 01 F6 | 	mov	local04, result2
035b0                 | LR__0207
035b0     AB 54 59 F2 | 	cmps	local01, local02 wcz
035b4     68 00 90 3D |  if_ae	jmp	#LR__0208
035b8     AA 4E 01 FB | 	rdlong	arg03, local01
035bc     04 54 05 F1 | 	add	local01, #4
035c0     AC 4A 01 F6 | 	mov	arg01, local03
035c4     AD 4C 01 F6 | 	mov	arg02, local04
035c8     C0 FB BF FD | 	call	#__system___gc_isvalidptr
035cc     82 5C 09 F6 | 	mov	local05, result1 wz
035d0     DC FF 9F AD |  if_e	jmp	#LR__0207
035d4     AE 4A 01 F6 | 	mov	arg01, local05
035d8     00 5E 05 F6 | 	mov	local06, #0
035dc     02 4A 05 F1 | 	add	arg01, #2
035e0     A5 60 E1 FA | 	rdword	local07, arg01
035e4     36 00 00 FF 
035e8     8F 60 0D F2 | 	cmp	local07, ##27791 wz
035ec     01 5E 65 A6 |  if_e	neg	local06, #1
035f0     AF 04 01 F6 | 	mov	result1, local06
035f4     82 62 09 F6 | 	mov	local08, result1 wz
035f8     B4 FF 9F 5D |  if_ne	jmp	#LR__0207
035fc     AE 64 01 F6 | 	mov	local09, local05
03600     02 64 05 F1 | 	add	local09, #2
03604     B2 66 E1 FA | 	rdword	local10, local09
03608     0F 66 25 F5 | 	andn	local10, #15
0360c     2E 66 45 F5 | 	or	local10, #46
03610     AE 64 01 F6 | 	mov	local09, local05
03614     02 64 05 F1 | 	add	local09, #2
03618     B2 66 51 FC | 	wrword	local10, local09
0361c     90 FF 9F FD | 	jmp	#LR__0207
03620                 | LR__0208
03620     46 F0 03 F6 | 	mov	ptra, fp
03624     5A 00 A0 FD | 	call	#popregs_
03628                 | __system___gc_markhub_ret
03628     2D 00 64 FD | 	ret
0362c                 | 
0362c                 | __system___gc_markcog
0362c     06 88 04 F6 | 	mov	COUNT_, #6
03630     4B 00 A0 FD | 	call	#pushregs_
03634     70 F7 BF FD | 	call	#__system___gc_ptrs
03638     82 54 01 F6 | 	mov	local01, result1
0363c     83 56 01 F6 | 	mov	local02, result2
03640     00 58 05 F6 | 	mov	local03, #0
03644                 | LR__0209
03644     F0 5B 05 F6 | 	mov	local04, #496
03648     AC 5A 81 F1 | 	sub	local04, local03
0364c     F0 5D 05 F6 | 	mov	local05, #496
03650     AD 5C 01 F1 | 	add	local05, local04
03654                 | 	'.live	local05
03654     00 5C 95 F9 | 	alts	local05, #0
03658     AE 5E 01 F6 | 	mov	local06, local05
0365c     AA 4A 01 F6 | 	mov	arg01, local01
03660     AB 4C 01 F6 | 	mov	arg02, local02
03664     AF 4E 01 F6 | 	mov	arg03, local06
03668     20 FB BF FD | 	call	#__system___gc_isvalidptr
0366c     82 5E 09 F6 | 	mov	local06, result1 wz
03670     18 00 90 AD |  if_e	jmp	#LR__0210
03674     AF 5A 01 F6 | 	mov	local04, local06
03678     02 5A 05 F1 | 	add	local04, #2
0367c     AD 5C E1 FA | 	rdword	local05, local04
03680     20 5C 45 F5 | 	or	local05, #32
03684     02 5E 05 F1 | 	add	local06, #2
03688     AF 5C 51 FC | 	wrword	local05, local06
0368c                 | LR__0210
0368c     01 58 05 F1 | 	add	local03, #1
03690     F0 59 5D F2 | 	cmps	local03, #496 wcz
03694     AC FF 9F CD |  if_b	jmp	#LR__0209
03698     46 F0 03 F6 | 	mov	ptra, fp
0369c     5A 00 A0 FD | 	call	#popregs_
036a0                 | __system___gc_markcog_ret
036a0     2D 00 64 FD | 	ret
036a4                 | 
036a4                 | LR__0211
036a4     20 21 21 21 
036a8     20 63 6F 72 
036ac     72 75 70 74 
036b0     65 64 20 68 
036b4     65 61 70 3F 
036b8     3F 3F 20 21 
036bc     21 21 20    | 	byte	" !!! corrupted heap??? !!! "
036bf     00          | 	byte	0
036c0                 | LR__0212
036c0     20 21 21 21 
036c4     20 6F 75 74 
036c8     20 6F 66 20 
036cc     68 65 61 70 
036d0     20 6D 65 6D 
036d4     6F 72 79 20 
036d8     21 21 21 20 | 	byte	" !!! out of heap memory !!! "
036dc     00          | 	byte	0
036dd                 | LR__0213
036dd     20 21 21 21 
036e1     20 63 6F 72 
036e5     72 75 70 74 
036e9     65 64 20 68 
036ed     65 61 70 20 
036f1     21 21 21 20 | 	byte	" !!! corrupted heap !!! "
036f5     00          | 	byte	0
036f6                 | LR__0214
036f6     6D 6F 64 65 | 	byte	"mode"
036fa     00          | 	byte	0
036fb                 | LR__0215
036fb     63 70 6C    | 	byte	"cpl"
036fe     00          | 	byte	0
036ff                 | LR__0216
036ff     62 75 66 70 
03703     74 72       | 	byte	"bufptr"
03705     00          | 	byte	0
03706                 | LR__0217
03706     62 75 66 6C 
0370a     65 6E       | 	byte	"buflen"
0370c     00          | 	byte	0
0370d                 | LR__0218
0370d     6C 69 6E 65 
03711     73          | 	byte	"lines"
03712     00          | 	byte	0
03713                 | LR__0219
03713     6D 6F 64 65 | 	byte	"mode"
03717     00          | 	byte	0
03718                 | LR__0220
03718     63 70 6C    | 	byte	"cpl"
0371b     00          | 	byte	0
0371c                 | LR__0221
0371c     62 75 66 5F 
03720     70 74 72    | 	byte	"buf_ptr"
03723     00          | 	byte	0
03724                 | LR__0222
03724     62 75 66 6C 
03728     65 6E       | 	byte	"buflen"
0372a     00          | 	byte	0
0372b                 | LR__0223
0372b     6C 69 6E 65 
0372f     73          | 	byte	"lines"
03730     00          | 	byte	0
03731                 | LR__0224
03731     6D 6F 64 65 | 	byte	"mode"
03735     00          | 	byte	0
03736                 | LR__0225
03736     63 70 6C    | 	byte	"cpl"
03739     00          | 	byte	0
0373a                 | LR__0226
0373a     62 75 66 5F 
0373e     70 74 72    | 	byte	"buf_ptr"
03741     00          | 	byte	0
03742                 | LR__0227
03742     62 75 66 6C 
03746     65 6E       | 	byte	"buflen"
03748     00          | 	byte	0
03749                 | LR__0228
03749     6C 69 6E 65 
0374d     73          | 	byte	"lines"
0374e     00          | 	byte	0
0374f                 | LR__0229
0374f     6D 6F 64 65 | 	byte	"mode"
03753     00          | 	byte	0
03754                 | LR__0230
03754     63 70 6C    | 	byte	"cpl"
03757     00          | 	byte	0
03758                 | LR__0231
03758     62 75 66 5F 
0375c     70 74 72    | 	byte	"buf_ptr"
0375f     00          | 	byte	0
03760                 | LR__0232
03760     62 75 66 6C 
03764     65 6E       | 	byte	"buflen"
03766     00          | 	byte	0
03767                 | LR__0233
03767     6C 69 6E 65 
0376b     73          | 	byte	"lines"
0376c     00          | 	byte	0
0376d     00 00 00    | 	alignl
03770                 | _dat_
03770     00 00 00 00 
03774     00 00 00 00 
03778     00 00 00 00 
0377c     00 00 00 00 
03780     00 00 00    | vga_font       file "vgafont.def"
03783     7E 81 A5 81 
03787     81 BD 99 81 
0378b     81 7E 00 00 
0378f     00 00 00 00 | 	byte	$7e, $81, $a5, $81, $81, $bd, $99, $81, $81, $7e, $00, $00, $00, $00, $00, $00
03793     7E FF DB FF 
03797     FF C3 E7 FF 
0379b     FF 7E 00 00 
0379f     00 00 00 00 | 	byte	$7e, $ff, $db, $ff, $ff, $c3, $e7, $ff, $ff, $7e, $00, $00, $00, $00, $00, $00
037a3     00 36 7F 7F 
037a7     7F 7F 3E 1C 
037ab     08 00 00 00 
037af     00 00 00 00 | 	byte	$00, $36, $7f, $7f, $7f, $7f, $3e, $1c, $08, $00, $00, $00, $00, $00, $00, $00
037b3     00 08 1C 3E 
037b7     7F 3E 1C 08 
037bb     00 00 00 00 
037bf     00 00 00 00 | 	byte	$00, $08, $1c, $3e, $7f, $3e, $1c, $08, $00, $00, $00, $00, $00, $00, $00, $00
037c3     18 3C 3C E7 
037c7     E7 E7 18 18 
037cb     3C 00 00 00 
037cf     00 00 00 00 | 	byte	$18, $3c, $3c, $e7, $e7, $e7, $18, $18, $3c, $00, $00, $00, $00, $00, $00, $00
037d3     18 3C 7E FF 
037d7     FF 7E 18 18 
037db     3C 00 00 00 
037df     00 00 00 00 | 	byte	$18, $3c, $7e, $ff, $ff, $7e, $18, $18, $3c, $00, $00, $00, $00, $00, $00, $00
037e3     00 00 00 18 
037e7     3C 3C 18 00 
037eb     00 00 00 00 
037ef     00 FF FF FF | 	byte	$00, $00, $00, $18, $3c, $3c, $18, $00, $00, $00, $00, $00, $00, $ff, $ff, $ff
037f3     FF FF FF E7 
037f7     C3 C3 E7 FF 
037fb     FF FF FF FF 
037ff     FF 00 00 00 | 	byte	$ff, $ff, $ff, $e7, $c3, $c3, $e7, $ff, $ff, $ff, $ff, $ff, $ff, $00, $00, $00
03803     00 00 3C 66 
03807     42 42 66 3C 
0380b     00 00 00 00 
0380f     00 FF FF FF | 	byte	$00, $00, $3c, $66, $42, $42, $66, $3c, $00, $00, $00, $00, $00, $ff, $ff, $ff
03813     FF FF C3 99 
03817     BD BD 99 C3 
0381b     FF FF FF FF 
0381f     FF 00 00 00 | 	byte	$ff, $ff, $c3, $99, $bd, $bd, $99, $c3, $ff, $ff, $ff, $ff, $ff, $00, $00, $00
03823     78 70 58 4C 
03827     1E 33 33 33 
0382b     33 1E 00 00 
0382f     00 00 00 00 | 	byte	$78, $70, $58, $4c, $1e, $33, $33, $33, $33, $1e, $00, $00, $00, $00, $00, $00
03833     3C 66 66 66 
03837     66 3C 18 7E 
0383b     18 18 00 00 
0383f     00 00 00 00 | 	byte	$3c, $66, $66, $66, $66, $3c, $18, $7e, $18, $18, $00, $00, $00, $00, $00, $00
03843     FC CC FC 0C 
03847     0C 0C 0C 0E 
0384b     0F 07 00 00 
0384f     00 00 00 00 | 	byte	$fc, $cc, $fc, $0c, $0c, $0c, $0c, $0e, $0f, $07, $00, $00, $00, $00, $00, $00
03853     FE C6 FE C6 
03857     C6 C6 C6 E6 
0385b     E7 67 03 00 
0385f     00 00 00 00 | 	byte	$fe, $c6, $fe, $c6, $c6, $c6, $c6, $e6, $e7, $67, $03, $00, $00, $00, $00, $00
03863     18 18 DB 3C 
03867     E7 3C DB 18 
0386b     18 00 00 00 
0386f     00 00 00 01 | 	byte	$18, $18, $db, $3c, $e7, $3c, $db, $18, $18, $00, $00, $00, $00, $00, $00, $01
03873     03 07 0F 1F 
03877     7F 1F 0F 07 
0387b     03 01 00 00 
0387f     00 00 00 40 | 	byte	$03, $07, $0f, $1f, $7f, $1f, $0f, $07, $03, $01, $00, $00, $00, $00, $00, $40
03883     60 70 78 7C 
03887     7F 7C 78 70 
0388b     60 40 00 00 
0388f     00 00 00 00 | 	byte	$60, $70, $78, $7c, $7f, $7c, $78, $70, $60, $40, $00, $00, $00, $00, $00, $00
03893     18 3C 7E 18 
03897     18 18 7E 3C 
0389b     18 00 00 00 
0389f     00 00 00 00 | 	byte	$18, $3c, $7e, $18, $18, $18, $7e, $3c, $18, $00, $00, $00, $00, $00, $00, $00
038a3     66 66 66 66 
038a7     66 66 66    | 	byte	$66[7]
038aa     00 66 66 00 
038ae     00 00 00 00 
038b2     00 FE DB DB 
038b6     DB DE D8 D8 | 	byte	$00, $66, $66, $00, $00, $00, $00, $00, $00, $fe, $db, $db, $db, $de, $d8, $d8
038ba     D8 D8 D8 00 
038be     00 00 00 3E 
038c2     63 06 1C 36 
038c6     63 63 36 1C | 	byte	$d8, $d8, $d8, $00, $00, $00, $00, $3e, $63, $06, $1c, $36, $63, $63, $36, $1c
038ca     30 63 3E 00 
038ce     00 00 00 00 
038d2     00 00 00 00 
038d6     00 00 00 7F | 	byte	$30, $63, $3e, $00, $00, $00, $00, $00, $00, $00, $00, $00, $00, $00, $00, $7f
038da     7F 7F 7F 00 
038de     00 00 00 00 
038e2     00 18 3C 7E 
038e6     18 18 18 7E | 	byte	$7f, $7f, $7f, $00, $00, $00, $00, $00, $00, $18, $3c, $7e, $18, $18, $18, $7e
038ea     3C 18 7E 00 
038ee     00 00 00 00 
038f2     00 18 3C 7E 
038f6     18 18 18 18 | 	byte	$3c, $18, $7e, $00, $00, $00, $00, $00, $00, $18, $3c, $7e, $18, $18, $18, $18
038fa     18 18 18 00 
038fe     00 00 00 00 
03902     00 18 18 18 
03906     18 18 18 18 | 	byte	$18, $18, $18, $00, $00, $00, $00, $00, $00, $18, $18, $18, $18, $18, $18, $18
0390a     7E 3C 18 00 
0390e     00 00 00 00 
03912     00 00 00 18 
03916     30 7F 30 18 | 	byte	$7e, $3c, $18, $00, $00, $00, $00, $00, $00, $00, $00, $18, $30, $7f, $30, $18
0391a     00 00 00 00 
0391e     00 00 00 00 
03922     00 00 00    | 	byte	$00[11]
03925     0C 06 7F 06 
03929     0C 00 00 00 
0392d     00 00 00 00 
03931     00 00 00 00 | 	byte	$0c, $06, $7f, $06, $0c, $00, $00, $00, $00, $00, $00, $00, $00, $00, $00, $00
03935     00 03 03 03 
03939     7F 00 00 00 
0393d     00 00 00 00 
03941     00 00 00 00 | 	byte	$00, $03, $03, $03, $7f, $00, $00, $00, $00, $00, $00, $00, $00, $00, $00, $00
03945     14 36 7F 36 
03949     14 00 00 00 
0394d     00 00 00 00 
03951     00 00 00 08 | 	byte	$14, $36, $7f, $36, $14, $00, $00, $00, $00, $00, $00, $00, $00, $00, $00, $08
03955     1C 1C 3E 3E 
03959     7F 7F 00 00 
0395d     00 00 00 00 
03961     00 00 00 7F | 	byte	$1c, $1c, $3e, $3e, $7f, $7f, $00, $00, $00, $00, $00, $00, $00, $00, $00, $7f
03965     7F 3E 3E 1C 
03969     1C 08 00 00 
0396d     00 00 00 00 
03971     00 00 00 00 | 	byte	$7f, $3e, $3e, $1c, $1c, $08, $00, $00, $00, $00, $00, $00, $00, $00, $00, $00
03975     00 00 00 00 
03979     00 00 00 00 
0397d     00 00 00 00 
03981     00 00       | 	byte	$00[14]
03983     18 3C 3C 3C 
03987     18 18 18 00 
0398b     18 18 00 00 
0398f     00 00 66 66 | 	byte	$18, $3c, $3c, $3c, $18, $18, $18, $00, $18, $18, $00, $00, $00, $00, $66, $66
03993     66 24 00 00 
03997     00 00 00 00 
0399b     00 00 00 00 
0399f     00 00 00 00 | 	byte	$66, $24, $00, $00, $00, $00, $00, $00, $00, $00, $00, $00, $00, $00, $00, $00
039a3     00 36 36 7F 
039a7     36 36 36 7F 
039ab     36 36 00 00 
039af     00 00 18 18 | 	byte	$00, $36, $36, $7f, $36, $36, $36, $7f, $36, $36, $00, $00, $00, $00, $18, $18
039b3     3E 63 43 03 
039b7     3E 60 60 61 
039bb     63 3E 18 18 
039bf     00 00 00 00 | 	byte	$3e, $63, $43, $03, $3e, $60, $60, $61, $63, $3e, $18, $18, $00, $00, $00, $00
039c3     00 00 43 63 
039c7     30 18 0C 06 
039cb     63 61 00 00 
039cf     00 00 00 00 | 	byte	$00, $00, $43, $63, $30, $18, $0c, $06, $63, $61, $00, $00, $00, $00, $00, $00
039d3     1C 36 36 1C 
039d7     6E 3B 33 33 
039db     33 6E 00 00 
039df     00 00 00 00 | 	byte	$1c, $36, $36, $1c, $6e, $3b, $33, $33, $33, $6e, $00, $00, $00, $00, $00, $00
039e3     0C 0C 0C 06 
039e7     00 00 00 00 
039eb     00 00 00 00 
039ef     00 00 00 00 | 	byte	$0c, $0c, $0c, $06, $00, $00, $00, $00, $00, $00, $00, $00, $00, $00, $00, $00
039f3     30 18 0C 0C 
039f7     0C 0C 0C 0C 
039fb     18 30 00 00 
039ff     00 00 00 00 | 	byte	$30, $18, $0c, $0c, $0c, $0c, $0c, $0c, $18, $30, $00, $00, $00, $00, $00, $00
03a03     0C 18 30 30 
03a07     30 30 30 30 
03a0b     18 0C 00 00 
03a0f     00 00 00 00 | 	byte	$0c, $18, $30, $30, $30, $30, $30, $30, $18, $0c, $00, $00, $00, $00, $00, $00
03a13     00 00 00 66 
03a17     3C FF 3C 66 
03a1b     00 00 00 00 
03a1f     00 00 00 00 | 	byte	$00, $00, $00, $66, $3c, $ff, $3c, $66, $00, $00, $00, $00, $00, $00, $00, $00
03a23     00 00 00 18 
03a27     18 7E 18 18 
03a2b     00 00 00 00 
03a2f     00 00 00 00 | 	byte	$00, $00, $00, $18, $18, $7e, $18, $18, $00, $00, $00, $00, $00, $00, $00, $00
03a33     00 00 00 00 
03a37     00 00 00 00 | 	byte	$00[8]
03a3b     18 18 18 0C 
03a3f     00 00 00 00 
03a43     00 00 00 00 
03a47     00 7F 00 00 | 	byte	$18, $18, $18, $0c, $00, $00, $00, $00, $00, $00, $00, $00, $00, $7f, $00, $00
03a4b     00 00 00 00 
03a4f     00 00 00 00 
03a53     00 00 00 00 
03a57     00 00 00 00 | 	byte	$00[16]
03a5b     18 18 00 00 
03a5f     00 00 00 00 
03a63     00 00 40 60 
03a67     30 18 0C 06 | 	byte	$18, $18, $00, $00, $00, $00, $00, $00, $00, $00, $40, $60, $30, $18, $0c, $06
03a6b     03 01 00 00 
03a6f     00 00 00 00 
03a73     1C 36 63 63 
03a77     6B 6B 63 63 | 	byte	$03, $01, $00, $00, $00, $00, $00, $00, $1c, $36, $63, $63, $6b, $6b, $63, $63
03a7b     36 1C 00 00 
03a7f     00 00 00 00 
03a83     18 1C 1E 18 
03a87     18 18 18 18 | 	byte	$36, $1c, $00, $00, $00, $00, $00, $00, $18, $1c, $1e, $18, $18, $18, $18, $18
03a8b     18 7E 00 00 
03a8f     00 00 00 00 
03a93     3E 63 60 30 
03a97     18 0C 06 03 | 	byte	$18, $7e, $00, $00, $00, $00, $00, $00, $3e, $63, $60, $30, $18, $0c, $06, $03
03a9b     63 7F 00 00 
03a9f     00 00 00 00 
03aa3     3E 63 60 60 
03aa7     3C 60 60 60 | 	byte	$63, $7f, $00, $00, $00, $00, $00, $00, $3e, $63, $60, $60, $3c, $60, $60, $60
03aab     63 3E 00 00 
03aaf     00 00 00 00 
03ab3     30 38 3C 36 
03ab7     33 7F 30 30 | 	byte	$63, $3e, $00, $00, $00, $00, $00, $00, $30, $38, $3c, $36, $33, $7f, $30, $30
03abb     30 78 00 00 
03abf     00 00 00 00 
03ac3     7F 03 03 03 
03ac7     3F 60 60 60 | 	byte	$30, $78, $00, $00, $00, $00, $00, $00, $7f, $03, $03, $03, $3f, $60, $60, $60
03acb     63 3E 00 00 
03acf     00 00 00 00 
03ad3     1C 06 03 03 
03ad7     3F 63 63 63 | 	byte	$63, $3e, $00, $00, $00, $00, $00, $00, $1c, $06, $03, $03, $3f, $63, $63, $63
03adb     63 3E 00 00 
03adf     00 00 00 00 
03ae3     7F 63 60 60 
03ae7     30 18 0C 0C | 	byte	$63, $3e, $00, $00, $00, $00, $00, $00, $7f, $63, $60, $60, $30, $18, $0c, $0c
03aeb     0C 0C 00 00 
03aef     00 00 00 00 
03af3     3E 63 63 63 
03af7     3E 63 63 63 | 	byte	$0c, $0c, $00, $00, $00, $00, $00, $00, $3e, $63, $63, $63, $3e, $63, $63, $63
03afb     63 3E 00 00 
03aff     00 00 00 00 
03b03     3E 63 63 63 
03b07     7E 60 60 60 | 	byte	$63, $3e, $00, $00, $00, $00, $00, $00, $3e, $63, $63, $63, $7e, $60, $60, $60
03b0b     30 1E 00 00 
03b0f     00 00 00 00 
03b13     00 00 00 18 
03b17     18 00 00 00 | 	byte	$30, $1e, $00, $00, $00, $00, $00, $00, $00, $00, $00, $18, $18, $00, $00, $00
03b1b     18 18 00 00 
03b1f     00 00 00 00 
03b23     00 00 00 18 
03b27     18 00 00 00 | 	byte	$18, $18, $00, $00, $00, $00, $00, $00, $00, $00, $00, $18, $18, $00, $00, $00
03b2b     18 18 0C 00 
03b2f     00 00 00 00 
03b33     00 60 30 18 
03b37     0C 06 0C 18 | 	byte	$18, $18, $0c, $00, $00, $00, $00, $00, $00, $60, $30, $18, $0c, $06, $0c, $18
03b3b     30 60 00 00 
03b3f     00 00 00 00 
03b43     00 00 00 7E 
03b47     00 00 7E 00 | 	byte	$30, $60, $00, $00, $00, $00, $00, $00, $00, $00, $00, $7e, $00, $00, $7e, $00
03b4b     00 00 00 00 
03b4f     00 00 00 00 
03b53     00          | 	byte	$00[9]
03b54     06 0C 18 30 
03b58     60 30 18 0C 
03b5c     06 00 00 00 
03b60     00 00 00 3E | 	byte	$06, $0c, $18, $30, $60, $30, $18, $0c, $06, $00, $00, $00, $00, $00, $00, $3e
03b64     63 63 30 18 
03b68     18 18 00 18 
03b6c     18 00 00 00 
03b70     00 00 00 00 | 	byte	$63, $63, $30, $18, $18, $18, $00, $18, $18, $00, $00, $00, $00, $00, $00, $00
03b74     3E 63 63 7B 
03b78     7B 7B 3B 03 
03b7c     3E 00 00 00 
03b80     00 00 00 08 | 	byte	$3e, $63, $63, $7b, $7b, $7b, $3b, $03, $3e, $00, $00, $00, $00, $00, $00, $08
03b84     1C 36 63 63 
03b88     7F 63 63 63 
03b8c     63 00 00 00 
03b90     00 00 00 3F | 	byte	$1c, $36, $63, $63, $7f, $63, $63, $63, $63, $00, $00, $00, $00, $00, $00, $3f
03b94     66 66 66 3E 
03b98     66 66 66 66 
03b9c     3F 00 00 00 
03ba0     00 00 00 3C | 	byte	$66, $66, $66, $3e, $66, $66, $66, $66, $3f, $00, $00, $00, $00, $00, $00, $3c
03ba4     66 43 03 03 
03ba8     03 03 43 66 
03bac     3C 00 00 00 
03bb0     00 00 00 1F | 	byte	$66, $43, $03, $03, $03, $03, $43, $66, $3c, $00, $00, $00, $00, $00, $00, $1f
03bb4     36 66 66 66 
03bb8     66 66 66 36 
03bbc     1F 00 00 00 
03bc0     00 00 00 7F | 	byte	$36, $66, $66, $66, $66, $66, $66, $36, $1f, $00, $00, $00, $00, $00, $00, $7f
03bc4     66 46 16 1E 
03bc8     16 06 46 66 
03bcc     7F 00 00 00 
03bd0     00 00 00 7F | 	byte	$66, $46, $16, $1e, $16, $06, $46, $66, $7f, $00, $00, $00, $00, $00, $00, $7f
03bd4     66 46 16 1E 
03bd8     16 06 06 06 
03bdc     0F 00 00 00 
03be0     00 00 00 3C | 	byte	$66, $46, $16, $1e, $16, $06, $06, $06, $0f, $00, $00, $00, $00, $00, $00, $3c
03be4     66 43 03 03 
03be8     7B 63 63 66 
03bec     5C 00 00 00 
03bf0     00 00 00 63 | 	byte	$66, $43, $03, $03, $7b, $63, $63, $66, $5c, $00, $00, $00, $00, $00, $00, $63
03bf4     63 63 63 7F 
03bf8     63 63 63 63 
03bfc     63 00 00 00 
03c00     00 00 00 3C | 	byte	$63, $63, $63, $7f, $63, $63, $63, $63, $63, $00, $00, $00, $00, $00, $00, $3c
03c04     18 18 18 18 
03c08     18 18 18 18 | 	byte	$18[8]
03c0c     3C 00 00 00 
03c10     00 00 00 78 
03c14     30 30 30 30 
03c18     30 33 33 33 | 	byte	$3c, $00, $00, $00, $00, $00, $00, $78, $30, $30, $30, $30, $30, $33, $33, $33
03c1c     1E 00 00 00 
03c20     00 00 00 67 
03c24     66 66 36 1E 
03c28     1E 36 66 66 | 	byte	$1e, $00, $00, $00, $00, $00, $00, $67, $66, $66, $36, $1e, $1e, $36, $66, $66
03c2c     67 00 00 00 
03c30     00 00 00 0F 
03c34     06 06 06 06 
03c38     06 06 46 66 | 	byte	$67, $00, $00, $00, $00, $00, $00, $0f, $06, $06, $06, $06, $06, $06, $46, $66
03c3c     7F 00 00 00 
03c40     00 00 00 63 
03c44     77 7F 7F 6B 
03c48     63 63 63 63 | 	byte	$7f, $00, $00, $00, $00, $00, $00, $63, $77, $7f, $7f, $6b, $63, $63, $63, $63
03c4c     63 00 00 00 
03c50     00 00 00 63 
03c54     67 6F 7F 7B 
03c58     73 63 63 63 | 	byte	$63, $00, $00, $00, $00, $00, $00, $63, $67, $6f, $7f, $7b, $73, $63, $63, $63
03c5c     63 00 00 00 
03c60     00 00 00 3E 
03c64     63 63 63 63 
03c68     63 63 63 63 | 	byte	$63, $00, $00, $00, $00, $00, $00, $3e, $63, $63, $63, $63, $63, $63, $63, $63
03c6c     3E 00 00 00 
03c70     00 00 00 3F 
03c74     66 66 66 3E 
03c78     06 06 06 06 | 	byte	$3e, $00, $00, $00, $00, $00, $00, $3f, $66, $66, $66, $3e, $06, $06, $06, $06
03c7c     0F 00 00 00 
03c80     00 00 00 3E 
03c84     63 63 63 63 
03c88     63 63 6B 7B | 	byte	$0f, $00, $00, $00, $00, $00, $00, $3e, $63, $63, $63, $63, $63, $63, $6b, $7b
03c8c     3E 30 70 00 
03c90     00 00 00 3F 
03c94     66 66 66 3E 
03c98     36 66 66 66 | 	byte	$3e, $30, $70, $00, $00, $00, $00, $3f, $66, $66, $66, $3e, $36, $66, $66, $66
03c9c     67 00 00 00 
03ca0     00 00 00 3E 
03ca4     63 63 06 1C 
03ca8     30 60 63 63 | 	byte	$67, $00, $00, $00, $00, $00, $00, $3e, $63, $63, $06, $1c, $30, $60, $63, $63
03cac     3E 00 00 00 
03cb0     00 00 00 7E 
03cb4     7E 5A 18 18 
03cb8     18 18 18 18 | 	byte	$3e, $00, $00, $00, $00, $00, $00, $7e, $7e, $5a, $18, $18, $18, $18, $18, $18
03cbc     3C 00 00 00 
03cc0     00 00 00 63 
03cc4     63 63 63 63 
03cc8     63 63 63 63 | 	byte	$3c, $00, $00, $00, $00, $00, $00, $63, $63, $63, $63, $63, $63, $63, $63, $63
03ccc     3E 00 00 00 
03cd0     00 00 00 63 
03cd4     63 63 63 63 
03cd8     63 63 36 1C | 	byte	$3e, $00, $00, $00, $00, $00, $00, $63, $63, $63, $63, $63, $63, $63, $36, $1c
03cdc     08 00 00 00 
03ce0     00 00 00 63 
03ce4     63 63 63 6B 
03ce8     6B 6B 7F 77 | 	byte	$08, $00, $00, $00, $00, $00, $00, $63, $63, $63, $63, $6b, $6b, $6b, $7f, $77
03cec     36 00 00 00 
03cf0     00 00 00 63 
03cf4     63 36 3E 1C 
03cf8     1C 3E 36 63 | 	byte	$36, $00, $00, $00, $00, $00, $00, $63, $63, $36, $3e, $1c, $1c, $3e, $36, $63
03cfc     63 00 00 00 
03d00     00 00 00 66 
03d04     66 66 66 3C 
03d08     18 18 18 18 | 	byte	$63, $00, $00, $00, $00, $00, $00, $66, $66, $66, $66, $3c, $18, $18, $18, $18
03d0c     3C 00 00 00 
03d10     00 00 00 7F 
03d14     63 61 30 18 
03d18     0C 06 43 63 | 	byte	$3c, $00, $00, $00, $00, $00, $00, $7f, $63, $61, $30, $18, $0c, $06, $43, $63
03d1c     7F 00 00 00 
03d20     00 00 00 3C 
03d24     0C 0C 0C 0C 
03d28     0C 0C 0C 0C | 	byte	$7f, $00, $00, $00, $00, $00, $00, $3c, $0c, $0c, $0c, $0c, $0c, $0c, $0c, $0c
03d2c     3C 00 00 00 
03d30     00 00 00 00 
03d34     01 03 07 0E 
03d38     1C 38 70 60 | 	byte	$3c, $00, $00, $00, $00, $00, $00, $00, $01, $03, $07, $0e, $1c, $38, $70, $60
03d3c     40 00 00 00 
03d40     00 00 00 3C 
03d44     30 30 30 30 
03d48     30 30 30 30 | 	byte	$40, $00, $00, $00, $00, $00, $00, $3c, $30, $30, $30, $30, $30, $30, $30, $30
03d4c     3C 00 00 00 
03d50     1C 36 00 00 
03d54     00 00 00 00 
03d58     00 00 00 00 | 	byte	$3c, $00, $00, $00, $1c, $36, $00, $00, $00, $00, $00, $00, $00, $00, $00, $00
03d5c     00 00 00 00 
03d60     00 00 00 00 
03d64     00 00 00 00 
03d68     00 00 00 00 
03d6c     00          | 	byte	$00[17]
03d6d     FF 00 00 0C 
03d71     18 00 00 00 
03d75     00 00 00 00 
03d79     00 00 00 00 | 	byte	$ff, $00, $00, $0c, $18, $00, $00, $00, $00, $00, $00, $00, $00, $00, $00, $00
03d7d     00 00 00 00 
03d81     00 00 00 00 
03d85     00          | 	byte	$00[9]
03d86     1E 30 3E 33 
03d8a     33 33 6E 00 
03d8e     00 00 00 00 
03d92     00 07 06 06 | 	byte	$1e, $30, $3e, $33, $33, $33, $6e, $00, $00, $00, $00, $00, $00, $07, $06, $06
03d96     1E 36 66 66 
03d9a     66 66 3E 00 
03d9e     00 00 00 00 
03da2     00 00 00 00 | 	byte	$1e, $36, $66, $66, $66, $66, $3e, $00, $00, $00, $00, $00, $00, $00, $00, $00
03da6     3E 63 03 03 
03daa     03 63 3E 00 
03dae     00 00 00 00 
03db2     00 38 30 30 | 	byte	$3e, $63, $03, $03, $03, $63, $3e, $00, $00, $00, $00, $00, $00, $38, $30, $30
03db6     3C 36 33 33 
03dba     33 33 6E 00 
03dbe     00 00 00 00 
03dc2     00 00 00 00 | 	byte	$3c, $36, $33, $33, $33, $33, $6e, $00, $00, $00, $00, $00, $00, $00, $00, $00
03dc6     3E 63 7F 03 
03dca     03 63 3E 00 
03dce     00 00 00 00 
03dd2     00 38 6C 4C | 	byte	$3e, $63, $7f, $03, $03, $63, $3e, $00, $00, $00, $00, $00, $00, $38, $6c, $4c
03dd6     0C 1E 0C 0C 
03dda     0C 0C 1E 00 
03dde     00 00 00 00 
03de2     00 00 00 00 | 	byte	$0c, $1e, $0c, $0c, $0c, $0c, $1e, $00, $00, $00, $00, $00, $00, $00, $00, $00
03de6     6E 33 33 33 
03dea     33 33 3E 30 
03dee     33 1E 00 00 
03df2     00 07 06 06 | 	byte	$6e, $33, $33, $33, $33, $33, $3e, $30, $33, $1e, $00, $00, $00, $07, $06, $06
03df6     36 6E 66 66 
03dfa     66 66 67 00 
03dfe     00 00 00 00 
03e02     00 18 18 00 | 	byte	$36, $6e, $66, $66, $66, $66, $67, $00, $00, $00, $00, $00, $00, $18, $18, $00
03e06     1C 18 18 18 
03e0a     18 18 3C 00 
03e0e     00 00 00 00 
03e12     00 60 60 00 | 	byte	$1c, $18, $18, $18, $18, $18, $3c, $00, $00, $00, $00, $00, $00, $60, $60, $00
03e16     70 60 60 60 
03e1a     60 60 60 66 
03e1e     66 3C 00 00 
03e22     00 07 06 06 | 	byte	$70, $60, $60, $60, $60, $60, $60, $66, $66, $3c, $00, $00, $00, $07, $06, $06
03e26     66 36 1E 1E 
03e2a     36 66 67 00 
03e2e     00 00 00 00 
03e32     00 1C 18 18 | 	byte	$66, $36, $1e, $1e, $36, $66, $67, $00, $00, $00, $00, $00, $00, $1c, $18, $18
03e36     18 18 18 18 
03e3a     18 18       | 	byte	$18[6]
03e3c     3C 00 00 00 
03e40     00 00 00 00 
03e44     00 00 37 7F 
03e48     6B 6B 6B 6B | 	byte	$3c, $00, $00, $00, $00, $00, $00, $00, $00, $00, $37, $7f, $6b, $6b, $6b, $6b
03e4c     63 00 00 00 
03e50     00 00 00 00 
03e54     00 00 3B 66 
03e58     66 66 66 66 | 	byte	$63, $00, $00, $00, $00, $00, $00, $00, $00, $00, $3b, $66, $66, $66, $66, $66
03e5c     66 00 00 00 
03e60     00 00 00 00 
03e64     00 00 3E 63 
03e68     63 63 63 63 | 	byte	$66, $00, $00, $00, $00, $00, $00, $00, $00, $00, $3e, $63, $63, $63, $63, $63
03e6c     3E 00 00 00 
03e70     00 00 00 00 
03e74     00 00 3B 66 
03e78     66 66 66 66 | 	byte	$3e, $00, $00, $00, $00, $00, $00, $00, $00, $00, $3b, $66, $66, $66, $66, $66
03e7c     3E 06 06 0F 
03e80     00 00 00 00 
03e84     00 00 6E 33 
03e88     33 33 33 33 | 	byte	$3e, $06, $06, $0f, $00, $00, $00, $00, $00, $00, $6e, $33, $33, $33, $33, $33
03e8c     3E 30 30 78 
03e90     00 00 00 00 
03e94     00 00 3B 6E 
03e98     66 06 06 06 | 	byte	$3e, $30, $30, $78, $00, $00, $00, $00, $00, $00, $3b, $6e, $66, $06, $06, $06
03e9c     0F 00 00 00 
03ea0     00 00 00 00 
03ea4     00 00 3E 63 
03ea8     06 1C 30 63 | 	byte	$0f, $00, $00, $00, $00, $00, $00, $00, $00, $00, $3e, $63, $06, $1c, $30, $63
03eac     3E 00 00 00 
03eb0     00 00 00 08 
03eb4     0C 0C 3F 0C 
03eb8     0C 0C 0C 6C | 	byte	$3e, $00, $00, $00, $00, $00, $00, $08, $0c, $0c, $3f, $0c, $0c, $0c, $0c, $6c
03ebc     38 00 00 00 
03ec0     00 00 00 00 
03ec4     00 00 33 33 
03ec8     33 33 33 33 | 	byte	$38, $00, $00, $00, $00, $00, $00, $00, $00, $00, $33, $33, $33, $33, $33, $33
03ecc     6E 00 00 00 
03ed0     00 00 00 00 
03ed4     00 00 63 63 
03ed8     63 63 63 36 | 	byte	$6e, $00, $00, $00, $00, $00, $00, $00, $00, $00, $63, $63, $63, $63, $63, $36
03edc     1C 00 00 00 
03ee0     00 00 00 00 
03ee4     00 00 63 63 
03ee8     6B 6B 6B 7F | 	byte	$1c, $00, $00, $00, $00, $00, $00, $00, $00, $00, $63, $63, $6b, $6b, $6b, $7f
03eec     36 00 00 00 
03ef0     00 00 00 00 
03ef4     00 00 63 36 
03ef8     1C 1C 1C 36 | 	byte	$36, $00, $00, $00, $00, $00, $00, $00, $00, $00, $63, $36, $1c, $1c, $1c, $36
03efc     63 00 00 00 
03f00     00 00 00 00 
03f04     00 00 63 63 
03f08     63 63 63 63 | 	byte	$63, $00, $00, $00, $00, $00, $00, $00, $00, $00, $63, $63, $63, $63, $63, $63
03f0c     7E 60 30 1F 
03f10     00 00 00 00 
03f14     00 00 7F 33 
03f18     18 0C 06 63 | 	byte	$7e, $60, $30, $1f, $00, $00, $00, $00, $00, $00, $7f, $33, $18, $0c, $06, $63
03f1c     7F 00 00 00 
03f20     00 00 00 70 
03f24     18 18 18 0E 
03f28     18 18 18 18 | 	byte	$7f, $00, $00, $00, $00, $00, $00, $70, $18, $18, $18, $0e, $18, $18, $18, $18
03f2c     70 00 00 00 
03f30     00 00 00 18 
03f34     18 18 18 18 
03f38     18 18 18 18 | 	byte	$70, $00, $00, $00, $00, $00, $00, $18, $18, $18, $18, $18, $18, $18, $18, $18
03f3c     18 00 00 00 
03f40     00 00 00 0E 
03f44     18 18 18 70 
03f48     18 18 18 18 | 	byte	$18, $00, $00, $00, $00, $00, $00, $0e, $18, $18, $18, $70, $18, $18, $18, $18
03f4c     0E 00 00 00 
03f50     6E 3B 00 00 
03f54     00 00 00 00 
03f58     00 00 00 00 | 	byte	$0e, $00, $00, $00, $6e, $3b, $00, $00, $00, $00, $00, $00, $00, $00, $00, $00
03f5c     00 00 00 00 
03f60     00 00 00 00 
03f64     00 00       | 	byte	$00[10]
03f66     08 1C 36 63 
03f6a     63 63 7F 00 
03f6e     00 00 00 00 
03f72     00 3C 66 43 | 	byte	$08, $1c, $36, $63, $63, $63, $7f, $00, $00, $00, $00, $00, $00, $3c, $66, $43
03f76     03 03 03 03 
03f7a     43 66 3C 18 
03f7e     30 1E 00 00 
03f82     00 00 33 00 | 	byte	$03, $03, $03, $03, $43, $66, $3c, $18, $30, $1e, $00, $00, $00, $00, $33, $00
03f86     33 33 33 33 
03f8a     33 33       | 	byte	$33[6]
03f8c     6E 00 00 00 
03f90     00 00 60 30 
03f94     18 00 3E 63 
03f98     7F 03 03 63 | 	byte	$6e, $00, $00, $00, $00, $00, $60, $30, $18, $00, $3e, $63, $7f, $03, $03, $63
03f9c     3E 00 00 00 
03fa0     00 00 08 1C 
03fa4     36 00 1E 30 
03fa8     3E 33 33 33 | 	byte	$3e, $00, $00, $00, $00, $00, $08, $1c, $36, $00, $1e, $30, $3e, $33, $33, $33
03fac     6E 00 00 00 
03fb0     00 00 00 00 
03fb4     33 00 1E 30 
03fb8     3E 33 33 33 | 	byte	$6e, $00, $00, $00, $00, $00, $00, $00, $33, $00, $1e, $30, $3e, $33, $33, $33
03fbc     6E 00 00 00 
03fc0     00 00 1C 36 
03fc4     1C 00 33 33 
03fc8     33 33 33 33 | 	byte	$6e, $00, $00, $00, $00, $00, $1c, $36, $1c, $00, $33, $33, $33, $33, $33, $33
03fcc     6E 00 00 00 
03fd0     00 00 60 30 
03fd4     18 00 3E 63 
03fd8     03 03 03 63 | 	byte	$6e, $00, $00, $00, $00, $00, $60, $30, $18, $00, $3e, $63, $03, $03, $03, $63
03fdc     3E 00 00 00 
03fe0     00 00 00 00 
03fe4     00 00 3E 63 
03fe8     03 03 03 63 | 	byte	$3e, $00, $00, $00, $00, $00, $00, $00, $00, $00, $3e, $63, $03, $03, $03, $63
03fec     3E 18 30 1E 
03ff0     00 00 00 1C 
03ff4     58 78 38 18 
03ff8     1C 1E 1A 18 | 	byte	$3e, $18, $30, $1e, $00, $00, $00, $1c, $58, $78, $38, $18, $1c, $1e, $1a, $18
03ffc     3C 00 00 00 
04000     00 00 00 00 
04004     63 00 3E 63 
04008     7F 03 03 63 | 	byte	$3c, $00, $00, $00, $00, $00, $00, $00, $63, $00, $3e, $63, $7f, $03, $03, $63
0400c     3E 00 00 00 
04010     66 33 00 3E 
04014     63 63 63 63 
04018     63 63 63 63 | 	byte	$3e, $00, $00, $00, $66, $33, $00, $3e, $63, $63, $63, $63, $63, $63, $63, $63
0401c     3E 00 00 00 
04020     00 00 CC 66 
04024     33 00 3E 63 
04028     63 63 63 63 | 	byte	$3e, $00, $00, $00, $00, $00, $cc, $66, $33, $00, $3e, $63, $63, $63, $63, $63
0402c     3E 00 00 00 
04030     00 00 18 3C 
04034     66 00 1C 18 
04038     18 18 18 18 | 	byte	$3e, $00, $00, $00, $00, $00, $18, $3c, $66, $00, $1c, $18, $18, $18, $18, $18
0403c     3C 00 00 00 
04040     30 18 00 7F 
04044     63 61 30 18 
04048     0C 06 43 63 | 	byte	$3c, $00, $00, $00, $30, $18, $00, $7f, $63, $61, $30, $18, $0c, $06, $43, $63
0404c     7F 00 00 00 
04050     00 63 00 08 
04054     1C 36 63 63 
04058     7F 63 63 63 | 	byte	$7f, $00, $00, $00, $00, $63, $00, $08, $1c, $36, $63, $63, $7f, $63, $63, $63
0405c     63 00 00 00 
04060     30 18 00 3C 
04064     66 43 03 03 
04068     03 03 43 66 | 	byte	$63, $00, $00, $00, $30, $18, $00, $3c, $66, $43, $03, $03, $03, $03, $43, $66
0406c     3C 00 00 00 
04070     30 18 00 7F 
04074     66 46 16 1E 
04078     16 06 46 66 | 	byte	$3c, $00, $00, $00, $30, $18, $00, $7f, $66, $46, $16, $1e, $16, $06, $46, $66
0407c     7F 00 00 00 
04080     0C 06 00 0F 
04084     06 06 06 06 
04088     06 06 46 66 | 	byte	$7f, $00, $00, $00, $0c, $06, $00, $0f, $06, $06, $06, $06, $06, $06, $46, $66
0408c     7F 00 00 00 
04090     30 18 00 1C 
04094     18 18 18 18 
04098     18 18 18 18 | 	byte	$7f, $00, $00, $00, $30, $18, $00, $1c, $18, $18, $18, $18, $18, $18, $18, $18
0409c     3C 00 00 00 
040a0     00 00 08 1C 
040a4     36 00 3E 63 
040a8     63 63 63 63 | 	byte	$3c, $00, $00, $00, $00, $00, $08, $1c, $36, $00, $3e, $63, $63, $63, $63, $63
040ac     3E 00 00 00 
040b0     00 00 00 00 
040b4     63 00 3E 63 
040b8     63 63 63 63 | 	byte	$3e, $00, $00, $00, $00, $00, $00, $00, $63, $00, $3e, $63, $63, $63, $63, $63
040bc     3E 00 00 00 
040c0     00 00 00 6F 
040c4     46 26 06 06 
040c8     06 06 46 66 | 	byte	$3e, $00, $00, $00, $00, $00, $00, $6f, $46, $26, $06, $06, $06, $06, $46, $66
040cc     7F 00 00 00 
040d0     00 00 00 6E 
040d4     4C 2C 0C 0C 
040d8     0C 0C 0C 0C | 	byte	$7f, $00, $00, $00, $00, $00, $00, $6e, $4c, $2c, $0c, $0c, $0c, $0c, $0c, $0c
040dc     1E 00 00 00 
040e0     30 18 00 3E 
040e4     63 63 06 1C 
040e8     30 60 63 63 | 	byte	$1e, $00, $00, $00, $30, $18, $00, $3e, $63, $63, $06, $1c, $30, $60, $63, $63
040ec     3E 00 00 00 
040f0     00 00 60 30 
040f4     18 00 3E 63 
040f8     06 1C 30 63 | 	byte	$3e, $00, $00, $00, $00, $00, $60, $30, $18, $00, $3e, $63, $06, $1c, $30, $63
040fc     3E 00 00 00 
04100     00 63 00 3E 
04104     63 63 63 63 
04108     63 63 63 63 | 	byte	$3e, $00, $00, $00, $00, $63, $00, $3e, $63, $63, $63, $63, $63, $63, $63, $63
0410c     3E 00 00 00 
04110     00 63 00 63 
04114     63 63 63 63 
04118     63 63 63 63 | 	byte	$3e, $00, $00, $00, $00, $63, $00, $63, $63, $63, $63, $63, $63, $63, $63, $63
0411c     3E 00 00 00 
04120     6C 38 00 7E 
04124     7E 5A 18 18 
04128     18 18 18 18 | 	byte	$3e, $00, $00, $00, $6c, $38, $00, $7e, $7e, $5a, $18, $18, $18, $18, $18, $18
0412c     3C 00 00 00 
04130     00 00 60 48 
04134     2C 0C 3F 0C 
04138     0C 0C 0C 6C | 	byte	$3c, $00, $00, $00, $00, $00, $60, $48, $2c, $0c, $3f, $0c, $0c, $0c, $0c, $6c
0413c     38 00 00 00 
04140     00 00 00 0F 
04144     26 36 1E 0E 
04148     07 07 46 66 | 	byte	$38, $00, $00, $00, $00, $00, $00, $0f, $26, $36, $1e, $0e, $07, $07, $46, $66
0414c     7F 00 00 00 
04150     00 00 00 00 
04154     00 63 36 1C 
04158     1C 36 63 00 | 	byte	$7f, $00, $00, $00, $00, $00, $00, $00, $00, $63, $36, $1c, $1c, $36, $63, $00
0415c     00 00 00 00 
04160     00 00       | 	byte	$00[6]
04162     36 1C 08 00 
04166     3E 63 03 03 
0416a     03 63 3E 00 
0416e     00 00 00 00 | 	byte	$36, $1c, $08, $00, $3e, $63, $03, $03, $03, $63, $3e, $00, $00, $00, $00, $00
04172     30 18 0C 00 
04176     1E 30 3E 33 
0417a     33 33 6E 00 
0417e     00 00 00 00 | 	byte	$30, $18, $0c, $00, $1e, $30, $3e, $33, $33, $33, $6e, $00, $00, $00, $00, $00
04182     60 30 18 00 
04186     1C 18 18 18 
0418a     18 18 3C 00 
0418e     00 00 00 00 | 	byte	$60, $30, $18, $00, $1c, $18, $18, $18, $18, $18, $3c, $00, $00, $00, $00, $00
04192     60 30 18 00 
04196     3E 63 63 63 
0419a     63 63 3E 00 
0419e     00 00 00 00 | 	byte	$60, $30, $18, $00, $3e, $63, $63, $63, $63, $63, $3e, $00, $00, $00, $00, $00
041a2     30 18 0C 00 
041a6     33 33 33 33 
041aa     33 33 6E 00 
041ae     00 00 00 00 | 	byte	$30, $18, $0c, $00, $33, $33, $33, $33, $33, $33, $6e, $00, $00, $00, $00, $00
041b2     00 08 1C 36 
041b6     63 63 7F 63 
041ba     63 63 63 18 
041be     0C 78 00 00 | 	byte	$00, $08, $1c, $36, $63, $63, $7f, $63, $63, $63, $63, $18, $0c, $78, $00, $00
041c2     00 00 00 00 
041c6     1E 30 3E 33 
041ca     33 33 6E 18 
041ce     0C 78 36 1C | 	byte	$00, $00, $00, $00, $1e, $30, $3e, $33, $33, $33, $6e, $18, $0c, $78, $36, $1c
041d2     00 7F 63 61 
041d6     30 18 0C 06 
041da     43 63 7F 00 
041de     00 00 00 00 | 	byte	$00, $7f, $63, $61, $30, $18, $0c, $06, $43, $63, $7f, $00, $00, $00, $00, $00
041e2     36 1C 08 00 
041e6     7F 33 18 0C 
041ea     06 63 7F 00 
041ee     00 00 00 00 | 	byte	$36, $1c, $08, $00, $7f, $33, $18, $0c, $06, $63, $7f, $00, $00, $00, $00, $00
041f2     00 7F 66 46 
041f6     16 1E 16 06 
041fa     46 66 7F 18 
041fe     0C 78 00 00 | 	byte	$00, $7f, $66, $46, $16, $1e, $16, $06, $46, $66, $7f, $18, $0c, $78, $00, $00
04202     00 00 00 00 
04206     3E 63 7F 03 
0420a     03 63 3E 18 
0420e     0C 78 00 00 | 	byte	$00, $00, $00, $00, $3e, $63, $7f, $03, $03, $63, $3e, $18, $0c, $78, $00, $00
04212     00 3C 66 03 
04216     1F 03 0F 03 
0421a     03 66 3C 00 
0421e     00 00 00 00 | 	byte	$00, $3c, $66, $03, $1f, $03, $0f, $03, $03, $66, $3c, $00, $00, $00, $00, $00
04222     60 30 18 00 
04226     7F 33 18 0C 
0422a     06 63 7F 00 
0422e     00 00 6C 38 | 	byte	$60, $30, $18, $00, $7f, $33, $18, $0c, $06, $63, $7f, $00, $00, $00, $6c, $38
04232     00 3C 66 43 
04236     03 03 03 03 
0423a     43 66 3C 00 
0423e     00 00 00 00 | 	byte	$00, $3c, $66, $43, $03, $03, $03, $03, $43, $66, $3c, $00, $00, $00, $00, $00
04242     00 00 00 00 
04246     3E 63 06 1C 
0424a     30 63 3E 18 
0424e     30 1E 00 00 | 	byte	$00, $00, $00, $00, $3e, $63, $06, $1c, $30, $63, $3e, $18, $30, $1e, $00, $00
04252     00 00 00 00 
04256     00 00       | 	byte	$00[6]
04258     6C 36 1B 36 
0425c     6C 00 00 00 
04260     00 00 00 00 
04264     00 00 00 00 | 	byte	$6c, $36, $1b, $36, $6c, $00, $00, $00, $00, $00, $00, $00, $00, $00, $00, $00
04268     1B 36 6C 36 
0426c     1B 00 00 00 
04270     88 22 88 22 
04274     88 22 88 22 | 	byte	$1b, $36, $6c, $36, $1b, $00, $00, $00, $88, $22, $88, $22, $88, $22, $88, $22
04278     88 22 88 22 
0427c     88 22 88 22 
04280     AA 55 AA 55 
04284     AA 55 AA 55 | 	byte	$88, $22, $88, $22, $88, $22, $88, $22, $aa, $55, $aa, $55, $aa, $55, $aa, $55
04288     AA 55 AA 55 
0428c     AA 55 AA 55 
04290     BB EE BB EE 
04294     BB EE BB EE | 	byte	$aa, $55, $aa, $55, $aa, $55, $aa, $55, $bb, $ee, $bb, $ee, $bb, $ee, $bb, $ee
04298     BB EE BB EE 
0429c     BB EE BB EE 
042a0     18 18 18 18 
042a4     18 18 18 18 | 	byte	$bb, $ee, $bb, $ee, $bb, $ee, $bb, $ee, $18, $18, $18, $18, $18, $18, $18, $18
042a8     18 18 18 18 
042ac     18 18 18 18 
042b0     18 18 18 18 
042b4     18 18 18    | 	byte	$18[15]
042b7     1F 18 18 18 
042bb     18 18 18 18 
042bf     18 30 18 00 
042c3     08 1C 36 63 | 	byte	$1f, $18, $18, $18, $18, $18, $18, $18, $18, $30, $18, $00, $08, $1c, $36, $63
042c7     63 7F 63 63 
042cb     63 63 00 00 
042cf     00 1C 36 00 
042d3     08 1C 36 63 | 	byte	$63, $7f, $63, $63, $63, $63, $00, $00, $00, $1c, $36, $00, $08, $1c, $36, $63
042d7     63 7F 63 63 
042db     63 63 00 00 
042df     00 36 1C 00 
042e3     7F 66 46 16 | 	byte	$63, $7f, $63, $63, $63, $63, $00, $00, $00, $36, $1c, $00, $7f, $66, $46, $16
042e7     1E 16 06 46 
042eb     66 7F 00 00 
042ef     00 00 00 00 
042f3     3E 63 63 06 | 	byte	$1e, $16, $06, $46, $66, $7f, $00, $00, $00, $00, $00, $00, $3e, $63, $63, $06
042f7     1C 30 60 63 
042fb     63 3E 18 30 
042ff     1E 6C 6C 6C 
04303     6C 6C 6F 60 | 	byte	$1c, $30, $60, $63, $63, $3e, $18, $30, $1e, $6c, $6c, $6c, $6c, $6c, $6f, $60
04307     6F 6C 6C 6C 
0430b     6C 6C 6C 6C 
0430f     6C 6C 6C 6C 
04313     6C 6C 6C 6C | 	byte	$6f, $6c, $6c, $6c, $6c, $6c, $6c, $6c, $6c, $6c, $6c, $6c, $6c, $6c, $6c, $6c
04317     6C 6C 6C 6C 
0431b     6C 6C 6C 6C 
0431f     6C          | 	byte	$6c[9]
04320     00 00 00 00 
04324     00          | 	byte	$00[5]
04325     7F 60 6F 6C 
04329     6C 6C 6C 6C 
0432d     6C 6C 6C 6C 
04331     6C 6C 6C 6C | 	byte	$7f, $60, $6f, $6c, $6c, $6c, $6c, $6c, $6c, $6c, $6c, $6c, $6c, $6c, $6c, $6c
04335     6F 60 7F 00 
04339     00 00 00 00 
0433d     00 00 00 18 
04341     18 00 7F 63 | 	byte	$6f, $60, $7f, $00, $00, $00, $00, $00, $00, $00, $00, $18, $18, $00, $7f, $63
04345     61 30 18 0C 
04349     06 43 63 7F 
0434d     00 00 00 00 
04351     00 00 18 18 | 	byte	$61, $30, $18, $0c, $06, $43, $63, $7f, $00, $00, $00, $00, $00, $00, $18, $18
04355     00 7F 33 18 
04359     0C 06 63 7F 
0435d     00 00 00 00 
04361     00 00 00 00 | 	byte	$00, $7f, $33, $18, $0c, $06, $63, $7f, $00, $00, $00, $00, $00, $00, $00, $00
04365     00 00 1F 18 
04369     18 18 18 18 
0436d     18 18 18 18 
04371     18 18 18 18 | 	byte	$00, $00, $1f, $18, $18, $18, $18, $18, $18, $18, $18, $18, $18, $18, $18, $18
04375     18 18 F8 00 
04379     00 00 00 00 
0437d     00 00 00 18 
04381     18 18 18 18 | 	byte	$18, $18, $f8, $00, $00, $00, $00, $00, $00, $00, $00, $18, $18, $18, $18, $18
04385     18 18 FF 00 
04389     00 00 00 00 
0438d     00 00 00 00 
04391     00 00 00 00 | 	byte	$18, $18, $ff, $00, $00, $00, $00, $00, $00, $00, $00, $00, $00, $00, $00, $00
04395     00 00 FF 18 
04399     18 18 18 18 
0439d     18 18 18 18 
043a1     18 18 18 18 | 	byte	$00, $00, $ff, $18, $18, $18, $18, $18, $18, $18, $18, $18, $18, $18, $18, $18
043a5     18 18 F8 18 
043a9     18 18 18 18 
043ad     18 18 18 00 
043b1     00 00 00 00 | 	byte	$18, $18, $f8, $18, $18, $18, $18, $18, $18, $18, $18, $00, $00, $00, $00, $00
043b5     00 00 FF 00 
043b9     00 00 00 00 
043bd     00 00 00 18 
043c1     18 18 18 18 | 	byte	$00, $00, $ff, $00, $00, $00, $00, $00, $00, $00, $00, $18, $18, $18, $18, $18
043c5     18 18 FF 18 
043c9     18 18 18 18 
043cd     18 18 18 63 
043d1     3E 00 08 1C | 	byte	$18, $18, $ff, $18, $18, $18, $18, $18, $18, $18, $18, $63, $3e, $00, $08, $1c
043d5     36 63 63 7F 
043d9     63 63 63 63 
043dd     00 00 00 00 
043e1     00 00 63 3E | 	byte	$36, $63, $63, $7f, $63, $63, $63, $63, $00, $00, $00, $00, $00, $00, $63, $3e
043e5     00 1E 30 3E 
043e9     33 33 33 6E 
043ed     00 00 00 6C 
043f1     6C 6C 6C 6C | 	byte	$00, $1e, $30, $3e, $33, $33, $33, $6e, $00, $00, $00, $6c, $6c, $6c, $6c, $6c
043f5     EC 0C FC 00 
043f9     00 00 00 00 
043fd     00 00 00 00 
04401     00 00 00 00 | 	byte	$ec, $0c, $fc, $00, $00, $00, $00, $00, $00, $00, $00, $00, $00, $00, $00, $00
04405     FC 0C EC 6C 
04409     6C 6C 6C 6C 
0440d     6C 6C 6C 6C 
04411     6C 6C 6C 6C | 	byte	$fc, $0c, $ec, $6c, $6c, $6c, $6c, $6c, $6c, $6c, $6c, $6c, $6c, $6c, $6c, $6c
04415     EF 00 FF 00 
04419     00 00 00 00 
0441d     00 00 00 00 
04421     00 00 00 00 | 	byte	$ef, $00, $ff, $00, $00, $00, $00, $00, $00, $00, $00, $00, $00, $00, $00, $00
04425     FF 00 EF 6C 
04429     6C 6C 6C 6C 
0442d     6C 6C 6C 6C 
04431     6C 6C 6C 6C | 	byte	$ff, $00, $ef, $6c, $6c, $6c, $6c, $6c, $6c, $6c, $6c, $6c, $6c, $6c, $6c, $6c
04435     EC 0C EC 6C 
04439     6C 6C 6C 6C 
0443d     6C 6C 6C 00 
04441     00 00 00 00 | 	byte	$ec, $0c, $ec, $6c, $6c, $6c, $6c, $6c, $6c, $6c, $6c, $00, $00, $00, $00, $00
04445     FF 00 FF 00 
04449     00 00 00 00 
0444d     00 00 00 6C 
04451     6C 6C 6C 6C | 	byte	$ff, $00, $ff, $00, $00, $00, $00, $00, $00, $00, $00, $6c, $6c, $6c, $6c, $6c
04455     EF 00 EF 6C 
04459     6C 6C 6C 6C 
0445d     6C 6C 6C 00 
04461     00 00 00 00 | 	byte	$ef, $00, $ef, $6c, $6c, $6c, $6c, $6c, $6c, $6c, $6c, $00, $00, $00, $00, $00
04465     63 3E 63 63 
04469     63 63 3E 63 
0446d     00 00 00 00 
04471     00 00 30 7E | 	byte	$63, $3e, $63, $63, $63, $63, $3e, $63, $00, $00, $00, $00, $00, $00, $30, $7e
04475     30 3C 36 33 
04479     33 33 33 6E 
0447d     00 00 00 00 
04481     00 00 1F 36 | 	byte	$30, $3c, $36, $33, $33, $33, $33, $6e, $00, $00, $00, $00, $00, $00, $1f, $36
04485     66 66 6F 66 
04489     66 66 36 1F 
0448d     00 00 00 36 
04491     1C 00 1F 36 | 	byte	$66, $66, $6f, $66, $66, $66, $36, $1f, $00, $00, $00, $36, $1c, $00, $1f, $36
04495     66 66 66 66 
04499     66 66       | 	byte	$66[6]
0449b     36 1F 00 00 
0449f     00 00 63 00 
044a3     7F 66 46 16 
044a7     1E 16 06 46 | 	byte	$36, $1f, $00, $00, $00, $00, $63, $00, $7f, $66, $46, $16, $1e, $16, $06, $46
044ab     66 7F 00 00 
044af     00 6C 38 00 
044b3     38 30 30 3C 
044b7     36 33 33 33 | 	byte	$66, $7f, $00, $00, $00, $6c, $38, $00, $38, $30, $30, $3c, $36, $33, $33, $33
044bb     33 6E 00 00 
044bf     00 36 1C 00 
044c3     63 67 6F 7F 
044c7     7B 73 63 63 | 	byte	$33, $6e, $00, $00, $00, $36, $1c, $00, $63, $67, $6f, $7f, $7b, $73, $63, $63
044cb     63 63 00 00 
044cf     00 30 18 00 
044d3     3C 18 18 18 
044d7     18 18 18 18 | 	byte	$63, $63, $00, $00, $00, $30, $18, $00, $3c, $18, $18, $18, $18, $18, $18, $18
044db     18 3C 00 00 
044df     00 3C 66 00 
044e3     3C 18 18 18 
044e7     18 18 18 18 | 	byte	$18, $3c, $00, $00, $00, $3c, $66, $00, $3c, $18, $18, $18, $18, $18, $18, $18
044eb     18 3C 00 00 
044ef     00 00 00 36 
044f3     1C 08 00 3E 
044f7     63 7F 03 03 | 	byte	$18, $3c, $00, $00, $00, $00, $00, $36, $1c, $08, $00, $3e, $63, $7f, $03, $03
044fb     63 3E 00 00 
044ff     00 18 18 18 
04503     18 18 18 18 
04507     1F 00 00 00 | 	byte	$63, $3e, $00, $00, $00, $18, $18, $18, $18, $18, $18, $18, $1f, $00, $00, $00
0450b     00 00 00 00 
0450f     00 00 00 00 
04513     00 00 00 00 | 	byte	$00[12]
04517     F8 18 18 18 
0451b     18 18 18 18 
0451f     18 FF FF FF 
04523     FF FF FF FF | 	byte	$f8, $18, $18, $18, $18, $18, $18, $18, $18, $ff, $ff, $ff, $ff, $ff, $ff, $ff
04527     FF FF FF FF 
0452b     FF FF FF FF 
0452f     FF          | 	byte	$ff[9]
04530     00 00 00 00 
04534     00 00 00    | 	byte	$00[7]
04537     FF FF FF FF 
0453b     FF FF FF FF 
0453f     FF          | 	byte	$ff[9]
04540     00 00 00 7E 
04544     7E 5A 18 18 
04548     18 18 18 18 
0454c     3C 18 30 1E | 	byte	$00, $00, $00, $7e, $7e, $5a, $18, $18, $18, $18, $18, $18, $3c, $18, $30, $1e
04550     1C 36 1C 63 
04554     63 63 63 63 
04558     63 63 63 63 
0455c     3E 00 00 00 | 	byte	$1c, $36, $1c, $63, $63, $63, $63, $63, $63, $63, $63, $63, $3e, $00, $00, $00
04560     FF FF FF FF 
04564     FF FF FF    | 	byte	$ff[7]
04567     00 00 00 00 
0456b     00 00 00 00 
0456f     00          | 	byte	$00[9]
04570     30 18 00 3E 
04574     63 63 63 63 
04578     63 63 63 63 
0457c     3E 00 00 00 | 	byte	$30, $18, $00, $3e, $63, $63, $63, $63, $63, $63, $63, $63, $3e, $00, $00, $00
04580     00 00 00 1E 
04584     33 33 33 1B 
04588     33 63 63 63 
0458c     33 00 00 00 | 	byte	$00, $00, $00, $1e, $33, $33, $33, $1b, $33, $63, $63, $63, $33, $00, $00, $00
04590     1C 36 00 3E 
04594     63 63 63 63 
04598     63 63 63 63 
0459c     3E 00 00 00 | 	byte	$1c, $36, $00, $3e, $63, $63, $63, $63, $63, $63, $63, $63, $3e, $00, $00, $00
045a0     30 18 00 63 
045a4     67 6F 7F 7B 
045a8     73 63 63 63 
045ac     63 00 00 00 | 	byte	$30, $18, $00, $63, $67, $6f, $7f, $7b, $73, $63, $63, $63, $63, $00, $00, $00
045b0     00 00 60 30 
045b4     18 00 3B 66 
045b8     66 66 66 66 
045bc     66 00 00 00 | 	byte	$00, $00, $60, $30, $18, $00, $3b, $66, $66, $66, $66, $66, $66, $00, $00, $00
045c0     00 00 36 1C 
045c4     08 00 3B 66 
045c8     66 66 66 66 
045cc     66 00 00 00 | 	byte	$00, $00, $36, $1c, $08, $00, $3b, $66, $66, $66, $66, $66, $66, $00, $00, $00
045d0     36 1C 00 3E 
045d4     63 63 06 1C 
045d8     30 60 63 63 
045dc     3E 00 00 00 | 	byte	$36, $1c, $00, $3e, $63, $63, $06, $1c, $30, $60, $63, $63, $3e, $00, $00, $00
045e0     00 00 36 1C 
045e4     08 00 3E 63 
045e8     06 1C 30 63 
045ec     3E 00 00 00 | 	byte	$00, $00, $36, $1c, $08, $00, $3e, $63, $06, $1c, $30, $63, $3e, $00, $00, $00
045f0     30 18 00 3F 
045f4     66 66 66 3E 
045f8     36 66 66 66 
045fc     6F 00 00 00 | 	byte	$30, $18, $00, $3f, $66, $66, $66, $3e, $36, $66, $66, $66, $6f, $00, $00, $00
04600     30 18 00 63 
04604     63 63 63 63 
04608     63 63 63 63 
0460c     3E 00 00 00 | 	byte	$30, $18, $00, $63, $63, $63, $63, $63, $63, $63, $63, $63, $3e, $00, $00, $00
04610     00 00 60 30 
04614     18 00 3B 6E 
04618     66 06 06 06 
0461c     0F 00 00 00 | 	byte	$00, $00, $60, $30, $18, $00, $3b, $6e, $66, $06, $06, $06, $0f, $00, $00, $00
04620     66 33 00 63 
04624     63 63 63 63 
04628     63 63 63 63 
0462c     3E 00 00 00 | 	byte	$66, $33, $00, $63, $63, $63, $63, $63, $63, $63, $63, $63, $3e, $00, $00, $00
04630     00 00 60 30 
04634     18 00 63 63 
04638     63 63 63 63 
0463c     7E 60 30 1F | 	byte	$00, $00, $60, $30, $18, $00, $63, $63, $63, $63, $63, $63, $7e, $60, $30, $1f
04640     30 18 00 66 
04644     66 66 66 3C 
04648     18 18 18 18 
0464c     3C 00 00 00 | 	byte	$30, $18, $00, $66, $66, $66, $66, $3c, $18, $18, $18, $18, $3c, $00, $00, $00
04650     00 00 00 08 
04654     0C 0C 3F 0C 
04658     0C 0C 0C 6C 
0465c     38 18 30 1E | 	byte	$00, $00, $00, $08, $0c, $0c, $3f, $0c, $0c, $0c, $0c, $6c, $38, $18, $30, $1e
04660     30 18 00 00 
04664     00 00 00 00 
04668     00 00 00 00 
0466c     00 00 00 00 | 	byte	$30, $18, $00, $00, $00, $00, $00, $00, $00, $00, $00, $00, $00, $00, $00, $00
04670     00 00 00 00 
04674     00 00 00 00 | 	byte	$00[8]
04678     7F 00 00 00 
0467c     00 00 00 00 
04680     66 33 00 00 
04684     00 00 00 00 | 	byte	$7f, $00, $00, $00, $00, $00, $00, $00, $66, $33, $00, $00, $00, $00, $00, $00
04688     00 00 00 00 
0468c     00 00 00 00 
04690     00 00 00 00 
04694     00 00 00 00 
04698     00 00 00 00 
0469c     00          | 	byte	$00[21]
0469d     0C 06 3C 36 
046a1     1C 00 00 00 
046a5     00 00 00 00 
046a9     00 00 00 00 | 	byte	$0c, $06, $3c, $36, $1c, $00, $00, $00, $00, $00, $00, $00, $00, $00, $00, $00
046ad     00 00 00 63 
046b1     3E 00 00 00 
046b5     00 00 00 00 
046b9     00 00 00 00 | 	byte	$00, $00, $00, $63, $3e, $00, $00, $00, $00, $00, $00, $00, $00, $00, $00, $00
046bd     00 00 00 00 
046c1     3E 63 06 1C 
046c5     36 63 63 36 
046c9     1C 30 63 3E | 	byte	$00, $00, $00, $00, $3e, $63, $06, $1c, $36, $63, $63, $36, $1c, $30, $63, $3e
046cd     00 00 00 00 
046d1     00 00 00 00 | 	byte	$00[8]
046d5     18 00 7E 00 
046d9     18 00 00 00 
046dd     00 00 00 00 
046e1     00 00 00 00 | 	byte	$18, $00, $7e, $00, $18, $00, $00, $00, $00, $00, $00, $00, $00, $00, $00, $00
046e5     00 00 00 00 
046e9     00 00 00 00 | 	byte	$00[8]
046ed     18 30 1E 00 
046f1     00 00 1C 36 
046f5     36 1C 00 00 
046f9     00 00 00 00 | 	byte	$18, $30, $1e, $00, $00, $00, $1c, $36, $36, $1c, $00, $00, $00, $00, $00, $00
046fd     00 00 00 00 
04701     63 00 00 00 
04705     00 00 00 00 
04709     00 00 00 00 | 	byte	$00, $00, $00, $00, $63, $00, $00, $00, $00, $00, $00, $00, $00, $00, $00, $00
0470d     00 00 00 18 
04711     18 00 00 00 
04715     00 00 00 00 
04719     00 00 00 00 | 	byte	$00, $00, $00, $18, $18, $00, $00, $00, $00, $00, $00, $00, $00, $00, $00, $00
0471d     00 00 00 00 
04721     00          | 	byte	$00[5]
04722     CC 66 33 00 
04726     33 33 33 33 
0472a     33 33 6E 00 
0472e     00 00 36 1C | 	byte	$cc, $66, $33, $00, $33, $33, $33, $33, $33, $33, $6e, $00, $00, $00, $36, $1c
04732     00 3F 66 66 
04736     66 3E 36 66 
0473a     66 66 6F 00 
0473e     00 00 00 00 | 	byte	$00, $3f, $66, $66, $66, $3e, $36, $66, $66, $66, $6f, $00, $00, $00, $00, $00
04742     36 1C 08 00 
04746     3B 6E 66 06 
0474a     06 06 0F 00 
0474e     00 00 00 00 | 	byte	$36, $1c, $08, $00, $3b, $6e, $66, $06, $06, $06, $0f, $00, $00, $00, $00, $00
04752     00 00 00 7E 
04756     7E 7E 7E 7E 
0475a     7E 7E 00 00 
0475e     00 00 00 00 | 	byte	$00, $00, $00, $7e, $7e, $7e, $7e, $7e, $7e, $7e, $00, $00, $00, $00, $00, $00
04762     00 00 00 00 
04766     00 00 00 00 
0476a     00 00 00 00 
0476e     00 00       | 	byte	$00, $00, $00, $00, $00, $00, $00, $00, $00, $00, $00, $00, $00, $00
04770     00 00 00 00 
      ...             
047a0     00 00 00 00 
047a4     00 00 00    | st_font        file "st4font.def"
047a7     FF FF 00 00 
047ab     00 00 00 00 
047af     00 18 18 18 
047b3     18 18 18 18 | 	byte	$ff, $ff, $00, $00, $00, $00, $00, $00, $00, $18, $18, $18, $18, $18, $18, $18
047b7     18 18 18 18 
047bb     18 18 18 18 
047bf     18          | 	byte	$18[9]
047c0     00 00 00 00 
047c4     00 00 00    | 	byte	$00[7]
047c7     FF FF 18 18 
047cb     18 18 18 18 
047cf     18 18 18 18 
047d3     18 18 18 18 | 	byte	$ff, $ff, $18, $18, $18, $18, $18, $18, $18, $18, $18, $18, $18, $18, $18, $18
047d7     FF FF 00 00 
047db     00 00 00 00 
047df     00 18 18 18 
047e3     18 18 18 18 | 	byte	$ff, $ff, $00, $00, $00, $00, $00, $00, $00, $18, $18, $18, $18, $18, $18, $18
047e7     1F 1F 18 18 
047eb     18 18 18 18 
047ef     18 18 18 18 
047f3     18 18 18 18 | 	byte	$1f, $1f, $18, $18, $18, $18, $18, $18, $18, $18, $18, $18, $18, $18, $18, $18
047f7     F8 F8 18 18 
047fb     18 18 18 18 
047ff     18 00 00 00 
04803     00 00 00 00 | 	byte	$f8, $f8, $18, $18, $18, $18, $18, $18, $18, $00, $00, $00, $00, $00, $00, $00
04807     1F 1F 18 18 
0480b     18 18 18 18 
0480f     18 00 00 00 
04813     00 00 00 00 | 	byte	$1f, $1f, $18, $18, $18, $18, $18, $18, $18, $00, $00, $00, $00, $00, $00, $00
04817     F8 F8 18 18 
0481b     18 18 18 18 
0481f     18 18 18 18 
04823     18 18 18 18 | 	byte	$f8, $f8, $18, $18, $18, $18, $18, $18, $18, $18, $18, $18, $18, $18, $18, $18
04827     1F 1F 00 00 
0482b     00 00 00 00 
0482f     00 18 18 18 
04833     18 18 18 18 | 	byte	$1f, $1f, $00, $00, $00, $00, $00, $00, $00, $18, $18, $18, $18, $18, $18, $18
04837     F8 F8 00 00 
0483b     00 00 00 00 
0483f     00 18 18 18 
04843     18 18 18 18 | 	byte	$f8, $f8, $00, $00, $00, $00, $00, $00, $00, $18, $18, $18, $18, $18, $18, $18
04847     FF FF 18 18 
0484b     18 18 18 18 
0484f     18 00 00 18 
04853     3C 7E 66 66 | 	byte	$ff, $ff, $18, $18, $18, $18, $18, $18, $18, $00, $00, $18, $3c, $7e, $66, $66
04857     66 7E 7E 66 
0485b     66 66 66 30 
0485f     18 00 00 7E 
04863     7E 06 06 3E | 	byte	$66, $7e, $7e, $66, $66, $66, $66, $30, $18, $00, $00, $7e, $7e, $06, $06, $3e
04867     3E 06 06 06 
0486b     06 7E 7E 18 
0486f     0C 30 18 3C 
04873     7E 66 66 06 | 	byte	$3e, $06, $06, $06, $06, $7e, $7e, $18, $0c, $30, $18, $3c, $7e, $66, $66, $06
04877     06 06 06 66 
0487b     66 7E 3C 00 
0487f     00 30 18 66 
04883     66 66 6E 6E | 	byte	$06, $06, $06, $66, $66, $7e, $3c, $00, $00, $30, $18, $66, $66, $66, $6e, $6e
04887     7E 7E 76 76 
0488b     66 66 66 00 
0488f     00 30 18 7C 
04893     7E 06 06 0E | 	byte	$7e, $7e, $76, $76, $66, $66, $66, $00, $00, $30, $18, $7c, $7e, $06, $06, $0e
04897     1C 38 70 60 
0489b     60 7E 3E 00 
0489f     00 30 18 7E 
048a3     7E 30 30 18 | 	byte	$1c, $38, $70, $60, $60, $7e, $3e, $00, $00, $30, $18, $7e, $7e, $30, $30, $18
048a7     18 0C 0C 06 
048ab     06 7E 7E 00 
048af     00 18 18 00 
048b3     7E 7E 30 30 | 	byte	$18, $0c, $0c, $06, $06, $7e, $7e, $00, $00, $18, $18, $00, $7e, $7e, $30, $30
048b7     18 18 0C 0C 
048bb     06 7E 7E 00 
048bf     00 30 18 3C 
048c3     7E 66 66 66 | 	byte	$18, $18, $0c, $0c, $06, $7e, $7e, $00, $00, $30, $18, $3c, $7e, $66, $66, $66
048c7     66 66 66 66 
048cb     66          | 	byte	$66[5]
048cc     7E 3C 00 00 
048d0     00 00 06 06 
048d4     06 06 16 1E 
048d8     0E 06 06 06 | 	byte	$7e, $3c, $00, $00, $00, $00, $06, $06, $06, $06, $16, $1e, $0e, $06, $06, $06
048dc     7E 7E 00 00 
048e0     00 00 00 00 
048e4     00 3C 7C 60 
048e8     7C 7E 66 66 | 	byte	$7e, $7e, $00, $00, $00, $00, $00, $00, $00, $3c, $7c, $60, $7c, $7e, $66, $66
048ec     7E 7C 30 18 
048f0     00 00 00 00 
048f4     00 3C 7E 66 
048f8     66 7E 06 06 | 	byte	$7e, $7c, $30, $18, $00, $00, $00, $00, $00, $3c, $7e, $66, $66, $7e, $06, $06
048fc     7E 7C 18 0C 
04900     00 00 30 18 
04904     00 3C 3E 06 
04908     06 06 06 06 | 	byte	$7e, $7c, $18, $0c, $00, $00, $30, $18, $00, $3c, $3e, $06, $06, $06, $06, $06
0490c     7E 7C 00 00 
04910     00 00 30 18 
04914     00 3E 7E 66 
04918     66 66 66 66 | 	byte	$7e, $7c, $00, $00, $00, $00, $30, $18, $00, $3e, $7e, $66, $66, $66, $66, $66
0491c     66 66 00 00 
04920     00 00 30 18 
04924     00 7C 7E 06 
04928     0E 3C 70 60 | 	byte	$66, $66, $00, $00, $00, $00, $30, $18, $00, $7c, $7e, $06, $0e, $3c, $70, $60
0492c     7E 3E 00 00 
04930     00 00 30 18 
04934     00 7E 7E 30 
04938     18 18 0C 0C | 	byte	$7e, $3e, $00, $00, $00, $00, $30, $18, $00, $7e, $7e, $30, $18, $18, $0c, $0c
0493c     7E 7E 00 00 
04940     00 00 18 18 
04944     00 7E 7E 30 
04948     18 18 0C 0C | 	byte	$7e, $7e, $00, $00, $00, $00, $18, $18, $00, $7e, $7e, $30, $18, $18, $0c, $0c
0494c     7E 7E 00 00 
04950     00 00 30 18 
04954     00 3C 7E 66 
04958     66 66 66 66 | 	byte	$7e, $7e, $00, $00, $00, $00, $30, $18, $00, $3c, $7e, $66, $66, $66, $66, $66
0495c     7E 3C 00 00 
04960     00 00 1C 1C 
04964     18 18 38 3C 
04968     1C 18 18 18 | 	byte	$7e, $3c, $00, $00, $00, $00, $1c, $1c, $18, $18, $38, $3c, $1c, $18, $18, $18
0496c     3C 3C 00 00 
04970     00 00 00 00 
04974     00 00 00 00 
04978     00 00 00 00 | 	byte	$3c, $3c, $00, $00, $00, $00, $00, $00, $00, $00, $00, $00, $00, $00, $00, $00
0497c     00 00 00 00 
04980     00 00       | 	byte	$00[6]
04982     18 18 18 18 
04986     18 18 18 18 | 	byte	$18[8]
0498a     00 00 18 18 
0498e     00 00 00 00 
04992     66 66 66 66 
04996     00 00 00 00 | 	byte	$00, $00, $18, $18, $00, $00, $00, $00, $66, $66, $66, $66, $00, $00, $00, $00
0499a     00 00 00 00 
0499e     00 00 00 00 
049a2     00          | 	byte	$00[9]
049a3     66 66 FF FF 
049a7     66 66 FF FF 
049ab     66 66 00 00 
049af     00 00 18 18 | 	byte	$66, $66, $ff, $ff, $66, $66, $ff, $ff, $66, $66, $00, $00, $00, $00, $18, $18
049b3     7C 7E 06 06 
049b7     3E 7C 60 60 
049bb     7E 3E 18 18 
049bf     00 00 00 66 | 	byte	$7c, $7e, $06, $06, $3e, $7c, $60, $60, $7e, $3e, $18, $18, $00, $00, $00, $66
049c3     66 30 30 18 
049c7     18 0C 0C 66 
049cb     66 00 00 00 
049cf     00 00 3C 7E | 	byte	$66, $30, $30, $18, $18, $0c, $0c, $66, $66, $00, $00, $00, $00, $00, $3c, $7e
049d3     66 66 3C 1C 
049d7     1C FC FE 66 
049db     66 FE FC 00 
049df     00 00 00 18 | 	byte	$66, $66, $3c, $1c, $1c, $fc, $fe, $66, $66, $fe, $fc, $00, $00, $00, $00, $18
049e3     18 18 18 18 
049e7     00 00 00 00 
049eb     00 00 00 00 
049ef     00 00 00 30 | 	byte	$18, $18, $18, $18, $00, $00, $00, $00, $00, $00, $00, $00, $00, $00, $00, $30
049f3     18 1C 0C 0C 
049f7     0C 0C 0C 0C 
049fb     1C 18 30 00 
049ff     00 00 00 0C | 	byte	$18, $1c, $0c, $0c, $0c, $0c, $0c, $0c, $1c, $18, $30, $00, $00, $00, $00, $0c
04a03     18 38 30 30 
04a07     30 30 30 30 
04a0b     38 18 0C 00 
04a0f     00 00 00 00 | 	byte	$18, $38, $30, $30, $30, $30, $30, $30, $38, $18, $0c, $00, $00, $00, $00, $00
04a13     66 66 3C 3C 
04a17     FF FF 3C 3C 
04a1b     66 66 00 00 
04a1f     00 00 00 00 | 	byte	$66, $66, $3c, $3c, $ff, $ff, $3c, $3c, $66, $66, $00, $00, $00, $00, $00, $00
04a23     00 18 18 18 
04a27     7E 7E 18 18 
04a2b     18 00 00 00 
04a2f     00 00 00 00 | 	byte	$00, $18, $18, $18, $7e, $7e, $18, $18, $18, $00, $00, $00, $00, $00, $00, $00
04a33     00 00 00 00 
04a37     00 00       | 	byte	$00[6]
04a39     18 18 18 18 
04a3d     18          | 	byte	$18[5]
04a3e     0C 04 00 00 
04a42     00 00 00 00 
04a46     7E 7E 00 00 
04a4a     00 00 00 00 | 	byte	$0c, $04, $00, $00, $00, $00, $00, $00, $7e, $7e, $00, $00, $00, $00, $00, $00
04a4e     00 00 00 00 
04a52     00 00 00 00 
04a56     00 00 00 00 
04a5a     00          | 	byte	$00[13]
04a5b     18 18 18 00 
04a5f     00 00 00 60 
04a63     60 60 30 30 
04a67     18 18 0C 0C | 	byte	$18, $18, $18, $00, $00, $00, $00, $60, $60, $60, $30, $30, $18, $18, $0c, $0c
04a6b     06 06 06 00 
04a6f     00 00 00 3C 
04a73     7E 66 66 66 
04a77     76 6E 66 66 | 	byte	$06, $06, $06, $00, $00, $00, $00, $3c, $7e, $66, $66, $66, $76, $6e, $66, $66
04a7b     66 7E 3C 00 
04a7f     00 00 00 18 
04a83     18 1C 1C 18 
04a87     18 18 18 18 | 	byte	$66, $7e, $3c, $00, $00, $00, $00, $18, $18, $1c, $1c, $18, $18, $18, $18, $18
04a8b     18 7E 7E 00 
04a8f     00 00 00 3C 
04a93     7E 66 66 30 
04a97     30 18 18 0C | 	byte	$18, $7e, $7e, $00, $00, $00, $00, $3c, $7e, $66, $66, $30, $30, $18, $18, $0c
04a9b     0C 7E 7E 00 
04a9f     00 00 00 7E 
04aa3     7E 30 30 18 
04aa7     18 30 30 66 | 	byte	$0c, $7e, $7e, $00, $00, $00, $00, $7e, $7e, $30, $30, $18, $18, $30, $30, $66
04aab     66 7E 3C 00 
04aaf     00 00 00 30 
04ab3     30 38 38 3C 
04ab7     3C 36 36 7E | 	byte	$66, $7e, $3c, $00, $00, $00, $00, $30, $30, $38, $38, $3c, $3c, $36, $36, $7e
04abb     7E 30 30 00 
04abf     00 00 00 7E 
04ac3     7E 06 06 3E 
04ac7     7E 60 60 60 | 	byte	$7e, $30, $30, $00, $00, $00, $00, $7e, $7e, $06, $06, $3e, $7e, $60, $60, $60
04acb     66 7E 3C 00 
04acf     00 00 00 38 
04ad3     3C 0E 06 06 
04ad7     3E 7E 66 66 | 	byte	$66, $7e, $3c, $00, $00, $00, $00, $38, $3c, $0e, $06, $06, $3e, $7e, $66, $66
04adb     66 7E 3C 00 
04adf     00 00 00 7E 
04ae3     7E 60 60 30 
04ae7     30 18 18 0C | 	byte	$66, $7e, $3c, $00, $00, $00, $00, $7e, $7e, $60, $60, $30, $30, $18, $18, $0c
04aeb     0C 0C 0C 00 
04aef     00 00 00 3C 
04af3     7E 66 66 3C 
04af7     3C 66 66 66 | 	byte	$0c, $0c, $0c, $00, $00, $00, $00, $3c, $7e, $66, $66, $3c, $3c, $66, $66, $66
04afb     66 7E 3C 00 
04aff     00 00 00 3C 
04b03     7E 66 66 7E 
04b07     7C 60 60 60 | 	byte	$66, $7e, $3c, $00, $00, $00, $00, $3c, $7e, $66, $66, $7e, $7c, $60, $60, $60
04b0b     70 3C 1C 00 
04b0f     00 00 00 00 
04b13     00 00 18 18 
04b17     18 00 00 00 | 	byte	$70, $3c, $1c, $00, $00, $00, $00, $00, $00, $00, $18, $18, $18, $00, $00, $00
04b1b     18 18 18 00 
04b1f     00 00 00 00 
04b23     00 00 18 18 
04b27     18 00 00 18 | 	byte	$18, $18, $18, $00, $00, $00, $00, $00, $00, $00, $18, $18, $18, $00, $00, $18
04b2b     18 18 18 0C 
04b2f     04 00 00 00 
04b33     70 38 1C 0E 
04b37     07 0E 1C 38 | 	byte	$18, $18, $18, $0c, $04, $00, $00, $00, $70, $38, $1c, $0e, $07, $0e, $1c, $38
04b3b     70 00 00 00 
04b3f     00 00 00 00 
04b43     00 00 7E 7E 
04b47     00 00 7E 7E | 	byte	$70, $00, $00, $00, $00, $00, $00, $00, $00, $00, $7e, $7e, $00, $00, $7e, $7e
04b4b     00 00 00 00 
04b4f     00 00 00 00 | 	byte	$00[8]
04b53     0E 1C 38 70 
04b57     E0 70 38 1C 
04b5b     0E 00 00 00 
04b5f     00 00 00 3C | 	byte	$0e, $1c, $38, $70, $e0, $70, $38, $1c, $0e, $00, $00, $00, $00, $00, $00, $3c
04b63     7E 66 66 30 
04b67     30 18 18 18 
04b6b     00 18 18 00 
04b6f     00 00 00 3C | 	byte	$7e, $66, $66, $30, $30, $18, $18, $18, $00, $18, $18, $00, $00, $00, $00, $3c
04b73     7E 66 66 66 
04b77     66 36 06 66 
04b7b     66 7E 3C 00 
04b7f     00 00 00 18 | 	byte	$7e, $66, $66, $66, $66, $36, $06, $66, $66, $7e, $3c, $00, $00, $00, $00, $18
04b83     3C 7E 66 66 
04b87     66 7E 7E 66 
04b8b     66 66 66 00 
04b8f     00 00 00 3E | 	byte	$3c, $7e, $66, $66, $66, $7e, $7e, $66, $66, $66, $66, $00, $00, $00, $00, $3e
04b93     7E 66 66 7E 
04b97     3E 66 66 66 
04b9b     66 7E 3E 00 
04b9f     00 00 00 3C | 	byte	$7e, $66, $66, $7e, $3e, $66, $66, $66, $66, $7e, $3e, $00, $00, $00, $00, $3c
04ba3     7E 66 66 06 
04ba7     06 06 06 66 
04bab     66 7E 3C 00 
04baf     00 00 00 3E | 	byte	$7e, $66, $66, $06, $06, $06, $06, $66, $66, $7e, $3c, $00, $00, $00, $00, $3e
04bb3     7E 66 66 66 
04bb7     66 66 66 66 
04bbb     66 7E 3E 00 
04bbf     00 00 00 7E | 	byte	$7e, $66, $66, $66, $66, $66, $66, $66, $66, $7e, $3e, $00, $00, $00, $00, $7e
04bc3     7E 06 06 3E 
04bc7     3E 06 06 06 
04bcb     06 7E 7E 00 
04bcf     00 00 00 7E | 	byte	$7e, $06, $06, $3e, $3e, $06, $06, $06, $06, $7e, $7e, $00, $00, $00, $00, $7e
04bd3     7E 06 06 3E 
04bd7     3E 06 06 06 
04bdb     06 06 06 00 
04bdf     00 00 00 7C | 	byte	$7e, $06, $06, $3e, $3e, $06, $06, $06, $06, $06, $06, $00, $00, $00, $00, $7c
04be3     7E 06 06 76 
04be7     76 66 66 66 
04beb     66 7E 3C 00 
04bef     00 00 00 66 | 	byte	$7e, $06, $06, $76, $76, $66, $66, $66, $66, $7e, $3c, $00, $00, $00, $00, $66
04bf3     66 66 66 7E 
04bf7     7E 66 66 66 
04bfb     66 66 66 00 
04bff     00 00 00 7E | 	byte	$66, $66, $66, $7e, $7e, $66, $66, $66, $66, $66, $66, $00, $00, $00, $00, $7e
04c03     7E 18 18 18 
04c07     18 18 18 18 
04c0b     18 7E 7E 00 
04c0f     00 00 00 60 | 	byte	$7e, $18, $18, $18, $18, $18, $18, $18, $18, $7e, $7e, $00, $00, $00, $00, $60
04c13     60 60 60 60 
04c17     60 60 60    | 	byte	$60[7]
04c1a     66 66 7E 3C 
04c1e     00 00 00 00 
04c22     66 66 36 36 
04c26     1E 1E 36 36 | 	byte	$66, $66, $7e, $3c, $00, $00, $00, $00, $66, $66, $36, $36, $1e, $1e, $36, $36
04c2a     66 66 C6 C6 
04c2e     00 00 00 00 
04c32     06 06 06 06 
04c36     06 06 06 06 | 	byte	$66, $66, $c6, $c6, $00, $00, $00, $00, $06, $06, $06, $06, $06, $06, $06, $06
04c3a     06 06 7E 7E 
04c3e     00 00 00 00 
04c42     C6 C6 EE EE 
04c46     FE D6 D6 C6 | 	byte	$06, $06, $7e, $7e, $00, $00, $00, $00, $c6, $c6, $ee, $ee, $fe, $d6, $d6, $c6
04c4a     C6 C6 C6 C6 
04c4e     00 00 00 00 
04c52     66 66 66 6E 
04c56     6E 7E 7E 76 | 	byte	$c6, $c6, $c6, $c6, $00, $00, $00, $00, $66, $66, $66, $6e, $6e, $7e, $7e, $76
04c5a     76 66 66 66 
04c5e     00 00 00 00 
04c62     3C 7E 66 66 
04c66     66 66 66 66 | 	byte	$76, $66, $66, $66, $00, $00, $00, $00, $3c, $7e, $66, $66, $66, $66, $66, $66
04c6a     66 66 7E 3C 
04c6e     00 00 00 00 
04c72     3E 7E 66 66 
04c76     66 66 7E 3E | 	byte	$66, $66, $7e, $3c, $00, $00, $00, $00, $3e, $7e, $66, $66, $66, $66, $7e, $3e
04c7a     06 06 06 06 
04c7e     00 00 00 00 
04c82     3C 7E 66 66 
04c86     66 66 66 66 | 	byte	$06, $06, $06, $06, $00, $00, $00, $00, $3c, $7e, $66, $66, $66, $66, $66, $66
04c8a     66 56 3E 6C 
04c8e     00 00 00 00 
04c92     3E 7E 66 66 
04c96     66 7E 3E 36 | 	byte	$66, $56, $3e, $6c, $00, $00, $00, $00, $3e, $7e, $66, $66, $66, $7e, $3e, $36
04c9a     66 66 C6 C6 
04c9e     00 00 00 00 
04ca2     7C 7E 06 06 
04ca6     0E 1C 38 70 | 	byte	$66, $66, $c6, $c6, $00, $00, $00, $00, $7c, $7e, $06, $06, $0e, $1c, $38, $70
04caa     60 60 7E 3E 
04cae     00 00 00 00 
04cb2     7E 7E 18 18 
04cb6     18 18 18 18 | 	byte	$60, $60, $7e, $3e, $00, $00, $00, $00, $7e, $7e, $18, $18, $18, $18, $18, $18
04cba     18 18 18 18 
04cbe     00 00 00 00 
04cc2     66 66 66 66 
04cc6     66 66 66 66 | 	byte	$18, $18, $18, $18, $00, $00, $00, $00, $66, $66, $66, $66, $66, $66, $66, $66
04cca     66 66 7E 3C 
04cce     00 00 00 00 
04cd2     66 66 66 66 
04cd6     66 66 66 66 | 	byte	$66, $66, $7e, $3c, $00, $00, $00, $00, $66, $66, $66, $66, $66, $66, $66, $66
04cda     3C 3C 18 18 
04cde     00 00 00 00 
04ce2     C6 C6 C6 C6 
04ce6     C6 D6 D6 FE | 	byte	$3c, $3c, $18, $18, $00, $00, $00, $00, $c6, $c6, $c6, $c6, $c6, $d6, $d6, $fe
04cea     FE EE C6 82 
04cee     00 00 00 00 
04cf2     66 66 66 3C 
04cf6     3C 18 18 3C | 	byte	$fe, $ee, $c6, $82, $00, $00, $00, $00, $66, $66, $66, $3c, $3c, $18, $18, $3c
04cfa     3C 66 66 66 
04cfe     00 00 00 00 
04d02     66 66 66 66 
04d06     66 3C 3C 18 | 	byte	$3c, $66, $66, $66, $00, $00, $00, $00, $66, $66, $66, $66, $66, $3c, $3c, $18
04d0a     18 18 18 18 
04d0e     00 00 00 00 
04d12     7E 7E 30 30 
04d16     18 18 0C 0C | 	byte	$18, $18, $18, $18, $00, $00, $00, $00, $7e, $7e, $30, $30, $18, $18, $0c, $0c
04d1a     06 06 7E 7E 
04d1e     00 00 00 00 
04d22     3C 3C 0C 0C 
04d26     0C 0C 0C 0C | 	byte	$06, $06, $7e, $7e, $00, $00, $00, $00, $3c, $3c, $0c, $0c, $0c, $0c, $0c, $0c
04d2a     0C 0C 3C 3C 
04d2e     00 00 00 00 
04d32     06 06 0C 0C 
04d36     18 18 30 30 | 	byte	$0c, $0c, $3c, $3c, $00, $00, $00, $00, $06, $06, $0c, $0c, $18, $18, $30, $30
04d3a     60 60 C0 C0 
04d3e     00 00 00 00 
04d42     3C 3C 30 30 
04d46     30 30 30 30 | 	byte	$60, $60, $c0, $c0, $00, $00, $00, $00, $3c, $3c, $30, $30, $30, $30, $30, $30
04d4a     30 30 3C 3C 
04d4e     00 00 00 00 
04d52     18 18 3C 3C 
04d56     66 66 00 00 | 	byte	$30, $30, $3c, $3c, $00, $00, $00, $00, $18, $18, $3c, $3c, $66, $66, $00, $00
04d5a     00 00 00 00 
04d5e     00 00 00 00 
04d62     00 00 00 00 
04d66     00 00 00 00 
04d6a     00 00       | 	byte	$00[18]
04d6c     FE FE 00 00 
04d70     00 00 0C 0C 
04d74     18 18 00 00 
04d78     00 00 00 00 | 	byte	$fe, $fe, $00, $00, $00, $00, $0c, $0c, $18, $18, $00, $00, $00, $00, $00, $00
04d7c     00 00 00 00 
04d80     00 00 00 00 
04d84     00          | 	byte	$00[9]
04d85     3C 7C 60 7C 
04d89     7E 66 66 7E 
04d8d     7C 00 00 00 
04d91     00 06 06 06 | 	byte	$3c, $7c, $60, $7c, $7e, $66, $66, $7e, $7c, $00, $00, $00, $00, $06, $06, $06
04d95     3E 7E 66 66 
04d99     66 66 66 7E 
04d9d     3E 00 00 00 
04da1     00 00 00 00 | 	byte	$3e, $7e, $66, $66, $66, $66, $66, $7e, $3e, $00, $00, $00, $00, $00, $00, $00
04da5     3C 3E 06 06 
04da9     06 06 06 7E 
04dad     7C 00 00 00 
04db1     00 60 60 60 | 	byte	$3c, $3e, $06, $06, $06, $06, $06, $7e, $7c, $00, $00, $00, $00, $60, $60, $60
04db5     7C 7E 66 66 
04db9     66 66 66 7E 
04dbd     7C 00 00 00 
04dc1     00 00 00 00 | 	byte	$7c, $7e, $66, $66, $66, $66, $66, $7e, $7c, $00, $00, $00, $00, $00, $00, $00
04dc5     3C 7E 66 66 
04dc9     7E 06 06 7E 
04dcd     7C 00 00 00 
04dd1     00 70 78 18 | 	byte	$3c, $7e, $66, $66, $7e, $06, $06, $7e, $7c, $00, $00, $00, $00, $70, $78, $18
04dd5     18 7E 7E 18 
04dd9     18 18 18 18 
04ddd     18 00 00 00 
04de1     00 00 00 00 | 	byte	$18, $7e, $7e, $18, $18, $18, $18, $18, $18, $00, $00, $00, $00, $00, $00, $00
04de5     7C 7E 66 66 
04de9     66 66 7E 7C 
04ded     60 7E 3E 00 
04df1     00 06 06 06 | 	byte	$7c, $7e, $66, $66, $66, $66, $7e, $7c, $60, $7e, $3e, $00, $00, $06, $06, $06
04df5     3E 7E 66 66 
04df9     66 66 66 66 
04dfd     66 00 00 00 
04e01     00 18 18 00 | 	byte	$3e, $7e, $66, $66, $66, $66, $66, $66, $66, $00, $00, $00, $00, $18, $18, $00
04e05     1C 1C 18 18 
04e09     18 18 18 3C 
04e0d     3C 00 00 00 
04e11     00 30 30 00 | 	byte	$1c, $1c, $18, $18, $18, $18, $18, $3c, $3c, $00, $00, $00, $00, $30, $30, $00
04e15     30 30 30 30 
04e19     30 30 30 30 
04e1d     30          | 	byte	$30[9]
04e1e     3E 1E 00 00 
04e22     06 06 06 36 
04e26     36 1E 1E 1E 
04e2a     36 36 66 66 | 	byte	$3e, $1e, $00, $00, $06, $06, $06, $36, $36, $1e, $1e, $1e, $36, $36, $66, $66
04e2e     00 00 00 00 
04e32     1C 1C 18 18 
04e36     18 18 18 18 
04e3a     18 18 3C 3C | 	byte	$00, $00, $00, $00, $1c, $1c, $18, $18, $18, $18, $18, $18, $18, $18, $3c, $3c
04e3e     00 00 00 00 
04e42     00 00 00    | 	byte	$00[7]
04e45     6C FE FE D6 
04e49     D6 C6 C6 C6 
04e4d     C6 00 00 00 
04e51     00 00 00 00 | 	byte	$6c, $fe, $fe, $d6, $d6, $c6, $c6, $c6, $c6, $00, $00, $00, $00, $00, $00, $00
04e55     3E 7E 66 66 
04e59     66 66 66 66 
04e5d     66 00 00 00 
04e61     00 00 00 00 | 	byte	$3e, $7e, $66, $66, $66, $66, $66, $66, $66, $00, $00, $00, $00, $00, $00, $00
04e65     3C 7E 66 66 
04e69     66 66 66 7E 
04e6d     3C 00 00 00 
04e71     00 00 00 00 | 	byte	$3c, $7e, $66, $66, $66, $66, $66, $7e, $3c, $00, $00, $00, $00, $00, $00, $00
04e75     3E 7E 66 66 
04e79     66 66 66 7E 
04e7d     3E 06 06 00 
04e81     00 00 00 00 | 	byte	$3e, $7e, $66, $66, $66, $66, $66, $7e, $3e, $06, $06, $00, $00, $00, $00, $00
04e85     7C 7E 66 66 
04e89     66 66 66 7E 
04e8d     7C 60 60 00 
04e91     00 00 00 00 | 	byte	$7c, $7e, $66, $66, $66, $66, $66, $7e, $7c, $60, $60, $00, $00, $00, $00, $00
04e95     3E 7E 66 06 
04e99     06 06 06 06 
04e9d     06 00 00 00 
04ea1     00 00 00 00 | 	byte	$3e, $7e, $66, $06, $06, $06, $06, $06, $06, $00, $00, $00, $00, $00, $00, $00
04ea5     7C 7E 06 0E 
04ea9     3C 70 60 7E 
04ead     3E 00 00 00 
04eb1     00 00 18 18 | 	byte	$7c, $7e, $06, $0e, $3c, $70, $60, $7e, $3e, $00, $00, $00, $00, $00, $18, $18
04eb5     7E 7E 18 18 
04eb9     18 18 18 78 
04ebd     70 00 00 00 
04ec1     00 00 00 00 | 	byte	$7e, $7e, $18, $18, $18, $18, $18, $78, $70, $00, $00, $00, $00, $00, $00, $00
04ec5     66 66 66 66 
04ec9     66 66 66    | 	byte	$66[7]
04ecc     7E 7C 00 00 
04ed0     00 00 00 00 
04ed4     00 66 66 66 
04ed8     66 66 3C 3C | 	byte	$7e, $7c, $00, $00, $00, $00, $00, $00, $00, $66, $66, $66, $66, $66, $3c, $3c
04edc     18 18 00 00 
04ee0     00 00 00 00 
04ee4     00 C6 C6 D6 
04ee8     D6 FE FE EE | 	byte	$18, $18, $00, $00, $00, $00, $00, $00, $00, $c6, $c6, $d6, $d6, $fe, $fe, $ee
04eec     C6 82 00 00 
04ef0     00 00 00 00 
04ef4     00 66 66 3C 
04ef8     3C 18 3C 3C | 	byte	$c6, $82, $00, $00, $00, $00, $00, $00, $00, $66, $66, $3c, $3c, $18, $3c, $3c
04efc     66 66 00 00 
04f00     00 00 00 00 
04f04     00 66 66 66 
04f08     66 66 66 7E | 	byte	$66, $66, $00, $00, $00, $00, $00, $00, $00, $66, $66, $66, $66, $66, $66, $7e
04f0c     7C 60 7E 3E 
04f10     00 00 00 00 
04f14     00 7E 7E 30 
04f18     18 18 0C 0C | 	byte	$7c, $60, $7e, $3e, $00, $00, $00, $00, $00, $7e, $7e, $30, $18, $18, $0c, $0c
04f1c     7E 7E 00 00 
04f20     00 00 30 18 
04f24     18 18 18 0C 
04f28     0C 18 18 18 | 	byte	$7e, $7e, $00, $00, $00, $00, $30, $18, $18, $18, $18, $0c, $0c, $18, $18, $18
04f2c     18 30 00 00 
04f30     00 00 18 18 
04f34     18 18 18 18 
04f38     18 18 18 18 | 	byte	$18, $30, $00, $00, $00, $00, $18, $18, $18, $18, $18, $18, $18, $18, $18, $18
04f3c     18 18 00 00 
04f40     00 00 0C 18 
04f44     18 18 18 30 
04f48     30 18 18 18 | 	byte	$18, $18, $00, $00, $00, $00, $0c, $18, $18, $18, $18, $30, $30, $18, $18, $18
04f4c     18 0C 00 00 
04f50     00 00 6C 7E 
04f54     36 00 00 00 
04f58     00 00 00 00 | 	byte	$18, $0c, $00, $00, $00, $00, $6c, $7e, $36, $00, $00, $00, $00, $00, $00, $00
04f5c     00 00 00 00 
04f60     00 00 00 00 
04f64     00          | 	byte	$00[9]
04f65     18 18 18 18 
04f69     18 18 00 00 
04f6d     00 00 00    | 	byte	$18, $18, $18, $18, $18, $18, $00, $00, $00, $00, $00
04f70     00 00 00 00 
04f74     00 FF FF FF | twocolors      long  $00000000,$FFFFFF00
04f78     00 00 00 00 
04f7c     00 80 80 80 
04f80     00 00 00 FF 
04f84     00 FF FF FF | fourcolors     long  $00000000,$80808000,$FF000000,$FFFFFF00 'black,red,gray,white
04f88     00 00 00 00 
04f8c     00          | vga16          long  $00000000,$00008000,$00800000,$00808000,$80000000,$80008000,$80400000,$AAAAAA00,$55555500,$0000FF00,$00FF0000,$00FFFF00,$FF000000,$FF00FF00,$FFFF0000,$FFFFFF00
04f8d     80 00 00 00 
04f91     00 80 00 00 
04f95     80 80 00 00 
04f99     00 00 80 00 | 	byte	$80, $00, $00, $00, $00, $80, $00, $00, $80, $80, $00, $00, $00, $00, $80, $00
04f9d     80 00 80 00 
04fa1     00 40 80 00 
04fa5     AA AA AA 00 
04fa9     55 55 55 00 | 	byte	$80, $00, $80, $00, $00, $40, $80, $00, $aa, $aa, $aa, $00, $55, $55, $55, $00
04fad     FF 00 00 00 
04fb1     00 FF 00 00 
04fb5     FF FF 00 00 
04fb9     00 00 FF 00 | 	byte	$ff, $00, $00, $00, $00, $ff, $00, $00, $ff, $ff, $00, $00, $00, $00, $ff, $00
04fbd     FF 00 FF 00 
04fc1     00 FF FF 00 
04fc5     FF FF FF    | 	byte	$ff, $00, $ff, $00, $00, $ff, $ff, $00, $ff, $ff, $ff
04fc8     00 00 00 00 
04fcc     00          | ataripalette   file "ataripalettep2.def"
04fcd     11 11 11 00 
04fd1     22 22 22 00 
04fd5     33 33 33 00 
04fd9     44 44 44 00 | 	byte	$11, $11, $11, $00, $22, $22, $22, $00, $33, $33, $33, $00, $44, $44, $44, $00
04fdd     55 55 55 00 
04fe1     66 66 66 00 
04fe5     77 77 77 00 
04fe9     88 88 88 00 | 	byte	$55, $55, $55, $00, $66, $66, $66, $00, $77, $77, $77, $00, $88, $88, $88, $00
04fed     99 99 99 00 
04ff1     AA AA AA 00 
04ff5     BB BB BB 00 
04ff9     CC CC CC 00 | 	byte	$99, $99, $99, $00, $aa, $aa, $aa, $00, $bb, $bb, $bb, $00, $cc, $cc, $cc, $00
04ffd     DD DD DD 00 
05001     EE EE EE 00 
05005     FF FF FF 00 
05009     00 0A 20 00 | 	byte	$dd, $dd, $dd, $00, $ee, $ee, $ee, $00, $ff, $ff, $ff, $00, $00, $0a, $20, $00
0500d     00 14 40 00 
05011     00 1E 60 00 
05015     00 28 80 00 
05019     00 32 9F 00 | 	byte	$00, $14, $40, $00, $00, $1e, $60, $00, $00, $28, $80, $00, $00, $32, $9f, $00
0501d     00 3C BF 00 
05021     00 46 DF 00 
05025     00 50 FF 00 
05029     1C 63 FF 00 | 	byte	$00, $3c, $bf, $00, $00, $46, $df, $00, $00, $50, $ff, $00, $1c, $63, $ff, $00
0502d     39 77 FF 00 
05031     55 8A FF 00 
05035     71 9E FF 00 
05039     8E B1 FF 00 | 	byte	$39, $77, $ff, $00, $55, $8a, $ff, $00, $71, $9e, $ff, $00, $8e, $b1, $ff, $00
0503d     AA C5 FF 00 
05041     C6 D8 FF 00 
05045     E3 EC FF 00 
05049     00 00 20 00 | 	byte	$aa, $c5, $ff, $00, $c6, $d8, $ff, $00, $e3, $ec, $ff, $00, $00, $00, $20, $00
0504d     00 00 40 00 
05051     00 00 60 00 
05055     00 00 80 00 
05059     00 00 9F 00 | 	byte	$00, $00, $40, $00, $00, $00, $60, $00, $00, $00, $80, $00, $00, $00, $9f, $00
0505d     00 00 BF 00 
05061     00 00 DF 00 
05065     00 00 FF 00 
05069     1C 1C FF 00 | 	byte	$00, $00, $bf, $00, $00, $00, $df, $00, $00, $00, $ff, $00, $1c, $1c, $ff, $00
0506d     39 39 FF 00 
05071     55 55 FF 00 
05075     71 71 FF 00 
05079     8E 8E FF 00 | 	byte	$39, $39, $ff, $00, $55, $55, $ff, $00, $71, $71, $ff, $00, $8e, $8e, $ff, $00
0507d     AA AA FF 00 
05081     C6 C6 FF 00 
05085     E3 E3 FF 00 
05089     10 00 20 00 | 	byte	$aa, $aa, $ff, $00, $c6, $c6, $ff, $00, $e3, $e3, $ff, $00, $10, $00, $20, $00
0508d     20 00 40 00 
05091     30 00 60 00 
05095     40 00 80 00 
05099     50 00 9F 00 | 	byte	$20, $00, $40, $00, $30, $00, $60, $00, $40, $00, $80, $00, $50, $00, $9f, $00
0509d     60 00 BF 00 
050a1     70 00 DF 00 
050a5     80 00 FF 00 
050a9     8E 1C FF 00 | 	byte	$60, $00, $bf, $00, $70, $00, $df, $00, $80, $00, $ff, $00, $8e, $1c, $ff, $00
050ad     9C 39 FF 00 
050b1     AA 55 FF 00 
050b5     B8 71 FF 00 
050b9     C7 8E FF 00 | 	byte	$9c, $39, $ff, $00, $aa, $55, $ff, $00, $b8, $71, $ff, $00, $c7, $8e, $ff, $00
050bd     D5 AA FF 00 
050c1     E3 C6 FF 00 
050c5     F1 E3 FF 00 
050c9     20 00 20 00 | 	byte	$d5, $aa, $ff, $00, $e3, $c6, $ff, $00, $f1, $e3, $ff, $00, $20, $00, $20, $00
050cd     40 00 40 00 
050d1     60 00 60 00 
050d5     80 00 80 00 
050d9     9F 00 9F 00 | 	byte	$40, $00, $40, $00, $60, $00, $60, $00, $80, $00, $80, $00, $9f, $00, $9f, $00
050dd     BF 00 BF 00 
050e1     DF 00 DF 00 
050e5     FF 00 FF 00 
050e9     FF 1C FF 00 | 	byte	$bf, $00, $bf, $00, $df, $00, $df, $00, $ff, $00, $ff, $00, $ff, $1c, $ff, $00
050ed     FF 39 FF 00 
050f1     FF 55 FF 00 
050f5     FF 71 FF 00 
050f9     FF 8E FF 00 | 	byte	$ff, $39, $ff, $00, $ff, $55, $ff, $00, $ff, $71, $ff, $00, $ff, $8e, $ff, $00
050fd     FF AA FF 00 
05101     FF C6 FF 00 
05105     FF E3 FF 00 
05109     20 00 10 00 | 	byte	$ff, $aa, $ff, $00, $ff, $c6, $ff, $00, $ff, $e3, $ff, $00, $20, $00, $10, $00
0510d     40 00 20 00 
05111     60 00 30 00 
05115     80 00 40 00 
05119     9F 00 50 00 | 	byte	$40, $00, $20, $00, $60, $00, $30, $00, $80, $00, $40, $00, $9f, $00, $50, $00
0511d     BF 00 60 00 
05121     DF 00 70 00 
05125     FF 00 80 00 
05129     FF 1C 8E 00 | 	byte	$bf, $00, $60, $00, $df, $00, $70, $00, $ff, $00, $80, $00, $ff, $1c, $8e, $00
0512d     FF 39 9C 00 
05131     FF 55 AA 00 
05135     FF 71 B8 00 
05139     FF 8E C7 00 | 	byte	$ff, $39, $9c, $00, $ff, $55, $aa, $00, $ff, $71, $b8, $00, $ff, $8e, $c7, $00
0513d     FF AA D5 00 
05141     FF C6 E3 00 
05145     FF E3 F1 00 
05149     20 00 00 00 | 	byte	$ff, $aa, $d5, $00, $ff, $c6, $e3, $00, $ff, $e3, $f1, $00, $20, $00, $00, $00
0514d     40 00 00 00 
05151     60 00 00 00 
05155     80 00 00 00 
05159     9F 00 00 00 | 	byte	$40, $00, $00, $00, $60, $00, $00, $00, $80, $00, $00, $00, $9f, $00, $00, $00
0515d     BF 00 00 00 
05161     DF 00 00 00 
05165     FF 00 00 00 
05169     FF 1C 1C 00 | 	byte	$bf, $00, $00, $00, $df, $00, $00, $00, $ff, $00, $00, $00, $ff, $1c, $1c, $00
0516d     FF 39 39 00 
05171     FF 55 55 00 
05175     FF 71 71 00 
05179     FF 8E 8E 00 | 	byte	$ff, $39, $39, $00, $ff, $55, $55, $00, $ff, $71, $71, $00, $ff, $8e, $8e, $00
0517d     FF AA AA 00 
05181     FF C6 C6 00 
05185     FF E3 E3 00 
05189     20 08 00 00 | 	byte	$ff, $aa, $aa, $00, $ff, $c6, $c6, $00, $ff, $e3, $e3, $00, $20, $08, $00, $00
0518d     40 10 00 00 
05191     60 18 00 00 
05195     80 20 00 00 
05199     9F 28 00 00 | 	byte	$40, $10, $00, $00, $60, $18, $00, $00, $80, $20, $00, $00, $9f, $28, $00, $00
0519d     BF 30 00 00 
051a1     DF 38 00 00 
051a5     FF 40 00 00 
051a9     FF 55 1C 00 | 	byte	$bf, $30, $00, $00, $df, $38, $00, $00, $ff, $40, $00, $00, $ff, $55, $1c, $00
051ad     FF 6A 39 00 
051b1     FF 80 55 00 
051b5     FF 95 71 00 
051b9     FF AA 8E 00 | 	byte	$ff, $6a, $39, $00, $ff, $80, $55, $00, $ff, $95, $71, $00, $ff, $aa, $8e, $00
051bd     FF BF AA 00 
051c1     FF D5 C6 00 
051c5     FF EA E3 00 
051c9     20 10 00 00 | 	byte	$ff, $bf, $aa, $00, $ff, $d5, $c6, $00, $ff, $ea, $e3, $00, $20, $10, $00, $00
051cd     40 20 00 00 
051d1     60 30 00 00 
051d5     80 40 00 00 
051d9     9F 50 00 00 | 	byte	$40, $20, $00, $00, $60, $30, $00, $00, $80, $40, $00, $00, $9f, $50, $00, $00
051dd     BF 60 00 00 
051e1     DF 70 00 00 
051e5     FF 80 00 00 
051e9     FF 8E 1C 00 | 	byte	$bf, $60, $00, $00, $df, $70, $00, $00, $ff, $80, $00, $00, $ff, $8e, $1c, $00
051ed     FF 9C 39 00 
051f1     FF AA 55 00 
051f5     FF B8 71 00 
051f9     FF C7 8E 00 | 	byte	$ff, $9c, $39, $00, $ff, $aa, $55, $00, $ff, $b8, $71, $00, $ff, $c7, $8e, $00
051fd     FF D5 AA 00 
05201     FF E3 C6 00 
05205     FF F1 E3 00 
05209     20 18 00 00 | 	byte	$ff, $d5, $aa, $00, $ff, $e3, $c6, $00, $ff, $f1, $e3, $00, $20, $18, $00, $00
0520d     40 30 00 00 
05211     60 48 00 00 
05215     80 60 00 00 
05219     9F 78 00 00 | 	byte	$40, $30, $00, $00, $60, $48, $00, $00, $80, $60, $00, $00, $9f, $78, $00, $00
0521d     BF 90 00 00 
05221     DF A8 00 00 
05225     FF C0 00 00 
05229     FF C7 1C 00 | 	byte	$bf, $90, $00, $00, $df, $a8, $00, $00, $ff, $c0, $00, $00, $ff, $c7, $1c, $00
0522d     FF CE 39 00 
05231     FF D5 55 00 
05235     FF DC 71 00 
05239     FF E3 8E 00 | 	byte	$ff, $ce, $39, $00, $ff, $d5, $55, $00, $ff, $dc, $71, $00, $ff, $e3, $8e, $00
0523d     FF EA AA 00 
05241     FF F1 C6 00 
05245     FF F8 E3 00 
05249     18 20 00 00 | 	byte	$ff, $ea, $aa, $00, $ff, $f1, $c6, $00, $ff, $f8, $e3, $00, $18, $20, $00, $00
0524d     30 40 00 00 
05251     48 60 00 00 
05255     60 80 00 00 
05259     78 9F 00 00 | 	byte	$30, $40, $00, $00, $48, $60, $00, $00, $60, $80, $00, $00, $78, $9f, $00, $00
0525d     90 BF 00 00 
05261     A8 DF 00 00 
05265     C0 FF 00 00 
05269     C7 FF 1C 00 | 	byte	$90, $bf, $00, $00, $a8, $df, $00, $00, $c0, $ff, $00, $00, $c7, $ff, $1c, $00
0526d     CE FF 39 00 
05271     D5 FF 55 00 
05275     DC FF 71 00 
05279     E3 FF 8E 00 | 	byte	$ce, $ff, $39, $00, $d5, $ff, $55, $00, $dc, $ff, $71, $00, $e3, $ff, $8e, $00
0527d     EA FF AA 00 
05281     F1 FF C6 00 
05285     F8 FF E3 00 
05289     00 20 00 00 | 	byte	$ea, $ff, $aa, $00, $f1, $ff, $c6, $00, $f8, $ff, $e3, $00, $00, $20, $00, $00
0528d     00 40 00 00 
05291     00 60 00 00 
05295     00 80 00 00 
05299     00 9F 00 00 | 	byte	$00, $40, $00, $00, $00, $60, $00, $00, $00, $80, $00, $00, $00, $9f, $00, $00
0529d     00 BF 00 00 
052a1     00 DF 00 00 
052a5     00 FF 00 00 
052a9     1C FF 1C 00 | 	byte	$00, $bf, $00, $00, $00, $df, $00, $00, $00, $ff, $00, $00, $1c, $ff, $1c, $00
052ad     39 FF 39 00 
052b1     55 FF 55 00 
052b5     71 FF 71 00 
052b9     8E FF 8E 00 | 	byte	$39, $ff, $39, $00, $55, $ff, $55, $00, $71, $ff, $71, $00, $8e, $ff, $8e, $00
052bd     AA FF AA 00 
052c1     C6 FF C6 00 
052c5     E3 FF E3 00 
052c9     00 20 0A 00 | 	byte	$aa, $ff, $aa, $00, $c6, $ff, $c6, $00, $e3, $ff, $e3, $00, $00, $20, $0a, $00
052cd     00 40 14 00 
052d1     00 60 1E 00 
052d5     00 80 28 00 
052d9     00 9F 32 00 | 	byte	$00, $40, $14, $00, $00, $60, $1e, $00, $00, $80, $28, $00, $00, $9f, $32, $00
052dd     00 BF 3C 00 
052e1     00 DF 46 00 
052e5     00 FF 50 00 
052e9     1C FF 63 00 | 	byte	$00, $bf, $3c, $00, $00, $df, $46, $00, $00, $ff, $50, $00, $1c, $ff, $63, $00
052ed     39 FF 77 00 
052f1     55 FF 8A 00 
052f5     71 FF 9E 00 
052f9     8E FF B1 00 | 	byte	$39, $ff, $77, $00, $55, $ff, $8a, $00, $71, $ff, $9e, $00, $8e, $ff, $b1, $00
052fd     AA FF C5 00 
05301     C6 FF D8 00 
05305     E3 FF EC 00 
05309     00 20 14 00 | 	byte	$aa, $ff, $c5, $00, $c6, $ff, $d8, $00, $e3, $ff, $ec, $00, $00, $20, $14, $00
0530d     00 40 28 00 
05311     00 60 3C 00 
05315     00 80 50 00 
05319     00 9F 64 00 | 	byte	$00, $40, $28, $00, $00, $60, $3c, $00, $00, $80, $50, $00, $00, $9f, $64, $00
0531d     00 BF 78 00 
05321     00 DF 8C 00 
05325     00 FF A0 00 
05329     1C FF AB 00 | 	byte	$00, $bf, $78, $00, $00, $df, $8c, $00, $00, $ff, $a0, $00, $1c, $ff, $ab, $00
0532d     39 FF B5 00 
05331     55 FF C0 00 
05335     71 FF CA 00 
05339     8E FF D5 00 | 	byte	$39, $ff, $b5, $00, $55, $ff, $c0, $00, $71, $ff, $ca, $00, $8e, $ff, $d5, $00
0533d     AA FF DF 00 
05341     C6 FF EA 00 
05345     E3 FF F4 00 
05349     00 20 20 00 | 	byte	$aa, $ff, $df, $00, $c6, $ff, $ea, $00, $e3, $ff, $f4, $00, $00, $20, $20, $00
0534d     00 40 40 00 
05351     00 60 60 00 
05355     00 80 80 00 
05359     00 9F 9F 00 | 	byte	$00, $40, $40, $00, $00, $60, $60, $00, $00, $80, $80, $00, $00, $9f, $9f, $00
0535d     00 BF BF 00 
05361     00 DF DF 00 
05365     00 FF FF 00 
05369     1C FF FF 00 | 	byte	$00, $bf, $bf, $00, $00, $df, $df, $00, $00, $ff, $ff, $00, $1c, $ff, $ff, $00
0536d     39 FF FF 00 
05371     55 FF FF 00 
05375     71 FF FF 00 
05379     8E FF FF 00 | 	byte	$39, $ff, $ff, $00, $55, $ff, $ff, $00, $71, $ff, $ff, $00, $8e, $ff, $ff, $00
0537d     AA FF FF 00 
05381     C6 FF FF 00 
05385     E3 FF FF 00 
05389     00 14 20 00 | 	byte	$aa, $ff, $ff, $00, $c6, $ff, $ff, $00, $e3, $ff, $ff, $00, $00, $14, $20, $00
0538d     00 28 40 00 
05391     00 3C 60 00 
05395     00 50 80 00 
05399     00 64 9F 00 | 	byte	$00, $28, $40, $00, $00, $3c, $60, $00, $00, $50, $80, $00, $00, $64, $9f, $00
0539d     00 78 BF 00 
053a1     00 8C DF 00 
053a5     00 A0 FF 00 
053a9     1C AB FF 00 | 	byte	$00, $78, $bf, $00, $00, $8c, $df, $00, $00, $a0, $ff, $00, $1c, $ab, $ff, $00
053ad     39 B5 FF 00 
053b1     55 C0 FF 00 
053b5     71 CA FF 00 
053b9     8E D5 FF 00 | 	byte	$39, $b5, $ff, $00, $55, $c0, $ff, $00, $71, $ca, $ff, $00, $8e, $d5, $ff, $00
053bd     AA DF FF 00 
053c1     C6 EA FF 00 
053c5     E3 F4 FF    | 	byte	$aa, $df, $ff, $00, $c6, $ea, $ff, $00, $e3, $f4, $ff
053c8                 | '**********************************************************************************
053c8                 | '
053c8                 | '        Timings and colors definitions
053c8                 | '
053c8                 | '**********************************************************************************
053c8                 | 
053c8                 |    'streamer sets for text mode, to add to timings[0..5]
053c8                 | 
053c8                 | 
053c8                 | '                     bf.hs, hs,  bf.vis  visible, lr bord, pixel, ud bord,  up p., vsync, down p., mode, cpl, scanlines,  clock,                  hubset                  total vis lines
053c8     10 00 00 00 
053cc     50 00 00 00 
053d0     14 00 00 00 
053d4     00 04 00 00 | timings000      long   16,   80,    20,    1024,    112,     8,     48,      16,      16,    16,      0,  100,   480,     354693878,   %1_110000__11_0110_1100__1111_1011,   576
053d8     70 00 00 00 
053dc     08 00 00 00 
053e0     30 00 00 00 
053e4     10 00 00 00 | 	byte	$70, $00, $00, $00, $08, $00, $00, $00, $30, $00, $00, $00, $10, $00, $00, $00
053e8     10 00 00 00 
053ec     10 00 00 00 
053f0     00 00 00 00 
053f4     64 00 00 00 | 	byte	$10, $00, $00, $00, $10, $00, $00, $00, $00, $00, $00, $00, $64, $00, $00, $00
053f8     E0 01 00 00 
053fc     F6 32 24 15 
05400     FB 6C C3 01 
05404     40 02 00 00 | 	byte	$e0, $01, $00, $00, $f6, $32, $24, $15, $fb, $6c, $c3, $01, $40, $02, $00, $00
05408     12 00 00 00 
0540c     30 00 00 00 
05410     10 00 00 00 
05414     B0 03 00 00 | timings064      long   18,   48,    16,     944,     24,     8,     24,      24,      32,    24,     64,  112,   496,     319215686,   %1_110010__11_0010_1101__1111_1011,   544
05418     18 00 00 00 
0541c     08 00 00 00 
05420     18 00 00 00 
05424     18 00 00 00 | 	byte	$18, $00, $00, $00, $08, $00, $00, $00, $18, $00, $00, $00, $18, $00, $00, $00
05428     20 00 00 00 
0542c     18 00 00 00 
05430     40 00 00 00 
05434     70 00 00 00 | 	byte	$20, $00, $00, $00, $18, $00, $00, $00, $40, $00, $00, $00, $70, $00, $00, $00
05438     F0 01 00 00 
0543c     46 D8 06 13 
05440     FB 2D CB 01 
05444     20 02 00 00 | 	byte	$f0, $01, $00, $00, $46, $d8, $06, $13, $fb, $2d, $cb, $01, $20, $02, $00, $00
05448     10 00 00 00 
0544c     40 00 00 00 
05450     10 00 00 00 
05454     30 03 00 00 | timings128      long   16,   64,    16,     816,      8,     8,     8,       32,      64,    32,    128,  100,   480,     283750000,   %1_111111__11_1000_1011__1111_1011,   496
05458     08 00 00 00 
0545c     08 00 00 00 
05460     08 00 00 00 
05464     20 00 00 00 | 	byte	$08, $00, $00, $00, $08, $00, $00, $00, $08, $00, $00, $00, $20, $00, $00, $00
05468     40 00 00 00 
0546c     20 00 00 00 
05470     80 00 00 00 
05474     64 00 00 00 | 	byte	$40, $00, $00, $00, $20, $00, $00, $00, $80, $00, $00, $00, $64, $00, $00, $00
05478     E0 01 00 00 
0547c     70 AE E9 10 
05480     FB 8B FF 01 
05484     F0 01 00 00 | 	byte	$e0, $01, $00, $00, $70, $ae, $e9, $10, $fb, $8b, $ff, $01, $f0, $01, $00, $00
05488     10 00 00 00 
0548c     50 00 00 00 
05490     14 00 00 00 
05494     00 04 00 00 | timings192      long   16,   80,    20,    1024,      0,     8,     0,       16,      16,    16,    192,  128,   576,     354693878,   %1_110000__11_0110_1100__1111_1011,   576
05498     00 00 00 00 
0549c     08 00 00 00 
054a0     00 00 00 00 
054a4     10 00 00 00 | 	byte	$00, $00, $00, $00, $08, $00, $00, $00, $00, $00, $00, $00, $10, $00, $00, $00
054a8     10 00 00 00 
054ac     10 00 00 00 
054b0     C0 00 00 00 
054b4     80 00 00 00 | 	byte	$10, $00, $00, $00, $10, $00, $00, $00, $c0, $00, $00, $00, $80, $00, $00, $00
054b8     40 02 00 00 
054bc     F6 32 24 15 
054c0     FB 6C C3 01 
054c4     40 02 00 00 | 	byte	$40, $02, $00, $00, $f6, $32, $24, $15, $fb, $6c, $c3, $01, $40, $02, $00, $00
054c8     50 00 00 00 
054cc     A0 00 00 00 
054d0     54 00 00 00 
054d4     30 03 00 00 | timings256      long   80,  160,    84,     816,      8,     8,     8,        8,      12,     8,    256,  100,   480,     357959184,   %1_110000__11_0110_0100__1111_1011,   496
054d8     08 00 00 00 
054dc     08 00 00 00 
054e0     08 00 00 00 
054e4     08 00 00 00 | 	byte	$08, $00, $00, $00, $08, $00, $00, $00, $08, $00, $00, $00, $08, $00, $00, $00
054e8     0C 00 00 00 
054ec     08 00 00 00 
054f0     00 01 00 00 
054f4     64 00 00 00 | 	byte	$0c, $00, $00, $00, $08, $00, $00, $00, $00, $01, $00, $00, $64, $00, $00, $00
054f8     E0 01 00 00 
054fc     10 06 56 15 
05500     FB 64 C3 01 
05504     F0 01 00 00 | 	byte	$e0, $01, $00, $00, $10, $06, $56, $15, $fb, $64, $c3, $01, $f0, $01, $00, $00
05508     50 00 00 00 
0550c     32 00 00 00 
05510     50 00 00 00 
05514     30 03 00 00 | timings320      long   80,   50,    80,     816,      8,     8,     8,        8,      12,     8,    320,  100,   480,     322162162,   %1_100100__10_0101_0011__1111_1011,   496
05518     08 00 00 00 
0551c     08 00 00 00 
05520     08 00 00 00 
05524     08 00 00 00 | 	byte	$08, $00, $00, $00, $08, $00, $00, $00, $08, $00, $00, $00, $08, $00, $00, $00
05528     0C 00 00 00 
0552c     08 00 00 00 
05530     40 01 00 00 
05534     64 00 00 00 | 	byte	$0c, $00, $00, $00, $08, $00, $00, $00, $40, $01, $00, $00, $64, $00, $00, $00
05538     E0 01 00 00 
0553c     F2 CD 33 13 
05540     FB 53 92 01 
05544     F0 01 00 00 | 	byte	$e0, $01, $00, $00, $f2, $cd, $33, $13, $fb, $53, $92, $01, $f0, $01, $00, $00
05548     18 00 00 00 
0554c     30 00 00 00 
05550     18 00 00 00 
05554     30 03 00 00 | timings384      long   24,   48,    24,     816,      8,     8,     8,        8,      12,     8,    384,  100,   480,     286363636,   %1_010101__01_0011_1010__1111_1011,   496
05558     08 00 00 00 
0555c     08 00 00 00 
05560     08 00 00 00 
05564     08 00 00 00 | 	byte	$08, $00, $00, $00, $08, $00, $00, $00, $08, $00, $00, $00, $08, $00, $00, $00
05568     0C 00 00 00 
0556c     08 00 00 00 
05570     80 01 00 00 
05574     64 00 00 00 | 	byte	$0c, $00, $00, $00, $08, $00, $00, $00, $80, $01, $00, $00, $64, $00, $00, $00
05578     E0 01 00 00 
0557c     F4 8F 11 11 
05580     FB 3A 55 01 
05584     F0 01 00 00 | 	byte	$e0, $01, $00, $00, $f4, $8f, $11, $11, $fb, $3a, $55, $01, $f0, $01, $00, $00
05588     20 00 00 00 
0558c     40 00 00 00 
05590     22 00 00 00 
05594     80 03 00 00 | timings448      long   32,   64,    34,     896,      0,     8,     0,        8,      12,     8,    448,  112,   496,     322162162,   %1_100100__10_0101_0011__1111_1011,   496
05598     00 00 00 00 
0559c     08 00 00 00 
055a0     00 00 00 00 
055a4     08 00 00 00 | 	byte	$00, $00, $00, $00, $08, $00, $00, $00, $00, $00, $00, $00, $08, $00, $00, $00
055a8     0C 00 00 00 
055ac     08 00 00 00 
055b0     C0 01 00 00 
055b4     70 00 00 00 | 	byte	$0c, $00, $00, $00, $08, $00, $00, $00, $c0, $01, $00, $00, $70, $00, $00, $00
055b8     F0 01 00 00 
055bc     F2 CD 33 13 
055c0     FB 53 92 01 
055c4     F0 01 00 00 | 	byte	$f0, $01, $00, $00, $f2, $cd, $33, $13, $fb, $53, $92, $01, $f0, $01, $00, $00
055c8                 | 'timings999      long    0,    0,     0,       0,      0,     0,     0,        0,       0,     0,      0,    0,     0,             0,                                    0,     0
055c8     00 75 C7 97 
055cc     27 47 F6 0A 
055d0     05 79 CB 9B 
055d4     2B 4B EA 0F | vgacolors       byte   0, 117, 199, 151, 39, 71, 246, 10, 5, 121, 203, 155, 43, 75, 234, 15
055d8                 | 
055d8     28 12 64 FD | hdmi            setq    #9
055dc     00 DF 06 FB |                 rdlong  framebuf,  ptra                  'read pointers
055e0                 | 
055e0     00 26 6F FC |                 wrlong  #aend,#0                         'write driver length to hub#0: DEBUG/demo
055e4     3C 00 66 FD |                 setcmod #$100                            'enable HDMI mode
055e8     C0 F9 06 F6 |                 mov     ii,#448                          '7 << 6          
055ec     78 F9 02 F1 |                 add     ii,hbase
055f0     58 F8 62 FD |                 drvl    ii                                 '#7<<6 + hdmi_base      ' enable HDMI pins
055f4     7B 0B 80 FF 
055f8     7C 01 0B FC |                 wrpin   ##%10110_1111_0111_10_00000_0, ii  '#7<<6 + hdmi_base      ' a '123 ohm BITDAC for pins
055fc                 | 
055fc     66 66 86 FF 
05600     1D 9A 65 FD |                 setxfrq ##$0CCCCCCC+1                   'set streamer freq to 1/10th clk
05604                 | 
05604                 | 
05604                 | ''--------  frame rendering main loop  ---------------------------------------------------
05604                 | 
05604                 | p101
05604     28 14 64 FD |                 setq    #10
05608     00 DF 06 FB |                 rdlong  framebuf,  ptra
0560c     28 1E 64 FD |                 setq    #15
05610     74 9B 02 FB |                 rdlong  m_bs,modeptr                     ' read timings
05614     71 99 02 FB |                 rdlong  border,borderptr
05618                 | 
05618     01 C4 06 F1 |                 add     frames,#1
0561c     76 F5 02 F6 |                 mov     dlptr2,dlptr
05620                 | 
05620     73 C7 02 FB |                 rdlong  cursorx, cursorptr               ' read cursor position
05624     63 C9 EA F8 |                 getbyte cursory, cursorx,#1              ' y position at byte #1
05628     63 C3 F2 F8 |                 getbyte cursorsh,cursorx,#2              ' shape at byte #2
0562c     FF C6 06 F5 |                 and     cursorx,#255                     ' clear the cursor x varioble from y and shape
05630                 |  '' up porch
05630                 | 
05630     48 FD 02 F6 |                 mov     hsync0,sync_000                  '
05634     49 FF 02 F6 |                 mov     hsync1,sync_001
05638     37 A8 46 FB |                 callpa  i_upporch ,#blank
0563c     72 01 68 FC |                 wrlong  #0,vblankptr
05640                 |                 
05640     1F EA 16 F4 |                 testb   paletteptr,#31 wc
05644     29 FE 65 3D |          if_nc  setq2   #255
05648     75 01 00 3B |          if_nc  rdlong  $000, paletteptr                'read palette
0564c                 | 
0564c                 | '' cursor blinking
0564c                 | 
0564c     04 C4 0E F4 |                 testb   frames,#4 wz                     ' cursor blinks at framerate/16, todo: define
05650     81 C6 06 A6 |          if_z   mov     cursorx,#129                     ' to switch the cursor off, move it out of the screen
05654                 | 
05654                 | '' main screen
05654                 | 
05654     00 BE 06 F6 |                 mov linenum,#0
05658     00 18 07 F6 |                 mov rcnt,#0
0565c     00 1C 07 F6 |                 mov rcnt2a,#0
05660                 | 
05660                 | 
05660     00 18 0F F2 | p301            cmp rcnt,#0 wz
05664     18 00 90 AD |         if_z    jmp #p306
05668     01 18 87 F1 |                 sub rcnt,#1
0566c     90 F7 02 F6 |                 mov dl,rdl
05670     8D 1D 0B F7 |                incmod rcnt2a,rcnt2 wz
05674     8F F7 02 A1 |    if_z        add dl,roffset  
05678     7B 21 03 F6 |                 mov rdl,dl
0567c     04 00 90 FD |                 jmp #p307          
05680                 |           
05680                 |                 
05680     7A F7 02 FB | p306            rdlong  dl,dlptr2
05684     7B FB 1A F6 | p307            mov     framebuf2,dl wcz                  'read a line start in the framebuffer from DL entry
05688     6A FA 7A FD |                 rczr    framebuf2 wcz                     'but only if not %11 at lowest bits which means special DL entry
0568c     34 00 90 7D |    if_nz_or_nc  jmp     #p303                        
05690                 | 
05690                 | '' Special entry:
05690                 | '' - repeat                 %nnnn_nnnn_nnnn_qqqq_mmmm_mmmm_mmmm_0111    repeat the next dl line n times, after q lines add offset m
05690                 | '' - reload palette         %mmmm_mmmm_nnnn_nnnn_qqqq_qqqq_qqqq_1011    reload n palette entries from m color from palette_ptr+q
05690                 | '' - set border color       %rrrr_rrrr_gggg_gggg_bbbb_bbbb_0001_0011    set border to rgb
05690                 | '' - set border color       %0000_0000_0000_0000_pppp_pppp_0001_1011    set border color to palette entry #p
05690                 | '' todo: set horizontal scroll (if needed)
05690                 | 
05690     02 FA 66 F0 |                 shl framebuf2,#2
05694     7D 23 43 F8 |                 getnib dlc,framebuf2,#0
05698     04 22 0F F2 |                 cmp dlc,#%100 wz
0569c                 |   
0569c                 |                 
0569c     04 F4 06 F1 |                 add dlptr2,#4
056a0     BC FF 9F 5D |                              if_nz  jmp #p301  '' now ignore unknown instruction 
056a4     7A 21 03 FB |                  rdlong rdl,dlptr2
056a8     7D 19 3B F9 |                  getword rcnt,framebuf2,#1 
056ac     04 18 47 F0 |                  shr rcnt,#4
056b0                 |              
056b0     7D 1B 63 F8 |                  getnib rcnt2,framebuf2,#4
056b4     7D 1F 33 F9 |                  getword roffset,framebuf2,#0
056b8                 |                 
056b8     04 1E 47 F0 |                  shr roffset,#4
056bc     0C 1E 67 F0 |                  shl roffset,#12
056c0                 |   
056c0     9C FF 9F FD |                  jmp #p301
056c4                 |                  
056c4                 |                  
056c4                 | p303           ' mov     framebuf2,dl                    ' read a line start in the framebuffer from DL entry
056c4     0C FA 46 F0 |                 shr     framebuf2,#12
056c8     02 FA 66 F0 |                 shl     framebuf2,#2
056cc                 | 
056cc     7B 03 E3 F8 |                 getbyte t1,dl,#0
056d0     00 02 0F F2 |                 cmp     t1,#0 wz
056d4     34 00 90 AD |     if_z        jmp     #borderline
056d8                 | 
056d8     00 F6 16 F4 |                  testb   dl,#0  wc     ' bit 0 set = text OR extended:TODO
056dc     50 00 90 CD |           if_c   jmp     #textline
056e0     50 02 90 3D |           if_nc  jmp     #graphline
056e4                 | '
056e4     01 BE 06 F1 | p302            add     linenum,#1
056e8     04 F4 06 F1 |                 add     dlptr2,#4
056ec     5C BF 0A F2 |                 cmp     linenum,i_totalvis  wz
056f0     6C FF 9F 5D |          if_nz  jmp     #p301
056f4                 | 
056f4     72 03 68 FC | p112            wrlong  #1,vblankptr
056f8     07 AC 46 FB |                 callpa  i_downporch ,#blank             'bottom blanks
056fc                 | 
056fc     4A FD 02 F6 |                 mov     hsync0,sync_222                 'vsync on
05700     4B FF 02 F6 |                 mov     hsync1,sync_223
05704     04 AA 46 FB |                 callpa  i_vsync,#blank                  'vertical sync blanks
05708     F8 FE 9F FD |                 jmp     #p101
0570c                 | 
0570c                 | '' ---------------  END of frame rendering loop -------------------------------------------
0570c                 | 
0570c                 | 
0570c     14 00 B0 FD | borderline      call    #hsync                      ' make a border
05710     4C A1 C2 FC |                 xcont   m_vi,border
05714     CC FF 9F FD |                 jmp     #p302
05718                 | 
05718                 | 
05718     08 00 B0 FD | blank           call    #hsync                          'blank lines
0571c     7E A1 C2 FC |                 xcont   m_vi,hsync0
05720     FD ED 6F 0B |         _ret_   djnz    pa,#blank
05724                 | 
05724     7E 9B C2 FC | hsync           xcont   m_bs,hsync0                     'horizontal sync
05728     7F 9D B2 FC |                 xzero   m_sn,hsync1
0572c     7E 9F C2 0C |         _ret_   xcont   m_bv,hsync0
05730                 | 
05730                 | 
05730                 | 
05730                 | ''--%aaaa_aaaa_aaaa_aaaa_aazz_nnnn_llll_ll_01 - txt
05730                 |   '' aaaa_aaaa_aaaa_aaaa_aazz_rrrr_rrrr_cc_10 - graph
05730                 |   '' aaaa_aaaa_aaaa-aaaa_aarr_rrrr_rrrr_rr_11 - extended, next long to read
05730                 | 
05730                 | '' Display a text line DL[31..12]=addr, nibble #1=textline, zoom: todo
05730                 | 
05730     63 CD 02 F6 | textline        mov     cursorpos2,cursorx              ' we need another var for cursor as this code will repeat 16x for every char line
05734                 | 
05734     7B 01 53 F8 |                 getnib  fontline,dl,#2                 ' fontline is 0 to 15, a line in font def
05738     7B 17 5B F8 |                 getnib  zoom, dl,#3
0573c     03 16 07 F5 |                 and             zoom, #3
05740                 | 
05740                 | 
05740                 | 
05740     7B BD 02 F6 |                 mov     linestart,dl                    ' linestart will be used for checking cursor y and compute line start addr in the buffer
05744     02 BC 46 F0 |                 shr     linestart,#2                    ' scanline to char line
05748     3F BC 06 F5 |                 and     linestart,#63
0574c     64 BD 0A F2 |                 cmp     linestart,cursory wz            ' if the cursor is not here
05750     81 CC 06 56 |           if_nz mov     cursorpos2,#129                 ' move it out of the screen
05754                 | 
05754     CC FF BF FD |                 call    #hsync                          ' now call hsync to gain some time between xconts
05758                 | 
05758                 |                        ' if fontline =0, get a border color
05758                 | 
05758     51 03 33 F9 | p102            getword t1,m_border,#0
0575c     00 02 0F F2 |                 cmp     t1, #0 wz
05760     4C A3 C2 5C |           if_nz xcont   m_border,border                 ' display a left border if exists
05764                 | 
05764     61 01 1B F2 |                 cmp     fontline,cursorsh wcz           ' if the cursor have to be not displayed due to its shape
05768     81 CA 06 C6 |           if_c  mov     cursorpos,#129                  ' move it out of the screen
0576c     66 CB 02 36 |          if_nc  mov     cursorpos,cursorpos2
05770     01 CA 06 F1 |                 add     cursorpos,#1                    ' we will substract #1 below so compensate this here
05774     70 05 03 F6 |                 mov     t2,fontbuf                      ' font definition pointer
05778     80 05 03 F1 |                 add     t2,fontline                     ' add a current font line
0577c     52 BB 02 F6 |                 mov m_lut2, m_lut1
05780     6A BB 02 F1 |                 add m_lut2, lutt1
05784     58 0F 03 F6 |                 mov cpl2,i_cpl
05788                 | 
05788     02 16 0F F2 |                cmp zoom,#2 wz
0578c     E4 00 90 AD |           if_z jmp #p420
05790     01 16 0F F2 |                cmp zoom,#1 wz
05794     64 00 90 AD |           if_z jmp #p410
05798     00 16 0F F2 |                 cmp zoom,#0 wz
0579c     04 00 90 AD |           if_z jmp #p400
057a0     50 01 90 FD |                jmp #p430
057a4                 | 
057a4                 |                    '
057a4                 |  ''---------------------------------------------------------------------------------------------------------
057a4     7D 11 03 FB |  p400                   rdlong  char,framebuf2          ' read a long char                          '1
057a8     88 13 F3 F8 |                         getbyte backcolor,char,#2       ' byte #2 - background color                '2
057ac     88 15 FB F8 |                         getbyte charcolor,char,#3       ' byte #3 - foreground color                '3
057b0     88 11 E3 F8 |                         getbyte char,char, #0           ' word #0 - char code                       '4
057b4     04 FA 06 F1 |                         add     framebuf2,#4            ' point to the next long                    '5
057b8     04 10 67 F0 |                         shl     char,#4                 ' 1 char=16 bytes in font def               '6
057bc     82 11 03 F1 |                         add     char,t2                 ' add this to font/line pointer             '7
057c0     88 03 C3 FA |                         rdbyte  t1,char                 ' and get 8 pixels prom there               '8
057c4     01 CA 8E F1 |                         sub     cursorpos,#1 wz         ' if there is a cursor                      '9
057c8     FF 02 67 A5 |                   if_z  xor     t1, #$FF                ' reverse the colors                        '10
057cc                 | 
057cc     81 BB C2 FC |                         xcont m_lut2,t1
057d0                 | 
057d0     89 0B A3 FA |                         rdlut   t5,backcolor            ' read a background color from palette      '13
057d4     60 0B 33 FC |                         wrlut   t5,lutaddr              ' and write it to LUT #0 or #32             '14
057d8     01 C0 06 F1 |                         add     lutaddr,#1                                                          '15
057dc     8A 0B A3 FA |                         rdlut   t5,charcolor            ' the same for the foreground               '16
057e0     60 0B 33 FC |                         wrlut   t5,lutaddr                                                          '17
057e4     01 C0 86 F1 |                         sub     lutaddr,#1
057e8                 | 
057e8     10 BA E6 F4 |                         bitnot  m_lut2,#16                                                          '19
057ec     10 A4 E6 F4 |                         bitnot  m_lut1,#16                                                          '19
057f0     20 C0 66 F5 |                         xor     lutaddr,#32             ' use LUT #0-1 and 32-33                    '20
057f4                 | 
057f4     EB 0F 6F FB |                         djnz   cpl2,#p400
057f8     28 01 90 FD |  p401                   jmp    #p103
057fc                 | 
057fc                 | ''------------------------------------------------------------------------------------------------------------
057fc                 | 
057fc     01 0E 47 F0 |  p410                   shr cpl2,#1
05800                 | 
05800                 | ''---------------------------------------------------------------------------------------------------------
05800     7D 11 03 FB |  p412                   rdlong  char,framebuf2          ' read a long char                          '1
05804     88 13 F3 F8 |                         getbyte backcolor,char,#2       ' byte #2 - background color                '2
05808     88 15 FB F8 |                         getbyte charcolor,char,#3       ' byte #3 - foreground color                '3
0580c     88 11 E3 F8 |                         getbyte char,char, #0           ' word #0 - char code                       '4
05810     04 FA 06 F1 |                         add     framebuf2,#4            ' point to the next long                    '5
05814     04 10 67 F0 |                         shl     char,#4                 ' 1 char=16 bytes in font def               '6
05818     82 11 03 F1 |                         add     char,t2                 ' add this to font/line pointer             '7
0581c     88 03 C3 FA |                         rdbyte  t1,char                 ' and get 8 pixels prom there               '8
05820     01 CA 8E F1 |                         sub     cursorpos,#1 wz         ' if there is a cursor                      '9
05824     FF 02 67 A5 |                   if_z  xor     t1, #$FF                ' reverse the colors                        '10
05828                 | 
05828                 | 
05828     81 07 4B F8 |                         getnib t3,t1,#1                   ' 4 pixels to t3                                              '1  - +
0582c     81 03 43 F8 |                         getnib t1,t1,#0                   ' 4 pixels to t1                                                      '2  - +
05830     63 02 63 FD |                         mergew t1                         ' make 01010101 from 1111                                     '3  - +
05834     03 02 07 FA |                         mul t1,#3
05838     81 BB C2 FC |                         xcont m_lut2,t1
0583c     89 0B A3 FA |                         rdlut   t5,backcolor            ' read a background color from palette      '13
05840     60 0B 33 FC |                         wrlut   t5,lutaddr              ' and write it to LUT #0 or #32             '14
05844     01 C0 06 F1 |                         add     lutaddr,#1                                                          '15
05848     8A 0B A3 FA |                         rdlut   t5,charcolor            ' the same for the foreground               '16
0584c     60 0B 33 FC |                         wrlut   t5,lutaddr                                                          '17
05850     01 C0 86 F1 |                         sub     lutaddr,#1
05854     63 06 63 FD |                         mergew t3
05858     03 06 07 FA |                         mul t3,#3
0585c     83 BB C2 FC |                         xcont m_lut2,t3
05860                 | 
05860     10 BA E6 F4 |                         bitnot  m_lut2,#16                                                          '19
05864     10 A4 E6 F4 |                         bitnot  m_lut1,#16                                                          '19
05868                 | 
05868     20 C0 66 F5 |                         xor     lutaddr,#32             ' use LUT #0-1 and 32-33                    '20
0586c                 | 
0586c     E4 0F 6F FB |                         djnz   cpl2,#p412
05870     B0 00 90 FD |  p411                   jmp    #p103
05874                 | 
05874                 | ''------------------------------------------------------------------------------------------------------------
05874                 | 
05874     02 0E 47 F0 |  p420                   shr cpl2,#2
05878                 | 
05878                 | ''---------------------------------------------------------------------------------------
05878     7D 11 03 FB |  p422                   rdlong  char,framebuf2          ' read a long char                          '1
0587c     88 13 F3 F8 |                         getbyte backcolor,char,#2       ' byte #2 - background color                '2
05880     88 15 FB F8 |                         getbyte charcolor,char,#3       ' byte #3 - foreground color                '3
05884     88 11 E3 F8 |                         getbyte char,char, #0           ' word #0 - char code                       '4
05888     04 FA 06 F1 |                         add     framebuf2,#4            ' point to the next long                    '5
0588c     04 10 67 F0 |                         shl     char,#4                 ' 1 char=16 bytes in font def               '6
05890     82 11 03 F1 |                         add     char,t2                 ' add this to font/line pointer             '7
05894     88 03 C3 FA |                         rdbyte  t1,char                 ' and get 8 pixels prom there               '8
05898     01 CA 8E F1 |                         sub     cursorpos,#1 wz         ' if there is a cursor                      '9
0589c     FF 02 67 A5 |                   if_z  xor     t1, #$FF                ' reverse the colors                        '10
058a0                 | 
058a0     61 02 63 FD |                         mergeb t1
058a4     81 07 3B F9 |                         getword t3,t1,#1
058a8     0F 02 07 FA |                         mul t1,#15
058ac     81 BB C2 FC |                         xcont m_lut2,t1
058b0                 | 
058b0     89 0B A3 FA |                         rdlut   t5,backcolor            ' read a background color from palette      '13
058b4     60 0B 33 FC |                         wrlut   t5,lutaddr              ' and write it to LUT #0 or #32             '14
058b8     01 C0 06 F1 |                         add     lutaddr,#1                                                          '15
058bc     8A 0B A3 FA |                         rdlut   t5,charcolor            ' the same for the foreground               '16
058c0     60 0B 33 FC |                         wrlut   t5,lutaddr                                                          '17
058c4     01 C0 86 F1 |                         sub     lutaddr,#1
058c8                 | 
058c8     81 09 EB F8 |                         getbyte t4,t1,#1        '
058cc     84 BB C2 FC |                         xcont m_lut2,t4                                                                                                           '
058d0                 | 
058d0     0F 06 07 FA |                         mul t3,#15
058d4     83 BB C2 FC |                         xcont m_lut2,t3
058d8                 | 
058d8     83 0B EB F8 |                         getbyte t5,t3,#1
058dc     85 BB C2 FC |                         xcont m_lut2, t5
058e0     10 BA E6 F4 |                         bitnot  m_lut2,#16                                                          '19
058e4     10 A4 E6 F4 |                         bitnot  m_lut1,#16                                                          '19
058e8                 | 
058e8     20 C0 66 F5 |                         xor     lutaddr,#32             ' use LUT #0-1 and 32-33                    '20
058ec                 | 
058ec     E2 0F 6F FB |                         djnz   cpl2,#p422
058f0     30 00 90 FD |  p421                   jmp    #p103
058f4                 | 
058f4                 | '--------------------------------------------------------------------------------------------------------------
058f4                 | 
058f4     7D 11 03 FB |  p430                   rdlong  char,framebuf2          ' read a long char                          '1
058f8     88 13 F3 F8 |                         getbyte backcolor,char,#2       ' byte #2 - background color                '2
058fc     88 15 FB F8 |                         getbyte charcolor,char,#3       ' byte #3 - foreground color                '3
05900                 | 
05900     00 BA C6 FC |                         xcont m_lut2,#0
05904                 | 
05904     89 0B A3 FA |                         rdlut   t5,backcolor            ' read a background color from palette      '13
05908     60 0B 33 FC |                         wrlut   t5,lutaddr              ' and write it to LUT #0 or #32             '14
0590c     01 C0 06 F1 |                         add     lutaddr,#1                                                          '15
05910     8A 0B A3 FA |                         rdlut   t5,charcolor            ' the same for the foreground               '16
05914     60 0B 33 FC |                         wrlut   t5,lutaddr                                                          '17
05918     01 C0 86 F1 |                         sub     lutaddr,#1
0591c                 | 
0591c     F5 0F 6F FB |                         djnz   cpl2,#p430
05920     00 00 90 FD |  p431                   jmp    #p103
05924                 | 
05924                 | ''------------------------------------------------------------------------------------------------------------
05924                 | 
05924                 | 
05924                 | 
05924     51 25 33 F9 | p103            getword  mb2,m_border,#0
05928     00 24 0F F2 |                 cmp      mb2, #0 wz
0592c     4C A3 C2 5C |                 if_nz    xcont   m_border,border            'display a right border if exists
05930                 | 
05930     B0 FD 9F FD |                 jmp #p302
05934                 | 
05934                 | '' -------------------------------------- END of text line ---------------------------------
05934                 | 
05934                 |   '' aaaa_aaaa_aaaa_aaaa_aazz_rrrr_rrrr_cc_10 - graph - display a graphics line
05934                 | 
05934     EC FD BF FD | graphline       call    #hsync                          ' now call hsync to gain some time between xconts
05938                 | 
05938                 | 
05938     51 25 33 F9 | p202            getword mb2,m_border,#0
0593c     00 24 0F F2 |                 cmp     mb2, #0 wz
05940     4C A3 C2 5C |           if_nz xcont   m_border,border                 ' display a left border if exists
05944                 | 
05944                 | '----------------------------------------- display pixels
05944                 | 
05944     52 BB 02 F6 |                 mov     m_lut2,m_lut1                   ' m_lut1 loaded from hub timing block, pixel per long
05948     58 0F 03 F6 |                 mov     cpl2,i_cpl                      ' i_cpl in graphic modes is longs per line
0594c                 | 
0594c     7B 17 5B F8 |                 getnib  zoom, dl,#3
05950     03 16 07 F5 |                 and             zoom, #3                        ' get a horizontal zoom for the line
05954                 | 
05954     7B BD 02 F6 |                 mov     colordepth,dl                   ' get a color depth, reuse linestart var f         '
05958     0C BC 06 F5 |                 and     colordepth,#12
0595c                 | 
0595c     00 BC 0E F2 |                 cmp     colordepth,#%0000 wz            ' 1 bpp modes
05960     6B BB 02 A1 |           if_z  add     m_lut2,lutg1
05964     64 00 90 AD |           if_z  jmp     #p240
05968                 | 
05968     04 BC 0E F2 |                 cmp     colordepth,#%0100 wz            ' 2 bpp modes
0596c     6C BB 02 A1 |           if_z  add     m_lut2,lutg2
05970     98 00 90 AD |           if_z  jmp     #p250
05974                 | 
05974     08 BC 0E F2 |                 cmp     colordepth,#%1000 wz            ' 4 bpp modes
05978     6D BB 02 A1 |           if_z  add     m_lut2,lutg4
0597c     FC 00 90 AD |           if_z  jmp     #p260
05980                 | 
05980     6E BB 02 F1 |                 add m_lut2,lutg8                        ' 8 bpp modes
05984                 | 
05984                 | '' --- 8 bit color modes
05984                 | 
05984     00 16 0F F2 |                 cmp zoom, #%00 wz   '256 colors, zoom x1
05988     50 01 90 AD |                 if_z jmp #p251      'there is an universal loop for 1x zoom at p251, saves one long of skip pattern
0598c                 | 
0598c     01 16 0F F2 |                 cmp zoom, #%01 wz   '256 colors, zoom x2
05990     2A 0C 07 A6 |                 if_z mov skippattern,#%101010
05994                 |        
05994                 |  '  
05994     02 16 0F F2 |                 cmp zoom, #%10 wz   '256 colors, zoom x4
05998     25 0C 07 A6 |                 if_z mov skippattern,#%100101
0599c                 |     
0599c                 |  
0599c     05 0C 07 56 |                 if_nz mov skippattern,#%000101
059a0     01 0E 47 50 |                 if_nz shr cpl2,#1         ' if 8x zoom, 2 xconts used in one loop, so divide loop count by 2
059a4                 |         
059a4                 | 
059a4                 |         
059a4     7D 11 03 FB | p235               rdlong  char,framebuf2
059a8     32 0C 63 FD |                    skipf skippattern
059ac     02 FA 06 F1 |                    add     framebuf2,#2             '0 1 1
059b0     01 FA 06 F1 |                    add     framebuf2,#1             '1 0 0
059b4     50 10 FF F9 |                    movbyts char,#%01010000          '0 1 1
059b8     00 10 FF F9 |                    movbyts char,#%00000000          '1 0 0
059bc     88 BB C2 FC |                    xcont   m_lut2,char              '0 0 0
059c0     88 BB C2 FC |                    xcont   m_lut2,char              '1 1 0
059c4     F7 0F 6F FB |                    djnz    cpl2,#p235
059c8                 | 
059c8     20 01 90 FD |                jmp    #p203
059cc                 |                   
059cc                 | 
059cc                 | 
059cc                 | '' --- 1 bit color modes
059cc                 | 
059cc     00 16 0F F2 | p240          cmp zoom, #%00 wz     '2 colors, zoom x1
059d0     08 01 90 AD |        if_z   jmp #p251              'there is an universal loop for 1x zoom at p251, saves one long of skip pattern
059d4                 | 
059d4     01 16 0F F2 |               cmp zoom, #%01 wz     '2 colors, zoom x2
059d8     13 0C 07 A6 |        if_z   mov skippattern,#%10011
059dc     08 0C 07 56 |        if_nz  mov skippattern,#%01000
059e0                 | 
059e0                 | 
059e0     7D 11 E3 FA | p241               rdword  char,framebuf2
059e4     44 10 FF F9 |                    movbyts char,#%01000100
059e8     63 10 63 FD |                    mergew  char
059ec     32 0C 63 FD |                    skipf skippattern
059f0     44 10 FF F9 |                    movbyts char,#%01000100         ' 1 0
059f4     63 10 63 FD |                    mergew  char                    ' 1 0
059f8     88 BB C2 FC |                    xcont   m_lut2,char             ' 0 0
059fc     02 FA 06 F1 |                    add     framebuf2,#2                    ' 0 1
05a00     01 FA 06 F1 |                    add     framebuf2,#1                ' 1 0
05a04     F6 0F 6F FB |                    djnz   cpl2,#p241
05a08                 | 
05a08                 | 
05a08     E0 00 90 FD |                jmp    #p203
05a0c                 | 
05a0c                 | '' --- 2 bit color modes
05a0c                 | 
05a0c     00 16 0F F2 | p250          cmp zoom, #%00 wz     '4 colors, zoom x1
05a10     C8 00 90 AD |        if_z   jmp #p251
05a14                 | 
05a14     01 16 0F F2 |               cmp zoom, #%01 wz     '4 colors, zoom x2
05a18     30 00 90 AD |        if_z   jmp #p252
05a1c                 | 
05a1c                 | 
05a1c     7D 11 C3 FA | p254               rdbyte char,framebuf2
05a20     04 0A 07 F6 |                    mov  t5,#4
05a24     02 10 67 F0 | p255               shl  char,#2
05a28     88 03 53 F8 |                    getnib  t1,char,#2
05a2c     03 02 07 F5 |                    and     t1,#3
05a30     55 02 07 FA |                    mul     t1,#$55
05a34     81 05 03 F9 |                    rolbyte  t2,t1,#0
05a38     FA 0B 6F FB |                    djnz    t5,#p255
05a3c     82 BB C2 FC |                    xcont   m_lut2,t2
05a40     01 FA 06 F1 |                    add     framebuf2,#1
05a44     F5 0F 6F FB |                    djnz    cpl2,#p254
05a48     A0 00 90 FD |                    jmp     #p203
05a4c                 | 
05a4c     7D 11 E3 FA | p252               rdword char,framebuf2
05a50     08 0A 07 F6 |                    mov  t5,#8
05a54     02 10 67 F0 | p253               shl  char,#2
05a58     88 03 63 F8 |                    getnib  t1,char,#4
05a5c     03 02 07 F5 |                    and     t1,#3
05a60     05 02 07 FA |                    mul     t1,#5
05a64     81 05 83 F8 |                    rolnib  t2,t1,#0
05a68     FA 0B 6F FB |                    djnz    t5,#p253
05a6c     82 BB C2 FC |                    xcont   m_lut2,t2
05a70     02 FA 06 F1 |                    add     framebuf2,#2
05a74     F5 0F 6F FB |                    djnz    cpl2,#p252
05a78     70 00 90 FD |                    jmp     #p203
05a7c                 | 
05a7c                 | '' ------ 4 bit color modes
05a7c                 | 
05a7c     00 16 0F F2 | p260          cmp zoom, #%00 wz     '4 colors, zoom x1, the same loop as 2bpp
05a80     58 00 90 AD |        if_z   jmp #p251
05a84                 | 
05a84     01 16 0F F2 |               cmp zoom, #%01 wz     '4 colors, zoom x2
05a88     2C 00 90 AD |        if_z   jmp #p262
05a8c                 | 
05a8c                 | 
05a8c     7D 11 C3 FA | p263               rdbyte char,framebuf2
05a90     02 0A DC FC |                            rep #5,#2
05a94     88 05 8B F8 |                              rolnib t2,char,#1
05a98     88 05 8B F8 |                                  rolnib t2,char,#1
05a9c     88 05 8B F8 |                              rolnib t2,char,#1
05aa0     88 05 8B F8 |                                  rolnib t2,char,#1
05aa4     04 10 67 F0 |                              shl char,#4
05aa8     82 BB C2 FC |                    xcont   m_lut2,t2
05aac     01 FA 06 F1 |                    add     framebuf2,#1
05ab0     F6 0F 6F FB |                    djnz    cpl2,#p263
05ab4     34 00 90 FD |                    jmp     #p203
05ab8                 | 
05ab8     7D 11 E3 FA | p262               rdword  char,framebuf2
05abc     04 06 DC FC |                            rep #3,#4
05ac0     88 05 9B F8 |                              rolnib t2,char,#3
05ac4     88 05 9B F8 |                                  rolnib t2,char,#3
05ac8     04 10 67 F0 |                              shl char,#4
05acc     82 BB C2 FC |                    xcont   m_lut2,t2
05ad0     02 FA 06 F1 |                    add     framebuf2,#2
05ad4     F8 0F 6F FB |                    djnz    cpl2,#p262
05ad8     10 00 90 FD |                    jmp     #p203
05adc                 | 
05adc                 | ''---------- all color modes without zoom
05adc                 | 
05adc     87 07 D8 FC | p251               rep  #3,cpl2
05ae0     7D 11 03 FB |                    rdlong  char,framebuf2
05ae4     04 FA 06 F1 |                    add     framebuf2,#4
05ae8     88 BB C2 FC |                    xcont   m_lut2,char
05aec                 |           
05aec                 |  ''-----------------------------------------------------------------------------------------
05aec                 | p203           ' getword  mb2,m_border,#0
05aec     00 24 0F F2 |                 cmp      mb2, #0 wz
05af0     4C A3 C2 5C |                 if_nz    xcont   m_border,border            'display a right border if exists
05af4                 | 
05af4     EC FB 9F FD |                 jmp #p302
05af8                 | 
05af8                 | '' -------------------------------------- END of graph  line ---------------------------------
05af8                 | 
05af8                 | '' consts and vars
05af8                 | 
05af8     52 4D 35 D5 | sync_000        long    %1101010100_1101010100_1101010100_10    '
05afc     AE 42 35 D5 | sync_001        long    %1101010100_1101010100_0010101011_10    '        hsync
05b00     52 45 15 55 | sync_222        long    %0101010100_0101010100_0101010100_10    'vsync
05b04     AE 4A 15 55 | sync_223        long    %0101010100_0101010100_1010101011_10    'vsync + hsync
05b08                 | 
05b08     00 2C 1A 00 | border          long    %00000000_00011010_00101100_00000000
05b0c                 | 
05b0c                 | '------ these longs will be set by setmode function
05b0c                 | 
05b0c     00 00 00 00 | m_bs            long    0        'blanks before sync
05b10     00 00 00 00 | m_sn            long    0        'sync
05b14     00 00 00 00 | m_bv            long    0        'blanks before visible
05b18     00 00 00 00 | m_vi            long    0        'visible pixels #
05b1c     00 00 00 00 | m_border        long    0        'left/right borders
05b20     00 00 00 00 | m_lut1          long    0        'characters
05b24     00 00 00 00 | i_vborder       long    0        'up/down borders
05b28     00 00 00 00 | i_upporch       long    0        'up porch lines
05b2c     00 00 00 00 | i_vsync         long    0        'vsync lines
05b30     00 00 00 00 | i_downporch     long    0        'down porch lines
05b34     00 00 00 00 | i_modenum       long    0        'mode #
05b38     00 00 00 00 | i_cpl           long    0        'chars/longs per line
05b3c     00 00 00 00 | i_lines         long    0        'scanlines #
05b40     00 00 00 00 | i_clock         long    0
05b44     00 00 00 00 | i_hubset        long    0
05b48     00 00 00 00 | i_totalvis      long    0
05b4c                 | 
05b4c                 | '-------------------------------------
05b4c                 | 
05b4c     00 00 00 00 | m_lut2          long    0
05b50                 | 
05b50                 | colordepth
05b50     00 00 00 00 | linestart       long    0
05b54     00 00 00 00 | linenum         long    0
05b58     00 01 00 00 | lutaddr         long    256
05b5c                 | 
05b5c     0E 00 00 00 | cursorsh        long    14
05b60     00 00 00 00 | frames          long    0
05b64     00 00 00 00 | cursorx         long    0
05b68     00 00 00 00 | cursory         long    0
05b6c     00 00 00 00 | cursorpos       long    0
05b70     00 00 00 00 | cursorpos2      long    0
05b74     00 00 00 00 | fontstart       long    0
05b78     00 00 00 00 | border2         long 0
05b7c     00 00 81 70 | lutiv           long $70810000
05b80     00 00 88 00 | lutt1           long $00880000
05b84     00 00 80 00 | lutg1           long $00800000
05b88     00 00 80 10 | lutg2           long $10800000
05b8c     00 00 80 20 | lutg4           long $20800000
05b90     00 00 80 30 | lutg8           long $30800000
05b94     00 00 00 00 | framebuf        long 0
05b98     00 00 00 00 | fontbuf         long 0
05b9c     00 00 00 00 | borderptr       long 0
05ba0     00 00 00 00 | vblankptr       long 0
05ba4     00 00 00 00 | cursorptr       long 0
05ba8     00 00 00 00 | modeptr         long 0
05bac     00 00 00 00 | paletteptr      long 0
05bb0     00 00 00 00 | dlptr           long 0
05bb4                 | fontnumptr      res     1
05bb4                 | hbase           res     1
05bb4                 | borderptr2      res     1
05bb4                 | dlptr2 res 1
05bb4                 | dl              res 1
05bb4                 | ii              res     1
05bb4                 | framebuf2       res     1
05bb4                 | hsync0          res     1
05bb4                 | hsync1          res     1
05bb4                 | fontline        res     1
05bb4                 | t1              res     1
05bb4                 | t2              res     1
05bb4                 | t3 res 1
05bb4                 | t4 res 1
05bb4                 | t5 res 1
05bb4                 | skippattern res 1
05bb4                 | cpl2 res 1
05bb4                 | char            res     1
05bb4                 | backcolor       res     1
05bb4                 | charcolor       res     1
05bb4                 | zoom res 1
05bb4     00 00 00 00 | rcnt long 0 'dl repeat count
05bb8     00 00 00 00 | rcnt2 long 0
05bbc     00 00 00 00 | rcnt2a long 0
05bc0     00 00 00 00 | roffset long 0
05bc4     00 00 00 00 | rdl long 0  'dl repeat line
05bc8     00 00 00 00 | dlc long 0 'dl command
05bcc     00 00 00 00 | mb2 long 0
05bd0     00 00 00 00 | aend             long 0
05bd4                 | 	alignl
05bd4                 | __system__dat_
05bd4     00 00 00 00 
05bd8     00 00 00 00 
05bdc     03 00 00 00 
05be0     00 00 00 00 | 	byte	$00, $00, $00, $00, $00, $00, $00, $00, $03, $00, $00, $00, $00, $00, $00, $00
05be4                 | __heap_base
05be4     00 00 00 00 
      ...             
06be4     00 00 00 00 
06be8     00 00 00 00 | 	long	0[1026]
06bec                 | objmem
06bec     00 00 00 00 
      ...             
06cd0     00 00 00 00 
06cd4     00 00 00 00 | 	long	0[59]
06cd8                 | stackspace
06cd8     00 00 00 00 | 	long	0[1]
06cdc 084             | 	org	COG_BSS_START
06cdc 084             | _tmp002_
06cdc 084             | 	res	1
06cdc 085             | _var01
06cdc 085             | 	res	1
06cdc 086             | _var02
06cdc 086             | 	res	1
06cdc 087             | _var03
06cdc 087             | 	res	1
06cdc 088             | _var04
06cdc 088             | 	res	1
06cdc 089             | _var05
06cdc 089             | 	res	1
06cdc 08a             | _var06
06cdc 08a             | 	res	1
06cdc 08b             | _var07
06cdc 08b             | 	res	1
06cdc 08c             | _var08
06cdc 08c             | 	res	1
06cdc 08d             | _var09
06cdc 08d             | 	res	1
06cdc 08e             | _var10
06cdc 08e             | 	res	1
06cdc 08f             | _var11
06cdc 08f             | 	res	1
06cdc 090             | _var12
06cdc 090             | 	res	1
06cdc 091             | _var13
06cdc 091             | 	res	1
06cdc 092             | _var14
06cdc 092             | 	res	1
06cdc 093             | _var15
06cdc 093             | 	res	1
06cdc 094             | _var16
06cdc 094             | 	res	1
06cdc 095             | _var17
06cdc 095             | 	res	1
06cdc 096             | _var18
06cdc 096             | 	res	1
06cdc 097             | _var19
06cdc 097             | 	res	1
06cdc 098             | _var20
06cdc 098             | 	res	1
06cdc 099             | _var21
06cdc 099             | 	res	1
06cdc 09a             | _var22
06cdc 09a             | 	res	1
06cdc 09b             | _var23
06cdc 09b             | 	res	1
06cdc 09c             | _var24
06cdc 09c             | 	res	1
06cdc 09d             | _var25
06cdc 09d             | 	res	1
06cdc 09e             | _var26
06cdc 09e             | 	res	1
06cdc 09f             | _var27
06cdc 09f             | 	res	1
06cdc 0a0             | _var28
06cdc 0a0             | 	res	1
06cdc 0a1             | _var29
06cdc 0a1             | 	res	1
06cdc 0a2             | _var30
06cdc 0a2             | 	res	1
06cdc 0a3             | _var31
06cdc 0a3             | 	res	1
06cdc 0a4             | _var32
06cdc 0a4             | 	res	1
06cdc 0a5             | arg01
06cdc 0a5             | 	res	1
06cdc 0a6             | arg02
06cdc 0a6             | 	res	1
06cdc 0a7             | arg03
06cdc 0a7             | 	res	1
06cdc 0a8             | arg04
06cdc 0a8             | 	res	1
06cdc 0a9             | arg05
06cdc 0a9             | 	res	1
06cdc 0aa             | local01
06cdc 0aa             | 	res	1
06cdc 0ab             | local02
06cdc 0ab             | 	res	1
06cdc 0ac             | local03
06cdc 0ac             | 	res	1
06cdc 0ad             | local04
06cdc 0ad             | 	res	1
06cdc 0ae             | local05
06cdc 0ae             | 	res	1
06cdc 0af             | local06
06cdc 0af             | 	res	1
06cdc 0b0             | local07
06cdc 0b0             | 	res	1
06cdc 0b1             | local08
06cdc 0b1             | 	res	1
06cdc 0b2             | local09
06cdc 0b2             | 	res	1
06cdc 0b3             | local10
06cdc 0b3             | 	res	1
06cdc 0b4             | local11
06cdc 0b4             | 	res	1
06cdc 0b5             | local12
06cdc 0b5             | 	res	1
06cdc 0b6             | local13
06cdc 0b6             | 	res	1
06cdc 0b7             | local14
06cdc 0b7             | 	res	1
06cdc 0b8             | local15
06cdc 0b8             | 	res	1
06cdc 0b9             | local16
06cdc 0b9             | 	res	1
06cdc 0ba             | local17
06cdc 0ba             | 	res	1
06cdc 0bb             | local18
06cdc 0bb             | 	res	1
06cdc 0bc             | muldiva_
06cdc 0bc             | 	res	1
06cdc 0bd             | muldivb_
06cdc 0bd             | 	res	1
06cdc 0be             | 	fit	480