
00000                 | 
00000                 | #line 1 "D:/Programowanie/ultibo-propeller/spiral2/spiral.p2asm"
00000                 | ' _clkfreq        = 200000000
00000                 | con
00000                 | 	_clkfreq = 200000000
00000                 | ' hdmipin         = 48
00000                 | 	hdmipin = 48
00000                 | dat
00000 000 00 00 00 00 | 	nop
00004 001 01 EC 63 FD | 	cogid	pa
00008 002 02 00 00 FF 
0000c 003 04 EC E7 FC | 	coginit	pa,##$404
00010                 | 	orgh	$10
00010     00 00 00 00 | 	long	0	'reserved
00014     00 00 00 00 | 	long	0 ' clock frequency: will default to 200000000
00018     00 00 00 00 | 	long	0 ' clock mode: will default to $10009fb
0001c     00 00 00 00 
      ...             
003f8     00 00 00 00 
003fc     00 00 00 00 | 	orgh	$400
00400     00 02 05 06 |  _ret_	mov	result1, #0
00404 000             | 	org	0
00404 000             | entry
00404 000 00 F0 0F F2 | 	cmp	ptra, #0 wz
00408 001 94 00 90 5D |  if_ne	jmp	#spininit
0040c 002 79 F0 03 F6 | 	mov	ptra, objptr
00410 003 F8 F0 07 F1 | 	add	ptra, #248
00414 004 14 EC 0F FB | 	rdlong	pa, #20 wz
00418 005 68 00 90 5D |  if_ne	jmp	#skip_clock_set_
0041c 006 00 00 64 FD | 	hubset	#0
00420 007 04 80 80 FF 
00424 008 00 F0 67 FD | 	hubset	##16779768
00428 009 86 01 80 FF 
0042c 00a 1F 80 66 FD | 	waitx	##200000
00430 00b 04 80 00 FF 
00434 00c FB ED 07 F6 | 	mov	pa, ##16779771
00438 00d 00 EC 63 FD | 	hubset	pa
0043c 00e 18 EC 67 FC | 	wrlong	pa, #24
00440 00f E1 F5 85 FF 
00444 010 14 00 6C FC | 	wrlong	##200000000, #20
00448 011 38 00 90 FD | 	jmp	#skip_clock_set_
0044c 012 00 00 00 00 
      ...             
0047c 01e 00 00 00 00 
00480 01f 00 00 00 00 | 	orgf	32
00484 020             | skip_clock_set_
00484 020 04 EC 60 FD | 	locknew	__lockreg
00488 021 7A EC 60 FC | 	wrlong	__lockreg, ptr___lockreg_
0048c 022 10 06 A0 FD | 	call	#_demo
00490 023             | cogexit
00490 023 38 01 80 FF 
00494 024 1F 00 66 FD | 	waitx	##160000
00498 025 01 26 61 FD | 	cogid	arg01
0049c 026 03 26 61 FD | 	cogstop	arg01
004a0 027             | spininit
004a0 027 00 F3 04 FB | 	rdlong	objptr, ptra
004a4 028 04 F0 07 F1 | 	add	ptra, #4
004a8 029 00 03 05 FB | 	rdlong	result1, ptra
004ac 02a 04 F0 07 F1 | 	add	ptra, #4
004b0 02b 00 27 05 FB | 	rdlong	arg01, ptra
004b4 02c 04 F0 07 F1 | 	add	ptra, #4
004b8 02d 00 29 05 FB | 	rdlong	arg02, ptra
004bc 02e 04 F0 07 F1 | 	add	ptra, #4
004c0 02f 00 2B 05 FB | 	rdlong	arg03, ptra
004c4 030 04 F0 07 F1 | 	add	ptra, #4
004c8 031 00 2D 05 FB | 	rdlong	arg04, ptra
004cc 032 10 F0 87 F1 | 	sub	ptra, #16
004d0 033 2D 02 61 FD | 	call	result1
004d4 034 B8 FF 9F FD | 	jmp	#cogexit
004d8 035             | FCACHE_LOAD_
004d8 035 2B 86 60 FD |     pop	fcache_tmpb_
004dc 036 F6 87 00 F1 |     add	fcache_tmpb_, pa
004e0 037 2A 86 60 FD |     push	fcache_tmpb_
004e4 038 F6 87 80 F1 |     sub	fcache_tmpb_, pa
004e8 039 02 EC 47 F0 |     shr	pa, #2
004ec 03a F6 85 00 F6 |     mov	fcache_tmpa_, pa
004f0 03b 00 85 04 F1 |     add	fcache_tmpa_, #$100
004f4 03c 42 82 30 FC |     wrlut ret_instr_, fcache_tmpa_
004f8 03d 01 EC 87 F1 |     sub	pa, #1
004fc 03e 29 EC 63 FD |     setq2	pa
00500 03f 43 00 02 FB |     rdlong	$100-0, fcache_tmpb_
00504 040 00 03 80 FD |     jmp	#\$300 ' jmp to cache
00508 041             | ret_instr_
00508 041 2D 00 64 FD |     ret
0050c 042             | fcache_tmpa_
0050c 042 00 00 00 00 |     long 0
00510 043             | fcache_tmpb_
00510 043 00 00 00 00 |     long 0
00514 044             | COUNT_
00514 044 00 00 00 00 |     long 0
00518 045             | RETADDR_
00518 045 00 00 00 00 |     long 0
0051c 046             | fp
0051c 046 00 00 00 00 |     long 0
00520 047             | gosub_
00520 047 00 88 04 F6 |     mov  COUNT_, #0
00524 048 93 EC 03 F6 |     mov  pa, arg01
00528 049 2B 8A 60 FD |     pop  RETADDR_
0052c 04a 1C 00 90 FD |     jmp  #pushregs_done_
00530 04b             | pushregs_
00530 04b 2B EC 63 FD |     pop  pa
00534 04c 2B 8A 60 FD |     pop  RETADDR_
00538 04d 04 88 94 FB |     tjz  COUNT_, #pushregs_done_
0053c 04e 01 88 84 F1 |     sub  COUNT_, #1
00540 04f 28 88 60 FD |     setq COUNT_
00544 050 00 33 65 FC |     wrlong local01, ptra
00548 051 01 88 04 F1 |     add  COUNT_, #1
0054c 052             | pushregs_done_
0054c 052 02 88 64 F0 |     shl  COUNT_, #2
00550 053 44 F0 03 F1 |     add  ptra, COUNT_
00554 054 02 88 44 F0 |     shr  COUNT_, #2
00558 055 28 04 64 FD |     setq #2 ' push 3 registers starting at COUNT_
0055c 056 00 89 64 FC |     wrlong COUNT_, ptra
00560 057 0C F0 07 F1 |     add    ptra, #12
00564 058 F8 8D 00 F6 |     mov    fp, ptra
00568 059 2C EC 63 FD |     jmp  pa
0056c 05a             |  popregs_
0056c 05a 2B EC 63 FD |     pop    pa
00570 05b 0C F0 87 F1 |     sub    ptra, #12
00574 05c 28 04 64 FD |     setq   #2
00578 05d 00 89 04 FB |     rdlong COUNT_, ptra
0057c 05e 06 88 94 FB |     tjz    COUNT_, #popregs__ret
00580 05f 02 88 64 F0 |     shl    COUNT_, #2
00584 060 44 F0 83 F1 |     sub    ptra, COUNT_
00588 061 02 88 44 F0 |     shr    COUNT_, #2
0058c 062 01 88 84 F1 |     sub    COUNT_, #1
00590 063 28 88 60 FD |     setq   COUNT_
00594 064 00 33 05 FB |     rdlong local01, ptra
00598 065             | popregs__ret
00598 065 2A 8A 60 FD |     push   RETADDR_
0059c 066 2C EC 63 FD |     jmp    pa
005a0 067             | 
005a0 067             | unsdivide_
005a0 067 28 00 64 FD |        setq    #0
005a4 068 E5 C8 11 FD |        qdiv    muldiva_, muldivb_
005a8 069 18 CA 61 FD |        getqx   muldivb_
005ac 06a 19 C8 61 0D |  _ret_ getqy   muldiva_
005b0 06b             | 
005b0 06b             | divide_
005b0 06b E4 C8 51 F6 |        abs     muldiva_,muldiva_     wc       'abs(x)
005b4 06c 03 F0 84 F5 |        muxc    itmp2_,#%11                    'store sign of x
005b8 06d E5 CA 59 F6 |        abs     muldivb_,muldivb_     wcz      'abs(y)
005bc 06e 02 F0 64 C5 |  if_c  xor     itmp2_,#%10                    'store sign of y
005c0 06f 2D 00 64 AD |  if_z  ret
005c4 070 D8 FF BF FD |        call    #unsdivide_
005c8 071 01 F0 D4 F7 |        test    itmp2_,#1        wc       'restore sign, remainder
005cc 072 E4 C8 81 F6 |        negc    muldiva_,muldiva_ 
005d0 073 02 F0 D4 F7 |        test    itmp2_,#%10      wc       'restore sign, division result
005d4 074 E5 CA 81 06 |  _ret_ negc    muldivb_,muldivb_
005d8 075             | 
005d8 075             | __heap_ptr
005d8 075 90 49 00 00 | 	long	@__heap_base
005dc 076             | __lockreg
005dc 076 00 00 00 00 | 	long	0
005e0 077             | itmp1_
005e0 077 00 00 00 00 | 	long	0
005e4 078             | itmp2_
005e4 078 00 00 00 00 | 	long	0
005e8 079             | objptr
005e8 079 98 59 00 00 | 	long	@objmem
005ec 07a             | ptr___lockreg_
005ec 07a DC 05 00 00 | 	long	@__lockreg
005f0 07b             | ptr___system__dat__
005f0 07b 80 49 00 00 | 	long	@__system__dat_
005f4 07c             | ptr__hng023_dat__
005f4 07c DC 24 00 00 | 	long	@_hng023_dat_
005f8 07d             | ptr__hng023_putpixel1_
005f8 07d B4 0B 00 00 | 	long	@_hng023_putpixel1
005fc 07e             | ptr__hng023_putpixel2_
005fc 07e 9C 0C 00 00 | 	long	@_hng023_putpixel2
00600 07f             | ptr__hng023_putpixel4_
00600 07f 74 0D 00 00 | 	long	@_hng023_putpixel4
00604 080             | ptr__hng023_putpixel8_
00604 080 4C 0E 00 00 | 	long	@_hng023_putpixel8
00608 081             | result1
00608 081 00 00 00 00 | 	long	0
0060c 082             | result2
0060c 082 00 00 00 00 | 	long	0
00610 083             | COG_BSS_START
00610 083             | 	fit	480
00610                 | 	orgh
00610                 | hubentry
00610                 | 
00610                 | ' 
00610                 | ' pub demo() |x,y,px,py,d
00610                 | _demo
00610     31 88 04 F6 | 	mov	COUNT_, #49
00614     4B 00 A0 FD | 	call	#pushregs_
00618                 | ' 
00618                 | ' v.start(512+256+192+48,hdmipin)
00618     30 F2 04 F1 | 	add	objptr, #48
0061c     79 32 01 F6 | 	mov	local01, objptr
00620                 | ' 
00620                 | ' ' initialize pointers and variables
00620                 | ' 
00620                 | ' border_ptr:=@bordercolor
00620     28 F2 84 F1 | 	sub	objptr, #40
00624     79 32 61 FC | 	wrlong	local01, objptr
00628     08 00 00 FF 
0062c     00 F8 04 F1 | 	add	ptr__hng023_dat__, ##4096
00630                 | ' font_ptr:=@st_font
00630     04 F2 84 F1 | 	sub	objptr, #4
00634     79 F8 60 FC | 	wrlong	ptr__hng023_dat__, objptr
00638                 | ' hdmibase:=base
00638     24 F2 04 F1 | 	add	objptr, #36
0063c     79 60 68 FC | 	wrlong	#48, objptr
00640     28 F2 84 F1 | 	sub	objptr, #40
00644     7D 28 01 F6 | 	mov	arg02, ptr__hng023_putpixel1_
00648                 | ' p1:=@putpixel1
00648     79 26 01 F6 | 	mov	arg01, objptr
0064c     08 00 00 FF 
00650     00 F8 84 F1 | 	sub	ptr__hng023_dat__, ##4096
00654     AC 13 B0 FD | 	call	#__system___make_methodptr
00658     81 34 01 F6 | 	mov	local02, result1
0065c     E8 F2 04 F1 | 	add	objptr, #232
00660     79 34 61 FC | 	wrlong	local02, objptr
00664     E8 F2 84 F1 | 	sub	objptr, #232
00668     7E 28 01 F6 | 	mov	arg02, ptr__hng023_putpixel2_
0066c                 | ' p2:=@putpixel2
0066c     79 26 01 F6 | 	mov	arg01, objptr
00670     90 13 B0 FD | 	call	#__system___make_methodptr
00674     81 34 01 F6 | 	mov	local02, result1
00678     EC F2 04 F1 | 	add	objptr, #236
0067c     79 34 61 FC | 	wrlong	local02, objptr
00680     EC F2 84 F1 | 	sub	objptr, #236
00684     7F 28 01 F6 | 	mov	arg02, ptr__hng023_putpixel4_
00688                 | ' p4:=@putpixel4
00688     79 26 01 F6 | 	mov	arg01, objptr
0068c     74 13 B0 FD | 	call	#__system___make_methodptr
00690     81 34 01 F6 | 	mov	local02, result1
00694     F0 F2 04 F1 | 	add	objptr, #240
00698     79 34 61 FC | 	wrlong	local02, objptr
0069c     F0 F2 84 F1 | 	sub	objptr, #240
006a0     80 28 01 F6 | 	mov	arg02, ptr__hng023_putpixel8_
006a4                 | ' p8:=@putpixel8
006a4     79 26 01 F6 | 	mov	arg01, objptr
006a8     58 13 B0 FD | 	call	#__system___make_methodptr
006ac     81 34 01 F6 | 	mov	local02, result1
006b0     F4 F2 04 F1 | 	add	objptr, #244
006b4     79 34 61 FC | 	wrlong	local02, objptr
006b8     F4 F2 84 F1 | 	sub	objptr, #244
006bc                 | ' 
006bc                 | ' 
006bc                 | ' ' the mode has to be set here to enable computing the buffer length
006bc                 | ' 
006bc                 | ' setmode(mode)
006bc     01 00 00 FF 
006c0     F0 27 05 F6 | 	mov	arg01, ##1008
006c4     08 08 B0 FD | 	call	#_hng023_setmode
006c8     44 F2 04 F1 | 	add	objptr, #68
006cc     79 36 01 F6 | 	mov	local03, objptr
006d0                 | ' 
006d0                 | ' vblank_ptr:=@vblank
006d0     38 F2 84 F1 | 	sub	objptr, #56
006d4     79 36 61 FC | 	wrlong	local03, objptr
006d8     2C F2 04 F1 | 	add	objptr, #44
006dc     79 38 01 F6 | 	mov	local04, objptr
006e0                 | ' cursor_ptr:=@cursor_x
006e0     28 F2 84 F1 | 	sub	objptr, #40
006e4     79 38 61 FC | 	wrlong	local04, objptr
006e8     0C 00 00 FF 
006ec     00 F8 04 F1 | 	add	ptr__hng023_dat__, ##6144
006f0                 | ' 
006f0                 | ' palette_ptr:=@ataripalette
006f0     08 F2 04 F1 | 	add	objptr, #8
006f4     79 F8 60 FC | 	wrlong	ptr__hng023_dat__, objptr
006f8     84 F2 04 F1 | 	add	objptr, #132
006fc     79 3A 01 F6 | 	mov	local05, objptr
00700                 | ' command_ptr:=@cmd1
00700     80 F2 84 F1 | 	sub	objptr, #128
00704     79 3A 61 FC | 	wrlong	local05, objptr
00708     88 F2 04 F1 | 	add	objptr, #136
0070c     79 3C 01 F6 | 	mov	local06, objptr
00710                 | ' fontnum_ptr:=@fontnum
00710     80 F2 84 F1 | 	sub	objptr, #128
00714     79 3C 61 FC | 	wrlong	local06, objptr
00718                 | ' 
00718                 | ' fontnum:=0  ' PC type font ' TODO: font# in buffer byte #1
00718     80 F2 04 F1 | 	add	objptr, #128
0071c     79 00 68 FC | 	wrlong	#0, objptr
00720     1C F2 04 F1 | 	add	objptr, #28
00724     79 26 01 F6 | 	mov	arg01, objptr
00728     C0 F2 84 F1 | 	sub	objptr, #192
0072c     03 00 00 FF 
00730     D8 F8 04 F1 | 	add	ptr__hng023_dat__, ##1752
00734     7C 28 01 F6 | 	mov	arg02, ptr__hng023_dat__
00738     0F 00 00 FF 
0073c     D8 F8 84 F1 | 	sub	ptr__hng023_dat__, ##7896
00740                 | ' bytemove(@colors,@vgacolors,16)
00740     10 2A 05 F6 | 	mov	arg03, #16
00744     BC 11 B0 FD | 	call	#__system__bytemove
00748                 | ' 
00748                 | ' ' initialize a cursor
00748                 | ' 
00748                 | ' cursor_x:=0
00748     38 F2 04 F1 | 	add	objptr, #56
0074c     79 00 48 FC | 	wrbyte	#0, objptr
00750                 | ' cursor_y:=0
00750     01 F2 04 F1 | 	add	objptr, #1
00754     79 00 48 FC | 	wrbyte	#0, objptr
00758                 | ' cursor_sh:=14
00758     01 F2 04 F1 | 	add	objptr, #1
0075c     79 1C 48 FC | 	wrbyte	#14, objptr
00760                 | ' 
00760                 | ' cmd1:=257 ' set command idle
00760     62 F2 04 F1 | 	add	objptr, #98
00764     79 02 6A FC | 	wrlong	#257, objptr
00768     9C F2 84 F1 | 	sub	objptr, #156
0076c                 | ' 
0076c                 | ' ' start the cog
0076c                 | ' 
0076c                 | ' cog:=coginit(16,@hdmi, @buf_ptr)
0076c     0F 00 00 FF 
00770     E8 F8 04 F1 | 	add	ptr__hng023_dat__, ##7912
00774     7C 28 01 F6 | 	mov	arg02, ptr__hng023_dat__
00778     0F 00 00 FF 
0077c     E8 F8 84 F1 | 	sub	ptr__hng023_dat__, ##7912
00780     79 2A 01 F6 | 	mov	arg03, objptr
00784     10 26 05 F6 | 	mov	arg01, #16
00788     28 2A 61 FD | 	setq	arg03
0078c     94 26 F1 FC | 	coginit	arg01, arg02 wc
00790     01 26 65 C6 |  if_b	neg	arg01, #1
00794     93 02 01 F6 | 	mov	result1, arg01
00798     81 3E 01 F6 | 	mov	local07, result1
0079c     2C F2 04 F1 | 	add	objptr, #44
007a0     79 3E 61 FC | 	wrlong	local07, objptr
007a4     2C F2 84 F1 | 	sub	objptr, #44
007a8                 | ' waitms(20)
007a8     14 26 05 F6 | 	mov	arg01, #20
007ac     3C 13 B0 FD | 	call	#__system___waitms
007b0                 | ' 
007b0                 | ' ' clear the screen and set the colors to green on black
007b0                 | ' 
007b0                 | ' cls(c_green,c_black)
007b0     C7 40 05 F6 | 	mov	local08, #199
007b4     00 42 05 F6 | 	mov	local09, #0
007b8                 | ' 
007b8                 | ' if (graphmode<512)
007b8     D0 F2 04 F1 | 	add	objptr, #208
007bc     79 44 01 FB | 	rdlong	local10, objptr
007c0     D0 F2 84 F1 | 	sub	objptr, #208
007c4     01 00 00 FF 
007c8     00 44 5D F2 | 	cmps	local10, ##512 wcz
007cc     40 00 90 3D |  if_ae	jmp	#LR__0005
007d0     00 46 05 F6 | 	mov	local11, #0
007d4     FF 7F 1C FF 
007d8     E0 49 65 F6 | 	neg	local12, ##956301280
007dc                 | '   c:=fc<<24+bc<<16+$20
007dc                 | '   longfill(buf_ptr,c,buflen)
007dc     79 26 01 FB | 	rdlong	arg01, objptr
007e0     34 F2 04 F1 | 	add	objptr, #52
007e4     79 2A 09 FB | 	rdlong	arg03, objptr wz
007e8     34 F2 84 F1 | 	sub	objptr, #52
007ec     00 80 63 FF 
007f0     20 28 05 F6 | 	mov	arg02, ##-956301280
007f4     E8 00 90 AD |  if_e	jmp	#LR__0018
007f8     10 F8 9F FE | 	loc	pa,	#(@LR__0003-@LR__0001)
007fc     35 00 A0 FD | 	call	#FCACHE_LOAD_
00800                 | LR__0001
00800     95 04 D8 FC | 	rep	@LR__0004, arg03
00804                 | LR__0002
00804     93 28 61 FC | 	wrlong	arg02, arg01
00808     04 26 05 F1 | 	add	arg01, #4
0080c                 | LR__0003
0080c                 | LR__0004
0080c                 | ' else
0080c     D0 00 90 FD | 	jmp	#LR__0018
00810                 | LR__0005
00810                 | '   if (graphmode & 48) ==48
00810     D0 F2 04 F1 | 	add	objptr, #208
00814     79 44 01 FB | 	rdlong	local10, objptr
00818     D0 F2 84 F1 | 	sub	objptr, #208
0081c     30 44 05 F5 | 	and	local10, #48
00820     30 44 0D F2 | 	cmp	local10, #48 wz
00824                 | '     c:=bc
00824     00 48 05 A6 |  if_e	mov	local12, #0
00828     48 00 90 AD |  if_e	jmp	#LR__0009
0082c                 | '   elseif (graphmode & 48) ==32
0082c     D0 F2 04 F1 | 	add	objptr, #208
00830     79 44 01 FB | 	rdlong	local10, objptr
00834     D0 F2 84 F1 | 	sub	objptr, #208
00838     30 44 05 F5 | 	and	local10, #48
0083c     20 44 0D F2 | 	cmp	local10, #32 wz
00840     00 48 05 A6 |  if_e	mov	local12, #0
00844                 | '     c:=bc<<4+bc
00844     2C 00 90 AD |  if_e	jmp	#LR__0008
00848                 | '   elseif (graphmode & 48) ==16
00848     D0 F2 04 F1 | 	add	objptr, #208
0084c     79 44 01 FB | 	rdlong	local10, objptr
00850     D0 F2 84 F1 | 	sub	objptr, #208
00854     30 44 05 F5 | 	and	local10, #48
00858     10 44 0D F2 | 	cmp	local10, #16 wz
0085c     10 00 90 5D |  if_ne	jmp	#LR__0006
00860     00 4A 05 F6 | 	mov	local13, #0
00864     00 4C 05 F6 | 	mov	local14, #0
00868     00 48 05 F6 | 	mov	local12, #0
0086c                 | '     c:=bc<<6+bc<<4+bc<<2+bc
0086c                 | '   else
0086c     04 00 90 FD | 	jmp	#LR__0007
00870                 | LR__0006
00870                 | '     if bc==1
00870                 | '       c:=255
00870                 | '     else
00870                 | '       c:=0
00870     00 48 05 F6 | 	mov	local12, #0
00874                 | LR__0007
00874                 | LR__0008
00874                 | LR__0009
00874     34 F2 04 F1 | 	add	objptr, #52
00878     79 2A 01 FB | 	rdlong	arg03, objptr
0087c     34 F2 84 F1 | 	sub	objptr, #52
00880     02 2A 65 F0 | 	shl	arg03, #2
00884                 | '   bytefill(buf_ptr,c,buflen*4)
00884     79 26 01 FB | 	rdlong	arg01, objptr
00888     A4 28 01 F6 | 	mov	arg02, local12
0088c     94 4E 01 F6 | 	mov	local15, arg02
00890     08 4E 65 F0 | 	shl	local15, #8
00894     94 4E 41 F5 | 	or	local15, arg02
00898     A7 50 01 F6 | 	mov	local16, local15
0089c     10 50 65 F0 | 	shl	local16, #16
008a0     A7 50 41 F5 | 	or	local16, local15
008a4     70 F7 9F FE | 	loc	pa,	#(@LR__0011-@LR__0010)
008a8     35 00 A0 FD | 	call	#FCACHE_LOAD_
008ac                 | LR__0010
008ac     03 2A 5D F2 | 	cmps	arg03, #3 wcz
008b0     10 00 90 ED |  if_be	jmp	#LR__0012
008b4     93 50 61 FC | 	wrlong	local16, arg01
008b8     04 26 05 F1 | 	add	arg01, #4
008bc     04 2A 85 F1 | 	sub	arg03, #4
008c0     E8 FF 9F FD | 	jmp	#LR__0010
008c4                 | LR__0011
008c4                 | LR__0012
008c4     00 2A 0D F2 | 	cmp	arg03, #0 wz
008c8     14 00 90 AD |  if_e	jmp	#LR__0017
008cc     3C F7 9F FE | 	loc	pa,	#(@LR__0015-@LR__0013)
008d0     35 00 A0 FD | 	call	#FCACHE_LOAD_
008d4                 | LR__0013
008d4     95 04 D8 FC | 	rep	@LR__0016, arg03
008d8                 | LR__0014
008d8     93 28 41 FC | 	wrbyte	arg02, arg01
008dc     01 26 05 F1 | 	add	arg01, #1
008e0                 | LR__0015
008e0                 | LR__0016
008e0                 | LR__0017
008e0                 | LR__0018
008e0                 | ' setwritecolors(fc,bc)
008e0                 | ' 
008e0                 | ' 
008e0                 | ' write_color:=ff
008e0     3C F2 04 F1 | 	add	objptr, #60
008e4     79 8E 69 FC | 	wrlong	#199, objptr
008e8                 | ' write_background:=bb
008e8     04 F2 04 F1 | 	add	objptr, #4
008ec     79 00 68 FC | 	wrlong	#0, objptr
008f0                 | ' cursor_x:=0
008f0     08 F2 84 F1 | 	sub	objptr, #8
008f4     79 00 48 FC | 	wrbyte	#0, objptr
008f8                 | ' cursor_y:=0
008f8     01 F2 04 F1 | 	add	objptr, #1
008fc     79 00 48 FC | 	wrbyte	#0, objptr
00900                 | ' setbordercolor(0,0,128)
00900                 | ' 
00900                 | ' color:=r<<24+g<<16+b<<8
00900                 | ' bordercolor:=color
00900     09 F2 84 F1 | 	sub	objptr, #9
00904     40 00 80 FF 
00908     79 00 68 FC | 	wrlong	##32768, objptr
0090c                 | ' setwritecolors(c_green,c_black)
0090c                 | ' 
0090c                 | ' 
0090c                 | ' write_color:=ff
0090c     0C F2 04 F1 | 	add	objptr, #12
00910     79 8E 69 FC | 	wrlong	#199, objptr
00914                 | ' write_background:=bb
00914     04 F2 04 F1 | 	add	objptr, #4
00918     79 00 68 FC | 	wrlong	#0, objptr
0091c     40 F2 84 F1 | 	sub	objptr, #64
00920                 | ' 
00920                 | ' return cog
00920     00 52 05 F6 | 	mov	local17, #0
00924     F8 54 65 F6 | 	neg	local18, #248
00928                 | LR__0019
00928     00 56 05 F6 | 	mov	local19, #0
0092c     C0 59 65 F6 | 	neg	local20, #448
00930                 | LR__0020
00930                 | '     px,py:=xypol(x,y)            
00930     AC 26 01 F6 | 	mov	arg01, local20
00934     AA 26 51 FD | 	qvector	arg01, local18
00938     18 02 61 FD | 	getqx	result1
0093c     19 04 61 FD | 	getqy	result2
00940     81 5A 01 F6 | 	mov	local21, result1
00944     82 2A 01 F6 | 	mov	arg03, result2
00948     15 5A 65 F0 | 	shl	local21, #21
0094c     AD 2A 01 F1 | 	add	arg03, local21
00950     18 2A 45 F0 | 	shr	arg03, #24
00954                 | '     v.putpixel(x+448,y+248,(py+px<<21)>>24)
00954     E4 F2 04 F1 | 	add	objptr, #228
00958     79 5C 01 FB | 	rdlong	local22, objptr
0095c     E4 F2 84 F1 | 	sub	objptr, #228
00960     AE 5E 01 FB | 	rdlong	local23, local22
00964     04 5C 05 F1 | 	add	local22, #4
00968     AE 60 01 FB | 	rdlong	local24, local22
0096c     A9 28 01 F6 | 	mov	arg02, local17
00970     AB 26 01 F6 | 	mov	arg01, local19
00974     79 62 01 F6 | 	mov	local25, objptr
00978     AF F2 00 F6 | 	mov	objptr, local23
0097c     2D 60 61 FD | 	call	local24
00980     B1 F2 00 F6 | 	mov	objptr, local25
00984     01 58 05 F1 | 	add	local20, #1
00988     01 56 05 F1 | 	add	local19, #1
0098c     C0 59 5D F2 | 	cmps	local20, #448 wcz
00990     9C FF 9F CD |  if_b	jmp	#LR__0020
00994     01 54 05 F1 | 	add	local18, #1
00998     01 52 05 F1 | 	add	local17, #1
0099c     F8 54 5D F2 | 	cmps	local18, #248 wcz
009a0     84 FF 9F CD |  if_b	jmp	#LR__0019
009a4                 | ' v.setfontfamily(4)
009a4                 | ' 
009a4                 | ' font_family:=afontnum
009a4     D4 F2 04 F1 | 	add	objptr, #212
009a8     79 08 68 FC | 	wrlong	#4, objptr
009ac     D4 F2 84 F1 | 	sub	objptr, #212
009b0                 | ' v.outtextxycfz(264,232,string("Yet Another Spiral Demo"),40,2,2) 
009b0     12 00 00 FF 
009b4     C2 64 05 F6 | 	mov	local26, ##@LR__0167
009b8     00 66 05 F6 | 	mov	local27, #0
009bc     B2 26 01 F6 | 	mov	arg01, local26
009c0     00 68 05 F6 | 	mov	local28, #0
009c4     48 F6 9F FE | 	loc	pa,	#(@LR__0022-@LR__0021)
009c8     35 00 A0 FD | 	call	#FCACHE_LOAD_
009cc                 | LR__0021
009cc     93 50 C9 FA | 	rdbyte	local16, arg01 wz
009d0     01 68 05 51 |  if_ne	add	local28, #1
009d4     01 26 05 51 |  if_ne	add	arg01, #1
009d8     F0 FF 9F 5D |  if_ne	jmp	#LR__0021
009dc                 | LR__0022
009dc     B4 02 01 F6 | 	mov	result1, local28
009e0     81 6A 01 F6 | 	mov	local29, result1
009e4     01 6A 85 F1 | 	sub	local29, #1
009e8     00 6A 5D F2 | 	cmps	local29, #0 wcz
009ec     01 6C 05 16 |  if_a	mov	local30, #1
009f0     01 6C 65 E6 |  if_be	neg	local30, #1
009f4     B6 6A 01 F1 | 	add	local29, local30
009f8                 | LR__0023
009f8     B3 20 08 FD | 	qmul	#16, local27
009fc     18 6E 61 FD | 	getqx	local31
00a00     08 71 05 F6 | 	mov	local32, #264
00a04     B7 70 01 F1 | 	add	local32, local31
00a08     B2 72 01 F6 | 	mov	local33, local26
00a0c     B3 72 01 F1 | 	add	local33, local27
00a10                 | '   putcharxycfz(x+8*xz*iii,y,byte[text+iii],f,xz,yz)
00a10     B9 74 C1 FA | 	rdbyte	local34, local33
00a14     28 2C 05 F6 | 	mov	arg04, #40
00a18     02 2E 05 F6 | 	mov	arg05, #2
00a1c     02 30 05 F6 | 	mov	arg06, #2
00a20     04 74 65 F0 | 	shl	local34, #4
00a24     00 76 05 F6 | 	mov	local35, #0
00a28                 | LR__0024
00a28     7C 78 01 F6 | 	mov	local36, ptr__hng023_dat__
00a2c     D4 F2 04 F1 | 	add	objptr, #212
00a30     79 7A 01 FB | 	rdlong	local37, objptr
00a34     D4 F2 84 F1 | 	sub	objptr, #212
00a38     0A 7A 65 F0 | 	shl	local37, #10
00a3c     BD 78 01 F1 | 	add	local36, local37
00a40     BA 78 01 F1 | 	add	local36, local34
00a44     BB 78 01 F1 | 	add	local36, local35
00a48                 | '   bb:=byte[@vga_font+font_family<<10+achar<<4+yy]
00a48     BC 7C C1 FA | 	rdbyte	local38, local36
00a4c                 | '   repeat xx from 0 to 7
00a4c     00 7E 05 F6 | 	mov	local39, #0
00a50                 | LR__0025
00a50                 | '     if (bb&(1<<xx))<>0
00a50     BF 80 C1 F9 | 	decod	local40, local39
00a54     C0 7C C9 F7 | 	test	local38, local40 wz
00a58     70 00 90 AD |  if_e	jmp	#LR__0028
00a5c                 | '       repeat yyy from 0 to yz-1
00a5c     00 82 05 F6 | 	mov	local41, #0
00a60     01 80 05 F6 | 	mov	local40, #1
00a64                 | LR__0026
00a64                 | '         repeat xxx from 0 to xz-1
00a64     00 84 05 F6 | 	mov	local42, #0
00a68                 | LR__0027
00a68     BF 04 08 FD | 	qmul	#2, local39
00a6c     18 26 61 FD | 	getqx	arg01
00a70     C2 26 01 F1 | 	add	arg01, local42
00a74     B8 26 01 F1 | 	add	arg01, local32
00a78     BB 04 08 FD | 	qmul	#2, local35
00a7c     18 28 61 FD | 	getqx	arg02
00a80     C1 28 01 F1 | 	add	arg02, local41
00a84     E8 28 05 F1 | 	add	arg02, #232
00a88                 | '           putpixel(xz*xx+xxx+x,yz*yy+yyy+y,f)
00a88     E4 F2 04 F1 | 	add	objptr, #228
00a8c     79 86 01 FB | 	rdlong	local43, objptr
00a90     E4 F2 84 F1 | 	sub	objptr, #228
00a94     C3 88 01 FB | 	rdlong	local44, local43
00a98     04 86 05 F1 | 	add	local43, #4
00a9c     C3 8A 01 FB | 	rdlong	local45, local43
00aa0     28 2A 05 F6 | 	mov	arg03, #40
00aa4     79 8C 01 F6 | 	mov	local46, objptr
00aa8     C4 F2 00 F6 | 	mov	objptr, local44
00aac     2D 8A 61 FD | 	call	local45
00ab0     C6 F2 00 F6 | 	mov	objptr, local46
00ab4     01 84 05 F1 | 	add	local42, #1
00ab8     02 84 0D F2 | 	cmp	local42, #2 wz
00abc     A8 FF 9F 5D |  if_ne	jmp	#LR__0027
00ac0     01 82 05 F1 | 	add	local41, #1
00ac4     02 82 0D F2 | 	cmp	local41, #2 wz
00ac8     98 FF 9F 5D |  if_ne	jmp	#LR__0026
00acc                 | LR__0028
00acc     01 7E 05 F1 | 	add	local39, #1
00ad0     08 7E 5D F2 | 	cmps	local39, #8 wcz
00ad4     78 FF 9F CD |  if_b	jmp	#LR__0025
00ad8     01 76 05 F1 | 	add	local35, #1
00adc     10 76 5D F2 | 	cmps	local35, #16 wcz
00ae0     44 FF 9F CD |  if_b	jmp	#LR__0024
00ae4     B6 66 01 F1 | 	add	local27, local30
00ae8     B5 66 09 F2 | 	cmp	local27, local29 wz
00aec     08 FF 9F 5D |  if_ne	jmp	#LR__0023
00af0                 | '     
00af0                 | ' repeat
00af0                 | LR__0029
00af0                 | '   d:=long[v.palette_ptr+4*255]
00af0     18 F2 04 F1 | 	add	objptr, #24
00af4     79 5C 01 FB | 	rdlong	local22, objptr
00af8     01 00 00 FF 
00afc     FC 5D 05 F1 | 	add	local22, ##1020
00b00     AE 8E 01 FB | 	rdlong	local47, local22
00b04                 | '   longmove(v.palette_ptr+4,v.palette_ptr,255)
00b04     79 26 01 FB | 	rdlong	arg01, objptr
00b08     04 26 05 F1 | 	add	arg01, #4
00b0c     79 28 01 FB | 	rdlong	arg02, objptr
00b10     18 F2 84 F1 | 	sub	objptr, #24
00b14     FF 2A 05 F6 | 	mov	arg03, #255
00b18     78 0E B0 FD | 	call	#__system__longmove
00b1c                 | '   long[v.palette_ptr]:=d
00b1c     18 F2 04 F1 | 	add	objptr, #24
00b20     79 5C 01 FB | 	rdlong	local22, objptr
00b24     AE 8E 61 FC | 	wrlong	local47, local22
00b28                 | '   d:=long[v.dl_ptr]
00b28     08 F2 04 F1 | 	add	objptr, #8
00b2c     79 26 01 FB | 	rdlong	arg01, objptr
00b30     93 8E 01 FB | 	rdlong	local47, arg01
00b34                 | '   longmove(v.dl_ptr,v.dl_ptr+4,495)
00b34     93 28 01 F6 | 	mov	arg02, arg01
00b38     20 F2 84 F1 | 	sub	objptr, #32
00b3c     04 28 05 F1 | 	add	arg02, #4
00b40     EF 2B 05 F6 | 	mov	arg03, #495
00b44     4C 0E B0 FD | 	call	#__system__longmove
00b48                 | '   long[v.dl_ptr+4*495]:=d
00b48     20 F2 04 F1 | 	add	objptr, #32
00b4c     79 5C 01 FB | 	rdlong	local22, objptr
00b50     20 F2 84 F1 | 	sub	objptr, #32
00b54     03 00 00 FF 
00b58     BC 5D 05 F1 | 	add	local22, ##1980
00b5c     AE 8E 61 FC | 	wrlong	local47, local22
00b60                 | '   v.waitvbl(1)
00b60                 | ' 
00b60                 | ' ''---------- Wait for start of vblank. Amount=delay in frames
00b60                 | ' 
00b60                 | ' repeat i from 1 to amount
00b60     01 90 05 F6 | 	mov	local48, #1
00b64                 | LR__0030
00b64                 | '   repeat until vblank==0
00b64                 | LR__0031
00b64     44 F2 04 F1 | 	add	objptr, #68
00b68     79 92 09 FB | 	rdlong	local49, objptr wz
00b6c     44 F2 84 F1 | 	sub	objptr, #68
00b70     0C 00 90 AD |  if_e	jmp	#LR__0032
00b74                 | '     waitus(100)
00b74     64 26 05 F6 | 	mov	arg01, #100
00b78     D0 0F B0 FD | 	call	#__system___waitus
00b7c     E4 FF 9F FD | 	jmp	#LR__0031
00b80                 | LR__0032
00b80                 | '   repeat until vblank==1
00b80                 | LR__0033
00b80     44 F2 04 F1 | 	add	objptr, #68
00b84     79 92 01 FB | 	rdlong	local49, objptr
00b88     44 F2 84 F1 | 	sub	objptr, #68
00b8c     01 92 0D F2 | 	cmp	local49, #1 wz
00b90     0C 00 90 AD |  if_e	jmp	#LR__0034
00b94                 | '     waitus(100)
00b94     64 26 05 F6 | 	mov	arg01, #100
00b98     B0 0F B0 FD | 	call	#__system___waitus
00b9c     E0 FF 9F FD | 	jmp	#LR__0033
00ba0                 | LR__0034
00ba0     F0 91 6D FB | 	djnz	local48, #LR__0030
00ba4     48 FF 9F FD | 	jmp	#LR__0029
00ba8     46 F0 03 F6 | 	mov	ptra, fp
00bac     5A 00 A0 FD | 	call	#popregs_
00bb0                 | _demo_ret
00bb0     2D 00 64 FD | 	ret
00bb4                 | 
00bb4                 | ' 
00bb4                 | ' 
00bb4                 | ' ''---------- putpixel - put a pixel on the screen
00bb4                 | ' 
00bb4                 | ' pub putpixel1(x,y,c) |byte b
00bb4                 | _hng023_putpixel1
00bb4                 | ' 
00bb4                 | ' 
00bb4                 | ' if ((x>=0) & (x<32*cpl) & (y>=0) & (y<lines))
00bb4     00 06 05 F6 | 	mov	_var01, #0
00bb8     00 26 5D F2 | 	cmps	arg01, #0 wcz
00bbc     01 06 65 36 |  if_ae	neg	_var01, #1
00bc0     00 08 05 F6 | 	mov	_var02, #0
00bc4     94 F2 04 F1 | 	add	objptr, #148
00bc8     79 0A 01 FB | 	rdlong	_var03, objptr
00bcc     05 0A 65 F0 | 	shl	_var03, #5
00bd0     85 26 59 F2 | 	cmps	arg01, _var03 wcz
00bd4     01 08 65 C6 |  if_b	neg	_var02, #1
00bd8     84 06 01 F5 | 	and	_var01, _var02
00bdc     00 0C 05 F6 | 	mov	_var04, #0
00be0     00 28 5D F2 | 	cmps	arg02, #0 wcz
00be4     01 0C 65 36 |  if_ae	neg	_var04, #1
00be8     86 06 01 F5 | 	and	_var01, _var04
00bec     00 0E 05 F6 | 	mov	_var05, #0
00bf0     04 F2 04 F1 | 	add	objptr, #4
00bf4     79 10 01 FB | 	rdlong	_var06, objptr
00bf8     98 F2 84 F1 | 	sub	objptr, #152
00bfc     88 28 59 F2 | 	cmps	arg02, _var06 wcz
00c00     01 0E 65 C6 |  if_b	neg	_var05, #1
00c04     87 06 C9 F7 | 	test	_var01, _var05 wz
00c08     8C 00 90 AD |  if_e	jmp	#LR__0037
00c0c     94 F2 04 F1 | 	add	objptr, #148
00c10     79 12 01 FB | 	rdlong	_var07, objptr
00c14     94 F2 84 F1 | 	sub	objptr, #148
00c18     02 12 65 F0 | 	shl	_var07, #2
00c1c     94 12 01 FD | 	qmul	_var07, arg02
00c20     18 14 61 FD | 	getqx	_var08
00c24     79 16 01 FB | 	rdlong	_var09, objptr
00c28     8A 16 01 F1 | 	add	_var09, _var08
00c2c     93 18 01 F6 | 	mov	_var10, arg01
00c30     03 18 45 F0 | 	shr	_var10, #3
00c34     8C 16 01 F1 | 	add	_var09, _var10
00c38                 | '     b:=byte[buf_ptr+4*cpl*y+(x>>3)]
00c38     8B 1A C1 FA | 	rdbyte	_var11, _var09
00c3c                 | '     if (c==0)
00c3c     00 2A 0D F2 | 	cmp	arg03, #0 wz
00c40     18 00 90 5D |  if_ne	jmp	#LR__0035
00c44     93 06 51 F6 | 	abs	_var01, arg01 wc
00c48     07 06 05 F5 | 	and	_var01, #7
00c4c     83 06 61 C6 |  if_b	neg	_var01, _var01
00c50     83 1C C1 F9 | 	decod	_var12, _var01
00c54                 | '       b:=b & !(1<<(x//8))
00c54     8E 1A 21 F5 | 	andn	_var11, _var12
00c58                 | '     else
00c58     14 00 90 FD | 	jmp	#LR__0036
00c5c                 | LR__0035
00c5c     93 06 51 F6 | 	abs	_var01, arg01 wc
00c60     07 06 05 F5 | 	and	_var01, #7
00c64     83 06 61 C6 |  if_b	neg	_var01, _var01
00c68     83 1E C1 F9 | 	decod	_var13, _var01
00c6c                 | '       b:=b |(1<<(x//8))
00c6c     8F 1A 41 F5 | 	or	_var11, _var13
00c70                 | LR__0036
00c70     94 F2 04 F1 | 	add	objptr, #148
00c74     79 20 01 FB | 	rdlong	_var14, objptr
00c78     94 F2 84 F1 | 	sub	objptr, #148
00c7c     02 20 65 F0 | 	shl	_var14, #2
00c80     94 20 01 FD | 	qmul	_var14, arg02
00c84     18 22 61 FD | 	getqx	_var15
00c88     79 24 01 FB | 	rdlong	_var16, objptr
00c8c     91 24 01 F1 | 	add	_var16, _var15
00c90     8C 24 01 F1 | 	add	_var16, _var10
00c94                 | '     byte[buf_ptr+4*cpl*y+(x>>3)]:=b
00c94     92 1A 41 FC | 	wrbyte	_var11, _var16
00c98                 | LR__0037
00c98                 | _hng023_putpixel1_ret
00c98     2D 00 64 FD | 	ret
00c9c                 | 
00c9c                 | ' 
00c9c                 | ' 
00c9c                 | ' pub putpixel2(x,y,c) |byte b
00c9c                 | _hng023_putpixel2
00c9c                 | ' 
00c9c                 | ' 
00c9c                 | ' if ((x>=0) & (x<16*cpl) & (y>=0) & (y<lines))
00c9c     00 06 05 F6 | 	mov	_var01, #0
00ca0     00 26 5D F2 | 	cmps	arg01, #0 wcz
00ca4     01 06 65 36 |  if_ae	neg	_var01, #1
00ca8     00 08 05 F6 | 	mov	_var02, #0
00cac     94 F2 04 F1 | 	add	objptr, #148
00cb0     79 0A 01 FB | 	rdlong	_var03, objptr
00cb4     04 0A 65 F0 | 	shl	_var03, #4
00cb8     85 26 59 F2 | 	cmps	arg01, _var03 wcz
00cbc     01 08 65 C6 |  if_b	neg	_var02, #1
00cc0     84 06 01 F5 | 	and	_var01, _var02
00cc4     00 0C 05 F6 | 	mov	_var04, #0
00cc8     00 28 5D F2 | 	cmps	arg02, #0 wcz
00ccc     01 0C 65 36 |  if_ae	neg	_var04, #1
00cd0     86 06 01 F5 | 	and	_var01, _var04
00cd4     00 0E 05 F6 | 	mov	_var05, #0
00cd8     04 F2 04 F1 | 	add	objptr, #4
00cdc     79 10 01 FB | 	rdlong	_var06, objptr
00ce0     98 F2 84 F1 | 	sub	objptr, #152
00ce4     88 28 59 F2 | 	cmps	arg02, _var06 wcz
00ce8     01 0E 65 C6 |  if_b	neg	_var05, #1
00cec     87 06 C9 F7 | 	test	_var01, _var05 wz
00cf0     7C 00 90 AD |  if_e	jmp	#LR__0038
00cf4     94 F2 04 F1 | 	add	objptr, #148
00cf8     79 12 01 FB | 	rdlong	_var07, objptr
00cfc     94 F2 84 F1 | 	sub	objptr, #148
00d00     02 12 65 F0 | 	shl	_var07, #2
00d04     94 12 01 FD | 	qmul	_var07, arg02
00d08     18 14 61 FD | 	getqx	_var08
00d0c     79 16 01 FB | 	rdlong	_var09, objptr
00d10     8A 16 01 F1 | 	add	_var09, _var08
00d14     93 18 01 F6 | 	mov	_var10, arg01
00d18     02 18 45 F0 | 	shr	_var10, #2
00d1c     8C 16 01 F1 | 	add	_var09, _var10
00d20                 | '     b:=byte[buf_ptr+4*cpl*y+(x>>2)]
00d20     8B 1A C1 FA | 	rdbyte	_var11, _var09
00d24     93 06 51 F6 | 	abs	_var01, arg01 wc
00d28     03 06 05 F5 | 	and	_var01, #3
00d2c     83 06 61 C6 |  if_b	neg	_var01, _var01
00d30     01 06 65 F0 | 	shl	_var01, #1
00d34     03 1C 05 F6 | 	mov	_var12, #3
00d38     83 1C 61 F0 | 	shl	_var12, _var01
00d3c                 | '     b:=b & !(%11<<((x//4)<<1))
00d3c     8E 1A 21 F5 | 	andn	_var11, _var12
00d40     83 2A 61 F0 | 	shl	arg03, _var01
00d44                 | '     b:=b |(c<<((x//4)<<1))
00d44     95 1A 41 F5 | 	or	_var11, arg03
00d48     94 F2 04 F1 | 	add	objptr, #148
00d4c     79 1E 01 FB | 	rdlong	_var13, objptr
00d50     94 F2 84 F1 | 	sub	objptr, #148
00d54     02 1E 65 F0 | 	shl	_var13, #2
00d58     94 1E 01 FD | 	qmul	_var13, arg02
00d5c     18 20 61 FD | 	getqx	_var14
00d60     79 22 01 FB | 	rdlong	_var15, objptr
00d64     90 22 01 F1 | 	add	_var15, _var14
00d68     8C 22 01 F1 | 	add	_var15, _var10
00d6c                 | '     byte[buf_ptr+4*cpl*y+(x>>2)]:=b
00d6c     91 1A 41 FC | 	wrbyte	_var11, _var15
00d70                 | LR__0038
00d70                 | _hng023_putpixel2_ret
00d70     2D 00 64 FD | 	ret
00d74                 | 
00d74                 | ' 
00d74                 | ' 
00d74                 | ' pub putpixel4(x,y,c) |byte b
00d74                 | _hng023_putpixel4
00d74                 | ' 
00d74                 | ' if ((x>=0) & (x<16*cpl) & (y>=0) & (y<lines))
00d74     00 06 05 F6 | 	mov	_var01, #0
00d78     00 26 5D F2 | 	cmps	arg01, #0 wcz
00d7c     01 06 65 36 |  if_ae	neg	_var01, #1
00d80     00 08 05 F6 | 	mov	_var02, #0
00d84     94 F2 04 F1 | 	add	objptr, #148
00d88     79 0A 01 FB | 	rdlong	_var03, objptr
00d8c     04 0A 65 F0 | 	shl	_var03, #4
00d90     85 26 59 F2 | 	cmps	arg01, _var03 wcz
00d94     01 08 65 C6 |  if_b	neg	_var02, #1
00d98     84 06 01 F5 | 	and	_var01, _var02
00d9c     00 0C 05 F6 | 	mov	_var04, #0
00da0     00 28 5D F2 | 	cmps	arg02, #0 wcz
00da4     01 0C 65 36 |  if_ae	neg	_var04, #1
00da8     86 06 01 F5 | 	and	_var01, _var04
00dac     00 0E 05 F6 | 	mov	_var05, #0
00db0     04 F2 04 F1 | 	add	objptr, #4
00db4     79 10 01 FB | 	rdlong	_var06, objptr
00db8     98 F2 84 F1 | 	sub	objptr, #152
00dbc     88 28 59 F2 | 	cmps	arg02, _var06 wcz
00dc0     01 0E 65 C6 |  if_b	neg	_var05, #1
00dc4     87 06 C9 F7 | 	test	_var01, _var05 wz
00dc8     7C 00 90 AD |  if_e	jmp	#LR__0039
00dcc     94 F2 04 F1 | 	add	objptr, #148
00dd0     79 12 01 FB | 	rdlong	_var07, objptr
00dd4     94 F2 84 F1 | 	sub	objptr, #148
00dd8     02 12 65 F0 | 	shl	_var07, #2
00ddc     94 12 01 FD | 	qmul	_var07, arg02
00de0     18 14 61 FD | 	getqx	_var08
00de4     79 16 01 FB | 	rdlong	_var09, objptr
00de8     8A 16 01 F1 | 	add	_var09, _var08
00dec     93 18 01 F6 | 	mov	_var10, arg01
00df0     01 18 45 F0 | 	shr	_var10, #1
00df4     8C 16 01 F1 | 	add	_var09, _var10
00df8                 | '     b:=byte[buf_ptr+4*cpl*y+(x>>1)]
00df8     8B 1A C1 FA | 	rdbyte	_var11, _var09
00dfc     93 06 51 F6 | 	abs	_var01, arg01 wc
00e00     01 06 05 F5 | 	and	_var01, #1
00e04     83 06 61 C6 |  if_b	neg	_var01, _var01
00e08     02 06 65 F0 | 	shl	_var01, #2
00e0c     0F 1C 05 F6 | 	mov	_var12, #15
00e10     83 1C 61 F0 | 	shl	_var12, _var01
00e14                 | '     b:=b & !(%1111<<((x//2)<<2))
00e14     8E 1A 21 F5 | 	andn	_var11, _var12
00e18     83 2A 61 F0 | 	shl	arg03, _var01
00e1c                 | '     b:=b |(c<<((x//2)<<2))
00e1c     95 1A 41 F5 | 	or	_var11, arg03
00e20     94 F2 04 F1 | 	add	objptr, #148
00e24     79 1E 01 FB | 	rdlong	_var13, objptr
00e28     94 F2 84 F1 | 	sub	objptr, #148
00e2c     02 1E 65 F0 | 	shl	_var13, #2
00e30     94 1E 01 FD | 	qmul	_var13, arg02
00e34     18 20 61 FD | 	getqx	_var14
00e38     79 22 01 FB | 	rdlong	_var15, objptr
00e3c     90 22 01 F1 | 	add	_var15, _var14
00e40     8C 22 01 F1 | 	add	_var15, _var10
00e44                 | '     byte[buf_ptr+4*cpl*y+(x>>1)]:=b
00e44     91 1A 41 FC | 	wrbyte	_var11, _var15
00e48                 | LR__0039
00e48                 | _hng023_putpixel4_ret
00e48     2D 00 64 FD | 	ret
00e4c                 | 
00e4c                 | ' 
00e4c                 | ' 
00e4c                 | ' pub putpixel8(x,y,c)
00e4c                 | _hng023_putpixel8
00e4c                 | ' 
00e4c                 | ' if ((x>=0) & (x<4*cpl) & (y>=0) & (y<lines))
00e4c     00 06 05 F6 | 	mov	_var01, #0
00e50     00 26 5D F2 | 	cmps	arg01, #0 wcz
00e54     01 06 65 36 |  if_ae	neg	_var01, #1
00e58     00 08 05 F6 | 	mov	_var02, #0
00e5c     94 F2 04 F1 | 	add	objptr, #148
00e60     79 0A 01 FB | 	rdlong	_var03, objptr
00e64     02 0A 65 F0 | 	shl	_var03, #2
00e68     85 26 59 F2 | 	cmps	arg01, _var03 wcz
00e6c     01 08 65 C6 |  if_b	neg	_var02, #1
00e70     84 06 01 F5 | 	and	_var01, _var02
00e74     00 0C 05 F6 | 	mov	_var04, #0
00e78     00 28 5D F2 | 	cmps	arg02, #0 wcz
00e7c     01 0C 65 36 |  if_ae	neg	_var04, #1
00e80     86 06 01 F5 | 	and	_var01, _var04
00e84     00 0E 05 F6 | 	mov	_var05, #0
00e88     04 F2 04 F1 | 	add	objptr, #4
00e8c     79 10 01 FB | 	rdlong	_var06, objptr
00e90     98 F2 84 F1 | 	sub	objptr, #152
00e94     88 28 59 F2 | 	cmps	arg02, _var06 wcz
00e98     01 0E 65 C6 |  if_b	neg	_var05, #1
00e9c     87 06 C9 F7 | 	test	_var01, _var05 wz
00ea0     28 00 90 AD |  if_e	jmp	#LR__0040
00ea4     94 F2 04 F1 | 	add	objptr, #148
00ea8     79 12 01 FB | 	rdlong	_var07, objptr
00eac     94 F2 84 F1 | 	sub	objptr, #148
00eb0     02 12 65 F0 | 	shl	_var07, #2
00eb4     94 12 01 FD | 	qmul	_var07, arg02
00eb8     18 14 61 FD | 	getqx	_var08
00ebc     79 16 01 FB | 	rdlong	_var09, objptr
00ec0     8A 16 01 F1 | 	add	_var09, _var08
00ec4     93 16 01 F1 | 	add	_var09, arg01
00ec8                 | '     byte[buf_ptr+4*cpl*y+x]:=c
00ec8     8B 2A 41 FC | 	wrbyte	arg03, _var09
00ecc                 | LR__0040
00ecc                 | _hng023_putpixel8_ret
00ecc     2D 00 64 FD | 	ret
00ed0                 | 
00ed0                 | ' 
00ed0                 | ' 
00ed0                 | ' 
00ed0                 | ' '*************************************************************************
00ed0                 | ' '                                                                        *
00ed0                 | ' '  Mode setting and driver start                                                          *
00ed0                 | ' '                                                                        *
00ed0                 | ' '*************************************************************************
00ed0                 | ' 
00ed0                 | ' ''---------  Set the graphics mode
00ed0                 | ' 
00ed0                 | ' 
00ed0                 | ' 
00ed0                 | ' pub setmode(mode) | i', 'xzoom, yzoom, azoom
00ed0                 | _hng023_setmode
00ed0     4B 88 04 F6 | 	mov	COUNT_, #75
00ed4     4B 00 A0 FD | 	call	#pushregs_
00ed8     93 32 01 F6 | 	mov	local01, arg01
00edc                 | ' 
00edc                 | ' '' mode:tn_bb_cc_vv_hh
00edc                 | ' '' hh - h.zoom, vv-v.zoom, cc-c.depth,
00edc                 | ' '' bb - borders/total pixels, 00-wide/1140, 01 medium/1026, 10 narrow/912, 11 no border, 1024 px PAL, 880 px NTSC
00edc                 | ' 
00edc                 | ' if mode==(512+192+48)
00edc     01 00 00 FF 
00ee0     F0 32 0D F2 | 	cmp	local01, ##752 wz
00ee4                 | '   return 'no RAM
00ee4     80 09 90 AD |  if_e	jmp	#LR__0080
00ee8                 | ' 
00ee8                 | ' case_fast (mode>>6) & 7 ' timings are the same for graphic and text
00ee8     99 34 01 F6 | 	mov	local02, local01
00eec     06 34 45 F0 | 	shr	local02, #6
00ef0     07 34 05 F5 | 	and	local02, #7
00ef4     08 34 25 F3 | 	fle	local02, #8
00ef8     9A 36 01 F6 | 	mov	local03, local02
00efc     30 36 61 FD | 	jmprel	local03
00f00                 | LR__0041
00f00     20 00 90 FD | 	jmp	#LR__0042
00f04     58 00 90 FD | 	jmp	#LR__0043
00f08     90 00 90 FD | 	jmp	#LR__0044
00f0c     C8 00 90 FD | 	jmp	#LR__0045
00f10     00 01 90 FD | 	jmp	#LR__0046
00f14     38 01 90 FD | 	jmp	#LR__0047
00f18     70 01 90 FD | 	jmp	#LR__0048
00f1c     A8 01 90 FD | 	jmp	#LR__0049
00f20     E4 01 90 FD | 	jmp	#LR__0050
00f24                 | LR__0042
00f24                 | ' 
00f24                 | '     0:  longmove(@timings,@timings000,16)   'PAL 50 Hz signaling 1140x624, active 800x480, 100x30 text, wide border, 2 colors per pixel, 00_00_00_00_00=0, 354_693_878 Hz
00f24     54 F2 04 F1 | 	add	objptr, #84
00f28     79 26 01 F6 | 	mov	arg01, objptr
00f2c     54 F2 84 F1 | 	sub	objptr, #84
00f30     0E 00 00 FF 
00f34     58 F8 04 F1 | 	add	ptr__hng023_dat__, ##7256
00f38     7C 38 01 F6 | 	mov	local04, ptr__hng023_dat__
00f3c     9C 3A 01 F6 | 	mov	local05, local04
00f40     10 3C 05 F6 | 	mov	local06, #16
00f44     9D 28 01 F6 | 	mov	arg02, local05
00f48     10 2A 05 F6 | 	mov	arg03, #16
00f4c     0E 00 00 FF 
00f50     58 F8 84 F1 | 	sub	ptr__hng023_dat__, ##7256
00f54     3C 0A B0 FD | 	call	#__system__longmove
00f58     81 3E 01 F6 | 	mov	local07, result1
00f5c     A8 01 90 FD | 	jmp	#LR__0050
00f60                 | LR__0043
00f60                 | '     1:  longmove(@timings,@timings064,16)   'PAL 50 Hz signaling 1026x624, active 880x496, 110x31 text, medium border, 2 colors per pixel 00_01_00_00_00=64, 319_215_686 Hz
00f60     54 F2 04 F1 | 	add	objptr, #84
00f64     79 26 01 F6 | 	mov	arg01, objptr
00f68     54 F2 84 F1 | 	sub	objptr, #84
00f6c     0E 00 00 FF 
00f70     98 F8 04 F1 | 	add	ptr__hng023_dat__, ##7320
00f74     7C 38 01 F6 | 	mov	local04, ptr__hng023_dat__
00f78     9C 3A 01 F6 | 	mov	local05, local04
00f7c     10 3C 05 F6 | 	mov	local06, #16
00f80     9D 28 01 F6 | 	mov	arg02, local05
00f84     10 2A 05 F6 | 	mov	arg03, #16
00f88     0E 00 00 FF 
00f8c     98 F8 84 F1 | 	sub	ptr__hng023_dat__, ##7320
00f90     00 0A B0 FD | 	call	#__system__longmove
00f94     81 3E 01 F6 | 	mov	local07, result1
00f98     6C 01 90 FD | 	jmp	#LR__0050
00f9c                 | LR__0044
00f9c                 | '     2:  longmove(@timings,@timings128,16)   'PAL 50 Hz signaling 912x624, active 800x480, 100x30 text, medium border, 2 colors per pixel 00_10_00_00_00=64, 283750000z
00f9c     54 F2 04 F1 | 	add	objptr, #84
00fa0     79 26 01 F6 | 	mov	arg01, objptr
00fa4     54 F2 84 F1 | 	sub	objptr, #84
00fa8     0E 00 00 FF 
00fac     D8 F8 04 F1 | 	add	ptr__hng023_dat__, ##7384
00fb0     7C 38 01 F6 | 	mov	local04, ptr__hng023_dat__
00fb4     9C 3A 01 F6 | 	mov	local05, local04
00fb8     10 3C 05 F6 | 	mov	local06, #16
00fbc     9D 28 01 F6 | 	mov	arg02, local05
00fc0     10 2A 05 F6 | 	mov	arg03, #16
00fc4     0E 00 00 FF 
00fc8     D8 F8 84 F1 | 	sub	ptr__hng023_dat__, ##7384
00fcc     C4 09 B0 FD | 	call	#__system__longmove
00fd0     81 3E 01 F6 | 	mov	local07, result1
00fd4     30 01 90 FD | 	jmp	#LR__0050
00fd8                 | LR__0045
00fd8                 | '     3:  longmove(@timings,@timings192,16)   'PAL 50 Hz signaling 1140x624, active 1024x576, 128x36 text, borderless, 2 colors per pixel 00_11_00_00_00=6192, 354_693_878 Hz
00fd8     54 F2 04 F1 | 	add	objptr, #84
00fdc     79 26 01 F6 | 	mov	arg01, objptr
00fe0     54 F2 84 F1 | 	sub	objptr, #84
00fe4     0E 00 00 FF 
00fe8     18 F9 04 F1 | 	add	ptr__hng023_dat__, ##7448
00fec     7C 38 01 F6 | 	mov	local04, ptr__hng023_dat__
00ff0     9C 3A 01 F6 | 	mov	local05, local04
00ff4     10 3C 05 F6 | 	mov	local06, #16
00ff8     9D 28 01 F6 | 	mov	arg02, local05
00ffc     10 2A 05 F6 | 	mov	arg03, #16
01000     0E 00 00 FF 
01004     18 F9 84 F1 | 	sub	ptr__hng023_dat__, ##7448
01008     88 09 B0 FD | 	call	#__system__longmove
0100c     81 3E 01 F6 | 	mov	local07, result1
01010     F4 00 90 FD | 	jmp	#LR__0050
01014                 | LR__0046
01014                 | '     4:  longmove(@timings,@timings256,16)   'NTSC 50 Hz signaling 1140x524, active 800x480, 100x30 text, NO PLACE FOR wide border, 2 colors per pixel, 01_00_00_00_00=256, 357959184 Hz
01014     54 F2 04 F1 | 	add	objptr, #84
01018     79 26 01 F6 | 	mov	arg01, objptr
0101c     54 F2 84 F1 | 	sub	objptr, #84
01020     0E 00 00 FF 
01024     58 F9 04 F1 | 	add	ptr__hng023_dat__, ##7512
01028     7C 38 01 F6 | 	mov	local04, ptr__hng023_dat__
0102c     9C 3A 01 F6 | 	mov	local05, local04
01030     10 3C 05 F6 | 	mov	local06, #16
01034     9D 28 01 F6 | 	mov	arg02, local05
01038     10 2A 05 F6 | 	mov	arg03, #16
0103c     0E 00 00 FF 
01040     58 F9 84 F1 | 	sub	ptr__hng023_dat__, ##7512
01044     4C 09 B0 FD | 	call	#__system__longmove
01048     81 3E 01 F6 | 	mov	local07, result1
0104c     B8 00 90 FD | 	jmp	#LR__0050
01050                 | LR__0047
01050                 | '     5:  longmove(@timings,@timings320,16)   'NTSC 50 Hz signaling 1026x524, active 800x480, 100x30 text, NO PLACE FOR wide border, 2 colors per pixel, 01_01_00_00_00=320, 322162162 Hz
01050     54 F2 04 F1 | 	add	objptr, #84
01054     79 26 01 F6 | 	mov	arg01, objptr
01058     54 F2 84 F1 | 	sub	objptr, #84
0105c     0E 00 00 FF 
01060     98 F9 04 F1 | 	add	ptr__hng023_dat__, ##7576
01064     7C 38 01 F6 | 	mov	local04, ptr__hng023_dat__
01068     9C 3A 01 F6 | 	mov	local05, local04
0106c     10 3C 05 F6 | 	mov	local06, #16
01070     9D 28 01 F6 | 	mov	arg02, local05
01074     10 2A 05 F6 | 	mov	arg03, #16
01078     0E 00 00 FF 
0107c     98 F9 84 F1 | 	sub	ptr__hng023_dat__, ##7576
01080     10 09 B0 FD | 	call	#__system__longmove
01084     81 3E 01 F6 | 	mov	local07, result1
01088     7C 00 90 FD | 	jmp	#LR__0050
0108c                 | LR__0048
0108c                 | '     6:  longmove(@timings,@timings384,16)   'NTSC 50 Hz signaling 912x524, active 800x480, 100x30 text, NO PLACE FOR wide border, 2 colors per pixel, 01_10_00_00_00=384, 286363636 Hz
0108c     54 F2 04 F1 | 	add	objptr, #84
01090     79 26 01 F6 | 	mov	arg01, objptr
01094     54 F2 84 F1 | 	sub	objptr, #84
01098     0E 00 00 FF 
0109c     D8 F9 04 F1 | 	add	ptr__hng023_dat__, ##7640
010a0     7C 38 01 F6 | 	mov	local04, ptr__hng023_dat__
010a4     9C 3A 01 F6 | 	mov	local05, local04
010a8     10 3C 05 F6 | 	mov	local06, #16
010ac     9D 28 01 F6 | 	mov	arg02, local05
010b0     10 2A 05 F6 | 	mov	arg03, #16
010b4     0E 00 00 FF 
010b8     D8 F9 84 F1 | 	sub	ptr__hng023_dat__, ##7640
010bc     D4 08 B0 FD | 	call	#__system__longmove
010c0     81 3E 01 F6 | 	mov	local07, result1
010c4     40 00 90 FD | 	jmp	#LR__0050
010c8                 | LR__0049
010c8                 | '     7:  longmove(@timings,@timings448,16)   'NTSC 50 Hz signaling 1026x524, active 880x496, 110x31 text, borderless, 2 colors per pixel, 01_11_00_00_00=496, 322162162 Hz
010c8     54 F2 04 F1 | 	add	objptr, #84
010cc     79 40 01 F6 | 	mov	local08, objptr
010d0     A0 42 01 F6 | 	mov	local09, local08
010d4     0F 00 00 FF 
010d8     18 F8 04 F1 | 	add	ptr__hng023_dat__, ##7704
010dc     7C 38 01 F6 | 	mov	local04, ptr__hng023_dat__
010e0     9C 3A 01 F6 | 	mov	local05, local04
010e4     10 3C 05 F6 | 	mov	local06, #16
010e8     A1 26 01 F6 | 	mov	arg01, local09
010ec     9D 28 01 F6 | 	mov	arg02, local05
010f0     10 2A 05 F6 | 	mov	arg03, #16
010f4     54 F2 84 F1 | 	sub	objptr, #84
010f8     0F 00 00 FF 
010fc     18 F8 84 F1 | 	sub	ptr__hng023_dat__, ##7704
01100     90 08 B0 FD | 	call	#__system__longmove
01104     81 3E 01 F6 | 	mov	local07, result1
01108                 | LR__0050
01108                 | ' 
01108                 | ' ' 4-bit graphics: do nothing with timings :)
01108                 | ' 
01108                 | ' if (mode & (%10_00_11_0000))==(%10_00_11_0000) ' 8bit graphics, 4 pixels per long instead of 8, cpp x2
01108     99 34 01 F6 | 	mov	local02, local01
0110c     01 00 00 FF 
01110     30 34 05 F5 | 	and	local02, ##560
01114     01 00 00 FF 
01118     30 34 0D F2 | 	cmp	local02, ##560 wz
0111c     2C 00 90 5D |  if_ne	jmp	#LR__0051
01120                 | '   timings[5]:=4
01120     68 F2 04 F1 | 	add	objptr, #104
01124     79 08 68 FC | 	wrlong	#4, objptr
01128     18 F2 04 F1 | 	add	objptr, #24
0112c     79 44 01 FB | 	rdlong	local10, objptr
01130     01 44 65 F0 | 	shl	local10, #1
01134                 | '   timings[11]:=timings[11]<<1
01134     79 44 61 FC | 	wrlong	local10, objptr
01138                 | '   putpixel:=p8
01138     74 F2 04 F1 | 	add	objptr, #116
0113c     79 34 01 FB | 	rdlong	local02, objptr
01140     10 F2 84 F1 | 	sub	objptr, #16
01144     79 34 61 FC | 	wrlong	local02, objptr
01148     E4 F2 84 F1 | 	sub	objptr, #228
0114c                 | LR__0051
0114c                 | ' 
0114c                 | ' if (mode & (%10_00_11_0000))==(%10_00_01_0000) ' 2bit graphics, 16 pixels per long instead of 8, cpp /2
0114c     99 34 01 F6 | 	mov	local02, local01
01150     01 00 00 FF 
01154     30 34 05 F5 | 	and	local02, ##560
01158     01 00 00 FF 
0115c     10 34 0D F2 | 	cmp	local02, ##528 wz
01160     2C 00 90 5D |  if_ne	jmp	#LR__0052
01164                 | '   timings[5]:=16
01164     68 F2 04 F1 | 	add	objptr, #104
01168     79 20 68 FC | 	wrlong	#16, objptr
0116c     18 F2 04 F1 | 	add	objptr, #24
01170     79 46 01 FB | 	rdlong	local11, objptr
01174     01 46 45 F0 | 	shr	local11, #1
01178                 | '   timings[11]:=timings[11]>>1
01178     79 46 61 FC | 	wrlong	local11, objptr
0117c                 | '   putpixel:=p2
0117c     6C F2 04 F1 | 	add	objptr, #108
01180     79 34 01 FB | 	rdlong	local02, objptr
01184     08 F2 84 F1 | 	sub	objptr, #8
01188     79 34 61 FC | 	wrlong	local02, objptr
0118c     E4 F2 84 F1 | 	sub	objptr, #228
01190                 | LR__0052
01190                 | ' 
01190                 | ' if (mode & (%10_00_11_0000))==(%10_00_00_0000) ' 1bit graphics, 32 pixels per long instead of 8, cpp /4
01190     99 34 01 F6 | 	mov	local02, local01
01194     01 00 00 FF 
01198     30 34 05 F5 | 	and	local02, ##560
0119c     01 00 00 FF 
011a0     00 34 0D F2 | 	cmp	local02, ##512 wz
011a4     2C 00 90 5D |  if_ne	jmp	#LR__0053
011a8                 | '   timings[5]:=32
011a8     68 F2 04 F1 | 	add	objptr, #104
011ac     79 40 68 FC | 	wrlong	#32, objptr
011b0     18 F2 04 F1 | 	add	objptr, #24
011b4     79 48 01 FB | 	rdlong	local12, objptr
011b8     02 48 45 F0 | 	shr	local12, #2
011bc                 | '   timings[11]:=timings[11]>>2
011bc     79 48 61 FC | 	wrlong	local12, objptr
011c0                 | '   putpixel:=p1
011c0     68 F2 04 F1 | 	add	objptr, #104
011c4     79 34 01 FB | 	rdlong	local02, objptr
011c8     04 F2 84 F1 | 	sub	objptr, #4
011cc     79 34 61 FC | 	wrlong	local02, objptr
011d0     E4 F2 84 F1 | 	sub	objptr, #228
011d4                 | LR__0053
011d4                 | ' 
011d4                 | ' if (mode & (%10_00_11_0000))==(%10_00_10_0000) ' 4bit graphics,
011d4     99 34 01 F6 | 	mov	local02, local01
011d8     01 00 00 FF 
011dc     30 34 05 F5 | 	and	local02, ##560
011e0     01 00 00 FF 
011e4     20 34 0D F2 | 	cmp	local02, ##544 wz
011e8     14 00 90 5D |  if_ne	jmp	#LR__0054
011ec                 | '   putpixel:=p4
011ec     F0 F2 04 F1 | 	add	objptr, #240
011f0     79 34 01 FB | 	rdlong	local02, objptr
011f4     0C F2 84 F1 | 	sub	objptr, #12
011f8     79 34 61 FC | 	wrlong	local02, objptr
011fc     E4 F2 84 F1 | 	sub	objptr, #228
01200                 | LR__0054
01200                 | ' 
01200                 | ' 
01200                 | ' repeat i from 0 to 4
01200     00 4A 05 F6 | 	mov	local13, #0
01204     3C EE 9F FE | 	loc	pa,	#(@LR__0056-@LR__0055)
01208     35 00 A0 FD | 	call	#FCACHE_LOAD_
0120c                 | LR__0055
0120c     A5 4C 01 F6 | 	mov	local14, local13
01210     02 4C 65 F0 | 	shl	local14, #2
01214     54 F2 04 F1 | 	add	objptr, #84
01218     79 4C 01 F1 | 	add	local14, objptr
0121c     2C F2 84 F1 | 	sub	objptr, #44
01220     79 4E 01 FB | 	rdlong	local15, objptr
01224     28 F2 84 F1 | 	sub	objptr, #40
01228     11 4E 65 F0 | 	shl	local15, #17
0122c     A6 50 01 FB | 	rdlong	local16, local14
01230     A7 50 01 F1 | 	add	local16, local15
01234     A8 52 01 F6 | 	mov	local17, local16
01238     80 40 38 FF 
0123c     00 52 05 F1 | 	add	local17, ##1887502336
01240                 | '   timings[i]:=timings[i]+hdmibase<<17+ timingsxxt
01240     A6 52 61 FC | 	wrlong	local17, local14
01244     01 4A 05 F1 | 	add	local13, #1
01248     05 4A 5D F2 | 	cmps	local13, #5 wcz
0124c     BC FF 9F CD |  if_b	jmp	#LR__0055
01250                 | LR__0056
01250     28 F2 04 F1 | 	add	objptr, #40
01254     79 54 01 FB | 	rdlong	local18, objptr
01258     11 54 65 F0 | 	shl	local18, #17
0125c     40 F2 04 F1 | 	add	objptr, #64
01260     79 56 01 FB | 	rdlong	local19, objptr
01264     AA 56 01 F1 | 	add	local19, local18
01268                 | ' timings[5]:=timings[5]+hdmibase<<17
01268     79 56 61 FC | 	wrlong	local19, objptr
0126c                 | ' clkfreq:=timings[13]
0126c     20 F2 04 F1 | 	add	objptr, #32
01270     79 34 01 FB | 	rdlong	local02, objptr
01274     14 34 65 FC | 	wrlong	local02, #20
01278                 | ' hubset(timings[14])
01278     04 F2 04 F1 | 	add	objptr, #4
0127c     79 26 01 FB | 	rdlong	arg01, objptr
01280     8C F2 84 F1 | 	sub	objptr, #140
01284     00 26 61 FD | 	hubset	arg01
01288                 | ' waitms(1)
01288     01 26 05 F6 | 	mov	arg01, #1
0128c     5C 08 B0 FD | 	call	#__system___waitms
01290     99 58 01 F6 | 	mov	local20, local01
01294     03 58 05 F5 | 	and	local20, #3
01298     AC 5A C1 F9 | 	decod	local21, local20
0129c                 | ' 
0129c                 | ' 
0129c                 | ' xzoom:=1<<(mode & 3)
0129c     D8 F2 04 F1 | 	add	objptr, #216
012a0     79 5A 61 FC | 	wrlong	local21, objptr
012a4                 | ' 
012a4                 | ' if (xzoom==8) && (((mode>>4)&3)<>3)
012a4     AD 40 01 F6 | 	mov	local08, local21
012a8     D8 F2 84 F1 | 	sub	objptr, #216
012ac     08 40 0D F2 | 	cmp	local08, #8 wz
012b0     24 00 90 5D |  if_ne	jmp	#LR__0057
012b4     99 42 01 F6 | 	mov	local09, local01
012b8     04 42 45 F0 | 	shr	local09, #4
012bc     03 42 05 F5 | 	and	local09, #3
012c0     03 42 0D F2 | 	cmp	local09, #3 wz
012c4     10 00 90 AD |  if_e	jmp	#LR__0057
012c8                 | '   xzoom:=4
012c8     04 34 05 F6 | 	mov	local02, #4
012cc     D8 F2 04 F1 | 	add	objptr, #216
012d0     79 08 68 FC | 	wrlong	#4, objptr
012d4     D8 F2 84 F1 | 	sub	objptr, #216
012d8                 | LR__0057
012d8     99 5C 01 F6 | 	mov	local22, local01
012dc     02 5C 45 F0 | 	shr	local22, #2
012e0     03 5C 05 F5 | 	and	local22, #3
012e4     AE 5E C1 F9 | 	decod	local23, local22
012e8                 | ' 
012e8                 | ' yzoom:=1<<((mode>>2) & 3)
012e8     DC F2 04 F1 | 	add	objptr, #220
012ec     79 5E 61 FC | 	wrlong	local23, objptr
012f0     04 F2 84 F1 | 	sub	objptr, #4
012f4     79 40 01 FB | 	rdlong	local08, objptr
012f8     04 F2 04 F1 | 	add	objptr, #4
012fc     79 38 01 FB | 	rdlong	local04, objptr
01300     9C 40 01 FD | 	qmul	local08, local04
01304     18 60 61 FD | 	getqx	local24
01308                 | ' azoom:=xzoom*yzoom
01308     04 F2 04 F1 | 	add	objptr, #4
0130c     79 60 61 FC | 	wrlong	local24, objptr
01310                 | ' 
01310                 | ' cpl:=timings[11]
01310     60 F2 84 F1 | 	sub	objptr, #96
01314     79 34 01 FB | 	rdlong	local02, objptr
01318     14 F2 04 F1 | 	add	objptr, #20
0131c     79 34 61 FC | 	wrlong	local02, objptr
01320     94 F2 84 F1 | 	sub	objptr, #148
01324                 | ' if (mode<512)
01324     01 00 00 FF 
01328     00 32 5D F2 | 	cmps	local01, ##512 wcz
0132c     60 00 90 3D |  if_ae	jmp	#LR__0058
01330     84 F2 04 F1 | 	add	objptr, #132
01334     79 C8 01 FB | 	rdlong	muldiva_, objptr
01338     04 C8 45 F0 | 	shr	muldiva_, #4
0133c     58 F2 04 F1 | 	add	objptr, #88
01340     79 CA 01 FB | 	rdlong	muldivb_, objptr
01344     DC F2 84 F1 | 	sub	objptr, #220
01348     67 00 A0 FD | 	call	#unsdivide_
0134c                 | '   lines:=(timings[12]>>4)+/yzoom
0134c     98 F2 04 F1 | 	add	objptr, #152
01350     79 CA 61 FC | 	wrlong	muldivb_, objptr
01354                 | '   if ((timings[12]>>4)+//yzoom) <>0
01354     14 F2 84 F1 | 	sub	objptr, #20
01358     79 C8 01 FB | 	rdlong	muldiva_, objptr
0135c     04 C8 45 F0 | 	shr	muldiva_, #4
01360     58 F2 04 F1 | 	add	objptr, #88
01364     79 CA 01 FB | 	rdlong	muldivb_, objptr
01368     DC F2 84 F1 | 	sub	objptr, #220
0136c     67 00 A0 FD | 	call	#unsdivide_
01370     00 C8 0D F2 | 	cmp	muldiva_, #0 wz
01374     AC 00 90 AD |  if_e	jmp	#LR__0061
01378                 | '     lines +=1
01378     98 F2 04 F1 | 	add	objptr, #152
0137c     79 34 01 FB | 	rdlong	local02, objptr
01380     01 34 05 F1 | 	add	local02, #1
01384     79 34 61 FC | 	wrlong	local02, objptr
01388     98 F2 84 F1 | 	sub	objptr, #152
0138c                 | ' 
0138c                 | ' else
0138c     94 00 90 FD | 	jmp	#LR__0061
01390                 | LR__0058
01390     84 F2 04 F1 | 	add	objptr, #132
01394     79 C8 01 FB | 	rdlong	muldiva_, objptr
01398     58 F2 04 F1 | 	add	objptr, #88
0139c     79 CA 01 FB | 	rdlong	muldivb_, objptr
013a0     DC F2 84 F1 | 	sub	objptr, #220
013a4     6B 00 A0 FD | 	call	#divide_
013a8                 | '   lines:=timings[12]/yzoom
013a8     98 F2 04 F1 | 	add	objptr, #152
013ac     79 CA 61 FC | 	wrlong	muldivb_, objptr
013b0                 | '   if cpl//xzoom==0
013b0     04 F2 84 F1 | 	sub	objptr, #4
013b4     79 C8 01 FB | 	rdlong	muldiva_, objptr
013b8     44 F2 04 F1 | 	add	objptr, #68
013bc     79 CA 01 FB | 	rdlong	muldivb_, objptr
013c0     D8 F2 84 F1 | 	sub	objptr, #216
013c4     6B 00 A0 FD | 	call	#divide_
013c8     00 C8 0D F2 | 	cmp	muldiva_, #0 wz
013cc     28 00 90 5D |  if_ne	jmp	#LR__0059
013d0                 | '     cpl:=cpl/xzoom
013d0     94 F2 04 F1 | 	add	objptr, #148
013d4     79 C8 01 FB | 	rdlong	muldiva_, objptr
013d8     44 F2 04 F1 | 	add	objptr, #68
013dc     79 CA 01 FB | 	rdlong	muldivb_, objptr
013e0     D8 F2 84 F1 | 	sub	objptr, #216
013e4     6B 00 A0 FD | 	call	#divide_
013e8     94 F2 04 F1 | 	add	objptr, #148
013ec     79 CA 61 FC | 	wrlong	muldivb_, objptr
013f0     94 F2 84 F1 | 	sub	objptr, #148
013f4                 | '   else
013f4     2C 00 90 FD | 	jmp	#LR__0060
013f8                 | LR__0059
013f8     94 F2 04 F1 | 	add	objptr, #148
013fc     79 C8 01 FB | 	rdlong	muldiva_, objptr
01400     44 F2 04 F1 | 	add	objptr, #68
01404     79 CA 01 FB | 	rdlong	muldivb_, objptr
01408     D8 F2 84 F1 | 	sub	objptr, #216
0140c     6B 00 A0 FD | 	call	#divide_
01410     E5 62 01 F6 | 	mov	local25, muldivb_
01414     01 62 05 F1 | 	add	local25, #1
01418                 | '     cpl:=cpl/xzoom+1
01418     94 F2 04 F1 | 	add	objptr, #148
0141c     79 62 61 FC | 	wrlong	local25, objptr
01420     94 F2 84 F1 | 	sub	objptr, #148
01424                 | LR__0060
01424                 | LR__0061
01424     94 F2 04 F1 | 	add	objptr, #148
01428     79 40 01 FB | 	rdlong	local08, objptr
0142c     04 F2 04 F1 | 	add	objptr, #4
01430     79 38 01 FB | 	rdlong	local04, objptr
01434     9C 40 01 FD | 	qmul	local08, local04
01438     18 64 61 FD | 	getqx	local26
0143c                 | ' 
0143c                 | ' buflen:=(cpl*lines)
0143c     64 F2 84 F1 | 	sub	objptr, #100
01440     79 64 61 FC | 	wrlong	local26, objptr
01444     34 F2 84 F1 | 	sub	objptr, #52
01448     02 64 65 F0 | 	shl	local26, #2
0144c     13 66 C5 F9 | 	decod	local27, #19
01450     B2 66 81 F1 | 	sub	local27, local26
01454                 | ' 
01454                 | ' buf_ptr:=$80000-4*buflen
01454     79 66 61 FC | 	wrlong	local27, objptr
01458     54 F2 04 F1 | 	add	objptr, #84
0145c     79 68 01 F6 | 	mov	local28, objptr
01460                 | ' mode_ptr:=@timings
01460     40 F2 84 F1 | 	sub	objptr, #64
01464     79 68 61 FC | 	wrlong	local28, objptr
01468                 | ' graphmode:=mode
01468     BC F2 04 F1 | 	add	objptr, #188
0146c     79 32 61 FC | 	wrlong	local01, objptr
01470     D0 F2 84 F1 | 	sub	objptr, #208
01474                 | ' makedl(mode)
01474     99 26 01 F6 | 	mov	arg01, local01
01478                 | ' 
01478                 | ' ''--%aaaa_aaaa_aaaa_aaaa_aazz_nnnn_llll_ll_01 - txt
01478                 | '   '' aaaa_aaaa_aaaa_aaaa_aazz_rrrr_rrrr_cc_10 - graph
01478                 | '   '' aaaa_aaaa_aaaa-aaaa_aarr_rrrr_rrrr_rr_11 - extended, next long to read
01478                 | ' 
01478                 | ' '   0 - display a up/down border line
01478                 | ' 
01478                 | ' '  ' aaaa_aaaa_aaaa_aaaa_aazz_nnnn_llll_ll_01 - text line
01478                 | ' '    aaaa_aaaa_aaaa_aaaa_aa00 - buffer start, has to be aligned, 1 long for char, ff_bb_rr_cc, foreground, background,reserved, charcode
01478                 | ' '    zz - zoom, 00-x1, 01-x2, 10-x4, 11-blank line
01478                 | ' '    nnnn - font line to display, 0..15
01478                 | ' '    llllll - character line, determines the cursor Y position
01478                 | ' 
01478                 | ' 
01478                 | ' if (mode &256==0)
01478     00 27 CD F7 | 	test	arg01, #256 wz
0147c     1C 00 90 5D |  if_ne	jmp	#LR__0062
01480     79 6A 01 FB | 	rdlong	local29, objptr
01484     04 00 00 FF 
01488     00 6B 85 F1 | 	sub	local29, ##2304
0148c                 | '   dl_ptr:=buf_ptr-4*576
0148c     20 F2 04 F1 | 	add	objptr, #32
01490     79 6A 61 FC | 	wrlong	local29, objptr
01494     20 F2 84 F1 | 	sub	objptr, #32
01498                 | ' else
01498     18 00 90 FD | 	jmp	#LR__0063
0149c                 | LR__0062
0149c     79 6C 01 FB | 	rdlong	local30, objptr
014a0     03 00 00 FF 
014a4     C0 6D 85 F1 | 	sub	local30, ##1984
014a8                 | '   dl_ptr:=buf_ptr-4*496
014a8     20 F2 04 F1 | 	add	objptr, #32
014ac     79 6C 61 FC | 	wrlong	local30, objptr
014b0     20 F2 84 F1 | 	sub	objptr, #32
014b4                 | LR__0063
014b4     93 6E 01 F6 | 	mov	local31, arg01
014b8     02 6E 45 F0 | 	shr	local31, #2
014bc     03 6E 05 F5 | 	and	local31, #3
014c0                 | ' 
014c0                 | ' vzoom:=((mode>>2) & 3)
014c0                 | ' 
014c0                 | ' 
014c0                 | ' if mode<512 '' text modes
014c0     01 00 00 FF 
014c4     00 26 5D F2 | 	cmps	arg01, ##512 wcz
014c8     E4 01 90 3D |  if_ae	jmp	#LR__0071
014cc                 | ' 
014cc                 | '   if timings[6]>0 'borders
014cc     6C F2 04 F1 | 	add	objptr, #108
014d0     79 70 01 FB | 	rdlong	local32, objptr
014d4     6C F2 84 F1 | 	sub	objptr, #108
014d8     00 70 5D F2 | 	cmps	local32, #0 wcz
014dc     D4 00 90 ED |  if_be	jmp	#LR__0068
014e0                 | '     repeat i from 0 to timings[6]-1 '0 to -1
014e0     00 72 05 F6 | 	mov	local33, #0
014e4     6C F2 04 F1 | 	add	objptr, #108
014e8     79 74 01 FB | 	rdlong	local34, objptr
014ec     6C F2 84 F1 | 	sub	objptr, #108
014f0     01 74 85 F1 | 	sub	local34, #1
014f4     00 74 5D F2 | 	cmps	local34, #0 wcz
014f8     01 76 05 16 |  if_a	mov	local35, #1
014fc     01 76 65 E6 |  if_be	neg	local35, #1
01500     BB 78 01 F6 | 	mov	local36, local35
01504     BB 74 01 F1 | 	add	local34, local35
01508     1C EB 9F FE | 	loc	pa,	#(@LR__0065-@LR__0064)
0150c     35 00 A0 FD | 	call	#FCACHE_LOAD_
01510                 | LR__0064
01510     B9 7A 01 F6 | 	mov	local37, local33
01514     02 7A 65 F0 | 	shl	local37, #2
01518     20 F2 04 F1 | 	add	objptr, #32
0151c     79 7C 01 FB | 	rdlong	local38, objptr
01520     20 F2 84 F1 | 	sub	objptr, #32
01524     BD 7C 01 F1 | 	add	local38, local37
01528                 | '       long[dl_ptr+4*i]:=$0
01528     BE 00 68 FC | 	wrlong	#0, local38
0152c     BC 72 01 F1 | 	add	local33, local36
01530     BA 72 09 F2 | 	cmp	local33, local34 wz
01534     D8 FF 9F 5D |  if_ne	jmp	#LR__0064
01538                 | LR__0065
01538                 | '     repeat i from timings[6]+timings[12] to timings[15]-1
01538     6C F2 04 F1 | 	add	objptr, #108
0153c     79 72 01 FB | 	rdlong	local33, objptr
01540     18 F2 04 F1 | 	add	objptr, #24
01544     79 76 01 FB | 	rdlong	local35, objptr
01548     BB 72 01 F1 | 	add	local33, local35
0154c     0C F2 04 F1 | 	add	objptr, #12
01550     79 7E 01 FB | 	rdlong	local39, objptr
01554     01 7E 85 F1 | 	sub	local39, #1
01558     24 F2 84 F1 | 	sub	objptr, #36
0155c     79 80 01 FB | 	rdlong	local40, objptr
01560     18 F2 04 F1 | 	add	objptr, #24
01564     79 82 01 FB | 	rdlong	local41, objptr
01568     84 F2 84 F1 | 	sub	objptr, #132
0156c     C1 80 01 F1 | 	add	local40, local41
01570     C0 7E 59 F2 | 	cmps	local39, local40 wcz
01574     01 84 05 16 |  if_a	mov	local42, #1
01578     01 84 65 E6 |  if_be	neg	local42, #1
0157c     C2 86 01 F6 | 	mov	local43, local42
01580     C2 7E 01 F1 | 	add	local39, local42
01584     A0 EA 9F FE | 	loc	pa,	#(@LR__0067-@LR__0066)
01588     35 00 A0 FD | 	call	#FCACHE_LOAD_
0158c                 | LR__0066
0158c     B9 88 01 F6 | 	mov	local44, local33
01590     02 88 65 F0 | 	shl	local44, #2
01594     20 F2 04 F1 | 	add	objptr, #32
01598     79 8A 01 FB | 	rdlong	local45, objptr
0159c     20 F2 84 F1 | 	sub	objptr, #32
015a0     C4 8A 01 F1 | 	add	local45, local44
015a4                 | '       long[dl_ptr+4*i]:=$0
015a4     C5 00 68 FC | 	wrlong	#0, local45
015a8     C3 72 01 F1 | 	add	local33, local43
015ac     BF 72 09 F2 | 	cmp	local33, local39 wz
015b0     D8 FF 9F 5D |  if_ne	jmp	#LR__0066
015b4                 | LR__0067
015b4                 | LR__0068
015b4     10 8C 05 F6 | 	mov	local46, #16
015b8     B7 8C 61 F0 | 	shl	local46, local31
015bc                 | '   lpc:=16<<vzoom
015bc                 | '   repeat i from timings[6] to timings[6]+timings[12]-1
015bc     6C F2 04 F1 | 	add	objptr, #108
015c0     79 72 01 FB | 	rdlong	local33, objptr
015c4     B9 8E 01 F6 | 	mov	local47, local33
015c8     18 F2 04 F1 | 	add	objptr, #24
015cc     79 90 01 FB | 	rdlong	local48, objptr
015d0     C8 8E 01 F1 | 	add	local47, local48
015d4     01 8E 85 F1 | 	sub	local47, #1
015d8     18 F2 84 F1 | 	sub	objptr, #24
015dc     79 84 01 FB | 	rdlong	local42, objptr
015e0     6C F2 84 F1 | 	sub	objptr, #108
015e4     C2 8E 59 F2 | 	cmps	local47, local42 wcz
015e8     01 92 05 16 |  if_a	mov	local49, #1
015ec     01 92 65 E6 |  if_be	neg	local49, #1
015f0     C9 94 01 F6 | 	mov	local50, local49
015f4     C9 8E 01 F1 | 	add	local47, local49
015f8     B4 EA 9F FE | 	loc	pa,	#(@LR__0070-@LR__0069)
015fc     35 00 A0 FD | 	call	#FCACHE_LOAD_
01600                 | LR__0069
01600     B9 C8 01 F6 | 	mov	muldiva_, local33
01604     6C F2 04 F1 | 	add	objptr, #108
01608     79 96 01 FB | 	rdlong	local51, objptr
0160c     6C F2 84 F1 | 	sub	objptr, #108
01610     CB C8 81 F1 | 	sub	muldiva_, local51
01614     C6 CA 01 F6 | 	mov	muldivb_, local46
01618     67 00 A0 FD | 	call	#unsdivide_
0161c     B7 C8 41 F0 | 	shr	muldiva_, local31
01620                 | '     fontline2:=((i-timings[6])+//lpc)>>vzoom
01620     E4 98 01 F6 | 	mov	local52, muldiva_
01624     B9 C8 01 F6 | 	mov	muldiva_, local33
01628     6C F2 04 F1 | 	add	objptr, #108
0162c     79 96 01 FB | 	rdlong	local51, objptr
01630     6C F2 84 F1 | 	sub	objptr, #108
01634     CB C8 81 F1 | 	sub	muldiva_, local51
01638     C6 CA 01 F6 | 	mov	muldivb_, local46
0163c     67 00 A0 FD | 	call	#unsdivide_
01640     E5 9A 01 F6 | 	mov	local53, muldivb_
01644                 | '     charline:=(i-timings[6])+/lpc
01644     94 F2 04 F1 | 	add	objptr, #148
01648     79 96 01 FB | 	rdlong	local51, objptr
0164c     94 F2 84 F1 | 	sub	objptr, #148
01650     CD 96 01 FD | 	qmul	local51, local53
01654     18 9C 61 FD | 	getqx	local54
01658     02 9C 65 F0 | 	shl	local54, #2
0165c     79 9E 01 FB | 	rdlong	local55, objptr
01660     CE 9E 01 F1 | 	add	local55, local54
01664     93 A0 01 F6 | 	mov	local56, arg01
01668     03 A0 05 F5 | 	and	local56, #3
0166c     D0 9E 01 F1 | 	add	local55, local56
01670                 | '     bufstart:=buf_ptr+4*((cpl)*charline)+(mode&3)
01670     0C 9E 65 F0 | 	shl	local55, #12
01674     08 98 65 F0 | 	shl	local52, #8
01678     CC 9E 01 F1 | 	add	local55, local52
0167c     02 9A 65 F0 | 	shl	local53, #2
01680     CD 9E 01 F1 | 	add	local55, local53
01684     01 9E 05 F1 | 	add	local55, #1
01688     B9 A2 01 F6 | 	mov	local57, local33
0168c     02 A2 65 F0 | 	shl	local57, #2
01690     20 F2 04 F1 | 	add	objptr, #32
01694     79 A4 01 FB | 	rdlong	local58, objptr
01698     20 F2 84 F1 | 	sub	objptr, #32
0169c     D1 A4 01 F1 | 	add	local58, local57
016a0                 | '     long[dl_ptr+4*i]:=(bufstart<<12)+(fontline2<<8)+(charline<<2)+1
016a0     D2 9E 61 FC | 	wrlong	local55, local58
016a4     CA 72 01 F1 | 	add	local33, local50
016a8     C7 72 09 F2 | 	cmp	local33, local47 wz
016ac     50 FF 9F 5D |  if_ne	jmp	#LR__0069
016b0                 | LR__0070
016b0                 | LR__0071
016b0                 | ' 
016b0                 | ' 
016b0                 | ' 
016b0                 | ' if (mode>=512)' and (mode & (%10_00_00_0000))==(%10_00_00_0000) ' graphics -> all modes TODO :mode 560+192=752 = 10_11_11_0000 impossib,e because out of memory
016b0     01 00 00 FF 
016b4     00 26 5D F2 | 	cmps	arg01, ##512 wcz
016b8     AC 01 90 CD |  if_b	jmp	#LR__0079
016bc                 | ' 
016bc                 | '   if timings[6]>0 'borders
016bc     6C F2 04 F1 | 	add	objptr, #108
016c0     79 70 01 FB | 	rdlong	local32, objptr
016c4     6C F2 84 F1 | 	sub	objptr, #108
016c8     00 70 5D F2 | 	cmps	local32, #0 wcz
016cc     D4 00 90 ED |  if_be	jmp	#LR__0076
016d0                 | '     repeat i from 0 to timings[6]-1 '0 to -1
016d0     00 72 05 F6 | 	mov	local33, #0
016d4     6C F2 04 F1 | 	add	objptr, #108
016d8     79 A6 01 FB | 	rdlong	local59, objptr
016dc     6C F2 84 F1 | 	sub	objptr, #108
016e0     01 A6 85 F1 | 	sub	local59, #1
016e4     00 A6 5D F2 | 	cmps	local59, #0 wcz
016e8     01 76 05 16 |  if_a	mov	local35, #1
016ec     01 76 65 E6 |  if_be	neg	local35, #1
016f0     BB A8 01 F6 | 	mov	local60, local35
016f4     BB A6 01 F1 | 	add	local59, local35
016f8     2C E9 9F FE | 	loc	pa,	#(@LR__0073-@LR__0072)
016fc     35 00 A0 FD | 	call	#FCACHE_LOAD_
01700                 | LR__0072
01700     B9 AA 01 F6 | 	mov	local61, local33
01704     02 AA 65 F0 | 	shl	local61, #2
01708     20 F2 04 F1 | 	add	objptr, #32
0170c     79 AC 01 FB | 	rdlong	local62, objptr
01710     20 F2 84 F1 | 	sub	objptr, #32
01714     D5 AC 01 F1 | 	add	local62, local61
01718                 | '       long[dl_ptr+4*i]:=$0
01718     D6 00 68 FC | 	wrlong	#0, local62
0171c     D4 72 01 F1 | 	add	local33, local60
01720     D3 72 09 F2 | 	cmp	local33, local59 wz
01724     D8 FF 9F 5D |  if_ne	jmp	#LR__0072
01728                 | LR__0073
01728                 | '     repeat i from timings[6]+timings[12] to timings[15]-1
01728     6C F2 04 F1 | 	add	objptr, #108
0172c     79 72 01 FB | 	rdlong	local33, objptr
01730     18 F2 04 F1 | 	add	objptr, #24
01734     79 76 01 FB | 	rdlong	local35, objptr
01738     BB 72 01 F1 | 	add	local33, local35
0173c     0C F2 04 F1 | 	add	objptr, #12
01740     79 AE 01 FB | 	rdlong	local63, objptr
01744     01 AE 85 F1 | 	sub	local63, #1
01748     24 F2 84 F1 | 	sub	objptr, #36
0174c     79 80 01 FB | 	rdlong	local40, objptr
01750     18 F2 04 F1 | 	add	objptr, #24
01754     79 82 01 FB | 	rdlong	local41, objptr
01758     84 F2 84 F1 | 	sub	objptr, #132
0175c     C1 80 01 F1 | 	add	local40, local41
01760     C0 AE 59 F2 | 	cmps	local63, local40 wcz
01764     01 84 05 16 |  if_a	mov	local42, #1
01768     01 84 65 E6 |  if_be	neg	local42, #1
0176c     C2 B0 01 F6 | 	mov	local64, local42
01770     C2 AE 01 F1 | 	add	local63, local42
01774     B0 E8 9F FE | 	loc	pa,	#(@LR__0075-@LR__0074)
01778     35 00 A0 FD | 	call	#FCACHE_LOAD_
0177c                 | LR__0074
0177c     B9 B2 01 F6 | 	mov	local65, local33
01780     02 B2 65 F0 | 	shl	local65, #2
01784     20 F2 04 F1 | 	add	objptr, #32
01788     79 B4 01 FB | 	rdlong	local66, objptr
0178c     20 F2 84 F1 | 	sub	objptr, #32
01790     D9 B4 01 F1 | 	add	local66, local65
01794                 | '       long[dl_ptr+4*i]:=$0
01794     DA 00 68 FC | 	wrlong	#0, local66
01798     D8 72 01 F1 | 	add	local33, local64
0179c     D7 72 09 F2 | 	cmp	local33, local63 wz
017a0     D8 FF 9F 5D |  if_ne	jmp	#LR__0074
017a4                 | LR__0075
017a4                 | LR__0076
017a4                 | '   repeat i from timings[6] to timings[6]+timings[12]-1
017a4     6C F2 04 F1 | 	add	objptr, #108
017a8     79 72 01 FB | 	rdlong	local33, objptr
017ac     B9 B6 01 F6 | 	mov	local67, local33
017b0     18 F2 04 F1 | 	add	objptr, #24
017b4     79 90 01 FB | 	rdlong	local48, objptr
017b8     C8 B6 01 F1 | 	add	local67, local48
017bc     01 B6 85 F1 | 	sub	local67, #1
017c0     18 F2 84 F1 | 	sub	objptr, #24
017c4     79 84 01 FB | 	rdlong	local42, objptr
017c8     6C F2 84 F1 | 	sub	objptr, #108
017cc     C2 B6 59 F2 | 	cmps	local67, local42 wcz
017d0     01 92 05 16 |  if_a	mov	local49, #1
017d4     01 92 65 E6 |  if_be	neg	local49, #1
017d8     C9 B8 01 F6 | 	mov	local68, local49
017dc     C9 B6 01 F1 | 	add	local67, local49
017e0     9C E8 9F FE | 	loc	pa,	#(@LR__0078-@LR__0077)
017e4     35 00 A0 FD | 	call	#FCACHE_LOAD_
017e8                 | LR__0077
017e8     B9 BA 01 F6 | 	mov	local69, local33
017ec     6C F2 04 F1 | 	add	objptr, #108
017f0     79 96 01 FB | 	rdlong	local51, objptr
017f4     CB BA 81 F1 | 	sub	local69, local51
017f8     B7 BA 41 F0 | 	shr	local69, local31
017fc     28 F2 04 F1 | 	add	objptr, #40
01800     79 96 01 FB | 	rdlong	local51, objptr
01804     94 F2 84 F1 | 	sub	objptr, #148
01808     DD 96 01 FD | 	qmul	local51, local69
0180c     18 BC 61 FD | 	getqx	local70
01810     02 BC 65 F0 | 	shl	local70, #2
01814     79 BE 01 FB | 	rdlong	local71, objptr
01818     DE BE 01 F1 | 	add	local71, local70
0181c     93 C0 01 F6 | 	mov	local72, arg01
01820     03 C0 05 F5 | 	and	local72, #3
01824     E0 BE 01 F1 | 	add	local71, local72
01828                 | '     bufstart:=buf_ptr+4*(cpl*((i-timings[6])>>vzoom))+(mode&3)
01828     0C BE 65 F0 | 	shl	local71, #12
0182c     02 BE 05 F1 | 	add	local71, #2
01830     93 C2 01 F6 | 	mov	local73, arg01
01834     30 C2 05 F5 | 	and	local73, #48
01838     02 C2 45 F0 | 	shr	local73, #2
0183c     E1 BE 01 F1 | 	add	local71, local73
01840     B9 C4 01 F6 | 	mov	local74, local33
01844     02 C4 65 F0 | 	shl	local74, #2
01848     20 F2 04 F1 | 	add	objptr, #32
0184c     79 C6 01 FB | 	rdlong	local75, objptr
01850     20 F2 84 F1 | 	sub	objptr, #32
01854     E2 C6 01 F1 | 	add	local75, local74
01858                 | '     long[dl_ptr+4*i]:=(bufstart<<12)+2+(mode &48)>>2
01858     E3 BE 61 FC | 	wrlong	local71, local75
0185c     DC 72 01 F1 | 	add	local33, local68
01860     DB 72 09 F2 | 	cmp	local33, local67 wz
01864     80 FF 9F 5D |  if_ne	jmp	#LR__0077
01868                 | LR__0078
01868                 | LR__0079
01868                 | LR__0080
01868     46 F0 03 F6 | 	mov	ptra, fp
0186c     5A 00 A0 FD | 	call	#popregs_
01870                 | _hng023_setmode_ret
01870     2D 00 64 FD | 	ret
01874                 | hubexit
01874     23 00 80 FD | 	jmp	#cogexit
01878                 | 
01878                 | __system___setbaud
01878     14 C8 05 FB | 	rdlong	muldiva_, #20
0187c     93 CA 01 F6 | 	mov	muldivb_, arg01
01880     6B 00 A0 FD | 	call	#divide_
01884     40 7C 64 FD | 	dirl	#62
01888     40 7E 64 FD | 	dirl	#63
0188c     7B CA 61 FC | 	wrlong	muldivb_, ptr___system__dat__
01890     10 CA 65 F0 | 	shl	muldivb_, #16
01894     07 28 05 F6 | 	mov	arg02, #7
01898     E5 28 01 F1 | 	add	arg02, muldivb_
0189c     3E F8 0C FC | 	wrpin	#124, #62
018a0     3E 28 15 FC | 	wxpin	arg02, #62
018a4     3F 7C 0C FC | 	wrpin	#62, #63
018a8     14 28 05 F1 | 	add	arg02, #20
018ac     3F 28 15 FC | 	wxpin	arg02, #63
018b0     41 7C 64 FD | 	dirh	#62
018b4     41 7E 64 FD | 	dirh	#63
018b8                 | __system___setbaud_ret
018b8     2D 00 64 FD | 	ret
018bc                 | 
018bc                 | __system___txraw
018bc     02 88 04 F6 | 	mov	COUNT_, #2
018c0     4B 00 A0 FD | 	call	#pushregs_
018c4     93 32 01 F6 | 	mov	local01, arg01
018c8     7B 34 09 FB | 	rdlong	local02, ptr___system__dat__ wz
018cc     0C 00 90 5D |  if_ne	jmp	#LR__0081
018d0     C2 01 00 FF 
018d4     00 26 05 F6 | 	mov	arg01, ##230400
018d8     9C FF BF FD | 	call	#__system___setbaud
018dc                 | LR__0081
018dc     3E 32 25 FC | 	wypin	local01, #62
018e0     1F 02 64 FD | 	waitx	#1
018e4     20 E7 9F FE | 	loc	pa,	#(@LR__0083-@LR__0082)
018e8     35 00 A0 FD | 	call	#FCACHE_LOAD_
018ec                 | LR__0082
018ec     40 7C 74 FD | 	testp	#62 wc
018f0     F8 FF 9F 3D |  if_nc	jmp	#LR__0082
018f4                 | LR__0083
018f4     01 02 05 F6 | 	mov	result1, #1
018f8     46 F0 03 F6 | 	mov	ptra, fp
018fc     5A 00 A0 FD | 	call	#popregs_
01900                 | __system___txraw_ret
01900     2D 00 64 FD | 	ret
01904                 | 
01904                 | __system__bytemove
01904     93 06 01 F6 | 	mov	_var01, arg01
01908     94 26 59 F2 | 	cmps	arg01, arg02 wcz
0190c     50 00 90 3D |  if_ae	jmp	#LR__0091
01910     0C E7 9F FE | 	loc	pa,	#(@LR__0085-@LR__0084)
01914     35 00 A0 FD | 	call	#FCACHE_LOAD_
01918                 | LR__0084
01918     03 2A 5D F2 | 	cmps	arg03, #3 wcz
0191c     18 00 90 ED |  if_be	jmp	#LR__0086
01920     94 08 01 FB | 	rdlong	_var02, arg02
01924     93 08 61 FC | 	wrlong	_var02, arg01
01928     04 26 05 F1 | 	add	arg01, #4
0192c     04 28 05 F1 | 	add	arg02, #4
01930     04 2A 85 F1 | 	sub	arg03, #4
01934     E0 FF 9F FD | 	jmp	#LR__0084
01938                 | LR__0085
01938                 | LR__0086
01938     95 0A 09 F6 | 	mov	_var03, arg03 wz
0193c     4C 00 90 AD |  if_e	jmp	#LR__0097
01940     D0 E6 9F FE | 	loc	pa,	#(@LR__0089-@LR__0087)
01944     35 00 A0 FD | 	call	#FCACHE_LOAD_
01948                 | LR__0087
01948     85 08 D8 FC | 	rep	@LR__0090, _var03
0194c                 | LR__0088
0194c     94 08 C1 FA | 	rdbyte	_var02, arg02
01950     93 08 41 FC | 	wrbyte	_var02, arg01
01954     01 26 05 F1 | 	add	arg01, #1
01958     01 28 05 F1 | 	add	arg02, #1
0195c                 | LR__0089
0195c                 | LR__0090
0195c     2C 00 90 FD | 	jmp	#LR__0097
01960                 | LR__0091
01960     95 26 01 F1 | 	add	arg01, arg03
01964     95 28 01 F1 | 	add	arg02, arg03
01968     95 0C 09 F6 | 	mov	_var04, arg03 wz
0196c     1C 00 90 AD |  if_e	jmp	#LR__0096
01970     A0 E6 9F FE | 	loc	pa,	#(@LR__0094-@LR__0092)
01974     35 00 A0 FD | 	call	#FCACHE_LOAD_
01978                 | LR__0092
01978     86 08 D8 FC | 	rep	@LR__0095, _var04
0197c                 | LR__0093
0197c     01 26 85 F1 | 	sub	arg01, #1
01980     01 28 85 F1 | 	sub	arg02, #1
01984     94 08 C1 FA | 	rdbyte	_var02, arg02
01988     93 08 41 FC | 	wrbyte	_var02, arg01
0198c                 | LR__0094
0198c                 | LR__0095
0198c                 | LR__0096
0198c                 | LR__0097
0198c     83 02 01 F6 | 	mov	result1, _var01
01990                 | __system__bytemove_ret
01990     2D 00 64 FD | 	ret
01994                 | 
01994                 | __system__longmove
01994     93 06 01 F6 | 	mov	_var01, arg01
01998     94 26 59 F2 | 	cmps	arg01, arg02 wcz
0199c     28 00 90 3D |  if_ae	jmp	#LR__0102
019a0     95 08 09 F6 | 	mov	_var02, arg03 wz
019a4     54 00 90 AD |  if_e	jmp	#LR__0108
019a8     68 E6 9F FE | 	loc	pa,	#(@LR__0100-@LR__0098)
019ac     35 00 A0 FD | 	call	#FCACHE_LOAD_
019b0                 | LR__0098
019b0     84 08 D8 FC | 	rep	@LR__0101, _var02
019b4                 | LR__0099
019b4     94 0A 01 FB | 	rdlong	_var03, arg02
019b8     93 0A 61 FC | 	wrlong	_var03, arg01
019bc     04 26 05 F1 | 	add	arg01, #4
019c0     04 28 05 F1 | 	add	arg02, #4
019c4                 | LR__0100
019c4                 | LR__0101
019c4     34 00 90 FD | 	jmp	#LR__0108
019c8                 | LR__0102
019c8     95 0C 01 F6 | 	mov	_var04, arg03
019cc     02 0C 65 F0 | 	shl	_var04, #2
019d0     86 26 01 F1 | 	add	arg01, _var04
019d4     86 28 01 F1 | 	add	arg02, _var04
019d8     95 0E 09 F6 | 	mov	_var05, arg03 wz
019dc     1C 00 90 AD |  if_e	jmp	#LR__0107
019e0     30 E6 9F FE | 	loc	pa,	#(@LR__0105-@LR__0103)
019e4     35 00 A0 FD | 	call	#FCACHE_LOAD_
019e8                 | LR__0103
019e8     87 08 D8 FC | 	rep	@LR__0106, _var05
019ec                 | LR__0104
019ec     04 26 85 F1 | 	sub	arg01, #4
019f0     04 28 85 F1 | 	sub	arg02, #4
019f4     94 0A 01 FB | 	rdlong	_var03, arg02
019f8     93 0A 61 FC | 	wrlong	_var03, arg01
019fc                 | LR__0105
019fc                 | LR__0106
019fc                 | LR__0107
019fc                 | LR__0108
019fc     83 02 01 F6 | 	mov	result1, _var01
01a00                 | __system__longmove_ret
01a00     2D 00 64 FD | 	ret
01a04                 | 
01a04                 | __system___make_methodptr
01a04     04 88 04 F6 | 	mov	COUNT_, #4
01a08     4B 00 A0 FD | 	call	#pushregs_
01a0c     93 32 01 F6 | 	mov	local01, arg01
01a10     94 34 01 F6 | 	mov	local02, arg02
01a14     08 26 05 F6 | 	mov	arg01, #8
01a18     74 04 B0 FD | 	call	#__system___gc_alloc_managed
01a1c     81 36 09 F6 | 	mov	local03, result1 wz
01a20     10 00 90 AD |  if_e	jmp	#LR__0109
01a24     9B 32 61 FC | 	wrlong	local01, local03
01a28     9B 38 01 F6 | 	mov	local04, local03
01a2c     04 38 05 F1 | 	add	local04, #4
01a30     9C 34 61 FC | 	wrlong	local02, local04
01a34                 | LR__0109
01a34     9B 02 01 F6 | 	mov	result1, local03
01a38     46 F0 03 F6 | 	mov	ptra, fp
01a3c     5A 00 A0 FD | 	call	#popregs_
01a40                 | __system___make_methodptr_ret
01a40     2D 00 64 FD | 	ret
01a44                 | 
01a44                 | __system___tx
01a44     02 88 04 F6 | 	mov	COUNT_, #2
01a48     4B 00 A0 FD | 	call	#pushregs_
01a4c     93 32 01 F6 | 	mov	local01, arg01
01a50     0A 32 0D F2 | 	cmp	local01, #10 wz
01a54     20 00 90 5D |  if_ne	jmp	#LR__0110
01a58     08 F6 04 F1 | 	add	ptr___system__dat__, #8
01a5c     7B 34 01 FB | 	rdlong	local02, ptr___system__dat__
01a60     08 F6 84 F1 | 	sub	ptr___system__dat__, #8
01a64     02 34 CD F7 | 	test	local02, #2 wz
01a68     0C 00 90 AD |  if_e	jmp	#LR__0110
01a6c     0D 34 05 F6 | 	mov	local02, #13
01a70     0D 26 05 F6 | 	mov	arg01, #13
01a74     44 FE BF FD | 	call	#__system___txraw
01a78                 | LR__0110
01a78     99 26 01 F6 | 	mov	arg01, local01
01a7c     3C FE BF FD | 	call	#__system___txraw
01a80     46 F0 03 F6 | 	mov	ptra, fp
01a84     5A 00 A0 FD | 	call	#popregs_
01a88                 | __system___tx_ret
01a88     2D 00 64 FD | 	ret
01a8c                 | 
01a8c                 | __system___lockmem
01a8c     02 88 04 F6 | 	mov	COUNT_, #2
01a90     4B 00 A0 FD | 	call	#pushregs_
01a94     93 32 01 F6 | 	mov	local01, arg01
01a98     A4 E5 9F FE | 	loc	pa,	#(@LR__0113-@LR__0111)
01a9c     35 00 A0 FD | 	call	#FCACHE_LOAD_
01aa0                 | LR__0111
01aa0                 | LR__0112
01aa0     FF FF 7F FF 
01aa4     FD 27 05 FB | 	rdlong	arg01, ##-3
01aa8     06 26 71 FD | 	locktry	arg01 wc
01aac     FF FF 7F FF 
01ab0     FF 03 A5 F5 | 	muxnc	result1, ##-1
01ab4     00 02 0D F2 | 	cmp	result1, #0 wz
01ab8     E4 FF 9F 5D |  if_ne	jmp	#LR__0112
01abc     99 34 C9 FA | 	rdbyte	local02, local01 wz
01ac0     99 02 48 AC |  if_e	wrbyte	#1, local01
01ac4     FF FF 7F FF 
01ac8     FD 27 05 FB | 	rdlong	arg01, ##-3
01acc     07 26 71 FD | 	lockrel	arg01 wc
01ad0     FF FF 7F FF 
01ad4     FF 03 85 F5 | 	muxc	result1, ##-1
01ad8     00 34 0D F2 | 	cmp	local02, #0 wz
01adc     C0 FF 9F 5D |  if_ne	jmp	#LR__0111
01ae0                 | LR__0113
01ae0     46 F0 03 F6 | 	mov	ptra, fp
01ae4     5A 00 A0 FD | 	call	#popregs_
01ae8                 | __system___lockmem_ret
01ae8     2D 00 64 FD | 	ret
01aec                 | 
01aec                 | __system___waitms
01aec     02 88 04 F6 | 	mov	COUNT_, #2
01af0     4B 00 A0 FD | 	call	#pushregs_
01af4     93 32 01 F6 | 	mov	local01, arg01
01af8     14 34 05 FB | 	rdlong	local02, #20
01afc     18 E5 9F FE | 	loc	pa,	#(@LR__0115-@LR__0114)
01b00     35 00 A0 FD | 	call	#FCACHE_LOAD_
01b04                 | LR__0114
01b04     01 00 00 FF 
01b08     E8 33 5D F2 | 	cmps	local01, ##1000 wcz
01b0c     1F 34 61 1D |  if_a	waitx	local02
01b10     01 00 00 1F 
01b14     E8 33 85 11 |  if_a	sub	local01, ##1000
01b18     E8 FF 9F 1D |  if_a	jmp	#LR__0114
01b1c                 | LR__0115
01b1c     00 32 5D F2 | 	cmps	local01, #0 wcz
01b20     1C 00 90 ED |  if_be	jmp	#LR__0116
01b24     9A C8 01 F6 | 	mov	muldiva_, local02
01b28     01 00 00 FF 
01b2c     E8 CB 05 F6 | 	mov	muldivb_, ##1000
01b30     6B 00 A0 FD | 	call	#divide_
01b34     E5 32 01 FD | 	qmul	local01, muldivb_
01b38     18 26 61 FD | 	getqx	arg01
01b3c     1F 26 61 FD | 	waitx	arg01
01b40                 | LR__0116
01b40     46 F0 03 F6 | 	mov	ptra, fp
01b44     5A 00 A0 FD | 	call	#popregs_
01b48                 | __system___waitms_ret
01b48     2D 00 64 FD | 	ret
01b4c                 | 
01b4c                 | __system___waitus
01b4c     02 88 04 F6 | 	mov	COUNT_, #2
01b50     4B 00 A0 FD | 	call	#pushregs_
01b54     93 32 01 F6 | 	mov	local01, arg01
01b58     14 34 05 FB | 	rdlong	local02, #20
01b5c     B8 E4 9F FE | 	loc	pa,	#(@LR__0118-@LR__0117)
01b60     35 00 A0 FD | 	call	#FCACHE_LOAD_
01b64                 | LR__0117
01b64     A1 07 00 FF 
01b68     40 32 5D F2 | 	cmps	local01, ##1000000 wcz
01b6c     1F 34 61 1D |  if_a	waitx	local02
01b70     A1 07 00 1F 
01b74     40 32 85 11 |  if_a	sub	local01, ##1000000
01b78     E8 FF 9F 1D |  if_a	jmp	#LR__0117
01b7c                 | LR__0118
01b7c     00 32 5D F2 | 	cmps	local01, #0 wcz
01b80     1C 00 90 ED |  if_be	jmp	#LR__0119
01b84     9A C8 01 F6 | 	mov	muldiva_, local02
01b88     A1 07 00 FF 
01b8c     40 CA 05 F6 | 	mov	muldivb_, ##1000000
01b90     6B 00 A0 FD | 	call	#divide_
01b94     E5 32 01 FD | 	qmul	local01, muldivb_
01b98     18 26 61 FD | 	getqx	arg01
01b9c     1F 26 61 FD | 	waitx	arg01
01ba0                 | LR__0119
01ba0     46 F0 03 F6 | 	mov	ptra, fp
01ba4     5A 00 A0 FD | 	call	#popregs_
01ba8                 | __system___waitus_ret
01ba8     2D 00 64 FD | 	ret
01bac                 | 
01bac                 | __system___gc_ptrs
01bac     75 06 01 F6 | 	mov	_var01, __heap_ptr
01bb0     83 08 01 F6 | 	mov	_var02, _var01
01bb4     07 00 00 FF 
01bb8     F8 09 05 F1 | 	add	_var02, ##4088
01bbc     83 0A 09 FB | 	rdlong	_var03, _var01 wz
01bc0     74 00 90 5D |  if_ne	jmp	#LR__0120
01bc4     84 0C 01 F6 | 	mov	_var04, _var02
01bc8     83 0C 81 F1 | 	sub	_var04, _var01
01bcc     83 02 58 FC | 	wrword	#1, _var01
01bd0     83 0E 01 F6 | 	mov	_var05, _var01
01bd4     02 0E 05 F1 | 	add	_var05, #2
01bd8     36 00 80 FF 
01bdc     87 20 59 FC | 	wrword	##27792, _var05
01be0     83 10 01 F6 | 	mov	_var06, _var01
01be4     04 10 05 F1 | 	add	_var06, #4
01be8     88 00 58 FC | 	wrword	#0, _var06
01bec     83 12 01 F6 | 	mov	_var07, _var01
01bf0     06 12 05 F1 | 	add	_var07, #6
01bf4     89 02 58 FC | 	wrword	#1, _var07
01bf8     10 06 05 F1 | 	add	_var01, #16
01bfc     86 0A 51 F6 | 	abs	_var03, _var04 wc
01c00     04 0A 45 F0 | 	shr	_var03, #4
01c04     85 0A 61 C6 |  if_b	neg	_var03, _var03
01c08     83 0A 51 FC | 	wrword	_var03, _var01
01c0c     83 14 01 F6 | 	mov	_var08, _var01
01c10     02 14 05 F1 | 	add	_var08, #2
01c14     36 00 80 FF 
01c18     8A 1E 59 FC | 	wrword	##27791, _var08
01c1c     83 16 01 F6 | 	mov	_var09, _var01
01c20     04 16 05 F1 | 	add	_var09, #4
01c24     8B 00 58 FC | 	wrword	#0, _var09
01c28     83 18 01 F6 | 	mov	_var10, _var01
01c2c     06 18 05 F1 | 	add	_var10, #6
01c30     8C 00 58 FC | 	wrword	#0, _var10
01c34     10 06 85 F1 | 	sub	_var01, #16
01c38                 | LR__0120
01c38     84 04 01 F6 | 	mov	result2, _var02
01c3c     83 02 01 F6 | 	mov	result1, _var01
01c40                 | __system___gc_ptrs_ret
01c40     2D 00 64 FD | 	ret
01c44                 | 
01c44                 | __system___gc_nextBlockPtr
01c44     02 88 04 F6 | 	mov	COUNT_, #2
01c48     4B 00 A0 FD | 	call	#pushregs_
01c4c     93 32 01 F6 | 	mov	local01, arg01
01c50     99 34 E9 FA | 	rdword	local02, local01 wz
01c54     10 00 90 5D |  if_ne	jmp	#LR__0121
01c58     12 00 00 FF 
01c5c     70 26 05 F6 | 	mov	arg01, ##@LR__0164
01c60     F8 01 B0 FD | 	call	#__system___gc_errmsg
01c64     0C 00 90 FD | 	jmp	#LR__0122
01c68                 | LR__0121
01c68     04 34 65 F0 | 	shl	local02, #4
01c6c     99 02 01 F6 | 	mov	result1, local01
01c70     9A 02 01 F1 | 	add	result1, local02
01c74                 | LR__0122
01c74     46 F0 03 F6 | 	mov	ptra, fp
01c78     5A 00 A0 FD | 	call	#popregs_
01c7c                 | __system___gc_nextBlockPtr_ret
01c7c     2D 00 64 FD | 	ret
01c80                 | 
01c80                 | __system___gc_tryalloc
01c80     1B 88 04 F6 | 	mov	COUNT_, #27
01c84     4B 00 A0 FD | 	call	#pushregs_
01c88     93 32 01 F6 | 	mov	local01, arg01
01c8c     94 34 01 F6 | 	mov	local02, arg02
01c90     18 FF BF FD | 	call	#__system___gc_ptrs
01c94     81 36 01 F6 | 	mov	local03, result1
01c98     82 38 01 F6 | 	mov	local04, result2
01c9c     9B 3A 01 F6 | 	mov	local05, local03
01ca0     00 3C 05 F6 | 	mov	local06, #0
01ca4     B0 E3 9F FE | 	loc	pa,	#(@LR__0124-@LR__0123)
01ca8     35 00 A0 FD | 	call	#FCACHE_LOAD_
01cac                 | LR__0123
01cac     9D 3E 01 F6 | 	mov	local07, local05
01cb0     06 3A 05 F1 | 	add	local05, #6
01cb4     9D 40 01 F6 | 	mov	local08, local05
01cb8     9B 42 01 F6 | 	mov	local09, local03
01cbc     A0 44 E1 FA | 	rdword	local10, local08
01cc0     A1 26 01 F6 | 	mov	arg01, local09
01cc4     A2 28 09 F6 | 	mov	arg02, local10 wz
01cc8     00 02 05 A6 |  if_e	mov	result1, #0
01ccc     04 28 65 50 |  if_ne	shl	arg02, #4
01cd0     94 26 01 51 |  if_ne	add	arg01, arg02
01cd4     93 02 01 56 |  if_ne	mov	result1, arg01
01cd8     81 46 01 F6 | 	mov	local11, result1
01cdc     A3 3A 09 F6 | 	mov	local05, local11 wz
01ce0     9D 42 01 56 |  if_ne	mov	local09, local05
01ce4     A1 48 01 56 |  if_ne	mov	local12, local09
01ce8     A4 3C E1 5A |  if_ne	rdword	local06, local12
01cec     00 3A 0D F2 | 	cmp	local05, #0 wz
01cf0     10 00 90 AD |  if_e	jmp	#LR__0125
01cf4     9C 3A 59 F2 | 	cmps	local05, local04 wcz
01cf8     08 00 90 3D |  if_ae	jmp	#LR__0125
01cfc     9E 32 59 F2 | 	cmps	local01, local06 wcz
01d00     A8 FF 9F 1D |  if_a	jmp	#LR__0123
01d04                 | LR__0124
01d04                 | LR__0125
01d04     00 3A 0D F2 | 	cmp	local05, #0 wz
01d08     9D 02 01 A6 |  if_e	mov	result1, local05
01d0c     40 01 90 AD |  if_e	jmp	#LR__0128
01d10     9D 4A 01 F6 | 	mov	local13, local05
01d14     06 4A 05 F1 | 	add	local13, #6
01d18     A5 4C E1 FA | 	rdword	local14, local13
01d1c     9E 32 59 F2 | 	cmps	local01, local06 wcz
01d20     CC 00 90 3D |  if_ae	jmp	#LR__0127
01d24     9D 4E 01 F6 | 	mov	local15, local05
01d28     A7 32 51 FC | 	wrword	local01, local15
01d2c     99 50 01 F6 | 	mov	local16, local01
01d30     04 50 65 F0 | 	shl	local16, #4
01d34     9D 52 01 F6 | 	mov	local17, local05
01d38     A8 52 01 F1 | 	add	local17, local16
01d3c     9E 54 01 F6 | 	mov	local18, local06
01d40     99 54 81 F1 | 	sub	local18, local01
01d44     A9 56 01 F6 | 	mov	local19, local17
01d48     AB 54 51 FC | 	wrword	local18, local19
01d4c     A9 58 01 F6 | 	mov	local20, local17
01d50     02 58 05 F1 | 	add	local20, #2
01d54     36 00 80 FF 
01d58     AC 1E 59 FC | 	wrword	##27791, local20
01d5c     A9 5A 01 F6 | 	mov	local21, local17
01d60     04 5A 05 F1 | 	add	local21, #4
01d64     9D 28 09 F6 | 	mov	arg02, local05 wz
01d68     00 02 05 A6 |  if_e	mov	result1, #0
01d6c     9B 28 81 51 |  if_ne	sub	arg02, local03
01d70     04 28 45 50 |  if_ne	shr	arg02, #4
01d74     94 02 01 56 |  if_ne	mov	result1, arg02
01d78     AD 02 51 FC | 	wrword	result1, local21
01d7c     A9 5C 01 F6 | 	mov	local22, local17
01d80     A5 42 E1 FA | 	rdword	local09, local13
01d84     06 5C 05 F1 | 	add	local22, #6
01d88     AE 42 51 FC | 	wrword	local09, local22
01d8c     A9 5E 01 F6 | 	mov	local23, local17
01d90     AF 28 09 F6 | 	mov	arg02, local23 wz
01d94     00 02 05 A6 |  if_e	mov	result1, #0
01d98     9B 28 81 51 |  if_ne	sub	arg02, local03
01d9c     04 28 45 50 |  if_ne	shr	arg02, #4
01da0     94 02 01 56 |  if_ne	mov	result1, arg02
01da4     81 4C 01 F6 | 	mov	local14, result1
01da8     A9 26 01 F6 | 	mov	arg01, local17
01dac     94 FE BF FD | 	call	#__system___gc_nextBlockPtr
01db0     81 60 09 F6 | 	mov	local24, result1 wz
01db4     38 00 90 AD |  if_e	jmp	#LR__0126
01db8     9C 60 59 F2 | 	cmps	local24, local04 wcz
01dbc     30 00 90 3D |  if_ae	jmp	#LR__0126
01dc0     B0 62 01 F6 | 	mov	local25, local24
01dc4     04 62 05 F1 | 	add	local25, #4
01dc8     9B 42 01 F6 | 	mov	local09, local03
01dcc     AF 44 01 F6 | 	mov	local10, local23
01dd0     A1 26 01 F6 | 	mov	arg01, local09
01dd4     A2 28 09 F6 | 	mov	arg02, local10 wz
01dd8     00 02 05 A6 |  if_e	mov	result1, #0
01ddc     93 28 81 51 |  if_ne	sub	arg02, arg01
01de0     04 28 45 50 |  if_ne	shr	arg02, #4
01de4     94 02 01 56 |  if_ne	mov	result1, arg02
01de8     81 46 01 F6 | 	mov	local11, result1
01dec     B1 46 51 FC | 	wrword	local11, local25
01df0                 | LR__0126
01df0                 | LR__0127
01df0     06 3E 05 F1 | 	add	local07, #6
01df4     9F 4C 51 FC | 	wrword	local14, local07
01df8     36 00 00 FF 
01dfc     80 42 05 F6 | 	mov	local09, ##27776
01e00     9A 42 41 F5 | 	or	local09, local02
01e04     9D 64 01 F6 | 	mov	local26, local05
01e08     02 64 05 F1 | 	add	local26, #2
01e0c     01 02 61 FD | 	cogid	result1
01e10     81 42 41 F5 | 	or	local09, result1
01e14     B2 42 51 FC | 	wrword	local09, local26
01e18     9B 66 01 F6 | 	mov	local27, local03
01e1c     08 66 05 F1 | 	add	local27, #8
01e20     B3 42 E1 FA | 	rdword	local09, local27
01e24     A5 42 51 FC | 	wrword	local09, local13
01e28     9D 28 09 F6 | 	mov	arg02, local05 wz
01e2c     00 02 05 A6 |  if_e	mov	result1, #0
01e30     9B 28 81 51 |  if_ne	sub	arg02, local03
01e34     04 28 45 50 |  if_ne	shr	arg02, #4
01e38     94 02 01 56 |  if_ne	mov	result1, arg02
01e3c     B3 02 51 FC | 	wrword	result1, local27
01e40     08 3A 05 F1 | 	add	local05, #8
01e44     9D 02 01 F6 | 	mov	result1, local05
01e48     00 C0 31 FF 
01e4c     00 02 45 F5 | 	or	result1, ##1669332992
01e50                 | LR__0128
01e50     46 F0 03 F6 | 	mov	ptra, fp
01e54     5A 00 A0 FD | 	call	#popregs_
01e58                 | __system___gc_tryalloc_ret
01e58     2D 00 64 FD | 	ret
01e5c                 | 
01e5c                 | __system___gc_errmsg
01e5c     02 88 04 F6 | 	mov	COUNT_, #2
01e60     4B 00 A0 FD | 	call	#pushregs_
01e64     93 32 01 F6 | 	mov	local01, arg01
01e68                 | LR__0129
01e68     99 34 C9 FA | 	rdbyte	local02, local01 wz
01e6c     01 32 05 F1 | 	add	local01, #1
01e70     0C 00 90 AD |  if_e	jmp	#LR__0130
01e74     9A 26 01 F6 | 	mov	arg01, local02
01e78     C8 FB BF FD | 	call	#__system___tx
01e7c     E8 FF 9F FD | 	jmp	#LR__0129
01e80                 | LR__0130
01e80     00 02 05 F6 | 	mov	result1, #0
01e84     46 F0 03 F6 | 	mov	ptra, fp
01e88     5A 00 A0 FD | 	call	#popregs_
01e8c                 | __system___gc_errmsg_ret
01e8c     2D 00 64 FD | 	ret
01e90                 | 
01e90                 | __system___gc_alloc_managed
01e90     02 88 04 F6 | 	mov	COUNT_, #2
01e94     4B 00 A0 FD | 	call	#pushregs_
01e98     93 32 01 F6 | 	mov	local01, arg01
01e9c     00 28 05 F6 | 	mov	arg02, #0
01ea0     30 00 B0 FD | 	call	#__system___gc_doalloc
01ea4     81 34 09 F6 | 	mov	local02, result1 wz
01ea8     18 00 90 5D |  if_ne	jmp	#LR__0131
01eac     00 32 5D F2 | 	cmps	local01, #0 wcz
01eb0     10 00 90 ED |  if_be	jmp	#LR__0131
01eb4     12 00 00 FF 
01eb8     8C 26 05 F6 | 	mov	arg01, ##@LR__0165
01ebc     9C FF BF FD | 	call	#__system___gc_errmsg
01ec0     04 00 90 FD | 	jmp	#LR__0132
01ec4                 | LR__0131
01ec4     9A 02 01 F6 | 	mov	result1, local02
01ec8                 | LR__0132
01ec8     46 F0 03 F6 | 	mov	ptra, fp
01ecc     5A 00 A0 FD | 	call	#popregs_
01ed0                 | __system___gc_alloc_managed_ret
01ed0     2D 00 64 FD | 	ret
01ed4                 | 
01ed4                 | __system___gc_doalloc
01ed4     07 88 04 F6 | 	mov	COUNT_, #7
01ed8     4B 00 A0 FD | 	call	#pushregs_
01edc     93 32 09 F6 | 	mov	local01, arg01 wz
01ee0     94 34 01 F6 | 	mov	local02, arg02
01ee4     00 02 05 A6 |  if_e	mov	result1, #0
01ee8     8C 00 90 AD |  if_e	jmp	#LR__0140
01eec     17 32 05 F1 | 	add	local01, #23
01ef0     0F 32 25 F5 | 	andn	local01, #15
01ef4     04 32 45 F0 | 	shr	local01, #4
01ef8     0C F6 04 F1 | 	add	ptr___system__dat__, #12
01efc     7B 36 01 F6 | 	mov	local03, ptr___system__dat__
01f00     9B 26 01 F6 | 	mov	arg01, local03
01f04     0C F6 84 F1 | 	sub	ptr___system__dat__, #12
01f08     80 FB BF FD | 	call	#__system___lockmem
01f0c     99 26 01 F6 | 	mov	arg01, local01
01f10     9A 28 01 F6 | 	mov	arg02, local02
01f14     68 FD BF FD | 	call	#__system___gc_tryalloc
01f18     81 38 09 F6 | 	mov	local04, result1 wz
01f1c     14 00 90 5D |  if_ne	jmp	#LR__0133
01f20     38 03 B0 FD | 	call	#__system___gc_docollect
01f24     99 26 01 F6 | 	mov	arg01, local01
01f28     9A 28 01 F6 | 	mov	arg02, local02
01f2c     50 FD BF FD | 	call	#__system___gc_tryalloc
01f30     81 38 01 F6 | 	mov	local04, result1
01f34                 | LR__0133
01f34     9B 00 48 FC | 	wrbyte	#0, local03
01f38     00 38 0D F2 | 	cmp	local04, #0 wz
01f3c     34 00 90 AD |  if_e	jmp	#LR__0139
01f40     04 32 65 F0 | 	shl	local01, #4
01f44     08 32 85 F1 | 	sub	local01, #8
01f48     99 3A 51 F6 | 	abs	local05, local01 wc
01f4c     02 3A 45 F0 | 	shr	local05, #2
01f50     9D 3A 61 C6 |  if_b	neg	local05, local05
01f54     9D 3C 09 F6 | 	mov	local06, local05 wz
01f58     9C 3E 01 F6 | 	mov	local07, local04
01f5c     14 00 90 AD |  if_e	jmp	#LR__0138
01f60     A8 E0 9F FE | 	loc	pa,	#(@LR__0136-@LR__0134)
01f64     35 00 A0 FD | 	call	#FCACHE_LOAD_
01f68                 | LR__0134
01f68     9E 04 D8 FC | 	rep	@LR__0137, local06
01f6c                 | LR__0135
01f6c     9F 00 68 FC | 	wrlong	#0, local07
01f70     04 3E 05 F1 | 	add	local07, #4
01f74                 | LR__0136
01f74                 | LR__0137
01f74                 | LR__0138
01f74                 | LR__0139
01f74     9C 02 01 F6 | 	mov	result1, local04
01f78                 | LR__0140
01f78     46 F0 03 F6 | 	mov	ptra, fp
01f7c     5A 00 A0 FD | 	call	#popregs_
01f80                 | __system___gc_doalloc_ret
01f80     2D 00 64 FD | 	ret
01f84                 | 
01f84                 | __system___gc_isvalidptr
01f84     95 06 01 F6 | 	mov	_var01, arg03
01f88     83 08 01 F6 | 	mov	_var02, _var01
01f8c     00 F8 7F FF 
01f90     00 08 05 F5 | 	and	_var02, ##-1048576
01f94     00 C0 31 FF 
01f98     00 08 0D F2 | 	cmp	_var02, ##1669332992 wz
01f9c     00 02 05 56 |  if_ne	mov	result1, #0
01fa0     60 00 90 5D |  if_ne	jmp	#__system___gc_isvalidptr_ret
01fa4     08 06 85 F1 | 	sub	_var01, #8
01fa8     83 0A 01 F6 | 	mov	_var03, _var01
01fac     00 F8 7F FF 
01fb0     00 0A 25 F5 | 	andn	_var03, ##-1048576
01fb4     93 0A 59 F2 | 	cmps	_var03, arg01 wcz
01fb8     08 00 90 CD |  if_b	jmp	#LR__0141
01fbc     94 0A 59 F2 | 	cmps	_var03, arg02 wcz
01fc0     08 00 90 CD |  if_b	jmp	#LR__0142
01fc4                 | LR__0141
01fc4     00 02 05 F6 | 	mov	result1, #0
01fc8     38 00 90 FD | 	jmp	#__system___gc_isvalidptr_ret
01fcc                 | LR__0142
01fcc     85 08 01 F6 | 	mov	_var02, _var03
01fd0     93 08 61 F5 | 	xor	_var02, arg01
01fd4     0F 08 0D F5 | 	and	_var02, #15 wz
01fd8     00 02 05 56 |  if_ne	mov	result1, #0
01fdc     24 00 90 5D |  if_ne	jmp	#__system___gc_isvalidptr_ret
01fe0     85 0C 01 F6 | 	mov	_var04, _var03
01fe4     02 0C 05 F1 | 	add	_var04, #2
01fe8     86 08 E1 FA | 	rdword	_var02, _var04
01fec     7F 00 00 FF 
01ff0     C0 09 05 F5 | 	and	_var02, ##65472
01ff4     36 00 00 FF 
01ff8     80 08 0D F2 | 	cmp	_var02, ##27776 wz
01ffc     00 02 05 56 |  if_ne	mov	result1, #0
02000     85 02 01 A6 |  if_e	mov	result1, _var03
02004                 | __system___gc_isvalidptr_ret
02004     2D 00 64 FD | 	ret
02008                 | 
02008                 | __system___gc_dofree
02008     1A 88 04 F6 | 	mov	COUNT_, #26
0200c     4B 00 A0 FD | 	call	#pushregs_
02010     93 32 01 F6 | 	mov	local01, arg01
02014     94 FB BF FD | 	call	#__system___gc_ptrs
02018     82 34 01 F6 | 	mov	local02, result2
0201c     81 36 01 F6 | 	mov	local03, result1
02020     99 38 01 F6 | 	mov	local04, local01
02024     02 38 05 F1 | 	add	local04, #2
02028     36 00 80 FF 
0202c     9C 1E 59 FC | 	wrword	##27791, local04
02030     99 3A 01 F6 | 	mov	local05, local01
02034     99 26 01 F6 | 	mov	arg01, local01
02038     08 FC BF FD | 	call	#__system___gc_nextBlockPtr
0203c     81 3C 01 F6 | 	mov	local06, result1
02040     0C E0 9F FE | 	loc	pa,	#(@LR__0144-@LR__0143)
02044     35 00 A0 FD | 	call	#FCACHE_LOAD_
02048                 | LR__0143
02048     04 3A 05 F1 | 	add	local05, #4
0204c     9D 3E 01 F6 | 	mov	local07, local05
02050     9F 28 E9 FA | 	rdword	arg02, local07 wz
02054     9B 26 01 F6 | 	mov	arg01, local03
02058     00 02 05 A6 |  if_e	mov	result1, #0
0205c     04 28 65 50 |  if_ne	shl	arg02, #4
02060     94 26 01 51 |  if_ne	add	arg01, arg02
02064     93 02 01 56 |  if_ne	mov	result1, arg01
02068     81 3A 09 F6 | 	mov	local05, result1 wz
0206c     28 00 90 AD |  if_e	jmp	#LR__0145
02070     9D 26 01 F6 | 	mov	arg01, local05
02074     00 40 05 F6 | 	mov	local08, #0
02078     02 26 05 F1 | 	add	arg01, #2
0207c     93 42 E1 FA | 	rdword	local09, arg01
02080     36 00 00 FF 
02084     8F 42 0D F2 | 	cmp	local09, ##27791 wz
02088     01 40 65 A6 |  if_e	neg	local08, #1
0208c     A0 02 01 F6 | 	mov	result1, local08
02090     81 44 09 F6 | 	mov	local10, result1 wz
02094     B0 FF 9F AD |  if_e	jmp	#LR__0143
02098                 | LR__0144
02098                 | LR__0145
02098     00 3A 0D F2 | 	cmp	local05, #0 wz
0209c     9B 3A 01 A6 |  if_e	mov	local05, local03
020a0     9D 46 01 F6 | 	mov	local11, local05
020a4     06 46 05 F1 | 	add	local11, #6
020a8     99 48 01 F6 | 	mov	local12, local01
020ac     A3 4A E1 FA | 	rdword	local13, local11
020b0     06 48 05 F1 | 	add	local12, #6
020b4     A4 4A 51 FC | 	wrword	local13, local12
020b8     99 28 09 F6 | 	mov	arg02, local01 wz
020bc     00 02 05 A6 |  if_e	mov	result1, #0
020c0     9B 28 81 51 |  if_ne	sub	arg02, local03
020c4     04 28 45 50 |  if_ne	shr	arg02, #4
020c8     94 02 01 56 |  if_ne	mov	result1, arg02
020cc     81 4C 01 F6 | 	mov	local14, result1
020d0     A3 4C 51 FC | 	wrword	local14, local11
020d4     9B 3A 09 F2 | 	cmp	local05, local03 wz
020d8     74 00 90 AD |  if_e	jmp	#LR__0148
020dc     9D 26 01 F6 | 	mov	arg01, local05
020e0     60 FB BF FD | 	call	#__system___gc_nextBlockPtr
020e4     99 02 09 F2 | 	cmp	result1, local01 wz
020e8     64 00 90 5D |  if_ne	jmp	#LR__0147
020ec     9D 4E 01 F6 | 	mov	local15, local05
020f0     A7 50 E1 FA | 	rdword	local16, local15
020f4     99 52 01 F6 | 	mov	local17, local01
020f8     A9 44 E1 FA | 	rdword	local10, local17
020fc     A2 50 01 F1 | 	add	local16, local10
02100     A7 50 51 FC | 	wrword	local16, local15
02104     9C 00 58 FC | 	wrword	#0, local04
02108     99 26 01 F6 | 	mov	arg01, local01
0210c     34 FB BF FD | 	call	#__system___gc_nextBlockPtr
02110     81 3C 01 F6 | 	mov	local06, result1
02114     9A 3C 59 F2 | 	cmps	local06, local02 wcz
02118     24 00 90 3D |  if_ae	jmp	#LR__0146
0211c     9E 54 01 F6 | 	mov	local18, local06
02120     04 54 05 F1 | 	add	local18, #4
02124     9D 28 09 F6 | 	mov	arg02, local05 wz
02128     00 02 05 A6 |  if_e	mov	result1, #0
0212c     9B 28 81 51 |  if_ne	sub	arg02, local03
02130     04 28 45 50 |  if_ne	shr	arg02, #4
02134     94 02 01 56 |  if_ne	mov	result1, arg02
02138     81 4C 01 F6 | 	mov	local14, result1
0213c     AA 4C 51 FC | 	wrword	local14, local18
02140                 | LR__0146
02140     A4 4A E1 FA | 	rdword	local13, local12
02144     A3 4A 51 FC | 	wrword	local13, local11
02148     A4 00 58 FC | 	wrword	#0, local12
0214c     9D 32 01 F6 | 	mov	local01, local05
02150                 | LR__0147
02150                 | LR__0148
02150     99 26 01 F6 | 	mov	arg01, local01
02154     EC FA BF FD | 	call	#__system___gc_nextBlockPtr
02158     81 56 09 F6 | 	mov	local19, result1 wz
0215c     C4 00 90 AD |  if_e	jmp	#LR__0150
02160     9A 56 59 F2 | 	cmps	local19, local02 wcz
02164     BC 00 90 3D |  if_ae	jmp	#LR__0150
02168     AB 26 01 F6 | 	mov	arg01, local19
0216c     00 40 05 F6 | 	mov	local08, #0
02170     02 26 05 F1 | 	add	arg01, #2
02174     93 42 E1 FA | 	rdword	local09, arg01
02178     36 00 00 FF 
0217c     8F 42 0D F2 | 	cmp	local09, ##27791 wz
02180     01 40 65 A6 |  if_e	neg	local08, #1
02184     A0 02 09 F6 | 	mov	result1, local08 wz
02188     98 00 90 AD |  if_e	jmp	#LR__0150
0218c     99 3A 01 F6 | 	mov	local05, local01
02190     AB 32 01 F6 | 	mov	local01, local19
02194     9D 58 01 F6 | 	mov	local20, local05
02198     AC 5A E1 FA | 	rdword	local21, local20
0219c     99 5C 01 F6 | 	mov	local22, local01
021a0     AE 44 E1 FA | 	rdword	local10, local22
021a4     A2 5A 01 F1 | 	add	local21, local10
021a8     AC 5A 51 FC | 	wrword	local21, local20
021ac     99 5E 01 F6 | 	mov	local23, local01
021b0     06 5E 05 F1 | 	add	local23, #6
021b4     9D 60 01 F6 | 	mov	local24, local05
021b8     AF 4A E1 FA | 	rdword	local13, local23
021bc     06 60 05 F1 | 	add	local24, #6
021c0     B0 4A 51 FC | 	wrword	local13, local24
021c4     99 62 01 F6 | 	mov	local25, local01
021c8     02 62 05 F1 | 	add	local25, #2
021cc     B1 54 59 FC | 	wrword	#170, local25
021d0     AF 00 58 FC | 	wrword	#0, local23
021d4     99 4A 01 F6 | 	mov	local13, local01
021d8     A5 26 01 F6 | 	mov	arg01, local13
021dc     64 FA BF FD | 	call	#__system___gc_nextBlockPtr
021e0     81 44 01 F6 | 	mov	local10, result1
021e4     A2 3C 09 F6 | 	mov	local06, local10 wz
021e8     38 00 90 AD |  if_e	jmp	#LR__0149
021ec     9A 3C 59 F2 | 	cmps	local06, local02 wcz
021f0     30 00 90 3D |  if_ae	jmp	#LR__0149
021f4     9E 64 01 F6 | 	mov	local26, local06
021f8     04 64 05 F1 | 	add	local26, #4
021fc     9B 4A 01 F6 | 	mov	local13, local03
02200     9D 44 01 F6 | 	mov	local10, local05
02204     A5 26 01 F6 | 	mov	arg01, local13
02208     A2 28 09 F6 | 	mov	arg02, local10 wz
0220c     00 02 05 A6 |  if_e	mov	result1, #0
02210     93 28 81 51 |  if_ne	sub	arg02, arg01
02214     04 28 45 50 |  if_ne	shr	arg02, #4
02218     94 02 01 56 |  if_ne	mov	result1, arg02
0221c     81 4C 01 F6 | 	mov	local14, result1
02220     B2 4C 51 FC | 	wrword	local14, local26
02224                 | LR__0149
02224                 | LR__0150
02224     9E 02 01 F6 | 	mov	result1, local06
02228     46 F0 03 F6 | 	mov	ptra, fp
0222c     5A 00 A0 FD | 	call	#popregs_
02230                 | __system___gc_dofree_ret
02230     2D 00 64 FD | 	ret
02234                 | 
02234                 | __system____topofstack
02234     00 88 04 F6 | 	mov	COUNT_, #0
02238     4B 00 A0 FD | 	call	#pushregs_
0223c     0C F0 07 F1 | 	add	ptra, #12
02240     04 8C 04 F1 | 	add	fp, #4
02244     46 26 61 FC | 	wrlong	arg01, fp
02248     46 02 01 F6 | 	mov	result1, fp
0224c     04 8C 84 F1 | 	sub	fp, #4
02250     46 F0 03 F6 | 	mov	ptra, fp
02254     5A 00 A0 FD | 	call	#popregs_
02258                 | __system____topofstack_ret
02258     2D 00 64 FD | 	ret
0225c                 | 
0225c                 | __system___gc_docollect
0225c     0C 88 04 F6 | 	mov	COUNT_, #12
02260     4B 00 A0 FD | 	call	#pushregs_
02264     44 F9 BF FD | 	call	#__system___gc_ptrs
02268     82 32 01 F6 | 	mov	local01, result2
0226c     81 34 01 F6 | 	mov	local02, result1
02270     9A 26 01 F6 | 	mov	arg01, local02
02274     CC F9 BF FD | 	call	#__system___gc_nextBlockPtr
02278     81 36 09 F6 | 	mov	local03, result1 wz
0227c     01 02 61 FD | 	cogid	result1
02280     81 38 01 F6 | 	mov	local04, result1
02284     2C 00 90 AD |  if_e	jmp	#LR__0152
02288                 | LR__0151
02288     99 36 59 F2 | 	cmps	local03, local01 wcz
0228c     24 00 90 3D |  if_ae	jmp	#LR__0152
02290     9B 3A 01 F6 | 	mov	local05, local03
02294     02 3A 05 F1 | 	add	local05, #2
02298     9D 3C E1 FA | 	rdword	local06, local05
0229c     20 3C 25 F5 | 	andn	local06, #32
022a0     9D 3C 51 FC | 	wrword	local06, local05
022a4     9B 26 01 F6 | 	mov	arg01, local03
022a8     98 F9 BF FD | 	call	#__system___gc_nextBlockPtr
022ac     81 36 09 F6 | 	mov	local03, result1 wz
022b0     D4 FF 9F 5D |  if_ne	jmp	#LR__0151
022b4                 | LR__0152
022b4     00 3E 05 F6 | 	mov	local07, #0
022b8     00 26 05 F6 | 	mov	arg01, #0
022bc     74 FF BF FD | 	call	#__system____topofstack
022c0     81 40 01 F6 | 	mov	local08, result1
022c4     9F 26 01 F6 | 	mov	arg01, local07
022c8     A0 28 01 F6 | 	mov	arg02, local08
022cc     A0 00 B0 FD | 	call	#__system___gc_markhub
022d0     2C 01 B0 FD | 	call	#__system___gc_markcog
022d4     9A 26 01 F6 | 	mov	arg01, local02
022d8     68 F9 BF FD | 	call	#__system___gc_nextBlockPtr
022dc     81 42 09 F6 | 	mov	local09, result1 wz
022e0     10 00 90 5D |  if_ne	jmp	#LR__0153
022e4     12 00 00 FF 
022e8     A9 26 05 F6 | 	mov	arg01, ##@LR__0166
022ec     6C FB BF FD | 	call	#__system___gc_errmsg
022f0     70 00 90 FD | 	jmp	#LR__0159
022f4                 | LR__0153
022f4                 | LR__0154
022f4     A1 36 01 F6 | 	mov	local03, local09
022f8     9B 26 01 F6 | 	mov	arg01, local03
022fc     44 F9 BF FD | 	call	#__system___gc_nextBlockPtr
02300     81 42 01 F6 | 	mov	local09, result1
02304     9B 44 01 F6 | 	mov	local10, local03
02308     02 44 05 F1 | 	add	local10, #2
0230c     A2 46 E1 FA | 	rdword	local11, local10
02310     20 46 CD F7 | 	test	local11, #32 wz
02314     3C 00 90 5D |  if_ne	jmp	#LR__0157
02318     A3 48 01 F6 | 	mov	local12, local11
0231c     10 48 0D F5 | 	and	local12, #16 wz
02320     30 00 90 5D |  if_ne	jmp	#LR__0157
02324     A3 3E 01 F6 | 	mov	local07, local11
02328     0F 3E 05 F5 | 	and	local07, #15
0232c     9F 46 01 F6 | 	mov	local11, local07
02330     9C 46 09 F2 | 	cmp	local11, local04 wz
02334     08 00 90 AD |  if_e	jmp	#LR__0155
02338     0E 46 0D F2 | 	cmp	local11, #14 wz
0233c     14 00 90 5D |  if_ne	jmp	#LR__0156
02340                 | LR__0155
02340     9B 3E 01 F6 | 	mov	local07, local03
02344     9F 26 01 F6 | 	mov	arg01, local07
02348     BC FC BF FD | 	call	#__system___gc_dofree
0234c     81 48 01 F6 | 	mov	local12, result1
02350     A4 42 01 F6 | 	mov	local09, local12
02354                 | LR__0156
02354                 | LR__0157
02354     00 42 0D F2 | 	cmp	local09, #0 wz
02358     08 00 90 AD |  if_e	jmp	#LR__0158
0235c     99 42 59 F2 | 	cmps	local09, local01 wcz
02360     90 FF 9F CD |  if_b	jmp	#LR__0154
02364                 | LR__0158
02364                 | LR__0159
02364     46 F0 03 F6 | 	mov	ptra, fp
02368     5A 00 A0 FD | 	call	#popregs_
0236c                 | __system___gc_docollect_ret
0236c     2D 00 64 FD | 	ret
02370                 | 
02370                 | __system___gc_markhub
02370     0A 88 04 F6 | 	mov	COUNT_, #10
02374     4B 00 A0 FD | 	call	#pushregs_
02378     93 32 01 F6 | 	mov	local01, arg01
0237c     94 34 01 F6 | 	mov	local02, arg02
02380     28 F8 BF FD | 	call	#__system___gc_ptrs
02384     81 36 01 F6 | 	mov	local03, result1
02388     82 38 01 F6 | 	mov	local04, result2
0238c                 | LR__0160
0238c     9A 32 59 F2 | 	cmps	local01, local02 wcz
02390     60 00 90 3D |  if_ae	jmp	#LR__0161
02394     99 2A 01 FB | 	rdlong	arg03, local01
02398     04 32 05 F1 | 	add	local01, #4
0239c     9B 26 01 F6 | 	mov	arg01, local03
023a0     9C 28 01 F6 | 	mov	arg02, local04
023a4     DC FB BF FD | 	call	#__system___gc_isvalidptr
023a8     81 3A 09 F6 | 	mov	local05, result1 wz
023ac     DC FF 9F AD |  if_e	jmp	#LR__0160
023b0     9D 26 01 F6 | 	mov	arg01, local05
023b4     00 3C 05 F6 | 	mov	local06, #0
023b8     02 26 05 F1 | 	add	arg01, #2
023bc     93 3E E1 FA | 	rdword	local07, arg01
023c0     36 00 00 FF 
023c4     8F 3E 0D F2 | 	cmp	local07, ##27791 wz
023c8     01 3C 65 A6 |  if_e	neg	local06, #1
023cc     9E 02 01 F6 | 	mov	result1, local06
023d0     81 40 09 F6 | 	mov	local08, result1 wz
023d4     B4 FF 9F 5D |  if_ne	jmp	#LR__0160
023d8     9D 42 01 F6 | 	mov	local09, local05
023dc     02 42 05 F1 | 	add	local09, #2
023e0     A1 44 E1 FA | 	rdword	local10, local09
023e4     0F 44 25 F5 | 	andn	local10, #15
023e8     2E 44 45 F5 | 	or	local10, #46
023ec     A1 44 51 FC | 	wrword	local10, local09
023f0     98 FF 9F FD | 	jmp	#LR__0160
023f4                 | LR__0161
023f4     46 F0 03 F6 | 	mov	ptra, fp
023f8     5A 00 A0 FD | 	call	#popregs_
023fc                 | __system___gc_markhub_ret
023fc     2D 00 64 FD | 	ret
02400                 | 
02400                 | __system___gc_markcog
02400     07 88 04 F6 | 	mov	COUNT_, #7
02404     4B 00 A0 FD | 	call	#pushregs_
02408     A0 F7 BF FD | 	call	#__system___gc_ptrs
0240c     81 32 01 F6 | 	mov	local01, result1
02410     82 34 01 F6 | 	mov	local02, result2
02414     00 36 05 F6 | 	mov	local03, #0
02418                 | LR__0162
02418     F0 39 05 F6 | 	mov	local04, #496
0241c     9B 38 81 F1 | 	sub	local04, local03
02420     F0 3B 05 F6 | 	mov	local05, #496
02424     9C 3A 01 F1 | 	add	local05, local04
02428                 | 	'.live	local05
02428     00 3A 95 F9 | 	alts	local05, #0
0242c     9D 3C 01 F6 | 	mov	local06, local05
02430     9A 28 01 F6 | 	mov	arg02, local02
02434     99 26 01 F6 | 	mov	arg01, local01
02438     9E 2A 01 F6 | 	mov	arg03, local06
0243c     44 FB BF FD | 	call	#__system___gc_isvalidptr
02440     81 3C 09 F6 | 	mov	local06, result1 wz
02444     10 00 90 AD |  if_e	jmp	#LR__0163
02448     02 3C 05 F1 | 	add	local06, #2
0244c     9E 3E E1 FA | 	rdword	local07, local06
02450     20 3E 45 F5 | 	or	local07, #32
02454     9E 3E 51 FC | 	wrword	local07, local06
02458                 | LR__0163
02458     01 36 05 F1 | 	add	local03, #1
0245c     F0 37 5D F2 | 	cmps	local03, #496 wcz
02460     B4 FF 9F CD |  if_b	jmp	#LR__0162
02464     46 F0 03 F6 | 	mov	ptra, fp
02468     5A 00 A0 FD | 	call	#popregs_
0246c                 | __system___gc_markcog_ret
0246c     2D 00 64 FD | 	ret
02470                 | 
02470                 | LR__0164
02470     20 21 21 21 
02474     20 63 6F 72 
02478     72 75 70 74 
0247c     65 64 20 68 
02480     65 61 70 3F 
02484     3F 3F 20 21 
02488     21 21 20    | 	byte	" !!! corrupted heap??? !!! "
0248b     00          | 	byte	0
0248c                 | LR__0165
0248c     20 21 21 21 
02490     20 6F 75 74 
02494     20 6F 66 20 
02498     68 65 61 70 
0249c     20 6D 65 6D 
024a0     6F 72 79 20 
024a4     21 21 21 20 | 	byte	" !!! out of heap memory !!! "
024a8     00          | 	byte	0
024a9                 | LR__0166
024a9     20 21 21 21 
024ad     20 63 6F 72 
024b1     72 75 70 74 
024b5     65 64 20 68 
024b9     65 61 70 20 
024bd     21 21 21 20 | 	byte	" !!! corrupted heap !!! "
024c1     00          | 	byte	0
024c2                 | LR__0167
024c2     59 65 74 20 
024c6     41 6E 6F 74 
024ca     68 65 72 20 
024ce     53 70 69 72 
024d2     61 6C 20 44 
024d6     65 6D 6F    | 	byte	"Yet Another Spiral Demo"
024d9     00          | 	byte	0
024da     00 00       | 	alignl
024dc                 | _hng023_dat_
024dc     00 00 00 00 
024e0     00 00 00 00 
024e4     00 00 00 00 
024e8     00 00 00 00 
024ec     00 00 00    | vga_font       file "vgafont.def"
024ef     7E 81 A5 81 
024f3     81 BD 99 81 
024f7     81 7E 00 00 
024fb     00 00 00 00 | 	byte	$7e, $81, $a5, $81, $81, $bd, $99, $81, $81, $7e, $00, $00, $00, $00, $00, $00
024ff     7E FF DB FF 
02503     FF C3 E7 FF 
02507     FF 7E 00 00 
0250b     00 00 00 00 | 	byte	$7e, $ff, $db, $ff, $ff, $c3, $e7, $ff, $ff, $7e, $00, $00, $00, $00, $00, $00
0250f     00 36 7F 7F 
02513     7F 7F 3E 1C 
02517     08 00 00 00 
0251b     00 00 00 00 | 	byte	$00, $36, $7f, $7f, $7f, $7f, $3e, $1c, $08, $00, $00, $00, $00, $00, $00, $00
0251f     00 08 1C 3E 
02523     7F 3E 1C 08 
02527     00 00 00 00 
0252b     00 00 00 00 | 	byte	$00, $08, $1c, $3e, $7f, $3e, $1c, $08, $00, $00, $00, $00, $00, $00, $00, $00
0252f     18 3C 3C E7 
02533     E7 E7 18 18 
02537     3C 00 00 00 
0253b     00 00 00 00 | 	byte	$18, $3c, $3c, $e7, $e7, $e7, $18, $18, $3c, $00, $00, $00, $00, $00, $00, $00
0253f     18 3C 7E FF 
02543     FF 7E 18 18 
02547     3C 00 00 00 
0254b     00 00 00 00 | 	byte	$18, $3c, $7e, $ff, $ff, $7e, $18, $18, $3c, $00, $00, $00, $00, $00, $00, $00
0254f     00 00 00 18 
02553     3C 3C 18 00 
02557     00 00 00 00 
0255b     00 FF FF FF | 	byte	$00, $00, $00, $18, $3c, $3c, $18, $00, $00, $00, $00, $00, $00, $ff, $ff, $ff
0255f     FF FF FF E7 
02563     C3 C3 E7 FF 
02567     FF FF FF FF 
0256b     FF 00 00 00 | 	byte	$ff, $ff, $ff, $e7, $c3, $c3, $e7, $ff, $ff, $ff, $ff, $ff, $ff, $00, $00, $00
0256f     00 00 3C 66 
02573     42 42 66 3C 
02577     00 00 00 00 
0257b     00 FF FF FF | 	byte	$00, $00, $3c, $66, $42, $42, $66, $3c, $00, $00, $00, $00, $00, $ff, $ff, $ff
0257f     FF FF C3 99 
02583     BD BD 99 C3 
02587     FF FF FF FF 
0258b     FF 00 00 00 | 	byte	$ff, $ff, $c3, $99, $bd, $bd, $99, $c3, $ff, $ff, $ff, $ff, $ff, $00, $00, $00
0258f     78 70 58 4C 
02593     1E 33 33 33 
02597     33 1E 00 00 
0259b     00 00 00 00 | 	byte	$78, $70, $58, $4c, $1e, $33, $33, $33, $33, $1e, $00, $00, $00, $00, $00, $00
0259f     3C 66 66 66 
025a3     66 3C 18 7E 
025a7     18 18 00 00 
025ab     00 00 00 00 | 	byte	$3c, $66, $66, $66, $66, $3c, $18, $7e, $18, $18, $00, $00, $00, $00, $00, $00
025af     FC CC FC 0C 
025b3     0C 0C 0C 0E 
025b7     0F 07 00 00 
025bb     00 00 00 00 | 	byte	$fc, $cc, $fc, $0c, $0c, $0c, $0c, $0e, $0f, $07, $00, $00, $00, $00, $00, $00
025bf     FE C6 FE C6 
025c3     C6 C6 C6 E6 
025c7     E7 67 03 00 
025cb     00 00 00 00 | 	byte	$fe, $c6, $fe, $c6, $c6, $c6, $c6, $e6, $e7, $67, $03, $00, $00, $00, $00, $00
025cf     18 18 DB 3C 
025d3     E7 3C DB 18 
025d7     18 00 00 00 
025db     00 00 00 01 | 	byte	$18, $18, $db, $3c, $e7, $3c, $db, $18, $18, $00, $00, $00, $00, $00, $00, $01
025df     03 07 0F 1F 
025e3     7F 1F 0F 07 
025e7     03 01 00 00 
025eb     00 00 00 40 | 	byte	$03, $07, $0f, $1f, $7f, $1f, $0f, $07, $03, $01, $00, $00, $00, $00, $00, $40
025ef     60 70 78 7C 
025f3     7F 7C 78 70 
025f7     60 40 00 00 
025fb     00 00 00 00 | 	byte	$60, $70, $78, $7c, $7f, $7c, $78, $70, $60, $40, $00, $00, $00, $00, $00, $00
025ff     18 3C 7E 18 
02603     18 18 7E 3C 
02607     18 00 00 00 
0260b     00 00 00 00 | 	byte	$18, $3c, $7e, $18, $18, $18, $7e, $3c, $18, $00, $00, $00, $00, $00, $00, $00
0260f     66 66 66 66 
02613     66 66 66    | 	byte	$66[7]
02616     00 66 66 00 
0261a     00 00 00 00 
0261e     00 FE DB DB 
02622     DB DE D8 D8 | 	byte	$00, $66, $66, $00, $00, $00, $00, $00, $00, $fe, $db, $db, $db, $de, $d8, $d8
02626     D8 D8 D8 00 
0262a     00 00 00 3E 
0262e     63 06 1C 36 
02632     63 63 36 1C | 	byte	$d8, $d8, $d8, $00, $00, $00, $00, $3e, $63, $06, $1c, $36, $63, $63, $36, $1c
02636     30 63 3E 00 
0263a     00 00 00 00 
0263e     00 00 00 00 
02642     00 00 00 7F | 	byte	$30, $63, $3e, $00, $00, $00, $00, $00, $00, $00, $00, $00, $00, $00, $00, $7f
02646     7F 7F 7F 00 
0264a     00 00 00 00 
0264e     00 18 3C 7E 
02652     18 18 18 7E | 	byte	$7f, $7f, $7f, $00, $00, $00, $00, $00, $00, $18, $3c, $7e, $18, $18, $18, $7e
02656     3C 18 7E 00 
0265a     00 00 00 00 
0265e     00 18 3C 7E 
02662     18 18 18 18 | 	byte	$3c, $18, $7e, $00, $00, $00, $00, $00, $00, $18, $3c, $7e, $18, $18, $18, $18
02666     18 18 18 00 
0266a     00 00 00 00 
0266e     00 18 18 18 
02672     18 18 18 18 | 	byte	$18, $18, $18, $00, $00, $00, $00, $00, $00, $18, $18, $18, $18, $18, $18, $18
02676     7E 3C 18 00 
0267a     00 00 00 00 
0267e     00 00 00 18 
02682     30 7F 30 18 | 	byte	$7e, $3c, $18, $00, $00, $00, $00, $00, $00, $00, $00, $18, $30, $7f, $30, $18
02686     00 00 00 00 
0268a     00 00 00 00 
0268e     00 00 00    | 	byte	$00[11]
02691     0C 06 7F 06 
02695     0C 00 00 00 
02699     00 00 00 00 
0269d     00 00 00 00 | 	byte	$0c, $06, $7f, $06, $0c, $00, $00, $00, $00, $00, $00, $00, $00, $00, $00, $00
026a1     00 03 03 03 
026a5     7F 00 00 00 
026a9     00 00 00 00 
026ad     00 00 00 00 | 	byte	$00, $03, $03, $03, $7f, $00, $00, $00, $00, $00, $00, $00, $00, $00, $00, $00
026b1     14 36 7F 36 
026b5     14 00 00 00 
026b9     00 00 00 00 
026bd     00 00 00 08 | 	byte	$14, $36, $7f, $36, $14, $00, $00, $00, $00, $00, $00, $00, $00, $00, $00, $08
026c1     1C 1C 3E 3E 
026c5     7F 7F 00 00 
026c9     00 00 00 00 
026cd     00 00 00 7F | 	byte	$1c, $1c, $3e, $3e, $7f, $7f, $00, $00, $00, $00, $00, $00, $00, $00, $00, $7f
026d1     7F 3E 3E 1C 
026d5     1C 08 00 00 
026d9     00 00 00 00 
026dd     00 00 00 00 | 	byte	$7f, $3e, $3e, $1c, $1c, $08, $00, $00, $00, $00, $00, $00, $00, $00, $00, $00
026e1     00 00 00 00 
026e5     00 00 00 00 
026e9     00 00 00 00 
026ed     00 00       | 	byte	$00[14]
026ef     18 3C 3C 3C 
026f3     18 18 18 00 
026f7     18 18 00 00 
026fb     00 00 66 66 | 	byte	$18, $3c, $3c, $3c, $18, $18, $18, $00, $18, $18, $00, $00, $00, $00, $66, $66
026ff     66 24 00 00 
02703     00 00 00 00 
02707     00 00 00 00 
0270b     00 00 00 00 | 	byte	$66, $24, $00, $00, $00, $00, $00, $00, $00, $00, $00, $00, $00, $00, $00, $00
0270f     00 36 36 7F 
02713     36 36 36 7F 
02717     36 36 00 00 
0271b     00 00 18 18 | 	byte	$00, $36, $36, $7f, $36, $36, $36, $7f, $36, $36, $00, $00, $00, $00, $18, $18
0271f     3E 63 43 03 
02723     3E 60 60 61 
02727     63 3E 18 18 
0272b     00 00 00 00 | 	byte	$3e, $63, $43, $03, $3e, $60, $60, $61, $63, $3e, $18, $18, $00, $00, $00, $00
0272f     00 00 43 63 
02733     30 18 0C 06 
02737     63 61 00 00 
0273b     00 00 00 00 | 	byte	$00, $00, $43, $63, $30, $18, $0c, $06, $63, $61, $00, $00, $00, $00, $00, $00
0273f     1C 36 36 1C 
02743     6E 3B 33 33 
02747     33 6E 00 00 
0274b     00 00 00 00 | 	byte	$1c, $36, $36, $1c, $6e, $3b, $33, $33, $33, $6e, $00, $00, $00, $00, $00, $00
0274f     0C 0C 0C 06 
02753     00 00 00 00 
02757     00 00 00 00 
0275b     00 00 00 00 | 	byte	$0c, $0c, $0c, $06, $00, $00, $00, $00, $00, $00, $00, $00, $00, $00, $00, $00
0275f     30 18 0C 0C 
02763     0C 0C 0C 0C 
02767     18 30 00 00 
0276b     00 00 00 00 | 	byte	$30, $18, $0c, $0c, $0c, $0c, $0c, $0c, $18, $30, $00, $00, $00, $00, $00, $00
0276f     0C 18 30 30 
02773     30 30 30 30 
02777     18 0C 00 00 
0277b     00 00 00 00 | 	byte	$0c, $18, $30, $30, $30, $30, $30, $30, $18, $0c, $00, $00, $00, $00, $00, $00
0277f     00 00 00 66 
02783     3C FF 3C 66 
02787     00 00 00 00 
0278b     00 00 00 00 | 	byte	$00, $00, $00, $66, $3c, $ff, $3c, $66, $00, $00, $00, $00, $00, $00, $00, $00
0278f     00 00 00 18 
02793     18 7E 18 18 
02797     00 00 00 00 
0279b     00 00 00 00 | 	byte	$00, $00, $00, $18, $18, $7e, $18, $18, $00, $00, $00, $00, $00, $00, $00, $00
0279f     00 00 00 00 
027a3     00 00 00 00 | 	byte	$00[8]
027a7     18 18 18 0C 
027ab     00 00 00 00 
027af     00 00 00 00 
027b3     00 7F 00 00 | 	byte	$18, $18, $18, $0c, $00, $00, $00, $00, $00, $00, $00, $00, $00, $7f, $00, $00
027b7     00 00 00 00 
027bb     00 00 00 00 
027bf     00 00 00 00 
027c3     00 00 00 00 | 	byte	$00[16]
027c7     18 18 00 00 
027cb     00 00 00 00 
027cf     00 00 40 60 
027d3     30 18 0C 06 | 	byte	$18, $18, $00, $00, $00, $00, $00, $00, $00, $00, $40, $60, $30, $18, $0c, $06
027d7     03 01 00 00 
027db     00 00 00 00 
027df     1C 36 63 63 
027e3     6B 6B 63 63 | 	byte	$03, $01, $00, $00, $00, $00, $00, $00, $1c, $36, $63, $63, $6b, $6b, $63, $63
027e7     36 1C 00 00 
027eb     00 00 00 00 
027ef     18 1C 1E 18 
027f3     18 18 18 18 | 	byte	$36, $1c, $00, $00, $00, $00, $00, $00, $18, $1c, $1e, $18, $18, $18, $18, $18
027f7     18 7E 00 00 
027fb     00 00 00 00 
027ff     3E 63 60 30 
02803     18 0C 06 03 | 	byte	$18, $7e, $00, $00, $00, $00, $00, $00, $3e, $63, $60, $30, $18, $0c, $06, $03
02807     63 7F 00 00 
0280b     00 00 00 00 
0280f     3E 63 60 60 
02813     3C 60 60 60 | 	byte	$63, $7f, $00, $00, $00, $00, $00, $00, $3e, $63, $60, $60, $3c, $60, $60, $60
02817     63 3E 00 00 
0281b     00 00 00 00 
0281f     30 38 3C 36 
02823     33 7F 30 30 | 	byte	$63, $3e, $00, $00, $00, $00, $00, $00, $30, $38, $3c, $36, $33, $7f, $30, $30
02827     30 78 00 00 
0282b     00 00 00 00 
0282f     7F 03 03 03 
02833     3F 60 60 60 | 	byte	$30, $78, $00, $00, $00, $00, $00, $00, $7f, $03, $03, $03, $3f, $60, $60, $60
02837     63 3E 00 00 
0283b     00 00 00 00 
0283f     1C 06 03 03 
02843     3F 63 63 63 | 	byte	$63, $3e, $00, $00, $00, $00, $00, $00, $1c, $06, $03, $03, $3f, $63, $63, $63
02847     63 3E 00 00 
0284b     00 00 00 00 
0284f     7F 63 60 60 
02853     30 18 0C 0C | 	byte	$63, $3e, $00, $00, $00, $00, $00, $00, $7f, $63, $60, $60, $30, $18, $0c, $0c
02857     0C 0C 00 00 
0285b     00 00 00 00 
0285f     3E 63 63 63 
02863     3E 63 63 63 | 	byte	$0c, $0c, $00, $00, $00, $00, $00, $00, $3e, $63, $63, $63, $3e, $63, $63, $63
02867     63 3E 00 00 
0286b     00 00 00 00 
0286f     3E 63 63 63 
02873     7E 60 60 60 | 	byte	$63, $3e, $00, $00, $00, $00, $00, $00, $3e, $63, $63, $63, $7e, $60, $60, $60
02877     30 1E 00 00 
0287b     00 00 00 00 
0287f     00 00 00 18 
02883     18 00 00 00 | 	byte	$30, $1e, $00, $00, $00, $00, $00, $00, $00, $00, $00, $18, $18, $00, $00, $00
02887     18 18 00 00 
0288b     00 00 00 00 
0288f     00 00 00 18 
02893     18 00 00 00 | 	byte	$18, $18, $00, $00, $00, $00, $00, $00, $00, $00, $00, $18, $18, $00, $00, $00
02897     18 18 0C 00 
0289b     00 00 00 00 
0289f     00 60 30 18 
028a3     0C 06 0C 18 | 	byte	$18, $18, $0c, $00, $00, $00, $00, $00, $00, $60, $30, $18, $0c, $06, $0c, $18
028a7     30 60 00 00 
028ab     00 00 00 00 
028af     00 00 00 7E 
028b3     00 00 7E 00 | 	byte	$30, $60, $00, $00, $00, $00, $00, $00, $00, $00, $00, $7e, $00, $00, $7e, $00
028b7     00 00 00 00 
028bb     00 00 00 00 
028bf     00          | 	byte	$00[9]
028c0     06 0C 18 30 
028c4     60 30 18 0C 
028c8     06 00 00 00 
028cc     00 00 00 3E | 	byte	$06, $0c, $18, $30, $60, $30, $18, $0c, $06, $00, $00, $00, $00, $00, $00, $3e
028d0     63 63 30 18 
028d4     18 18 00 18 
028d8     18 00 00 00 
028dc     00 00 00 00 | 	byte	$63, $63, $30, $18, $18, $18, $00, $18, $18, $00, $00, $00, $00, $00, $00, $00
028e0     3E 63 63 7B 
028e4     7B 7B 3B 03 
028e8     3E 00 00 00 
028ec     00 00 00 08 | 	byte	$3e, $63, $63, $7b, $7b, $7b, $3b, $03, $3e, $00, $00, $00, $00, $00, $00, $08
028f0     1C 36 63 63 
028f4     7F 63 63 63 
028f8     63 00 00 00 
028fc     00 00 00 3F | 	byte	$1c, $36, $63, $63, $7f, $63, $63, $63, $63, $00, $00, $00, $00, $00, $00, $3f
02900     66 66 66 3E 
02904     66 66 66 66 
02908     3F 00 00 00 
0290c     00 00 00 3C | 	byte	$66, $66, $66, $3e, $66, $66, $66, $66, $3f, $00, $00, $00, $00, $00, $00, $3c
02910     66 43 03 03 
02914     03 03 43 66 
02918     3C 00 00 00 
0291c     00 00 00 1F | 	byte	$66, $43, $03, $03, $03, $03, $43, $66, $3c, $00, $00, $00, $00, $00, $00, $1f
02920     36 66 66 66 
02924     66 66 66 36 
02928     1F 00 00 00 
0292c     00 00 00 7F | 	byte	$36, $66, $66, $66, $66, $66, $66, $36, $1f, $00, $00, $00, $00, $00, $00, $7f
02930     66 46 16 1E 
02934     16 06 46 66 
02938     7F 00 00 00 
0293c     00 00 00 7F | 	byte	$66, $46, $16, $1e, $16, $06, $46, $66, $7f, $00, $00, $00, $00, $00, $00, $7f
02940     66 46 16 1E 
02944     16 06 06 06 
02948     0F 00 00 00 
0294c     00 00 00 3C | 	byte	$66, $46, $16, $1e, $16, $06, $06, $06, $0f, $00, $00, $00, $00, $00, $00, $3c
02950     66 43 03 03 
02954     7B 63 63 66 
02958     5C 00 00 00 
0295c     00 00 00 63 | 	byte	$66, $43, $03, $03, $7b, $63, $63, $66, $5c, $00, $00, $00, $00, $00, $00, $63
02960     63 63 63 7F 
02964     63 63 63 63 
02968     63 00 00 00 
0296c     00 00 00 3C | 	byte	$63, $63, $63, $7f, $63, $63, $63, $63, $63, $00, $00, $00, $00, $00, $00, $3c
02970     18 18 18 18 
02974     18 18 18 18 | 	byte	$18[8]
02978     3C 00 00 00 
0297c     00 00 00 78 
02980     30 30 30 30 
02984     30 33 33 33 | 	byte	$3c, $00, $00, $00, $00, $00, $00, $78, $30, $30, $30, $30, $30, $33, $33, $33
02988     1E 00 00 00 
0298c     00 00 00 67 
02990     66 66 36 1E 
02994     1E 36 66 66 | 	byte	$1e, $00, $00, $00, $00, $00, $00, $67, $66, $66, $36, $1e, $1e, $36, $66, $66
02998     67 00 00 00 
0299c     00 00 00 0F 
029a0     06 06 06 06 
029a4     06 06 46 66 | 	byte	$67, $00, $00, $00, $00, $00, $00, $0f, $06, $06, $06, $06, $06, $06, $46, $66
029a8     7F 00 00 00 
029ac     00 00 00 63 
029b0     77 7F 7F 6B 
029b4     63 63 63 63 | 	byte	$7f, $00, $00, $00, $00, $00, $00, $63, $77, $7f, $7f, $6b, $63, $63, $63, $63
029b8     63 00 00 00 
029bc     00 00 00 63 
029c0     67 6F 7F 7B 
029c4     73 63 63 63 | 	byte	$63, $00, $00, $00, $00, $00, $00, $63, $67, $6f, $7f, $7b, $73, $63, $63, $63
029c8     63 00 00 00 
029cc     00 00 00 3E 
029d0     63 63 63 63 
029d4     63 63 63 63 | 	byte	$63, $00, $00, $00, $00, $00, $00, $3e, $63, $63, $63, $63, $63, $63, $63, $63
029d8     3E 00 00 00 
029dc     00 00 00 3F 
029e0     66 66 66 3E 
029e4     06 06 06 06 | 	byte	$3e, $00, $00, $00, $00, $00, $00, $3f, $66, $66, $66, $3e, $06, $06, $06, $06
029e8     0F 00 00 00 
029ec     00 00 00 3E 
029f0     63 63 63 63 
029f4     63 63 6B 7B | 	byte	$0f, $00, $00, $00, $00, $00, $00, $3e, $63, $63, $63, $63, $63, $63, $6b, $7b
029f8     3E 30 70 00 
029fc     00 00 00 3F 
02a00     66 66 66 3E 
02a04     36 66 66 66 | 	byte	$3e, $30, $70, $00, $00, $00, $00, $3f, $66, $66, $66, $3e, $36, $66, $66, $66
02a08     67 00 00 00 
02a0c     00 00 00 3E 
02a10     63 63 06 1C 
02a14     30 60 63 63 | 	byte	$67, $00, $00, $00, $00, $00, $00, $3e, $63, $63, $06, $1c, $30, $60, $63, $63
02a18     3E 00 00 00 
02a1c     00 00 00 7E 
02a20     7E 5A 18 18 
02a24     18 18 18 18 | 	byte	$3e, $00, $00, $00, $00, $00, $00, $7e, $7e, $5a, $18, $18, $18, $18, $18, $18
02a28     3C 00 00 00 
02a2c     00 00 00 63 
02a30     63 63 63 63 
02a34     63 63 63 63 | 	byte	$3c, $00, $00, $00, $00, $00, $00, $63, $63, $63, $63, $63, $63, $63, $63, $63
02a38     3E 00 00 00 
02a3c     00 00 00 63 
02a40     63 63 63 63 
02a44     63 63 36 1C | 	byte	$3e, $00, $00, $00, $00, $00, $00, $63, $63, $63, $63, $63, $63, $63, $36, $1c
02a48     08 00 00 00 
02a4c     00 00 00 63 
02a50     63 63 63 6B 
02a54     6B 6B 7F 77 | 	byte	$08, $00, $00, $00, $00, $00, $00, $63, $63, $63, $63, $6b, $6b, $6b, $7f, $77
02a58     36 00 00 00 
02a5c     00 00 00 63 
02a60     63 36 3E 1C 
02a64     1C 3E 36 63 | 	byte	$36, $00, $00, $00, $00, $00, $00, $63, $63, $36, $3e, $1c, $1c, $3e, $36, $63
02a68     63 00 00 00 
02a6c     00 00 00 66 
02a70     66 66 66 3C 
02a74     18 18 18 18 | 	byte	$63, $00, $00, $00, $00, $00, $00, $66, $66, $66, $66, $3c, $18, $18, $18, $18
02a78     3C 00 00 00 
02a7c     00 00 00 7F 
02a80     63 61 30 18 
02a84     0C 06 43 63 | 	byte	$3c, $00, $00, $00, $00, $00, $00, $7f, $63, $61, $30, $18, $0c, $06, $43, $63
02a88     7F 00 00 00 
02a8c     00 00 00 3C 
02a90     0C 0C 0C 0C 
02a94     0C 0C 0C 0C | 	byte	$7f, $00, $00, $00, $00, $00, $00, $3c, $0c, $0c, $0c, $0c, $0c, $0c, $0c, $0c
02a98     3C 00 00 00 
02a9c     00 00 00 00 
02aa0     01 03 07 0E 
02aa4     1C 38 70 60 | 	byte	$3c, $00, $00, $00, $00, $00, $00, $00, $01, $03, $07, $0e, $1c, $38, $70, $60
02aa8     40 00 00 00 
02aac     00 00 00 3C 
02ab0     30 30 30 30 
02ab4     30 30 30 30 | 	byte	$40, $00, $00, $00, $00, $00, $00, $3c, $30, $30, $30, $30, $30, $30, $30, $30
02ab8     3C 00 00 00 
02abc     1C 36 00 00 
02ac0     00 00 00 00 
02ac4     00 00 00 00 | 	byte	$3c, $00, $00, $00, $1c, $36, $00, $00, $00, $00, $00, $00, $00, $00, $00, $00
02ac8     00 00 00 00 
02acc     00 00 00 00 
02ad0     00 00 00 00 
02ad4     00 00 00 00 
02ad8     00          | 	byte	$00[17]
02ad9     FF 00 00 0C 
02add     18 00 00 00 
02ae1     00 00 00 00 
02ae5     00 00 00 00 | 	byte	$ff, $00, $00, $0c, $18, $00, $00, $00, $00, $00, $00, $00, $00, $00, $00, $00
02ae9     00 00 00 00 
02aed     00 00 00 00 
02af1     00          | 	byte	$00[9]
02af2     1E 30 3E 33 
02af6     33 33 6E 00 
02afa     00 00 00 00 
02afe     00 07 06 06 | 	byte	$1e, $30, $3e, $33, $33, $33, $6e, $00, $00, $00, $00, $00, $00, $07, $06, $06
02b02     1E 36 66 66 
02b06     66 66 3E 00 
02b0a     00 00 00 00 
02b0e     00 00 00 00 | 	byte	$1e, $36, $66, $66, $66, $66, $3e, $00, $00, $00, $00, $00, $00, $00, $00, $00
02b12     3E 63 03 03 
02b16     03 63 3E 00 
02b1a     00 00 00 00 
02b1e     00 38 30 30 | 	byte	$3e, $63, $03, $03, $03, $63, $3e, $00, $00, $00, $00, $00, $00, $38, $30, $30
02b22     3C 36 33 33 
02b26     33 33 6E 00 
02b2a     00 00 00 00 
02b2e     00 00 00 00 | 	byte	$3c, $36, $33, $33, $33, $33, $6e, $00, $00, $00, $00, $00, $00, $00, $00, $00
02b32     3E 63 7F 03 
02b36     03 63 3E 00 
02b3a     00 00 00 00 
02b3e     00 38 6C 4C | 	byte	$3e, $63, $7f, $03, $03, $63, $3e, $00, $00, $00, $00, $00, $00, $38, $6c, $4c
02b42     0C 1E 0C 0C 
02b46     0C 0C 1E 00 
02b4a     00 00 00 00 
02b4e     00 00 00 00 | 	byte	$0c, $1e, $0c, $0c, $0c, $0c, $1e, $00, $00, $00, $00, $00, $00, $00, $00, $00
02b52     6E 33 33 33 
02b56     33 33 3E 30 
02b5a     33 1E 00 00 
02b5e     00 07 06 06 | 	byte	$6e, $33, $33, $33, $33, $33, $3e, $30, $33, $1e, $00, $00, $00, $07, $06, $06
02b62     36 6E 66 66 
02b66     66 66 67 00 
02b6a     00 00 00 00 
02b6e     00 18 18 00 | 	byte	$36, $6e, $66, $66, $66, $66, $67, $00, $00, $00, $00, $00, $00, $18, $18, $00
02b72     1C 18 18 18 
02b76     18 18 3C 00 
02b7a     00 00 00 00 
02b7e     00 60 60 00 | 	byte	$1c, $18, $18, $18, $18, $18, $3c, $00, $00, $00, $00, $00, $00, $60, $60, $00
02b82     70 60 60 60 
02b86     60 60 60 66 
02b8a     66 3C 00 00 
02b8e     00 07 06 06 | 	byte	$70, $60, $60, $60, $60, $60, $60, $66, $66, $3c, $00, $00, $00, $07, $06, $06
02b92     66 36 1E 1E 
02b96     36 66 67 00 
02b9a     00 00 00 00 
02b9e     00 1C 18 18 | 	byte	$66, $36, $1e, $1e, $36, $66, $67, $00, $00, $00, $00, $00, $00, $1c, $18, $18
02ba2     18 18 18 18 
02ba6     18 18       | 	byte	$18[6]
02ba8     3C 00 00 00 
02bac     00 00 00 00 
02bb0     00 00 37 7F 
02bb4     6B 6B 6B 6B | 	byte	$3c, $00, $00, $00, $00, $00, $00, $00, $00, $00, $37, $7f, $6b, $6b, $6b, $6b
02bb8     63 00 00 00 
02bbc     00 00 00 00 
02bc0     00 00 3B 66 
02bc4     66 66 66 66 | 	byte	$63, $00, $00, $00, $00, $00, $00, $00, $00, $00, $3b, $66, $66, $66, $66, $66
02bc8     66 00 00 00 
02bcc     00 00 00 00 
02bd0     00 00 3E 63 
02bd4     63 63 63 63 | 	byte	$66, $00, $00, $00, $00, $00, $00, $00, $00, $00, $3e, $63, $63, $63, $63, $63
02bd8     3E 00 00 00 
02bdc     00 00 00 00 
02be0     00 00 3B 66 
02be4     66 66 66 66 | 	byte	$3e, $00, $00, $00, $00, $00, $00, $00, $00, $00, $3b, $66, $66, $66, $66, $66
02be8     3E 06 06 0F 
02bec     00 00 00 00 
02bf0     00 00 6E 33 
02bf4     33 33 33 33 | 	byte	$3e, $06, $06, $0f, $00, $00, $00, $00, $00, $00, $6e, $33, $33, $33, $33, $33
02bf8     3E 30 30 78 
02bfc     00 00 00 00 
02c00     00 00 3B 6E 
02c04     66 06 06 06 | 	byte	$3e, $30, $30, $78, $00, $00, $00, $00, $00, $00, $3b, $6e, $66, $06, $06, $06
02c08     0F 00 00 00 
02c0c     00 00 00 00 
02c10     00 00 3E 63 
02c14     06 1C 30 63 | 	byte	$0f, $00, $00, $00, $00, $00, $00, $00, $00, $00, $3e, $63, $06, $1c, $30, $63
02c18     3E 00 00 00 
02c1c     00 00 00 08 
02c20     0C 0C 3F 0C 
02c24     0C 0C 0C 6C | 	byte	$3e, $00, $00, $00, $00, $00, $00, $08, $0c, $0c, $3f, $0c, $0c, $0c, $0c, $6c
02c28     38 00 00 00 
02c2c     00 00 00 00 
02c30     00 00 33 33 
02c34     33 33 33 33 | 	byte	$38, $00, $00, $00, $00, $00, $00, $00, $00, $00, $33, $33, $33, $33, $33, $33
02c38     6E 00 00 00 
02c3c     00 00 00 00 
02c40     00 00 63 63 
02c44     63 63 63 36 | 	byte	$6e, $00, $00, $00, $00, $00, $00, $00, $00, $00, $63, $63, $63, $63, $63, $36
02c48     1C 00 00 00 
02c4c     00 00 00 00 
02c50     00 00 63 63 
02c54     6B 6B 6B 7F | 	byte	$1c, $00, $00, $00, $00, $00, $00, $00, $00, $00, $63, $63, $6b, $6b, $6b, $7f
02c58     36 00 00 00 
02c5c     00 00 00 00 
02c60     00 00 63 36 
02c64     1C 1C 1C 36 | 	byte	$36, $00, $00, $00, $00, $00, $00, $00, $00, $00, $63, $36, $1c, $1c, $1c, $36
02c68     63 00 00 00 
02c6c     00 00 00 00 
02c70     00 00 63 63 
02c74     63 63 63 63 | 	byte	$63, $00, $00, $00, $00, $00, $00, $00, $00, $00, $63, $63, $63, $63, $63, $63
02c78     7E 60 30 1F 
02c7c     00 00 00 00 
02c80     00 00 7F 33 
02c84     18 0C 06 63 | 	byte	$7e, $60, $30, $1f, $00, $00, $00, $00, $00, $00, $7f, $33, $18, $0c, $06, $63
02c88     7F 00 00 00 
02c8c     00 00 00 70 
02c90     18 18 18 0E 
02c94     18 18 18 18 | 	byte	$7f, $00, $00, $00, $00, $00, $00, $70, $18, $18, $18, $0e, $18, $18, $18, $18
02c98     70 00 00 00 
02c9c     00 00 00 18 
02ca0     18 18 18 18 
02ca4     18 18 18 18 | 	byte	$70, $00, $00, $00, $00, $00, $00, $18, $18, $18, $18, $18, $18, $18, $18, $18
02ca8     18 00 00 00 
02cac     00 00 00 0E 
02cb0     18 18 18 70 
02cb4     18 18 18 18 | 	byte	$18, $00, $00, $00, $00, $00, $00, $0e, $18, $18, $18, $70, $18, $18, $18, $18
02cb8     0E 00 00 00 
02cbc     6E 3B 00 00 
02cc0     00 00 00 00 
02cc4     00 00 00 00 | 	byte	$0e, $00, $00, $00, $6e, $3b, $00, $00, $00, $00, $00, $00, $00, $00, $00, $00
02cc8     00 00 00 00 
02ccc     00 00 00 00 
02cd0     00 00       | 	byte	$00[10]
02cd2     08 1C 36 63 
02cd6     63 63 7F 00 
02cda     00 00 00 00 
02cde     00 3C 66 43 | 	byte	$08, $1c, $36, $63, $63, $63, $7f, $00, $00, $00, $00, $00, $00, $3c, $66, $43
02ce2     03 03 03 03 
02ce6     43 66 3C 18 
02cea     30 1E 00 00 
02cee     00 00 33 00 | 	byte	$03, $03, $03, $03, $43, $66, $3c, $18, $30, $1e, $00, $00, $00, $00, $33, $00
02cf2     33 33 33 33 
02cf6     33 33       | 	byte	$33[6]
02cf8     6E 00 00 00 
02cfc     00 00 60 30 
02d00     18 00 3E 63 
02d04     7F 03 03 63 | 	byte	$6e, $00, $00, $00, $00, $00, $60, $30, $18, $00, $3e, $63, $7f, $03, $03, $63
02d08     3E 00 00 00 
02d0c     00 00 08 1C 
02d10     36 00 1E 30 
02d14     3E 33 33 33 | 	byte	$3e, $00, $00, $00, $00, $00, $08, $1c, $36, $00, $1e, $30, $3e, $33, $33, $33
02d18     6E 00 00 00 
02d1c     00 00 00 00 
02d20     33 00 1E 30 
02d24     3E 33 33 33 | 	byte	$6e, $00, $00, $00, $00, $00, $00, $00, $33, $00, $1e, $30, $3e, $33, $33, $33
02d28     6E 00 00 00 
02d2c     00 00 1C 36 
02d30     1C 00 33 33 
02d34     33 33 33 33 | 	byte	$6e, $00, $00, $00, $00, $00, $1c, $36, $1c, $00, $33, $33, $33, $33, $33, $33
02d38     6E 00 00 00 
02d3c     00 00 60 30 
02d40     18 00 3E 63 
02d44     03 03 03 63 | 	byte	$6e, $00, $00, $00, $00, $00, $60, $30, $18, $00, $3e, $63, $03, $03, $03, $63
02d48     3E 00 00 00 
02d4c     00 00 00 00 
02d50     00 00 3E 63 
02d54     03 03 03 63 | 	byte	$3e, $00, $00, $00, $00, $00, $00, $00, $00, $00, $3e, $63, $03, $03, $03, $63
02d58     3E 18 30 1E 
02d5c     00 00 00 1C 
02d60     58 78 38 18 
02d64     1C 1E 1A 18 | 	byte	$3e, $18, $30, $1e, $00, $00, $00, $1c, $58, $78, $38, $18, $1c, $1e, $1a, $18
02d68     3C 00 00 00 
02d6c     00 00 00 00 
02d70     63 00 3E 63 
02d74     7F 03 03 63 | 	byte	$3c, $00, $00, $00, $00, $00, $00, $00, $63, $00, $3e, $63, $7f, $03, $03, $63
02d78     3E 00 00 00 
02d7c     66 33 00 3E 
02d80     63 63 63 63 
02d84     63 63 63 63 | 	byte	$3e, $00, $00, $00, $66, $33, $00, $3e, $63, $63, $63, $63, $63, $63, $63, $63
02d88     3E 00 00 00 
02d8c     00 00 CC 66 
02d90     33 00 3E 63 
02d94     63 63 63 63 | 	byte	$3e, $00, $00, $00, $00, $00, $cc, $66, $33, $00, $3e, $63, $63, $63, $63, $63
02d98     3E 00 00 00 
02d9c     00 00 18 3C 
02da0     66 00 1C 18 
02da4     18 18 18 18 | 	byte	$3e, $00, $00, $00, $00, $00, $18, $3c, $66, $00, $1c, $18, $18, $18, $18, $18
02da8     3C 00 00 00 
02dac     30 18 00 7F 
02db0     63 61 30 18 
02db4     0C 06 43 63 | 	byte	$3c, $00, $00, $00, $30, $18, $00, $7f, $63, $61, $30, $18, $0c, $06, $43, $63
02db8     7F 00 00 00 
02dbc     00 63 00 08 
02dc0     1C 36 63 63 
02dc4     7F 63 63 63 | 	byte	$7f, $00, $00, $00, $00, $63, $00, $08, $1c, $36, $63, $63, $7f, $63, $63, $63
02dc8     63 00 00 00 
02dcc     30 18 00 3C 
02dd0     66 43 03 03 
02dd4     03 03 43 66 | 	byte	$63, $00, $00, $00, $30, $18, $00, $3c, $66, $43, $03, $03, $03, $03, $43, $66
02dd8     3C 00 00 00 
02ddc     30 18 00 7F 
02de0     66 46 16 1E 
02de4     16 06 46 66 | 	byte	$3c, $00, $00, $00, $30, $18, $00, $7f, $66, $46, $16, $1e, $16, $06, $46, $66
02de8     7F 00 00 00 
02dec     0C 06 00 0F 
02df0     06 06 06 06 
02df4     06 06 46 66 | 	byte	$7f, $00, $00, $00, $0c, $06, $00, $0f, $06, $06, $06, $06, $06, $06, $46, $66
02df8     7F 00 00 00 
02dfc     30 18 00 1C 
02e00     18 18 18 18 
02e04     18 18 18 18 | 	byte	$7f, $00, $00, $00, $30, $18, $00, $1c, $18, $18, $18, $18, $18, $18, $18, $18
02e08     3C 00 00 00 
02e0c     00 00 08 1C 
02e10     36 00 3E 63 
02e14     63 63 63 63 | 	byte	$3c, $00, $00, $00, $00, $00, $08, $1c, $36, $00, $3e, $63, $63, $63, $63, $63
02e18     3E 00 00 00 
02e1c     00 00 00 00 
02e20     63 00 3E 63 
02e24     63 63 63 63 | 	byte	$3e, $00, $00, $00, $00, $00, $00, $00, $63, $00, $3e, $63, $63, $63, $63, $63
02e28     3E 00 00 00 
02e2c     00 00 00 6F 
02e30     46 26 06 06 
02e34     06 06 46 66 | 	byte	$3e, $00, $00, $00, $00, $00, $00, $6f, $46, $26, $06, $06, $06, $06, $46, $66
02e38     7F 00 00 00 
02e3c     00 00 00 6E 
02e40     4C 2C 0C 0C 
02e44     0C 0C 0C 0C | 	byte	$7f, $00, $00, $00, $00, $00, $00, $6e, $4c, $2c, $0c, $0c, $0c, $0c, $0c, $0c
02e48     1E 00 00 00 
02e4c     30 18 00 3E 
02e50     63 63 06 1C 
02e54     30 60 63 63 | 	byte	$1e, $00, $00, $00, $30, $18, $00, $3e, $63, $63, $06, $1c, $30, $60, $63, $63
02e58     3E 00 00 00 
02e5c     00 00 60 30 
02e60     18 00 3E 63 
02e64     06 1C 30 63 | 	byte	$3e, $00, $00, $00, $00, $00, $60, $30, $18, $00, $3e, $63, $06, $1c, $30, $63
02e68     3E 00 00 00 
02e6c     00 63 00 3E 
02e70     63 63 63 63 
02e74     63 63 63 63 | 	byte	$3e, $00, $00, $00, $00, $63, $00, $3e, $63, $63, $63, $63, $63, $63, $63, $63
02e78     3E 00 00 00 
02e7c     00 63 00 63 
02e80     63 63 63 63 
02e84     63 63 63 63 | 	byte	$3e, $00, $00, $00, $00, $63, $00, $63, $63, $63, $63, $63, $63, $63, $63, $63
02e88     3E 00 00 00 
02e8c     6C 38 00 7E 
02e90     7E 5A 18 18 
02e94     18 18 18 18 | 	byte	$3e, $00, $00, $00, $6c, $38, $00, $7e, $7e, $5a, $18, $18, $18, $18, $18, $18
02e98     3C 00 00 00 
02e9c     00 00 60 48 
02ea0     2C 0C 3F 0C 
02ea4     0C 0C 0C 6C | 	byte	$3c, $00, $00, $00, $00, $00, $60, $48, $2c, $0c, $3f, $0c, $0c, $0c, $0c, $6c
02ea8     38 00 00 00 
02eac     00 00 00 0F 
02eb0     26 36 1E 0E 
02eb4     07 07 46 66 | 	byte	$38, $00, $00, $00, $00, $00, $00, $0f, $26, $36, $1e, $0e, $07, $07, $46, $66
02eb8     7F 00 00 00 
02ebc     00 00 00 00 
02ec0     00 63 36 1C 
02ec4     1C 36 63 00 | 	byte	$7f, $00, $00, $00, $00, $00, $00, $00, $00, $63, $36, $1c, $1c, $36, $63, $00
02ec8     00 00 00 00 
02ecc     00 00       | 	byte	$00[6]
02ece     36 1C 08 00 
02ed2     3E 63 03 03 
02ed6     03 63 3E 00 
02eda     00 00 00 00 | 	byte	$36, $1c, $08, $00, $3e, $63, $03, $03, $03, $63, $3e, $00, $00, $00, $00, $00
02ede     30 18 0C 00 
02ee2     1E 30 3E 33 
02ee6     33 33 6E 00 
02eea     00 00 00 00 | 	byte	$30, $18, $0c, $00, $1e, $30, $3e, $33, $33, $33, $6e, $00, $00, $00, $00, $00
02eee     60 30 18 00 
02ef2     1C 18 18 18 
02ef6     18 18 3C 00 
02efa     00 00 00 00 | 	byte	$60, $30, $18, $00, $1c, $18, $18, $18, $18, $18, $3c, $00, $00, $00, $00, $00
02efe     60 30 18 00 
02f02     3E 63 63 63 
02f06     63 63 3E 00 
02f0a     00 00 00 00 | 	byte	$60, $30, $18, $00, $3e, $63, $63, $63, $63, $63, $3e, $00, $00, $00, $00, $00
02f0e     30 18 0C 00 
02f12     33 33 33 33 
02f16     33 33 6E 00 
02f1a     00 00 00 00 | 	byte	$30, $18, $0c, $00, $33, $33, $33, $33, $33, $33, $6e, $00, $00, $00, $00, $00
02f1e     00 08 1C 36 
02f22     63 63 7F 63 
02f26     63 63 63 18 
02f2a     0C 78 00 00 | 	byte	$00, $08, $1c, $36, $63, $63, $7f, $63, $63, $63, $63, $18, $0c, $78, $00, $00
02f2e     00 00 00 00 
02f32     1E 30 3E 33 
02f36     33 33 6E 18 
02f3a     0C 78 36 1C | 	byte	$00, $00, $00, $00, $1e, $30, $3e, $33, $33, $33, $6e, $18, $0c, $78, $36, $1c
02f3e     00 7F 63 61 
02f42     30 18 0C 06 
02f46     43 63 7F 00 
02f4a     00 00 00 00 | 	byte	$00, $7f, $63, $61, $30, $18, $0c, $06, $43, $63, $7f, $00, $00, $00, $00, $00
02f4e     36 1C 08 00 
02f52     7F 33 18 0C 
02f56     06 63 7F 00 
02f5a     00 00 00 00 | 	byte	$36, $1c, $08, $00, $7f, $33, $18, $0c, $06, $63, $7f, $00, $00, $00, $00, $00
02f5e     00 7F 66 46 
02f62     16 1E 16 06 
02f66     46 66 7F 18 
02f6a     0C 78 00 00 | 	byte	$00, $7f, $66, $46, $16, $1e, $16, $06, $46, $66, $7f, $18, $0c, $78, $00, $00
02f6e     00 00 00 00 
02f72     3E 63 7F 03 
02f76     03 63 3E 18 
02f7a     0C 78 00 00 | 	byte	$00, $00, $00, $00, $3e, $63, $7f, $03, $03, $63, $3e, $18, $0c, $78, $00, $00
02f7e     00 3C 66 03 
02f82     1F 03 0F 03 
02f86     03 66 3C 00 
02f8a     00 00 00 00 | 	byte	$00, $3c, $66, $03, $1f, $03, $0f, $03, $03, $66, $3c, $00, $00, $00, $00, $00
02f8e     60 30 18 00 
02f92     7F 33 18 0C 
02f96     06 63 7F 00 
02f9a     00 00 6C 38 | 	byte	$60, $30, $18, $00, $7f, $33, $18, $0c, $06, $63, $7f, $00, $00, $00, $6c, $38
02f9e     00 3C 66 43 
02fa2     03 03 03 03 
02fa6     43 66 3C 00 
02faa     00 00 00 00 | 	byte	$00, $3c, $66, $43, $03, $03, $03, $03, $43, $66, $3c, $00, $00, $00, $00, $00
02fae     00 00 00 00 
02fb2     3E 63 06 1C 
02fb6     30 63 3E 18 
02fba     30 1E 00 00 | 	byte	$00, $00, $00, $00, $3e, $63, $06, $1c, $30, $63, $3e, $18, $30, $1e, $00, $00
02fbe     00 00 00 00 
02fc2     00 00       | 	byte	$00[6]
02fc4     6C 36 1B 36 
02fc8     6C 00 00 00 
02fcc     00 00 00 00 
02fd0     00 00 00 00 | 	byte	$6c, $36, $1b, $36, $6c, $00, $00, $00, $00, $00, $00, $00, $00, $00, $00, $00
02fd4     1B 36 6C 36 
02fd8     1B 00 00 00 
02fdc     88 22 88 22 
02fe0     88 22 88 22 | 	byte	$1b, $36, $6c, $36, $1b, $00, $00, $00, $88, $22, $88, $22, $88, $22, $88, $22
02fe4     88 22 88 22 
02fe8     88 22 88 22 
02fec     AA 55 AA 55 
02ff0     AA 55 AA 55 | 	byte	$88, $22, $88, $22, $88, $22, $88, $22, $aa, $55, $aa, $55, $aa, $55, $aa, $55
02ff4     AA 55 AA 55 
02ff8     AA 55 AA 55 
02ffc     BB EE BB EE 
03000     BB EE BB EE | 	byte	$aa, $55, $aa, $55, $aa, $55, $aa, $55, $bb, $ee, $bb, $ee, $bb, $ee, $bb, $ee
03004     BB EE BB EE 
03008     BB EE BB EE 
0300c     18 18 18 18 
03010     18 18 18 18 | 	byte	$bb, $ee, $bb, $ee, $bb, $ee, $bb, $ee, $18, $18, $18, $18, $18, $18, $18, $18
03014     18 18 18 18 
03018     18 18 18 18 
0301c     18 18 18 18 
03020     18 18 18    | 	byte	$18[15]
03023     1F 18 18 18 
03027     18 18 18 18 
0302b     18 30 18 00 
0302f     08 1C 36 63 | 	byte	$1f, $18, $18, $18, $18, $18, $18, $18, $18, $30, $18, $00, $08, $1c, $36, $63
03033     63 7F 63 63 
03037     63 63 00 00 
0303b     00 1C 36 00 
0303f     08 1C 36 63 | 	byte	$63, $7f, $63, $63, $63, $63, $00, $00, $00, $1c, $36, $00, $08, $1c, $36, $63
03043     63 7F 63 63 
03047     63 63 00 00 
0304b     00 36 1C 00 
0304f     7F 66 46 16 | 	byte	$63, $7f, $63, $63, $63, $63, $00, $00, $00, $36, $1c, $00, $7f, $66, $46, $16
03053     1E 16 06 46 
03057     66 7F 00 00 
0305b     00 00 00 00 
0305f     3E 63 63 06 | 	byte	$1e, $16, $06, $46, $66, $7f, $00, $00, $00, $00, $00, $00, $3e, $63, $63, $06
03063     1C 30 60 63 
03067     63 3E 18 30 
0306b     1E 6C 6C 6C 
0306f     6C 6C 6F 60 | 	byte	$1c, $30, $60, $63, $63, $3e, $18, $30, $1e, $6c, $6c, $6c, $6c, $6c, $6f, $60
03073     6F 6C 6C 6C 
03077     6C 6C 6C 6C 
0307b     6C 6C 6C 6C 
0307f     6C 6C 6C 6C | 	byte	$6f, $6c, $6c, $6c, $6c, $6c, $6c, $6c, $6c, $6c, $6c, $6c, $6c, $6c, $6c, $6c
03083     6C 6C 6C 6C 
03087     6C 6C 6C 6C 
0308b     6C          | 	byte	$6c[9]
0308c     00 00 00 00 
03090     00          | 	byte	$00[5]
03091     7F 60 6F 6C 
03095     6C 6C 6C 6C 
03099     6C 6C 6C 6C 
0309d     6C 6C 6C 6C | 	byte	$7f, $60, $6f, $6c, $6c, $6c, $6c, $6c, $6c, $6c, $6c, $6c, $6c, $6c, $6c, $6c
030a1     6F 60 7F 00 
030a5     00 00 00 00 
030a9     00 00 00 18 
030ad     18 00 7F 63 | 	byte	$6f, $60, $7f, $00, $00, $00, $00, $00, $00, $00, $00, $18, $18, $00, $7f, $63
030b1     61 30 18 0C 
030b5     06 43 63 7F 
030b9     00 00 00 00 
030bd     00 00 18 18 | 	byte	$61, $30, $18, $0c, $06, $43, $63, $7f, $00, $00, $00, $00, $00, $00, $18, $18
030c1     00 7F 33 18 
030c5     0C 06 63 7F 
030c9     00 00 00 00 
030cd     00 00 00 00 | 	byte	$00, $7f, $33, $18, $0c, $06, $63, $7f, $00, $00, $00, $00, $00, $00, $00, $00
030d1     00 00 1F 18 
030d5     18 18 18 18 
030d9     18 18 18 18 
030dd     18 18 18 18 | 	byte	$00, $00, $1f, $18, $18, $18, $18, $18, $18, $18, $18, $18, $18, $18, $18, $18
030e1     18 18 F8 00 
030e5     00 00 00 00 
030e9     00 00 00 18 
030ed     18 18 18 18 | 	byte	$18, $18, $f8, $00, $00, $00, $00, $00, $00, $00, $00, $18, $18, $18, $18, $18
030f1     18 18 FF 00 
030f5     00 00 00 00 
030f9     00 00 00 00 
030fd     00 00 00 00 | 	byte	$18, $18, $ff, $00, $00, $00, $00, $00, $00, $00, $00, $00, $00, $00, $00, $00
03101     00 00 FF 18 
03105     18 18 18 18 
03109     18 18 18 18 
0310d     18 18 18 18 | 	byte	$00, $00, $ff, $18, $18, $18, $18, $18, $18, $18, $18, $18, $18, $18, $18, $18
03111     18 18 F8 18 
03115     18 18 18 18 
03119     18 18 18 00 
0311d     00 00 00 00 | 	byte	$18, $18, $f8, $18, $18, $18, $18, $18, $18, $18, $18, $00, $00, $00, $00, $00
03121     00 00 FF 00 
03125     00 00 00 00 
03129     00 00 00 18 
0312d     18 18 18 18 | 	byte	$00, $00, $ff, $00, $00, $00, $00, $00, $00, $00, $00, $18, $18, $18, $18, $18
03131     18 18 FF 18 
03135     18 18 18 18 
03139     18 18 18 63 
0313d     3E 00 08 1C | 	byte	$18, $18, $ff, $18, $18, $18, $18, $18, $18, $18, $18, $63, $3e, $00, $08, $1c
03141     36 63 63 7F 
03145     63 63 63 63 
03149     00 00 00 00 
0314d     00 00 63 3E | 	byte	$36, $63, $63, $7f, $63, $63, $63, $63, $00, $00, $00, $00, $00, $00, $63, $3e
03151     00 1E 30 3E 
03155     33 33 33 6E 
03159     00 00 00 6C 
0315d     6C 6C 6C 6C | 	byte	$00, $1e, $30, $3e, $33, $33, $33, $6e, $00, $00, $00, $6c, $6c, $6c, $6c, $6c
03161     EC 0C FC 00 
03165     00 00 00 00 
03169     00 00 00 00 
0316d     00 00 00 00 | 	byte	$ec, $0c, $fc, $00, $00, $00, $00, $00, $00, $00, $00, $00, $00, $00, $00, $00
03171     FC 0C EC 6C 
03175     6C 6C 6C 6C 
03179     6C 6C 6C 6C 
0317d     6C 6C 6C 6C | 	byte	$fc, $0c, $ec, $6c, $6c, $6c, $6c, $6c, $6c, $6c, $6c, $6c, $6c, $6c, $6c, $6c
03181     EF 00 FF 00 
03185     00 00 00 00 
03189     00 00 00 00 
0318d     00 00 00 00 | 	byte	$ef, $00, $ff, $00, $00, $00, $00, $00, $00, $00, $00, $00, $00, $00, $00, $00
03191     FF 00 EF 6C 
03195     6C 6C 6C 6C 
03199     6C 6C 6C 6C 
0319d     6C 6C 6C 6C | 	byte	$ff, $00, $ef, $6c, $6c, $6c, $6c, $6c, $6c, $6c, $6c, $6c, $6c, $6c, $6c, $6c
031a1     EC 0C EC 6C 
031a5     6C 6C 6C 6C 
031a9     6C 6C 6C 00 
031ad     00 00 00 00 | 	byte	$ec, $0c, $ec, $6c, $6c, $6c, $6c, $6c, $6c, $6c, $6c, $00, $00, $00, $00, $00
031b1     FF 00 FF 00 
031b5     00 00 00 00 
031b9     00 00 00 6C 
031bd     6C 6C 6C 6C | 	byte	$ff, $00, $ff, $00, $00, $00, $00, $00, $00, $00, $00, $6c, $6c, $6c, $6c, $6c
031c1     EF 00 EF 6C 
031c5     6C 6C 6C 6C 
031c9     6C 6C 6C 00 
031cd     00 00 00 00 | 	byte	$ef, $00, $ef, $6c, $6c, $6c, $6c, $6c, $6c, $6c, $6c, $00, $00, $00, $00, $00
031d1     63 3E 63 63 
031d5     63 63 3E 63 
031d9     00 00 00 00 
031dd     00 00 30 7E | 	byte	$63, $3e, $63, $63, $63, $63, $3e, $63, $00, $00, $00, $00, $00, $00, $30, $7e
031e1     30 3C 36 33 
031e5     33 33 33 6E 
031e9     00 00 00 00 
031ed     00 00 1F 36 | 	byte	$30, $3c, $36, $33, $33, $33, $33, $6e, $00, $00, $00, $00, $00, $00, $1f, $36
031f1     66 66 6F 66 
031f5     66 66 36 1F 
031f9     00 00 00 36 
031fd     1C 00 1F 36 | 	byte	$66, $66, $6f, $66, $66, $66, $36, $1f, $00, $00, $00, $36, $1c, $00, $1f, $36
03201     66 66 66 66 
03205     66 66       | 	byte	$66[6]
03207     36 1F 00 00 
0320b     00 00 63 00 
0320f     7F 66 46 16 
03213     1E 16 06 46 | 	byte	$36, $1f, $00, $00, $00, $00, $63, $00, $7f, $66, $46, $16, $1e, $16, $06, $46
03217     66 7F 00 00 
0321b     00 6C 38 00 
0321f     38 30 30 3C 
03223     36 33 33 33 | 	byte	$66, $7f, $00, $00, $00, $6c, $38, $00, $38, $30, $30, $3c, $36, $33, $33, $33
03227     33 6E 00 00 
0322b     00 36 1C 00 
0322f     63 67 6F 7F 
03233     7B 73 63 63 | 	byte	$33, $6e, $00, $00, $00, $36, $1c, $00, $63, $67, $6f, $7f, $7b, $73, $63, $63
03237     63 63 00 00 
0323b     00 30 18 00 
0323f     3C 18 18 18 
03243     18 18 18 18 | 	byte	$63, $63, $00, $00, $00, $30, $18, $00, $3c, $18, $18, $18, $18, $18, $18, $18
03247     18 3C 00 00 
0324b     00 3C 66 00 
0324f     3C 18 18 18 
03253     18 18 18 18 | 	byte	$18, $3c, $00, $00, $00, $3c, $66, $00, $3c, $18, $18, $18, $18, $18, $18, $18
03257     18 3C 00 00 
0325b     00 00 00 36 
0325f     1C 08 00 3E 
03263     63 7F 03 03 | 	byte	$18, $3c, $00, $00, $00, $00, $00, $36, $1c, $08, $00, $3e, $63, $7f, $03, $03
03267     63 3E 00 00 
0326b     00 18 18 18 
0326f     18 18 18 18 
03273     1F 00 00 00 | 	byte	$63, $3e, $00, $00, $00, $18, $18, $18, $18, $18, $18, $18, $1f, $00, $00, $00
03277     00 00 00 00 
0327b     00 00 00 00 
0327f     00 00 00 00 | 	byte	$00[12]
03283     F8 18 18 18 
03287     18 18 18 18 
0328b     18 FF FF FF 
0328f     FF FF FF FF | 	byte	$f8, $18, $18, $18, $18, $18, $18, $18, $18, $ff, $ff, $ff, $ff, $ff, $ff, $ff
03293     FF FF FF FF 
03297     FF FF FF FF 
0329b     FF          | 	byte	$ff[9]
0329c     00 00 00 00 
032a0     00 00 00    | 	byte	$00[7]
032a3     FF FF FF FF 
032a7     FF FF FF FF 
032ab     FF          | 	byte	$ff[9]
032ac     00 00 00 7E 
032b0     7E 5A 18 18 
032b4     18 18 18 18 
032b8     3C 18 30 1E | 	byte	$00, $00, $00, $7e, $7e, $5a, $18, $18, $18, $18, $18, $18, $3c, $18, $30, $1e
032bc     1C 36 1C 63 
032c0     63 63 63 63 
032c4     63 63 63 63 
032c8     3E 00 00 00 | 	byte	$1c, $36, $1c, $63, $63, $63, $63, $63, $63, $63, $63, $63, $3e, $00, $00, $00
032cc     FF FF FF FF 
032d0     FF FF FF    | 	byte	$ff[7]
032d3     00 00 00 00 
032d7     00 00 00 00 
032db     00          | 	byte	$00[9]
032dc     30 18 00 3E 
032e0     63 63 63 63 
032e4     63 63 63 63 
032e8     3E 00 00 00 | 	byte	$30, $18, $00, $3e, $63, $63, $63, $63, $63, $63, $63, $63, $3e, $00, $00, $00
032ec     00 00 00 1E 
032f0     33 33 33 1B 
032f4     33 63 63 63 
032f8     33 00 00 00 | 	byte	$00, $00, $00, $1e, $33, $33, $33, $1b, $33, $63, $63, $63, $33, $00, $00, $00
032fc     1C 36 00 3E 
03300     63 63 63 63 
03304     63 63 63 63 
03308     3E 00 00 00 | 	byte	$1c, $36, $00, $3e, $63, $63, $63, $63, $63, $63, $63, $63, $3e, $00, $00, $00
0330c     30 18 00 63 
03310     67 6F 7F 7B 
03314     73 63 63 63 
03318     63 00 00 00 | 	byte	$30, $18, $00, $63, $67, $6f, $7f, $7b, $73, $63, $63, $63, $63, $00, $00, $00
0331c     00 00 60 30 
03320     18 00 3B 66 
03324     66 66 66 66 
03328     66 00 00 00 | 	byte	$00, $00, $60, $30, $18, $00, $3b, $66, $66, $66, $66, $66, $66, $00, $00, $00
0332c     00 00 36 1C 
03330     08 00 3B 66 
03334     66 66 66 66 
03338     66 00 00 00 | 	byte	$00, $00, $36, $1c, $08, $00, $3b, $66, $66, $66, $66, $66, $66, $00, $00, $00
0333c     36 1C 00 3E 
03340     63 63 06 1C 
03344     30 60 63 63 
03348     3E 00 00 00 | 	byte	$36, $1c, $00, $3e, $63, $63, $06, $1c, $30, $60, $63, $63, $3e, $00, $00, $00
0334c     00 00 36 1C 
03350     08 00 3E 63 
03354     06 1C 30 63 
03358     3E 00 00 00 | 	byte	$00, $00, $36, $1c, $08, $00, $3e, $63, $06, $1c, $30, $63, $3e, $00, $00, $00
0335c     30 18 00 3F 
03360     66 66 66 3E 
03364     36 66 66 66 
03368     6F 00 00 00 | 	byte	$30, $18, $00, $3f, $66, $66, $66, $3e, $36, $66, $66, $66, $6f, $00, $00, $00
0336c     30 18 00 63 
03370     63 63 63 63 
03374     63 63 63 63 
03378     3E 00 00 00 | 	byte	$30, $18, $00, $63, $63, $63, $63, $63, $63, $63, $63, $63, $3e, $00, $00, $00
0337c     00 00 60 30 
03380     18 00 3B 6E 
03384     66 06 06 06 
03388     0F 00 00 00 | 	byte	$00, $00, $60, $30, $18, $00, $3b, $6e, $66, $06, $06, $06, $0f, $00, $00, $00
0338c     66 33 00 63 
03390     63 63 63 63 
03394     63 63 63 63 
03398     3E 00 00 00 | 	byte	$66, $33, $00, $63, $63, $63, $63, $63, $63, $63, $63, $63, $3e, $00, $00, $00
0339c     00 00 60 30 
033a0     18 00 63 63 
033a4     63 63 63 63 
033a8     7E 60 30 1F | 	byte	$00, $00, $60, $30, $18, $00, $63, $63, $63, $63, $63, $63, $7e, $60, $30, $1f
033ac     30 18 00 66 
033b0     66 66 66 3C 
033b4     18 18 18 18 
033b8     3C 00 00 00 | 	byte	$30, $18, $00, $66, $66, $66, $66, $3c, $18, $18, $18, $18, $3c, $00, $00, $00
033bc     00 00 00 08 
033c0     0C 0C 3F 0C 
033c4     0C 0C 0C 6C 
033c8     38 18 30 1E | 	byte	$00, $00, $00, $08, $0c, $0c, $3f, $0c, $0c, $0c, $0c, $6c, $38, $18, $30, $1e
033cc     30 18 00 00 
033d0     00 00 00 00 
033d4     00 00 00 00 
033d8     00 00 00 00 | 	byte	$30, $18, $00, $00, $00, $00, $00, $00, $00, $00, $00, $00, $00, $00, $00, $00
033dc     00 00 00 00 
033e0     00 00 00 00 | 	byte	$00[8]
033e4     7F 00 00 00 
033e8     00 00 00 00 
033ec     66 33 00 00 
033f0     00 00 00 00 | 	byte	$7f, $00, $00, $00, $00, $00, $00, $00, $66, $33, $00, $00, $00, $00, $00, $00
033f4     00 00 00 00 
033f8     00 00 00 00 
033fc     00 00 00 00 
03400     00 00 00 00 
03404     00 00 00 00 
03408     00          | 	byte	$00[21]
03409     0C 06 3C 36 
0340d     1C 00 00 00 
03411     00 00 00 00 
03415     00 00 00 00 | 	byte	$0c, $06, $3c, $36, $1c, $00, $00, $00, $00, $00, $00, $00, $00, $00, $00, $00
03419     00 00 00 63 
0341d     3E 00 00 00 
03421     00 00 00 00 
03425     00 00 00 00 | 	byte	$00, $00, $00, $63, $3e, $00, $00, $00, $00, $00, $00, $00, $00, $00, $00, $00
03429     00 00 00 00 
0342d     3E 63 06 1C 
03431     36 63 63 36 
03435     1C 30 63 3E | 	byte	$00, $00, $00, $00, $3e, $63, $06, $1c, $36, $63, $63, $36, $1c, $30, $63, $3e
03439     00 00 00 00 
0343d     00 00 00 00 | 	byte	$00[8]
03441     18 00 7E 00 
03445     18 00 00 00 
03449     00 00 00 00 
0344d     00 00 00 00 | 	byte	$18, $00, $7e, $00, $18, $00, $00, $00, $00, $00, $00, $00, $00, $00, $00, $00
03451     00 00 00 00 
03455     00 00 00 00 | 	byte	$00[8]
03459     18 30 1E 00 
0345d     00 00 1C 36 
03461     36 1C 00 00 
03465     00 00 00 00 | 	byte	$18, $30, $1e, $00, $00, $00, $1c, $36, $36, $1c, $00, $00, $00, $00, $00, $00
03469     00 00 00 00 
0346d     63 00 00 00 
03471     00 00 00 00 
03475     00 00 00 00 | 	byte	$00, $00, $00, $00, $63, $00, $00, $00, $00, $00, $00, $00, $00, $00, $00, $00
03479     00 00 00 18 
0347d     18 00 00 00 
03481     00 00 00 00 
03485     00 00 00 00 | 	byte	$00, $00, $00, $18, $18, $00, $00, $00, $00, $00, $00, $00, $00, $00, $00, $00
03489     00 00 00 00 
0348d     00          | 	byte	$00[5]
0348e     CC 66 33 00 
03492     33 33 33 33 
03496     33 33 6E 00 
0349a     00 00 36 1C | 	byte	$cc, $66, $33, $00, $33, $33, $33, $33, $33, $33, $6e, $00, $00, $00, $36, $1c
0349e     00 3F 66 66 
034a2     66 3E 36 66 
034a6     66 66 6F 00 
034aa     00 00 00 00 | 	byte	$00, $3f, $66, $66, $66, $3e, $36, $66, $66, $66, $6f, $00, $00, $00, $00, $00
034ae     36 1C 08 00 
034b2     3B 6E 66 06 
034b6     06 06 0F 00 
034ba     00 00 00 00 | 	byte	$36, $1c, $08, $00, $3b, $6e, $66, $06, $06, $06, $0f, $00, $00, $00, $00, $00
034be     00 00 00 7E 
034c2     7E 7E 7E 7E 
034c6     7E 7E 00 00 
034ca     00 00 00 00 | 	byte	$00, $00, $00, $7e, $7e, $7e, $7e, $7e, $7e, $7e, $00, $00, $00, $00, $00, $00
034ce     00 00 00 00 
034d2     00 00 00 00 
034d6     00 00 00 00 
034da     00 00       | 	byte	$00, $00, $00, $00, $00, $00, $00, $00, $00, $00, $00, $00, $00, $00
034dc     00 00 00 00 
      ...             
0350c     00 00 00 00 
03510     00 00 00    | st_font        file "st4font.def"
03513     FF FF 00 00 
03517     00 00 00 00 
0351b     00 18 18 18 
0351f     18 18 18 18 | 	byte	$ff, $ff, $00, $00, $00, $00, $00, $00, $00, $18, $18, $18, $18, $18, $18, $18
03523     18 18 18 18 
03527     18 18 18 18 
0352b     18          | 	byte	$18[9]
0352c     00 00 00 00 
03530     00 00 00    | 	byte	$00[7]
03533     FF FF 18 18 
03537     18 18 18 18 
0353b     18 18 18 18 
0353f     18 18 18 18 | 	byte	$ff, $ff, $18, $18, $18, $18, $18, $18, $18, $18, $18, $18, $18, $18, $18, $18
03543     FF FF 00 00 
03547     00 00 00 00 
0354b     00 18 18 18 
0354f     18 18 18 18 | 	byte	$ff, $ff, $00, $00, $00, $00, $00, $00, $00, $18, $18, $18, $18, $18, $18, $18
03553     1F 1F 18 18 
03557     18 18 18 18 
0355b     18 18 18 18 
0355f     18 18 18 18 | 	byte	$1f, $1f, $18, $18, $18, $18, $18, $18, $18, $18, $18, $18, $18, $18, $18, $18
03563     F8 F8 18 18 
03567     18 18 18 18 
0356b     18 00 00 00 
0356f     00 00 00 00 | 	byte	$f8, $f8, $18, $18, $18, $18, $18, $18, $18, $00, $00, $00, $00, $00, $00, $00
03573     1F 1F 18 18 
03577     18 18 18 18 
0357b     18 00 00 00 
0357f     00 00 00 00 | 	byte	$1f, $1f, $18, $18, $18, $18, $18, $18, $18, $00, $00, $00, $00, $00, $00, $00
03583     F8 F8 18 18 
03587     18 18 18 18 
0358b     18 18 18 18 
0358f     18 18 18 18 | 	byte	$f8, $f8, $18, $18, $18, $18, $18, $18, $18, $18, $18, $18, $18, $18, $18, $18
03593     1F 1F 00 00 
03597     00 00 00 00 
0359b     00 18 18 18 
0359f     18 18 18 18 | 	byte	$1f, $1f, $00, $00, $00, $00, $00, $00, $00, $18, $18, $18, $18, $18, $18, $18
035a3     F8 F8 00 00 
035a7     00 00 00 00 
035ab     00 18 18 18 
035af     18 18 18 18 | 	byte	$f8, $f8, $00, $00, $00, $00, $00, $00, $00, $18, $18, $18, $18, $18, $18, $18
035b3     FF FF 18 18 
035b7     18 18 18 18 
035bb     18 00 00 18 
035bf     3C 7E 66 66 | 	byte	$ff, $ff, $18, $18, $18, $18, $18, $18, $18, $00, $00, $18, $3c, $7e, $66, $66
035c3     66 7E 7E 66 
035c7     66 66 66 30 
035cb     18 00 00 7E 
035cf     7E 06 06 3E | 	byte	$66, $7e, $7e, $66, $66, $66, $66, $30, $18, $00, $00, $7e, $7e, $06, $06, $3e
035d3     3E 06 06 06 
035d7     06 7E 7E 18 
035db     0C 30 18 3C 
035df     7E 66 66 06 | 	byte	$3e, $06, $06, $06, $06, $7e, $7e, $18, $0c, $30, $18, $3c, $7e, $66, $66, $06
035e3     06 06 06 66 
035e7     66 7E 3C 00 
035eb     00 30 18 66 
035ef     66 66 6E 6E | 	byte	$06, $06, $06, $66, $66, $7e, $3c, $00, $00, $30, $18, $66, $66, $66, $6e, $6e
035f3     7E 7E 76 76 
035f7     66 66 66 00 
035fb     00 30 18 7C 
035ff     7E 06 06 0E | 	byte	$7e, $7e, $76, $76, $66, $66, $66, $00, $00, $30, $18, $7c, $7e, $06, $06, $0e
03603     1C 38 70 60 
03607     60 7E 3E 00 
0360b     00 30 18 7E 
0360f     7E 30 30 18 | 	byte	$1c, $38, $70, $60, $60, $7e, $3e, $00, $00, $30, $18, $7e, $7e, $30, $30, $18
03613     18 0C 0C 06 
03617     06 7E 7E 00 
0361b     00 18 18 00 
0361f     7E 7E 30 30 | 	byte	$18, $0c, $0c, $06, $06, $7e, $7e, $00, $00, $18, $18, $00, $7e, $7e, $30, $30
03623     18 18 0C 0C 
03627     06 7E 7E 00 
0362b     00 30 18 3C 
0362f     7E 66 66 66 | 	byte	$18, $18, $0c, $0c, $06, $7e, $7e, $00, $00, $30, $18, $3c, $7e, $66, $66, $66
03633     66 66 66 66 
03637     66          | 	byte	$66[5]
03638     7E 3C 00 00 
0363c     00 00 06 06 
03640     06 06 16 1E 
03644     0E 06 06 06 | 	byte	$7e, $3c, $00, $00, $00, $00, $06, $06, $06, $06, $16, $1e, $0e, $06, $06, $06
03648     7E 7E 00 00 
0364c     00 00 00 00 
03650     00 3C 7C 60 
03654     7C 7E 66 66 | 	byte	$7e, $7e, $00, $00, $00, $00, $00, $00, $00, $3c, $7c, $60, $7c, $7e, $66, $66
03658     7E 7C 30 18 
0365c     00 00 00 00 
03660     00 3C 7E 66 
03664     66 7E 06 06 | 	byte	$7e, $7c, $30, $18, $00, $00, $00, $00, $00, $3c, $7e, $66, $66, $7e, $06, $06
03668     7E 7C 18 0C 
0366c     00 00 30 18 
03670     00 3C 3E 06 
03674     06 06 06 06 | 	byte	$7e, $7c, $18, $0c, $00, $00, $30, $18, $00, $3c, $3e, $06, $06, $06, $06, $06
03678     7E 7C 00 00 
0367c     00 00 30 18 
03680     00 3E 7E 66 
03684     66 66 66 66 | 	byte	$7e, $7c, $00, $00, $00, $00, $30, $18, $00, $3e, $7e, $66, $66, $66, $66, $66
03688     66 66 00 00 
0368c     00 00 30 18 
03690     00 7C 7E 06 
03694     0E 3C 70 60 | 	byte	$66, $66, $00, $00, $00, $00, $30, $18, $00, $7c, $7e, $06, $0e, $3c, $70, $60
03698     7E 3E 00 00 
0369c     00 00 30 18 
036a0     00 7E 7E 30 
036a4     18 18 0C 0C | 	byte	$7e, $3e, $00, $00, $00, $00, $30, $18, $00, $7e, $7e, $30, $18, $18, $0c, $0c
036a8     7E 7E 00 00 
036ac     00 00 18 18 
036b0     00 7E 7E 30 
036b4     18 18 0C 0C | 	byte	$7e, $7e, $00, $00, $00, $00, $18, $18, $00, $7e, $7e, $30, $18, $18, $0c, $0c
036b8     7E 7E 00 00 
036bc     00 00 30 18 
036c0     00 3C 7E 66 
036c4     66 66 66 66 | 	byte	$7e, $7e, $00, $00, $00, $00, $30, $18, $00, $3c, $7e, $66, $66, $66, $66, $66
036c8     7E 3C 00 00 
036cc     00 00 1C 1C 
036d0     18 18 38 3C 
036d4     1C 18 18 18 | 	byte	$7e, $3c, $00, $00, $00, $00, $1c, $1c, $18, $18, $38, $3c, $1c, $18, $18, $18
036d8     3C 3C 00 00 
036dc     00 00 00 00 
036e0     00 00 00 00 
036e4     00 00 00 00 | 	byte	$3c, $3c, $00, $00, $00, $00, $00, $00, $00, $00, $00, $00, $00, $00, $00, $00
036e8     00 00 00 00 
036ec     00 00       | 	byte	$00[6]
036ee     18 18 18 18 
036f2     18 18 18 18 | 	byte	$18[8]
036f6     00 00 18 18 
036fa     00 00 00 00 
036fe     66 66 66 66 
03702     00 00 00 00 | 	byte	$00, $00, $18, $18, $00, $00, $00, $00, $66, $66, $66, $66, $00, $00, $00, $00
03706     00 00 00 00 
0370a     00 00 00 00 
0370e     00          | 	byte	$00[9]
0370f     66 66 FF FF 
03713     66 66 FF FF 
03717     66 66 00 00 
0371b     00 00 18 18 | 	byte	$66, $66, $ff, $ff, $66, $66, $ff, $ff, $66, $66, $00, $00, $00, $00, $18, $18
0371f     7C 7E 06 06 
03723     3E 7C 60 60 
03727     7E 3E 18 18 
0372b     00 00 00 66 | 	byte	$7c, $7e, $06, $06, $3e, $7c, $60, $60, $7e, $3e, $18, $18, $00, $00, $00, $66
0372f     66 30 30 18 
03733     18 0C 0C 66 
03737     66 00 00 00 
0373b     00 00 3C 7E | 	byte	$66, $30, $30, $18, $18, $0c, $0c, $66, $66, $00, $00, $00, $00, $00, $3c, $7e
0373f     66 66 3C 1C 
03743     1C FC FE 66 
03747     66 FE FC 00 
0374b     00 00 00 18 | 	byte	$66, $66, $3c, $1c, $1c, $fc, $fe, $66, $66, $fe, $fc, $00, $00, $00, $00, $18
0374f     18 18 18 18 
03753     00 00 00 00 
03757     00 00 00 00 
0375b     00 00 00 30 | 	byte	$18, $18, $18, $18, $00, $00, $00, $00, $00, $00, $00, $00, $00, $00, $00, $30
0375f     18 1C 0C 0C 
03763     0C 0C 0C 0C 
03767     1C 18 30 00 
0376b     00 00 00 0C | 	byte	$18, $1c, $0c, $0c, $0c, $0c, $0c, $0c, $1c, $18, $30, $00, $00, $00, $00, $0c
0376f     18 38 30 30 
03773     30 30 30 30 
03777     38 18 0C 00 
0377b     00 00 00 00 | 	byte	$18, $38, $30, $30, $30, $30, $30, $30, $38, $18, $0c, $00, $00, $00, $00, $00
0377f     66 66 3C 3C 
03783     FF FF 3C 3C 
03787     66 66 00 00 
0378b     00 00 00 00 | 	byte	$66, $66, $3c, $3c, $ff, $ff, $3c, $3c, $66, $66, $00, $00, $00, $00, $00, $00
0378f     00 18 18 18 
03793     7E 7E 18 18 
03797     18 00 00 00 
0379b     00 00 00 00 | 	byte	$00, $18, $18, $18, $7e, $7e, $18, $18, $18, $00, $00, $00, $00, $00, $00, $00
0379f     00 00 00 00 
037a3     00 00       | 	byte	$00[6]
037a5     18 18 18 18 
037a9     18          | 	byte	$18[5]
037aa     0C 04 00 00 
037ae     00 00 00 00 
037b2     7E 7E 00 00 
037b6     00 00 00 00 | 	byte	$0c, $04, $00, $00, $00, $00, $00, $00, $7e, $7e, $00, $00, $00, $00, $00, $00
037ba     00 00 00 00 
037be     00 00 00 00 
037c2     00 00 00 00 
037c6     00          | 	byte	$00[13]
037c7     18 18 18 00 
037cb     00 00 00 60 
037cf     60 60 30 30 
037d3     18 18 0C 0C | 	byte	$18, $18, $18, $00, $00, $00, $00, $60, $60, $60, $30, $30, $18, $18, $0c, $0c
037d7     06 06 06 00 
037db     00 00 00 3C 
037df     7E 66 66 66 
037e3     76 6E 66 66 | 	byte	$06, $06, $06, $00, $00, $00, $00, $3c, $7e, $66, $66, $66, $76, $6e, $66, $66
037e7     66 7E 3C 00 
037eb     00 00 00 18 
037ef     18 1C 1C 18 
037f3     18 18 18 18 | 	byte	$66, $7e, $3c, $00, $00, $00, $00, $18, $18, $1c, $1c, $18, $18, $18, $18, $18
037f7     18 7E 7E 00 
037fb     00 00 00 3C 
037ff     7E 66 66 30 
03803     30 18 18 0C | 	byte	$18, $7e, $7e, $00, $00, $00, $00, $3c, $7e, $66, $66, $30, $30, $18, $18, $0c
03807     0C 7E 7E 00 
0380b     00 00 00 7E 
0380f     7E 30 30 18 
03813     18 30 30 66 | 	byte	$0c, $7e, $7e, $00, $00, $00, $00, $7e, $7e, $30, $30, $18, $18, $30, $30, $66
03817     66 7E 3C 00 
0381b     00 00 00 30 
0381f     30 38 38 3C 
03823     3C 36 36 7E | 	byte	$66, $7e, $3c, $00, $00, $00, $00, $30, $30, $38, $38, $3c, $3c, $36, $36, $7e
03827     7E 30 30 00 
0382b     00 00 00 7E 
0382f     7E 06 06 3E 
03833     7E 60 60 60 | 	byte	$7e, $30, $30, $00, $00, $00, $00, $7e, $7e, $06, $06, $3e, $7e, $60, $60, $60
03837     66 7E 3C 00 
0383b     00 00 00 38 
0383f     3C 0E 06 06 
03843     3E 7E 66 66 | 	byte	$66, $7e, $3c, $00, $00, $00, $00, $38, $3c, $0e, $06, $06, $3e, $7e, $66, $66
03847     66 7E 3C 00 
0384b     00 00 00 7E 
0384f     7E 60 60 30 
03853     30 18 18 0C | 	byte	$66, $7e, $3c, $00, $00, $00, $00, $7e, $7e, $60, $60, $30, $30, $18, $18, $0c
03857     0C 0C 0C 00 
0385b     00 00 00 3C 
0385f     7E 66 66 3C 
03863     3C 66 66 66 | 	byte	$0c, $0c, $0c, $00, $00, $00, $00, $3c, $7e, $66, $66, $3c, $3c, $66, $66, $66
03867     66 7E 3C 00 
0386b     00 00 00 3C 
0386f     7E 66 66 7E 
03873     7C 60 60 60 | 	byte	$66, $7e, $3c, $00, $00, $00, $00, $3c, $7e, $66, $66, $7e, $7c, $60, $60, $60
03877     70 3C 1C 00 
0387b     00 00 00 00 
0387f     00 00 18 18 
03883     18 00 00 00 | 	byte	$70, $3c, $1c, $00, $00, $00, $00, $00, $00, $00, $18, $18, $18, $00, $00, $00
03887     18 18 18 00 
0388b     00 00 00 00 
0388f     00 00 18 18 
03893     18 00 00 18 | 	byte	$18, $18, $18, $00, $00, $00, $00, $00, $00, $00, $18, $18, $18, $00, $00, $18
03897     18 18 18 0C 
0389b     04 00 00 00 
0389f     70 38 1C 0E 
038a3     07 0E 1C 38 | 	byte	$18, $18, $18, $0c, $04, $00, $00, $00, $70, $38, $1c, $0e, $07, $0e, $1c, $38
038a7     70 00 00 00 
038ab     00 00 00 00 
038af     00 00 7E 7E 
038b3     00 00 7E 7E | 	byte	$70, $00, $00, $00, $00, $00, $00, $00, $00, $00, $7e, $7e, $00, $00, $7e, $7e
038b7     00 00 00 00 
038bb     00 00 00 00 | 	byte	$00[8]
038bf     0E 1C 38 70 
038c3     E0 70 38 1C 
038c7     0E 00 00 00 
038cb     00 00 00 3C | 	byte	$0e, $1c, $38, $70, $e0, $70, $38, $1c, $0e, $00, $00, $00, $00, $00, $00, $3c
038cf     7E 66 66 30 
038d3     30 18 18 18 
038d7     00 18 18 00 
038db     00 00 00 3C | 	byte	$7e, $66, $66, $30, $30, $18, $18, $18, $00, $18, $18, $00, $00, $00, $00, $3c
038df     7E 66 66 66 
038e3     66 36 06 66 
038e7     66 7E 3C 00 
038eb     00 00 00 18 | 	byte	$7e, $66, $66, $66, $66, $36, $06, $66, $66, $7e, $3c, $00, $00, $00, $00, $18
038ef     3C 7E 66 66 
038f3     66 7E 7E 66 
038f7     66 66 66 00 
038fb     00 00 00 3E | 	byte	$3c, $7e, $66, $66, $66, $7e, $7e, $66, $66, $66, $66, $00, $00, $00, $00, $3e
038ff     7E 66 66 7E 
03903     3E 66 66 66 
03907     66 7E 3E 00 
0390b     00 00 00 3C | 	byte	$7e, $66, $66, $7e, $3e, $66, $66, $66, $66, $7e, $3e, $00, $00, $00, $00, $3c
0390f     7E 66 66 06 
03913     06 06 06 66 
03917     66 7E 3C 00 
0391b     00 00 00 3E | 	byte	$7e, $66, $66, $06, $06, $06, $06, $66, $66, $7e, $3c, $00, $00, $00, $00, $3e
0391f     7E 66 66 66 
03923     66 66 66 66 
03927     66 7E 3E 00 
0392b     00 00 00 7E | 	byte	$7e, $66, $66, $66, $66, $66, $66, $66, $66, $7e, $3e, $00, $00, $00, $00, $7e
0392f     7E 06 06 3E 
03933     3E 06 06 06 
03937     06 7E 7E 00 
0393b     00 00 00 7E | 	byte	$7e, $06, $06, $3e, $3e, $06, $06, $06, $06, $7e, $7e, $00, $00, $00, $00, $7e
0393f     7E 06 06 3E 
03943     3E 06 06 06 
03947     06 06 06 00 
0394b     00 00 00 7C | 	byte	$7e, $06, $06, $3e, $3e, $06, $06, $06, $06, $06, $06, $00, $00, $00, $00, $7c
0394f     7E 06 06 76 
03953     76 66 66 66 
03957     66 7E 3C 00 
0395b     00 00 00 66 | 	byte	$7e, $06, $06, $76, $76, $66, $66, $66, $66, $7e, $3c, $00, $00, $00, $00, $66
0395f     66 66 66 7E 
03963     7E 66 66 66 
03967     66 66 66 00 
0396b     00 00 00 7E | 	byte	$66, $66, $66, $7e, $7e, $66, $66, $66, $66, $66, $66, $00, $00, $00, $00, $7e
0396f     7E 18 18 18 
03973     18 18 18 18 
03977     18 7E 7E 00 
0397b     00 00 00 60 | 	byte	$7e, $18, $18, $18, $18, $18, $18, $18, $18, $7e, $7e, $00, $00, $00, $00, $60
0397f     60 60 60 60 
03983     60 60 60    | 	byte	$60[7]
03986     66 66 7E 3C 
0398a     00 00 00 00 
0398e     66 66 36 36 
03992     1E 1E 36 36 | 	byte	$66, $66, $7e, $3c, $00, $00, $00, $00, $66, $66, $36, $36, $1e, $1e, $36, $36
03996     66 66 C6 C6 
0399a     00 00 00 00 
0399e     06 06 06 06 
039a2     06 06 06 06 | 	byte	$66, $66, $c6, $c6, $00, $00, $00, $00, $06, $06, $06, $06, $06, $06, $06, $06
039a6     06 06 7E 7E 
039aa     00 00 00 00 
039ae     C6 C6 EE EE 
039b2     FE D6 D6 C6 | 	byte	$06, $06, $7e, $7e, $00, $00, $00, $00, $c6, $c6, $ee, $ee, $fe, $d6, $d6, $c6
039b6     C6 C6 C6 C6 
039ba     00 00 00 00 
039be     66 66 66 6E 
039c2     6E 7E 7E 76 | 	byte	$c6, $c6, $c6, $c6, $00, $00, $00, $00, $66, $66, $66, $6e, $6e, $7e, $7e, $76
039c6     76 66 66 66 
039ca     00 00 00 00 
039ce     3C 7E 66 66 
039d2     66 66 66 66 | 	byte	$76, $66, $66, $66, $00, $00, $00, $00, $3c, $7e, $66, $66, $66, $66, $66, $66
039d6     66 66 7E 3C 
039da     00 00 00 00 
039de     3E 7E 66 66 
039e2     66 66 7E 3E | 	byte	$66, $66, $7e, $3c, $00, $00, $00, $00, $3e, $7e, $66, $66, $66, $66, $7e, $3e
039e6     06 06 06 06 
039ea     00 00 00 00 
039ee     3C 7E 66 66 
039f2     66 66 66 66 | 	byte	$06, $06, $06, $06, $00, $00, $00, $00, $3c, $7e, $66, $66, $66, $66, $66, $66
039f6     66 56 3E 6C 
039fa     00 00 00 00 
039fe     3E 7E 66 66 
03a02     66 7E 3E 36 | 	byte	$66, $56, $3e, $6c, $00, $00, $00, $00, $3e, $7e, $66, $66, $66, $7e, $3e, $36
03a06     66 66 C6 C6 
03a0a     00 00 00 00 
03a0e     7C 7E 06 06 
03a12     0E 1C 38 70 | 	byte	$66, $66, $c6, $c6, $00, $00, $00, $00, $7c, $7e, $06, $06, $0e, $1c, $38, $70
03a16     60 60 7E 3E 
03a1a     00 00 00 00 
03a1e     7E 7E 18 18 
03a22     18 18 18 18 | 	byte	$60, $60, $7e, $3e, $00, $00, $00, $00, $7e, $7e, $18, $18, $18, $18, $18, $18
03a26     18 18 18 18 
03a2a     00 00 00 00 
03a2e     66 66 66 66 
03a32     66 66 66 66 | 	byte	$18, $18, $18, $18, $00, $00, $00, $00, $66, $66, $66, $66, $66, $66, $66, $66
03a36     66 66 7E 3C 
03a3a     00 00 00 00 
03a3e     66 66 66 66 
03a42     66 66 66 66 | 	byte	$66, $66, $7e, $3c, $00, $00, $00, $00, $66, $66, $66, $66, $66, $66, $66, $66
03a46     3C 3C 18 18 
03a4a     00 00 00 00 
03a4e     C6 C6 C6 C6 
03a52     C6 D6 D6 FE | 	byte	$3c, $3c, $18, $18, $00, $00, $00, $00, $c6, $c6, $c6, $c6, $c6, $d6, $d6, $fe
03a56     FE EE C6 82 
03a5a     00 00 00 00 
03a5e     66 66 66 3C 
03a62     3C 18 18 3C | 	byte	$fe, $ee, $c6, $82, $00, $00, $00, $00, $66, $66, $66, $3c, $3c, $18, $18, $3c
03a66     3C 66 66 66 
03a6a     00 00 00 00 
03a6e     66 66 66 66 
03a72     66 3C 3C 18 | 	byte	$3c, $66, $66, $66, $00, $00, $00, $00, $66, $66, $66, $66, $66, $3c, $3c, $18
03a76     18 18 18 18 
03a7a     00 00 00 00 
03a7e     7E 7E 30 30 
03a82     18 18 0C 0C | 	byte	$18, $18, $18, $18, $00, $00, $00, $00, $7e, $7e, $30, $30, $18, $18, $0c, $0c
03a86     06 06 7E 7E 
03a8a     00 00 00 00 
03a8e     3C 3C 0C 0C 
03a92     0C 0C 0C 0C | 	byte	$06, $06, $7e, $7e, $00, $00, $00, $00, $3c, $3c, $0c, $0c, $0c, $0c, $0c, $0c
03a96     0C 0C 3C 3C 
03a9a     00 00 00 00 
03a9e     06 06 0C 0C 
03aa2     18 18 30 30 | 	byte	$0c, $0c, $3c, $3c, $00, $00, $00, $00, $06, $06, $0c, $0c, $18, $18, $30, $30
03aa6     60 60 C0 C0 
03aaa     00 00 00 00 
03aae     3C 3C 30 30 
03ab2     30 30 30 30 | 	byte	$60, $60, $c0, $c0, $00, $00, $00, $00, $3c, $3c, $30, $30, $30, $30, $30, $30
03ab6     30 30 3C 3C 
03aba     00 00 00 00 
03abe     18 18 3C 3C 
03ac2     66 66 00 00 | 	byte	$30, $30, $3c, $3c, $00, $00, $00, $00, $18, $18, $3c, $3c, $66, $66, $00, $00
03ac6     00 00 00 00 
03aca     00 00 00 00 
03ace     00 00 00 00 
03ad2     00 00 00 00 
03ad6     00 00       | 	byte	$00[18]
03ad8     FE FE 00 00 
03adc     00 00 0C 0C 
03ae0     18 18 00 00 
03ae4     00 00 00 00 | 	byte	$fe, $fe, $00, $00, $00, $00, $0c, $0c, $18, $18, $00, $00, $00, $00, $00, $00
03ae8     00 00 00 00 
03aec     00 00 00 00 
03af0     00          | 	byte	$00[9]
03af1     3C 7C 60 7C 
03af5     7E 66 66 7E 
03af9     7C 00 00 00 
03afd     00 06 06 06 | 	byte	$3c, $7c, $60, $7c, $7e, $66, $66, $7e, $7c, $00, $00, $00, $00, $06, $06, $06
03b01     3E 7E 66 66 
03b05     66 66 66 7E 
03b09     3E 00 00 00 
03b0d     00 00 00 00 | 	byte	$3e, $7e, $66, $66, $66, $66, $66, $7e, $3e, $00, $00, $00, $00, $00, $00, $00
03b11     3C 3E 06 06 
03b15     06 06 06 7E 
03b19     7C 00 00 00 
03b1d     00 60 60 60 | 	byte	$3c, $3e, $06, $06, $06, $06, $06, $7e, $7c, $00, $00, $00, $00, $60, $60, $60
03b21     7C 7E 66 66 
03b25     66 66 66 7E 
03b29     7C 00 00 00 
03b2d     00 00 00 00 | 	byte	$7c, $7e, $66, $66, $66, $66, $66, $7e, $7c, $00, $00, $00, $00, $00, $00, $00
03b31     3C 7E 66 66 
03b35     7E 06 06 7E 
03b39     7C 00 00 00 
03b3d     00 70 78 18 | 	byte	$3c, $7e, $66, $66, $7e, $06, $06, $7e, $7c, $00, $00, $00, $00, $70, $78, $18
03b41     18 7E 7E 18 
03b45     18 18 18 18 
03b49     18 00 00 00 
03b4d     00 00 00 00 | 	byte	$18, $7e, $7e, $18, $18, $18, $18, $18, $18, $00, $00, $00, $00, $00, $00, $00
03b51     7C 7E 66 66 
03b55     66 66 7E 7C 
03b59     60 7E 3E 00 
03b5d     00 06 06 06 | 	byte	$7c, $7e, $66, $66, $66, $66, $7e, $7c, $60, $7e, $3e, $00, $00, $06, $06, $06
03b61     3E 7E 66 66 
03b65     66 66 66 66 
03b69     66 00 00 00 
03b6d     00 18 18 00 | 	byte	$3e, $7e, $66, $66, $66, $66, $66, $66, $66, $00, $00, $00, $00, $18, $18, $00
03b71     1C 1C 18 18 
03b75     18 18 18 3C 
03b79     3C 00 00 00 
03b7d     00 30 30 00 | 	byte	$1c, $1c, $18, $18, $18, $18, $18, $3c, $3c, $00, $00, $00, $00, $30, $30, $00
03b81     30 30 30 30 
03b85     30 30 30 30 
03b89     30          | 	byte	$30[9]
03b8a     3E 1E 00 00 
03b8e     06 06 06 36 
03b92     36 1E 1E 1E 
03b96     36 36 66 66 | 	byte	$3e, $1e, $00, $00, $06, $06, $06, $36, $36, $1e, $1e, $1e, $36, $36, $66, $66
03b9a     00 00 00 00 
03b9e     1C 1C 18 18 
03ba2     18 18 18 18 
03ba6     18 18 3C 3C | 	byte	$00, $00, $00, $00, $1c, $1c, $18, $18, $18, $18, $18, $18, $18, $18, $3c, $3c
03baa     00 00 00 00 
03bae     00 00 00    | 	byte	$00[7]
03bb1     6C FE FE D6 
03bb5     D6 C6 C6 C6 
03bb9     C6 00 00 00 
03bbd     00 00 00 00 | 	byte	$6c, $fe, $fe, $d6, $d6, $c6, $c6, $c6, $c6, $00, $00, $00, $00, $00, $00, $00
03bc1     3E 7E 66 66 
03bc5     66 66 66 66 
03bc9     66 00 00 00 
03bcd     00 00 00 00 | 	byte	$3e, $7e, $66, $66, $66, $66, $66, $66, $66, $00, $00, $00, $00, $00, $00, $00
03bd1     3C 7E 66 66 
03bd5     66 66 66 7E 
03bd9     3C 00 00 00 
03bdd     00 00 00 00 | 	byte	$3c, $7e, $66, $66, $66, $66, $66, $7e, $3c, $00, $00, $00, $00, $00, $00, $00
03be1     3E 7E 66 66 
03be5     66 66 66 7E 
03be9     3E 06 06 00 
03bed     00 00 00 00 | 	byte	$3e, $7e, $66, $66, $66, $66, $66, $7e, $3e, $06, $06, $00, $00, $00, $00, $00
03bf1     7C 7E 66 66 
03bf5     66 66 66 7E 
03bf9     7C 60 60 00 
03bfd     00 00 00 00 | 	byte	$7c, $7e, $66, $66, $66, $66, $66, $7e, $7c, $60, $60, $00, $00, $00, $00, $00
03c01     3E 7E 66 06 
03c05     06 06 06 06 
03c09     06 00 00 00 
03c0d     00 00 00 00 | 	byte	$3e, $7e, $66, $06, $06, $06, $06, $06, $06, $00, $00, $00, $00, $00, $00, $00
03c11     7C 7E 06 0E 
03c15     3C 70 60 7E 
03c19     3E 00 00 00 
03c1d     00 00 18 18 | 	byte	$7c, $7e, $06, $0e, $3c, $70, $60, $7e, $3e, $00, $00, $00, $00, $00, $18, $18
03c21     7E 7E 18 18 
03c25     18 18 18 78 
03c29     70 00 00 00 
03c2d     00 00 00 00 | 	byte	$7e, $7e, $18, $18, $18, $18, $18, $78, $70, $00, $00, $00, $00, $00, $00, $00
03c31     66 66 66 66 
03c35     66 66 66    | 	byte	$66[7]
03c38     7E 7C 00 00 
03c3c     00 00 00 00 
03c40     00 66 66 66 
03c44     66 66 3C 3C | 	byte	$7e, $7c, $00, $00, $00, $00, $00, $00, $00, $66, $66, $66, $66, $66, $3c, $3c
03c48     18 18 00 00 
03c4c     00 00 00 00 
03c50     00 C6 C6 D6 
03c54     D6 FE FE EE | 	byte	$18, $18, $00, $00, $00, $00, $00, $00, $00, $c6, $c6, $d6, $d6, $fe, $fe, $ee
03c58     C6 82 00 00 
03c5c     00 00 00 00 
03c60     00 66 66 3C 
03c64     3C 18 3C 3C | 	byte	$c6, $82, $00, $00, $00, $00, $00, $00, $00, $66, $66, $3c, $3c, $18, $3c, $3c
03c68     66 66 00 00 
03c6c     00 00 00 00 
03c70     00 66 66 66 
03c74     66 66 66 7E | 	byte	$66, $66, $00, $00, $00, $00, $00, $00, $00, $66, $66, $66, $66, $66, $66, $7e
03c78     7C 60 7E 3E 
03c7c     00 00 00 00 
03c80     00 7E 7E 30 
03c84     18 18 0C 0C | 	byte	$7c, $60, $7e, $3e, $00, $00, $00, $00, $00, $7e, $7e, $30, $18, $18, $0c, $0c
03c88     7E 7E 00 00 
03c8c     00 00 30 18 
03c90     18 18 18 0C 
03c94     0C 18 18 18 | 	byte	$7e, $7e, $00, $00, $00, $00, $30, $18, $18, $18, $18, $0c, $0c, $18, $18, $18
03c98     18 30 00 00 
03c9c     00 00 18 18 
03ca0     18 18 18 18 
03ca4     18 18 18 18 | 	byte	$18, $30, $00, $00, $00, $00, $18, $18, $18, $18, $18, $18, $18, $18, $18, $18
03ca8     18 18 00 00 
03cac     00 00 0C 18 
03cb0     18 18 18 30 
03cb4     30 18 18 18 | 	byte	$18, $18, $00, $00, $00, $00, $0c, $18, $18, $18, $18, $30, $30, $18, $18, $18
03cb8     18 0C 00 00 
03cbc     00 00 6C 7E 
03cc0     36 00 00 00 
03cc4     00 00 00 00 | 	byte	$18, $0c, $00, $00, $00, $00, $6c, $7e, $36, $00, $00, $00, $00, $00, $00, $00
03cc8     00 00 00 00 
03ccc     00 00 00 00 
03cd0     00          | 	byte	$00[9]
03cd1     18 18 18 18 
03cd5     18 18 00 00 
03cd9     00 00 00    | 	byte	$18, $18, $18, $18, $18, $18, $00, $00, $00, $00, $00
03cdc     00 00 00 00 
03ce0     00          | ataripalette   file "ataripalettep2.def"
03ce1     11 11 11 00 
03ce5     22 22 22 00 
03ce9     33 33 33 00 
03ced     44 44 44 00 | 	byte	$11, $11, $11, $00, $22, $22, $22, $00, $33, $33, $33, $00, $44, $44, $44, $00
03cf1     55 55 55 00 
03cf5     66 66 66 00 
03cf9     77 77 77 00 
03cfd     88 88 88 00 | 	byte	$55, $55, $55, $00, $66, $66, $66, $00, $77, $77, $77, $00, $88, $88, $88, $00
03d01     99 99 99 00 
03d05     AA AA AA 00 
03d09     BB BB BB 00 
03d0d     CC CC CC 00 | 	byte	$99, $99, $99, $00, $aa, $aa, $aa, $00, $bb, $bb, $bb, $00, $cc, $cc, $cc, $00
03d11     DD DD DD 00 
03d15     EE EE EE 00 
03d19     FF FF FF 00 
03d1d     00 0A 20 00 | 	byte	$dd, $dd, $dd, $00, $ee, $ee, $ee, $00, $ff, $ff, $ff, $00, $00, $0a, $20, $00
03d21     00 14 40 00 
03d25     00 1E 60 00 
03d29     00 28 80 00 
03d2d     00 32 9F 00 | 	byte	$00, $14, $40, $00, $00, $1e, $60, $00, $00, $28, $80, $00, $00, $32, $9f, $00
03d31     00 3C BF 00 
03d35     00 46 DF 00 
03d39     00 50 FF 00 
03d3d     1C 63 FF 00 | 	byte	$00, $3c, $bf, $00, $00, $46, $df, $00, $00, $50, $ff, $00, $1c, $63, $ff, $00
03d41     39 77 FF 00 
03d45     55 8A FF 00 
03d49     71 9E FF 00 
03d4d     8E B1 FF 00 | 	byte	$39, $77, $ff, $00, $55, $8a, $ff, $00, $71, $9e, $ff, $00, $8e, $b1, $ff, $00
03d51     AA C5 FF 00 
03d55     C6 D8 FF 00 
03d59     E3 EC FF 00 
03d5d     00 00 20 00 | 	byte	$aa, $c5, $ff, $00, $c6, $d8, $ff, $00, $e3, $ec, $ff, $00, $00, $00, $20, $00
03d61     00 00 40 00 
03d65     00 00 60 00 
03d69     00 00 80 00 
03d6d     00 00 9F 00 | 	byte	$00, $00, $40, $00, $00, $00, $60, $00, $00, $00, $80, $00, $00, $00, $9f, $00
03d71     00 00 BF 00 
03d75     00 00 DF 00 
03d79     00 00 FF 00 
03d7d     1C 1C FF 00 | 	byte	$00, $00, $bf, $00, $00, $00, $df, $00, $00, $00, $ff, $00, $1c, $1c, $ff, $00
03d81     39 39 FF 00 
03d85     55 55 FF 00 
03d89     71 71 FF 00 
03d8d     8E 8E FF 00 | 	byte	$39, $39, $ff, $00, $55, $55, $ff, $00, $71, $71, $ff, $00, $8e, $8e, $ff, $00
03d91     AA AA FF 00 
03d95     C6 C6 FF 00 
03d99     E3 E3 FF 00 
03d9d     10 00 20 00 | 	byte	$aa, $aa, $ff, $00, $c6, $c6, $ff, $00, $e3, $e3, $ff, $00, $10, $00, $20, $00
03da1     20 00 40 00 
03da5     30 00 60 00 
03da9     40 00 80 00 
03dad     50 00 9F 00 | 	byte	$20, $00, $40, $00, $30, $00, $60, $00, $40, $00, $80, $00, $50, $00, $9f, $00
03db1     60 00 BF 00 
03db5     70 00 DF 00 
03db9     80 00 FF 00 
03dbd     8E 1C FF 00 | 	byte	$60, $00, $bf, $00, $70, $00, $df, $00, $80, $00, $ff, $00, $8e, $1c, $ff, $00
03dc1     9C 39 FF 00 
03dc5     AA 55 FF 00 
03dc9     B8 71 FF 00 
03dcd     C7 8E FF 00 | 	byte	$9c, $39, $ff, $00, $aa, $55, $ff, $00, $b8, $71, $ff, $00, $c7, $8e, $ff, $00
03dd1     D5 AA FF 00 
03dd5     E3 C6 FF 00 
03dd9     F1 E3 FF 00 
03ddd     20 00 20 00 | 	byte	$d5, $aa, $ff, $00, $e3, $c6, $ff, $00, $f1, $e3, $ff, $00, $20, $00, $20, $00
03de1     40 00 40 00 
03de5     60 00 60 00 
03de9     80 00 80 00 
03ded     9F 00 9F 00 | 	byte	$40, $00, $40, $00, $60, $00, $60, $00, $80, $00, $80, $00, $9f, $00, $9f, $00
03df1     BF 00 BF 00 
03df5     DF 00 DF 00 
03df9     FF 00 FF 00 
03dfd     FF 1C FF 00 | 	byte	$bf, $00, $bf, $00, $df, $00, $df, $00, $ff, $00, $ff, $00, $ff, $1c, $ff, $00
03e01     FF 39 FF 00 
03e05     FF 55 FF 00 
03e09     FF 71 FF 00 
03e0d     FF 8E FF 00 | 	byte	$ff, $39, $ff, $00, $ff, $55, $ff, $00, $ff, $71, $ff, $00, $ff, $8e, $ff, $00
03e11     FF AA FF 00 
03e15     FF C6 FF 00 
03e19     FF E3 FF 00 
03e1d     20 00 10 00 | 	byte	$ff, $aa, $ff, $00, $ff, $c6, $ff, $00, $ff, $e3, $ff, $00, $20, $00, $10, $00
03e21     40 00 20 00 
03e25     60 00 30 00 
03e29     80 00 40 00 
03e2d     9F 00 50 00 | 	byte	$40, $00, $20, $00, $60, $00, $30, $00, $80, $00, $40, $00, $9f, $00, $50, $00
03e31     BF 00 60 00 
03e35     DF 00 70 00 
03e39     FF 00 80 00 
03e3d     FF 1C 8E 00 | 	byte	$bf, $00, $60, $00, $df, $00, $70, $00, $ff, $00, $80, $00, $ff, $1c, $8e, $00
03e41     FF 39 9C 00 
03e45     FF 55 AA 00 
03e49     FF 71 B8 00 
03e4d     FF 8E C7 00 | 	byte	$ff, $39, $9c, $00, $ff, $55, $aa, $00, $ff, $71, $b8, $00, $ff, $8e, $c7, $00
03e51     FF AA D5 00 
03e55     FF C6 E3 00 
03e59     FF E3 F1 00 
03e5d     20 00 00 00 | 	byte	$ff, $aa, $d5, $00, $ff, $c6, $e3, $00, $ff, $e3, $f1, $00, $20, $00, $00, $00
03e61     40 00 00 00 
03e65     60 00 00 00 
03e69     80 00 00 00 
03e6d     9F 00 00 00 | 	byte	$40, $00, $00, $00, $60, $00, $00, $00, $80, $00, $00, $00, $9f, $00, $00, $00
03e71     BF 00 00 00 
03e75     DF 00 00 00 
03e79     FF 00 00 00 
03e7d     FF 1C 1C 00 | 	byte	$bf, $00, $00, $00, $df, $00, $00, $00, $ff, $00, $00, $00, $ff, $1c, $1c, $00
03e81     FF 39 39 00 
03e85     FF 55 55 00 
03e89     FF 71 71 00 
03e8d     FF 8E 8E 00 | 	byte	$ff, $39, $39, $00, $ff, $55, $55, $00, $ff, $71, $71, $00, $ff, $8e, $8e, $00
03e91     FF AA AA 00 
03e95     FF C6 C6 00 
03e99     FF E3 E3 00 
03e9d     20 08 00 00 | 	byte	$ff, $aa, $aa, $00, $ff, $c6, $c6, $00, $ff, $e3, $e3, $00, $20, $08, $00, $00
03ea1     40 10 00 00 
03ea5     60 18 00 00 
03ea9     80 20 00 00 
03ead     9F 28 00 00 | 	byte	$40, $10, $00, $00, $60, $18, $00, $00, $80, $20, $00, $00, $9f, $28, $00, $00
03eb1     BF 30 00 00 
03eb5     DF 38 00 00 
03eb9     FF 40 00 00 
03ebd     FF 55 1C 00 | 	byte	$bf, $30, $00, $00, $df, $38, $00, $00, $ff, $40, $00, $00, $ff, $55, $1c, $00
03ec1     FF 6A 39 00 
03ec5     FF 80 55 00 
03ec9     FF 95 71 00 
03ecd     FF AA 8E 00 | 	byte	$ff, $6a, $39, $00, $ff, $80, $55, $00, $ff, $95, $71, $00, $ff, $aa, $8e, $00
03ed1     FF BF AA 00 
03ed5     FF D5 C6 00 
03ed9     FF EA E3 00 
03edd     20 10 00 00 | 	byte	$ff, $bf, $aa, $00, $ff, $d5, $c6, $00, $ff, $ea, $e3, $00, $20, $10, $00, $00
03ee1     40 20 00 00 
03ee5     60 30 00 00 
03ee9     80 40 00 00 
03eed     9F 50 00 00 | 	byte	$40, $20, $00, $00, $60, $30, $00, $00, $80, $40, $00, $00, $9f, $50, $00, $00
03ef1     BF 60 00 00 
03ef5     DF 70 00 00 
03ef9     FF 80 00 00 
03efd     FF 8E 1C 00 | 	byte	$bf, $60, $00, $00, $df, $70, $00, $00, $ff, $80, $00, $00, $ff, $8e, $1c, $00
03f01     FF 9C 39 00 
03f05     FF AA 55 00 
03f09     FF B8 71 00 
03f0d     FF C7 8E 00 | 	byte	$ff, $9c, $39, $00, $ff, $aa, $55, $00, $ff, $b8, $71, $00, $ff, $c7, $8e, $00
03f11     FF D5 AA 00 
03f15     FF E3 C6 00 
03f19     FF F1 E3 00 
03f1d     20 18 00 00 | 	byte	$ff, $d5, $aa, $00, $ff, $e3, $c6, $00, $ff, $f1, $e3, $00, $20, $18, $00, $00
03f21     40 30 00 00 
03f25     60 48 00 00 
03f29     80 60 00 00 
03f2d     9F 78 00 00 | 	byte	$40, $30, $00, $00, $60, $48, $00, $00, $80, $60, $00, $00, $9f, $78, $00, $00
03f31     BF 90 00 00 
03f35     DF A8 00 00 
03f39     FF C0 00 00 
03f3d     FF C7 1C 00 | 	byte	$bf, $90, $00, $00, $df, $a8, $00, $00, $ff, $c0, $00, $00, $ff, $c7, $1c, $00
03f41     FF CE 39 00 
03f45     FF D5 55 00 
03f49     FF DC 71 00 
03f4d     FF E3 8E 00 | 	byte	$ff, $ce, $39, $00, $ff, $d5, $55, $00, $ff, $dc, $71, $00, $ff, $e3, $8e, $00
03f51     FF EA AA 00 
03f55     FF F1 C6 00 
03f59     FF F8 E3 00 
03f5d     18 20 00 00 | 	byte	$ff, $ea, $aa, $00, $ff, $f1, $c6, $00, $ff, $f8, $e3, $00, $18, $20, $00, $00
03f61     30 40 00 00 
03f65     48 60 00 00 
03f69     60 80 00 00 
03f6d     78 9F 00 00 | 	byte	$30, $40, $00, $00, $48, $60, $00, $00, $60, $80, $00, $00, $78, $9f, $00, $00
03f71     90 BF 00 00 
03f75     A8 DF 00 00 
03f79     C0 FF 00 00 
03f7d     C7 FF 1C 00 | 	byte	$90, $bf, $00, $00, $a8, $df, $00, $00, $c0, $ff, $00, $00, $c7, $ff, $1c, $00
03f81     CE FF 39 00 
03f85     D5 FF 55 00 
03f89     DC FF 71 00 
03f8d     E3 FF 8E 00 | 	byte	$ce, $ff, $39, $00, $d5, $ff, $55, $00, $dc, $ff, $71, $00, $e3, $ff, $8e, $00
03f91     EA FF AA 00 
03f95     F1 FF C6 00 
03f99     F8 FF E3 00 
03f9d     00 20 00 00 | 	byte	$ea, $ff, $aa, $00, $f1, $ff, $c6, $00, $f8, $ff, $e3, $00, $00, $20, $00, $00
03fa1     00 40 00 00 
03fa5     00 60 00 00 
03fa9     00 80 00 00 
03fad     00 9F 00 00 | 	byte	$00, $40, $00, $00, $00, $60, $00, $00, $00, $80, $00, $00, $00, $9f, $00, $00
03fb1     00 BF 00 00 
03fb5     00 DF 00 00 
03fb9     00 FF 00 00 
03fbd     1C FF 1C 00 | 	byte	$00, $bf, $00, $00, $00, $df, $00, $00, $00, $ff, $00, $00, $1c, $ff, $1c, $00
03fc1     39 FF 39 00 
03fc5     55 FF 55 00 
03fc9     71 FF 71 00 
03fcd     8E FF 8E 00 | 	byte	$39, $ff, $39, $00, $55, $ff, $55, $00, $71, $ff, $71, $00, $8e, $ff, $8e, $00
03fd1     AA FF AA 00 
03fd5     C6 FF C6 00 
03fd9     E3 FF E3 00 
03fdd     00 20 0A 00 | 	byte	$aa, $ff, $aa, $00, $c6, $ff, $c6, $00, $e3, $ff, $e3, $00, $00, $20, $0a, $00
03fe1     00 40 14 00 
03fe5     00 60 1E 00 
03fe9     00 80 28 00 
03fed     00 9F 32 00 | 	byte	$00, $40, $14, $00, $00, $60, $1e, $00, $00, $80, $28, $00, $00, $9f, $32, $00
03ff1     00 BF 3C 00 
03ff5     00 DF 46 00 
03ff9     00 FF 50 00 
03ffd     1C FF 63 00 | 	byte	$00, $bf, $3c, $00, $00, $df, $46, $00, $00, $ff, $50, $00, $1c, $ff, $63, $00
04001     39 FF 77 00 
04005     55 FF 8A 00 
04009     71 FF 9E 00 
0400d     8E FF B1 00 | 	byte	$39, $ff, $77, $00, $55, $ff, $8a, $00, $71, $ff, $9e, $00, $8e, $ff, $b1, $00
04011     AA FF C5 00 
04015     C6 FF D8 00 
04019     E3 FF EC 00 
0401d     00 20 14 00 | 	byte	$aa, $ff, $c5, $00, $c6, $ff, $d8, $00, $e3, $ff, $ec, $00, $00, $20, $14, $00
04021     00 40 28 00 
04025     00 60 3C 00 
04029     00 80 50 00 
0402d     00 9F 64 00 | 	byte	$00, $40, $28, $00, $00, $60, $3c, $00, $00, $80, $50, $00, $00, $9f, $64, $00
04031     00 BF 78 00 
04035     00 DF 8C 00 
04039     00 FF A0 00 
0403d     1C FF AB 00 | 	byte	$00, $bf, $78, $00, $00, $df, $8c, $00, $00, $ff, $a0, $00, $1c, $ff, $ab, $00
04041     39 FF B5 00 
04045     55 FF C0 00 
04049     71 FF CA 00 
0404d     8E FF D5 00 | 	byte	$39, $ff, $b5, $00, $55, $ff, $c0, $00, $71, $ff, $ca, $00, $8e, $ff, $d5, $00
04051     AA FF DF 00 
04055     C6 FF EA 00 
04059     E3 FF F4 00 
0405d     00 20 20 00 | 	byte	$aa, $ff, $df, $00, $c6, $ff, $ea, $00, $e3, $ff, $f4, $00, $00, $20, $20, $00
04061     00 40 40 00 
04065     00 60 60 00 
04069     00 80 80 00 
0406d     00 9F 9F 00 | 	byte	$00, $40, $40, $00, $00, $60, $60, $00, $00, $80, $80, $00, $00, $9f, $9f, $00
04071     00 BF BF 00 
04075     00 DF DF 00 
04079     00 FF FF 00 
0407d     1C FF FF 00 | 	byte	$00, $bf, $bf, $00, $00, $df, $df, $00, $00, $ff, $ff, $00, $1c, $ff, $ff, $00
04081     39 FF FF 00 
04085     55 FF FF 00 
04089     71 FF FF 00 
0408d     8E FF FF 00 | 	byte	$39, $ff, $ff, $00, $55, $ff, $ff, $00, $71, $ff, $ff, $00, $8e, $ff, $ff, $00
04091     AA FF FF 00 
04095     C6 FF FF 00 
04099     E3 FF FF 00 
0409d     00 14 20 00 | 	byte	$aa, $ff, $ff, $00, $c6, $ff, $ff, $00, $e3, $ff, $ff, $00, $00, $14, $20, $00
040a1     00 28 40 00 
040a5     00 3C 60 00 
040a9     00 50 80 00 
040ad     00 64 9F 00 | 	byte	$00, $28, $40, $00, $00, $3c, $60, $00, $00, $50, $80, $00, $00, $64, $9f, $00
040b1     00 78 BF 00 
040b5     00 8C DF 00 
040b9     00 A0 FF 00 
040bd     1C AB FF 00 | 	byte	$00, $78, $bf, $00, $00, $8c, $df, $00, $00, $a0, $ff, $00, $1c, $ab, $ff, $00
040c1     39 B5 FF 00 
040c5     55 C0 FF 00 
040c9     71 CA FF 00 
040cd     8E D5 FF 00 | 	byte	$39, $b5, $ff, $00, $55, $c0, $ff, $00, $71, $ca, $ff, $00, $8e, $d5, $ff, $00
040d1     AA DF FF 00 
040d5     C6 EA FF 00 
040d9     E3 F4 FF    | 	byte	$aa, $df, $ff, $00, $c6, $ea, $ff, $00, $e3, $f4, $ff
040dc     00 00 00 00 
040e0     00          | vga16              long  $00000000,$00008000,$00800000,$00808000,$80000000,$80008000,$80400000,$AAAAAA00,$55555500,$0000FF00,$00FF0000,$00FFFF00,$FF000000,$FF00FF00,$FFFF0000,$FFFFFF00
040e1     80 00 00 00 
040e5     00 80 00 00 
040e9     80 80 00 00 
040ed     00 00 80 00 | 	byte	$80, $00, $00, $00, $00, $80, $00, $00, $80, $80, $00, $00, $00, $00, $80, $00
040f1     80 00 80 00 
040f5     00 40 80 00 
040f9     AA AA AA 00 
040fd     55 55 55 00 | 	byte	$80, $00, $80, $00, $00, $40, $80, $00, $aa, $aa, $aa, $00, $55, $55, $55, $00
04101     FF 00 00 00 
04105     00 FF 00 00 
04109     FF FF 00 00 
0410d     00 00 FF 00 | 	byte	$ff, $00, $00, $00, $00, $ff, $00, $00, $ff, $ff, $00, $00, $00, $00, $ff, $00
04111     FF 00 FF 00 
04115     00 FF FF 00 
04119     FF FF FF    | 	byte	$ff, $00, $ff, $00, $00, $ff, $ff, $00, $ff, $ff, $ff
0411c     00 00 00 00 
04120     00 80 80 80 
04124     00 00 00 FF 
04128     00 FF FF FF | fourcolors     long  $00000000,$80808000,$FF000000,$FFFFFF00 'black,red,gray,white
0412c     00 00 00 00 
04130     00 FF FF FF | twocolors      long  $00000000,$FFFFFF00
04134                 | '**********************************************************************************
04134                 | '
04134                 | '        Timings and colors definitions
04134                 | '
04134                 | '**********************************************************************************
04134                 | 
04134                 |    'streamer sets for text mode, to add to timings[0..5]
04134                 | 
04134                 | 
04134                 | '                     bf.hs, hs,  bf.vis  visible, lr bord, pixel, ud bord,  up p., vsync, down p., mode, cpl, scanlines,  clock,                  hubset                  total vis lines
04134     10 00 00 00 
04138     50 00 00 00 
0413c     14 00 00 00 
04140     00 04 00 00 | timings000      long   16,   80,    20,    1024,    112,     8,     48,      16,      16,    16,      0,  100,   480,     354693878,   %1_110000__11_0110_1100__1111_1011,   576
04144     70 00 00 00 
04148     08 00 00 00 
0414c     30 00 00 00 
04150     10 00 00 00 | 	byte	$70, $00, $00, $00, $08, $00, $00, $00, $30, $00, $00, $00, $10, $00, $00, $00
04154     10 00 00 00 
04158     10 00 00 00 
0415c     00 00 00 00 
04160     64 00 00 00 | 	byte	$10, $00, $00, $00, $10, $00, $00, $00, $00, $00, $00, $00, $64, $00, $00, $00
04164     E0 01 00 00 
04168     F6 32 24 15 
0416c     FB 6C C3 01 
04170     40 02 00 00 | 	byte	$e0, $01, $00, $00, $f6, $32, $24, $15, $fb, $6c, $c3, $01, $40, $02, $00, $00
04174     12 00 00 00 
04178     30 00 00 00 
0417c     10 00 00 00 
04180     B0 03 00 00 | timings064      long   18,   48,    16,     944,     24,     8,     24,      24,      32,    24,     64,  112,   496,     319215686,   %1_110010__11_0010_1101__1111_1011,   544
04184     18 00 00 00 
04188     08 00 00 00 
0418c     18 00 00 00 
04190     18 00 00 00 | 	byte	$18, $00, $00, $00, $08, $00, $00, $00, $18, $00, $00, $00, $18, $00, $00, $00
04194     20 00 00 00 
04198     18 00 00 00 
0419c     40 00 00 00 
041a0     70 00 00 00 | 	byte	$20, $00, $00, $00, $18, $00, $00, $00, $40, $00, $00, $00, $70, $00, $00, $00
041a4     F0 01 00 00 
041a8     46 D8 06 13 
041ac     FB 2D CB 01 
041b0     20 02 00 00 | 	byte	$f0, $01, $00, $00, $46, $d8, $06, $13, $fb, $2d, $cb, $01, $20, $02, $00, $00
041b4     10 00 00 00 
041b8     40 00 00 00 
041bc     10 00 00 00 
041c0     30 03 00 00 | timings128      long   16,   64,    16,     816,      8,     8,     8,       32,      64,    32,    128,  100,   480,     283750000,   %1_111111__11_1000_1011__1111_1011,   496
041c4     08 00 00 00 
041c8     08 00 00 00 
041cc     08 00 00 00 
041d0     20 00 00 00 | 	byte	$08, $00, $00, $00, $08, $00, $00, $00, $08, $00, $00, $00, $20, $00, $00, $00
041d4     40 00 00 00 
041d8     20 00 00 00 
041dc     80 00 00 00 
041e0     64 00 00 00 | 	byte	$40, $00, $00, $00, $20, $00, $00, $00, $80, $00, $00, $00, $64, $00, $00, $00
041e4     E0 01 00 00 
041e8     70 AE E9 10 
041ec     FB 8B FF 01 
041f0     F0 01 00 00 | 	byte	$e0, $01, $00, $00, $70, $ae, $e9, $10, $fb, $8b, $ff, $01, $f0, $01, $00, $00
041f4     10 00 00 00 
041f8     50 00 00 00 
041fc     14 00 00 00 
04200     00 04 00 00 | timings192      long   16,   80,    20,    1024,      0,     8,     0,       16,      16,    16,    192,  128,   576,     354693878,   %1_110000__11_0110_1100__1111_1011,   576
04204     00 00 00 00 
04208     08 00 00 00 
0420c     00 00 00 00 
04210     10 00 00 00 | 	byte	$00, $00, $00, $00, $08, $00, $00, $00, $00, $00, $00, $00, $10, $00, $00, $00
04214     10 00 00 00 
04218     10 00 00 00 
0421c     C0 00 00 00 
04220     80 00 00 00 | 	byte	$10, $00, $00, $00, $10, $00, $00, $00, $c0, $00, $00, $00, $80, $00, $00, $00
04224     40 02 00 00 
04228     F6 32 24 15 
0422c     FB 6C C3 01 
04230     40 02 00 00 | 	byte	$40, $02, $00, $00, $f6, $32, $24, $15, $fb, $6c, $c3, $01, $40, $02, $00, $00
04234     50 00 00 00 
04238     A0 00 00 00 
0423c     54 00 00 00 
04240     30 03 00 00 | timings256      long   80,  160,    84,     816,      8,     8,     8,        8,      12,     8,    256,  100,   480,     357959184,   %1_110000__11_0110_0100__1111_1011,   496
04244     08 00 00 00 
04248     08 00 00 00 
0424c     08 00 00 00 
04250     08 00 00 00 | 	byte	$08, $00, $00, $00, $08, $00, $00, $00, $08, $00, $00, $00, $08, $00, $00, $00
04254     0C 00 00 00 
04258     08 00 00 00 
0425c     00 01 00 00 
04260     64 00 00 00 | 	byte	$0c, $00, $00, $00, $08, $00, $00, $00, $00, $01, $00, $00, $64, $00, $00, $00
04264     E0 01 00 00 
04268     10 06 56 15 
0426c     FB 64 C3 01 
04270     F0 01 00 00 | 	byte	$e0, $01, $00, $00, $10, $06, $56, $15, $fb, $64, $c3, $01, $f0, $01, $00, $00
04274     50 00 00 00 
04278     32 00 00 00 
0427c     50 00 00 00 
04280     30 03 00 00 | timings320      long   80,   50,    80,     816,      8,     8,     8,        8,      12,     8,    320,  100,   480,     322162162,   %1_100100__10_0101_0011__1111_1011,   496
04284     08 00 00 00 
04288     08 00 00 00 
0428c     08 00 00 00 
04290     08 00 00 00 | 	byte	$08, $00, $00, $00, $08, $00, $00, $00, $08, $00, $00, $00, $08, $00, $00, $00
04294     0C 00 00 00 
04298     08 00 00 00 
0429c     40 01 00 00 
042a0     64 00 00 00 | 	byte	$0c, $00, $00, $00, $08, $00, $00, $00, $40, $01, $00, $00, $64, $00, $00, $00
042a4     E0 01 00 00 
042a8     F2 CD 33 13 
042ac     FB 53 92 01 
042b0     F0 01 00 00 | 	byte	$e0, $01, $00, $00, $f2, $cd, $33, $13, $fb, $53, $92, $01, $f0, $01, $00, $00
042b4     18 00 00 00 
042b8     30 00 00 00 
042bc     18 00 00 00 
042c0     30 03 00 00 | timings384      long   24,   48,    24,     816,      8,     8,     8,        8,      12,     8,    384,  100,   480,     286363636,   %1_010101__01_0011_1010__1111_1011,   496
042c4     08 00 00 00 
042c8     08 00 00 00 
042cc     08 00 00 00 
042d0     08 00 00 00 | 	byte	$08, $00, $00, $00, $08, $00, $00, $00, $08, $00, $00, $00, $08, $00, $00, $00
042d4     0C 00 00 00 
042d8     08 00 00 00 
042dc     80 01 00 00 
042e0     64 00 00 00 | 	byte	$0c, $00, $00, $00, $08, $00, $00, $00, $80, $01, $00, $00, $64, $00, $00, $00
042e4     E0 01 00 00 
042e8     F4 8F 11 11 
042ec     FB 3A 55 01 
042f0     F0 01 00 00 | 	byte	$e0, $01, $00, $00, $f4, $8f, $11, $11, $fb, $3a, $55, $01, $f0, $01, $00, $00
042f4     20 00 00 00 
042f8     40 00 00 00 
042fc     22 00 00 00 
04300     80 03 00 00 | timings448      long   32,   64,    34,     896,      0,     8,     0,        8,      12,     8,    448,  112,   496,     322162162,   %1_100100__10_0101_0011__1111_1011,   496
04304     00 00 00 00 
04308     08 00 00 00 
0430c     00 00 00 00 
04310     08 00 00 00 | 	byte	$00, $00, $00, $00, $08, $00, $00, $00, $00, $00, $00, $00, $08, $00, $00, $00
04314     0C 00 00 00 
04318     08 00 00 00 
0431c     C0 01 00 00 
04320     70 00 00 00 | 	byte	$0c, $00, $00, $00, $08, $00, $00, $00, $c0, $01, $00, $00, $70, $00, $00, $00
04324     F0 01 00 00 
04328     F2 CD 33 13 
0432c     FB 53 92 01 
04330     F0 01 00 00 | 	byte	$f0, $01, $00, $00, $f2, $cd, $33, $13, $fb, $53, $92, $01, $f0, $01, $00, $00
04334                 | 
04334     10 00 00 00 
04338     50 00 00 00 
0433c     14 00 00 00 
04340     00 04 00 00 | timings512      long   16,   80,    20,    1024,    112,     8,     48,      16,      16,    16,    544,  100,   480,     354693878,   %1_110000__11_0110_1100__1111_1011,   576
04344     70 00 00 00 
04348     08 00 00 00 
0434c     30 00 00 00 
04350     10 00 00 00 | 	byte	$70, $00, $00, $00, $08, $00, $00, $00, $30, $00, $00, $00, $10, $00, $00, $00
04354     10 00 00 00 
04358     10 00 00 00 
0435c     20 02 00 00 
04360     64 00 00 00 | 	byte	$10, $00, $00, $00, $10, $00, $00, $00, $20, $02, $00, $00, $64, $00, $00, $00
04364     E0 01 00 00 
04368     F6 32 24 15 
0436c     FB 6C C3 01 
04370     40 02 00 00 | 	byte	$e0, $01, $00, $00, $f6, $32, $24, $15, $fb, $6c, $c3, $01, $40, $02, $00, $00
04374     10 00 00 00 
04378     50 00 00 00 
0437c     14 00 00 00 
04380     00 04 00 00 | timings560      long   16,   80,    20,    1024,    112,     4,     48,      16,      16,    16,    544,  200,   480,     354693878,   %1_110000__11_0110_1100__1111_1011,   576
04384     70 00 00 00 
04388     04 00 00 00 
0438c     30 00 00 00 
04390     10 00 00 00 | 	byte	$70, $00, $00, $00, $04, $00, $00, $00, $30, $00, $00, $00, $10, $00, $00, $00
04394     10 00 00 00 
04398     10 00 00 00 
0439c     20 02 00 00 
043a0     C8 00 00 00 | 	byte	$10, $00, $00, $00, $10, $00, $00, $00, $20, $02, $00, $00, $c8, $00, $00, $00
043a4     E0 01 00 00 
043a8     F6 32 24 15 
043ac     FB 6C C3 01 
043b0     40 02 00 00 | 	byte	$e0, $01, $00, $00, $f6, $32, $24, $15, $fb, $6c, $c3, $01, $40, $02, $00, $00
043b4                 | 
043b4                 | 
043b4     00 75 C7 97 
043b8     27 47 F6 0A 
043bc     05 79 CB 9B 
043c0     2B 4B EA 0F | vgacolors       byte   0, 117, 199, 151, 39, 71, 246, 10, 5, 121, 203, 155, 43, 75, 234, 15
043c4                 | 
043c4     28 14 64 FD | hdmi            setq    #10
043c8     00 DD 06 FB |                 rdlong  framebuf,  ptra                 'read pointers
043cc                 | 
043cc     29 FE 65 FD |                 setq2   #255
043d0     74 01 00 FB |                 rdlong  $000, paletteptr                'read palette
043d4     02 00 00 FF 
043d8     00 E8 06 F1 |                 add     paletteptr,##1024                ' Atari type 256 colors
043dc     29 1E 64 FD |                 setq2   #15
043e0     74 C1 03 FB |                 rdlong  480,paletteptr                  ' 16 color palette at 480
043e4     00 00 00 FF 
043e8     40 E8 06 F1 |                 add     paletteptr,##64                 '
043ec     29 06 64 FD |                 setq2   #3
043f0     74 81 03 FB |                 rdlong  448,paletteptr                  ' 4  color palette at 448
043f4     00 00 00 FF 
043f8     10 E8 06 F1 |                 add     paletteptr,##16
043fc     29 02 64 FD |                 setq2   #1
04400     74 41 03 FB |                 rdlong  416,paletteptr                  ' 2 color palette at 416
04404                 | 
04404                 | 
04404     00 18 6F FC |                 wrlong  #aend,#0                         'write driver length to hub#0: DEBUG/demo
04408     3C 00 66 FD |                 setcmod #$100                           'enable HDMI mode
0440c     07 F8 06 F6 |                 mov     ii,#7
04410     06 F8 66 F0 |                 shl     ii,#6
04414     78 F9 02 F1 |                 add     ii,hbase
04418     58 F8 62 FD |                 drvl    ii                                 '#7<<6 + hdmi_base      ' enable HDMI pins
0441c     7B 0B 80 FF 
04420     7C 01 0B FC |                 wrpin   ##%10110_1111_0111_10_00000_0, ii  '#7<<6 + hdmi_base      ' a '123 ohm BITDAC for pins
04424                 | 
04424     66 66 86 FF 
04428     1D 9A 65 FD |                 setxfrq ##$0CCCCCCC+1                   'set streamer freq to 1/10th clk
0442c                 | 
0442c                 | 
0442c                 | ''--------  frame rendering main loop  ---------------------------------------------------
0442c                 | 
0442c                 | p101
0442c     28 14 64 FD |                 setq    #10
04430     00 DD 06 FB |                 rdlong  framebuf,  ptra
04434     28 1E 64 FD |                 setq    #15
04438     73 99 02 FB |                 rdlong  m_bs,modeptr                     ' read timings
0443c     70 97 02 FB |                 rdlong border,borderptr
04440                 | 
04440     01 C2 06 F1 |                 add     frames,#1
04444     76 F5 02 F6 |                 mov     dlptr2,dlptr
04448                 | 
04448     72 C5 02 FB |                 rdlong  cursorx, cursorptr               ' read cursor position
0444c     62 C7 EA F8 |                 getbyte cursory, cursorx,#1              ' y position at byte #1
04450     62 C1 F2 F8 |                 getbyte cursorsh,cursorx,#2              ' shape at byte #2
04454     FF C4 06 F5 |                 and     cursorx,#255                     ' clear the cursor x varioble from y and shape
04458                 |  '' mailbox
04458     75 03 03 FB |                 rdlong  t1,commandptr                    ' A mailbox interface, read the command
0445c     04 EA 06 F1 |                 add     commandptr,#4
04460     75 05 03 FB |                 rdlong  t2,commandptr                    ' read the argument
04464     04 EA 86 F1 |                 sub     commandptr,#4                    ' restore the pionter
04468     00 03 1F F2 |                 cmp     t1,#256  wcz                     '
0446c     81 05 33 CC |          if_lt  wrlut   t2,t1                            ' command 0..255-> set the color in LUT
04470     01 03 07 F6 |                 mov     t1, #257                         ' 257=idle
04474     75 03 63 FC |                 wrlong  t1,commandptr                    ' write 257 to hub variable so the program can test if command was done
04478                 |  '' up porch
04478                 | 
04478     47 FD 02 F6 |                 mov     hsync0,sync_000                  '
0447c     48 FF 02 F6 |                 mov     hsync1,sync_001
04480     1D A6 46 FB |                 callpa  i_upporch ,#blank
04484     71 01 68 FC |                 wrlong  #0,vblankptr
04488                 |                 
04488     29 FE 65 FD |                 setq2   #255
0448c     74 01 00 FB |                 rdlong  $000, paletteptr                'read palette
04490                 | 
04490                 | '' cursor blinking
04490                 | 
04490     04 C2 0E F4 |                 testb   frames,#4 wz                     ' cursor blinks at framerate/16, todo: define
04494     81 C4 06 A6 |          if_z   mov     cursorx,#129                     ' to switch the cursor off, move it out of the screen
04498                 | 
04498                 | '' main screen
04498                 | 
04498     00 BC 06 F6 |                 mov linenum,#0
0449c                 | 
0449c     7A F7 02 FB | p301            rdlong  dl,dlptr2
044a0                 | 
044a0     7B FB 02 F6 |                 mov     framebuf2,dl                    ' read a line start in the framebuffer from DL entry
044a4     0E FA 46 F0 |                 shr     framebuf2,#14
044a8     02 FA 66 F0 |                 shl     framebuf2,#2
044ac                 | 
044ac     7B 03 E3 F8 |                 getbyte t1,dl,#0
044b0     00 02 0F F2 |                 cmp     t1,#0 wz
044b4     34 00 90 AD |     if_z        jmp     #borderline
044b8                 | 
044b8     00 F6 16 F4 |                  testb   dl,#0  wc     ' bit 0 set = text OR extended:TODO
044bc     50 00 90 CD |           if_c   jmp     #textline
044c0     50 02 90 3D |           if_nc  jmp     #graphline
044c4                 | '
044c4     01 BC 06 F1 | p302            add     linenum,#1
044c8     04 F4 06 F1 |                 add     dlptr2,#4
044cc     5B BD 0A F2 |                 cmp     linenum,i_totalvis  wz
044d0     C8 FF 9F 5D |          if_nz  jmp     #p301
044d4                 | 
044d4     71 03 68 FC | p112            wrlong  #1,vblankptr
044d8     07 AA 46 FB |                 callpa  i_downporch ,#blank             'bottom blanks
044dc                 | 
044dc     49 FD 02 F6 |                 mov     hsync0,sync_222                 'vsync on
044e0     4A FF 02 F6 |                 mov     hsync1,sync_223
044e4     04 A8 46 FB |                 callpa  i_vsync,#blank                  'vertical sync blanks
044e8     40 FF 9F FD |                 jmp     #p101
044ec                 | 
044ec                 | '' ---------------  END of frame rendering loop -------------------------------------------
044ec                 | 
044ec                 | 
044ec     14 00 B0 FD | borderline      call    #hsync                      ' make a border
044f0     4B 9F C2 FC |                 xcont   m_vi,border
044f4     CC FF 9F FD |                 jmp     #p302
044f8                 | 
044f8                 | 
044f8     08 00 B0 FD | blank           call    #hsync                          'blank lines
044fc     7E 9F C2 FC |                 xcont   m_vi,hsync0
04500     FD ED 6F 0B |         _ret_   djnz    pa,#blank
04504                 | 
04504     7E 99 C2 FC | hsync           xcont   m_bs,hsync0                     'horizontal sync
04508     7F 9B B2 FC |                 xzero   m_sn,hsync1
0450c     7E 9D C2 0C |         _ret_   xcont   m_bv,hsync0
04510                 | 
04510                 | 
04510                 | 
04510                 | ''--%aaaa_aaaa_aaaa_aaaa_aazz_nnnn_llll_ll_01 - txt
04510                 |   '' aaaa_aaaa_aaaa_aaaa_aazz_rrrr_rrrr_cc_10 - graph
04510                 |   '' aaaa_aaaa_aaaa-aaaa_aarr_rrrr_rrrr_rr_11 - extended, next long to read
04510                 | 
04510                 | '' Display a text line DL[31..12]=addr, nibble #1=textline, zoom: todo
04510                 | 
04510     62 CB 02 F6 | textline        mov     cursorpos2,cursorx              ' we need another var for cursor as this code will repeat 16x for every char line
04514                 | 
04514     7B 01 53 F8 |                 getnib  fontline,dl,#2                 ' fontline is 0 to 15, a line in font def
04518     7B 17 5B F8 |                 getnib  zoom, dl,#3
0451c     03 16 07 F5 |                 and             zoom, #3
04520                 | 
04520                 | 
04520                 | 
04520     7B BB 02 F6 |                 mov     linestart,dl                    ' linestart will be used for checking cursor y and compute line start addr in the buffer
04524     02 BA 46 F0 |                 shr     linestart,#2                    ' scanline to char line
04528     3F BA 06 F5 |                 and     linestart,#63
0452c     63 BB 0A F2 |                 cmp     linestart,cursory wz            ' if the cursor is not here
04530     81 CA 06 56 |           if_nz mov     cursorpos2,#129                 ' move it out of the screen
04534                 | 
04534     CC FF BF FD |                 call    #hsync                          ' now call hsync to gain some time between xconts
04538                 | 
04538                 |                        ' if fontline =0, get a border color
04538                 | 
04538     50 03 33 F9 | p102            getword t1,m_border,#0
0453c     00 02 0F F2 |                 cmp     t1, #0 wz
04540     4B A1 C2 5C |           if_nz xcont   m_border,border                 ' display a left border if exists
04544                 | 
04544     60 01 1B F2 |                 cmp     fontline,cursorsh wcz           ' if the cursor have to be not displayed due to its shape
04548     81 C8 06 C6 |           if_c  mov     cursorpos,#129                  ' move it out of the screen
0454c     65 C9 02 36 |          if_nc  mov     cursorpos,cursorpos2
04550     01 C8 06 F1 |                 add     cursorpos,#1                    ' we will substract #1 below so compensate this here
04554     6F 05 03 F6 |                 mov     t2,fontbuf                      ' font definition pointer
04558     80 05 03 F1 |                 add     t2,fontline                     ' add a current font line
0455c     51 B9 02 F6 |                 mov m_lut2, m_lut1
04560     69 B9 02 F1 |                 add m_lut2, lutt1
04564     57 0F 03 F6 |                 mov cpl2,i_cpl
04568                 | 
04568     02 16 0F F2 |                cmp zoom,#2 wz
0456c     E4 00 90 AD |           if_z jmp #p420
04570     01 16 0F F2 |                cmp zoom,#1 wz
04574     64 00 90 AD |           if_z jmp #p410
04578     00 16 0F F2 |                 cmp zoom,#0 wz
0457c     04 00 90 AD |           if_z jmp #p400
04580     50 01 90 FD |                jmp #p430
04584                 | 
04584                 |                    '
04584                 |  ''---------------------------------------------------------------------------------------------------------
04584     7D 11 03 FB |  p400                   rdlong  char,framebuf2          ' read a long char                          '1
04588     88 13 F3 F8 |                         getbyte backcolor,char,#2       ' byte #2 - background color                '2
0458c     88 15 FB F8 |                         getbyte charcolor,char,#3       ' byte #3 - foreground color                '3
04590     88 11 E3 F8 |                         getbyte char,char, #0           ' word #0 - char code                       '4
04594     04 FA 06 F1 |                         add     framebuf2,#4            ' point to the next long                    '5
04598     04 10 67 F0 |                         shl     char,#4                 ' 1 char=16 bytes in font def               '6
0459c     82 11 03 F1 |                         add     char,t2                 ' add this to font/line pointer             '7
045a0     88 03 C3 FA |                         rdbyte  t1,char                 ' and get 8 pixels prom there               '8
045a4     01 C8 8E F1 |                         sub     cursorpos,#1 wz         ' if there is a cursor                      '9
045a8     FF 02 67 A5 |                   if_z  xor     t1, #$FF                ' reverse the colors                        '10
045ac                 | 
045ac     81 B9 C2 FC |                         xcont m_lut2,t1
045b0                 | 
045b0     89 0B A3 FA |                         rdlut   t5,backcolor            ' read a background color from palette      '13
045b4     5F 0B 33 FC |                         wrlut   t5,lutaddr              ' and write it to LUT #0 or #32             '14
045b8     01 BE 06 F1 |                         add     lutaddr,#1                                                          '15
045bc     8A 0B A3 FA |                         rdlut   t5,charcolor            ' the same for the foreground               '16
045c0     5F 0B 33 FC |                         wrlut   t5,lutaddr                                                          '17
045c4     01 BE 86 F1 |                         sub     lutaddr,#1
045c8                 | 
045c8     10 B8 E6 F4 |                         bitnot  m_lut2,#16                                                          '19
045cc     10 A2 E6 F4 |                         bitnot  m_lut1,#16                                                          '19
045d0     20 BE 66 F5 |                         xor     lutaddr,#32             ' use LUT #0-1 and 32-33                    '20
045d4                 | 
045d4     EB 0F 6F FB |                         djnz   cpl2,#p400
045d8     28 01 90 FD |  p401                   jmp    #p103
045dc                 | 
045dc                 | ''------------------------------------------------------------------------------------------------------------
045dc                 | 
045dc     01 0E 47 F0 |  p410                   shr cpl2,#1
045e0                 | 
045e0                 | ''---------------------------------------------------------------------------------------------------------
045e0     7D 11 03 FB |  p412                   rdlong  char,framebuf2          ' read a long char                          '1
045e4     88 13 F3 F8 |                         getbyte backcolor,char,#2       ' byte #2 - background color                '2
045e8     88 15 FB F8 |                         getbyte charcolor,char,#3       ' byte #3 - foreground color                '3
045ec     88 11 E3 F8 |                         getbyte char,char, #0           ' word #0 - char code                       '4
045f0     04 FA 06 F1 |                         add     framebuf2,#4            ' point to the next long                    '5
045f4     04 10 67 F0 |                         shl     char,#4                 ' 1 char=16 bytes in font def               '6
045f8     82 11 03 F1 |                         add     char,t2                 ' add this to font/line pointer             '7
045fc     88 03 C3 FA |                         rdbyte  t1,char                 ' and get 8 pixels prom there               '8
04600     01 C8 8E F1 |                         sub     cursorpos,#1 wz         ' if there is a cursor                      '9
04604     FF 02 67 A5 |                   if_z  xor     t1, #$FF                ' reverse the colors                        '10
04608                 | 
04608                 | 
04608     81 07 4B F8 |                         getnib t3,t1,#1                   ' 4 pixels to t3                                              '1  - +
0460c     81 03 43 F8 |                         getnib t1,t1,#0                   ' 4 pixels to t1                                                      '2  - +
04610     63 02 63 FD |                         mergew t1                         ' make 01010101 from 1111                                     '3  - +
04614     03 02 07 FA |                         mul t1,#3
04618     81 B9 C2 FC |                         xcont m_lut2,t1
0461c     89 0B A3 FA |                         rdlut   t5,backcolor            ' read a background color from palette      '13
04620     5F 0B 33 FC |                         wrlut   t5,lutaddr              ' and write it to LUT #0 or #32             '14
04624     01 BE 06 F1 |                         add     lutaddr,#1                                                          '15
04628     8A 0B A3 FA |                         rdlut   t5,charcolor            ' the same for the foreground               '16
0462c     5F 0B 33 FC |                         wrlut   t5,lutaddr                                                          '17
04630     01 BE 86 F1 |                         sub     lutaddr,#1
04634     63 06 63 FD |                         mergew t3
04638     03 06 07 FA |                         mul t3,#3
0463c     83 B9 C2 FC |                         xcont m_lut2,t3
04640                 | 
04640     10 B8 E6 F4 |                         bitnot  m_lut2,#16                                                          '19
04644     10 A2 E6 F4 |                         bitnot  m_lut1,#16                                                          '19
04648                 | 
04648     20 BE 66 F5 |                         xor     lutaddr,#32             ' use LUT #0-1 and 32-33                    '20
0464c                 | 
0464c     E4 0F 6F FB |                         djnz   cpl2,#p412
04650     B0 00 90 FD |  p411                   jmp    #p103
04654                 | 
04654                 | ''------------------------------------------------------------------------------------------------------------
04654                 | 
04654     02 0E 47 F0 |  p420                   shr cpl2,#2
04658                 | 
04658                 | ''---------------------------------------------------------------------------------------
04658     7D 11 03 FB |  p422                   rdlong  char,framebuf2          ' read a long char                          '1
0465c     88 13 F3 F8 |                         getbyte backcolor,char,#2       ' byte #2 - background color                '2
04660     88 15 FB F8 |                         getbyte charcolor,char,#3       ' byte #3 - foreground color                '3
04664     88 11 E3 F8 |                         getbyte char,char, #0           ' word #0 - char code                       '4
04668     04 FA 06 F1 |                         add     framebuf2,#4            ' point to the next long                    '5
0466c     04 10 67 F0 |                         shl     char,#4                 ' 1 char=16 bytes in font def               '6
04670     82 11 03 F1 |                         add     char,t2                 ' add this to font/line pointer             '7
04674     88 03 C3 FA |                         rdbyte  t1,char                 ' and get 8 pixels prom there               '8
04678     01 C8 8E F1 |                         sub     cursorpos,#1 wz         ' if there is a cursor                      '9
0467c     FF 02 67 A5 |                   if_z  xor     t1, #$FF                ' reverse the colors                        '10
04680                 | 
04680     61 02 63 FD |                         mergeb t1
04684     81 07 3B F9 |                         getword t3,t1,#1
04688     0F 02 07 FA |                         mul t1,#15
0468c     81 B9 C2 FC |                         xcont m_lut2,t1
04690                 | 
04690     89 0B A3 FA |                         rdlut   t5,backcolor            ' read a background color from palette      '13
04694     5F 0B 33 FC |                         wrlut   t5,lutaddr              ' and write it to LUT #0 or #32             '14
04698     01 BE 06 F1 |                         add     lutaddr,#1                                                          '15
0469c     8A 0B A3 FA |                         rdlut   t5,charcolor            ' the same for the foreground               '16
046a0     5F 0B 33 FC |                         wrlut   t5,lutaddr                                                          '17
046a4     01 BE 86 F1 |                         sub     lutaddr,#1
046a8                 | 
046a8     81 09 EB F8 |                         getbyte t4,t1,#1        '
046ac     84 B9 C2 FC |                         xcont m_lut2,t4                                                                                                           '
046b0                 | 
046b0     0F 06 07 FA |                         mul t3,#15
046b4     83 B9 C2 FC |                         xcont m_lut2,t3
046b8                 | 
046b8     83 0B EB F8 |                         getbyte t5,t3,#1
046bc     85 B9 C2 FC |                         xcont m_lut2, t5
046c0     10 B8 E6 F4 |                         bitnot  m_lut2,#16                                                          '19
046c4     10 A2 E6 F4 |                         bitnot  m_lut1,#16                                                          '19
046c8                 | 
046c8     20 BE 66 F5 |                         xor     lutaddr,#32             ' use LUT #0-1 and 32-33                    '20
046cc                 | 
046cc     E2 0F 6F FB |                         djnz   cpl2,#p422
046d0     30 00 90 FD |  p421                   jmp    #p103
046d4                 | 
046d4                 | '--------------------------------------------------------------------------------------------------------------
046d4                 | 
046d4     7D 11 03 FB |  p430                   rdlong  char,framebuf2          ' read a long char                          '1
046d8     88 13 F3 F8 |                         getbyte backcolor,char,#2       ' byte #2 - background color                '2
046dc     88 15 FB F8 |                         getbyte charcolor,char,#3       ' byte #3 - foreground color                '3
046e0                 | 
046e0     00 B8 C6 FC |                         xcont m_lut2,#0
046e4                 | 
046e4     89 0B A3 FA |                         rdlut   t5,backcolor            ' read a background color from palette      '13
046e8     5F 0B 33 FC |                         wrlut   t5,lutaddr              ' and write it to LUT #0 or #32             '14
046ec     01 BE 06 F1 |                         add     lutaddr,#1                                                          '15
046f0     8A 0B A3 FA |                         rdlut   t5,charcolor            ' the same for the foreground               '16
046f4     5F 0B 33 FC |                         wrlut   t5,lutaddr                                                          '17
046f8     01 BE 86 F1 |                         sub     lutaddr,#1
046fc                 | 
046fc     F5 0F 6F FB |                         djnz   cpl2,#p430
04700     00 00 90 FD |  p431                   jmp    #p103
04704                 | 
04704                 | ''------------------------------------------------------------------------------------------------------------
04704                 | 
04704                 | 
04704                 | 
04704     50 03 33 F9 | p103            getword  t1,m_border,#0
04708     00 02 0F F2 |                 cmp      t1, #0 wz
0470c     4B A1 C2 5C |                 if_nz    xcont   m_border,border            'display a right border if exists
04710                 | 
04710     B0 FD 9F FD |                 jmp #p302
04714                 | 
04714                 | '' -------------------------------------- END of text line ---------------------------------
04714                 | 
04714                 |   '' aaaa_aaaa_aaaa_aaaa_aazz_rrrr_rrrr_cc_10 - graph - display a graphics line
04714                 | 
04714     EC FD BF FD | graphline       call    #hsync                          ' now call hsync to gain some time between xconts
04718                 | 
04718                 | 
04718     50 03 33 F9 | p202            getword t1,m_border,#0
0471c     00 02 0F F2 |                 cmp     t1, #0 wz
04720     4B A1 C2 5C |           if_nz xcont   m_border,border                 ' display a left border if exists
04724                 | 
04724                 | '----------------------------------------- display pixels
04724                 | 
04724     51 B9 02 F6 |                 mov     m_lut2,m_lut1                   ' m_lut1 loaded from hub timing block, pixel per long
04728     57 0F 03 F6 |                 mov     cpl2,i_cpl                      ' i_cpl in graphic modes is longs per line
0472c                 | 
0472c     7B 17 5B F8 |                 getnib  zoom, dl,#3
04730     03 16 07 F5 |                 and             zoom, #3                        ' get a horizontal zoom for the line
04734                 | 
04734     7B BB 02 F6 |                 mov     colordepth,dl                   ' get a color depth, reuse linestart var f         '
04738     0C BA 06 F5 |                 and     colordepth,#12
0473c                 | 
0473c     00 BA 0E F2 |                 cmp     colordepth,#%0000 wz            ' 1 bpp modes
04740     6A B9 02 A1 |           if_z  add     m_lut2,lutg1
04744     68 00 90 AD |           if_z  jmp     #p240
04748                 | 
04748     04 BA 0E F2 |                 cmp     colordepth,#%0100 wz            ' 2 bpp modes
0474c     6B B9 02 A1 |           if_z  add     m_lut2,lutg2
04750     9C 00 90 AD |           if_z  jmp     #p250
04754                 | 
04754     08 BA 0E F2 |                 cmp     colordepth,#%1000 wz            ' 4 bpp modes
04758     6C B9 02 A1 |           if_z  add     m_lut2,lutg4
0475c     00 01 90 AD |           if_z  jmp     #p260
04760                 | 
04760     6D B9 02 F1 |                 add m_lut2,lutg8                        ' 8 bpp modes
04764                 | 
04764                 | '' --- 8 bit color modes
04764                 | 
04764     00 16 0F F2 |                 cmp zoom, #%00 wz   '256 colors, zoom x1
04768     54 01 90 AD |                 if_z jmp #p251      'there is an universal loop for 1x zoom at p251, saves one long of skip pattern
0476c                 | 
0476c     01 16 0F F2 |                 cmp zoom, #%01 wz   '256 colors, zoom x2
04770     2A 0C 07 A6 |            if_z mov skippattern,#%101010
04774                 |  '
04774     02 16 0F F2 |                 cmp zoom, #%10 wz   '256 colors, zoom x4
04778     19 0C 07 A6 |            if_z mov skippattern,#%011001
0477c                 |  '
0477c     03 16 0F F2 |                 cmp zoom, #%11 wz   '256 colors, zoom x8
04780     11 0C 07 A6 |           if_z  mov skippattern,#%010001
04784     01 0E 47 A0 |           if_z  shr cpl2,#1         ' if 8x zoom, 2 xconts used in one loop, so divide loop count by 2
04788                 |               '
04788                 | 
04788     7D 11 03 FB | p231               rdlong  char,framebuf2
0478c     32 0C 63 FD |                    skipf skippattern
04790     50 10 FF F9 |                    movbyts char,#%01010000         '0 1 1
04794     00 10 FF F9 |                    movbyts char,#%00000000         '1 0 0
04798     88 B9 C2 FC |                    xcont   m_lut2,char             '0 0 0
0479c     88 B9 C2 FC |                    xcont   m_lut2,char             '1 1 0
047a0                 |               '    add     framebuf2,#4            '1 1 1
047a0     02 FA 06 F1 |                    add     framebuf2,#2                    '0 1 1
047a4     01 FA 06 F1 |                    add     framebuf2,#1                '1 0 0
047a8     F7 0F 6F FB |                    djnz    cpl2,#p231
047ac                 | 
047ac     20 01 90 FD |                jmp    #p203
047b0                 | 
047b0                 | '' --- 1 bit color modes
047b0                 | 
047b0     00 16 0F F2 | p240          cmp zoom, #%00 wz     '2 colors, zoom x1
047b4     08 01 90 AD |        if_z   jmp #p251              'there is an universal loop for 1x zoom at p251, saves one long of skip pattern
047b8                 | 
047b8     01 16 0F F2 |               cmp zoom, #%01 wz     '2 colors, zoom x2
047bc     13 0C 07 A6 |        if_z   mov skippattern,#%10011
047c0     08 0C 07 56 |        if_nz  mov skippattern,#%01000
047c4                 | 
047c4                 | 
047c4     7D 11 E3 FA | p241               rdword  char,framebuf2
047c8     44 10 FF F9 |                    movbyts char,#%01000100
047cc     63 10 63 FD |                    mergew  char
047d0     32 0C 63 FD |                    skipf skippattern
047d4     44 10 FF F9 |                    movbyts char,#%01000100         ' 1 0
047d8     63 10 63 FD |                    mergew  char                    ' 1 0
047dc     88 B9 C2 FC |                    xcont   m_lut2,char             ' 0 0
047e0     02 FA 06 F1 |                    add     framebuf2,#2                    ' 0 1
047e4     01 FA 06 F1 |                    add     framebuf2,#1                ' 1 0
047e8     F6 0F 6F FB |                    djnz   cpl2,#p241
047ec                 | 
047ec                 | 
047ec     E0 00 90 FD |                jmp    #p203
047f0                 | 
047f0                 | '' --- 2 bit color modes
047f0                 | 
047f0     00 16 0F F2 | p250          cmp zoom, #%00 wz     '4 colors, zoom x1
047f4     C8 00 90 AD |        if_z   jmp #p251
047f8                 | 
047f8     01 16 0F F2 |               cmp zoom, #%01 wz     '4 colors, zoom x2
047fc     30 00 90 AD |        if_z   jmp #p252
04800                 | 
04800                 | 
04800     7D 11 C3 FA | p254               rdbyte char,framebuf2
04804     04 0A 07 F6 |                    mov  t5,#4
04808     02 10 67 F0 | p255               shl  char,#2
0480c     88 03 53 F8 |                    getnib  t1,char,#2
04810     03 02 07 F5 |                    and     t1,#3
04814     55 02 07 FA |                    mul     t1,#$55
04818     81 05 03 F9 |                    rolbyte  t2,t1,#0
0481c     FA 0B 6F FB |                    djnz    t5,#p255
04820     82 B9 C2 FC |                    xcont   m_lut2,t2
04824     01 FA 06 F1 |                    add     framebuf2,#1
04828     F5 0F 6F FB |                    djnz    cpl2,#p254
0482c     A0 00 90 FD |                    jmp     #p203
04830                 | 
04830     7D 11 E3 FA | p252               rdword char,framebuf2
04834     08 0A 07 F6 |                    mov  t5,#8
04838     02 10 67 F0 | p253               shl  char,#2
0483c     88 03 63 F8 |                    getnib  t1,char,#4
04840     03 02 07 F5 |                    and     t1,#3
04844     05 02 07 FA |                    mul     t1,#5
04848     81 05 83 F8 |                    rolnib  t2,t1,#0
0484c     FA 0B 6F FB |                    djnz    t5,#p253
04850     82 B9 C2 FC |                    xcont   m_lut2,t2
04854     02 FA 06 F1 |                    add     framebuf2,#2
04858     F5 0F 6F FB |                    djnz    cpl2,#p252
0485c     70 00 90 FD |                    jmp     #p203
04860                 | 
04860                 | '' ------ 4 bit color modes
04860                 | 
04860     00 16 0F F2 | p260          cmp zoom, #%00 wz     '4 colors, zoom x1, the same loop as 2bpp
04864     58 00 90 AD |        if_z   jmp #p251
04868                 | 
04868     01 16 0F F2 |               cmp zoom, #%01 wz     '4 colors, zoom x2
0486c     2C 00 90 AD |        if_z   jmp #p262
04870                 | 
04870                 | 
04870     7D 11 C3 FA | p263               rdbyte char,framebuf2
04874     02 0A DC FC |                            rep #5,#2
04878     88 05 8B F8 |                              rolnib t2,char,#1
0487c     88 05 8B F8 |                                  rolnib t2,char,#1
04880     88 05 8B F8 |                              rolnib t2,char,#1
04884     88 05 8B F8 |                                  rolnib t2,char,#1
04888     04 10 67 F0 |                              shl char,#4
0488c     82 B9 C2 FC |                    xcont   m_lut2,t2
04890     01 FA 06 F1 |                    add     framebuf2,#1
04894     F6 0F 6F FB |                    djnz    cpl2,#p263
04898     34 00 90 FD |                    jmp     #p203
0489c                 | 
0489c     7D 11 E3 FA | p262               rdword  char,framebuf2
048a0     04 06 DC FC |                            rep #3,#4
048a4     88 05 9B F8 |                              rolnib t2,char,#3
048a8     88 05 9B F8 |                                  rolnib t2,char,#3
048ac     04 10 67 F0 |                              shl char,#4
048b0     82 B9 C2 FC |                    xcont   m_lut2,t2
048b4     02 FA 06 F1 |                    add     framebuf2,#2
048b8     F8 0F 6F FB |                    djnz    cpl2,#p262
048bc     10 00 90 FD |                    jmp     #p203
048c0                 | 
048c0                 | ''---------- all color modes without zoom
048c0                 | 
048c0     7D 11 03 FB | p251               rdlong  char,framebuf2
048c4     88 B9 C2 FC |                    xcont   m_lut2,char
048c8     04 FA 06 F1 |                    add     framebuf2,#4
048cc     FC 0F 6F FB |                    djnz    cpl2,#p251     ' no jmp #p203, not needed here
048d0                 | 
048d0                 |  ''-----------------------------------------------------------------------------------------
048d0     50 03 33 F9 | p203            getword  t1,m_border,#0
048d4     00 02 0F F2 |                 cmp      t1, #0 wz
048d8     4B A1 C2 5C |                 if_nz    xcont   m_border,border            'display a right border if exists
048dc                 | 
048dc     E4 FB 9F FD |                 jmp #p302
048e0                 | 
048e0                 | '' -------------------------------------- END of graph  line ---------------------------------
048e0                 | 
048e0                 | '' consts and vars
048e0                 | 
048e0     52 4D 35 D5 | sync_000        long    %1101010100_1101010100_1101010100_10    '
048e4     AE 42 35 D5 | sync_001        long    %1101010100_1101010100_0010101011_10    '        hsync
048e8     52 45 15 55 | sync_222        long    %0101010100_0101010100_0101010100_10    'vsync
048ec     AE 4A 15 55 | sync_223        long    %0101010100_0101010100_1010101011_10    'vsync + hsync
048f0                 | 
048f0     00 2C 1A 00 | border          long    %00000000_00011010_00101100_00000000
048f4                 | 
048f4                 | '------ these longs will be set by setmode function
048f4                 | 
048f4     00 00 00 00 | m_bs            long    0        'blanks before sync
048f8     00 00 00 00 | m_sn            long    0        'sync
048fc     00 00 00 00 | m_bv            long    0        'blanks before visible
04900     00 00 00 00 | m_vi            long    0        'visible pixels #
04904     00 00 00 00 | m_border        long    0        'left/right borders
04908     00 00 00 00 | m_lut1          long    0        'characters
0490c     00 00 00 00 | i_vborder       long    0        'up/down borders
04910     00 00 00 00 | i_upporch       long    0        'up porch lines
04914     00 00 00 00 | i_vsync         long    0        'vsync lines
04918     00 00 00 00 | i_downporch     long    0        'down porch lines
0491c     00 00 00 00 | i_modenum       long    0        'mode #
04920     00 00 00 00 | i_cpl           long    0        'chars/longs per line
04924     00 00 00 00 | i_lines         long    0        'scanlines #
04928     00 00 00 00 | i_clock         long    0
0492c     00 00 00 00 | i_hubset        long    0
04930     00 00 00 00 | i_totalvis      long    0
04934                 | 
04934                 | '-------------------------------------
04934                 | 
04934     00 00 00 00 | m_lut2          long    0
04938                 | 
04938                 | colordepth
04938     00 00 00 00 | linestart       long    0
0493c     00 00 00 00 | linenum         long    0
04940     00 01 00 00 | lutaddr         long    256
04944                 | 
04944     0E 00 00 00 | cursorsh        long    14
04948     00 00 00 00 | frames          long    0
0494c     00 00 00 00 | cursorx         long    0
04950     00 00 00 00 | cursory         long    0
04954     00 00 00 00 | cursorpos       long    0
04958     00 00 00 00 | cursorpos2      long    0
0495c     00 00 00 00 | fontstart       long    0
04960     00 00 00 00 | border2 long 0
04964     00 00 81 70 | lutiv           long $70810000
04968     00 00 88 00 | lutt1           long $00880000
0496c     00 00 8D 00 | lutg1           long $008d0000
04970     00 00 8E 10 | lutg2           long $108e0000
04974     00 00 8F 20 | lutg4           long $208f0000
04978     00 00 80 30 | lutg8           long $30800000
0497c                 | framebuf        res     1
0497c                 | fontbuf         res     1
0497c                 | borderptr       res     1
0497c                 | vblankptr       res     1
0497c                 | cursorptr       res     1
0497c                 | modeptr         res     1
0497c                 | paletteptr      res     1
0497c                 | commandptr      res     1
0497c                 | dlptr                   res     1
0497c                 | fontnumptr      res     1
0497c                 | hbase           res     1
0497c                 | borderptr2      res     1
0497c                 | dlptr2 res 1
0497c                 | dl              res 1
0497c                 | ii              res     1
0497c                 | framebuf2       res     1
0497c                 | hsync0          res     1
0497c                 | hsync1          res     1
0497c                 | fontline        res     1
0497c                 | t1              res     1
0497c                 | t2              res     1
0497c                 | t3 res 1
0497c                 | t4 res 1
0497c                 | t5 res 1
0497c                 | skippattern res 1
0497c                 | cpl2 res 1
0497c                 | char            res     1
0497c                 | backcolor       res     1
0497c                 | charcolor       res     1
0497c                 | zoom res 1
0497c     00 00 00 00 | aend             long 0
04980                 | 	alignl
04980                 | __system__dat_
04980     00 00 00 00 
04984     00 00 00 00 
04988     03 00 00 00 
0498c     00 00 00 00 | 	byte	$00, $00, $00, $00, $00, $00, $00, $00, $03, $00, $00, $00, $00, $00, $00, $00
04990                 | __heap_base
04990     00 00 00 00 
      ...             
05990     00 00 00 00 
05994     00 00 00 00 | 	long	0[1026]
05998                 | objmem
05998     00 00 00 00 | 	long	0[1]
0599c 083             | 	org	COG_BSS_START
0599c 083             | _var01
0599c 083             | 	res	1
0599c 084             | _var02
0599c 084             | 	res	1
0599c 085             | _var03
0599c 085             | 	res	1
0599c 086             | _var04
0599c 086             | 	res	1
0599c 087             | _var05
0599c 087             | 	res	1
0599c 088             | _var06
0599c 088             | 	res	1
0599c 089             | _var07
0599c 089             | 	res	1
0599c 08a             | _var08
0599c 08a             | 	res	1
0599c 08b             | _var09
0599c 08b             | 	res	1
0599c 08c             | _var10
0599c 08c             | 	res	1
0599c 08d             | _var11
0599c 08d             | 	res	1
0599c 08e             | _var12
0599c 08e             | 	res	1
0599c 08f             | _var13
0599c 08f             | 	res	1
0599c 090             | _var14
0599c 090             | 	res	1
0599c 091             | _var15
0599c 091             | 	res	1
0599c 092             | _var16
0599c 092             | 	res	1
0599c 093             | arg01
0599c 093             | 	res	1
0599c 094             | arg02
0599c 094             | 	res	1
0599c 095             | arg03
0599c 095             | 	res	1
0599c 096             | arg04
0599c 096             | 	res	1
0599c 097             | arg05
0599c 097             | 	res	1
0599c 098             | arg06
0599c 098             | 	res	1
0599c 099             | local01
0599c 099             | 	res	1
0599c 09a             | local02
0599c 09a             | 	res	1
0599c 09b             | local03
0599c 09b             | 	res	1
0599c 09c             | local04
0599c 09c             | 	res	1
0599c 09d             | local05
0599c 09d             | 	res	1
0599c 09e             | local06
0599c 09e             | 	res	1
0599c 09f             | local07
0599c 09f             | 	res	1
0599c 0a0             | local08
0599c 0a0             | 	res	1
0599c 0a1             | local09
0599c 0a1             | 	res	1
0599c 0a2             | local10
0599c 0a2             | 	res	1
0599c 0a3             | local11
0599c 0a3             | 	res	1
0599c 0a4             | local12
0599c 0a4             | 	res	1
0599c 0a5             | local13
0599c 0a5             | 	res	1
0599c 0a6             | local14
0599c 0a6             | 	res	1
0599c 0a7             | local15
0599c 0a7             | 	res	1
0599c 0a8             | local16
0599c 0a8             | 	res	1
0599c 0a9             | local17
0599c 0a9             | 	res	1
0599c 0aa             | local18
0599c 0aa             | 	res	1
0599c 0ab             | local19
0599c 0ab             | 	res	1
0599c 0ac             | local20
0599c 0ac             | 	res	1
0599c 0ad             | local21
0599c 0ad             | 	res	1
0599c 0ae             | local22
0599c 0ae             | 	res	1
0599c 0af             | local23
0599c 0af             | 	res	1
0599c 0b0             | local24
0599c 0b0             | 	res	1
0599c 0b1             | local25
0599c 0b1             | 	res	1
0599c 0b2             | local26
0599c 0b2             | 	res	1
0599c 0b3             | local27
0599c 0b3             | 	res	1
0599c 0b4             | local28
0599c 0b4             | 	res	1
0599c 0b5             | local29
0599c 0b5             | 	res	1
0599c 0b6             | local30
0599c 0b6             | 	res	1
0599c 0b7             | local31
0599c 0b7             | 	res	1
0599c 0b8             | local32
0599c 0b8             | 	res	1
0599c 0b9             | local33
0599c 0b9             | 	res	1
0599c 0ba             | local34
0599c 0ba             | 	res	1
0599c 0bb             | local35
0599c 0bb             | 	res	1
0599c 0bc             | local36
0599c 0bc             | 	res	1
0599c 0bd             | local37
0599c 0bd             | 	res	1
0599c 0be             | local38
0599c 0be             | 	res	1
0599c 0bf             | local39
0599c 0bf             | 	res	1
0599c 0c0             | local40
0599c 0c0             | 	res	1
0599c 0c1             | local41
0599c 0c1             | 	res	1
0599c 0c2             | local42
0599c 0c2             | 	res	1
0599c 0c3             | local43
0599c 0c3             | 	res	1
0599c 0c4             | local44
0599c 0c4             | 	res	1
0599c 0c5             | local45
0599c 0c5             | 	res	1
0599c 0c6             | local46
0599c 0c6             | 	res	1
0599c 0c7             | local47
0599c 0c7             | 	res	1
0599c 0c8             | local48
0599c 0c8             | 	res	1
0599c 0c9             | local49
0599c 0c9             | 	res	1
0599c 0ca             | local50
0599c 0ca             | 	res	1
0599c 0cb             | local51
0599c 0cb             | 	res	1
0599c 0cc             | local52
0599c 0cc             | 	res	1
0599c 0cd             | local53
0599c 0cd             | 	res	1
0599c 0ce             | local54
0599c 0ce             | 	res	1
0599c 0cf             | local55
0599c 0cf             | 	res	1
0599c 0d0             | local56
0599c 0d0             | 	res	1
0599c 0d1             | local57
0599c 0d1             | 	res	1
0599c 0d2             | local58
0599c 0d2             | 	res	1
0599c 0d3             | local59
0599c 0d3             | 	res	1
0599c 0d4             | local60
0599c 0d4             | 	res	1
0599c 0d5             | local61
0599c 0d5             | 	res	1
0599c 0d6             | local62
0599c 0d6             | 	res	1
0599c 0d7             | local63
0599c 0d7             | 	res	1
0599c 0d8             | local64
0599c 0d8             | 	res	1
0599c 0d9             | local65
0599c 0d9             | 	res	1
0599c 0da             | local66
0599c 0da             | 	res	1
0599c 0db             | local67
0599c 0db             | 	res	1
0599c 0dc             | local68
0599c 0dc             | 	res	1
0599c 0dd             | local69
0599c 0dd             | 	res	1
0599c 0de             | local70
0599c 0de             | 	res	1
0599c 0df             | local71
0599c 0df             | 	res	1
0599c 0e0             | local72
0599c 0e0             | 	res	1
0599c 0e1             | local73
0599c 0e1             | 	res	1
0599c 0e2             | local74
0599c 0e2             | 	res	1
0599c 0e3             | local75
0599c 0e3             | 	res	1
0599c 0e4             | muldiva_
0599c 0e4             | 	res	1
0599c 0e5             | muldivb_
0599c 0e5             | 	res	1
0599c 0e6             | 	fit	480