
00000                 | 
00000                 | #line 1 "D:/programowanie/20210307-ultibo-propeller/ultibo-propeller/Tonecog/testprop.p2asm"
00000                 | dat
00000 000 00 00 00 00 | 	nop
00004 001 01 EC 63 FD | 	cogid	pa
00008 002 02 00 00 FF 
0000c 003 00 EC E7 FC | 	coginit	pa,##$400
00010                 | 	orgh	$10
00010     00 00 00 00 | 	long	0	'reserved
00014     00 00 00 00 | 	long	0 ' clock frequency: will default to 160000000
00018     00 00 00 00 | 	long	0 ' clock mode: will default to $10007fb
0001c     00 00 00 00 
      ...             
003f8     00 00 00 00 
003fc     00 00 00 00 | 	orgh	$400
00400 000             | 	org	0
00400 000             | entry
00400 000 00 F0 0F F2 | 	cmp	ptra, #0 wz
00404 001 94 00 90 5D |  if_ne	jmp	#spininit
00408 002 7F F0 03 F6 | 	mov	ptra, ptr_stackspace_
0040c 003 14 EC 0F FB | 	rdlong	pa, #20 wz
00410 004 6C 00 90 5D |  if_ne	jmp	#skip_clock_set_
00414 005 00 00 64 FD | 	hubset	#0
00418 006 03 80 80 FF 
0041c 007 00 F0 67 FD | 	hubset	##16779256
00420 008 86 01 80 FF 
00424 009 1F 80 66 FD | 	waitx	##200000
00428 00a 03 80 00 FF 
0042c 00b FB ED 07 F6 | 	mov	pa, ##16779259
00430 00c 00 EC 63 FD | 	hubset	pa
00434 00d 18 EC 67 FC | 	wrlong	pa, #24
00438 00e B4 C4 84 FF 
0043c 00f 14 00 6C FC | 	wrlong	##160000000, #20
00440 010 3C 00 90 FD | 	jmp	#skip_clock_set_
00444 011 00 00 00 00 
      ...             
00478 01e 00 00 00 00 
0047c 01f 00 00 00 00 | 	orgf	32
00480 020             | skip_clock_set_
00480 020 04 EC 60 FD | 	locknew	__lockreg
00484 021 7B EC 60 FC | 	wrlong	__lockreg, ptr___lockreg_
00488 022 40 08 A0 FD | 	call	#_main
0048c 023             | cogexit
0048c 023 38 01 80 FF 
00490 024 1F 00 66 FD | 	waitx	##160000
00494 025 01 20 61 FD | 	cogid	arg01
00498 026 03 20 61 FD | 	cogstop	arg01
0049c 027             | spininit
0049c 027 00 F3 04 FB | 	rdlong	objptr, ptra
004a0 028 04 F0 07 F1 | 	add	ptra, #4
004a4 029 00 01 05 FB | 	rdlong	result1, ptra
004a8 02a 04 F0 07 F1 | 	add	ptra, #4
004ac 02b 00 21 05 FB | 	rdlong	arg01, ptra
004b0 02c 04 F0 07 F1 | 	add	ptra, #4
004b4 02d 00 23 05 FB | 	rdlong	arg02, ptra
004b8 02e 04 F0 07 F1 | 	add	ptra, #4
004bc 02f 00 25 05 FB | 	rdlong	arg03, ptra
004c0 030 04 F0 07 F1 | 	add	ptra, #4
004c4 031 00 27 05 FB | 	rdlong	arg04, ptra
004c8 032 10 F0 87 F1 | 	sub	ptra, #16
004cc 033 2D 00 61 FD | 	call	result1
004d0 034 B8 FF 9F FD | 	jmp	#cogexit
004d4 035             | FCACHE_LOAD_
004d4 035 2B 86 60 FD |     pop	fcache_tmpb_
004d8 036 F6 87 00 F1 |     add	fcache_tmpb_, pa
004dc 037 2A 86 60 FD |     push	fcache_tmpb_
004e0 038 F6 87 80 F1 |     sub	fcache_tmpb_, pa
004e4 039 02 EC 47 F0 |     shr	pa, #2
004e8 03a F6 85 00 F6 |     mov	fcache_tmpa_, pa
004ec 03b 00 85 04 F1 |     add	fcache_tmpa_, #$100
004f0 03c 42 82 30 FC |     wrlut ret_instr_, fcache_tmpa_
004f4 03d 01 EC 87 F1 |     sub	pa, #1
004f8 03e 29 EC 63 FD |     setq2	pa
004fc 03f 43 00 02 FB |     rdlong	$100-0, fcache_tmpb_
00500 040 00 03 80 FD |     jmp	#\$300 ' jmp to cache
00504 041             | ret_instr_
00504 041 2D 00 64 FD |     ret
00508 042             | fcache_tmpa_
00508 042 00 00 00 00 |     long 0
0050c 043             | fcache_tmpb_
0050c 043 00 00 00 00 |     long 0
00510 044             | COUNT_
00510 044 00 00 00 00 |     long 0
00514 045             | RETADDR_
00514 045 00 00 00 00 |     long 0
00518 046             | fp
00518 046 00 00 00 00 |     long 0
0051c 047             | gosub_
0051c 047 00 88 04 F6 |     mov  COUNT_, #0
00520 048 90 EC 03 F6 |     mov  pa, arg01
00524 049 2B 8A 60 FD |     pop  RETADDR_
00528 04a 1C 00 90 FD |     jmp  #pushregs_done_
0052c 04b             | pushregs_
0052c 04b 2B EC 63 FD |     pop  pa
00530 04c 2B 8A 60 FD |     pop  RETADDR_
00534 04d 04 88 94 FB |     tjz  COUNT_, #pushregs_done_
00538 04e 01 88 84 F1 |     sub  COUNT_, #1
0053c 04f 28 88 60 FD |     setq COUNT_
00540 050 00 2B 65 FC |     wrlong local01, ptra
00544 051 01 88 04 F1 |     add  COUNT_, #1
00548 052             | pushregs_done_
00548 052 02 88 64 F0 |     shl  COUNT_, #2
0054c 053 44 F0 03 F1 |     add  ptra, COUNT_
00550 054 02 88 44 F0 |     shr  COUNT_, #2
00554 055 28 04 64 FD |     setq #2 ' push 3 registers starting at COUNT_
00558 056 00 89 64 FC |     wrlong COUNT_, ptra
0055c 057 0C F0 07 F1 |     add    ptra, #12
00560 058 F8 8D 00 F6 |     mov    fp, ptra
00564 059 2C EC 63 FD |     jmp  pa
00568 05a             |  popregs_
00568 05a 2B EC 63 FD |     pop    pa
0056c 05b 0C F0 87 F1 |     sub    ptra, #12
00570 05c 28 04 64 FD |     setq   #2
00574 05d 00 89 04 FB |     rdlong COUNT_, ptra
00578 05e 06 88 94 FB |     tjz    COUNT_, #popregs__ret
0057c 05f 02 88 64 F0 |     shl    COUNT_, #2
00580 060 44 F0 83 F1 |     sub    ptra, COUNT_
00584 061 02 88 44 F0 |     shr    COUNT_, #2
00588 062 01 88 84 F1 |     sub    COUNT_, #1
0058c 063 28 88 60 FD |     setq   COUNT_
00590 064 00 2B 05 FB |     rdlong local01, ptra
00594 065             | popregs__ret
00594 065 2A 8A 60 FD |     push   RETADDR_
00598 066 2C EC 63 FD |     jmp    pa
0059c 067             | 
0059c 067             | unsdivide_
0059c 067 28 00 64 FD |        setq    #0
005a0 068 AC 56 11 FD |        qdiv    muldiva_, muldivb_
005a4 069 18 58 61 FD |        getqx   muldivb_
005a8 06a 19 56 61 0D |  _ret_ getqy   muldiva_
005ac 06b             | 
005ac 06b             | divide_
005ac 06b AB 56 51 F6 |        abs     muldiva_,muldiva_     wc       'abs(x)
005b0 06c 03 F0 84 F5 |        muxc    itmp2_,#%11                    'store sign of x
005b4 06d AC 58 59 F6 |        abs     muldivb_,muldivb_     wcz      'abs(y)
005b8 06e 02 F0 64 C5 |  if_c  xor     itmp2_,#%10                    'store sign of y
005bc 06f 2D 00 64 AD |  if_z  ret
005c0 070 D8 FF BF FD |        call    #unsdivide_
005c4 071 01 F0 D4 F7 |        test    itmp2_,#1        wc       'restore sign, remainder
005c8 072 AB 56 81 F6 |        negc    muldiva_,muldiva_ 
005cc 073 02 F0 D4 F7 |        test    itmp2_,#%10      wc       'restore sign, division result
005d0 074 AC 58 81 06 |  _ret_ negc    muldivb_,muldivb_
005d4 075             | 
005d4 075             | __heap_ptr
005d4 075 04 4F 00 00 | 	long	@__heap_base
005d8 076             | __lockreg
005d8 076 00 00 00 00 | 	long	0
005dc 077             | itmp1_
005dc 077 00 00 00 00 | 	long	0
005e0 078             | itmp2_
005e0 078 00 00 00 00 | 	long	0
005e4 079             | objptr
005e4 079 0C 5F 00 00 | 	long	@objmem
005e8 07a             | ptr____struct__fmtfile_putchar_
005e8 07a A8 19 00 00 | 	long	@___struct__fmtfile_putchar
005ec 07b             | ptr___lockreg_
005ec 07b D8 05 00 00 | 	long	@__lockreg
005f0 07c             | ptr___system__dat__
005f0 07c F0 4E 00 00 | 	long	@__system__dat_
005f4 07d             | ptr__dat__
005f4 07d D8 4C 00 00 | 	long	@_dat_
005f8 07e             | ptr__my_tx_
005f8 07e FC 07 00 00 | 	long	@_my_tx
005fc 07f             | ptr_stackspace_
005fc 07f 0C 5F 00 00 | 	long	@stackspace
00600 080             | result1
00600 080 00 00 00 00 | 	long	0
00604 081             | result2
00604 081 00 00 00 00 | 	long	0
00608 082             | result3
00608 082 00 00 00 00 | 	long	0
0060c 083             | COG_BSS_START
0060c 083             | 	fit	480
0060c                 | 	orgh
0060c                 | hubentry
0060c                 | 
0060c                 | _write
0060c     03 88 04 F6 | 	mov	COUNT_, #3
00610     4B 00 A0 FD | 	call	#pushregs_
00614     90 2A 01 F6 | 	mov	local01, arg01
00618     91 2C 01 F6 | 	mov	local02, arg02
0061c     92 2E 01 F6 | 	mov	local03, arg03
00620     0A 2A 1D F2 | 	cmp	local01, #10 wcz
00624     0C 00 90 CD |  if_b	jmp	#LR__0001
00628                 | '         return _seterror( 5 );
00628     05 20 05 F6 | 	mov	arg01, #5
0062c     AC 2B B0 FD | 	call	#__system___seterror
00630     18 00 90 FD | 	jmp	#LR__0002
00634                 | LR__0001
00634     2C 2A 05 FD | 	qmul	local01, #44
00638     18 20 61 FD | 	getqx	arg01
0063c     7D 20 01 F1 | 	add	arg01, ptr__dat__
00640                 | '     }
00640                 | '     f = &__filetab[fd];
00640                 | '     return _vfswrite(f, vbuf, count);
00640     96 22 01 F6 | 	mov	arg02, local02
00644     97 24 01 F6 | 	mov	arg03, local03
00648     D0 04 B0 FD | 	call	#__vfswrite
0064c                 | LR__0002
0064c     46 F0 03 F6 | 	mov	ptra, fp
00650     5A 00 A0 FD | 	call	#popregs_
00654                 | _write_ret
00654     2D 00 64 FD | 	ret
00658                 | 
00658                 | _read
00658     03 88 04 F6 | 	mov	COUNT_, #3
0065c     4B 00 A0 FD | 	call	#pushregs_
00660     90 2A 01 F6 | 	mov	local01, arg01
00664     91 2C 01 F6 | 	mov	local02, arg02
00668     92 2E 01 F6 | 	mov	local03, arg03
0066c     0A 2A 1D F2 | 	cmp	local01, #10 wcz
00670     0C 00 90 CD |  if_b	jmp	#LR__0003
00674                 | '         return _seterror( 5 );
00674     05 20 05 F6 | 	mov	arg01, #5
00678     60 2B B0 FD | 	call	#__system___seterror
0067c     18 00 90 FD | 	jmp	#LR__0004
00680                 | LR__0003
00680     2C 2A 05 FD | 	qmul	local01, #44
00684     18 20 61 FD | 	getqx	arg01
00688     7D 20 01 F1 | 	add	arg01, ptr__dat__
0068c                 | '     }
0068c                 | '     f = &__filetab[fd];
0068c                 | '     return _vfsread(f, vbuf, count);
0068c     96 22 01 F6 | 	mov	arg02, local02
00690     97 24 01 F6 | 	mov	arg03, local03
00694     10 06 B0 FD | 	call	#__vfsread
00698                 | LR__0004
00698     46 F0 03 F6 | 	mov	ptra, fp
0069c     5A 00 A0 FD | 	call	#popregs_
006a0                 | _read_ret
006a0     2D 00 64 FD | 	ret
006a4                 | 
006a4                 | _lseek
006a4     09 88 04 F6 | 	mov	COUNT_, #9
006a8     4B 00 A0 FD | 	call	#pushregs_
006ac     90 2A 01 F6 | 	mov	local01, arg01
006b0     91 2C 01 F6 | 	mov	local02, arg02
006b4     92 2E 01 F6 | 	mov	local03, arg03
006b8     0A 2A 1D F2 | 	cmp	local01, #10 wcz
006bc     0C 00 90 CD |  if_b	jmp	#LR__0005
006c0                 | '         return _seterror( 5 );
006c0     05 20 05 F6 | 	mov	arg01, #5
006c4     14 2B B0 FD | 	call	#__system___seterror
006c8     A0 00 90 FD | 	jmp	#LR__0009
006cc                 | LR__0005
006cc     2C 2A 05 FD | 	qmul	local01, #44
006d0     18 30 61 FD | 	getqx	local04
006d4     7D 30 01 F1 | 	add	local04, ptr__dat__
006d8     28 30 05 F1 | 	add	local04, #40
006dc     98 32 09 FB | 	rdlong	local05, local04 wz
006e0     28 30 85 F1 | 	sub	local04, #40
006e4     0C 00 90 5D |  if_ne	jmp	#LR__0006
006e8                 | '         return _seterror( 16 );
006e8     10 20 05 F6 | 	mov	arg01, #16
006ec     EC 2A B0 FD | 	call	#__system___seterror
006f0     78 00 90 FD | 	jmp	#LR__0009
006f4                 | LR__0006
006f4     08 30 05 F1 | 	add	local04, #8
006f8     98 32 01 FB | 	rdlong	local05, local04
006fc     08 30 85 F1 | 	sub	local04, #8
00700     40 32 CD F7 | 	test	local05, #64 wz
00704     14 00 90 AD |  if_e	jmp	#LR__0007
00708     08 30 05 F1 | 	add	local04, #8
0070c     98 32 01 FB | 	rdlong	local05, local04
00710     80 32 45 F5 | 	or	local05, #128
00714     98 32 61 FC | 	wrlong	local05, local04
00718     08 30 85 F1 | 	sub	local04, #8
0071c                 | LR__0007
0071c     28 30 05 F1 | 	add	local04, #40
00720     98 32 01 FB | 	rdlong	local05, local04
00724     28 30 85 F1 | 	sub	local04, #40
00728     99 34 01 FB | 	rdlong	local06, local05
0072c     04 32 05 F1 | 	add	local05, #4
00730     99 36 01 FB | 	rdlong	local07, local05
00734     98 20 01 F6 | 	mov	arg01, local04
00738     96 22 01 F6 | 	mov	arg02, local02
0073c     97 24 01 F6 | 	mov	arg03, local03
00740     79 38 01 F6 | 	mov	local08, objptr
00744     9A F2 00 F6 | 	mov	objptr, local06
00748     2D 36 61 FD | 	call	local07
0074c     9C F2 00 F6 | 	mov	objptr, local08
00750     80 3A 01 F6 | 	mov	local09, result1
00754     00 3A 5D F2 | 	cmps	local09, #0 wcz
00758     0C 00 90 3D |  if_ae	jmp	#LR__0008
0075c                 | '         return _seterror(-r);
0075c     9D 20 61 F6 | 	neg	arg01, local09
00760     78 2A B0 FD | 	call	#__system___seterror
00764     04 00 90 FD | 	jmp	#LR__0009
00768                 | LR__0008
00768                 | '     }
00768                 | '     return r;
00768     9D 00 01 F6 | 	mov	result1, local09
0076c                 | LR__0009
0076c     46 F0 03 F6 | 	mov	ptra, fp
00770     5A 00 A0 FD | 	call	#popregs_
00774                 | _lseek_ret
00774     2D 00 64 FD | 	ret
00778                 | 
00778                 | _printf
00778     01 88 04 F6 | 	mov	COUNT_, #1
0077c     4B 00 A0 FD | 	call	#pushregs_
00780     18 F0 07 F1 | 	add	ptra, #24
00784     04 8C 04 F1 | 	add	fp, #4
00788     46 20 61 FC | 	wrlong	arg01, fp
0078c     04 8C 04 F1 | 	add	fp, #4
00790     46 22 61 FC | 	wrlong	arg02, fp
00794                 | '         return 0;
00794                 | '     }
00794                 | '     return &__filetab[i];
00794     2C 02 0C FD | 	qmul	#1, #44
00798     18 00 61 FD | 	getqx	result1
0079c     7D 00 01 F1 | 	add	result1, ptr__dat__
007a0     08 8C 04 F1 | 	add	fp, #8
007a4     46 00 61 FC | 	wrlong	result1, fp
007a8     08 8C 84 F1 | 	sub	fp, #8
007ac     46 2A 01 FB | 	rdlong	local01, fp
007b0     46 2A 61 FC | 	wrlong	local01, fp
007b4     08 8C 04 F1 | 	add	fp, #8
007b8     46 20 01 F6 | 	mov	arg01, fp
007bc     10 8C 84 F1 | 	sub	fp, #16
007c0     7A 22 01 F6 | 	mov	arg02, ptr____struct__fmtfile_putchar_
007c4     CC 13 B0 FD | 	call	#__system___make_methodptr
007c8     80 20 01 F6 | 	mov	arg01, result1
007cc     04 8C 04 F1 | 	add	fp, #4
007d0     46 22 01 FB | 	rdlong	arg02, fp
007d4     04 8C 04 F1 | 	add	fp, #4
007d8     46 24 01 F6 | 	mov	arg03, fp
007dc     08 8C 84 F1 | 	sub	fp, #8
007e0     A8 07 B0 FD | 	call	#__dofmt
007e4     0C 8C 04 F1 | 	add	fp, #12
007e8     46 00 61 FC | 	wrlong	result1, fp
007ec                 | '     r = _dofmt( &ff.putchar, fmt, &args);
007ec                 | '     ;
007ec                 | '     return r;
007ec     0C 8C 84 F1 | 	sub	fp, #12
007f0     46 F0 03 F6 | 	mov	ptra, fp
007f4     5A 00 A0 FD | 	call	#popregs_
007f8                 | _printf_ret
007f8     2D 00 64 FD | 	ret
007fc                 | 
007fc                 | _my_tx
007fc     01 88 04 F6 | 	mov	COUNT_, #1
00800     4B 00 A0 FD | 	call	#pushregs_
00804     90 2A 01 F6 | 	mov	local01, arg01
00808     61 2A 5D F2 | 	cmps	local01, #97 wcz
0080c     18 00 90 CD |  if_b	jmp	#LR__0010
00810     7A 2A 5D F2 | 	cmps	local01, #122 wcz
00814     10 00 90 1D |  if_a	jmp	#LR__0010
00818     95 20 01 F6 | 	mov	arg01, local01
0081c     01 20 05 F1 | 	add	arg01, #1
00820     B0 13 B0 FD | 	call	#__system___tx
00824     08 00 90 FD | 	jmp	#LR__0011
00828                 | LR__0010
00828     95 20 01 F6 | 	mov	arg01, local01
0082c     A4 13 B0 FD | 	call	#__system___tx
00830                 | LR__0011
00830                 | '         _tx(c);
00830                 | '     return 1;
00830     01 00 05 F6 | 	mov	result1, #1
00834     46 F0 03 F6 | 	mov	ptra, fp
00838     5A 00 A0 FD | 	call	#popregs_
0083c                 | _my_tx_ret
0083c     2D 00 64 FD | 	ret
00840                 | 
00840                 | _main
00840     02 88 04 F6 | 	mov	COUNT_, #2
00844     4B 00 A0 FD | 	call	#pushregs_
00848                 | '         return 0;
00848                 | '     }
00848                 | '     return &__filetab[i];
00848     2C 02 0C FD | 	qmul	#1, #44
0084c     18 00 61 FD | 	getqx	result1
00850     7D 00 01 F1 | 	add	result1, ptr__dat__
00854     80 2A 01 F6 | 	mov	local01, result1
00858     79 20 01 F6 | 	mov	arg01, objptr
0085c     7E 22 01 F6 | 	mov	arg02, ptr__my_tx_
00860     30 13 B0 FD | 	call	#__system___make_methodptr
00864     80 2C 01 F6 | 	mov	local02, result1
00868     14 2A 05 F1 | 	add	local01, #20
0086c     95 2C 61 FC | 	wrlong	local02, local01
00870     26 00 00 FF 
00874     C6 20 05 F6 | 	mov	arg01, ##@LR__0379
00878     FC FE BF FD | 	call	#_printf
0087c     26 00 00 FF 
00880     CD 20 05 F6 | 	mov	arg01, ##@LR__0380
00884     F0 FE BF FD | 	call	#_printf
00888                 | ' {
00888                 | ' 
00888                 | '     __getftab(1) ->putcf = my_tx;
00888                 | ' 
00888                 | '     printf("hello\n");
00888                 | '     printf("HELLO\n");
00888                 | '     return 0;
00888     00 00 05 F6 | 	mov	result1, #0
0088c     46 F0 03 F6 | 	mov	ptra, fp
00890     5A 00 A0 FD | 	call	#popregs_
00894                 | _main_ret
00894     2D 00 64 FD | 	ret
00898                 | 
00898                 | ___default_getc
00898     03 88 04 F6 | 	mov	COUNT_, #3
0089c     4B 00 A0 FD | 	call	#pushregs_
008a0     90 2A 01 FB | 	rdlong	local01, arg01
008a4     95 2C 09 FB | 	rdlong	local02, local01 wz
008a8     08 00 90 5D |  if_ne	jmp	#LR__0012
008ac     A0 0E B0 FD | 	call	#___default_filbuf
008b0     80 2C 01 F6 | 	mov	local02, result1
008b4                 | LR__0012
008b4     00 2C 5D F2 | 	cmps	local02, #0 wcz
008b8                 | '         return -1;
008b8     01 00 65 E6 |  if_be	neg	result1, #1
008bc     1C 00 90 ED |  if_be	jmp	#LR__0013
008c0     01 2C 85 F1 | 	sub	local02, #1
008c4     95 2C 61 FC | 	wrlong	local02, local01
008c8     04 2A 05 F1 | 	add	local01, #4
008cc     95 2E 01 FB | 	rdlong	local03, local01
008d0     97 00 C1 FA | 	rdbyte	result1, local03
008d4     01 2E 05 F1 | 	add	local03, #1
008d8     95 2E 61 FC | 	wrlong	local03, local01
008dc                 | '     }
008dc                 | '     b->cnt = i-1;
008dc                 | '     ptr = b->ptr;
008dc                 | '     i = *ptr++;
008dc                 | '     b->ptr = ptr;
008dc                 | '     return i;
008dc                 | LR__0013
008dc     46 F0 03 F6 | 	mov	ptra, fp
008e0     5A 00 A0 FD | 	call	#popregs_
008e4                 | ___default_getc_ret
008e4     2D 00 64 FD | 	ret
008e8                 | 
008e8                 | ___default_putc
008e8     04 88 04 F6 | 	mov	COUNT_, #4
008ec     4B 00 A0 FD | 	call	#pushregs_
008f0     91 2A 01 FB | 	rdlong	local01, arg02
008f4     90 2C 01 F6 | 	mov	local02, arg01
008f8     95 2E 01 FB | 	rdlong	local03, local01
008fc     97 30 01 F6 | 	mov	local04, local03
00900     0C 2A 05 F1 | 	add	local01, #12
00904     95 30 01 F1 | 	add	local04, local01
00908     98 2C 41 FC | 	wrbyte	local02, local04
0090c     FF 2C 05 F5 | 	and	local02, #255
00910     01 2E 05 F1 | 	add	local03, #1
00914     0C 2A 85 F1 | 	sub	local01, #12
00918     95 2E 61 FC | 	wrlong	local03, local01
0091c     02 00 00 FF 
00920     00 2E 0D F2 | 	cmp	local03, ##1024 wz
00924     10 00 90 5D |  if_ne	jmp	#LR__0014
00928     91 20 01 F6 | 	mov	arg01, arg02
0092c     84 00 B0 FD | 	call	#___default_flush
00930     00 00 0D F2 | 	cmp	result1, #0 wz
00934     01 2C 65 56 |  if_ne	neg	local02, #1
00938                 | LR__0014
00938                 | '             c = -1;
00938                 | '         }
00938                 | '     }
00938                 | '     return c;
00938     96 00 01 F6 | 	mov	result1, local02
0093c     46 F0 03 F6 | 	mov	ptra, fp
00940     5A 00 A0 FD | 	call	#popregs_
00944                 | ___default_putc_ret
00944     2D 00 64 FD | 	ret
00948                 | 
00948                 | ___default_putc_terminal
00948     05 88 04 F6 | 	mov	COUNT_, #5
0094c     4B 00 A0 FD | 	call	#pushregs_
00950     91 2A 01 F6 | 	mov	local01, arg02
00954     95 2C 01 FB | 	rdlong	local02, local01
00958     96 2E 01 FB | 	rdlong	local03, local02
0095c     97 30 01 F6 | 	mov	local04, local03
00960     0C 2C 05 F1 | 	add	local02, #12
00964     96 30 01 F1 | 	add	local04, local02
00968     98 20 41 FC | 	wrbyte	arg01, local04
0096c     90 32 01 F6 | 	mov	local05, arg01
00970     FF 32 05 F5 | 	and	local05, #255
00974     0C 2C 85 F1 | 	sub	local02, #12
00978     01 2E 05 F1 | 	add	local03, #1
0097c     96 2E 61 FC | 	wrlong	local03, local02
00980     0A 32 0D F2 | 	cmp	local05, #10 wz
00984     0C 00 90 AD |  if_e	jmp	#LR__0015
00988     02 00 00 FF 
0098c     00 2E 0D F2 | 	cmp	local03, ##1024 wz
00990     10 00 90 5D |  if_ne	jmp	#LR__0016
00994                 | LR__0015
00994     95 20 01 F6 | 	mov	arg01, local01
00998     18 00 B0 FD | 	call	#___default_flush
0099c     00 00 0D F2 | 	cmp	result1, #0 wz
009a0     01 32 65 56 |  if_ne	neg	local05, #1
009a4                 | LR__0016
009a4                 | '             c = -1;
009a4                 | '         }
009a4                 | '     }
009a4                 | '     return c;
009a4     99 00 01 F6 | 	mov	result1, local05
009a8     46 F0 03 F6 | 	mov	ptra, fp
009ac     5A 00 A0 FD | 	call	#popregs_
009b0                 | ___default_putc_terminal_ret
009b0     2D 00 64 FD | 	ret
009b4                 | 
009b4                 | ___default_flush
009b4     09 88 04 F6 | 	mov	COUNT_, #9
009b8     4B 00 A0 FD | 	call	#pushregs_
009bc     90 2A 01 F6 | 	mov	local01, arg01
009c0     95 2C 01 FB | 	rdlong	local02, local01
009c4     96 2E 01 FB | 	rdlong	local03, local02
009c8     00 2E 5D F2 | 	cmps	local03, #0 wcz
009cc     B4 00 90 ED |  if_be	jmp	#LR__0019
009d0     08 2A 05 F1 | 	add	local01, #8
009d4     95 30 01 FB | 	rdlong	local04, local01
009d8     08 2A 85 F1 | 	sub	local01, #8
009dc     40 30 CD F7 | 	test	local04, #64 wz
009e0     5C 00 90 AD |  if_e	jmp	#LR__0018
009e4     08 2A 05 F1 | 	add	local01, #8
009e8     95 30 01 FB | 	rdlong	local04, local01
009ec     08 2A 85 F1 | 	sub	local01, #8
009f0     80 30 CD F7 | 	test	local04, #128 wz
009f4     48 00 90 AD |  if_e	jmp	#LR__0017
009f8     28 2A 05 F1 | 	add	local01, #40
009fc     95 30 01 FB | 	rdlong	local04, local01
00a00     28 2A 85 F1 | 	sub	local01, #40
00a04     98 32 01 FB | 	rdlong	local05, local04
00a08     04 30 05 F1 | 	add	local04, #4
00a0c     98 34 01 FB | 	rdlong	local06, local04
00a10     95 20 01 F6 | 	mov	arg01, local01
00a14     00 22 05 F6 | 	mov	arg02, #0
00a18     02 24 05 F6 | 	mov	arg03, #2
00a1c     79 36 01 F6 | 	mov	local07, objptr
00a20     99 F2 00 F6 | 	mov	objptr, local05
00a24     2D 34 61 FD | 	call	local06
00a28     9B F2 00 F6 | 	mov	objptr, local07
00a2c     08 2A 05 F1 | 	add	local01, #8
00a30     95 30 01 FB | 	rdlong	local04, local01
00a34     80 30 25 F5 | 	andn	local04, #128
00a38     95 30 61 FC | 	wrlong	local04, local01
00a3c     08 2A 85 F1 | 	sub	local01, #8
00a40                 | LR__0017
00a40                 | LR__0018
00a40     10 2A 05 F1 | 	add	local01, #16
00a44     95 30 01 FB | 	rdlong	local04, local01
00a48     10 2A 85 F1 | 	sub	local01, #16
00a4c     98 32 01 FB | 	rdlong	local05, local04
00a50     04 30 05 F1 | 	add	local04, #4
00a54     98 34 01 FB | 	rdlong	local06, local04
00a58     0C 2C 05 F1 | 	add	local02, #12
00a5c     96 22 01 F6 | 	mov	arg02, local02
00a60     0C 2C 85 F1 | 	sub	local02, #12
00a64     95 20 01 F6 | 	mov	arg01, local01
00a68     97 24 01 F6 | 	mov	arg03, local03
00a6c     79 38 01 F6 | 	mov	local08, objptr
00a70     99 F2 00 F6 | 	mov	objptr, local05
00a74     2D 34 61 FD | 	call	local06
00a78     9C F2 00 F6 | 	mov	objptr, local08
00a7c     80 3A 01 F6 | 	mov	local09, result1
00a80     04 00 90 FD | 	jmp	#LR__0020
00a84                 | LR__0019
00a84     00 3A 05 F6 | 	mov	local09, #0
00a88                 | LR__0020
00a88     96 00 68 FC | 	wrlong	#0, local02
00a8c     04 2C 05 F1 | 	add	local02, #4
00a90     96 00 68 FC | 	wrlong	#0, local02
00a94     97 3A 59 F2 | 	cmps	local09, local03 wcz
00a98                 | '         return -1;
00a98     01 00 65 C6 |  if_b	neg	result1, #1
00a9c                 | '     }
00a9c                 | '     return 0;
00a9c     00 00 05 36 |  if_ae	mov	result1, #0
00aa0     46 F0 03 F6 | 	mov	ptra, fp
00aa4     5A 00 A0 FD | 	call	#popregs_
00aa8                 | ___default_flush_ret
00aa8     2D 00 64 FD | 	ret
00aac                 | 
00aac                 | __rxtxioctl_0010
00aac     02 88 04 F6 | 	mov	COUNT_, #2
00ab0     4B 00 A0 FD | 	call	#pushregs_
00ab4     91 2A 01 F6 | 	mov	local01, arg02
00ab8     92 2C 01 F6 | 	mov	local02, arg03
00abc                 | '     switch (req) {
00abc     00 2B 0D F2 | 	cmp	local01, #256 wz
00ac0     0C 00 90 AD |  if_e	jmp	#LR__0021
00ac4     01 2B 0D F2 | 	cmp	local01, #257 wz
00ac8     1C 00 90 AD |  if_e	jmp	#LR__0022
00acc     30 00 90 FD | 	jmp	#LR__0023
00ad0                 | LR__0021
00ad0     08 F8 04 F1 | 	add	ptr___system__dat__, #8
00ad4     7C 00 01 FB | 	rdlong	result1, ptr___system__dat__
00ad8     08 F8 84 F1 | 	sub	ptr___system__dat__, #8
00adc     96 00 61 FC | 	wrlong	result1, local02
00ae0                 | '         *argl = _getrxtxflags();
00ae0                 | '         return 0;
00ae0     00 00 05 F6 | 	mov	result1, #0
00ae4     20 00 90 FD | 	jmp	#LR__0024
00ae8                 | LR__0022
00ae8     96 20 01 FB | 	rdlong	arg01, local02
00aec     08 F8 04 F1 | 	add	ptr___system__dat__, #8
00af0     7C 20 61 FC | 	wrlong	arg01, ptr___system__dat__
00af4     08 F8 84 F1 | 	sub	ptr___system__dat__, #8
00af8                 | '         _setrxtxflags(*argl);
00af8                 | '         return 0;
00af8     00 00 05 F6 | 	mov	result1, #0
00afc     08 00 90 FD | 	jmp	#LR__0024
00b00                 | LR__0023
00b00                 | '         return _seterror( 10 );
00b00     0A 20 05 F6 | 	mov	arg01, #10
00b04     D4 26 B0 FD | 	call	#__system___seterror
00b08                 | LR__0024
00b08     46 F0 03 F6 | 	mov	ptra, fp
00b0c     5A 00 A0 FD | 	call	#popregs_
00b10                 | __rxtxioctl_0010_ret
00b10     2D 00 64 FD | 	ret
00b14                 | 
00b14                 | ___dummy_flush_0011
00b14                 | ' {
00b14                 | '     return 0;
00b14     00 00 05 F6 | 	mov	result1, #0
00b18                 | ___dummy_flush_0011_ret
00b18     2D 00 64 FD | 	ret
00b1c                 | 
00b1c                 | __vfswrite
00b1c     0B 88 04 F6 | 	mov	COUNT_, #11
00b20     4B 00 A0 FD | 	call	#pushregs_
00b24     90 2A 01 F6 | 	mov	local01, arg01
00b28     91 2C 01 F6 | 	mov	local02, arg02
00b2c     92 2E 01 F6 | 	mov	local03, arg03
00b30     96 30 01 F6 | 	mov	local04, local02
00b34     08 2A 05 F1 | 	add	local01, #8
00b38     95 32 01 FB | 	rdlong	local05, local01
00b3c     08 2A 85 F1 | 	sub	local01, #8
00b40     02 32 CD F7 | 	test	local05, #2 wz
00b44     0C 00 90 5D |  if_ne	jmp	#LR__0025
00b48                 | '         return _seterror( 6 );
00b48     06 20 05 F6 | 	mov	arg01, #6
00b4c     8C 26 B0 FD | 	call	#__system___seterror
00b50     48 01 90 FD | 	jmp	#LR__0033
00b54                 | LR__0025
00b54     08 2A 05 F1 | 	add	local01, #8
00b58     95 32 01 FB | 	rdlong	local05, local01
00b5c     08 2A 85 F1 | 	sub	local01, #8
00b60     40 32 CD F7 | 	test	local05, #64 wz
00b64     5C 00 90 AD |  if_e	jmp	#LR__0027
00b68     08 2A 05 F1 | 	add	local01, #8
00b6c     95 32 01 FB | 	rdlong	local05, local01
00b70     08 2A 85 F1 | 	sub	local01, #8
00b74     80 32 CD F7 | 	test	local05, #128 wz
00b78     48 00 90 AD |  if_e	jmp	#LR__0026
00b7c     28 2A 05 F1 | 	add	local01, #40
00b80     95 32 01 FB | 	rdlong	local05, local01
00b84     28 2A 85 F1 | 	sub	local01, #40
00b88     99 34 01 FB | 	rdlong	local06, local05
00b8c     04 32 05 F1 | 	add	local05, #4
00b90     99 36 01 FB | 	rdlong	local07, local05
00b94     95 20 01 F6 | 	mov	arg01, local01
00b98     00 22 05 F6 | 	mov	arg02, #0
00b9c     02 24 05 F6 | 	mov	arg03, #2
00ba0     79 38 01 F6 | 	mov	local08, objptr
00ba4     9A F2 00 F6 | 	mov	objptr, local06
00ba8     2D 36 61 FD | 	call	local07
00bac     9C F2 00 F6 | 	mov	objptr, local08
00bb0     08 2A 05 F1 | 	add	local01, #8
00bb4     95 32 01 FB | 	rdlong	local05, local01
00bb8     80 32 25 F5 | 	andn	local05, #128
00bbc     95 32 61 FC | 	wrlong	local05, local01
00bc0     08 2A 85 F1 | 	sub	local01, #8
00bc4                 | LR__0026
00bc4                 | LR__0027
00bc4     10 2A 05 F1 | 	add	local01, #16
00bc8     95 32 09 FB | 	rdlong	local05, local01 wz
00bcc     10 2A 85 F1 | 	sub	local01, #16
00bd0     64 00 90 AD |  if_e	jmp	#LR__0029
00bd4     10 2A 05 F1 | 	add	local01, #16
00bd8     95 32 01 FB | 	rdlong	local05, local01
00bdc     10 2A 85 F1 | 	sub	local01, #16
00be0     99 34 01 FB | 	rdlong	local06, local05
00be4     04 32 05 F1 | 	add	local05, #4
00be8     99 36 01 FB | 	rdlong	local07, local05
00bec     96 22 01 F6 | 	mov	arg02, local02
00bf0     97 24 01 F6 | 	mov	arg03, local03
00bf4     95 20 01 F6 | 	mov	arg01, local01
00bf8     79 38 01 F6 | 	mov	local08, objptr
00bfc     9A F2 00 F6 | 	mov	objptr, local06
00c00     2D 36 61 FD | 	call	local07
00c04     9C F2 00 F6 | 	mov	objptr, local08
00c08     80 3A 01 F6 | 	mov	local09, result1
00c0c     00 3A 5D F2 | 	cmps	local09, #0 wcz
00c10     1C 00 90 3D |  if_ae	jmp	#LR__0028
00c14     08 2A 05 F1 | 	add	local01, #8
00c18     95 32 01 FB | 	rdlong	local05, local01
00c1c     20 32 45 F5 | 	or	local05, #32
00c20     95 32 61 FC | 	wrlong	local05, local01
00c24                 | '             f->state |=  (0x20) ;
00c24                 | '             return _seterror(r);
00c24     9D 20 01 F6 | 	mov	arg01, local09
00c28     B0 25 B0 FD | 	call	#__system___seterror
00c2c     6C 00 90 FD | 	jmp	#LR__0033
00c30                 | LR__0028
00c30                 | '         }
00c30                 | '         return r;
00c30     9D 00 01 F6 | 	mov	result1, local09
00c34     64 00 90 FD | 	jmp	#LR__0033
00c38                 | LR__0029
00c38     14 2A 05 F1 | 	add	local01, #20
00c3c     95 3C 09 FB | 	rdlong	local10, local01 wz
00c40     14 2A 85 F1 | 	sub	local01, #20
00c44     0C 00 90 5D |  if_ne	jmp	#LR__0030
00c48                 | '         return _seterror( 6 );
00c48     06 20 05 F6 | 	mov	arg01, #6
00c4c     8C 25 B0 FD | 	call	#__system___seterror
00c50     48 00 90 FD | 	jmp	#LR__0033
00c54                 | LR__0030
00c54     00 3A 05 F6 | 	mov	local09, #0
00c58                 | '     }
00c58                 | '     r = 0;
00c58                 | '     while (count > 0) {
00c58                 | LR__0031
00c58     00 2E 1D F2 | 	cmp	local03, #0 wcz
00c5c     38 00 90 ED |  if_be	jmp	#LR__0032
00c60     9E 32 01 F6 | 	mov	local05, local10
00c64     99 34 01 FB | 	rdlong	local06, local05
00c68     04 32 05 F1 | 	add	local05, #4
00c6c     99 36 01 FB | 	rdlong	local07, local05
00c70     98 20 C1 FA | 	rdbyte	arg01, local04
00c74     95 22 01 F6 | 	mov	arg02, local01
00c78     79 3E 01 F6 | 	mov	local11, objptr
00c7c     9A F2 00 F6 | 	mov	objptr, local06
00c80     01 30 05 F1 | 	add	local04, #1
00c84     2D 36 61 FD | 	call	local07
00c88     9F F2 00 F6 | 	mov	objptr, local11
00c8c     80 3A 01 F1 | 	add	local09, result1
00c90     01 2E 85 F1 | 	sub	local03, #1
00c94     C0 FF 9F FD | 	jmp	#LR__0031
00c98                 | LR__0032
00c98                 | '         r += (*tx)(*buf++, f);
00c98                 | '         --count;
00c98                 | '     }
00c98                 | '     return r;
00c98     9D 00 01 F6 | 	mov	result1, local09
00c9c                 | LR__0033
00c9c     46 F0 03 F6 | 	mov	ptra, fp
00ca0     5A 00 A0 FD | 	call	#popregs_
00ca4                 | __vfswrite_ret
00ca4     2D 00 64 FD | 	ret
00ca8                 | 
00ca8                 | __vfsread
00ca8     0E 88 04 F6 | 	mov	COUNT_, #14
00cac     4B 00 A0 FD | 	call	#pushregs_
00cb0     28 F0 07 F1 | 	add	ptra, #40
00cb4     04 8C 04 F1 | 	add	fp, #4
00cb8     46 20 61 FC | 	wrlong	arg01, fp
00cbc     04 8C 04 F1 | 	add	fp, #4
00cc0     46 22 61 FC | 	wrlong	arg02, fp
00cc4     04 8C 04 F1 | 	add	fp, #4
00cc8     46 24 61 FC | 	wrlong	arg03, fp
00ccc     04 8C 84 F1 | 	sub	fp, #4
00cd0     46 2A 01 FB | 	rdlong	local01, fp
00cd4     14 8C 04 F1 | 	add	fp, #20
00cd8     46 2A 61 FC | 	wrlong	local01, fp
00cdc     04 8C 04 F1 | 	add	fp, #4
00ce0     46 00 68 FC | 	wrlong	#0, fp
00ce4     1C 8C 84 F1 | 	sub	fp, #28
00ce8     46 2C 01 FB | 	rdlong	local02, fp
00cec     04 8C 84 F1 | 	sub	fp, #4
00cf0     08 2C 05 F1 | 	add	local02, #8
00cf4     96 2A 01 FB | 	rdlong	local01, local02
00cf8     01 2A CD F7 | 	test	local01, #1 wz
00cfc     0C 00 90 5D |  if_ne	jmp	#LR__0034
00d00                 | '         return _seterror( 6 );
00d00     06 20 05 F6 | 	mov	arg01, #6
00d04     D4 24 B0 FD | 	call	#__system___seterror
00d08     74 02 90 FD | 	jmp	#LR__0042
00d0c                 | LR__0034
00d0c     04 8C 04 F1 | 	add	fp, #4
00d10     46 2A 01 FB | 	rdlong	local01, fp
00d14     04 8C 84 F1 | 	sub	fp, #4
00d18     0C 2A 05 F1 | 	add	local01, #12
00d1c     95 2E 09 FB | 	rdlong	local03, local01 wz
00d20     9C 00 90 AD |  if_e	jmp	#LR__0036
00d24     04 8C 04 F1 | 	add	fp, #4
00d28     46 30 01 FB | 	rdlong	local04, fp
00d2c     0C 30 05 F1 | 	add	local04, #12
00d30     98 2A 01 FB | 	rdlong	local01, local04
00d34     95 2C 01 FB | 	rdlong	local02, local01
00d38     04 2A 05 F1 | 	add	local01, #4
00d3c     95 2E 01 FB | 	rdlong	local03, local01
00d40     46 20 01 FB | 	rdlong	arg01, fp
00d44     04 8C 04 F1 | 	add	fp, #4
00d48     46 22 01 FB | 	rdlong	arg02, fp
00d4c     04 8C 04 F1 | 	add	fp, #4
00d50     46 24 01 FB | 	rdlong	arg03, fp
00d54     0C 8C 84 F1 | 	sub	fp, #12
00d58     79 32 01 F6 | 	mov	local05, objptr
00d5c     96 F2 00 F6 | 	mov	objptr, local02
00d60     2D 2E 61 FD | 	call	local03
00d64     99 F2 00 F6 | 	mov	objptr, local05
00d68     10 8C 04 F1 | 	add	fp, #16
00d6c     46 00 61 FC | 	wrlong	result1, fp
00d70     10 8C 84 F1 | 	sub	fp, #16
00d74     00 00 5D F2 | 	cmps	result1, #0 wcz
00d78     34 00 90 3D |  if_ae	jmp	#LR__0035
00d7c     04 8C 04 F1 | 	add	fp, #4
00d80     46 2A 01 FB | 	rdlong	local01, fp
00d84     95 30 01 F6 | 	mov	local04, local01
00d88     08 30 05 F1 | 	add	local04, #8
00d8c     98 2E 01 FB | 	rdlong	local03, local04
00d90     20 2E 45 F5 | 	or	local03, #32
00d94     08 2A 05 F1 | 	add	local01, #8
00d98     95 2E 61 FC | 	wrlong	local03, local01
00d9c                 | '             f->state |=  (0x20) ;
00d9c                 | '             return _seterror(r);
00d9c     0C 8C 04 F1 | 	add	fp, #12
00da0     46 20 01 FB | 	rdlong	arg01, fp
00da4     10 8C 84 F1 | 	sub	fp, #16
00da8     30 24 B0 FD | 	call	#__system___seterror
00dac     D0 01 90 FD | 	jmp	#LR__0042
00db0                 | LR__0035
00db0                 | '         }
00db0                 | '         return r;
00db0     10 8C 04 F1 | 	add	fp, #16
00db4     46 00 01 FB | 	rdlong	result1, fp
00db8     10 8C 84 F1 | 	sub	fp, #16
00dbc     C0 01 90 FD | 	jmp	#LR__0042
00dc0                 | LR__0036
00dc0     04 8C 04 F1 | 	add	fp, #4
00dc4     46 2A 01 FB | 	rdlong	local01, fp
00dc8     18 2A 05 F1 | 	add	local01, #24
00dcc     95 2E 01 FB | 	rdlong	local03, local01
00dd0     14 8C 04 F1 | 	add	fp, #20
00dd4     46 2E 61 FC | 	wrlong	local03, fp
00dd8     97 2A 09 F6 | 	mov	local01, local03 wz
00ddc     18 8C 84 F1 | 	sub	fp, #24
00de0     0C 00 90 5D |  if_ne	jmp	#LR__0037
00de4                 | '         return _seterror( 6 );
00de4     06 20 05 F6 | 	mov	arg01, #6
00de8     F0 23 B0 FD | 	call	#__system___seterror
00dec     90 01 90 FD | 	jmp	#LR__0042
00df0                 | LR__0037
00df0     04 8C 04 F1 | 	add	fp, #4
00df4     46 2A 01 FB | 	rdlong	local01, fp
00df8     04 8C 84 F1 | 	sub	fp, #4
00dfc     20 2A 05 F1 | 	add	local01, #32
00e00     95 2E 09 FB | 	rdlong	local03, local01 wz
00e04     A0 00 90 AD |  if_e	jmp	#LR__0039
00e08     04 8C 04 F1 | 	add	fp, #4
00e0c     46 34 01 FB | 	rdlong	local06, fp
00e10     9A 30 01 F6 | 	mov	local04, local06
00e14     20 30 05 F1 | 	add	local04, #32
00e18     98 36 01 FB | 	rdlong	local07, local04
00e1c     9B 2A 01 F6 | 	mov	local01, local07
00e20     95 2C 01 FB | 	rdlong	local02, local01
00e24     04 2A 05 F1 | 	add	local01, #4
00e28     95 38 01 FB | 	rdlong	local08, local01
00e2c     9C 2E 01 F6 | 	mov	local03, local08
00e30     9A 3A 01 F6 | 	mov	local09, local06
00e34     9D 3C 01 F6 | 	mov	local10, local09
00e38     00 3F 05 F6 | 	mov	local11, #256
00e3c     20 8C 04 F1 | 	add	fp, #32
00e40     46 40 01 F6 | 	mov	local12, fp
00e44     A0 42 01 F6 | 	mov	local13, local12
00e48     9E 20 01 F6 | 	mov	arg01, local10
00e4c     00 23 05 F6 | 	mov	arg02, #256
00e50     A1 24 01 F6 | 	mov	arg03, local13
00e54     79 44 01 F6 | 	mov	local14, objptr
00e58     96 F2 00 F6 | 	mov	objptr, local02
00e5c     24 8C 84 F1 | 	sub	fp, #36
00e60     2D 2E 61 FD | 	call	local03
00e64     A2 F2 00 F6 | 	mov	objptr, local14
00e68     80 32 01 F6 | 	mov	local05, result1
00e6c     10 8C 04 F1 | 	add	fp, #16
00e70     46 32 61 FC | 	wrlong	local05, fp
00e74     99 2C 09 F6 | 	mov	local02, local05 wz
00e78     10 8C 84 F1 | 	sub	fp, #16
00e7c     28 00 90 5D |  if_ne	jmp	#LR__0038
00e80     24 8C 04 F1 | 	add	fp, #36
00e84     46 30 01 FB | 	rdlong	local04, fp
00e88     24 8C 84 F1 | 	sub	fp, #36
00e8c     98 2E 01 F6 | 	mov	local03, local04
00e90     02 2E 0D F5 | 	and	local03, #2 wz
00e94     10 00 90 AD |  if_e	jmp	#LR__0038
00e98     01 2A 05 F6 | 	mov	local01, #1
00e9c     20 8C 04 F1 | 	add	fp, #32
00ea0     46 02 68 FC | 	wrlong	#1, fp
00ea4     20 8C 84 F1 | 	sub	fp, #32
00ea8                 | LR__0038
00ea8                 | LR__0039
00ea8     10 8C 04 F1 | 	add	fp, #16
00eac     46 00 68 FC | 	wrlong	#0, fp
00eb0     10 8C 84 F1 | 	sub	fp, #16
00eb4                 | '             break_on_nl = 1;
00eb4                 | '         }
00eb4                 | '     }
00eb4                 | '     r = 0;
00eb4                 | '     while (count > 0) {
00eb4                 | LR__0040
00eb4     0C 8C 04 F1 | 	add	fp, #12
00eb8     46 2A 01 FB | 	rdlong	local01, fp
00ebc     0C 8C 84 F1 | 	sub	fp, #12
00ec0     00 2A 1D F2 | 	cmp	local01, #0 wcz
00ec4     AC 00 90 ED |  if_be	jmp	#LR__0041
00ec8     18 8C 04 F1 | 	add	fp, #24
00ecc     46 2A 01 FB | 	rdlong	local01, fp
00ed0     95 2C 01 FB | 	rdlong	local02, local01
00ed4     04 2A 05 F1 | 	add	local01, #4
00ed8     95 2E 01 FB | 	rdlong	local03, local01
00edc     14 8C 84 F1 | 	sub	fp, #20
00ee0     46 20 01 FB | 	rdlong	arg01, fp
00ee4     04 8C 84 F1 | 	sub	fp, #4
00ee8     79 3C 01 F6 | 	mov	local10, objptr
00eec     96 F2 00 F6 | 	mov	objptr, local02
00ef0     2D 2E 61 FD | 	call	local03
00ef4     9E F2 00 F6 | 	mov	objptr, local10
00ef8     80 3A 01 F6 | 	mov	local09, result1
00efc     14 8C 04 F1 | 	add	fp, #20
00f00     46 3A 61 FC | 	wrlong	local09, fp
00f04     14 8C 84 F1 | 	sub	fp, #20
00f08     00 3A 5D F2 | 	cmps	local09, #0 wcz
00f0c     64 00 90 CD |  if_b	jmp	#LR__0041
00f10     1C 8C 04 F1 | 	add	fp, #28
00f14     46 2A 01 FB | 	rdlong	local01, fp
00f18     95 2E 01 F6 | 	mov	local03, local01
00f1c     01 2E 05 F1 | 	add	local03, #1
00f20     46 2E 61 FC | 	wrlong	local03, fp
00f24     08 8C 84 F1 | 	sub	fp, #8
00f28     46 34 01 FB | 	rdlong	local06, fp
00f2c     95 34 41 FC | 	wrbyte	local06, local01
00f30     04 8C 84 F1 | 	sub	fp, #4
00f34     46 2A 01 FB | 	rdlong	local01, fp
00f38     01 2A 05 F1 | 	add	local01, #1
00f3c     46 2A 61 FC | 	wrlong	local01, fp
00f40     04 8C 84 F1 | 	sub	fp, #4
00f44     46 2A 01 FB | 	rdlong	local01, fp
00f48     01 2A 85 F1 | 	sub	local01, #1
00f4c     46 2A 61 FC | 	wrlong	local01, fp
00f50     14 8C 04 F1 | 	add	fp, #20
00f54     46 2A 09 FB | 	rdlong	local01, fp wz
00f58     20 8C 84 F1 | 	sub	fp, #32
00f5c     54 FF 9F AD |  if_e	jmp	#LR__0040
00f60     14 8C 04 F1 | 	add	fp, #20
00f64     46 2E 01 FB | 	rdlong	local03, fp
00f68     14 8C 84 F1 | 	sub	fp, #20
00f6c     0A 2E 0D F2 | 	cmp	local03, #10 wz
00f70                 | '             break;
00f70     40 FF 9F 5D |  if_ne	jmp	#LR__0040
00f74                 | LR__0041
00f74                 | '         }
00f74                 | '     }
00f74                 | '     return r;
00f74     10 8C 04 F1 | 	add	fp, #16
00f78     46 00 01 FB | 	rdlong	result1, fp
00f7c     10 8C 84 F1 | 	sub	fp, #16
00f80                 | LR__0042
00f80     46 F0 03 F6 | 	mov	ptra, fp
00f84     5A 00 A0 FD | 	call	#popregs_
00f88                 | __vfsread_ret
00f88     2D 00 64 FD | 	ret
00f8c                 | 
00f8c                 | __dofmt
00f8c     0B 88 04 F6 | 	mov	COUNT_, #11
00f90     4B 00 A0 FD | 	call	#pushregs_
00f94     3C F0 07 F1 | 	add	ptra, #60
00f98     04 8C 04 F1 | 	add	fp, #4
00f9c     46 20 61 FC | 	wrlong	arg01, fp
00fa0     04 8C 04 F1 | 	add	fp, #4
00fa4     46 22 61 FC | 	wrlong	arg02, fp
00fa8     04 8C 04 F1 | 	add	fp, #4
00fac     46 24 61 FC | 	wrlong	arg03, fp
00fb0     00 2A 05 F6 | 	mov	local01, #0
00fb4     10 8C 04 F1 | 	add	fp, #16
00fb8     46 00 68 FC | 	wrlong	#0, fp
00fbc     08 8C 04 F1 | 	add	fp, #8
00fc0     46 00 68 FC | 	wrlong	#0, fp
00fc4     04 8C 04 F1 | 	add	fp, #4
00fc8     46 00 68 FC | 	wrlong	#0, fp
00fcc     08 8C 04 F1 | 	add	fp, #8
00fd0     46 00 68 FC | 	wrlong	#0, fp
00fd4     30 8C 84 F1 | 	sub	fp, #48
00fd8                 | ' #line 139 "C:/Users/Piotr/Downloads/flexprop(2)/flexprop/include/libsys/dofmt.c"
00fd8                 | '     for(;;) {
00fd8                 | LR__0043
00fd8     08 8C 04 F1 | 	add	fp, #8
00fdc     46 2C 01 FB | 	rdlong	local02, fp
00fe0     96 2E 01 F6 | 	mov	local03, local02
00fe4     01 2E 05 F1 | 	add	local03, #1
00fe8     46 2E 61 FC | 	wrlong	local03, fp
00fec     96 2A C1 FA | 	rdbyte	local01, local02
00ff0     08 8C 04 F1 | 	add	fp, #8
00ff4     46 2A 61 FC | 	wrlong	local01, fp
00ff8     95 2A 09 F6 | 	mov	local01, local01 wz
00ffc     10 8C 84 F1 | 	sub	fp, #16
01000     34 07 90 AD |  if_e	jmp	#LR__0069
01004     10 8C 04 F1 | 	add	fp, #16
01008     46 2A 01 FB | 	rdlong	local01, fp
0100c     10 8C 84 F1 | 	sub	fp, #16
01010     25 2A 0D F2 | 	cmp	local01, #37 wz
01014     6C 00 90 AD |  if_e	jmp	#LR__0045
01018     04 8C 04 F1 | 	add	fp, #4
0101c     46 2A 01 FB | 	rdlong	local01, fp
01020     95 2C 01 FB | 	rdlong	local02, local01
01024     04 2A 05 F1 | 	add	local01, #4
01028     95 30 01 FB | 	rdlong	local04, local01
0102c     0C 8C 04 F1 | 	add	fp, #12
01030     46 20 01 FB | 	rdlong	arg01, fp
01034     10 8C 84 F1 | 	sub	fp, #16
01038     79 32 01 F6 | 	mov	local05, objptr
0103c     96 F2 00 F6 | 	mov	objptr, local02
01040     2D 30 61 FD | 	call	local04
01044     99 F2 00 F6 | 	mov	objptr, local05
01048     14 8C 04 F1 | 	add	fp, #20
0104c     46 00 61 FC | 	wrlong	result1, fp
01050     14 8C 84 F1 | 	sub	fp, #20
01054     00 00 5D F2 | 	cmps	result1, #0 wcz
01058     10 00 90 3D |  if_ae	jmp	#LR__0044
0105c     14 8C 04 F1 | 	add	fp, #20
01060     46 00 01 FB | 	rdlong	result1, fp
01064     14 8C 84 F1 | 	sub	fp, #20
01068     D8 06 90 FD | 	jmp	#LR__0070
0106c                 | LR__0044
0106c     1C 8C 04 F1 | 	add	fp, #28
01070     46 30 01 FB | 	rdlong	local04, fp
01074     01 30 05 F1 | 	add	local04, #1
01078     46 30 61 FC | 	wrlong	local04, fp
0107c     1C 8C 84 F1 | 	sub	fp, #28
01080                 | '             bytes_written++;
01080                 | '             continue;
01080     54 FF 9F FD | 	jmp	#LR__0043
01084                 | LR__0045
01084     08 8C 04 F1 | 	add	fp, #8
01088     46 20 01 FB | 	rdlong	arg01, fp
0108c     18 8C 04 F1 | 	add	fp, #24
01090     46 22 01 F6 | 	mov	arg02, fp
01094     20 8C 84 F1 | 	sub	fp, #32
01098     A4 07 B0 FD | 	call	#_parseflags_0103
0109c     80 34 01 F6 | 	mov	local06, result1
010a0     08 8C 04 F1 | 	add	fp, #8
010a4     46 34 61 FC | 	wrlong	local06, fp
010a8     18 8C 04 F1 | 	add	fp, #24
010ac     46 2A 01 FB | 	rdlong	local01, fp
010b0     18 2A 45 F0 | 	shr	local01, #24
010b4     03 2A 05 F5 | 	and	local01, #3
010b8     10 8C 04 F1 | 	add	fp, #16
010bc     46 2A 61 FC | 	wrlong	local01, fp
010c0     28 8C 84 F1 | 	sub	fp, #40
010c4     46 20 01 F6 | 	mov	arg01, fp
010c8     04 8C 04 F1 | 	add	fp, #4
010cc     46 22 01 FB | 	rdlong	arg02, fp
010d0     0C 8C 84 F1 | 	sub	fp, #12
010d4     F0 06 B0 FD | 	call	#_parseint_0096
010d8     80 34 01 F6 | 	mov	local06, result1
010dc     24 8C 04 F1 | 	add	fp, #36
010e0     46 34 61 FC | 	wrlong	local06, fp
010e4     1C 8C 84 F1 | 	sub	fp, #28
010e8     46 2C 01 FB | 	rdlong	local02, fp
010ec     96 2A C1 FA | 	rdbyte	local01, local02
010f0     08 8C 04 F1 | 	add	fp, #8
010f4     46 2A 61 FC | 	wrlong	local01, fp
010f8     95 2A 09 F6 | 	mov	local01, local01 wz
010fc     10 8C 84 F1 | 	sub	fp, #16
01100     34 06 90 AD |  if_e	jmp	#LR__0069
01104     10 8C 04 F1 | 	add	fp, #16
01108     46 2A 01 FB | 	rdlong	local01, fp
0110c     10 8C 84 F1 | 	sub	fp, #16
01110     2E 2A 0D F2 | 	cmp	local01, #46 wz
01114     54 00 90 5D |  if_ne	jmp	#LR__0046
01118     08 8C 04 F1 | 	add	fp, #8
0111c     46 30 01 FB | 	rdlong	local04, fp
01120     01 30 05 F1 | 	add	local04, #1
01124     46 30 61 FC | 	wrlong	local04, fp
01128     46 20 01 F6 | 	mov	arg01, fp
0112c     04 8C 04 F1 | 	add	fp, #4
01130     46 22 01 FB | 	rdlong	arg02, fp
01134     0C 8C 84 F1 | 	sub	fp, #12
01138     8C 06 B0 FD | 	call	#_parseint_0096
0113c     80 2A 01 F6 | 	mov	local01, result1
01140     01 2A 05 F1 | 	add	local01, #1
01144     28 8C 04 F1 | 	add	fp, #40
01148     46 2A 61 FC | 	wrlong	local01, fp
0114c     20 8C 84 F1 | 	sub	fp, #32
01150     46 2C 01 FB | 	rdlong	local02, fp
01154     96 2A C1 FA | 	rdbyte	local01, local02
01158     08 8C 04 F1 | 	add	fp, #8
0115c     46 2A 61 FC | 	wrlong	local01, fp
01160     95 2A 09 F6 | 	mov	local01, local01 wz
01164     10 8C 84 F1 | 	sub	fp, #16
01168     CC 05 90 AD |  if_e	jmp	#LR__0069
0116c                 | LR__0046
0116c     08 8C 04 F1 | 	add	fp, #8
01170     46 20 01 FB | 	rdlong	arg01, fp
01174     24 8C 04 F1 | 	add	fp, #36
01178     46 22 01 F6 | 	mov	arg02, fp
0117c     2C 8C 84 F1 | 	sub	fp, #44
01180     6C 07 B0 FD | 	call	#_parsesize_0107
01184     08 8C 04 F1 | 	add	fp, #8
01188     46 00 61 FC | 	wrlong	result1, fp
0118c     80 2C 01 F6 | 	mov	local02, result1
01190     80 2E 01 F6 | 	mov	local03, result1
01194     01 2E 05 F1 | 	add	local03, #1
01198     46 2E 61 FC | 	wrlong	local03, fp
0119c     96 2A C1 FA | 	rdbyte	local01, local02
011a0     08 8C 04 F1 | 	add	fp, #8
011a4     46 2A 61 FC | 	wrlong	local01, fp
011a8     95 2A 09 F6 | 	mov	local01, local01 wz
011ac     10 8C 84 F1 | 	sub	fp, #16
011b0     84 05 90 AD |  if_e	jmp	#LR__0069
011b4     10 8C 04 F1 | 	add	fp, #16
011b8     46 2A 01 FB | 	rdlong	local01, fp
011bc     10 8C 84 F1 | 	sub	fp, #16
011c0     25 2A 0D F2 | 	cmp	local01, #37 wz
011c4     30 00 90 5D |  if_ne	jmp	#LR__0047
011c8     04 8C 04 F1 | 	add	fp, #4
011cc     46 20 01 FB | 	rdlong	arg01, fp
011d0     1C 8C 04 F1 | 	add	fp, #28
011d4     46 22 01 FB | 	rdlong	arg02, fp
011d8     20 8C 84 F1 | 	sub	fp, #32
011dc     25 24 05 F6 | 	mov	arg03, #37
011e0     14 0B B0 FD | 	call	#__system___fmtchar
011e4     80 36 01 F6 | 	mov	local07, result1
011e8     14 8C 04 F1 | 	add	fp, #20
011ec     46 36 61 FC | 	wrlong	local07, fp
011f0     14 8C 84 F1 | 	sub	fp, #20
011f4                 | '             q = _fmtchar(fn, flags, '%');
011f4                 | '             continue;
011f4     E0 FD 9F FD | 	jmp	#LR__0043
011f8                 | LR__0047
011f8     14 8C 04 F1 | 	add	fp, #20
011fc     46 00 68 FC | 	wrlong	#0, fp
01200     08 8C 84 F1 | 	sub	fp, #8
01204     46 2C 01 FB | 	rdlong	local02, fp
01208     96 2E 01 FB | 	rdlong	local03, local02
0120c     97 2A 01 FB | 	rdlong	local01, local03
01210     96 36 01 F6 | 	mov	local07, local02
01214     9B 34 01 F6 | 	mov	local06, local07
01218     96 38 01 F6 | 	mov	local08, local02
0121c     9C 32 01 F6 | 	mov	local05, local08
01220     99 3A 01 FB | 	rdlong	local09, local05
01224     04 3A 05 F1 | 	add	local09, #4
01228     9A 3A 61 FC | 	wrlong	local09, local06
0122c     28 8C 04 F1 | 	add	fp, #40
01230     46 2A 61 FC | 	wrlong	local01, fp
01234     24 8C 84 F1 | 	sub	fp, #36
01238     46 2A 01 FB | 	rdlong	local01, fp
0123c     10 8C 84 F1 | 	sub	fp, #16
01240     41 2A 5D F2 | 	cmps	local01, #65 wcz
01244     48 00 90 CD |  if_b	jmp	#LR__0048
01248     10 8C 04 F1 | 	add	fp, #16
0124c     46 2E 01 FB | 	rdlong	local03, fp
01250     10 8C 84 F1 | 	sub	fp, #16
01254     97 30 01 F6 | 	mov	local04, local03
01258     5A 30 5D F2 | 	cmps	local04, #90 wcz
0125c     30 00 90 1D |  if_a	jmp	#LR__0048
01260     20 8C 04 F1 | 	add	fp, #32
01264     46 2A 01 FB | 	rdlong	local01, fp
01268     1D 2A 25 F4 | 	bith	local01, #29
0126c     46 2A 61 FC | 	wrlong	local01, fp
01270     10 8C 84 F1 | 	sub	fp, #16
01274     46 2C 01 FB | 	rdlong	local02, fp
01278     41 2C 85 F1 | 	sub	local02, #65
0127c     46 2C 61 FC | 	wrlong	local02, fp
01280     96 2A 01 F6 | 	mov	local01, local02
01284     61 2A 05 F1 | 	add	local01, #97
01288     46 2A 61 FC | 	wrlong	local01, fp
0128c     10 8C 84 F1 | 	sub	fp, #16
01290                 | LR__0048
01290     28 8C 04 F1 | 	add	fp, #40
01294     46 2A 01 FB | 	rdlong	local01, fp
01298     28 8C 84 F1 | 	sub	fp, #40
0129c     00 2A 5D F2 | 	cmps	local01, #0 wcz
012a0     28 8C 04 C1 |  if_b	add	fp, #40
012a4     46 00 68 CC |  if_b	wrlong	#0, fp
012a8     28 8C 84 C1 |  if_b	sub	fp, #40
012ac     28 8C 04 F1 | 	add	fp, #40
012b0     46 2A 01 FB | 	rdlong	local01, fp
012b4     28 8C 84 F1 | 	sub	fp, #40
012b8     3F 2A 5D F2 | 	cmps	local01, #63 wcz
012bc     28 8C 04 11 |  if_a	add	fp, #40
012c0     46 7E 68 1C |  if_a	wrlong	#63, fp
012c4     28 8C 84 11 |  if_a	sub	fp, #40
012c8     24 8C 04 F1 | 	add	fp, #36
012cc     46 2A 01 FB | 	rdlong	local01, fp
012d0     24 8C 84 F1 | 	sub	fp, #36
012d4     00 2A 5D F2 | 	cmps	local01, #0 wcz
012d8     34 00 90 3D |  if_ae	jmp	#LR__0049
012dc     24 8C 04 F1 | 	add	fp, #36
012e0     46 2A 01 FB | 	rdlong	local01, fp
012e4     95 2A 61 F6 | 	neg	local01, local01
012e8     46 2A 61 FC | 	wrlong	local01, fp
012ec     04 8C 84 F1 | 	sub	fp, #4
012f0     46 2A 01 FB | 	rdlong	local01, fp
012f4     36 2A 05 F4 | 	bitl	local01, #54
012f8     46 2A 61 FC | 	wrlong	local01, fp
012fc     16 2A 25 F4 | 	bith	local01, #22
01300     46 2A 61 FC | 	wrlong	local01, fp
01304     10 8C 04 F1 | 	add	fp, #16
01308     46 02 68 FC | 	wrlong	#1, fp
0130c     30 8C 84 F1 | 	sub	fp, #48
01310                 | LR__0049
01310     20 8C 04 F1 | 	add	fp, #32
01314     46 2A 01 FB | 	rdlong	local01, fp
01318     04 8C 04 F1 | 	add	fp, #4
0131c     46 30 01 FB | 	rdlong	local04, fp
01320     08 30 65 F0 | 	shl	local04, #8
01324     98 2A 41 F5 | 	or	local01, local04
01328     04 8C 84 F1 | 	sub	fp, #4
0132c     46 2A 61 FC | 	wrlong	local01, fp
01330     08 8C 04 F1 | 	add	fp, #8
01334     46 30 01 FB | 	rdlong	local04, fp
01338     10 30 65 F0 | 	shl	local04, #16
0133c     98 2A 41 F5 | 	or	local01, local04
01340     08 8C 84 F1 | 	sub	fp, #8
01344     46 2A 61 FC | 	wrlong	local01, fp
01348                 | '             width = -width;
01348                 | '             flags &= ~( 0x3 << (22) );
01348                 | '             flags |= ( 1 << (22) );
01348                 | '             padchar =  1 ;
01348                 | '         }
01348                 | '         flags = flags | (width <<  (8) );
01348                 | '         flags = flags | (prec <<  (16) );
01348                 | '         switch (c) {
01348     10 8C 84 F1 | 	sub	fp, #16
0134c     46 3C 01 FB | 	rdlong	local10, fp
01350     10 8C 84 F1 | 	sub	fp, #16
01354     63 3C 0D F2 | 	cmp	local10, #99 wz
01358     54 00 90 AD |  if_e	jmp	#LR__0050
0135c     73 3C 0D F2 | 	cmp	local10, #115 wz
01360     84 00 90 AD |  if_e	jmp	#LR__0051
01364     64 3C 0D F2 | 	cmp	local10, #100 wz
01368     E8 00 90 AD |  if_e	jmp	#LR__0053
0136c     69 3C 0D F2 | 	cmp	local10, #105 wz
01370     E0 00 90 AD |  if_e	jmp	#LR__0054
01374     75 3C 0D F2 | 	cmp	local10, #117 wz
01378     D8 00 90 AD |  if_e	jmp	#LR__0055
0137c     6F 3C 0D F2 | 	cmp	local10, #111 wz
01380     8C 01 90 AD |  if_e	jmp	#LR__0058
01384     78 3C 0D F2 | 	cmp	local10, #120 wz
01388     28 02 90 AD |  if_e	jmp	#LR__0060
0138c     61 3C 0D F2 | 	cmp	local10, #97 wz
01390     C0 02 90 AD |  if_e	jmp	#LR__0062
01394     65 3C 0D F2 | 	cmp	local10, #101 wz
01398     B8 02 90 AD |  if_e	jmp	#LR__0063
0139c     66 3C 0D F2 | 	cmp	local10, #102 wz
013a0     B0 02 90 AD |  if_e	jmp	#LR__0064
013a4     67 3C 0D F2 | 	cmp	local10, #103 wz
013a8     A8 02 90 AD |  if_e	jmp	#LR__0065
013ac     F8 02 90 FD | 	jmp	#LR__0066
013b0                 | LR__0050
013b0     04 8C 04 F1 | 	add	fp, #4
013b4     46 20 01 FB | 	rdlong	arg01, fp
013b8     1C 8C 04 F1 | 	add	fp, #28
013bc     46 22 01 FB | 	rdlong	arg02, fp
013c0     14 8C 04 F1 | 	add	fp, #20
013c4     46 36 01 FB | 	rdlong	local07, fp
013c8     34 8C 84 F1 | 	sub	fp, #52
013cc     9B 24 01 F6 | 	mov	arg03, local07
013d0     24 09 B0 FD | 	call	#__system___fmtchar
013d4     80 3A 01 F6 | 	mov	local09, result1
013d8     14 8C 04 F1 | 	add	fp, #20
013dc     46 3A 61 FC | 	wrlong	local09, fp
013e0     14 8C 84 F1 | 	sub	fp, #20
013e4                 | '             q = _fmtchar(fn, flags, val);
013e4                 | '             break;
013e4     08 03 90 FD | 	jmp	#LR__0067
013e8                 | LR__0051
013e8     28 8C 04 F1 | 	add	fp, #40
013ec     46 2A 09 FB | 	rdlong	local01, fp wz
013f0     28 8C 84 F1 | 	sub	fp, #40
013f4     24 00 90 AD |  if_e	jmp	#LR__0052
013f8     20 8C 04 F1 | 	add	fp, #32
013fc     46 2A 01 FB | 	rdlong	local01, fp
01400     08 8C 04 F1 | 	add	fp, #8
01404     46 30 01 FB | 	rdlong	local04, fp
01408     01 30 85 F1 | 	sub	local04, #1
0140c     98 2A 41 F5 | 	or	local01, local04
01410     08 8C 84 F1 | 	sub	fp, #8
01414     46 2A 61 FC | 	wrlong	local01, fp
01418     20 8C 84 F1 | 	sub	fp, #32
0141c                 | LR__0052
0141c     04 8C 04 F1 | 	add	fp, #4
01420     46 20 01 FB | 	rdlong	arg01, fp
01424     1C 8C 04 F1 | 	add	fp, #28
01428     46 22 01 FB | 	rdlong	arg02, fp
0142c     14 8C 04 F1 | 	add	fp, #20
01430     46 36 01 FB | 	rdlong	local07, fp
01434     34 8C 84 F1 | 	sub	fp, #52
01438     9B 24 01 F6 | 	mov	arg03, local07
0143c     18 09 B0 FD | 	call	#__system___fmtstr
01440     80 3A 01 F6 | 	mov	local09, result1
01444     14 8C 04 F1 | 	add	fp, #20
01448     46 3A 61 FC | 	wrlong	local09, fp
0144c     14 8C 84 F1 | 	sub	fp, #20
01450                 | '             break;
01450     9C 02 90 FD | 	jmp	#LR__0067
01454                 | LR__0053
01454                 | LR__0054
01454                 | LR__0055
01454     10 8C 04 F1 | 	add	fp, #16
01458     46 2A 01 FB | 	rdlong	local01, fp
0145c     10 8C 84 F1 | 	sub	fp, #16
01460     75 2A 0D F2 | 	cmp	local01, #117 wz
01464     14 00 90 5D |  if_ne	jmp	#LR__0056
01468     20 8C 04 F1 | 	add	fp, #32
0146c     46 2A 01 FB | 	rdlong	local01, fp
01470     3A 2A 25 F4 | 	bith	local01, #58
01474     46 2A 61 FC | 	wrlong	local01, fp
01478     20 8C 84 F1 | 	sub	fp, #32
0147c                 | LR__0056
0147c     28 8C 04 F1 | 	add	fp, #40
01480     46 2A 09 FB | 	rdlong	local01, fp wz
01484     28 8C 84 F1 | 	sub	fp, #40
01488     44 00 90 5D |  if_ne	jmp	#LR__0057
0148c     30 8C 04 F1 | 	add	fp, #48
01490     46 30 01 FB | 	rdlong	local04, fp
01494     30 8C 84 F1 | 	sub	fp, #48
01498     02 30 0D F2 | 	cmp	local04, #2 wz
0149c     30 00 90 5D |  if_ne	jmp	#LR__0057
014a0     20 8C 04 F1 | 	add	fp, #32
014a4     46 2C 01 FB | 	rdlong	local02, fp
014a8     96 2A 01 F6 | 	mov	local01, local02
014ac     04 8C 04 F1 | 	add	fp, #4
014b0     46 2E 01 FB | 	rdlong	local03, fp
014b4     97 30 01 F6 | 	mov	local04, local03
014b8     01 30 05 F1 | 	add	local04, #1
014bc     10 30 65 F0 | 	shl	local04, #16
014c0     98 2A 41 F5 | 	or	local01, local04
014c4     04 8C 84 F1 | 	sub	fp, #4
014c8     46 2A 61 FC | 	wrlong	local01, fp
014cc     20 8C 84 F1 | 	sub	fp, #32
014d0                 | LR__0057
014d0     04 8C 04 F1 | 	add	fp, #4
014d4     46 20 01 FB | 	rdlong	arg01, fp
014d8     1C 8C 04 F1 | 	add	fp, #28
014dc     46 22 01 FB | 	rdlong	arg02, fp
014e0     14 8C 04 F1 | 	add	fp, #20
014e4     46 36 01 FB | 	rdlong	local07, fp
014e8     34 8C 84 F1 | 	sub	fp, #52
014ec     9B 24 01 F6 | 	mov	arg03, local07
014f0     0A 3A 05 F6 | 	mov	local09, #10
014f4     0A 26 05 F6 | 	mov	arg04, #10
014f8     54 09 B0 FD | 	call	#__system___fmtnum
014fc     80 32 01 F6 | 	mov	local05, result1
01500     14 8C 04 F1 | 	add	fp, #20
01504     46 32 61 FC | 	wrlong	local05, fp
01508     14 8C 84 F1 | 	sub	fp, #20
0150c                 | '                 flags |= ((width+1)<< (16) );
0150c                 | '             }
0150c                 | '             q = _fmtnum(fn, flags, val, 10);
0150c                 | '             break;
0150c     E0 01 90 FD | 	jmp	#LR__0067
01510                 | LR__0058
01510     20 8C 04 F1 | 	add	fp, #32
01514     46 2A 01 FB | 	rdlong	local01, fp
01518     3A 2A 25 F4 | 	bith	local01, #58
0151c     46 2A 61 FC | 	wrlong	local01, fp
01520     08 8C 04 F1 | 	add	fp, #8
01524     46 2A 09 FB | 	rdlong	local01, fp wz
01528     28 8C 84 F1 | 	sub	fp, #40
0152c     44 00 90 5D |  if_ne	jmp	#LR__0059
01530     30 8C 04 F1 | 	add	fp, #48
01534     46 30 01 FB | 	rdlong	local04, fp
01538     30 8C 84 F1 | 	sub	fp, #48
0153c     02 30 0D F2 | 	cmp	local04, #2 wz
01540     30 00 90 5D |  if_ne	jmp	#LR__0059
01544     20 8C 04 F1 | 	add	fp, #32
01548     46 2C 01 FB | 	rdlong	local02, fp
0154c     96 2A 01 F6 | 	mov	local01, local02
01550     04 8C 04 F1 | 	add	fp, #4
01554     46 2E 01 FB | 	rdlong	local03, fp
01558     97 30 01 F6 | 	mov	local04, local03
0155c     01 30 05 F1 | 	add	local04, #1
01560     10 30 65 F0 | 	shl	local04, #16
01564     98 2A 41 F5 | 	or	local01, local04
01568     04 8C 84 F1 | 	sub	fp, #4
0156c     46 2A 61 FC | 	wrlong	local01, fp
01570     20 8C 84 F1 | 	sub	fp, #32
01574                 | LR__0059
01574     04 8C 04 F1 | 	add	fp, #4
01578     46 20 01 FB | 	rdlong	arg01, fp
0157c     1C 8C 04 F1 | 	add	fp, #28
01580     46 22 01 FB | 	rdlong	arg02, fp
01584     14 8C 04 F1 | 	add	fp, #20
01588     46 36 01 FB | 	rdlong	local07, fp
0158c     34 8C 84 F1 | 	sub	fp, #52
01590     9B 24 01 F6 | 	mov	arg03, local07
01594     08 3A 05 F6 | 	mov	local09, #8
01598     08 26 05 F6 | 	mov	arg04, #8
0159c     B0 08 B0 FD | 	call	#__system___fmtnum
015a0     80 32 01 F6 | 	mov	local05, result1
015a4     14 8C 04 F1 | 	add	fp, #20
015a8     46 32 61 FC | 	wrlong	local05, fp
015ac     14 8C 84 F1 | 	sub	fp, #20
015b0                 | '                 flags |= ((width+1)<< (16) );
015b0                 | '             }
015b0                 | '             q = _fmtnum(fn, flags, val, 8);
015b0                 | '             break;
015b0     3C 01 90 FD | 	jmp	#LR__0067
015b4                 | LR__0060
015b4     28 8C 04 F1 | 	add	fp, #40
015b8     46 2A 09 FB | 	rdlong	local01, fp wz
015bc     28 8C 84 F1 | 	sub	fp, #40
015c0     44 00 90 5D |  if_ne	jmp	#LR__0061
015c4     30 8C 04 F1 | 	add	fp, #48
015c8     46 30 01 FB | 	rdlong	local04, fp
015cc     30 8C 84 F1 | 	sub	fp, #48
015d0     02 30 0D F2 | 	cmp	local04, #2 wz
015d4     30 00 90 5D |  if_ne	jmp	#LR__0061
015d8     20 8C 04 F1 | 	add	fp, #32
015dc     46 2C 01 FB | 	rdlong	local02, fp
015e0     96 2A 01 F6 | 	mov	local01, local02
015e4     04 8C 04 F1 | 	add	fp, #4
015e8     46 2E 01 FB | 	rdlong	local03, fp
015ec     97 30 01 F6 | 	mov	local04, local03
015f0     01 30 05 F1 | 	add	local04, #1
015f4     10 30 65 F0 | 	shl	local04, #16
015f8     98 2A 41 F5 | 	or	local01, local04
015fc     04 8C 84 F1 | 	sub	fp, #4
01600     46 2A 61 FC | 	wrlong	local01, fp
01604     20 8C 84 F1 | 	sub	fp, #32
01608                 | LR__0061
01608     20 8C 04 F1 | 	add	fp, #32
0160c     46 2A 01 FB | 	rdlong	local01, fp
01610     3A 2A 25 F4 | 	bith	local01, #58
01614     46 2A 61 FC | 	wrlong	local01, fp
01618     1C 8C 84 F1 | 	sub	fp, #28
0161c     46 20 01 FB | 	rdlong	arg01, fp
01620     1C 8C 04 F1 | 	add	fp, #28
01624     46 22 01 FB | 	rdlong	arg02, fp
01628     14 8C 04 F1 | 	add	fp, #20
0162c     46 36 01 FB | 	rdlong	local07, fp
01630     34 8C 84 F1 | 	sub	fp, #52
01634     10 3A 05 F6 | 	mov	local09, #16
01638     9B 24 01 F6 | 	mov	arg03, local07
0163c     10 26 05 F6 | 	mov	arg04, #16
01640     0C 08 B0 FD | 	call	#__system___fmtnum
01644     14 8C 04 F1 | 	add	fp, #20
01648     46 00 61 FC | 	wrlong	result1, fp
0164c     14 8C 84 F1 | 	sub	fp, #20
01650                 | '                 flags |= ((width+1)<< (16) );
01650                 | '             }
01650                 | '             flags |=  3  <<  (26) ;
01650                 | '             q = _fmtnum(fn, flags, val, 16);
01650                 | '             break;
01650     9C 00 90 FD | 	jmp	#LR__0067
01654                 | LR__0062
01654                 | LR__0063
01654                 | LR__0064
01654                 | LR__0065
01654     04 8C 04 F1 | 	add	fp, #4
01658     46 20 01 FB | 	rdlong	arg01, fp
0165c     1C 8C 04 F1 | 	add	fp, #28
01660     46 30 01 FB | 	rdlong	local04, fp
01664     14 8C 04 F1 | 	add	fp, #20
01668     46 36 01 FB | 	rdlong	local07, fp
0166c                 | '     v.i = x;
0166c                 | '     return v.f;
0166c     9B 00 01 F6 | 	mov	result1, local07
01670     80 3A 01 F6 | 	mov	local09, result1
01674     24 8C 84 F1 | 	sub	fp, #36
01678     46 38 01 FB | 	rdlong	local08, fp
0167c     10 8C 84 F1 | 	sub	fp, #16
01680     9C 32 01 F6 | 	mov	local05, local08
01684     98 22 01 F6 | 	mov	arg02, local04
01688     9D 24 01 F6 | 	mov	arg03, local09
0168c     99 26 01 F6 | 	mov	arg04, local05
01690     04 0B B0 FD | 	call	#__system___fmtfloat
01694     80 3E 01 F6 | 	mov	local11, result1
01698     14 8C 04 F1 | 	add	fp, #20
0169c     46 3E 61 FC | 	wrlong	local11, fp
016a0     14 8C 84 F1 | 	sub	fp, #20
016a4                 | '             q = _fmtfloat(fn, flags, _asfloat(val), c);
016a4                 | '             break;
016a4     48 00 90 FD | 	jmp	#LR__0067
016a8                 | LR__0066
016a8     04 8C 04 F1 | 	add	fp, #4
016ac     46 2C 01 FB | 	rdlong	local02, fp
016b0     96 2A 01 F6 | 	mov	local01, local02
016b4     1C 8C 04 F1 | 	add	fp, #28
016b8     46 2E 01 FB | 	rdlong	local03, fp
016bc     20 8C 84 F1 | 	sub	fp, #32
016c0     97 30 01 F6 | 	mov	local04, local03
016c4     26 00 00 FF 
016c8     D4 34 05 F6 | 	mov	local06, ##@LR__0381
016cc     9A 36 01 F6 | 	mov	local07, local06
016d0     95 20 01 F6 | 	mov	arg01, local01
016d4     98 22 01 F6 | 	mov	arg02, local04
016d8     9B 24 01 F6 | 	mov	arg03, local07
016dc     78 06 B0 FD | 	call	#__system___fmtstr
016e0     80 3A 01 F6 | 	mov	local09, result1
016e4     14 8C 04 F1 | 	add	fp, #20
016e8     46 3A 61 FC | 	wrlong	local09, fp
016ec     14 8C 84 F1 | 	sub	fp, #20
016f0                 | '             q = _fmtstr(fn, flags, "???");
016f0                 | '             break;
016f0                 | LR__0067
016f0     14 8C 04 F1 | 	add	fp, #20
016f4     46 2A 01 FB | 	rdlong	local01, fp
016f8     14 8C 84 F1 | 	sub	fp, #20
016fc     00 2A 5D F2 | 	cmps	local01, #0 wcz
01700     10 00 90 3D |  if_ae	jmp	#LR__0068
01704                 | '             return q;
01704     14 8C 04 F1 | 	add	fp, #20
01708     46 00 01 FB | 	rdlong	result1, fp
0170c     14 8C 84 F1 | 	sub	fp, #20
01710     30 00 90 FD | 	jmp	#LR__0070
01714                 | LR__0068
01714     1C 8C 04 F1 | 	add	fp, #28
01718     46 2A 01 FB | 	rdlong	local01, fp
0171c     08 8C 84 F1 | 	sub	fp, #8
01720     46 2E 01 FB | 	rdlong	local03, fp
01724     97 2A 01 F1 | 	add	local01, local03
01728     08 8C 04 F1 | 	add	fp, #8
0172c     46 2A 61 FC | 	wrlong	local01, fp
01730     1C 8C 84 F1 | 	sub	fp, #28
01734     A0 F8 9F FD | 	jmp	#LR__0043
01738                 | LR__0069
01738                 | '         }
01738                 | '         bytes_written += q;
01738                 | '     }
01738                 | '     return bytes_written;
01738     1C 8C 04 F1 | 	add	fp, #28
0173c     46 00 01 FB | 	rdlong	result1, fp
01740     1C 8C 84 F1 | 	sub	fp, #28
01744                 | LR__0070
01744     46 F0 03 F6 | 	mov	ptra, fp
01748     5A 00 A0 FD | 	call	#popregs_
0174c                 | __dofmt_ret
0174c     2D 00 64 FD | 	ret
01750                 | 
01750                 | ___default_filbuf
01750     06 88 04 F6 | 	mov	COUNT_, #6
01754     4B 00 A0 FD | 	call	#pushregs_
01758     90 2A 01 FB | 	rdlong	local01, arg01
0175c     0C 20 05 F1 | 	add	arg01, #12
01760     90 2C 01 FB | 	rdlong	local02, arg01
01764     0C 20 85 F1 | 	sub	arg01, #12
01768     96 2E 01 FB | 	rdlong	local03, local02
0176c     04 2C 05 F1 | 	add	local02, #4
01770     96 30 01 FB | 	rdlong	local04, local02
01774     0C 2A 05 F1 | 	add	local01, #12
01778     95 22 01 F6 | 	mov	arg02, local01
0177c     0C 2A 85 F1 | 	sub	local01, #12
01780     0A 24 C5 F9 | 	decod	arg03, #10
01784     79 32 01 F6 | 	mov	local05, objptr
01788     97 F2 00 F6 | 	mov	objptr, local03
0178c     2D 30 61 FD | 	call	local04
01790     99 F2 00 F6 | 	mov	objptr, local05
01794     80 34 01 F6 | 	mov	local06, result1
01798     00 34 5D F2 | 	cmps	local06, #0 wcz
0179c                 | '         return -1;
0179c     01 00 65 C6 |  if_b	neg	result1, #1
017a0     18 00 90 CD |  if_b	jmp	#LR__0071
017a4     95 34 61 FC | 	wrlong	local06, local01
017a8     0C 2A 05 F1 | 	add	local01, #12
017ac     95 2C 01 F6 | 	mov	local02, local01
017b0     08 2A 85 F1 | 	sub	local01, #8
017b4     95 2C 61 FC | 	wrlong	local02, local01
017b8                 | '     }
017b8                 | '     b->cnt = r;
017b8                 | '     b->ptr = &b->buf[0];
017b8                 | '     return r;
017b8     9A 00 01 F6 | 	mov	result1, local06
017bc                 | LR__0071
017bc     46 F0 03 F6 | 	mov	ptra, fp
017c0     5A 00 A0 FD | 	call	#popregs_
017c4                 | ___default_filbuf_ret
017c4     2D 00 64 FD | 	ret
017c8                 | 
017c8                 | _parseint_0096
017c8     90 0E 01 F6 | 	mov	_var01, arg01
017cc     91 10 01 F6 | 	mov	_var02, arg02
017d0     87 12 01 FB | 	rdlong	_var03, _var01
017d4     00 14 05 F6 | 	mov	_var04, #0
017d8     89 16 C1 FA | 	rdbyte	_var05, _var03
017dc     2A 16 0D F2 | 	cmp	_var05, #42 wz
017e0     18 00 90 5D |  if_ne	jmp	#LR__0072
017e4     88 18 01 FB | 	rdlong	_var06, _var02
017e8     8C 14 01 FB | 	rdlong	_var04, _var06
017ec     04 18 05 F1 | 	add	_var06, #4
017f0     88 18 61 FC | 	wrlong	_var06, _var02
017f4     01 12 05 F1 | 	add	_var03, #1
017f8     38 00 90 FD | 	jmp	#LR__0075
017fc                 | LR__0072
017fc                 | '         while ( (c>='0') && (c<='9') ) {
017fc                 | LR__0073
017fc     30 16 5D F2 | 	cmps	_var05, #48 wcz
01800     30 00 90 CD |  if_b	jmp	#LR__0074
01804     39 16 5D F2 | 	cmps	_var05, #57 wcz
01808     28 00 90 1D |  if_a	jmp	#LR__0074
0180c     8A 1A 01 F6 | 	mov	_var07, _var04
01810     02 1A 65 F0 | 	shl	_var07, #2
01814     8A 1A 01 F1 | 	add	_var07, _var04
01818     01 1A 65 F0 | 	shl	_var07, #1
0181c     30 16 85 F1 | 	sub	_var05, #48
01820     8B 1A 01 F1 | 	add	_var07, _var05
01824     8D 14 01 F6 | 	mov	_var04, _var07
01828     01 12 05 F1 | 	add	_var03, #1
0182c     89 16 C1 FA | 	rdbyte	_var05, _var03
01830     C8 FF 9F FD | 	jmp	#LR__0073
01834                 | LR__0074
01834                 | LR__0075
01834     87 12 61 FC | 	wrlong	_var03, _var01
01838                 | '             r = 10*r + (c-'0');
01838                 | '             c = *++fmt;
01838                 | '         }
01838                 | '     }
01838                 | '     *fmt_p = fmt;
01838                 | '     return r;
01838     8A 00 01 F6 | 	mov	result1, _var04
0183c                 | _parseint_0096_ret
0183c     2D 00 64 FD | 	ret
01840                 | 
01840                 | _parseflags_0103
01840     90 0E 01 F6 | 	mov	_var01, arg01
01844     91 10 01 F6 | 	mov	_var02, arg02
01848     00 12 05 F6 | 	mov	_var03, #0
0184c     01 14 05 F6 | 	mov	_var04, #1
01850     00 16 05 F6 | 	mov	_var05, #0
01854     02 18 05 F6 | 	mov	_var06, #2
01858     00 1A 05 F6 | 	mov	_var07, #0
0185c                 | ' 
0185c                 | '     while (!done) {
0185c                 | LR__0076
0185c     00 1A 0D F2 | 	cmp	_var07, #0 wz
01860     64 00 90 5D |  if_ne	jmp	#LR__0083
01864     87 1C C1 FA | 	rdbyte	_var08, _var01
01868                 | '         c = *fmt++;
01868                 | '         switch (c) {
01868     2D 1C 0D F2 | 	cmp	_var08, #45 wz
0186c     01 0E 05 F1 | 	add	_var01, #1
01870     24 00 90 AD |  if_e	jmp	#LR__0077
01874     23 1C 0D F2 | 	cmp	_var08, #35 wz
01878     24 00 90 AD |  if_e	jmp	#LR__0078
0187c     2B 1C 0D F2 | 	cmp	_var08, #43 wz
01880     24 00 90 AD |  if_e	jmp	#LR__0079
01884     30 1C 0D F2 | 	cmp	_var08, #48 wz
01888     24 00 90 AD |  if_e	jmp	#LR__0080
0188c     20 1C 0D F2 | 	cmp	_var08, #32 wz
01890     24 00 90 AD |  if_e	jmp	#LR__0081
01894     28 00 90 FD | 	jmp	#LR__0082
01898                 | LR__0077
01898     01 18 05 F6 | 	mov	_var06, #1
0189c                 | '             justify =  1 ;
0189c                 | '             break;
0189c     BC FF 9F FD | 	jmp	#LR__0076
018a0                 | LR__0078
018a0     1C 12 45 F5 | 	or	_var03, #28
018a4                 | '             flags |=  (28) ;
018a4                 | '             break;
018a4     B4 FF 9F FD | 	jmp	#LR__0076
018a8                 | LR__0079
018a8     01 16 05 F6 | 	mov	_var05, #1
018ac                 | '             signchar =  1 ;
018ac                 | '             break;
018ac     AC FF 9F FD | 	jmp	#LR__0076
018b0                 | LR__0080
018b0     02 14 05 F6 | 	mov	_var04, #2
018b4                 | '             padchar =  2 ;
018b4                 | '             break;
018b4     A4 FF 9F FD | 	jmp	#LR__0076
018b8                 | LR__0081
018b8     01 14 05 F6 | 	mov	_var04, #1
018bc                 | '             padchar =  1 ;
018bc                 | '             break;
018bc     9C FF 9F FD | 	jmp	#LR__0076
018c0                 | LR__0082
018c0     01 1A 05 F6 | 	mov	_var07, #1
018c4                 | '             done = 1;
018c4                 | '             break;
018c4     94 FF 9F FD | 	jmp	#LR__0076
018c8                 | LR__0083
018c8     18 14 65 F0 | 	shl	_var04, #24
018cc     8A 12 41 F5 | 	or	_var03, _var04
018d0     1A 16 65 F0 | 	shl	_var05, #26
018d4     8B 12 41 F5 | 	or	_var03, _var05
018d8     16 18 65 F0 | 	shl	_var06, #22
018dc     8C 12 41 F5 | 	or	_var03, _var06
018e0     88 12 61 FC | 	wrlong	_var03, _var02
018e4                 | '         }
018e4                 | '     }
018e4                 | '     flags |= (padchar <<  (24) );
018e4                 | '     flags |= (signchar <<  (26) );
018e4                 | '     flags |= (justify <<  (22) );
018e4                 | '     *flag_p = flags;
018e4                 | '     return fmt-1;
018e4     01 0E 85 F1 | 	sub	_var01, #1
018e8     87 00 01 F6 | 	mov	result1, _var01
018ec                 | _parseflags_0103_ret
018ec     2D 00 64 FD | 	ret
018f0                 | 
018f0                 | _parsesize_0107
018f0     91 0E 01 F6 | 	mov	_var01, arg02
018f4     04 10 05 F6 | 	mov	_var02, #4
018f8     00 12 05 F6 | 	mov	_var03, #0
018fc     90 14 01 F6 | 	mov	_var04, arg01
01900     90 16 01 F6 | 	mov	_var05, arg01
01904     01 16 05 F1 | 	add	_var05, #1
01908     8B 18 01 F6 | 	mov	_var06, _var05
0190c     8A 1A C1 FA | 	rdbyte	_var07, _var04
01910                 | '     c = *fmt++;
01910                 | ' 
01910                 | '     switch (c) {
01910     8D 1C 01 F6 | 	mov	_var08, _var07
01914     6C 1C 0D F2 | 	cmp	_var08, #108 wz
01918     2C 00 90 AD |  if_e	jmp	#LR__0084
0191c     68 1C 0D F2 | 	cmp	_var08, #104 wz
01920     3C 00 90 AD |  if_e	jmp	#LR__0085
01924     6A 1C 0D F2 | 	cmp	_var08, #106 wz
01928     4C 00 90 AD |  if_e	jmp	#LR__0086
0192c     7A 1C 0D F2 | 	cmp	_var08, #122 wz
01930     4C 00 90 AD |  if_e	jmp	#LR__0087
01934     74 1C 0D F2 | 	cmp	_var08, #116 wz
01938     44 00 90 AD |  if_e	jmp	#LR__0088
0193c     4C 1C 0D F2 | 	cmp	_var08, #76 wz
01940     44 00 90 AD |  if_e	jmp	#LR__0089
01944     48 00 90 FD | 	jmp	#LR__0090
01948                 | LR__0084
01948     04 10 05 F6 | 	mov	_var02, #4
0194c     8C 1E C1 FA | 	rdbyte	_var09, _var06
01950     6C 1E 0D F2 | 	cmp	_var09, #108 wz
01954     08 10 05 A6 |  if_e	mov	_var02, #8
01958     01 18 05 A1 |  if_e	add	_var06, #1
0195c                 | '             fmt++;
0195c                 | '         }
0195c                 | '         break;
0195c     3C 00 90 FD | 	jmp	#LR__0091
01960                 | LR__0085
01960     02 10 05 F6 | 	mov	_var02, #2
01964     8C 1E C1 FA | 	rdbyte	_var09, _var06
01968     68 1E 0D F2 | 	cmp	_var09, #104 wz
0196c     01 10 05 A6 |  if_e	mov	_var02, #1
01970     01 18 05 A1 |  if_e	add	_var06, #1
01974                 | '             fmt++;
01974                 | '         }
01974                 | '         break;
01974     24 00 90 FD | 	jmp	#LR__0091
01978                 | LR__0086
01978     08 10 05 F6 | 	mov	_var02, #8
0197c                 | '         break;
0197c     1C 00 90 FD | 	jmp	#LR__0091
01980                 | LR__0087
01980                 | LR__0088
01980     04 10 05 F6 | 	mov	_var02, #4
01984                 | '         break;
01984     14 00 90 FD | 	jmp	#LR__0091
01988                 | LR__0089
01988     04 10 05 F6 | 	mov	_var02, #4
0198c                 | '         longflag = 1;
0198c                 | '         break;
0198c     0C 00 90 FD | 	jmp	#LR__0091
01990                 | LR__0090
01990     8C 1E 01 F6 | 	mov	_var09, _var06
01994     01 1E 85 F1 | 	sub	_var09, #1
01998     8F 18 01 F6 | 	mov	_var06, _var09
0199c                 | ' 
0199c                 | '         --fmt;
0199c                 | '         break;
0199c                 | LR__0091
0199c     87 10 61 FC | 	wrlong	_var02, _var01
019a0                 | '     }
019a0                 | '     *size_p = size;
019a0                 | '     return fmt;
019a0     8C 00 01 F6 | 	mov	result1, _var06
019a4                 | _parsesize_0107_ret
019a4     2D 00 64 FD | 	ret
019a8                 | 
019a8                 | ___struct__fmtfile_putchar
019a8     05 88 04 F6 | 	mov	COUNT_, #5
019ac     4B 00 A0 FD | 	call	#pushregs_
019b0                 | '         return f->putcf(c, f);
019b0     79 2A 01 FB | 	rdlong	local01, objptr
019b4     14 2A 05 F1 | 	add	local01, #20
019b8     95 2C 01 FB | 	rdlong	local02, local01
019bc     96 2E 01 FB | 	rdlong	local03, local02
019c0     04 2C 05 F1 | 	add	local02, #4
019c4     96 30 01 FB | 	rdlong	local04, local02
019c8     79 22 01 FB | 	rdlong	arg02, objptr
019cc     79 32 01 F6 | 	mov	local05, objptr
019d0     97 F2 00 F6 | 	mov	objptr, local03
019d4     2D 30 61 FD | 	call	local04
019d8     99 F2 00 F6 | 	mov	objptr, local05
019dc     46 F0 03 F6 | 	mov	ptra, fp
019e0     5A 00 A0 FD | 	call	#popregs_
019e4                 | ___struct__fmtfile_putchar_ret
019e4     2D 00 64 FD | 	ret
019e8                 | hubexit
019e8     23 00 80 FD | 	jmp	#cogexit
019ec                 | 
019ec                 | __system___setbaud
019ec     14 56 05 FB | 	rdlong	muldiva_, #20
019f0     90 58 01 F6 | 	mov	muldivb_, arg01
019f4     6B 00 A0 FD | 	call	#divide_
019f8     40 7C 64 FD | 	dirl	#62
019fc     40 7E 64 FD | 	dirl	#63
01a00     7C 58 61 FC | 	wrlong	muldivb_, ptr___system__dat__
01a04     10 58 65 F0 | 	shl	muldivb_, #16
01a08     07 22 05 F6 | 	mov	arg02, #7
01a0c     AC 22 01 F1 | 	add	arg02, muldivb_
01a10     3E F8 0C FC | 	wrpin	#124, #62
01a14     3E 22 15 FC | 	wxpin	arg02, #62
01a18     3F 7C 0C FC | 	wrpin	#62, #63
01a1c     14 22 05 F1 | 	add	arg02, #20
01a20     3F 22 15 FC | 	wxpin	arg02, #63
01a24     41 7C 64 FD | 	dirh	#62
01a28     41 7E 64 FD | 	dirh	#63
01a2c                 | __system___setbaud_ret
01a2c     2D 00 64 FD | 	ret
01a30                 | 
01a30                 | __system___txraw
01a30     02 88 04 F6 | 	mov	COUNT_, #2
01a34     4B 00 A0 FD | 	call	#pushregs_
01a38     90 2A 01 F6 | 	mov	local01, arg01
01a3c     7C 2C 09 FB | 	rdlong	local02, ptr___system__dat__ wz
01a40     0C 00 90 5D |  if_ne	jmp	#LR__0092
01a44     C2 01 00 FF 
01a48     00 20 05 F6 | 	mov	arg01, ##230400
01a4c     9C FF BF FD | 	call	#__system___setbaud
01a50                 | LR__0092
01a50     3E 2A 25 FC | 	wypin	local01, #62
01a54     1F 02 64 FD | 	waitx	#1
01a58     AC E5 9F FE | 	loc	pa,	#(@LR__0094-@LR__0093)
01a5c     35 00 A0 FD | 	call	#FCACHE_LOAD_
01a60                 | LR__0093
01a60     40 7C 74 FD | 	testp	#62 wc
01a64     F8 FF 9F 3D |  if_nc	jmp	#LR__0093
01a68                 | LR__0094
01a68     01 00 05 F6 | 	mov	result1, #1
01a6c     46 F0 03 F6 | 	mov	ptra, fp
01a70     5A 00 A0 FD | 	call	#popregs_
01a74                 | __system___txraw_ret
01a74     2D 00 64 FD | 	ret
01a78                 | 
01a78                 | __system___rxraw
01a78     0B 88 04 F6 | 	mov	COUNT_, #11
01a7c     4B 00 A0 FD | 	call	#pushregs_
01a80     90 2A 01 F6 | 	mov	local01, arg01
01a84     7C 2C 09 FB | 	rdlong	local02, ptr___system__dat__ wz
01a88     0C 00 90 5D |  if_ne	jmp	#LR__0095
01a8c     C2 01 00 FF 
01a90     00 20 05 F6 | 	mov	arg01, ##230400
01a94     54 FF BF FD | 	call	#__system___setbaud
01a98                 | LR__0095
01a98     00 2A 0D F2 | 	cmp	local01, #0 wz
01a9c     18 00 90 AD |  if_e	jmp	#LR__0096
01aa0     1A 2E 61 FD | 	getct	local03
01aa4     14 30 05 FB | 	rdlong	local04, #20
01aa8     0A 30 45 F0 | 	shr	local04, #10
01aac     98 2A 01 FD | 	qmul	local01, local04
01ab0     18 32 61 FD | 	getqx	local05
01ab4     99 2E 01 F1 | 	add	local03, local05
01ab8                 | LR__0096
01ab8     01 34 65 F6 | 	neg	local06, #1
01abc     00 36 05 F6 | 	mov	local07, #0
01ac0     04 F8 04 F1 | 	add	ptr___system__dat__, #4
01ac4     7C 38 01 FB | 	rdlong	local08, ptr___system__dat__
01ac8     04 F8 84 F1 | 	sub	ptr___system__dat__, #4
01acc     A0 E5 9F FE | 	loc	pa,	#(@LR__0099-@LR__0097)
01ad0     35 00 A0 FD | 	call	#FCACHE_LOAD_
01ad4                 | LR__0097
01ad4     08 38 15 F4 | 	testb	local08, #8 wc
01ad8     09 38 75 F4 | 	testbn	local08, #9 andc
01adc     0A 38 45 F0 | 	shr	local08, #10
01ae0     01 36 05 C6 |  if_b	mov	local07, #1
01ae4     10 00 90 CD |  if_b	jmp	#LR__0098
01ae8     40 7E 6C FD | 	testp	#63 wz
01aec     01 36 05 A6 |  if_e	mov	local07, #1
01af0     3F 38 8D AA |  if_e	rdpin	local08, #63
01af4     04 38 45 A0 |  if_e	shr	local08, #4
01af8                 | LR__0098
01af8     00 2C 05 F6 | 	mov	local02, #0
01afc     00 36 0D F2 | 	cmp	local07, #0 wz
01b00     01 2C 65 56 |  if_ne	neg	local02, #1
01b04     00 3A 05 F6 | 	mov	local09, #0
01b08     00 30 05 F6 | 	mov	local04, #0
01b0c     00 2A 0D F2 | 	cmp	local01, #0 wz
01b10     01 30 65 56 |  if_ne	neg	local04, #1
01b14     00 32 05 F6 | 	mov	local05, #0
01b18     00 3C 05 F6 | 	mov	local10, #0
01b1c     1A 3E 61 FD | 	getct	local11
01b20     97 3E 81 F1 | 	sub	local11, local03
01b24     00 3E 5D F2 | 	cmps	local11, #0 wcz
01b28     01 3C 65 C6 |  if_b	neg	local10, #1
01b2c     00 3C 0D F2 | 	cmp	local10, #0 wz
01b30     01 32 65 56 |  if_ne	neg	local05, #1
01b34     99 30 C9 F7 | 	test	local04, local05 wz
01b38     01 3A 65 56 |  if_ne	neg	local09, #1
01b3c     9D 2C 49 F5 | 	or	local02, local09 wz
01b40     90 FF 9F AD |  if_e	jmp	#LR__0097
01b44                 | LR__0099
01b44     00 36 0D F2 | 	cmp	local07, #0 wz
01b48     9C 34 01 56 |  if_ne	mov	local06, local08
01b4c     FF 34 05 55 |  if_ne	and	local06, #255
01b50     04 F8 04 F1 | 	add	ptr___system__dat__, #4
01b54     7C 38 61 FC | 	wrlong	local08, ptr___system__dat__
01b58     04 F8 84 F1 | 	sub	ptr___system__dat__, #4
01b5c     9A 00 01 F6 | 	mov	result1, local06
01b60     46 F0 03 F6 | 	mov	ptra, fp
01b64     5A 00 A0 FD | 	call	#popregs_
01b68                 | __system___rxraw_ret
01b68     2D 00 64 FD | 	ret
01b6c                 | 
01b6c                 | __system____builtin_strcpy
01b6c     90 0E 01 F6 | 	mov	_var01, arg01
01b70     A0 E4 9F FE | 	loc	pa,	#(@LR__0101-@LR__0100)
01b74     35 00 A0 FD | 	call	#FCACHE_LOAD_
01b78                 | LR__0100
01b78     91 10 C9 FA | 	rdbyte	_var02, arg02 wz
01b7c     90 10 41 FC | 	wrbyte	_var02, arg01
01b80     01 22 05 F1 | 	add	arg02, #1
01b84     01 20 05 F1 | 	add	arg01, #1
01b88     EC FF 9F 5D |  if_ne	jmp	#LR__0100
01b8c                 | LR__0101
01b8c     87 00 01 F6 | 	mov	result1, _var01
01b90                 | __system____builtin_strcpy_ret
01b90     2D 00 64 FD | 	ret
01b94                 | 
01b94                 | __system___make_methodptr
01b94     04 88 04 F6 | 	mov	COUNT_, #4
01b98     4B 00 A0 FD | 	call	#pushregs_
01b9c     90 2A 01 F6 | 	mov	local01, arg01
01ba0     91 2C 01 F6 | 	mov	local02, arg02
01ba4     08 20 05 F6 | 	mov	arg01, #8
01ba8     64 24 B0 FD | 	call	#__system___gc_alloc_managed
01bac     80 2E 09 F6 | 	mov	local03, result1 wz
01bb0     10 00 90 AD |  if_e	jmp	#LR__0102
01bb4     97 2A 61 FC | 	wrlong	local01, local03
01bb8     97 30 01 F6 | 	mov	local04, local03
01bbc     04 30 05 F1 | 	add	local04, #4
01bc0     98 2C 61 FC | 	wrlong	local02, local04
01bc4                 | LR__0102
01bc4     97 00 01 F6 | 	mov	result1, local03
01bc8     46 F0 03 F6 | 	mov	ptra, fp
01bcc     5A 00 A0 FD | 	call	#popregs_
01bd0                 | __system___make_methodptr_ret
01bd0     2D 00 64 FD | 	ret
01bd4                 | 
01bd4                 | __system___tx
01bd4     02 88 04 F6 | 	mov	COUNT_, #2
01bd8     4B 00 A0 FD | 	call	#pushregs_
01bdc     90 2A 01 F6 | 	mov	local01, arg01
01be0     0A 2A 0D F2 | 	cmp	local01, #10 wz
01be4     20 00 90 5D |  if_ne	jmp	#LR__0103
01be8     08 F8 04 F1 | 	add	ptr___system__dat__, #8
01bec     7C 2C 01 FB | 	rdlong	local02, ptr___system__dat__
01bf0     08 F8 84 F1 | 	sub	ptr___system__dat__, #8
01bf4     02 2C CD F7 | 	test	local02, #2 wz
01bf8     0C 00 90 AD |  if_e	jmp	#LR__0103
01bfc     0D 2C 05 F6 | 	mov	local02, #13
01c00     0D 20 05 F6 | 	mov	arg01, #13
01c04     28 FE BF FD | 	call	#__system___txraw
01c08                 | LR__0103
01c08     95 20 01 F6 | 	mov	arg01, local01
01c0c     20 FE BF FD | 	call	#__system___txraw
01c10     46 F0 03 F6 | 	mov	ptra, fp
01c14     5A 00 A0 FD | 	call	#popregs_
01c18                 | __system___tx_ret
01c18     2D 00 64 FD | 	ret
01c1c                 | 
01c1c                 | __system___rx
01c1c     02 88 04 F6 | 	mov	COUNT_, #2
01c20     4B 00 A0 FD | 	call	#pushregs_
01c24                 | LR__0104
01c24     00 20 05 F6 | 	mov	arg01, #0
01c28     4C FE BF FD | 	call	#__system___rxraw
01c2c     80 2A 01 F6 | 	mov	local01, result1
01c30     FF FF 7F FF 
01c34     FF 2B 0D F2 | 	cmp	local01, ##-1 wz
01c38     E8 FF 9F AD |  if_e	jmp	#LR__0104
01c3c     0D 2A 0D F2 | 	cmp	local01, #13 wz
01c40     14 00 90 5D |  if_ne	jmp	#LR__0105
01c44     08 F8 04 F1 | 	add	ptr___system__dat__, #8
01c48     7C 2C 01 FB | 	rdlong	local02, ptr___system__dat__
01c4c     08 F8 84 F1 | 	sub	ptr___system__dat__, #8
01c50     02 2C CD F7 | 	test	local02, #2 wz
01c54     0A 2A 05 56 |  if_ne	mov	local01, #10
01c58                 | LR__0105
01c58     08 F8 04 F1 | 	add	ptr___system__dat__, #8
01c5c     7C 2C 01 FB | 	rdlong	local02, ptr___system__dat__
01c60     08 F8 84 F1 | 	sub	ptr___system__dat__, #8
01c64     01 2C CD F7 | 	test	local02, #1 wz
01c68     1C 00 90 AD |  if_e	jmp	#LR__0108
01c6c     7F 2A 0D F2 | 	cmp	local01, #127 wz
01c70     0C 00 90 5D |  if_ne	jmp	#LR__0106
01c74     08 20 05 F6 | 	mov	arg01, #8
01c78     58 FF BF FD | 	call	#__system___tx
01c7c     08 00 90 FD | 	jmp	#LR__0107
01c80                 | LR__0106
01c80     95 20 01 F6 | 	mov	arg01, local01
01c84     4C FF BF FD | 	call	#__system___tx
01c88                 | LR__0107
01c88                 | LR__0108
01c88     95 00 01 F6 | 	mov	result1, local01
01c8c     46 F0 03 F6 | 	mov	ptra, fp
01c90     5A 00 A0 FD | 	call	#popregs_
01c94                 | __system___rx_ret
01c94     2D 00 64 FD | 	ret
01c98                 | 
01c98                 | __system___lockmem
01c98     02 88 04 F6 | 	mov	COUNT_, #2
01c9c     4B 00 A0 FD | 	call	#pushregs_
01ca0     90 2A 01 F6 | 	mov	local01, arg01
01ca4     98 E3 9F FE | 	loc	pa,	#(@LR__0111-@LR__0109)
01ca8     35 00 A0 FD | 	call	#FCACHE_LOAD_
01cac                 | LR__0109
01cac                 | LR__0110
01cac     FF FF 7F FF 
01cb0     FD 21 05 FB | 	rdlong	arg01, ##-3
01cb4     06 20 71 FD | 	locktry	arg01 wc
01cb8     FF FF 7F FF 
01cbc     FF 01 A5 F5 | 	muxnc	result1, ##-1
01cc0     00 00 0D F2 | 	cmp	result1, #0 wz
01cc4     E4 FF 9F 5D |  if_ne	jmp	#LR__0110
01cc8     95 2C C9 FA | 	rdbyte	local02, local01 wz
01ccc     95 02 48 AC |  if_e	wrbyte	#1, local01
01cd0     FF FF 7F FF 
01cd4     FD 21 05 FB | 	rdlong	arg01, ##-3
01cd8     07 20 71 FD | 	lockrel	arg01 wc
01cdc     FF FF 7F FF 
01ce0     FF 01 85 F5 | 	muxc	result1, ##-1
01ce4     00 2C 0D F2 | 	cmp	local02, #0 wz
01ce8     C0 FF 9F 5D |  if_ne	jmp	#LR__0109
01cec                 | LR__0111
01cec     46 F0 03 F6 | 	mov	ptra, fp
01cf0     5A 00 A0 FD | 	call	#popregs_
01cf4                 | __system___lockmem_ret
01cf4     2D 00 64 FD | 	ret
01cf8                 | 
01cf8                 | __system___fmtchar
01cf8     00 88 04 F6 | 	mov	COUNT_, #0
01cfc     4B 00 A0 FD | 	call	#pushregs_
01d00     14 F0 07 F1 | 	add	ptra, #20
01d04     04 8C 04 F1 | 	add	fp, #4
01d08     46 20 61 FC | 	wrlong	arg01, fp
01d0c     04 8C 04 F1 | 	add	fp, #4
01d10     46 22 61 FC | 	wrlong	arg02, fp
01d14     04 8C 04 F1 | 	add	fp, #4
01d18     46 24 61 FC | 	wrlong	arg03, fp
01d1c     04 8C 04 F1 | 	add	fp, #4
01d20     46 24 41 FC | 	wrbyte	arg03, fp
01d24     01 8C 04 F1 | 	add	fp, #1
01d28     46 00 48 FC | 	wrbyte	#0, fp
01d2c     0D 8C 84 F1 | 	sub	fp, #13
01d30     46 20 01 FB | 	rdlong	arg01, fp
01d34     04 8C 04 F1 | 	add	fp, #4
01d38     46 22 01 FB | 	rdlong	arg02, fp
01d3c     08 8C 04 F1 | 	add	fp, #8
01d40     46 24 01 F6 | 	mov	arg03, fp
01d44     10 8C 84 F1 | 	sub	fp, #16
01d48     0C 00 B0 FD | 	call	#__system___fmtstr
01d4c     46 F0 03 F6 | 	mov	ptra, fp
01d50     5A 00 A0 FD | 	call	#popregs_
01d54                 | __system___fmtchar_ret
01d54     2D 00 64 FD | 	ret
01d58                 | 
01d58                 | __system___fmtstr
01d58     0E 88 04 F6 | 	mov	COUNT_, #14
01d5c     4B 00 A0 FD | 	call	#pushregs_
01d60     90 2A 01 F6 | 	mov	local01, arg01
01d64     91 2C 01 F6 | 	mov	local02, arg02
01d68     92 2E 01 F6 | 	mov	local03, arg03
01d6c     96 30 01 F6 | 	mov	local04, local02
01d70     FF 30 05 F5 | 	and	local04, #255
01d74     97 20 01 F6 | 	mov	arg01, local03
01d78     00 32 05 F6 | 	mov	local05, #0
01d7c     90 E2 9F FE | 	loc	pa,	#(@LR__0113-@LR__0112)
01d80     35 00 A0 FD | 	call	#FCACHE_LOAD_
01d84                 | LR__0112
01d84     90 34 C9 FA | 	rdbyte	local06, arg01 wz
01d88     01 32 05 51 |  if_ne	add	local05, #1
01d8c     01 20 05 51 |  if_ne	add	arg01, #1
01d90     F0 FF 9F 5D |  if_ne	jmp	#LR__0112
01d94                 | LR__0113
01d94     99 00 01 F6 | 	mov	result1, local05
01d98     80 36 01 F6 | 	mov	local07, result1
01d9c     00 30 0D F2 | 	cmp	local04, #0 wz
01da0     04 00 90 AD |  if_e	jmp	#LR__0114
01da4     98 36 79 F3 | 	fles	local07, local04 wcz
01da8                 | LR__0114
01da8     95 20 01 F6 | 	mov	arg01, local01
01dac     96 22 01 F6 | 	mov	arg02, local02
01db0     9B 24 01 F6 | 	mov	arg03, local07
01db4     02 26 05 F6 | 	mov	arg04, #2
01db8     B4 28 B0 FD | 	call	#__system___fmtpad
01dbc     80 38 01 F6 | 	mov	local08, result1
01dc0     00 38 5D F2 | 	cmps	local08, #0 wcz
01dc4     9C 00 01 C6 |  if_b	mov	result1, local08
01dc8     78 00 90 CD |  if_b	jmp	#LR__0117
01dcc     00 3A 05 F6 | 	mov	local09, #0
01dd0                 | LR__0115
01dd0     9B 3A 59 F2 | 	cmps	local09, local07 wcz
01dd4     44 00 90 3D |  if_ae	jmp	#LR__0116
01dd8     95 3C 01 F6 | 	mov	local10, local01
01ddc     9E 3E 01 FB | 	rdlong	local11, local10
01de0     04 3C 05 F1 | 	add	local10, #4
01de4     9E 40 01 FB | 	rdlong	local12, local10
01de8     97 20 C1 FA | 	rdbyte	arg01, local03
01dec     79 42 01 F6 | 	mov	local13, objptr
01df0     9F F2 00 F6 | 	mov	objptr, local11
01df4     01 2E 05 F1 | 	add	local03, #1
01df8     2D 40 61 FD | 	call	local12
01dfc     A1 F2 00 F6 | 	mov	objptr, local13
01e00     80 44 01 F6 | 	mov	local14, result1
01e04     00 44 5D F2 | 	cmps	local14, #0 wcz
01e08     A2 00 01 C6 |  if_b	mov	result1, local14
01e0c     34 00 90 CD |  if_b	jmp	#LR__0117
01e10     A2 38 01 F1 | 	add	local08, local14
01e14     01 3A 05 F1 | 	add	local09, #1
01e18     B4 FF 9F FD | 	jmp	#LR__0115
01e1c                 | LR__0116
01e1c     95 20 01 F6 | 	mov	arg01, local01
01e20     96 22 01 F6 | 	mov	arg02, local02
01e24     9B 24 01 F6 | 	mov	arg03, local07
01e28     01 26 05 F6 | 	mov	arg04, #1
01e2c     40 28 B0 FD | 	call	#__system___fmtpad
01e30     80 44 01 F6 | 	mov	local14, result1
01e34     00 44 5D F2 | 	cmps	local14, #0 wcz
01e38     A2 00 01 C6 |  if_b	mov	result1, local14
01e3c     A2 38 01 31 |  if_ae	add	local08, local14
01e40     9C 00 01 36 |  if_ae	mov	result1, local08
01e44                 | LR__0117
01e44     46 F0 03 F6 | 	mov	ptra, fp
01e48     5A 00 A0 FD | 	call	#popregs_
01e4c                 | __system___fmtstr_ret
01e4c     2D 00 64 FD | 	ret
01e50                 | 
01e50                 | __system___fmtnum
01e50     0A 88 04 F6 | 	mov	COUNT_, #10
01e54     4B 00 A0 FD | 	call	#pushregs_
01e58     74 F0 07 F1 | 	add	ptra, #116
01e5c     04 8C 04 F1 | 	add	fp, #4
01e60     46 20 61 FC | 	wrlong	arg01, fp
01e64     04 8C 04 F1 | 	add	fp, #4
01e68     46 22 61 FC | 	wrlong	arg02, fp
01e6c     04 8C 04 F1 | 	add	fp, #4
01e70     46 24 61 FC | 	wrlong	arg03, fp
01e74     04 8C 04 F1 | 	add	fp, #4
01e78     46 26 61 FC | 	wrlong	arg04, fp
01e7c     04 8C 04 F1 | 	add	fp, #4
01e80     46 2A 01 F6 | 	mov	local01, fp
01e84     44 8C 04 F1 | 	add	fp, #68
01e88     46 2A 61 FC | 	wrlong	local01, fp
01e8c     04 8C 04 F1 | 	add	fp, #4
01e90     46 00 68 FC | 	wrlong	#0, fp
01e94     54 8C 84 F1 | 	sub	fp, #84
01e98     46 2A 01 FB | 	rdlong	local01, fp
01e9c     10 2A 45 F0 | 	shr	local01, #16
01ea0     3F 2A 05 F5 | 	and	local01, #63
01ea4     58 8C 04 F1 | 	add	fp, #88
01ea8     46 2A 61 FC | 	wrlong	local01, fp
01eac     58 8C 84 F1 | 	sub	fp, #88
01eb0     46 2A 01 FB | 	rdlong	local01, fp
01eb4     FF 2A 05 F5 | 	and	local01, #255
01eb8     5C 8C 04 F1 | 	add	fp, #92
01ebc     46 2A 61 FC | 	wrlong	local01, fp
01ec0     5C 8C 84 F1 | 	sub	fp, #92
01ec4     46 2A 01 FB | 	rdlong	local01, fp
01ec8     1A 2A 45 F0 | 	shr	local01, #26
01ecc     03 2A 05 F5 | 	and	local01, #3
01ed0     60 8C 04 F1 | 	add	fp, #96
01ed4     46 2A 61 FC | 	wrlong	local01, fp
01ed8     08 8C 84 F1 | 	sub	fp, #8
01edc     46 2A 01 FB | 	rdlong	local01, fp
01ee0     60 8C 84 F1 | 	sub	fp, #96
01ee4     00 2A 5D F2 | 	cmps	local01, #0 wcz
01ee8     14 00 90 ED |  if_be	jmp	#LR__0118
01eec     60 8C 04 F1 | 	add	fp, #96
01ef0     46 2A 01 FB | 	rdlong	local01, fp
01ef4     01 2A 85 F1 | 	sub	local01, #1
01ef8     46 2A 61 FC | 	wrlong	local01, fp
01efc     60 8C 84 F1 | 	sub	fp, #96
01f00                 | LR__0118
01f00     64 8C 04 F1 | 	add	fp, #100
01f04     46 2A 01 FB | 	rdlong	local01, fp
01f08     64 8C 84 F1 | 	sub	fp, #100
01f0c     40 2A 5D F2 | 	cmps	local01, #64 wcz
01f10     14 00 90 1D |  if_a	jmp	#LR__0119
01f14     64 8C 04 F1 | 	add	fp, #100
01f18     46 2C 01 FB | 	rdlong	local02, fp
01f1c     64 8C 84 F1 | 	sub	fp, #100
01f20     96 2E 09 F6 | 	mov	local03, local02 wz
01f24     0C 00 90 5D |  if_ne	jmp	#LR__0120
01f28                 | LR__0119
01f28     64 8C 04 F1 | 	add	fp, #100
01f2c     46 80 68 FC | 	wrlong	#64, fp
01f30     64 8C 84 F1 | 	sub	fp, #100
01f34                 | LR__0120
01f34     68 8C 04 F1 | 	add	fp, #104
01f38     46 2A 01 FB | 	rdlong	local01, fp
01f3c     68 8C 84 F1 | 	sub	fp, #104
01f40     03 2A 0D F2 | 	cmp	local01, #3 wz
01f44     10 00 90 5D |  if_ne	jmp	#LR__0121
01f48     68 8C 04 F1 | 	add	fp, #104
01f4c     46 00 68 FC | 	wrlong	#0, fp
01f50     68 8C 84 F1 | 	sub	fp, #104
01f54     30 00 90 FD | 	jmp	#LR__0123
01f58                 | LR__0121
01f58     0C 8C 04 F1 | 	add	fp, #12
01f5c     46 2A 01 FB | 	rdlong	local01, fp
01f60     0C 8C 84 F1 | 	sub	fp, #12
01f64     00 2A 5D F2 | 	cmps	local01, #0 wcz
01f68     1C 00 90 3D |  if_ae	jmp	#LR__0122
01f6c     68 8C 04 F1 | 	add	fp, #104
01f70     46 08 68 FC | 	wrlong	#4, fp
01f74     5C 8C 84 F1 | 	sub	fp, #92
01f78     46 2A 01 FB | 	rdlong	local01, fp
01f7c     95 2A 61 F6 | 	neg	local01, local01
01f80     46 2A 61 FC | 	wrlong	local01, fp
01f84     0C 8C 84 F1 | 	sub	fp, #12
01f88                 | LR__0122
01f88                 | LR__0123
01f88     68 8C 04 F1 | 	add	fp, #104
01f8c     46 2A 09 FB | 	rdlong	local01, fp wz
01f90     68 8C 84 F1 | 	sub	fp, #104
01f94     08 01 90 AD |  if_e	jmp	#LR__0132
01f98     5C 8C 04 F1 | 	add	fp, #92
01f9c     46 2E 01 FB | 	rdlong	local03, fp
01fa0     01 2E 05 F1 | 	add	local03, #1
01fa4     46 2E 61 FC | 	wrlong	local03, fp
01fa8     04 8C 04 F1 | 	add	fp, #4
01fac     46 30 01 FB | 	rdlong	local04, fp
01fb0     04 8C 04 F1 | 	add	fp, #4
01fb4     46 2C 01 FB | 	rdlong	local02, fp
01fb8     64 8C 84 F1 | 	sub	fp, #100
01fbc     96 2E 01 F6 | 	mov	local03, local02
01fc0     97 30 09 F2 | 	cmp	local04, local03 wz
01fc4     40 00 90 5D |  if_ne	jmp	#LR__0125
01fc8     60 8C 04 F1 | 	add	fp, #96
01fcc     46 2C 01 FB | 	rdlong	local02, fp
01fd0     96 2E 01 F6 | 	mov	local03, local02
01fd4     01 2E 85 F1 | 	sub	local03, #1
01fd8     46 2E 61 FC | 	wrlong	local03, fp
01fdc     97 30 09 F6 | 	mov	local04, local03 wz
01fe0     60 8C 84 F1 | 	sub	fp, #96
01fe4     20 00 90 5D |  if_ne	jmp	#LR__0124
01fe8     04 8C 04 F1 | 	add	fp, #4
01fec     46 20 01 FB | 	rdlong	arg01, fp
01ff0     04 8C 04 F1 | 	add	fp, #4
01ff4     46 22 01 FB | 	rdlong	arg02, fp
01ff8     08 8C 84 F1 | 	sub	fp, #8
01ffc     23 24 05 F6 | 	mov	arg03, #35
02000     F4 FC BF FD | 	call	#__system___fmtchar
02004     84 01 90 FD | 	jmp	#LR__0137
02008                 | LR__0124
02008                 | LR__0125
02008     68 8C 04 F1 | 	add	fp, #104
0200c     46 2A 01 FB | 	rdlong	local01, fp
02010     68 8C 84 F1 | 	sub	fp, #104
02014     95 32 01 F6 | 	mov	local05, local01
02018     01 32 85 F1 | 	sub	local05, #1
0201c     04 32 25 F3 | 	fle	local05, #4
02020     30 32 61 FD | 	jmprel	local05
02024                 | LR__0126
02024     30 00 90 FD | 	jmp	#LR__0129
02028     0C 00 90 FD | 	jmp	#LR__0127
0202c     28 00 90 FD | 	jmp	#LR__0128
02030     44 00 90 FD | 	jmp	#LR__0130
02034     20 00 90 FD | 	jmp	#LR__0128
02038                 | LR__0127
02038     58 8C 04 F1 | 	add	fp, #88
0203c     46 30 01 FB | 	rdlong	local04, fp
02040     98 2C 01 F6 | 	mov	local02, local04
02044     01 2C 05 F1 | 	add	local02, #1
02048     46 2C 61 FC | 	wrlong	local02, fp
0204c     58 8C 84 F1 | 	sub	fp, #88
02050     98 40 48 FC | 	wrbyte	#32, local04
02054     48 00 90 FD | 	jmp	#LR__0131
02058                 | LR__0128
02058                 | LR__0129
02058     58 8C 04 F1 | 	add	fp, #88
0205c     46 30 01 FB | 	rdlong	local04, fp
02060     98 2C 01 F6 | 	mov	local02, local04
02064     01 2C 05 F1 | 	add	local02, #1
02068     46 2C 61 FC | 	wrlong	local02, fp
0206c     58 8C 84 F1 | 	sub	fp, #88
02070     98 56 48 FC | 	wrbyte	#43, local04
02074     28 00 90 FD | 	jmp	#LR__0131
02078                 | LR__0130
02078     58 8C 04 F1 | 	add	fp, #88
0207c     46 2E 01 FB | 	rdlong	local03, fp
02080     97 30 01 F6 | 	mov	local04, local03
02084     97 34 01 F6 | 	mov	local06, local03
02088     9A 2C 01 F6 | 	mov	local02, local06
0208c     01 2C 05 F1 | 	add	local02, #1
02090     46 2C 61 FC | 	wrlong	local02, fp
02094     58 8C 84 F1 | 	sub	fp, #88
02098     2D 36 05 F6 | 	mov	local07, #45
0209c     98 5A 48 FC | 	wrbyte	#45, local04
020a0                 | LR__0131
020a0                 | LR__0132
020a0     58 8C 04 F1 | 	add	fp, #88
020a4     46 20 01 FB | 	rdlong	arg01, fp
020a8     4C 8C 84 F1 | 	sub	fp, #76
020ac     46 22 01 FB | 	rdlong	arg02, fp
020b0     04 8C 04 F1 | 	add	fp, #4
020b4     46 24 01 FB | 	rdlong	arg03, fp
020b8     50 8C 04 F1 | 	add	fp, #80
020bc     46 26 01 FB | 	rdlong	arg04, fp
020c0     00 38 05 F6 | 	mov	local08, #0
020c4     58 8C 84 F1 | 	sub	fp, #88
020c8     46 3A 01 FB | 	rdlong	local09, fp
020cc     08 8C 84 F1 | 	sub	fp, #8
020d0     1D 3A 2D F4 | 	testbn	local09, #29 wz
020d4     01 38 05 56 |  if_ne	mov	local08, #1
020d8     9C 28 01 F6 | 	mov	arg05, local08
020dc     54 26 B0 FD | 	call	#__system___uitoa
020e0     80 3C 01 F6 | 	mov	local10, result1
020e4     5C 8C 04 F1 | 	add	fp, #92
020e8     46 2A 01 FB | 	rdlong	local01, fp
020ec     9E 2A 01 F1 | 	add	local01, local10
020f0     46 2A 61 FC | 	wrlong	local01, fp
020f4     08 8C 04 F1 | 	add	fp, #8
020f8     46 2E 01 FB | 	rdlong	local03, fp
020fc     64 8C 84 F1 | 	sub	fp, #100
02100     97 2A 59 F2 | 	cmps	local01, local03 wcz
02104     64 00 90 ED |  if_be	jmp	#LR__0136
02108     34 DF 9F FE | 	loc	pa,	#(@LR__0134-@LR__0133)
0210c     35 00 A0 FD | 	call	#FCACHE_LOAD_
02110                 | LR__0133
02110     64 8C 04 F1 | 	add	fp, #100
02114     46 2A 01 FB | 	rdlong	local01, fp
02118     95 2E 01 F6 | 	mov	local03, local01
0211c     01 2E 85 F1 | 	sub	local03, #1
02120     46 2E 61 FC | 	wrlong	local03, fp
02124     64 8C 84 F1 | 	sub	fp, #100
02128     00 2A 5D F2 | 	cmps	local01, #0 wcz
0212c     20 00 90 ED |  if_be	jmp	#LR__0135
02130     58 8C 04 F1 | 	add	fp, #88
02134     46 2A 01 FB | 	rdlong	local01, fp
02138     95 2E 01 F6 | 	mov	local03, local01
0213c     01 2E 05 F1 | 	add	local03, #1
02140     46 2E 61 FC | 	wrlong	local03, fp
02144     58 8C 84 F1 | 	sub	fp, #88
02148     95 46 48 FC | 	wrbyte	#35, local01
0214c     C0 FF 9F FD | 	jmp	#LR__0133
02150                 | LR__0134
02150                 | LR__0135
02150     58 8C 04 F1 | 	add	fp, #88
02154     46 2A 01 FB | 	rdlong	local01, fp
02158     95 2E 01 F6 | 	mov	local03, local01
0215c     01 2E 05 F1 | 	add	local03, #1
02160     46 2E 61 FC | 	wrlong	local03, fp
02164     58 8C 84 F1 | 	sub	fp, #88
02168     95 00 48 FC | 	wrbyte	#0, local01
0216c                 | LR__0136
0216c     04 8C 04 F1 | 	add	fp, #4
02170     46 20 01 FB | 	rdlong	arg01, fp
02174     04 8C 04 F1 | 	add	fp, #4
02178     46 22 01 FB | 	rdlong	arg02, fp
0217c     0C 8C 04 F1 | 	add	fp, #12
02180     46 24 01 F6 | 	mov	arg03, fp
02184     14 8C 84 F1 | 	sub	fp, #20
02188     CC FB BF FD | 	call	#__system___fmtstr
0218c                 | LR__0137
0218c     46 F0 03 F6 | 	mov	ptra, fp
02190     5A 00 A0 FD | 	call	#popregs_
02194                 | __system___fmtnum_ret
02194     2D 00 64 FD | 	ret
02198                 | 
02198                 | __system___fmtfloat
02198     11 88 04 F6 | 	mov	COUNT_, #17
0219c     4B 00 A0 FD | 	call	#pushregs_
021a0     E0 F0 07 F1 | 	add	ptra, #224
021a4     04 8C 04 F1 | 	add	fp, #4
021a8     46 20 61 FC | 	wrlong	arg01, fp
021ac     04 8C 04 F1 | 	add	fp, #4
021b0     46 22 61 FC | 	wrlong	arg02, fp
021b4     04 8C 04 F1 | 	add	fp, #4
021b8     46 24 61 FC | 	wrlong	arg03, fp
021bc     04 8C 04 F1 | 	add	fp, #4
021c0     46 26 61 FC | 	wrlong	arg04, fp
021c4     0C 8C 04 F1 | 	add	fp, #12
021c8     46 14 68 FC | 	wrlong	#10, fp
021cc     08 8C 04 F1 | 	add	fp, #8
021d0     46 00 68 FC | 	wrlong	#0, fp
021d4     08 8C 04 F1 | 	add	fp, #8
021d8     46 00 68 FC | 	wrlong	#0, fp
021dc     08 8C 04 F1 | 	add	fp, #8
021e0     46 00 68 FC | 	wrlong	#0, fp
021e4     04 8C 04 F1 | 	add	fp, #4
021e8     46 04 68 FC | 	wrlong	#2, fp
021ec     04 8C 04 F1 | 	add	fp, #4
021f0     46 00 68 FC | 	wrlong	#0, fp
021f4     04 8C 04 F1 | 	add	fp, #4
021f8     46 00 68 FC | 	wrlong	#0, fp
021fc     04 8C 04 F1 | 	add	fp, #4
02200     46 00 68 FC | 	wrlong	#0, fp
02204     04 8C 04 F1 | 	add	fp, #4
02208     46 00 68 FC | 	wrlong	#0, fp
0220c     18 8C 04 F1 | 	add	fp, #24
02210     46 00 68 FC | 	wrlong	#0, fp
02214     60 8C 04 F1 | 	add	fp, #96
02218     46 F0 63 FC | 	wrlong	ptra, fp
0221c     F8 2B 01 F6 | 	mov	local01, ptra
02220     04 8C 04 F1 | 	add	fp, #4
02224     46 2A 61 FC | 	wrlong	local01, fp
02228     BC 8C 84 F1 | 	sub	fp, #188
0222c     46 2C 01 FB | 	rdlong	local02, fp
02230     10 2C 45 F0 | 	shr	local02, #16
02234     3F 2C 05 F5 | 	and	local02, #63
02238     B0 8C 04 F1 | 	add	fp, #176
0223c     46 2C 61 FC | 	wrlong	local02, fp
02240     B0 8C 84 F1 | 	sub	fp, #176
02244     46 2C 01 FB | 	rdlong	local02, fp
02248     1C 2C 45 F0 | 	shr	local02, #28
0224c     01 2C 05 F5 | 	and	local02, #1
02250     C4 8C 04 F1 | 	add	fp, #196
02254     46 2C 61 FC | 	wrlong	local02, fp
02258     14 8C 84 F1 | 	sub	fp, #20
0225c     46 2C 09 FB | 	rdlong	local02, fp wz
02260     B8 8C 84 F1 | 	sub	fp, #184
02264     44 F0 07 F1 | 	add	ptra, #68
02268     3C 00 90 5D |  if_ne	jmp	#LR__0139
0226c     10 8C 04 F1 | 	add	fp, #16
02270     46 2C 01 FB | 	rdlong	local02, fp
02274     10 8C 84 F1 | 	sub	fp, #16
02278     61 2C 0D F2 | 	cmp	local02, #97 wz
0227c     18 00 90 5D |  if_ne	jmp	#LR__0138
02280     B8 8C 04 F1 | 	add	fp, #184
02284     46 1A 68 FC | 	wrlong	#13, fp
02288     84 8C 84 F1 | 	sub	fp, #132
0228c     46 02 68 FC | 	wrlong	#1, fp
02290     34 8C 84 F1 | 	sub	fp, #52
02294     24 00 90 FD | 	jmp	#LR__0140
02298                 | LR__0138
02298     B8 8C 04 F1 | 	add	fp, #184
0229c     46 0C 68 FC | 	wrlong	#6, fp
022a0     B8 8C 84 F1 | 	sub	fp, #184
022a4     14 00 90 FD | 	jmp	#LR__0140
022a8                 | LR__0139
022a8     B8 8C 04 F1 | 	add	fp, #184
022ac     46 2C 01 FB | 	rdlong	local02, fp
022b0     01 2C 85 F1 | 	sub	local02, #1
022b4     46 2C 61 FC | 	wrlong	local02, fp
022b8     B8 8C 84 F1 | 	sub	fp, #184
022bc                 | LR__0140
022bc     08 8C 04 F1 | 	add	fp, #8
022c0     46 2C 01 FB | 	rdlong	local02, fp
022c4     16 2C 45 F0 | 	shr	local02, #22
022c8     03 2C 05 F5 | 	and	local02, #3
022cc     C0 8C 04 F1 | 	add	fp, #192
022d0     46 2C 61 FC | 	wrlong	local02, fp
022d4     C0 8C 84 F1 | 	sub	fp, #192
022d8     46 2C 01 FB | 	rdlong	local02, fp
022dc     1D 2C 45 F0 | 	shr	local02, #29
022e0     01 2C 05 F5 | 	and	local02, #1
022e4     B4 8C 04 F1 | 	add	fp, #180
022e8     46 2C 61 FC | 	wrlong	local02, fp
022ec     B4 8C 84 F1 | 	sub	fp, #180
022f0     46 2C 01 FB | 	rdlong	local02, fp
022f4     08 2C 45 F0 | 	shr	local02, #8
022f8     FF 2C 05 F5 | 	and	local02, #255
022fc     60 8C 04 F1 | 	add	fp, #96
02300     46 2C 61 FC | 	wrlong	local02, fp
02304     60 8C 84 F1 | 	sub	fp, #96
02308     46 2C 01 FB | 	rdlong	local02, fp
0230c     FF 2C 05 F5 | 	and	local02, #255
02310     64 8C 04 F1 | 	add	fp, #100
02314     46 2C 61 FC | 	wrlong	local02, fp
02318     00 2C 05 F6 | 	mov	local02, #0
0231c     5C 8C 84 F1 | 	sub	fp, #92
02320     46 2A 01 FB | 	rdlong	local01, fp
02324     65 2A 0D F2 | 	cmp	local01, #101 wz
02328     01 2C 05 A6 |  if_e	mov	local02, #1
0232c     14 8C 04 F1 | 	add	fp, #20
02330     46 2C 61 FC | 	wrlong	local02, fp
02334     98 8C 04 F1 | 	add	fp, #152
02338     46 2A 09 FB | 	rdlong	local01, fp wz
0233c     45 2C 05 56 |  if_ne	mov	local02, #69
02340     65 2C 05 A6 |  if_e	mov	local02, #101
02344     8C 8C 84 F1 | 	sub	fp, #140
02348     46 2C 61 FC | 	wrlong	local02, fp
0234c     20 8C 84 F1 | 	sub	fp, #32
02350     46 2C 01 FB | 	rdlong	local02, fp
02354     10 8C 84 F1 | 	sub	fp, #16
02358     61 2C 0D F2 | 	cmp	local02, #97 wz
0235c     4C 00 90 5D |  if_ne	jmp	#LR__0141
02360     24 8C 04 F1 | 	add	fp, #36
02364     46 02 68 FC | 	wrlong	#1, fp
02368     98 8C 04 F1 | 	add	fp, #152
0236c     46 2A 09 FB | 	rdlong	local01, fp wz
02370     50 2C 05 56 |  if_ne	mov	local02, #80
02374     70 2C 05 A6 |  if_e	mov	local02, #112
02378     8C 8C 84 F1 | 	sub	fp, #140
0237c     46 2C 61 FC | 	wrlong	local02, fp
02380     14 8C 84 F1 | 	sub	fp, #20
02384     46 04 68 FC | 	wrlong	#2, fp
02388     1C 8C 04 F1 | 	add	fp, #28
0238c     46 02 68 FC | 	wrlong	#1, fp
02390     84 8C 04 F1 | 	add	fp, #132
02394     46 2A 09 FB | 	rdlong	local01, fp wz
02398     58 2C 05 56 |  if_ne	mov	local02, #88
0239c     78 2C 05 A6 |  if_e	mov	local02, #120
023a0     7C 8C 84 F1 | 	sub	fp, #124
023a4     46 2C 61 FC | 	wrlong	local02, fp
023a8     40 8C 84 F1 | 	sub	fp, #64
023ac                 | LR__0141
023ac     10 8C 04 F1 | 	add	fp, #16
023b0     46 2C 01 FB | 	rdlong	local02, fp
023b4     10 8C 84 F1 | 	sub	fp, #16
023b8     23 2C 0D F2 | 	cmp	local02, #35 wz
023bc     3C 00 90 5D |  if_ne	jmp	#LR__0144
023c0     48 8C 04 F1 | 	add	fp, #72
023c4     46 02 68 FC | 	wrlong	#1, fp
023c8     84 8C 04 F1 | 	add	fp, #132
023cc     46 2C 09 FB | 	rdlong	local02, fp wz
023d0     CC 8C 84 F1 | 	sub	fp, #204
023d4     18 00 90 AD |  if_e	jmp	#LR__0142
023d8     10 8C 04 F1 | 	add	fp, #16
023dc     46 CC 68 FC | 	wrlong	#102, fp
023e0     BC 8C 04 F1 | 	add	fp, #188
023e4     46 00 68 FC | 	wrlong	#0, fp
023e8     CC 8C 84 F1 | 	sub	fp, #204
023ec     0C 00 90 FD | 	jmp	#LR__0143
023f0                 | LR__0142
023f0     CC 8C 04 F1 | 	add	fp, #204
023f4     46 02 68 FC | 	wrlong	#1, fp
023f8     CC 8C 84 F1 | 	sub	fp, #204
023fc                 | LR__0143
023fc                 | LR__0144
023fc     08 8C 04 F1 | 	add	fp, #8
02400     46 2C 01 FB | 	rdlong	local02, fp
02404     1A 2C 45 F0 | 	shr	local02, #26
02408     03 2C 05 F5 | 	and	local02, #3
0240c     5C 8C 04 F1 | 	add	fp, #92
02410     46 2C 61 FC | 	wrlong	local02, fp
02414     58 8C 84 F1 | 	sub	fp, #88
02418     46 00 01 FB | 	rdlong	result1, fp
0241c     0C 8C 84 F1 | 	sub	fp, #12
02420     1F 00 4D F0 | 	shr	result1, #31 wz
02424     20 00 90 AD |  if_e	jmp	#LR__0145
02428     2C 8C 04 F1 | 	add	fp, #44
0242c     46 5A 68 FC | 	wrlong	#45, fp
02430     20 8C 84 F1 | 	sub	fp, #32
02434     46 00 01 FB | 	rdlong	result1, fp
02438     1F 00 E5 F4 | 	bitnot	result1, #31
0243c     46 00 61 FC | 	wrlong	result1, fp
02440     0C 8C 84 F1 | 	sub	fp, #12
02444     40 00 90 FD | 	jmp	#LR__0148
02448                 | LR__0145
02448     64 8C 04 F1 | 	add	fp, #100
0244c     46 2C 01 FB | 	rdlong	local02, fp
02450     64 8C 84 F1 | 	sub	fp, #100
02454     01 2C 0D F2 | 	cmp	local02, #1 wz
02458     10 00 90 5D |  if_ne	jmp	#LR__0146
0245c     2C 8C 04 F1 | 	add	fp, #44
02460     46 56 68 FC | 	wrlong	#43, fp
02464     2C 8C 84 F1 | 	sub	fp, #44
02468     1C 00 90 FD | 	jmp	#LR__0147
0246c                 | LR__0146
0246c     64 8C 04 F1 | 	add	fp, #100
02470     46 2C 01 FB | 	rdlong	local02, fp
02474     64 8C 84 F1 | 	sub	fp, #100
02478     02 2C 0D F2 | 	cmp	local02, #2 wz
0247c     2C 8C 04 A1 |  if_e	add	fp, #44
02480     46 40 68 AC |  if_e	wrlong	#32, fp
02484     2C 8C 84 A1 |  if_e	sub	fp, #44
02488                 | LR__0147
02488                 | LR__0148
02488     08 8C 04 F1 | 	add	fp, #8
0248c     46 2C 01 FB | 	rdlong	local02, fp
02490     18 2C 45 F0 | 	shr	local02, #24
02494     03 2C 05 F5 | 	and	local02, #3
02498     3C 8C 04 F1 | 	add	fp, #60
0249c     46 2C 61 FC | 	wrlong	local02, fp
024a0     00 2C 05 F6 | 	mov	local02, #0
024a4     18 8C 84 F1 | 	sub	fp, #24
024a8     46 2E 01 FB | 	rdlong	local03, fp
024ac     2C 8C 84 F1 | 	sub	fp, #44
024b0     97 2A 09 F6 | 	mov	local01, local03 wz
024b4     18 00 90 5D |  if_ne	jmp	#LR__0149
024b8     1C 8C 04 F1 | 	add	fp, #28
024bc     46 30 01 FB | 	rdlong	local04, fp
024c0     1C 8C 84 F1 | 	sub	fp, #28
024c4     98 32 01 F6 | 	mov	local05, local04
024c8     0A 32 0D F2 | 	cmp	local05, #10 wz
024cc     04 00 90 AD |  if_e	jmp	#LR__0150
024d0                 | LR__0149
024d0     01 2C 65 F5 | 	xor	local02, #1
024d4                 | LR__0150
024d4     3C 8C 04 F1 | 	add	fp, #60
024d8     46 2C 61 FC | 	wrlong	local02, fp
024dc     96 2C 09 F6 | 	mov	local02, local02 wz
024e0     3C 8C 84 F1 | 	sub	fp, #60
024e4     24 01 90 AD |  if_e	jmp	#LR__0153
024e8     44 8C 04 F1 | 	add	fp, #68
024ec     46 2E 01 FB | 	rdlong	local03, fp
024f0     44 8C 84 F1 | 	sub	fp, #68
024f4     02 2E 0D F2 | 	cmp	local03, #2 wz
024f8     10 01 90 5D |  if_ne	jmp	#LR__0153
024fc     C8 8C 04 F1 | 	add	fp, #200
02500     46 34 01 FB | 	rdlong	local06, fp
02504     C8 8C 84 F1 | 	sub	fp, #200
02508     9A 30 01 F6 | 	mov	local04, local06
0250c     02 30 0D F2 | 	cmp	local04, #2 wz
02510     F8 00 90 AD |  if_e	jmp	#LR__0153
02514     C0 8C 04 F1 | 	add	fp, #192
02518     46 20 01 FB | 	rdlong	arg01, fp
0251c     94 8C 84 F1 | 	sub	fp, #148
02520     46 22 01 FB | 	rdlong	arg02, fp
02524     14 8C 04 F1 | 	add	fp, #20
02528     46 34 01 FB | 	rdlong	local06, fp
0252c     40 8C 84 F1 | 	sub	fp, #64
02530     9A 30 01 F6 | 	mov	local04, local06
02534     98 24 01 F6 | 	mov	arg03, local04
02538     DC 24 B0 FD | 	call	#__system__emitsign_0188
0253c     80 36 01 F6 | 	mov	local07, result1
02540     D0 8C 04 F1 | 	add	fp, #208
02544     46 36 61 FC | 	wrlong	local07, fp
02548     9B 2C 01 F6 | 	mov	local02, local07
0254c     D0 8C 84 F1 | 	sub	fp, #208
02550     00 2C 5D F2 | 	cmps	local02, #0 wcz
02554     10 00 90 3D |  if_ae	jmp	#LR__0151
02558     D0 8C 04 F1 | 	add	fp, #208
0255c     46 00 01 FB | 	rdlong	result1, fp
02560     D0 8C 84 F1 | 	sub	fp, #208
02564     68 0C 90 FD | 	jmp	#LR__0209
02568                 | LR__0151
02568     C0 8C 04 F1 | 	add	fp, #192
0256c     46 2C 01 FB | 	rdlong	local02, fp
02570     10 8C 04 F1 | 	add	fp, #16
02574     46 32 01 FB | 	rdlong	local05, fp
02578     99 2E 01 F6 | 	mov	local03, local05
0257c     99 2C 01 F1 | 	add	local02, local05
02580     10 8C 84 F1 | 	sub	fp, #16
02584     46 2C 61 FC | 	wrlong	local02, fp
02588     58 8C 84 F1 | 	sub	fp, #88
0258c     46 2A 09 FB | 	rdlong	local01, fp wz
02590     68 8C 84 F1 | 	sub	fp, #104
02594     64 00 90 AD |  if_e	jmp	#LR__0152
02598     68 8C 04 F1 | 	add	fp, #104
0259c     46 2C 01 FB | 	rdlong	local02, fp
025a0     68 8C 04 F1 | 	add	fp, #104
025a4     46 2E 01 FB | 	rdlong	local03, fp
025a8     97 2C 81 F1 | 	sub	local02, local03
025ac     68 8C 84 F1 | 	sub	fp, #104
025b0     46 2C 61 FC | 	wrlong	local02, fp
025b4     68 8C 84 F1 | 	sub	fp, #104
025b8     00 2C 5D F2 | 	cmps	local02, #0 wcz
025bc     68 8C 04 C1 |  if_b	add	fp, #104
025c0     46 00 68 CC |  if_b	wrlong	#0, fp
025c4     68 8C 84 C1 |  if_b	sub	fp, #104
025c8     08 8C 04 F1 | 	add	fp, #8
025cc     46 2A 01 FB | 	rdlong	local01, fp
025d0     E8 2A 05 F4 | 	bitl	local01, #232
025d4     46 2A 61 FC | 	wrlong	local01, fp
025d8     95 2C 01 F6 | 	mov	local02, local01
025dc     60 8C 04 F1 | 	add	fp, #96
025e0     46 32 01 FB | 	rdlong	local05, fp
025e4     99 2E 01 F6 | 	mov	local03, local05
025e8     08 2E 65 F0 | 	shl	local03, #8
025ec     97 2C 41 F5 | 	or	local02, local03
025f0     60 8C 84 F1 | 	sub	fp, #96
025f4     46 2C 61 FC | 	wrlong	local02, fp
025f8     08 8C 84 F1 | 	sub	fp, #8
025fc                 | LR__0152
025fc     00 2C 05 F6 | 	mov	local02, #0
02600     3C 8C 04 F1 | 	add	fp, #60
02604     46 00 68 FC | 	wrlong	#0, fp
02608     3C 8C 84 F1 | 	sub	fp, #60
0260c                 | LR__0153
0260c     0C 8C 04 F1 | 	add	fp, #12
02610     46 20 01 FB | 	rdlong	arg01, fp
02614     0C 8C 84 F1 | 	sub	fp, #12
02618     EC 15 B0 FD | 	call	#__system____builtin_ilogb
0261c     FF FF 3F FF 
02620     FF 01 0D F2 | 	cmp	result1, ##2147483647 wz
02624     64 00 90 5D |  if_ne	jmp	#LR__0155
02628     C0 8C 04 F1 | 	add	fp, #192
0262c     46 F0 63 FC | 	wrlong	ptra, fp
02630     04 8C 04 F1 | 	add	fp, #4
02634     46 F0 63 FC | 	wrlong	ptra, fp
02638     98 8C 84 F1 | 	sub	fp, #152
0263c     46 2C 09 FB | 	rdlong	local02, fp wz
02640     2C 8C 84 F1 | 	sub	fp, #44
02644     08 F0 07 F1 | 	add	ptra, #8
02648     24 00 90 AD |  if_e	jmp	#LR__0154
0264c     C0 8C 04 F1 | 	add	fp, #192
02650     46 2C 01 FB | 	rdlong	local02, fp
02654     96 2E 01 F6 | 	mov	local03, local02
02658     01 2E 05 F1 | 	add	local03, #1
0265c     46 2E 61 FC | 	wrlong	local03, fp
02660     94 8C 84 F1 | 	sub	fp, #148
02664     46 30 01 FB | 	rdlong	local04, fp
02668     2C 8C 84 F1 | 	sub	fp, #44
0266c     96 30 41 FC | 	wrbyte	local04, local02
02670                 | LR__0154
02670     C0 8C 04 F1 | 	add	fp, #192
02674     46 20 01 FB | 	rdlong	arg01, fp
02678     C0 8C 84 F1 | 	sub	fp, #192
0267c     26 00 00 FF 
02680     6C 22 05 F6 | 	mov	arg02, ##@LR__0374
02684     E4 F4 BF FD | 	call	#__system____builtin_strcpy
02688     54 09 90 FD | 	jmp	#LR__0197
0268c                 | LR__0155
0268c     0C 8C 04 F1 | 	add	fp, #12
02690     46 20 01 FB | 	rdlong	arg01, fp
02694     0C 8C 84 F1 | 	sub	fp, #12
02698     6C 15 B0 FD | 	call	#__system____builtin_ilogb
0269c     00 00 40 FF 
026a0     00 00 0D F2 | 	cmp	result1, ##-2147483648 wz
026a4     64 00 90 5D |  if_ne	jmp	#LR__0157
026a8     C0 8C 04 F1 | 	add	fp, #192
026ac     46 F0 63 FC | 	wrlong	ptra, fp
026b0     04 8C 04 F1 | 	add	fp, #4
026b4     46 F0 63 FC | 	wrlong	ptra, fp
026b8     98 8C 84 F1 | 	sub	fp, #152
026bc     46 2C 09 FB | 	rdlong	local02, fp wz
026c0     2C 8C 84 F1 | 	sub	fp, #44
026c4     08 F0 07 F1 | 	add	ptra, #8
026c8     24 00 90 AD |  if_e	jmp	#LR__0156
026cc     C0 8C 04 F1 | 	add	fp, #192
026d0     46 2C 01 FB | 	rdlong	local02, fp
026d4     96 2E 01 F6 | 	mov	local03, local02
026d8     01 2E 05 F1 | 	add	local03, #1
026dc     46 2E 61 FC | 	wrlong	local03, fp
026e0     94 8C 84 F1 | 	sub	fp, #148
026e4     46 30 01 FB | 	rdlong	local04, fp
026e8     2C 8C 84 F1 | 	sub	fp, #44
026ec     96 30 41 FC | 	wrbyte	local04, local02
026f0                 | LR__0156
026f0     C0 8C 04 F1 | 	add	fp, #192
026f4     46 20 01 FB | 	rdlong	arg01, fp
026f8     C0 8C 84 F1 | 	sub	fp, #192
026fc     26 00 00 FF 
02700     70 22 05 F6 | 	mov	arg02, ##@LR__0375
02704     64 F4 BF FD | 	call	#__system____builtin_strcpy
02708     D4 08 90 FD | 	jmp	#LR__0197
0270c                 | LR__0157
0270c     10 8C 04 F1 | 	add	fp, #16
02710     46 2A 01 FB | 	rdlong	local01, fp
02714     10 8C 84 F1 | 	sub	fp, #16
02718     67 2A 0D F2 | 	cmp	local01, #103 wz
0271c     18 00 90 AD |  if_e	jmp	#LR__0158
02720     10 8C 04 F1 | 	add	fp, #16
02724     46 32 01 FB | 	rdlong	local05, fp
02728     10 8C 84 F1 | 	sub	fp, #16
0272c     99 2E 01 F6 | 	mov	local03, local05
02730     23 2E 0D F2 | 	cmp	local03, #35 wz
02734     AC 01 90 5D |  if_ne	jmp	#LR__0164
02738                 | LR__0158
02738     0C 8C 04 F1 | 	add	fp, #12
0273c     46 20 01 FB | 	rdlong	arg01, fp
02740     08 8C 04 F1 | 	add	fp, #8
02744     46 22 01 F6 | 	mov	arg02, fp
02748     0C 8C 04 F1 | 	add	fp, #12
0274c     46 30 01 F6 | 	mov	local04, fp
02750     98 24 01 F6 | 	mov	arg03, local04
02754     98 8C 04 F1 | 	add	fp, #152
02758     46 26 01 FB | 	rdlong	arg04, fp
0275c     9C 8C 84 F1 | 	sub	fp, #156
02760     46 28 01 FB | 	rdlong	arg05, fp
02764     1C 8C 84 F1 | 	sub	fp, #28
02768     58 20 B0 FD | 	call	#__system__disassemble_0186
0276c     10 8C 04 F1 | 	add	fp, #16
02770     46 2C 01 FB | 	rdlong	local02, fp
02774     10 8C 84 F1 | 	sub	fp, #16
02778     23 2C 0D F2 | 	cmp	local02, #35 wz
0277c     A4 00 90 5D |  if_ne	jmp	#LR__0161
02780     20 8C 04 F1 | 	add	fp, #32
02784     46 2C 01 FB | 	rdlong	local02, fp
02788     98 8C 04 F1 | 	add	fp, #152
0278c     46 2E 01 FB | 	rdlong	local03, fp
02790     B8 8C 84 F1 | 	sub	fp, #184
02794     97 2C 59 F2 | 	cmps	local02, local03 wcz
02798     10 00 90 ED |  if_be	jmp	#LR__0159
0279c     24 8C 04 F1 | 	add	fp, #36
027a0     46 02 68 FC | 	wrlong	#1, fp
027a4     24 8C 84 F1 | 	sub	fp, #36
027a8     B8 01 90 FD | 	jmp	#LR__0167
027ac                 | LR__0159
027ac     20 8C 04 F1 | 	add	fp, #32
027b0     46 2C 01 FB | 	rdlong	local02, fp
027b4     20 8C 84 F1 | 	sub	fp, #32
027b8     00 2C 5D F2 | 	cmps	local02, #0 wcz
027bc     2C 00 90 3D |  if_ae	jmp	#LR__0160
027c0     B8 8C 04 F1 | 	add	fp, #184
027c4     46 2C 01 FB | 	rdlong	local02, fp
027c8     96 2C 61 F6 | 	neg	local02, local02
027cc     98 8C 84 F1 | 	sub	fp, #152
027d0     46 2E 01 FB | 	rdlong	local03, fp
027d4     20 8C 84 F1 | 	sub	fp, #32
027d8     96 2E 59 F2 | 	cmps	local03, local02 wcz
027dc     24 8C 04 E1 |  if_be	add	fp, #36
027e0     46 02 68 EC |  if_be	wrlong	#1, fp
027e4     24 8C 84 E1 |  if_be	sub	fp, #36
027e8     78 01 90 FD | 	jmp	#LR__0167
027ec                 | LR__0160
027ec     20 8C 04 F1 | 	add	fp, #32
027f0     46 2C 01 FB | 	rdlong	local02, fp
027f4     20 8C 84 F1 | 	sub	fp, #32
027f8     00 2C 5D F2 | 	cmps	local02, #0 wcz
027fc     64 01 90 ED |  if_be	jmp	#LR__0167
02800     B8 8C 04 F1 | 	add	fp, #184
02804     46 2C 01 FB | 	rdlong	local02, fp
02808     98 8C 84 F1 | 	sub	fp, #152
0280c     46 2E 01 FB | 	rdlong	local03, fp
02810     97 2C 81 F1 | 	sub	local02, local03
02814     98 8C 04 F1 | 	add	fp, #152
02818     46 2C 61 FC | 	wrlong	local02, fp
0281c     B8 8C 84 F1 | 	sub	fp, #184
02820     40 01 90 FD | 	jmp	#LR__0167
02824                 | LR__0161
02824     00 2C 05 F6 | 	mov	local02, #0
02828     08 8C 04 F1 | 	add	fp, #8
0282c     46 2A 01 FB | 	rdlong	local01, fp
02830     1C 2A 45 F0 | 	shr	local01, #28
02834     01 2A CD F7 | 	test	local01, #1 wz
02838     01 2C 05 A6 |  if_e	mov	local02, #1
0283c     2C 8C 04 F1 | 	add	fp, #44
02840     46 2C 61 FC | 	wrlong	local02, fp
02844     14 8C 84 F1 | 	sub	fp, #20
02848     46 2A 01 FB | 	rdlong	local01, fp
0284c     95 2C 01 F6 | 	mov	local02, local01
02850     98 8C 04 F1 | 	add	fp, #152
02854     46 32 01 FB | 	rdlong	local05, fp
02858     B8 8C 84 F1 | 	sub	fp, #184
0285c     99 2C 59 F2 | 	cmps	local02, local05 wcz
02860     18 00 90 3D |  if_ae	jmp	#LR__0162
02864     20 8C 04 F1 | 	add	fp, #32
02868     46 30 01 FB | 	rdlong	local04, fp
0286c     20 8C 84 F1 | 	sub	fp, #32
02870     FF FF 7F FF 
02874     FC 31 5D F2 | 	cmps	local04, ##-4 wcz
02878     10 00 90 3D |  if_ae	jmp	#LR__0163
0287c                 | LR__0162
0287c     24 8C 04 F1 | 	add	fp, #36
02880     46 02 68 FC | 	wrlong	#1, fp
02884     24 8C 84 F1 | 	sub	fp, #36
02888     D8 00 90 FD | 	jmp	#LR__0167
0288c                 | LR__0163
0288c     B8 8C 04 F1 | 	add	fp, #184
02890     46 2C 01 FB | 	rdlong	local02, fp
02894     98 8C 84 F1 | 	sub	fp, #152
02898     46 2E 01 FB | 	rdlong	local03, fp
0289c     97 2C 81 F1 | 	sub	local02, local03
028a0     98 8C 04 F1 | 	add	fp, #152
028a4     46 2C 61 FC | 	wrlong	local02, fp
028a8     AC 8C 84 F1 | 	sub	fp, #172
028ac     46 20 01 FB | 	rdlong	arg01, fp
028b0     08 8C 04 F1 | 	add	fp, #8
028b4     46 22 01 F6 | 	mov	arg02, fp
028b8     0C 8C 04 F1 | 	add	fp, #12
028bc     46 24 01 F6 | 	mov	arg03, fp
028c0     98 8C 04 F1 | 	add	fp, #152
028c4     46 36 01 FB | 	rdlong	local07, fp
028c8     9B 26 61 F6 | 	neg	arg04, local07
028cc     9C 8C 84 F1 | 	sub	fp, #156
028d0     46 38 01 FB | 	rdlong	local08, fp
028d4     1C 8C 84 F1 | 	sub	fp, #28
028d8     9C 28 01 F6 | 	mov	arg05, local08
028dc     E4 1E B0 FD | 	call	#__system__disassemble_0186
028e0     80 00 90 FD | 	jmp	#LR__0167
028e4                 | LR__0164
028e4     24 8C 04 F1 | 	add	fp, #36
028e8     46 2C 09 FB | 	rdlong	local02, fp wz
028ec     24 8C 84 F1 | 	sub	fp, #36
028f0     34 00 90 AD |  if_e	jmp	#LR__0165
028f4     0C 8C 04 F1 | 	add	fp, #12
028f8     46 20 01 FB | 	rdlong	arg01, fp
028fc     08 8C 04 F1 | 	add	fp, #8
02900     46 22 01 F6 | 	mov	arg02, fp
02904     0C 8C 04 F1 | 	add	fp, #12
02908     46 24 01 F6 | 	mov	arg03, fp
0290c     98 8C 04 F1 | 	add	fp, #152
02910     46 26 01 FB | 	rdlong	arg04, fp
02914     9C 8C 84 F1 | 	sub	fp, #156
02918     46 28 01 FB | 	rdlong	arg05, fp
0291c     1C 8C 84 F1 | 	sub	fp, #28
02920     A0 1E B0 FD | 	call	#__system__disassemble_0186
02924     3C 00 90 FD | 	jmp	#LR__0166
02928                 | LR__0165
02928     0C 8C 04 F1 | 	add	fp, #12
0292c     46 20 01 FB | 	rdlong	arg01, fp
02930     08 8C 04 F1 | 	add	fp, #8
02934     46 22 01 F6 | 	mov	arg02, fp
02938     0C 8C 04 F1 | 	add	fp, #12
0293c     46 24 01 F6 | 	mov	arg03, fp
02940     98 8C 04 F1 | 	add	fp, #152
02944     46 36 01 FB | 	rdlong	local07, fp
02948     01 36 05 F1 | 	add	local07, #1
0294c     9B 26 61 F6 | 	neg	arg04, local07
02950     9C 8C 84 F1 | 	sub	fp, #156
02954     46 38 01 FB | 	rdlong	local08, fp
02958     1C 8C 84 F1 | 	sub	fp, #28
0295c     9C 28 01 F6 | 	mov	arg05, local08
02960     60 1E B0 FD | 	call	#__system__disassemble_0186
02964                 | LR__0166
02964                 | LR__0167
02964     1C 8C 04 F1 | 	add	fp, #28
02968     46 2C 01 FB | 	rdlong	local02, fp
0296c     1C 8C 84 F1 | 	sub	fp, #28
02970     02 2C 0D F2 | 	cmp	local02, #2 wz
02974     4C 00 90 5D |  if_ne	jmp	#LR__0170
02978     1C 8C 04 F1 | 	add	fp, #28
0297c     46 20 68 FC | 	wrlong	#16, fp
02980     1C 8C 84 F1 | 	sub	fp, #28
02984                 | LR__0168
02984     14 8C 04 F1 | 	add	fp, #20
02988     46 2C 09 FB | 	rdlong	local02, fp wz
0298c     14 8C 84 F1 | 	sub	fp, #20
02990     30 00 90 AD |  if_e	jmp	#LR__0169
02994     14 8C 04 F1 | 	add	fp, #20
02998     46 2E 01 FB | 	rdlong	local03, fp
0299c     14 8C 84 F1 | 	sub	fp, #20
029a0     00 80 00 FF 
029a4     00 2E 1D F2 | 	cmp	local03, ##16777216 wcz
029a8     18 00 90 3D |  if_ae	jmp	#LR__0169
029ac     14 8C 04 F1 | 	add	fp, #20
029b0     46 2C 01 FB | 	rdlong	local02, fp
029b4     01 2C 65 F0 | 	shl	local02, #1
029b8     46 2C 61 FC | 	wrlong	local02, fp
029bc     14 8C 84 F1 | 	sub	fp, #20
029c0     C0 FF 9F FD | 	jmp	#LR__0168
029c4                 | LR__0169
029c4                 | LR__0170
029c4     70 8C 04 F1 | 	add	fp, #112
029c8     46 20 01 F6 | 	mov	arg01, fp
029cc     5C 8C 84 F1 | 	sub	fp, #92
029d0     46 22 01 FB | 	rdlong	arg02, fp
029d4     08 8C 04 F1 | 	add	fp, #8
029d8     46 24 01 FB | 	rdlong	arg03, fp
029dc     A0 8C 04 F1 | 	add	fp, #160
029e0     46 28 01 FB | 	rdlong	arg05, fp
029e4     BC 8C 84 F1 | 	sub	fp, #188
029e8     01 26 05 F6 | 	mov	arg04, #1
029ec     44 1D B0 FD | 	call	#__system___uitoa
029f0     58 8C 04 F1 | 	add	fp, #88
029f4     46 00 61 FC | 	wrlong	result1, fp
029f8     38 8C 84 F1 | 	sub	fp, #56
029fc     46 2C 01 FB | 	rdlong	local02, fp
02a00     20 8C 84 F1 | 	sub	fp, #32
02a04     00 2C 5D F2 | 	cmps	local02, #0 wcz
02a08     64 00 90 3D |  if_ae	jmp	#LR__0171
02a0c     60 8C 04 F1 | 	add	fp, #96
02a10     46 5A 68 FC | 	wrlong	#45, fp
02a14     50 8C 04 F1 | 	add	fp, #80
02a18     46 20 01 F6 | 	mov	arg01, fp
02a1c     90 8C 84 F1 | 	sub	fp, #144
02a20     46 2E 01 FB | 	rdlong	local03, fp
02a24     97 30 61 F6 | 	neg	local04, local03
02a28     0A 34 05 F6 | 	mov	local06, #10
02a2c     18 8C 04 F1 | 	add	fp, #24
02a30     46 3A 01 FB | 	rdlong	local09, fp
02a34     9D 36 01 F6 | 	mov	local07, local09
02a38     84 8C 04 F1 | 	add	fp, #132
02a3c     46 3C 01 FB | 	rdlong	local10, fp
02a40     BC 8C 84 F1 | 	sub	fp, #188
02a44     9E 3E 01 F6 | 	mov	local11, local10
02a48     98 22 01 F6 | 	mov	arg02, local04
02a4c     0A 24 05 F6 | 	mov	arg03, #10
02a50     9B 26 01 F6 | 	mov	arg04, local07
02a54     9F 28 01 F6 | 	mov	arg05, local11
02a58     D8 1C B0 FD | 	call	#__system___uitoa
02a5c     80 38 01 F6 | 	mov	local08, result1
02a60     5C 8C 04 F1 | 	add	fp, #92
02a64     46 38 61 FC | 	wrlong	local08, fp
02a68     5C 8C 84 F1 | 	sub	fp, #92
02a6c     54 00 90 FD | 	jmp	#LR__0172
02a70                 | LR__0171
02a70     60 8C 04 F1 | 	add	fp, #96
02a74     46 56 68 FC | 	wrlong	#43, fp
02a78     50 8C 04 F1 | 	add	fp, #80
02a7c     46 20 01 F6 | 	mov	arg01, fp
02a80     90 8C 84 F1 | 	sub	fp, #144
02a84     46 22 01 FB | 	rdlong	arg02, fp
02a88     18 8C 04 F1 | 	add	fp, #24
02a8c     46 36 01 FB | 	rdlong	local07, fp
02a90     9B 34 01 F6 | 	mov	local06, local07
02a94     84 8C 04 F1 | 	add	fp, #132
02a98     46 3E 01 FB | 	rdlong	local11, fp
02a9c     BC 8C 84 F1 | 	sub	fp, #188
02aa0     9F 3A 01 F6 | 	mov	local09, local11
02aa4     0A 24 05 F6 | 	mov	arg03, #10
02aa8     9A 26 01 F6 | 	mov	arg04, local06
02aac     9D 28 01 F6 | 	mov	arg05, local09
02ab0     80 1C B0 FD | 	call	#__system___uitoa
02ab4     80 3C 01 F6 | 	mov	local10, result1
02ab8     5C 8C 04 F1 | 	add	fp, #92
02abc     46 3C 61 FC | 	wrlong	local10, fp
02ac0     5C 8C 84 F1 | 	sub	fp, #92
02ac4                 | LR__0172
02ac4     24 8C 04 F1 | 	add	fp, #36
02ac8     46 2C 09 FB | 	rdlong	local02, fp wz
02acc     24 8C 84 F1 | 	sub	fp, #36
02ad0     2C 00 90 AD |  if_e	jmp	#LR__0173
02ad4     50 8C 04 F1 | 	add	fp, #80
02ad8     46 00 68 FC | 	wrlong	#0, fp
02adc     04 8C 84 F1 | 	sub	fp, #4
02ae0     46 00 68 FC | 	wrlong	#0, fp
02ae4     6C 8C 04 F1 | 	add	fp, #108
02ae8     46 2C 01 FB | 	rdlong	local02, fp
02aec     01 2C 05 F1 | 	add	local02, #1
02af0     64 8C 84 F1 | 	sub	fp, #100
02af4     46 2C 61 FC | 	wrlong	local02, fp
02af8     54 8C 84 F1 | 	sub	fp, #84
02afc     88 00 90 FD | 	jmp	#LR__0176
02b00                 | LR__0173
02b00     20 8C 04 F1 | 	add	fp, #32
02b04     46 2C 01 FB | 	rdlong	local02, fp
02b08     20 8C 84 F1 | 	sub	fp, #32
02b0c     00 2C 5D F2 | 	cmps	local02, #0 wcz
02b10     40 00 90 3D |  if_ae	jmp	#LR__0174
02b14     20 8C 04 F1 | 	add	fp, #32
02b18     46 2A 01 FB | 	rdlong	local01, fp
02b1c     30 8C 04 F1 | 	add	fp, #48
02b20     46 2A 61 FC | 	wrlong	local01, fp
02b24     04 8C 84 F1 | 	sub	fp, #4
02b28     46 2A 61 FC | 	wrlong	local01, fp
02b2c     2C 8C 84 F1 | 	sub	fp, #44
02b30     46 2C 01 FB | 	rdlong	local02, fp
02b34     98 8C 04 F1 | 	add	fp, #152
02b38     46 2E 01 FB | 	rdlong	local03, fp
02b3c     97 2C 01 F1 | 	add	local02, local03
02b40     01 2C 05 F1 | 	add	local02, #1
02b44     64 8C 84 F1 | 	sub	fp, #100
02b48     46 2C 61 FC | 	wrlong	local02, fp
02b4c     54 8C 84 F1 | 	sub	fp, #84
02b50     34 00 90 FD | 	jmp	#LR__0175
02b54                 | LR__0174
02b54     4C 8C 04 F1 | 	add	fp, #76
02b58     46 00 68 FC | 	wrlong	#0, fp
02b5c     2C 8C 84 F1 | 	sub	fp, #44
02b60     46 2C 01 FB | 	rdlong	local02, fp
02b64     30 8C 04 F1 | 	add	fp, #48
02b68     46 2C 61 FC | 	wrlong	local02, fp
02b6c     68 8C 04 F1 | 	add	fp, #104
02b70     46 2E 01 FB | 	rdlong	local03, fp
02b74     97 2C 01 F1 | 	add	local02, local03
02b78     01 2C 05 F1 | 	add	local02, #1
02b7c     64 8C 84 F1 | 	sub	fp, #100
02b80     46 2C 61 FC | 	wrlong	local02, fp
02b84     54 8C 84 F1 | 	sub	fp, #84
02b88                 | LR__0175
02b88                 | LR__0176
02b88     54 8C 04 F1 | 	add	fp, #84
02b8c     46 2C 01 FB | 	rdlong	local02, fp
02b90     08 8C 84 F1 | 	sub	fp, #8
02b94     46 2E 01 FB | 	rdlong	local03, fp
02b98     97 2C 81 F1 | 	sub	local02, local03
02b9c     01 2C 05 F1 | 	add	local02, #1
02ba0     24 8C 84 F1 | 	sub	fp, #36
02ba4     46 2C 61 FC | 	wrlong	local02, fp
02ba8     04 8C 04 F1 | 	add	fp, #4
02bac     46 2C 09 FB | 	rdlong	local02, fp wz
02bb0     2C 8C 84 F1 | 	sub	fp, #44
02bb4     14 00 90 AD |  if_e	jmp	#LR__0177
02bb8     28 8C 04 F1 | 	add	fp, #40
02bbc     46 2E 01 FB | 	rdlong	local03, fp
02bc0     01 2E 05 F1 | 	add	local03, #1
02bc4     46 2E 61 FC | 	wrlong	local03, fp
02bc8     28 8C 84 F1 | 	sub	fp, #40
02bcc                 | LR__0177
02bcc     1C 8C 04 F1 | 	add	fp, #28
02bd0     46 2C 01 FB | 	rdlong	local02, fp
02bd4     1C 8C 84 F1 | 	sub	fp, #28
02bd8     10 2C 0D F2 | 	cmp	local02, #16 wz
02bdc     14 00 90 5D |  if_ne	jmp	#LR__0178
02be0     28 8C 04 F1 | 	add	fp, #40
02be4     46 2C 01 FB | 	rdlong	local02, fp
02be8     02 2C 05 F1 | 	add	local02, #2
02bec     46 2C 61 FC | 	wrlong	local02, fp
02bf0     28 8C 84 F1 | 	sub	fp, #40
02bf4                 | LR__0178
02bf4     24 8C 04 F1 | 	add	fp, #36
02bf8     46 2C 09 FB | 	rdlong	local02, fp wz
02bfc     24 8C 84 F1 | 	sub	fp, #36
02c00     28 00 90 AD |  if_e	jmp	#LR__0179
02c04     28 8C 04 F1 | 	add	fp, #40
02c08     46 2C 01 FB | 	rdlong	local02, fp
02c0c     02 2E 05 F6 | 	mov	local03, #2
02c10     34 8C 04 F1 | 	add	fp, #52
02c14     46 32 01 FB | 	rdlong	local05, fp
02c18     99 2E 01 F1 | 	add	local03, local05
02c1c     97 2C 01 F1 | 	add	local02, local03
02c20     34 8C 84 F1 | 	sub	fp, #52
02c24     46 2C 61 FC | 	wrlong	local02, fp
02c28     28 8C 84 F1 | 	sub	fp, #40
02c2c                 | LR__0179
02c2c     28 8C 04 F1 | 	add	fp, #40
02c30     46 2C 01 FB | 	rdlong	local02, fp
02c34     28 8C 84 F1 | 	sub	fp, #40
02c38     40 2C 5D F2 | 	cmps	local02, #64 wcz
02c3c     01 00 65 16 |  if_a	neg	result1, #1
02c40     8C 05 90 1D |  if_a	jmp	#LR__0209
02c44     3C 8C 04 F1 | 	add	fp, #60
02c48     46 2C 09 FB | 	rdlong	local02, fp wz
02c4c     3C 8C 84 F1 | 	sub	fp, #60
02c50     70 00 90 AD |  if_e	jmp	#LR__0181
02c54     C0 8C 04 F1 | 	add	fp, #192
02c58     46 20 01 FB | 	rdlong	arg01, fp
02c5c     94 8C 84 F1 | 	sub	fp, #148
02c60     46 22 01 FB | 	rdlong	arg02, fp
02c64     14 8C 04 F1 | 	add	fp, #20
02c68     46 34 01 FB | 	rdlong	local06, fp
02c6c     40 8C 84 F1 | 	sub	fp, #64
02c70     9A 24 01 F6 | 	mov	arg03, local06
02c74     A0 1D B0 FD | 	call	#__system__emitsign_0188
02c78     80 36 01 F6 | 	mov	local07, result1
02c7c     D4 8C 04 F1 | 	add	fp, #212
02c80     46 36 61 FC | 	wrlong	local07, fp
02c84     9B 2C 01 F6 | 	mov	local02, local07
02c88     D4 8C 84 F1 | 	sub	fp, #212
02c8c     00 2C 5D F2 | 	cmps	local02, #0 wcz
02c90     10 00 90 3D |  if_ae	jmp	#LR__0180
02c94     D4 8C 04 F1 | 	add	fp, #212
02c98     46 00 01 FB | 	rdlong	result1, fp
02c9c     D4 8C 84 F1 | 	sub	fp, #212
02ca0     2C 05 90 FD | 	jmp	#LR__0209
02ca4                 | LR__0180
02ca4     C0 8C 04 F1 | 	add	fp, #192
02ca8     46 2C 01 FB | 	rdlong	local02, fp
02cac     14 8C 04 F1 | 	add	fp, #20
02cb0     46 2E 01 FB | 	rdlong	local03, fp
02cb4     97 2C 01 F1 | 	add	local02, local03
02cb8     14 8C 84 F1 | 	sub	fp, #20
02cbc     46 2C 61 FC | 	wrlong	local02, fp
02cc0     C0 8C 84 F1 | 	sub	fp, #192
02cc4                 | LR__0181
02cc4     4C 8C 04 F1 | 	add	fp, #76
02cc8     46 2C 01 FB | 	rdlong	local02, fp
02ccc     34 8C 84 F1 | 	sub	fp, #52
02cd0     46 2C 61 FC | 	wrlong	local02, fp
02cd4     18 8C 84 F1 | 	sub	fp, #24
02cd8     78 D4 9F FE | 	loc	pa,	#(@LR__0187-@LR__0182)
02cdc     35 00 A0 FD | 	call	#FCACHE_LOAD_
02ce0                 | LR__0182
02ce0     18 8C 04 F1 | 	add	fp, #24
02ce4     46 2E 01 FB | 	rdlong	local03, fp
02ce8     97 2A 01 F6 | 	mov	local01, local03
02cec     3C 8C 04 F1 | 	add	fp, #60
02cf0     46 30 01 FB | 	rdlong	local04, fp
02cf4     54 8C 84 F1 | 	sub	fp, #84
02cf8     98 32 01 F6 | 	mov	local05, local04
02cfc     99 2A 59 F2 | 	cmps	local01, local05 wcz
02d00     30 01 90 3D |  if_ae	jmp	#LR__0188
02d04     18 8C 04 F1 | 	add	fp, #24
02d08     46 34 01 FB | 	rdlong	local06, fp
02d0c     18 8C 84 F1 | 	sub	fp, #24
02d10     00 34 5D F2 | 	cmps	local06, #0 wcz
02d14     58 00 90 CD |  if_b	jmp	#LR__0183
02d18     18 8C 04 F1 | 	add	fp, #24
02d1c     46 3A 01 FB | 	rdlong	local09, fp
02d20     40 8C 04 F1 | 	add	fp, #64
02d24     46 38 01 FB | 	rdlong	local08, fp
02d28     58 8C 84 F1 | 	sub	fp, #88
02d2c     9C 3A 59 F2 | 	cmps	local09, local08 wcz
02d30     3C 00 90 3D |  if_ae	jmp	#LR__0183
02d34     C0 8C 04 F1 | 	add	fp, #192
02d38     46 34 01 FB | 	rdlong	local06, fp
02d3c     9A 3A 01 F6 | 	mov	local09, local06
02d40     01 3A 05 F1 | 	add	local09, #1
02d44     46 3A 61 FC | 	wrlong	local09, fp
02d48     A8 8C 84 F1 | 	sub	fp, #168
02d4c     46 38 01 FB | 	rdlong	local08, fp
02d50     9C 3C 01 F6 | 	mov	local10, local08
02d54     58 8C 04 F1 | 	add	fp, #88
02d58     46 40 01 F6 | 	mov	local12, fp
02d5c     46 3C 01 F1 | 	add	local10, fp
02d60     9E 42 C1 FA | 	rdbyte	local13, local10
02d64     9A 42 41 FC | 	wrbyte	local13, local06
02d68     70 8C 84 F1 | 	sub	fp, #112
02d6c     20 00 90 FD | 	jmp	#LR__0184
02d70                 | LR__0183
02d70     C0 8C 04 F1 | 	add	fp, #192
02d74     46 34 01 FB | 	rdlong	local06, fp
02d78     9A 3A 01 F6 | 	mov	local09, local06
02d7c     01 3A 05 F1 | 	add	local09, #1
02d80     46 3A 61 FC | 	wrlong	local09, fp
02d84     C0 8C 84 F1 | 	sub	fp, #192
02d88     30 3C 05 F6 | 	mov	local10, #48
02d8c     9A 60 48 FC | 	wrbyte	#48, local06
02d90                 | LR__0184
02d90     18 8C 04 F1 | 	add	fp, #24
02d94     46 34 01 FB | 	rdlong	local06, fp
02d98     38 8C 04 F1 | 	add	fp, #56
02d9c     46 3A 01 FB | 	rdlong	local09, fp
02da0     50 8C 84 F1 | 	sub	fp, #80
02da4     9D 34 09 F2 | 	cmp	local06, local09 wz
02da8     64 00 90 5D |  if_ne	jmp	#LR__0186
02dac     CC 8C 04 F1 | 	add	fp, #204
02db0     46 38 01 FB | 	rdlong	local08, fp
02db4     CC 8C 84 F1 | 	sub	fp, #204
02db8     9C 3C 09 F6 | 	mov	local10, local08 wz
02dbc     28 00 90 5D |  if_ne	jmp	#LR__0185
02dc0     54 8C 04 F1 | 	add	fp, #84
02dc4     46 42 01 FB | 	rdlong	local13, fp
02dc8     A1 40 01 F6 | 	mov	local12, local13
02dcc     01 40 85 F1 | 	sub	local12, #1
02dd0     3C 8C 84 F1 | 	sub	fp, #60
02dd4     46 44 01 FB | 	rdlong	local14, fp
02dd8     18 8C 84 F1 | 	sub	fp, #24
02ddc     A2 46 01 F6 | 	mov	local15, local14
02de0     A0 46 59 F2 | 	cmps	local15, local12 wcz
02de4     28 00 90 3D |  if_ae	jmp	#LR__0186
02de8                 | LR__0185
02de8     C0 8C 04 F1 | 	add	fp, #192
02dec     46 36 01 FB | 	rdlong	local07, fp
02df0     9B 34 01 F6 | 	mov	local06, local07
02df4     9B 3E 01 F6 | 	mov	local11, local07
02df8     9F 3A 01 F6 | 	mov	local09, local11
02dfc     01 3A 05 F1 | 	add	local09, #1
02e00     46 3A 61 FC | 	wrlong	local09, fp
02e04     C0 8C 84 F1 | 	sub	fp, #192
02e08     2E 3C 05 F6 | 	mov	local10, #46
02e0c     9A 5C 48 FC | 	wrbyte	#46, local06
02e10                 | LR__0186
02e10     18 8C 04 F1 | 	add	fp, #24
02e14     46 36 01 FB | 	rdlong	local07, fp
02e18     9B 34 01 F6 | 	mov	local06, local07
02e1c     9B 3E 01 F6 | 	mov	local11, local07
02e20     9F 3A 01 F6 | 	mov	local09, local11
02e24     01 3A 05 F1 | 	add	local09, #1
02e28     46 3A 61 FC | 	wrlong	local09, fp
02e2c     18 8C 84 F1 | 	sub	fp, #24
02e30     AC FE 9F FD | 	jmp	#LR__0182
02e34                 | LR__0187
02e34                 | LR__0188
02e34     34 8C 04 F1 | 	add	fp, #52
02e38     46 2C 09 FB | 	rdlong	local02, fp wz
02e3c     34 8C 84 F1 | 	sub	fp, #52
02e40     B0 00 90 AD |  if_e	jmp	#LR__0193
02e44     C0 8C 04 F1 | 	add	fp, #192
02e48     46 2C 01 FB | 	rdlong	local02, fp
02e4c     01 2C 85 F1 | 	sub	local02, #1
02e50     46 2C 61 FC | 	wrlong	local02, fp
02e54     C0 8C 84 F1 | 	sub	fp, #192
02e58     F4 D1 9F FE | 	loc	pa,	#(@LR__0190-@LR__0189)
02e5c     35 00 A0 FD | 	call	#FCACHE_LOAD_
02e60                 | LR__0189
02e60     C0 8C 04 F1 | 	add	fp, #192
02e64     46 2C 01 FB | 	rdlong	local02, fp
02e68     04 8C 04 F1 | 	add	fp, #4
02e6c     46 2E 01 FB | 	rdlong	local03, fp
02e70     C4 8C 84 F1 | 	sub	fp, #196
02e74     97 2C 59 F2 | 	cmps	local02, local03 wcz
02e78     34 00 90 ED |  if_be	jmp	#LR__0191
02e7c     C0 8C 04 F1 | 	add	fp, #192
02e80     46 36 01 FB | 	rdlong	local07, fp
02e84     C0 8C 84 F1 | 	sub	fp, #192
02e88     9B 34 01 F6 | 	mov	local06, local07
02e8c     9A 30 C1 FA | 	rdbyte	local04, local06
02e90     30 30 0D F2 | 	cmp	local04, #48 wz
02e94     18 00 90 5D |  if_ne	jmp	#LR__0191
02e98     C0 8C 04 F1 | 	add	fp, #192
02e9c     46 2C 01 FB | 	rdlong	local02, fp
02ea0     01 2C 85 F1 | 	sub	local02, #1
02ea4     46 2C 61 FC | 	wrlong	local02, fp
02ea8     C0 8C 84 F1 | 	sub	fp, #192
02eac     B0 FF 9F FD | 	jmp	#LR__0189
02eb0                 | LR__0190
02eb0                 | LR__0191
02eb0     C0 8C 04 F1 | 	add	fp, #192
02eb4     46 2A 01 FB | 	rdlong	local01, fp
02eb8     C0 8C 84 F1 | 	sub	fp, #192
02ebc     95 2C C1 FA | 	rdbyte	local02, local01
02ec0     2E 2C 0D F2 | 	cmp	local02, #46 wz
02ec4     14 00 90 5D |  if_ne	jmp	#LR__0192
02ec8     C0 8C 04 F1 | 	add	fp, #192
02ecc     46 2C 01 FB | 	rdlong	local02, fp
02ed0     01 2C 85 F1 | 	sub	local02, #1
02ed4     46 2C 61 FC | 	wrlong	local02, fp
02ed8     C0 8C 84 F1 | 	sub	fp, #192
02edc                 | LR__0192
02edc     C0 8C 04 F1 | 	add	fp, #192
02ee0     46 32 01 FB | 	rdlong	local05, fp
02ee4     99 2E 01 F6 | 	mov	local03, local05
02ee8     01 2E 05 F1 | 	add	local03, #1
02eec     46 2E 61 FC | 	wrlong	local03, fp
02ef0     C0 8C 84 F1 | 	sub	fp, #192
02ef4                 | LR__0193
02ef4     24 8C 04 F1 | 	add	fp, #36
02ef8     46 2C 09 FB | 	rdlong	local02, fp wz
02efc     24 8C 84 F1 | 	sub	fp, #36
02f00     C4 00 90 AD |  if_e	jmp	#LR__0196
02f04     C0 8C 04 F1 | 	add	fp, #192
02f08     46 2C 01 FB | 	rdlong	local02, fp
02f0c     96 2E 01 F6 | 	mov	local03, local02
02f10     01 2E 05 F1 | 	add	local03, #1
02f14     46 2E 61 FC | 	wrlong	local03, fp
02f18     90 8C 84 F1 | 	sub	fp, #144
02f1c     46 30 01 FB | 	rdlong	local04, fp
02f20     96 30 41 FC | 	wrbyte	local04, local02
02f24     90 8C 04 F1 | 	add	fp, #144
02f28     46 2C 01 FB | 	rdlong	local02, fp
02f2c     96 2E 01 F6 | 	mov	local03, local02
02f30     01 2E 05 F1 | 	add	local03, #1
02f34     46 2E 61 FC | 	wrlong	local03, fp
02f38     60 8C 84 F1 | 	sub	fp, #96
02f3c     46 30 01 FB | 	rdlong	local04, fp
02f40     96 30 41 FC | 	wrbyte	local04, local02
02f44     48 8C 84 F1 | 	sub	fp, #72
02f48     46 00 68 FC | 	wrlong	#0, fp
02f4c     18 8C 84 F1 | 	sub	fp, #24
02f50                 | LR__0194
02f50     18 8C 04 F1 | 	add	fp, #24
02f54     46 2A 01 FB | 	rdlong	local01, fp
02f58     44 8C 04 F1 | 	add	fp, #68
02f5c     46 30 01 FB | 	rdlong	local04, fp
02f60     5C 8C 84 F1 | 	sub	fp, #92
02f64     98 32 01 F6 | 	mov	local05, local04
02f68     99 2A 59 F2 | 	cmps	local01, local05 wcz
02f6c     58 00 90 3D |  if_ae	jmp	#LR__0195
02f70     C0 8C 04 F1 | 	add	fp, #192
02f74     46 34 01 FB | 	rdlong	local06, fp
02f78     9A 3A 01 F6 | 	mov	local09, local06
02f7c     01 3A 05 F1 | 	add	local09, #1
02f80     46 3A 61 FC | 	wrlong	local09, fp
02f84     A8 8C 84 F1 | 	sub	fp, #168
02f88     46 38 01 FB | 	rdlong	local08, fp
02f8c     9C 3C 01 F6 | 	mov	local10, local08
02f90     98 8C 04 F1 | 	add	fp, #152
02f94     46 40 01 F6 | 	mov	local12, fp
02f98     46 3C 01 F1 | 	add	local10, fp
02f9c     9E 42 C1 FA | 	rdbyte	local13, local10
02fa0     9A 42 41 FC | 	wrbyte	local13, local06
02fa4     98 8C 84 F1 | 	sub	fp, #152
02fa8     46 36 01 FB | 	rdlong	local07, fp
02fac     9B 34 01 F6 | 	mov	local06, local07
02fb0     9B 3E 01 F6 | 	mov	local11, local07
02fb4     9F 3A 01 F6 | 	mov	local09, local11
02fb8     01 3A 05 F1 | 	add	local09, #1
02fbc     46 3A 61 FC | 	wrlong	local09, fp
02fc0     18 8C 84 F1 | 	sub	fp, #24
02fc4     88 FF 9F FD | 	jmp	#LR__0194
02fc8                 | LR__0195
02fc8                 | LR__0196
02fc8     C0 8C 04 F1 | 	add	fp, #192
02fcc     46 2A 01 FB | 	rdlong	local01, fp
02fd0     C0 8C 84 F1 | 	sub	fp, #192
02fd4     95 2C 01 F6 | 	mov	local02, local01
02fd8     00 2E 05 F6 | 	mov	local03, #0
02fdc     96 00 48 FC | 	wrbyte	#0, local02
02fe0                 | LR__0197
02fe0     6C 8C 04 F1 | 	add	fp, #108
02fe4     46 2C 09 FB | 	rdlong	local02, fp wz
02fe8     6C 8C 84 F1 | 	sub	fp, #108
02fec     C0 01 90 AD |  if_e	jmp	#LR__0208
02ff0     48 8C 04 F1 | 	add	fp, #72
02ff4     46 2E 09 FB | 	rdlong	local03, fp wz
02ff8     48 8C 84 F1 | 	sub	fp, #72
02ffc     B0 01 90 AD |  if_e	jmp	#LR__0208
03000     C4 8C 04 F1 | 	add	fp, #196
03004     46 34 01 FB | 	rdlong	local06, fp
03008     C4 8C 84 F1 | 	sub	fp, #196
0300c     9A 20 01 F6 | 	mov	arg01, local06
03010     00 48 05 F6 | 	mov	local16, #0
03014     F8 CF 9F FE | 	loc	pa,	#(@LR__0199-@LR__0198)
03018     35 00 A0 FD | 	call	#FCACHE_LOAD_
0301c                 | LR__0198
0301c     90 4A C9 FA | 	rdbyte	local17, arg01 wz
03020     01 48 05 51 |  if_ne	add	local16, #1
03024     01 20 05 51 |  if_ne	add	arg01, #1
03028     F0 FF 9F 5D |  if_ne	jmp	#LR__0198
0302c                 | LR__0199
0302c     A4 00 01 F6 | 	mov	result1, local16
03030     80 36 01 F6 | 	mov	local07, result1
03034     6C 8C 04 F1 | 	add	fp, #108
03038     46 3E 01 FB | 	rdlong	local11, fp
0303c     6C 8C 84 F1 | 	sub	fp, #108
03040     9F 3A 01 F6 | 	mov	local09, local11
03044     9D 36 59 F2 | 	cmps	local07, local09 wcz
03048     64 01 90 ED |  if_be	jmp	#LR__0208
0304c     C4 8C 04 F1 | 	add	fp, #196
03050     46 2C 01 FB | 	rdlong	local02, fp
03054     18 8C 04 F1 | 	add	fp, #24
03058     46 2C 61 FC | 	wrlong	local02, fp
0305c     B8 8C 84 F1 | 	sub	fp, #184
03060     46 2C 09 FB | 	rdlong	local02, fp wz
03064     24 8C 84 F1 | 	sub	fp, #36
03068     20 00 90 AD |  if_e	jmp	#LR__0200
0306c     B8 8C 04 F1 | 	add	fp, #184
03070     46 00 68 FC | 	wrlong	#0, fp
03074     4C 8C 84 F1 | 	sub	fp, #76
03078     46 2C 01 FB | 	rdlong	local02, fp
0307c     6C 8C 04 F1 | 	add	fp, #108
03080     46 2C 61 FC | 	wrlong	local02, fp
03084     D8 8C 84 F1 | 	sub	fp, #216
03088     24 00 90 FD | 	jmp	#LR__0201
0308c                 | LR__0200
0308c     6C 8C 04 F1 | 	add	fp, #108
03090     46 2C 01 FB | 	rdlong	local02, fp
03094     01 2C 85 F1 | 	sub	local02, #1
03098     4C 8C 04 F1 | 	add	fp, #76
0309c     46 2E 01 FB | 	rdlong	local03, fp
030a0     97 2C 81 F1 | 	sub	local02, local03
030a4     20 8C 04 F1 | 	add	fp, #32
030a8     46 2C 61 FC | 	wrlong	local02, fp
030ac     D8 8C 84 F1 | 	sub	fp, #216
030b0                 | LR__0201
030b0     8C CF 9F FE | 	loc	pa,	#(@LR__0203-@LR__0202)
030b4     35 00 A0 FD | 	call	#FCACHE_LOAD_
030b8                 | LR__0202
030b8     D8 8C 04 F1 | 	add	fp, #216
030bc     46 2C 09 FB | 	rdlong	local02, fp wz
030c0     D8 8C 84 F1 | 	sub	fp, #216
030c4     30 00 90 AD |  if_e	jmp	#LR__0204
030c8     DC 8C 04 F1 | 	add	fp, #220
030cc     46 2C 01 FB | 	rdlong	local02, fp
030d0     96 2E 01 F6 | 	mov	local03, local02
030d4     01 2E 05 F1 | 	add	local03, #1
030d8     46 2E 61 FC | 	wrlong	local03, fp
030dc     96 54 48 FC | 	wrbyte	#42, local02
030e0     04 8C 84 F1 | 	sub	fp, #4
030e4     46 2C 01 FB | 	rdlong	local02, fp
030e8     01 2C 85 F1 | 	sub	local02, #1
030ec     46 2C 61 FC | 	wrlong	local02, fp
030f0     D8 8C 84 F1 | 	sub	fp, #216
030f4     C0 FF 9F FD | 	jmp	#LR__0202
030f8                 | LR__0203
030f8                 | LR__0204
030f8     B8 8C 04 F1 | 	add	fp, #184
030fc     46 2C 09 FB | 	rdlong	local02, fp wz
03100     B8 8C 84 F1 | 	sub	fp, #184
03104     80 00 90 AD |  if_e	jmp	#LR__0207
03108     DC 8C 04 F1 | 	add	fp, #220
0310c     46 2C 01 FB | 	rdlong	local02, fp
03110     96 2E 01 F6 | 	mov	local03, local02
03114     01 2E 05 F1 | 	add	local03, #1
03118     46 2E 61 FC | 	wrlong	local03, fp
0311c     96 5C 48 FC | 	wrbyte	#46, local02
03120     04 8C 84 F1 | 	sub	fp, #4
03124     46 00 68 FC | 	wrlong	#0, fp
03128     D8 8C 84 F1 | 	sub	fp, #216
0312c                 | LR__0205
0312c     D8 8C 04 F1 | 	add	fp, #216
03130     46 2A 01 FB | 	rdlong	local01, fp
03134     20 8C 84 F1 | 	sub	fp, #32
03138     46 32 01 FB | 	rdlong	local05, fp
0313c     B8 8C 84 F1 | 	sub	fp, #184
03140     99 2A 59 F2 | 	cmps	local01, local05 wcz
03144     40 00 90 3D |  if_ae	jmp	#LR__0206
03148     DC 8C 04 F1 | 	add	fp, #220
0314c     46 34 01 FB | 	rdlong	local06, fp
03150     9A 3A 01 F6 | 	mov	local09, local06
03154     01 3A 05 F1 | 	add	local09, #1
03158     46 3A 61 FC | 	wrlong	local09, fp
0315c     2A 3C 05 F6 | 	mov	local10, #42
03160     9A 54 48 FC | 	wrbyte	#42, local06
03164     04 8C 84 F1 | 	sub	fp, #4
03168     46 36 01 FB | 	rdlong	local07, fp
0316c     9B 34 01 F6 | 	mov	local06, local07
03170     9B 3E 01 F6 | 	mov	local11, local07
03174     9F 3A 01 F6 | 	mov	local09, local11
03178     01 3A 05 F1 | 	add	local09, #1
0317c     46 3A 61 FC | 	wrlong	local09, fp
03180     D8 8C 84 F1 | 	sub	fp, #216
03184     A4 FF 9F FD | 	jmp	#LR__0205
03188                 | LR__0206
03188                 | LR__0207
03188     DC 8C 04 F1 | 	add	fp, #220
0318c     46 2A 01 FB | 	rdlong	local01, fp
03190     95 2C 01 F6 | 	mov	local02, local01
03194     95 32 01 F6 | 	mov	local05, local01
03198     99 2E 01 F6 | 	mov	local03, local05
0319c     01 2E 05 F1 | 	add	local03, #1
031a0     46 2E 61 FC | 	wrlong	local03, fp
031a4     DC 8C 84 F1 | 	sub	fp, #220
031a8     00 30 05 F6 | 	mov	local04, #0
031ac     96 00 48 FC | 	wrbyte	#0, local02
031b0                 | LR__0208
031b0     04 8C 04 F1 | 	add	fp, #4
031b4     46 20 01 FB | 	rdlong	arg01, fp
031b8     04 8C 04 F1 | 	add	fp, #4
031bc     46 22 01 FB | 	rdlong	arg02, fp
031c0     BC 8C 04 F1 | 	add	fp, #188
031c4     46 24 01 FB | 	rdlong	arg03, fp
031c8     C4 8C 84 F1 | 	sub	fp, #196
031cc     88 EB BF FD | 	call	#__system___fmtstr
031d0                 | LR__0209
031d0     46 F0 03 F6 | 	mov	ptra, fp
031d4     5A 00 A0 FD | 	call	#popregs_
031d8                 | __system___fmtfloat_ret
031d8     2D 00 64 FD | 	ret
031dc                 | 
031dc                 | __system___seterror
031dc     00 20 0D F2 | 	cmp	arg01, #0 wz
031e0     14 00 90 AD |  if_e	jmp	#LR__0210
031e4     10 F8 04 F1 | 	add	ptr___system__dat__, #16
031e8     7C 20 61 FC | 	wrlong	arg01, ptr___system__dat__
031ec     10 F8 84 F1 | 	sub	ptr___system__dat__, #16
031f0     01 00 65 F6 | 	neg	result1, #1
031f4     04 00 90 FD | 	jmp	#__system___seterror_ret
031f8                 | LR__0210
031f8     00 00 05 F6 | 	mov	result1, #0
031fc                 | __system___seterror_ret
031fc     2D 00 64 FD | 	ret
03200                 | 
03200                 | __system___float_fromuns
03200     02 88 04 F6 | 	mov	COUNT_, #2
03204     4B 00 A0 FD | 	call	#pushregs_
03208     90 2A 09 F6 | 	mov	local01, arg01 wz
0320c     95 00 01 A6 |  if_e	mov	result1, local01
03210     2C 00 90 AD |  if_e	jmp	#LR__0211
03214     95 22 01 F6 | 	mov	arg02, local01
03218     91 22 91 F7 | 	encod	arg02, arg02 wc
0321c     01 22 05 C1 |  if_b	add	arg02, #1
03220     01 22 85 F1 | 	sub	arg02, #1
03224     1F 2C 05 F6 | 	mov	local02, #31
03228     91 2C 81 F1 | 	sub	local02, arg02
0322c     96 2A 61 F0 | 	shl	local01, local02
03230     02 2A 45 F0 | 	shr	local01, #2
03234     00 20 05 F6 | 	mov	arg01, #0
03238     95 24 01 F6 | 	mov	arg03, local01
0323c     24 09 B0 FD | 	call	#__system___float_Pack
03240                 | LR__0211
03240     46 F0 03 F6 | 	mov	ptra, fp
03244     5A 00 A0 FD | 	call	#popregs_
03248                 | __system___float_fromuns_ret
03248     2D 00 64 FD | 	ret
0324c                 | 
0324c                 | __system___float_fromint
0324c     02 88 04 F6 | 	mov	COUNT_, #2
03250     4B 00 A0 FD | 	call	#pushregs_
03254     90 2A 01 F6 | 	mov	local01, arg01
03258     00 2A 5D F2 | 	cmps	local01, #0 wcz
0325c     95 2A 61 C6 |  if_b	neg	local01, local01
03260     01 2C 05 C6 |  if_b	mov	local02, #1
03264     00 2C 05 36 |  if_ae	mov	local02, #0
03268     95 20 01 F6 | 	mov	arg01, local01
0326c     90 FF BF FD | 	call	#__system___float_fromuns
03270     00 2C 0D F2 | 	cmp	local02, #0 wz
03274     1F 00 E5 54 |  if_ne	bitnot	result1, #31
03278     46 F0 03 F6 | 	mov	ptra, fp
0327c     5A 00 A0 FD | 	call	#popregs_
03280                 | __system___float_fromint_ret
03280     2D 00 64 FD | 	ret
03284                 | 
03284                 | __system___float_add
03284     13 88 04 F6 | 	mov	COUNT_, #19
03288     4B 00 A0 FD | 	call	#pushregs_
0328c     90 2A 01 F6 | 	mov	local01, arg01
03290     91 2C 01 F6 | 	mov	local02, arg02
03294     00 2E 05 F6 | 	mov	local03, #0
03298     95 30 01 F6 | 	mov	local04, local01
0329c     98 32 01 F6 | 	mov	local05, local04
032a0     16 32 45 F7 | 	zerox	local05, #22
032a4     98 34 01 F6 | 	mov	local06, local04
032a8     01 34 65 F0 | 	shl	local06, #1
032ac     18 34 45 F0 | 	shr	local06, #24
032b0     1F 30 45 F0 | 	shr	local04, #31
032b4     96 20 01 F6 | 	mov	arg01, local02
032b8     90 00 01 F6 | 	mov	result1, arg01
032bc     80 36 01 F6 | 	mov	local07, result1
032c0     9B 38 01 F6 | 	mov	local08, local07
032c4     16 38 45 F7 | 	zerox	local08, #22
032c8     9B 3A 01 F6 | 	mov	local09, local07
032cc     01 3A 65 F0 | 	shl	local09, #1
032d0     18 3A 45 F0 | 	shr	local09, #24
032d4     9B 3C 01 F6 | 	mov	local10, local07
032d8     1F 3C 45 F0 | 	shr	local10, #31
032dc     9E 3E 01 F6 | 	mov	local11, local10
032e0     00 40 05 F6 | 	mov	local12, #0
032e4     00 42 05 F6 | 	mov	local13, #0
032e8     9D 34 19 F2 | 	cmp	local06, local09 wcz
032ec     10 00 90 CD |  if_b	jmp	#LR__0212
032f0     9D 34 09 F2 | 	cmp	local06, local09 wz
032f4     2C 00 90 5D |  if_ne	jmp	#LR__0213
032f8     9C 32 19 F2 | 	cmp	local05, local08 wcz
032fc     24 00 90 3D |  if_ae	jmp	#LR__0213
03300                 | LR__0212
03300     99 44 01 F6 | 	mov	local14, local05
03304     9C 32 01 F6 | 	mov	local05, local08
03308     A2 38 01 F6 | 	mov	local08, local14
0330c     9A 44 01 F6 | 	mov	local14, local06
03310     9D 34 01 F6 | 	mov	local06, local09
03314     A2 3A 01 F6 | 	mov	local09, local14
03318     98 44 01 F6 | 	mov	local14, local04
0331c     9F 30 01 F6 | 	mov	local04, local11
03320     A2 3E 01 F6 | 	mov	local11, local14
03324                 | LR__0213
03324     FF 34 0D F2 | 	cmp	local06, #255 wz
03328     80 01 90 AD |  if_e	jmp	#LR__0229
0332c     00 34 0D F2 | 	cmp	local06, #0 wz
03330     BC 01 90 AD |  if_e	jmp	#LR__0231
03334     17 32 25 F4 | 	bith	local05, #23
03338                 | LR__0214
03338     00 3A 0D F2 | 	cmp	local09, #0 wz
0333c     FC 01 90 AD |  if_e	jmp	#LR__0234
03340     17 38 25 F4 | 	bith	local08, #23
03344                 | LR__0215
03344     7F 34 85 F1 | 	sub	local06, #127
03348     7F 3A 85 F1 | 	sub	local09, #127
0334c     9A 46 01 F6 | 	mov	local15, local06
03350     9D 46 81 F1 | 	sub	local15, local09
03354     D0 CC 9F FE | 	loc	pa,	#(@LR__0217-@LR__0216)
03358     35 00 A0 FD | 	call	#FCACHE_LOAD_
0335c                 | LR__0216
0335c     20 46 5D F2 | 	cmps	local15, #32 wcz
03360     20 00 90 CD |  if_b	jmp	#LR__0218
03364     9C 3C 01 F6 | 	mov	local10, local08
03368     00 40 0D F2 | 	cmp	local12, #0 wz
0336c     6F 36 61 FD | 	wrnz	local07
03370     9B 3C 41 F5 | 	or	local10, local07
03374     9E 40 01 F6 | 	mov	local12, local10
03378     00 38 05 F6 | 	mov	local08, #0
0337c     20 46 85 F1 | 	sub	local15, #32
03380     D8 FF 9F FD | 	jmp	#LR__0216
03384                 | LR__0217
03384                 | LR__0218
03384     00 46 0D F2 | 	cmp	local15, #0 wz
03388     40 00 90 AD |  if_e	jmp	#LR__0219
0338c     9C 48 01 F6 | 	mov	local16, local08
03390     20 36 05 F6 | 	mov	local07, #32
03394     A3 36 81 F1 | 	sub	local07, local15
03398     9B 48 61 F0 | 	shl	local16, local07
0339c     A0 4A 01 F6 | 	mov	local17, local12
033a0     20 36 05 F6 | 	mov	local07, #32
033a4     A3 36 81 F1 | 	sub	local07, local15
033a8     9B 4A 69 F0 | 	shl	local17, local07 wz
033ac     A3 40 41 F0 | 	shr	local12, local15
033b0     A3 38 41 F0 | 	shr	local08, local15
033b4     A4 40 41 F5 | 	or	local12, local16
033b8     A0 3C 01 F6 | 	mov	local10, local12
033bc     00 36 05 F6 | 	mov	local07, #0
033c0     01 36 05 56 |  if_ne	mov	local07, #1
033c4     9B 3C 41 F5 | 	or	local10, local07
033c8     9E 40 01 F6 | 	mov	local12, local10
033cc                 | LR__0219
033cc     98 4C 01 F6 | 	mov	local18, local04
033d0     9F 4C 61 F5 | 	xor	local18, local11
033d4     01 4C 0D F5 | 	and	local18, #1 wz
033d8     18 00 90 AD |  if_e	jmp	#LR__0220
033dc     9C 38 21 F6 | 	not	local08, local08
033e0     A0 40 21 F6 | 	not	local12, local12
033e4     01 40 0D F1 | 	add	local12, #1 wz
033e8     00 36 05 F6 | 	mov	local07, #0
033ec     01 36 05 A6 |  if_e	mov	local07, #1
033f0     9B 38 01 F1 | 	add	local08, local07
033f4                 | LR__0220
033f4     A0 42 11 F1 | 	add	local13, local12 wc
033f8     9C 32 21 F1 | 	addx	local05, local08
033fc     00 32 5D F2 | 	cmps	local05, #0 wcz
03400     1C 00 90 3D |  if_ae	jmp	#LR__0221
03404     01 30 65 F5 | 	xor	local04, #1
03408     99 32 21 F6 | 	not	local05, local05
0340c     A1 42 21 F6 | 	not	local13, local13
03410     01 42 0D F1 | 	add	local13, #1 wz
03414     00 36 05 F6 | 	mov	local07, #0
03418     01 36 05 A6 |  if_e	mov	local07, #1
0341c     9B 32 01 F1 | 	add	local05, local07
03420                 | LR__0221
03420     00 80 00 FF 
03424     00 32 1D F2 | 	cmp	local05, ##16777216 wcz
03428     28 00 90 CD |  if_b	jmp	#LR__0222
0342c     01 34 05 F1 | 	add	local06, #1
03430     A1 4E 01 F6 | 	mov	local19, local13
03434     01 4E 05 F5 | 	and	local19, #1
03438     01 42 45 F0 | 	shr	local13, #1
0343c     99 36 01 F6 | 	mov	local07, local05
03440     1F 36 65 F0 | 	shl	local07, #31
03444     9B 42 41 F5 | 	or	local13, local07
03448     A7 42 41 F5 | 	or	local13, local19
0344c     01 32 45 F0 | 	shr	local05, #1
03450     40 00 90 FD | 	jmp	#LR__0228
03454                 | LR__0222
03454     00 40 00 FF 
03458     00 32 1D F2 | 	cmp	local05, ##8388608 wcz
0345c     34 00 90 3D |  if_ae	jmp	#LR__0227
03460     00 32 0D F2 | 	cmp	local05, #0 wz
03464     10 00 90 5D |  if_ne	jmp	#LR__0223
03468     00 42 0D F2 | 	cmp	local13, #0 wz
0346c     08 30 45 A5 |  if_e	or	local04, #8
03470     01 30 25 A5 |  if_e	andn	local04, #1
03474     1C 00 90 AD |  if_e	jmp	#LR__0226
03478                 | LR__0223
03478                 | LR__0224
03478     00 40 00 FF 
0347c     00 32 1D F2 | 	cmp	local05, ##8388608 wcz
03480     10 00 90 3D |  if_ae	jmp	#LR__0225
03484     A1 42 11 F1 | 	add	local13, local13 wc
03488     99 32 21 F1 | 	addx	local05, local05
0348c     01 34 85 F1 | 	sub	local06, #1
03490     E4 FF 9F FD | 	jmp	#LR__0224
03494                 | LR__0225
03494                 | LR__0226
03494                 | LR__0227
03494                 | LR__0228
03494     99 20 01 F6 | 	mov	arg01, local05
03498     A1 22 01 F6 | 	mov	arg02, local13
0349c     9A 24 01 F6 | 	mov	arg03, local06
034a0     98 26 01 F6 | 	mov	arg04, local04
034a4     A4 15 B0 FD | 	call	#__system__pack_0256
034a8     D4 00 90 FD | 	jmp	#LR__0237
034ac                 | LR__0229
034ac     FF 3A 0D F2 | 	cmp	local09, #255 wz
034b0     10 00 90 5D |  if_ne	jmp	#LR__0230
034b4     98 3E 09 F2 | 	cmp	local11, local04 wz
034b8     00 F8 3F 5F 
034bc     00 00 05 56 |  if_ne	mov	result1, ##2146435072
034c0     BC 00 90 5D |  if_ne	jmp	#LR__0237
034c4                 | LR__0230
034c4     00 32 0D F2 | 	cmp	local05, #0 wz
034c8     00 F8 3F 5F 
034cc     00 00 05 56 |  if_ne	mov	result1, ##2146435072
034d0     AC 00 90 5D |  if_ne	jmp	#LR__0237
034d4     99 20 01 F6 | 	mov	arg01, local05
034d8     A1 22 01 F6 | 	mov	arg02, local13
034dc     9A 24 01 F6 | 	mov	arg03, local06
034e0     98 26 01 F6 | 	mov	arg04, local04
034e4     02 26 45 F5 | 	or	arg04, #2
034e8     60 15 B0 FD | 	call	#__system__pack_0256
034ec     90 00 90 FD | 	jmp	#LR__0237
034f0                 | LR__0231
034f0     00 32 0D F2 | 	cmp	local05, #0 wz
034f4     24 00 90 AD |  if_e	jmp	#LR__0233
034f8     01 32 65 F0 | 	shl	local05, #1
034fc                 | LR__0232
034fc     00 40 00 FF 
03500     00 32 1D F2 | 	cmp	local05, ##8388608 wcz
03504     30 FE 9F 3D |  if_ae	jmp	#LR__0214
03508     9A 36 01 F6 | 	mov	local07, local06
0350c     01 36 85 F1 | 	sub	local07, #1
03510     9B 34 01 F6 | 	mov	local06, local07
03514     01 32 65 F0 | 	shl	local05, #1
03518     E0 FF 9F FD | 	jmp	#LR__0232
0351c                 | LR__0233
0351c     9F 30 01 F5 | 	and	local04, local11
03520     98 26 01 F6 | 	mov	arg04, local04
03524     08 26 45 F5 | 	or	arg04, #8
03528     00 20 05 F6 | 	mov	arg01, #0
0352c     00 22 05 F6 | 	mov	arg02, #0
03530     00 24 05 F6 | 	mov	arg03, #0
03534     14 15 B0 FD | 	call	#__system__pack_0256
03538     44 00 90 FD | 	jmp	#LR__0237
0353c                 | LR__0234
0353c     00 38 0D F2 | 	cmp	local08, #0 wz
03540     24 00 90 AD |  if_e	jmp	#LR__0236
03544     01 38 65 F0 | 	shl	local08, #1
03548                 | LR__0235
03548     00 40 00 FF 
0354c     00 38 1D F2 | 	cmp	local08, ##8388608 wcz
03550     F0 FD 9F 3D |  if_ae	jmp	#LR__0215
03554     9D 36 01 F6 | 	mov	local07, local09
03558     01 36 85 F1 | 	sub	local07, #1
0355c     9B 3A 01 F6 | 	mov	local09, local07
03560     01 38 65 F0 | 	shl	local08, #1
03564     E0 FF 9F FD | 	jmp	#LR__0235
03568                 | LR__0236
03568     99 20 01 F6 | 	mov	arg01, local05
0356c     A1 22 01 F6 | 	mov	arg02, local13
03570     9A 24 01 F6 | 	mov	arg03, local06
03574     7F 24 85 F1 | 	sub	arg03, #127
03578     98 26 01 F6 | 	mov	arg04, local04
0357c     CC 14 B0 FD | 	call	#__system__pack_0256
03580                 | LR__0237
03580     46 F0 03 F6 | 	mov	ptra, fp
03584     5A 00 A0 FD | 	call	#popregs_
03588                 | __system___float_add_ret
03588     2D 00 64 FD | 	ret
0358c                 | 
0358c                 | __system___float_mul
0358c     0D 88 04 F6 | 	mov	COUNT_, #13
03590     4B 00 A0 FD | 	call	#pushregs_
03594     90 2A 01 F6 | 	mov	local01, arg01
03598     91 2C 01 F6 | 	mov	local02, arg02
0359c     95 2E 01 F6 | 	mov	local03, local01
035a0     97 30 01 F6 | 	mov	local04, local03
035a4     16 30 45 F7 | 	zerox	local04, #22
035a8     97 32 01 F6 | 	mov	local05, local03
035ac     01 32 65 F0 | 	shl	local05, #1
035b0     18 32 45 F0 | 	shr	local05, #24
035b4     1F 2E 45 F0 | 	shr	local03, #31
035b8     96 20 01 F6 | 	mov	arg01, local02
035bc     90 00 01 F6 | 	mov	result1, arg01
035c0     80 34 01 F6 | 	mov	local06, result1
035c4     9A 36 01 F6 | 	mov	local07, local06
035c8     9B 38 01 F6 | 	mov	local08, local07
035cc     16 38 45 F7 | 	zerox	local08, #22
035d0     9B 3A 01 F6 | 	mov	local09, local07
035d4     01 3A 65 F0 | 	shl	local09, #1
035d8     18 3A 45 F0 | 	shr	local09, #24
035dc     9D 3C 01 F6 | 	mov	local10, local09
035e0     1F 36 45 F0 | 	shr	local07, #31
035e4     00 3E 05 F6 | 	mov	local11, #0
035e8     9B 2E 61 F5 | 	xor	local03, local07
035ec     FF 32 0D F2 | 	cmp	local05, #255 wz
035f0     90 00 90 AD |  if_e	jmp	#LR__0241
035f4     FF 3C 0D F2 | 	cmp	local10, #255 wz
035f8     E0 00 90 AD |  if_e	jmp	#LR__0244
035fc     00 32 0D F2 | 	cmp	local05, #0 wz
03600     18 01 90 AD |  if_e	jmp	#LR__0246
03604     17 30 25 F4 | 	bith	local04, #23
03608                 | LR__0238
03608     00 3C 0D F2 | 	cmp	local10, #0 wz
0360c     54 01 90 AD |  if_e	jmp	#LR__0250
03610     17 38 25 F4 | 	bith	local08, #23
03614                 | LR__0239
03614     9E 32 01 F1 | 	add	local05, local10
03618     FE 32 85 F1 | 	sub	local05, #254
0361c     99 40 01 F6 | 	mov	local12, local05
03620     98 3A 01 F6 | 	mov	local09, local04
03624     04 3A 65 F0 | 	shl	local09, #4
03628     9C 34 01 F6 | 	mov	local06, local08
0362c     05 34 65 F0 | 	shl	local06, #5
03630     9A 3A 01 FD | 	qmul	local09, local06
03634     18 3E 61 FD | 	getqx	local11
03638     04 30 65 F0 | 	shl	local04, #4
0363c     05 38 65 F0 | 	shl	local08, #5
03640     9C 30 01 FD | 	qmul	local04, local08
03644     19 42 61 FD | 	getqy	local13
03648     00 80 00 FF 
0364c     00 42 1D F2 | 	cmp	local13, ##16777216 wcz
03650     18 00 90 CD |  if_b	jmp	#LR__0240
03654     01 40 05 F1 | 	add	local12, #1
03658     01 3E 45 F0 | 	shr	local11, #1
0365c     A1 34 01 F6 | 	mov	local06, local13
03660     1F 34 65 F0 | 	shl	local06, #31
03664     9A 3E 41 F5 | 	or	local11, local06
03668     01 42 45 F0 | 	shr	local13, #1
0366c                 | LR__0240
0366c     A1 20 01 F6 | 	mov	arg01, local13
03670     9F 22 01 F6 | 	mov	arg02, local11
03674     A0 24 01 F6 | 	mov	arg03, local12
03678     97 26 01 F6 | 	mov	arg04, local03
0367c     CC 13 B0 FD | 	call	#__system__pack_0256
03680     24 01 90 FD | 	jmp	#LR__0254
03684                 | LR__0241
03684     00 30 0D F2 | 	cmp	local04, #0 wz
03688     95 00 01 56 |  if_ne	mov	result1, local01
0368c     18 01 90 5D |  if_ne	jmp	#LR__0254
03690     FF 3C 5D F2 | 	cmps	local10, #255 wcz
03694     1C 00 90 3D |  if_ae	jmp	#LR__0242
03698     00 3C 0D F2 | 	cmp	local10, #0 wz
0369c     20 00 90 5D |  if_ne	jmp	#LR__0243
036a0     00 38 0D F2 | 	cmp	local08, #0 wz
036a4     18 00 90 5D |  if_ne	jmp	#LR__0243
036a8     00 F8 3F FF 
036ac     00 00 05 F6 | 	mov	result1, ##2146435072
036b0     F4 00 90 FD | 	jmp	#LR__0254
036b4                 | LR__0242
036b4     00 38 0D F2 | 	cmp	local08, #0 wz
036b8     96 00 01 56 |  if_ne	mov	result1, local02
036bc     E8 00 90 5D |  if_ne	jmp	#LR__0254
036c0                 | LR__0243
036c0     02 2E 45 F5 | 	or	local03, #2
036c4     00 20 05 F6 | 	mov	arg01, #0
036c8     00 22 05 F6 | 	mov	arg02, #0
036cc     99 24 01 F6 | 	mov	arg03, local05
036d0     97 26 01 F6 | 	mov	arg04, local03
036d4     74 13 B0 FD | 	call	#__system__pack_0256
036d8     CC 00 90 FD | 	jmp	#LR__0254
036dc                 | LR__0244
036dc     00 32 0D F2 | 	cmp	local05, #0 wz
036e0     10 00 90 5D |  if_ne	jmp	#LR__0245
036e4     00 30 0D F2 | 	cmp	local04, #0 wz
036e8     00 F8 3F AF 
036ec     00 00 05 A6 |  if_e	mov	result1, ##2146435072
036f0     B4 00 90 AD |  if_e	jmp	#LR__0254
036f4                 | LR__0245
036f4     00 38 0D F2 | 	cmp	local08, #0 wz
036f8     96 00 01 56 |  if_ne	mov	result1, local02
036fc     A8 00 90 5D |  if_ne	jmp	#LR__0254
03700     9E 24 01 F6 | 	mov	arg03, local10
03704     97 26 01 F6 | 	mov	arg04, local03
03708     02 26 45 F5 | 	or	arg04, #2
0370c     00 20 05 F6 | 	mov	arg01, #0
03710     00 22 05 F6 | 	mov	arg02, #0
03714     34 13 B0 FD | 	call	#__system__pack_0256
03718     8C 00 90 FD | 	jmp	#LR__0254
0371c                 | LR__0246
0371c     00 30 0D F2 | 	cmp	local04, #0 wz
03720     24 00 90 AD |  if_e	jmp	#LR__0249
03724     01 30 65 F0 | 	shl	local04, #1
03728     E8 C8 9F FE | 	loc	pa,	#(@LR__0248-@LR__0247)
0372c     35 00 A0 FD | 	call	#FCACHE_LOAD_
03730                 | LR__0247
03730     00 40 00 FF 
03734     00 30 1D F2 | 	cmp	local04, ##8388608 wcz
03738     01 32 85 C1 |  if_b	sub	local05, #1
0373c     01 30 65 C0 |  if_b	shl	local04, #1
03740     EC FF 9F CD |  if_b	jmp	#LR__0247
03744                 | LR__0248
03744     C0 FE 9F FD | 	jmp	#LR__0238
03748                 | LR__0249
03748     08 2E 45 F5 | 	or	local03, #8
0374c     00 20 05 F6 | 	mov	arg01, #0
03750     00 22 05 F6 | 	mov	arg02, #0
03754     00 24 05 F6 | 	mov	arg03, #0
03758     97 26 01 F6 | 	mov	arg04, local03
0375c     EC 12 B0 FD | 	call	#__system__pack_0256
03760     44 00 90 FD | 	jmp	#LR__0254
03764                 | LR__0250
03764     00 38 0D F2 | 	cmp	local08, #0 wz
03768     24 00 90 AD |  if_e	jmp	#LR__0253
0376c     01 38 65 F0 | 	shl	local08, #1
03770     A0 C8 9F FE | 	loc	pa,	#(@LR__0252-@LR__0251)
03774     35 00 A0 FD | 	call	#FCACHE_LOAD_
03778                 | LR__0251
03778     00 40 00 FF 
0377c     00 38 1D F2 | 	cmp	local08, ##8388608 wcz
03780     01 3C 85 C1 |  if_b	sub	local10, #1
03784     01 38 65 C0 |  if_b	shl	local08, #1
03788     EC FF 9F CD |  if_b	jmp	#LR__0251
0378c                 | LR__0252
0378c     84 FE 9F FD | 	jmp	#LR__0239
03790                 | LR__0253
03790     97 26 01 F6 | 	mov	arg04, local03
03794     08 26 45 F5 | 	or	arg04, #8
03798     00 20 05 F6 | 	mov	arg01, #0
0379c     00 22 05 F6 | 	mov	arg02, #0
037a0     00 24 05 F6 | 	mov	arg03, #0
037a4     A4 12 B0 FD | 	call	#__system__pack_0256
037a8                 | LR__0254
037a8     46 F0 03 F6 | 	mov	ptra, fp
037ac     5A 00 A0 FD | 	call	#popregs_
037b0                 | __system___float_mul_ret
037b0     2D 00 64 FD | 	ret
037b4                 | 
037b4                 | __system___float_div
037b4     0F 88 04 F6 | 	mov	COUNT_, #15
037b8     4B 00 A0 FD | 	call	#pushregs_
037bc     90 2E 01 F6 | 	mov	local03, arg01
037c0     91 30 01 F6 | 	mov	local04, arg02
037c4     97 32 01 F6 | 	mov	local05, local03
037c8     99 34 01 F6 | 	mov	local06, local05
037cc     16 34 45 F7 | 	zerox	local06, #22
037d0     99 36 01 F6 | 	mov	local07, local05
037d4     01 36 65 F0 | 	shl	local07, #1
037d8     18 36 45 F0 | 	shr	local07, #24
037dc     1F 32 45 F0 | 	shr	local05, #31
037e0     98 00 01 F6 | 	mov	result1, local04
037e4     80 38 01 F6 | 	mov	local08, result1
037e8     9C 3A 01 F6 | 	mov	local09, local08
037ec     16 3A 45 F7 | 	zerox	local09, #22
037f0     9C 3C 01 F6 | 	mov	local10, local08
037f4     01 3C 65 F0 | 	shl	local10, #1
037f8     18 3C 45 F0 | 	shr	local10, #24
037fc     1F 38 45 F0 | 	shr	local08, #31
03800     9C 32 61 F5 | 	xor	local05, local08
03804     FF 36 0D F2 | 	cmp	local07, #255 wz
03808     D8 00 90 AD |  if_e	jmp	#LR__0260
0380c     FF 3C 0D F2 | 	cmp	local10, #255 wz
03810     08 01 90 AD |  if_e	jmp	#LR__0261
03814     00 36 0D F2 | 	cmp	local07, #0 wz
03818     28 01 90 AD |  if_e	jmp	#LR__0262
0381c     17 34 25 F4 | 	bith	local06, #23
03820                 | LR__0255
03820     00 3C 0D F2 | 	cmp	local10, #0 wz
03824     7C 01 90 AD |  if_e	jmp	#LR__0267
03828     17 3A 25 F4 | 	bith	local09, #23
0382c                 | LR__0256
0382c     9E 36 81 F1 | 	sub	local07, local10
03830     9B 3E 01 F6 | 	mov	local11, local07
03834     9A 20 01 F6 | 	mov	arg01, local06
03838     02 20 45 F0 | 	shr	arg01, #2
0383c     1E 34 65 F0 | 	shl	local06, #30
03840     9A 22 01 F6 | 	mov	arg02, local06
03844     9D 24 01 F6 | 	mov	arg03, local09
03848     28 20 61 FD | 	setq	arg01
0384c     92 22 11 FD | 	qdiv	arg02, arg03
03850     18 00 61 FD | 	getqx	result1
03854     19 02 61 FD | 	getqy	result2
03858     80 2A 01 F6 | 	mov	local01, result1
0385c     81 2C 01 F6 | 	mov	local02, result2
03860     95 40 01 F6 | 	mov	local12, local01
03864     96 42 09 F6 | 	mov	local13, local02 wz
03868     A0 44 01 F6 | 	mov	local14, local12
0386c     19 44 65 F0 | 	shl	local14, #25
03870     00 46 05 F6 | 	mov	local15, #0
03874     01 46 05 56 |  if_ne	mov	local15, #1
03878     A3 44 41 F5 | 	or	local14, local15
0387c     07 40 45 F0 | 	shr	local12, #7
03880     00 80 00 FF 
03884     00 40 1D F2 | 	cmp	local12, ##16777216 wcz
03888     1C 00 90 CD |  if_b	jmp	#LR__0257
0388c     01 3E 05 F1 | 	add	local11, #1
03890     01 44 45 F0 | 	shr	local14, #1
03894     A0 46 01 F6 | 	mov	local15, local12
03898     1F 46 65 F0 | 	shl	local15, #31
0389c     A3 44 41 F5 | 	or	local14, local15
038a0     01 40 45 F0 | 	shr	local12, #1
038a4     24 00 90 FD | 	jmp	#LR__0259
038a8                 | LR__0257
038a8     00 40 00 FF 
038ac     00 40 1D F2 | 	cmp	local12, ##8388608 wcz
038b0     18 00 90 3D |  if_ae	jmp	#LR__0258
038b4     01 3E 85 F1 | 	sub	local11, #1
038b8     01 40 65 F0 | 	shl	local12, #1
038bc     A2 46 01 F6 | 	mov	local15, local14
038c0     1F 46 45 F0 | 	shr	local15, #31
038c4     A3 40 41 F5 | 	or	local12, local15
038c8     01 44 65 F0 | 	shl	local14, #1
038cc                 | LR__0258
038cc                 | LR__0259
038cc     A0 20 01 F6 | 	mov	arg01, local12
038d0     A2 22 01 F6 | 	mov	arg02, local14
038d4     9F 24 01 F6 | 	mov	arg03, local11
038d8     99 26 01 F6 | 	mov	arg04, local05
038dc     6C 11 B0 FD | 	call	#__system__pack_0256
038e0     04 01 90 FD | 	jmp	#LR__0271
038e4                 | LR__0260
038e4     00 34 0D F2 | 	cmp	local06, #0 wz
038e8     97 00 01 56 |  if_ne	mov	result1, local03
038ec     F8 00 90 5D |  if_ne	jmp	#LR__0271
038f0     FF 3C 0D F2 | 	cmp	local10, #255 wz
038f4     00 F8 3F AF 
038f8     00 00 05 A6 |  if_e	mov	result1, ##2146435072
038fc     E8 00 90 AD |  if_e	jmp	#LR__0271
03900     02 32 45 F5 | 	or	local05, #2
03904     00 20 05 F6 | 	mov	arg01, #0
03908     00 22 05 F6 | 	mov	arg02, #0
0390c     9B 24 01 F6 | 	mov	arg03, local07
03910     99 26 01 F6 | 	mov	arg04, local05
03914     34 11 B0 FD | 	call	#__system__pack_0256
03918     CC 00 90 FD | 	jmp	#LR__0271
0391c                 | LR__0261
0391c     00 3A 0D F2 | 	cmp	local09, #0 wz
03920     98 00 01 56 |  if_ne	mov	result1, local04
03924     C0 00 90 5D |  if_ne	jmp	#LR__0271
03928     99 26 01 F6 | 	mov	arg04, local05
0392c     08 26 45 F5 | 	or	arg04, #8
03930     00 20 05 F6 | 	mov	arg01, #0
03934     00 22 05 F6 | 	mov	arg02, #0
03938     00 24 05 F6 | 	mov	arg03, #0
0393c     0C 11 B0 FD | 	call	#__system__pack_0256
03940     A4 00 90 FD | 	jmp	#LR__0271
03944                 | LR__0262
03944     00 34 0D F2 | 	cmp	local06, #0 wz
03948     24 00 90 AD |  if_e	jmp	#LR__0265
0394c     01 34 65 F0 | 	shl	local06, #1
03950     C0 C6 9F FE | 	loc	pa,	#(@LR__0264-@LR__0263)
03954     35 00 A0 FD | 	call	#FCACHE_LOAD_
03958                 | LR__0263
03958     00 40 00 FF 
0395c     00 34 1D F2 | 	cmp	local06, ##8388608 wcz
03960     01 36 85 C1 |  if_b	sub	local07, #1
03964     01 34 65 C0 |  if_b	shl	local06, #1
03968     EC FF 9F CD |  if_b	jmp	#LR__0263
0396c                 | LR__0264
0396c     B0 FE 9F FD | 	jmp	#LR__0255
03970                 | LR__0265
03970     00 3C 0D F2 | 	cmp	local10, #0 wz
03974     10 00 90 5D |  if_ne	jmp	#LR__0266
03978     00 3A 0D F2 | 	cmp	local09, #0 wz
0397c     00 F8 3F AF 
03980     00 00 05 A6 |  if_e	mov	result1, ##2146435072
03984     60 00 90 AD |  if_e	jmp	#LR__0271
03988                 | LR__0266
03988     99 26 01 F6 | 	mov	arg04, local05
0398c     08 26 45 F5 | 	or	arg04, #8
03990     00 20 05 F6 | 	mov	arg01, #0
03994     00 22 05 F6 | 	mov	arg02, #0
03998     00 24 05 F6 | 	mov	arg03, #0
0399c     AC 10 B0 FD | 	call	#__system__pack_0256
039a0     44 00 90 FD | 	jmp	#LR__0271
039a4                 | LR__0267
039a4     00 3A 0D F2 | 	cmp	local09, #0 wz
039a8     24 00 90 AD |  if_e	jmp	#LR__0270
039ac     01 3A 65 F0 | 	shl	local09, #1
039b0     60 C6 9F FE | 	loc	pa,	#(@LR__0269-@LR__0268)
039b4     35 00 A0 FD | 	call	#FCACHE_LOAD_
039b8                 | LR__0268
039b8     00 40 00 FF 
039bc     00 3A 1D F2 | 	cmp	local09, ##8388608 wcz
039c0     01 3C 85 C1 |  if_b	sub	local10, #1
039c4     01 3A 65 C0 |  if_b	shl	local09, #1
039c8     EC FF 9F CD |  if_b	jmp	#LR__0268
039cc                 | LR__0269
039cc     5C FE 9F FD | 	jmp	#LR__0256
039d0                 | LR__0270
039d0     99 26 01 F6 | 	mov	arg04, local05
039d4     02 26 45 F5 | 	or	arg04, #2
039d8     00 20 05 F6 | 	mov	arg01, #0
039dc     00 22 05 F6 | 	mov	arg02, #0
039e0     00 24 05 F6 | 	mov	arg03, #0
039e4     64 10 B0 FD | 	call	#__system__pack_0256
039e8                 | LR__0271
039e8     46 F0 03 F6 | 	mov	ptra, fp
039ec     5A 00 A0 FD | 	call	#popregs_
039f0                 | __system___float_div_ret
039f0     2D 00 64 FD | 	ret
039f4                 | 
039f4                 | __system___float_cmp
039f4     90 0E 01 F6 | 	mov	_var01, arg01
039f8     00 C0 3F FF 
039fc     00 0E 5D F2 | 	cmps	_var01, ##2139095040 wcz
03a00     0C 00 90 1D |  if_a	jmp	#LR__0272
03a04     00 C0 3F FF 
03a08     00 22 5D F2 | 	cmps	arg02, ##2139095040 wcz
03a0c     08 00 90 ED |  if_be	jmp	#LR__0273
03a10                 | LR__0272
03a10     92 00 01 F6 | 	mov	result1, arg03
03a14     88 00 90 FD | 	jmp	#__system___float_cmp_ret
03a18                 | LR__0273
03a18     00 C0 7F FF 
03a1c     00 0E 1D F2 | 	cmp	_var01, ##-8388608 wcz
03a20     0C 00 90 1D |  if_a	jmp	#LR__0274
03a24     00 C0 7F FF 
03a28     00 0E 1D F2 | 	cmp	_var01, ##-8388608 wcz
03a2c     08 00 90 ED |  if_be	jmp	#LR__0275
03a30                 | LR__0274
03a30     92 00 01 F6 | 	mov	result1, arg03
03a34     68 00 90 FD | 	jmp	#__system___float_cmp_ret
03a38                 | LR__0275
03a38     00 0E 5D F2 | 	cmps	_var01, #0 wcz
03a3c     30 00 90 3D |  if_ae	jmp	#LR__0277
03a40     00 22 5D F2 | 	cmps	arg02, #0 wcz
03a44     91 00 01 C6 |  if_b	mov	result1, arg02
03a48     87 00 81 C1 |  if_b	sub	result1, _var01
03a4c     50 00 90 CD |  if_b	jmp	#__system___float_cmp_ret
03a50     00 22 0D F2 | 	cmp	arg02, #0 wz
03a54     10 00 90 5D |  if_ne	jmp	#LR__0276
03a58     00 00 40 FF 
03a5c     00 0E 0D F2 | 	cmp	_var01, ##-2147483648 wz
03a60     00 00 05 A6 |  if_e	mov	result1, #0
03a64     38 00 90 AD |  if_e	jmp	#__system___float_cmp_ret
03a68                 | LR__0276
03a68     01 00 65 F6 | 	neg	result1, #1
03a6c     30 00 90 FD | 	jmp	#__system___float_cmp_ret
03a70                 | LR__0277
03a70     00 22 5D F2 | 	cmps	arg02, #0 wcz
03a74     20 00 90 3D |  if_ae	jmp	#LR__0279
03a78     00 0E 0D F2 | 	cmp	_var01, #0 wz
03a7c     10 00 90 5D |  if_ne	jmp	#LR__0278
03a80     00 00 40 FF 
03a84     00 22 0D F2 | 	cmp	arg02, ##-2147483648 wz
03a88     00 00 05 A6 |  if_e	mov	result1, #0
03a8c     10 00 90 AD |  if_e	jmp	#__system___float_cmp_ret
03a90                 | LR__0278
03a90     01 00 05 F6 | 	mov	result1, #1
03a94     08 00 90 FD | 	jmp	#__system___float_cmp_ret
03a98                 | LR__0279
03a98     91 0E 81 F1 | 	sub	_var01, arg02
03a9c     87 00 01 F6 | 	mov	result1, _var01
03aa0                 | __system___float_cmp_ret
03aa0     2D 00 64 FD | 	ret
03aa4                 | 
03aa4                 | __system___float_tointeger
03aa4     04 88 04 F6 | 	mov	COUNT_, #4
03aa8     4B 00 A0 FD | 	call	#pushregs_
03aac     91 2A 01 F6 | 	mov	local01, arg02
03ab0     54 00 B0 FD | 	call	#__system___float_Unpack
03ab4     81 2C 01 F6 | 	mov	local02, result2
03ab8     82 2E 01 F6 | 	mov	local03, result3
03abc     FF FF 7F FF 
03ac0     FF 2D 5D F2 | 	cmps	local02, ##-1 wcz
03ac4     30 00 90 CD |  if_b	jmp	#LR__0280
03ac8     1E 2C 5D F2 | 	cmps	local02, #30 wcz
03acc     28 00 90 1D |  if_a	jmp	#LR__0280
03ad0     02 2E 65 F0 | 	shl	local03, #2
03ad4     1E 30 05 F6 | 	mov	local04, #30
03ad8     96 30 81 F1 | 	sub	local04, local02
03adc     98 2E 41 F0 | 	shr	local03, local04
03ae0     95 2E 01 F1 | 	add	local03, local01
03ae4     01 2E 45 F0 | 	shr	local03, #1
03ae8     00 00 0D F2 | 	cmp	result1, #0 wz
03aec     97 2E 61 56 |  if_ne	neg	local03, local03
03af0     97 00 01 F6 | 	mov	result1, local03
03af4     04 00 90 FD | 	jmp	#LR__0281
03af8                 | LR__0280
03af8     00 00 05 F6 | 	mov	result1, #0
03afc                 | LR__0281
03afc     46 F0 03 F6 | 	mov	ptra, fp
03b00     5A 00 A0 FD | 	call	#popregs_
03b04                 | __system___float_tointeger_ret
03b04     2D 00 64 FD | 	ret
03b08                 | 
03b08                 | __system___float_Unpack
03b08     90 0E 01 F6 | 	mov	_var01, arg01
03b0c     1F 0E 45 F0 | 	shr	_var01, #31
03b10     90 10 01 F6 | 	mov	_var02, arg01
03b14     01 10 65 F0 | 	shl	_var02, #1
03b18     18 10 4D F0 | 	shr	_var02, #24 wz
03b1c     FF 3F 00 FF 
03b20     FF 21 05 F5 | 	and	arg01, ##8388607
03b24     06 20 65 50 |  if_ne	shl	arg01, #6
03b28     1D 20 25 54 |  if_ne	bith	arg01, #29
03b2c     20 00 90 5D |  if_ne	jmp	#LR__0282
03b30     90 12 01 F6 | 	mov	_var03, arg01
03b34     89 12 91 F7 | 	encod	_var03, _var03 wc
03b38     01 12 05 C1 |  if_b	add	_var03, #1
03b3c     17 12 85 F1 | 	sub	_var03, #23
03b40     89 10 01 F6 | 	mov	_var02, _var03
03b44     07 14 05 F6 | 	mov	_var04, #7
03b48     89 14 81 F1 | 	sub	_var04, _var03
03b4c     8A 20 61 F0 | 	shl	arg01, _var04
03b50                 | LR__0282
03b50     7F 10 85 F1 | 	sub	_var02, #127
03b54     90 04 01 F6 | 	mov	result3, arg01
03b58     87 00 01 F6 | 	mov	result1, _var01
03b5c     88 02 01 F6 | 	mov	result2, _var02
03b60                 | __system___float_Unpack_ret
03b60     2D 00 64 FD | 	ret
03b64                 | 
03b64                 | __system___float_Pack
03b64     00 0E 05 F6 | 	mov	_var01, #0
03b68     00 24 0D F2 | 	cmp	arg03, #0 wz
03b6c     90 00 90 AD |  if_e	jmp	#LR__0284
03b70     92 10 01 F6 | 	mov	_var02, arg03
03b74     88 10 91 F7 | 	encod	_var02, _var02 wc
03b78     01 10 05 C1 |  if_b	add	_var02, #1
03b7c     21 0E 05 F6 | 	mov	_var01, #33
03b80     88 0E 81 F1 | 	sub	_var01, _var02
03b84     87 24 61 F0 | 	shl	arg03, _var01
03b88     03 10 05 F6 | 	mov	_var02, #3
03b8c     87 10 81 F1 | 	sub	_var02, _var01
03b90     88 22 01 F1 | 	add	arg02, _var02
03b94     91 12 01 F6 | 	mov	_var03, arg02
03b98     00 25 05 F1 | 	add	arg03, #256
03b9c     92 14 01 F6 | 	mov	_var04, arg03
03ba0     FF 14 2D F5 | 	andn	_var04, #255 wz
03ba4     01 12 05 A1 |  if_e	add	_var03, #1
03ba8     7F 12 05 F1 | 	add	_var03, #127
03bac     FF FF 7F FF 
03bb0     E9 13 45 F3 | 	fges	_var03, ##-23
03bb4     FF 12 65 F3 | 	fles	_var03, #255
03bb8     01 12 5D F2 | 	cmps	_var03, #1 wcz
03bbc     1C 00 90 3D |  if_ae	jmp	#LR__0283
03bc0     01 24 45 F0 | 	shr	arg03, #1
03bc4     1F 14 C5 F9 | 	decod	_var04, #31
03bc8     92 14 01 F1 | 	add	_var04, arg03
03bcc     89 12 61 F6 | 	neg	_var03, _var03
03bd0     89 14 41 F0 | 	shr	_var04, _var03
03bd4     8A 24 01 F6 | 	mov	arg03, _var04
03bd8     00 12 05 F6 | 	mov	_var03, #0
03bdc                 | LR__0283
03bdc     90 00 01 F6 | 	mov	result1, arg01
03be0     1F 00 65 F0 | 	shl	result1, #31
03be4     89 10 01 F6 | 	mov	_var02, _var03
03be8     17 10 65 F0 | 	shl	_var02, #23
03bec     88 00 41 F5 | 	or	result1, _var02
03bf0     92 16 01 F6 | 	mov	_var05, arg03
03bf4     09 16 45 F0 | 	shr	_var05, #9
03bf8     8B 00 41 F5 | 	or	result1, _var05
03bfc     04 00 90 FD | 	jmp	#__system___float_Pack_ret
03c00                 | LR__0284
03c00     87 00 01 F6 | 	mov	result1, _var01
03c04                 | __system___float_Pack_ret
03c04     2D 00 64 FD | 	ret
03c08                 | 
03c08                 | __system____builtin_ilogb
03c08     02 88 04 F6 | 	mov	COUNT_, #2
03c0c     4B 00 A0 FD | 	call	#pushregs_
03c10     F4 FE BF FD | 	call	#__system___float_Unpack
03c14     81 2A 01 F6 | 	mov	local01, result2
03c18     82 2C 09 F6 | 	mov	local02, result3 wz
03c1c     00 00 40 AF 
03c20     01 00 05 A6 |  if_e	mov	result1, ##-2147483647
03c24     24 00 90 AD |  if_e	jmp	#LR__0286
03c28     80 2A 0D F2 | 	cmp	local01, #128 wz
03c2c     18 00 90 5D |  if_ne	jmp	#LR__0285
03c30     00 00 10 FF 
03c34     00 2C 0D F2 | 	cmp	local02, ##536870912 wz
03c38     1E 00 CD A9 |  if_e	bmask	result1, #30
03c3c     0C 00 90 AD |  if_e	jmp	#LR__0286
03c40     1F 00 C5 F9 | 	decod	result1, #31
03c44     04 00 90 FD | 	jmp	#LR__0286
03c48                 | LR__0285
03c48     95 00 01 F6 | 	mov	result1, local01
03c4c                 | LR__0286
03c4c     46 F0 03 F6 | 	mov	ptra, fp
03c50     5A 00 A0 FD | 	call	#popregs_
03c54                 | __system____builtin_ilogb_ret
03c54     2D 00 64 FD | 	ret
03c58                 | 
03c58                 | __system___float_pow_n
03c58     05 88 04 F6 | 	mov	COUNT_, #5
03c5c     4B 00 A0 FD | 	call	#pushregs_
03c60     90 2A 01 F6 | 	mov	local01, arg01
03c64     91 2C 01 F6 | 	mov	local02, arg02
03c68     92 2E 01 F6 | 	mov	local03, arg03
03c6c     00 2E 5D F2 | 	cmps	local03, #0 wcz
03c70     18 00 90 3D |  if_ae	jmp	#LR__0287
03c74     01 30 05 F6 | 	mov	local04, #1
03c78     97 2E 61 F6 | 	neg	local03, local03
03c7c     00 2E 5D F2 | 	cmps	local03, #0 wcz
03c80     00 00 05 C6 |  if_b	mov	result1, #0
03c84     94 00 90 CD |  if_b	jmp	#LR__0295
03c88     04 00 90 FD | 	jmp	#LR__0288
03c8c                 | LR__0287
03c8c     00 30 05 F6 | 	mov	local04, #0
03c90                 | LR__0288
03c90     00 C0 1F FF 
03c94     00 32 05 F6 | 	mov	local05, ##1065353216
03c98                 | LR__0289
03c98     00 2E 5D F2 | 	cmps	local03, #0 wcz
03c9c     30 00 90 ED |  if_be	jmp	#LR__0291
03ca0     01 2E CD F7 | 	test	local03, #1 wz
03ca4     10 00 90 AD |  if_e	jmp	#LR__0290
03ca8     99 20 01 F6 | 	mov	arg01, local05
03cac     96 22 01 F6 | 	mov	arg02, local02
03cb0     D8 F8 BF FD | 	call	#__system___float_mul
03cb4     80 32 01 F6 | 	mov	local05, result1
03cb8                 | LR__0290
03cb8     01 2E C5 F0 | 	sar	local03, #1
03cbc     96 20 01 F6 | 	mov	arg01, local02
03cc0     96 22 01 F6 | 	mov	arg02, local02
03cc4     C4 F8 BF FD | 	call	#__system___float_mul
03cc8     80 2C 01 F6 | 	mov	local02, result1
03ccc     C8 FF 9F FD | 	jmp	#LR__0289
03cd0                 | LR__0291
03cd0     00 30 0D F2 | 	cmp	local04, #0 wz
03cd4     14 00 90 AD |  if_e	jmp	#LR__0292
03cd8     95 20 01 F6 | 	mov	arg01, local01
03cdc     99 22 01 F6 | 	mov	arg02, local05
03ce0     D0 FA BF FD | 	call	#__system___float_div
03ce4     80 32 01 F6 | 	mov	local05, result1
03ce8     2C 00 90 FD | 	jmp	#LR__0294
03cec                 | LR__0292
03cec     95 20 01 F6 | 	mov	arg01, local01
03cf0     00 C0 1F FF 
03cf4     00 22 05 F6 | 	mov	arg02, ##1065353216
03cf8     01 24 05 F6 | 	mov	arg03, #1
03cfc     F4 FC BF FD | 	call	#__system___float_cmp
03d00     00 00 0D F2 | 	cmp	result1, #0 wz
03d04     10 00 90 AD |  if_e	jmp	#LR__0293
03d08     95 20 01 F6 | 	mov	arg01, local01
03d0c     99 22 01 F6 | 	mov	arg02, local05
03d10     78 F8 BF FD | 	call	#__system___float_mul
03d14     80 32 01 F6 | 	mov	local05, result1
03d18                 | LR__0293
03d18                 | LR__0294
03d18     99 00 01 F6 | 	mov	result1, local05
03d1c                 | LR__0295
03d1c     46 F0 03 F6 | 	mov	ptra, fp
03d20     5A 00 A0 FD | 	call	#popregs_
03d24                 | __system___float_pow_n_ret
03d24     2D 00 64 FD | 	ret
03d28                 | 
03d28                 | __system___gc_ptrs
03d28     75 0E 01 F6 | 	mov	_var01, __heap_ptr
03d2c     87 10 01 F6 | 	mov	_var02, _var01
03d30     07 00 00 FF 
03d34     F8 11 05 F1 | 	add	_var02, ##4088
03d38     87 12 09 FB | 	rdlong	_var03, _var01 wz
03d3c     74 00 90 5D |  if_ne	jmp	#LR__0296
03d40     88 14 01 F6 | 	mov	_var04, _var02
03d44     87 14 81 F1 | 	sub	_var04, _var01
03d48     87 02 58 FC | 	wrword	#1, _var01
03d4c     87 12 01 F6 | 	mov	_var03, _var01
03d50     02 12 05 F1 | 	add	_var03, #2
03d54     36 00 80 FF 
03d58     89 20 59 FC | 	wrword	##27792, _var03
03d5c     87 12 01 F6 | 	mov	_var03, _var01
03d60     04 12 05 F1 | 	add	_var03, #4
03d64     89 00 58 FC | 	wrword	#0, _var03
03d68     87 12 01 F6 | 	mov	_var03, _var01
03d6c     06 12 05 F1 | 	add	_var03, #6
03d70     89 02 58 FC | 	wrword	#1, _var03
03d74     10 0E 05 F1 | 	add	_var01, #16
03d78     8A 12 51 F6 | 	abs	_var03, _var04 wc
03d7c     04 12 45 F0 | 	shr	_var03, #4
03d80     89 12 61 C6 |  if_b	neg	_var03, _var03
03d84     87 12 51 FC | 	wrword	_var03, _var01
03d88     87 12 01 F6 | 	mov	_var03, _var01
03d8c     02 12 05 F1 | 	add	_var03, #2
03d90     36 00 80 FF 
03d94     89 1E 59 FC | 	wrword	##27791, _var03
03d98     87 12 01 F6 | 	mov	_var03, _var01
03d9c     04 12 05 F1 | 	add	_var03, #4
03da0     89 00 58 FC | 	wrword	#0, _var03
03da4     87 12 01 F6 | 	mov	_var03, _var01
03da8     06 12 05 F1 | 	add	_var03, #6
03dac     89 00 58 FC | 	wrword	#0, _var03
03db0     10 0E 85 F1 | 	sub	_var01, #16
03db4                 | LR__0296
03db4     88 02 01 F6 | 	mov	result2, _var02
03db8     87 00 01 F6 | 	mov	result1, _var01
03dbc                 | __system___gc_ptrs_ret
03dbc     2D 00 64 FD | 	ret
03dc0                 | 
03dc0                 | __system___gc_nextBlockPtr
03dc0     02 88 04 F6 | 	mov	COUNT_, #2
03dc4     4B 00 A0 FD | 	call	#pushregs_
03dc8     90 2A 01 F6 | 	mov	local01, arg01
03dcc     95 2C E9 FA | 	rdword	local02, local01 wz
03dd0     10 00 90 5D |  if_ne	jmp	#LR__0297
03dd4     26 00 00 FF 
03dd8     74 20 05 F6 | 	mov	arg01, ##@LR__0376
03ddc     FC 01 B0 FD | 	call	#__system___gc_errmsg
03de0     0C 00 90 FD | 	jmp	#LR__0298
03de4                 | LR__0297
03de4     95 00 01 F6 | 	mov	result1, local01
03de8     04 2C 65 F0 | 	shl	local02, #4
03dec     96 00 01 F1 | 	add	result1, local02
03df0                 | LR__0298
03df0     46 F0 03 F6 | 	mov	ptra, fp
03df4     5A 00 A0 FD | 	call	#popregs_
03df8                 | __system___gc_nextBlockPtr_ret
03df8     2D 00 64 FD | 	ret
03dfc                 | 
03dfc                 | __system___gc_tryalloc
03dfc     0E 88 04 F6 | 	mov	COUNT_, #14
03e00     4B 00 A0 FD | 	call	#pushregs_
03e04     90 2A 01 F6 | 	mov	local01, arg01
03e08     91 2C 01 F6 | 	mov	local02, arg02
03e0c     18 FF BF FD | 	call	#__system___gc_ptrs
03e10     80 2E 01 F6 | 	mov	local03, result1
03e14     81 30 01 F6 | 	mov	local04, result2
03e18     97 32 01 F6 | 	mov	local05, local03
03e1c     00 34 05 F6 | 	mov	local06, #0
03e20     30 C2 9F FE | 	loc	pa,	#(@LR__0300-@LR__0299)
03e24     35 00 A0 FD | 	call	#FCACHE_LOAD_
03e28                 | LR__0299
03e28     99 36 01 F6 | 	mov	local07, local05
03e2c     97 38 01 F6 | 	mov	local08, local03
03e30     99 3A 01 F6 | 	mov	local09, local05
03e34     06 3A 05 F1 | 	add	local09, #6
03e38     9D 3C E1 FA | 	rdword	local10, local09
03e3c     9C 20 01 F6 | 	mov	arg01, local08
03e40     9E 22 09 F6 | 	mov	arg02, local10 wz
03e44     00 00 05 A6 |  if_e	mov	result1, #0
03e48     04 22 65 50 |  if_ne	shl	arg02, #4
03e4c     91 20 01 51 |  if_ne	add	arg01, arg02
03e50     90 00 01 56 |  if_ne	mov	result1, arg01
03e54     80 3E 01 F6 | 	mov	local11, result1
03e58     9F 32 09 F6 | 	mov	local05, local11 wz
03e5c     99 38 01 56 |  if_ne	mov	local08, local05
03e60     9C 34 E1 5A |  if_ne	rdword	local06, local08
03e64     00 32 0D F2 | 	cmp	local05, #0 wz
03e68     10 00 90 AD |  if_e	jmp	#LR__0301
03e6c     98 32 59 F2 | 	cmps	local05, local04 wcz
03e70     08 00 90 3D |  if_ae	jmp	#LR__0301
03e74     9A 2A 59 F2 | 	cmps	local01, local06 wcz
03e78     AC FF 9F 1D |  if_a	jmp	#LR__0299
03e7c                 | LR__0300
03e7c                 | LR__0301
03e7c     00 32 0D F2 | 	cmp	local05, #0 wz
03e80     99 00 01 A6 |  if_e	mov	result1, local05
03e84     48 01 90 AD |  if_e	jmp	#LR__0304
03e88     99 38 01 F6 | 	mov	local08, local05
03e8c     06 38 05 F1 | 	add	local08, #6
03e90     9C 40 E1 FA | 	rdword	local12, local08
03e94     9A 2A 59 F2 | 	cmps	local01, local06 wcz
03e98     C8 00 90 3D |  if_ae	jmp	#LR__0303
03e9c     99 2A 51 FC | 	wrword	local01, local05
03ea0     99 20 01 F6 | 	mov	arg01, local05
03ea4     95 3A 01 F6 | 	mov	local09, local01
03ea8     04 3A 65 F0 | 	shl	local09, #4
03eac     9D 20 01 F1 | 	add	arg01, local09
03eb0     9A 38 01 F6 | 	mov	local08, local06
03eb4     95 38 81 F1 | 	sub	local08, local01
03eb8     90 38 51 FC | 	wrword	local08, arg01
03ebc     90 38 01 F6 | 	mov	local08, arg01
03ec0     02 38 05 F1 | 	add	local08, #2
03ec4     36 00 80 FF 
03ec8     9C 1E 59 FC | 	wrword	##27791, local08
03ecc     99 22 09 F6 | 	mov	arg02, local05 wz
03ed0     00 00 05 A6 |  if_e	mov	result1, #0
03ed4     97 22 81 51 |  if_ne	sub	arg02, local03
03ed8     04 22 45 50 |  if_ne	shr	arg02, #4
03edc     91 00 01 56 |  if_ne	mov	result1, arg02
03ee0     90 3E 01 F6 | 	mov	local11, arg01
03ee4     04 3E 05 F1 | 	add	local11, #4
03ee8     9F 00 51 FC | 	wrword	result1, local11
03eec     99 38 01 F6 | 	mov	local08, local05
03ef0     06 38 05 F1 | 	add	local08, #6
03ef4     90 3A 01 F6 | 	mov	local09, arg01
03ef8     9C 3C E1 FA | 	rdword	local10, local08
03efc     06 3A 05 F1 | 	add	local09, #6
03f00     9D 3C 51 FC | 	wrword	local10, local09
03f04     90 42 01 F6 | 	mov	local13, arg01
03f08     A1 22 09 F6 | 	mov	arg02, local13 wz
03f0c     00 00 05 A6 |  if_e	mov	result1, #0
03f10     97 22 81 51 |  if_ne	sub	arg02, local03
03f14     04 22 45 50 |  if_ne	shr	arg02, #4
03f18     91 00 01 56 |  if_ne	mov	result1, arg02
03f1c     80 40 01 F6 | 	mov	local12, result1
03f20     9C FE BF FD | 	call	#__system___gc_nextBlockPtr
03f24     80 44 09 F6 | 	mov	local14, result1 wz
03f28     38 00 90 AD |  if_e	jmp	#LR__0302
03f2c     98 44 59 F2 | 	cmps	local14, local04 wcz
03f30     30 00 90 3D |  if_ae	jmp	#LR__0302
03f34     97 38 01 F6 | 	mov	local08, local03
03f38     A1 3A 01 F6 | 	mov	local09, local13
03f3c     9C 20 01 F6 | 	mov	arg01, local08
03f40     9D 22 09 F6 | 	mov	arg02, local09 wz
03f44     00 00 05 A6 |  if_e	mov	result1, #0
03f48     90 22 81 51 |  if_ne	sub	arg02, arg01
03f4c     04 22 45 50 |  if_ne	shr	arg02, #4
03f50     91 00 01 56 |  if_ne	mov	result1, arg02
03f54     80 3C 01 F6 | 	mov	local10, result1
03f58     A2 3E 01 F6 | 	mov	local11, local14
03f5c     04 3E 05 F1 | 	add	local11, #4
03f60     9F 3C 51 FC | 	wrword	local10, local11
03f64                 | LR__0302
03f64                 | LR__0303
03f64     06 36 05 F1 | 	add	local07, #6
03f68     9B 40 51 FC | 	wrword	local12, local07
03f6c     36 00 00 FF 
03f70     80 38 05 F6 | 	mov	local08, ##27776
03f74     96 38 41 F5 | 	or	local08, local02
03f78     01 00 61 FD | 	cogid	result1
03f7c     80 38 41 F5 | 	or	local08, result1
03f80     99 3C 01 F6 | 	mov	local10, local05
03f84     02 3C 05 F1 | 	add	local10, #2
03f88     9E 38 51 FC | 	wrword	local08, local10
03f8c     97 38 01 F6 | 	mov	local08, local03
03f90     08 38 05 F1 | 	add	local08, #8
03f94     99 3A 01 F6 | 	mov	local09, local05
03f98     9C 3C E1 FA | 	rdword	local10, local08
03f9c     06 3A 05 F1 | 	add	local09, #6
03fa0     9D 3C 51 FC | 	wrword	local10, local09
03fa4     99 22 09 F6 | 	mov	arg02, local05 wz
03fa8     00 00 05 A6 |  if_e	mov	result1, #0
03fac     97 22 81 51 |  if_ne	sub	arg02, local03
03fb0     04 22 45 50 |  if_ne	shr	arg02, #4
03fb4     91 00 01 56 |  if_ne	mov	result1, arg02
03fb8     08 2E 05 F1 | 	add	local03, #8
03fbc     97 00 51 FC | 	wrword	result1, local03
03fc0     08 32 05 F1 | 	add	local05, #8
03fc4     99 00 01 F6 | 	mov	result1, local05
03fc8     00 C0 31 FF 
03fcc     00 00 45 F5 | 	or	result1, ##1669332992
03fd0                 | LR__0304
03fd0     46 F0 03 F6 | 	mov	ptra, fp
03fd4     5A 00 A0 FD | 	call	#popregs_
03fd8                 | __system___gc_tryalloc_ret
03fd8     2D 00 64 FD | 	ret
03fdc                 | 
03fdc                 | __system___gc_errmsg
03fdc     02 88 04 F6 | 	mov	COUNT_, #2
03fe0     4B 00 A0 FD | 	call	#pushregs_
03fe4     90 2A 01 F6 | 	mov	local01, arg01
03fe8                 | LR__0305
03fe8     95 2C C9 FA | 	rdbyte	local02, local01 wz
03fec     01 2A 05 F1 | 	add	local01, #1
03ff0     0C 00 90 AD |  if_e	jmp	#LR__0306
03ff4     96 20 01 F6 | 	mov	arg01, local02
03ff8     D8 DB BF FD | 	call	#__system___tx
03ffc     E8 FF 9F FD | 	jmp	#LR__0305
04000                 | LR__0306
04000     00 00 05 F6 | 	mov	result1, #0
04004     46 F0 03 F6 | 	mov	ptra, fp
04008     5A 00 A0 FD | 	call	#popregs_
0400c                 | __system___gc_errmsg_ret
0400c     2D 00 64 FD | 	ret
04010                 | 
04010                 | __system___gc_alloc_managed
04010     02 88 04 F6 | 	mov	COUNT_, #2
04014     4B 00 A0 FD | 	call	#pushregs_
04018     90 2A 01 F6 | 	mov	local01, arg01
0401c     00 22 05 F6 | 	mov	arg02, #0
04020     30 00 B0 FD | 	call	#__system___gc_doalloc
04024     80 2C 09 F6 | 	mov	local02, result1 wz
04028     18 00 90 5D |  if_ne	jmp	#LR__0307
0402c     00 2A 5D F2 | 	cmps	local01, #0 wcz
04030     10 00 90 ED |  if_be	jmp	#LR__0307
04034     26 00 00 FF 
04038     90 20 05 F6 | 	mov	arg01, ##@LR__0377
0403c     9C FF BF FD | 	call	#__system___gc_errmsg
04040     04 00 90 FD | 	jmp	#LR__0308
04044                 | LR__0307
04044     96 00 01 F6 | 	mov	result1, local02
04048                 | LR__0308
04048     46 F0 03 F6 | 	mov	ptra, fp
0404c     5A 00 A0 FD | 	call	#popregs_
04050                 | __system___gc_alloc_managed_ret
04050     2D 00 64 FD | 	ret
04054                 | 
04054                 | __system___gc_doalloc
04054     06 88 04 F6 | 	mov	COUNT_, #6
04058     4B 00 A0 FD | 	call	#pushregs_
0405c     90 2A 09 F6 | 	mov	local01, arg01 wz
04060     91 2C 01 F6 | 	mov	local02, arg02
04064     00 00 05 A6 |  if_e	mov	result1, #0
04068     94 00 90 AD |  if_e	jmp	#LR__0316
0406c     17 2A 05 F1 | 	add	local01, #23
04070     0F 2A 25 F5 | 	andn	local01, #15
04074     04 2A 45 F0 | 	shr	local01, #4
04078     0C F8 04 F1 | 	add	ptr___system__dat__, #12
0407c     7C 20 01 F6 | 	mov	arg01, ptr___system__dat__
04080     0C F8 84 F1 | 	sub	ptr___system__dat__, #12
04084     10 DC BF FD | 	call	#__system___lockmem
04088     95 20 01 F6 | 	mov	arg01, local01
0408c     96 22 01 F6 | 	mov	arg02, local02
04090     68 FD BF FD | 	call	#__system___gc_tryalloc
04094     80 2E 09 F6 | 	mov	local03, result1 wz
04098     14 00 90 5D |  if_ne	jmp	#LR__0309
0409c     58 03 B0 FD | 	call	#__system___gc_docollect
040a0     95 20 01 F6 | 	mov	arg01, local01
040a4     96 22 01 F6 | 	mov	arg02, local02
040a8     50 FD BF FD | 	call	#__system___gc_tryalloc
040ac     80 2E 01 F6 | 	mov	local03, result1
040b0                 | LR__0309
040b0     0C F8 04 F1 | 	add	ptr___system__dat__, #12
040b4     7C 20 01 F6 | 	mov	arg01, ptr___system__dat__
040b8     0C F8 84 F1 | 	sub	ptr___system__dat__, #12
040bc     90 00 48 FC | 	wrbyte	#0, arg01
040c0     00 2E 0D F2 | 	cmp	local03, #0 wz
040c4     34 00 90 AD |  if_e	jmp	#LR__0315
040c8     04 2A 65 F0 | 	shl	local01, #4
040cc     08 2A 85 F1 | 	sub	local01, #8
040d0     95 30 51 F6 | 	abs	local04, local01 wc
040d4     02 30 45 F0 | 	shr	local04, #2
040d8     98 30 61 C6 |  if_b	neg	local04, local04
040dc     98 32 09 F6 | 	mov	local05, local04 wz
040e0     97 34 01 F6 | 	mov	local06, local03
040e4     14 00 90 AD |  if_e	jmp	#LR__0314
040e8     20 BF 9F FE | 	loc	pa,	#(@LR__0312-@LR__0310)
040ec     35 00 A0 FD | 	call	#FCACHE_LOAD_
040f0                 | LR__0310
040f0     99 04 D8 FC | 	rep	@LR__0313, local05
040f4                 | LR__0311
040f4     9A 00 68 FC | 	wrlong	#0, local06
040f8     04 34 05 F1 | 	add	local06, #4
040fc                 | LR__0312
040fc                 | LR__0313
040fc                 | LR__0314
040fc                 | LR__0315
040fc     97 00 01 F6 | 	mov	result1, local03
04100                 | LR__0316
04100     46 F0 03 F6 | 	mov	ptra, fp
04104     5A 00 A0 FD | 	call	#popregs_
04108                 | __system___gc_doalloc_ret
04108     2D 00 64 FD | 	ret
0410c                 | 
0410c                 | __system___gc_isvalidptr
0410c     92 0E 01 F6 | 	mov	_var01, arg03
04110     87 10 01 F6 | 	mov	_var02, _var01
04114     00 F8 7F FF 
04118     00 10 05 F5 | 	and	_var02, ##-1048576
0411c     00 C0 31 FF 
04120     00 10 0D F2 | 	cmp	_var02, ##1669332992 wz
04124     00 00 05 56 |  if_ne	mov	result1, #0
04128     5C 00 90 5D |  if_ne	jmp	#__system___gc_isvalidptr_ret
0412c     08 0E 85 F1 | 	sub	_var01, #8
04130     00 F8 7F FF 
04134     00 0E 25 F5 | 	andn	_var01, ##-1048576
04138     90 0E 59 F2 | 	cmps	_var01, arg01 wcz
0413c     08 00 90 CD |  if_b	jmp	#LR__0317
04140     91 0E 59 F2 | 	cmps	_var01, arg02 wcz
04144     08 00 90 CD |  if_b	jmp	#LR__0318
04148                 | LR__0317
04148     00 00 05 F6 | 	mov	result1, #0
0414c     38 00 90 FD | 	jmp	#__system___gc_isvalidptr_ret
04150                 | LR__0318
04150     87 10 01 F6 | 	mov	_var02, _var01
04154     90 10 61 F5 | 	xor	_var02, arg01
04158     0F 10 0D F5 | 	and	_var02, #15 wz
0415c     00 00 05 56 |  if_ne	mov	result1, #0
04160     24 00 90 5D |  if_ne	jmp	#__system___gc_isvalidptr_ret
04164     87 10 01 F6 | 	mov	_var02, _var01
04168     02 10 05 F1 | 	add	_var02, #2
0416c     88 10 E1 FA | 	rdword	_var02, _var02
04170     7F 00 00 FF 
04174     C0 11 05 F5 | 	and	_var02, ##65472
04178     36 00 00 FF 
0417c     80 10 0D F2 | 	cmp	_var02, ##27776 wz
04180     00 00 05 56 |  if_ne	mov	result1, #0
04184     87 00 01 A6 |  if_e	mov	result1, _var01
04188                 | __system___gc_isvalidptr_ret
04188     2D 00 64 FD | 	ret
0418c                 | 
0418c                 | __system___gc_dofree
0418c     0D 88 04 F6 | 	mov	COUNT_, #13
04190     4B 00 A0 FD | 	call	#pushregs_
04194     90 2A 01 F6 | 	mov	local01, arg01
04198     8C FB BF FD | 	call	#__system___gc_ptrs
0419c     80 2C 01 F6 | 	mov	local02, result1
041a0     81 2E 01 F6 | 	mov	local03, result2
041a4     95 30 01 F6 | 	mov	local04, local01
041a8     02 30 05 F1 | 	add	local04, #2
041ac     36 00 80 FF 
041b0     98 1E 59 FC | 	wrword	##27791, local04
041b4     95 32 01 F6 | 	mov	local05, local01
041b8     95 20 01 F6 | 	mov	arg01, local01
041bc     00 FC BF FD | 	call	#__system___gc_nextBlockPtr
041c0     80 34 01 F6 | 	mov	local06, result1
041c4     84 BE 9F FE | 	loc	pa,	#(@LR__0320-@LR__0319)
041c8     35 00 A0 FD | 	call	#FCACHE_LOAD_
041cc                 | LR__0319
041cc     04 32 05 F1 | 	add	local05, #4
041d0     99 22 E9 FA | 	rdword	arg02, local05 wz
041d4     96 20 01 F6 | 	mov	arg01, local02
041d8     00 00 05 A6 |  if_e	mov	result1, #0
041dc     04 22 65 50 |  if_ne	shl	arg02, #4
041e0     91 20 01 51 |  if_ne	add	arg01, arg02
041e4     90 00 01 56 |  if_ne	mov	result1, arg01
041e8     80 32 09 F6 | 	mov	local05, result1 wz
041ec     28 00 90 AD |  if_e	jmp	#LR__0321
041f0     99 20 01 F6 | 	mov	arg01, local05
041f4     00 36 05 F6 | 	mov	local07, #0
041f8     02 20 05 F1 | 	add	arg01, #2
041fc     90 38 E1 FA | 	rdword	local08, arg01
04200     36 00 00 FF 
04204     8F 38 0D F2 | 	cmp	local08, ##27791 wz
04208     01 36 65 A6 |  if_e	neg	local07, #1
0420c     9B 00 01 F6 | 	mov	result1, local07
04210     80 3A 09 F6 | 	mov	local09, result1 wz
04214     B4 FF 9F AD |  if_e	jmp	#LR__0319
04218                 | LR__0320
04218                 | LR__0321
04218     00 32 0D F2 | 	cmp	local05, #0 wz
0421c     96 32 01 A6 |  if_e	mov	local05, local02
04220     99 30 01 F6 | 	mov	local04, local05
04224     06 30 05 F1 | 	add	local04, #6
04228     95 3A 01 F6 | 	mov	local09, local01
0422c     98 3C E1 FA | 	rdword	local10, local04
04230     06 3A 05 F1 | 	add	local09, #6
04234     9D 3C 51 FC | 	wrword	local10, local09
04238     95 22 09 F6 | 	mov	arg02, local01 wz
0423c     00 00 05 A6 |  if_e	mov	result1, #0
04240     96 22 81 51 |  if_ne	sub	arg02, local02
04244     04 22 45 50 |  if_ne	shr	arg02, #4
04248     91 00 01 56 |  if_ne	mov	result1, arg02
0424c     80 3C 01 F6 | 	mov	local10, result1
04250     99 3E 01 F6 | 	mov	local11, local05
04254     06 3E 05 F1 | 	add	local11, #6
04258     9F 3C 51 FC | 	wrword	local10, local11
0425c     96 32 09 F2 | 	cmp	local05, local02 wz
04260     84 00 90 AD |  if_e	jmp	#LR__0324
04264     99 20 01 F6 | 	mov	arg01, local05
04268     54 FB BF FD | 	call	#__system___gc_nextBlockPtr
0426c     95 00 09 F2 | 	cmp	result1, local01 wz
04270     74 00 90 5D |  if_ne	jmp	#LR__0323
04274     99 30 E1 FA | 	rdword	local04, local05
04278     95 3E E1 FA | 	rdword	local11, local01
0427c     9F 30 01 F1 | 	add	local04, local11
04280     99 30 51 FC | 	wrword	local04, local05
04284     95 30 01 F6 | 	mov	local04, local01
04288     02 30 05 F1 | 	add	local04, #2
0428c     98 00 58 FC | 	wrword	#0, local04
04290     95 20 01 F6 | 	mov	arg01, local01
04294     28 FB BF FD | 	call	#__system___gc_nextBlockPtr
04298     80 34 01 F6 | 	mov	local06, result1
0429c     97 34 59 F2 | 	cmps	local06, local03 wcz
042a0     20 00 90 3D |  if_ae	jmp	#LR__0322
042a4     99 22 09 F6 | 	mov	arg02, local05 wz
042a8     00 00 05 A6 |  if_e	mov	result1, #0
042ac     96 22 81 51 |  if_ne	sub	arg02, local02
042b0     04 22 45 50 |  if_ne	shr	arg02, #4
042b4     91 00 01 56 |  if_ne	mov	result1, arg02
042b8     9A 3E 01 F6 | 	mov	local11, local06
042bc     04 3E 05 F1 | 	add	local11, #4
042c0     9F 00 51 FC | 	wrword	result1, local11
042c4                 | LR__0322
042c4     95 30 01 F6 | 	mov	local04, local01
042c8     06 30 05 F1 | 	add	local04, #6
042cc     99 3A 01 F6 | 	mov	local09, local05
042d0     98 3C E1 FA | 	rdword	local10, local04
042d4     06 3A 05 F1 | 	add	local09, #6
042d8     9D 3C 51 FC | 	wrword	local10, local09
042dc     06 2A 05 F1 | 	add	local01, #6
042e0     95 00 58 FC | 	wrword	#0, local01
042e4     99 2A 01 F6 | 	mov	local01, local05
042e8                 | LR__0323
042e8                 | LR__0324
042e8     95 20 01 F6 | 	mov	arg01, local01
042ec     D0 FA BF FD | 	call	#__system___gc_nextBlockPtr
042f0     80 40 09 F6 | 	mov	local12, result1 wz
042f4     C8 00 90 AD |  if_e	jmp	#LR__0326
042f8     97 40 59 F2 | 	cmps	local12, local03 wcz
042fc     C0 00 90 3D |  if_ae	jmp	#LR__0326
04300     A0 20 01 F6 | 	mov	arg01, local12
04304     00 36 05 F6 | 	mov	local07, #0
04308     02 20 05 F1 | 	add	arg01, #2
0430c     90 38 E1 FA | 	rdword	local08, arg01
04310     36 00 00 FF 
04314     8F 38 0D F2 | 	cmp	local08, ##27791 wz
04318     01 36 65 A6 |  if_e	neg	local07, #1
0431c     9B 00 09 F6 | 	mov	result1, local07 wz
04320     9C 00 90 AD |  if_e	jmp	#LR__0326
04324     95 32 01 F6 | 	mov	local05, local01
04328     99 30 E1 FA | 	rdword	local04, local05
0432c     A0 2A 01 F6 | 	mov	local01, local12
04330     95 3E E1 FA | 	rdword	local11, local01
04334     9F 30 01 F1 | 	add	local04, local11
04338     99 42 01 F6 | 	mov	local13, local05
0433c     A1 30 51 FC | 	wrword	local04, local13
04340     95 30 01 F6 | 	mov	local04, local01
04344     06 30 05 F1 | 	add	local04, #6
04348     99 3A 01 F6 | 	mov	local09, local05
0434c     98 3C E1 FA | 	rdword	local10, local04
04350     06 3A 05 F1 | 	add	local09, #6
04354     9D 3C 51 FC | 	wrword	local10, local09
04358     95 30 01 F6 | 	mov	local04, local01
0435c     02 30 05 F1 | 	add	local04, #2
04360     98 54 59 FC | 	wrword	#170, local04
04364     95 30 01 F6 | 	mov	local04, local01
04368     06 30 05 F1 | 	add	local04, #6
0436c     98 00 58 FC | 	wrword	#0, local04
04370     95 30 01 F6 | 	mov	local04, local01
04374     98 20 01 F6 | 	mov	arg01, local04
04378     44 FA BF FD | 	call	#__system___gc_nextBlockPtr
0437c     80 3A 01 F6 | 	mov	local09, result1
04380     9D 34 09 F6 | 	mov	local06, local09 wz
04384     38 00 90 AD |  if_e	jmp	#LR__0325
04388     97 34 59 F2 | 	cmps	local06, local03 wcz
0438c     30 00 90 3D |  if_ae	jmp	#LR__0325
04390     96 30 01 F6 | 	mov	local04, local02
04394     99 3A 01 F6 | 	mov	local09, local05
04398     98 20 01 F6 | 	mov	arg01, local04
0439c     9D 22 09 F6 | 	mov	arg02, local09 wz
043a0     00 00 05 A6 |  if_e	mov	result1, #0
043a4     90 22 81 51 |  if_ne	sub	arg02, arg01
043a8     04 22 45 50 |  if_ne	shr	arg02, #4
043ac     91 00 01 56 |  if_ne	mov	result1, arg02
043b0     80 3C 01 F6 | 	mov	local10, result1
043b4     9A 3E 01 F6 | 	mov	local11, local06
043b8     04 3E 05 F1 | 	add	local11, #4
043bc     9F 3C 51 FC | 	wrword	local10, local11
043c0                 | LR__0325
043c0                 | LR__0326
043c0     9A 00 01 F6 | 	mov	result1, local06
043c4     46 F0 03 F6 | 	mov	ptra, fp
043c8     5A 00 A0 FD | 	call	#popregs_
043cc                 | __system___gc_dofree_ret
043cc     2D 00 64 FD | 	ret
043d0                 | 
043d0                 | __system____topofstack
043d0     00 88 04 F6 | 	mov	COUNT_, #0
043d4     4B 00 A0 FD | 	call	#pushregs_
043d8     08 F0 07 F1 | 	add	ptra, #8
043dc     04 8C 04 F1 | 	add	fp, #4
043e0     46 20 61 FC | 	wrlong	arg01, fp
043e4     46 00 01 F6 | 	mov	result1, fp
043e8     04 8C 84 F1 | 	sub	fp, #4
043ec     46 F0 03 F6 | 	mov	ptra, fp
043f0     5A 00 A0 FD | 	call	#popregs_
043f4                 | __system____topofstack_ret
043f4     2D 00 64 FD | 	ret
043f8                 | 
043f8                 | __system___gc_docollect
043f8     09 88 04 F6 | 	mov	COUNT_, #9
043fc     4B 00 A0 FD | 	call	#pushregs_
04400     24 F9 BF FD | 	call	#__system___gc_ptrs
04404     81 2A 01 F6 | 	mov	local01, result2
04408     80 2C 01 F6 | 	mov	local02, result1
0440c     96 20 01 F6 | 	mov	arg01, local02
04410     AC F9 BF FD | 	call	#__system___gc_nextBlockPtr
04414     80 2E 09 F6 | 	mov	local03, result1 wz
04418     01 00 61 FD | 	cogid	result1
0441c     80 30 01 F6 | 	mov	local04, result1
04420     34 00 90 AD |  if_e	jmp	#LR__0328
04424                 | LR__0327
04424     95 2E 59 F2 | 	cmps	local03, local01 wcz
04428     2C 00 90 3D |  if_ae	jmp	#LR__0328
0442c     97 32 01 F6 | 	mov	local05, local03
04430     02 32 05 F1 | 	add	local05, #2
04434     99 34 E1 FA | 	rdword	local06, local05
04438     20 34 25 F5 | 	andn	local06, #32
0443c     97 36 01 F6 | 	mov	local07, local03
04440     02 36 05 F1 | 	add	local07, #2
04444     9B 34 51 FC | 	wrword	local06, local07
04448     97 20 01 F6 | 	mov	arg01, local03
0444c     70 F9 BF FD | 	call	#__system___gc_nextBlockPtr
04450     80 2E 09 F6 | 	mov	local03, result1 wz
04454     CC FF 9F 5D |  if_ne	jmp	#LR__0327
04458                 | LR__0328
04458     00 34 05 F6 | 	mov	local06, #0
0445c     00 20 05 F6 | 	mov	arg01, #0
04460     6C FF BF FD | 	call	#__system____topofstack
04464     80 36 01 F6 | 	mov	local07, result1
04468     9A 20 01 F6 | 	mov	arg01, local06
0446c     9B 22 01 F6 | 	mov	arg02, local07
04470     A0 00 B0 FD | 	call	#__system___gc_markhub
04474     34 01 B0 FD | 	call	#__system___gc_markcog
04478     96 20 01 F6 | 	mov	arg01, local02
0447c     40 F9 BF FD | 	call	#__system___gc_nextBlockPtr
04480     80 38 09 F6 | 	mov	local08, result1 wz
04484     10 00 90 5D |  if_ne	jmp	#LR__0329
04488     26 00 00 FF 
0448c     AD 20 05 F6 | 	mov	arg01, ##@LR__0378
04490     48 FB BF FD | 	call	#__system___gc_errmsg
04494     70 00 90 FD | 	jmp	#LR__0335
04498                 | LR__0329
04498                 | LR__0330
04498     9C 2E 01 F6 | 	mov	local03, local08
0449c     97 20 01 F6 | 	mov	arg01, local03
044a0     1C F9 BF FD | 	call	#__system___gc_nextBlockPtr
044a4     80 38 01 F6 | 	mov	local08, result1
044a8     97 34 01 F6 | 	mov	local06, local03
044ac     02 34 05 F1 | 	add	local06, #2
044b0     9A 3A E1 FA | 	rdword	local09, local06
044b4     20 3A CD F7 | 	test	local09, #32 wz
044b8     3C 00 90 5D |  if_ne	jmp	#LR__0333
044bc     9D 32 01 F6 | 	mov	local05, local09
044c0     10 32 0D F5 | 	and	local05, #16 wz
044c4     30 00 90 5D |  if_ne	jmp	#LR__0333
044c8     9D 34 01 F6 | 	mov	local06, local09
044cc     0F 34 05 F5 | 	and	local06, #15
044d0     9A 3A 01 F6 | 	mov	local09, local06
044d4     98 3A 09 F2 | 	cmp	local09, local04 wz
044d8     08 00 90 AD |  if_e	jmp	#LR__0331
044dc     0E 3A 0D F2 | 	cmp	local09, #14 wz
044e0     14 00 90 5D |  if_ne	jmp	#LR__0332
044e4                 | LR__0331
044e4     97 34 01 F6 | 	mov	local06, local03
044e8     9A 20 01 F6 | 	mov	arg01, local06
044ec     9C FC BF FD | 	call	#__system___gc_dofree
044f0     80 32 01 F6 | 	mov	local05, result1
044f4     99 38 01 F6 | 	mov	local08, local05
044f8                 | LR__0332
044f8                 | LR__0333
044f8     00 38 0D F2 | 	cmp	local08, #0 wz
044fc     08 00 90 AD |  if_e	jmp	#LR__0334
04500     95 38 59 F2 | 	cmps	local08, local01 wcz
04504     90 FF 9F CD |  if_b	jmp	#LR__0330
04508                 | LR__0334
04508                 | LR__0335
04508     46 F0 03 F6 | 	mov	ptra, fp
0450c     5A 00 A0 FD | 	call	#popregs_
04510                 | __system___gc_docollect_ret
04510     2D 00 64 FD | 	ret
04514                 | 
04514                 | __system___gc_markhub
04514     0A 88 04 F6 | 	mov	COUNT_, #10
04518     4B 00 A0 FD | 	call	#pushregs_
0451c     90 2A 01 F6 | 	mov	local01, arg01
04520     91 2C 01 F6 | 	mov	local02, arg02
04524     00 F8 BF FD | 	call	#__system___gc_ptrs
04528     80 2E 01 F6 | 	mov	local03, result1
0452c     81 30 01 F6 | 	mov	local04, result2
04530                 | LR__0336
04530     96 2A 59 F2 | 	cmps	local01, local02 wcz
04534     68 00 90 3D |  if_ae	jmp	#LR__0337
04538     95 24 01 FB | 	rdlong	arg03, local01
0453c     04 2A 05 F1 | 	add	local01, #4
04540     97 20 01 F6 | 	mov	arg01, local03
04544     98 22 01 F6 | 	mov	arg02, local04
04548     C0 FB BF FD | 	call	#__system___gc_isvalidptr
0454c     80 32 09 F6 | 	mov	local05, result1 wz
04550     DC FF 9F AD |  if_e	jmp	#LR__0336
04554     99 20 01 F6 | 	mov	arg01, local05
04558     00 34 05 F6 | 	mov	local06, #0
0455c     02 20 05 F1 | 	add	arg01, #2
04560     90 36 E1 FA | 	rdword	local07, arg01
04564     36 00 00 FF 
04568     8F 36 0D F2 | 	cmp	local07, ##27791 wz
0456c     01 34 65 A6 |  if_e	neg	local06, #1
04570     9A 00 01 F6 | 	mov	result1, local06
04574     80 38 09 F6 | 	mov	local08, result1 wz
04578     B4 FF 9F 5D |  if_ne	jmp	#LR__0336
0457c     99 3A 01 F6 | 	mov	local09, local05
04580     02 3A 05 F1 | 	add	local09, #2
04584     9D 3C E1 FA | 	rdword	local10, local09
04588     0F 3C 25 F5 | 	andn	local10, #15
0458c     2E 3C 45 F5 | 	or	local10, #46
04590     99 3A 01 F6 | 	mov	local09, local05
04594     02 3A 05 F1 | 	add	local09, #2
04598     9D 3C 51 FC | 	wrword	local10, local09
0459c     90 FF 9F FD | 	jmp	#LR__0336
045a0                 | LR__0337
045a0     46 F0 03 F6 | 	mov	ptra, fp
045a4     5A 00 A0 FD | 	call	#popregs_
045a8                 | __system___gc_markhub_ret
045a8     2D 00 64 FD | 	ret
045ac                 | 
045ac                 | __system___gc_markcog
045ac     06 88 04 F6 | 	mov	COUNT_, #6
045b0     4B 00 A0 FD | 	call	#pushregs_
045b4     70 F7 BF FD | 	call	#__system___gc_ptrs
045b8     80 2A 01 F6 | 	mov	local01, result1
045bc     81 2C 01 F6 | 	mov	local02, result2
045c0     00 2E 05 F6 | 	mov	local03, #0
045c4                 | LR__0338
045c4     F0 31 05 F6 | 	mov	local04, #496
045c8     97 30 81 F1 | 	sub	local04, local03
045cc     F0 33 05 F6 | 	mov	local05, #496
045d0     98 32 01 F1 | 	add	local05, local04
045d4                 | 	'.live	local05
045d4     00 32 95 F9 | 	alts	local05, #0
045d8     99 34 01 F6 | 	mov	local06, local05
045dc     95 20 01 F6 | 	mov	arg01, local01
045e0     96 22 01 F6 | 	mov	arg02, local02
045e4     9A 24 01 F6 | 	mov	arg03, local06
045e8     20 FB BF FD | 	call	#__system___gc_isvalidptr
045ec     80 34 09 F6 | 	mov	local06, result1 wz
045f0     18 00 90 AD |  if_e	jmp	#LR__0339
045f4     9A 30 01 F6 | 	mov	local04, local06
045f8     02 30 05 F1 | 	add	local04, #2
045fc     98 32 E1 FA | 	rdword	local05, local04
04600     20 32 45 F5 | 	or	local05, #32
04604     02 34 05 F1 | 	add	local06, #2
04608     9A 32 51 FC | 	wrword	local05, local06
0460c                 | LR__0339
0460c     01 2E 05 F1 | 	add	local03, #1
04610     F0 2F 5D F2 | 	cmps	local03, #496 wcz
04614     AC FF 9F CD |  if_b	jmp	#LR__0338
04618     46 F0 03 F6 | 	mov	ptra, fp
0461c     5A 00 A0 FD | 	call	#popregs_
04620                 | __system___gc_markcog_ret
04620     2D 00 64 FD | 	ret
04624                 | 
04624                 | __system___strrev
04624     90 0E C9 FA | 	rdbyte	_var01, arg01 wz
04628     40 00 90 AD |  if_e	jmp	#__system___strrev_ret
0462c     90 10 01 F6 | 	mov	_var02, arg01
04630     D8 B9 9F FE | 	loc	pa,	#(@LR__0341-@LR__0340)
04634     35 00 A0 FD | 	call	#FCACHE_LOAD_
04638                 | LR__0340
04638     88 0E C9 FA | 	rdbyte	_var01, _var02 wz
0463c     01 10 05 51 |  if_ne	add	_var02, #1
04640     F4 FF 9F 5D |  if_ne	jmp	#LR__0340
04644                 | LR__0341
04644     01 10 85 F1 | 	sub	_var02, #1
04648                 | LR__0342
04648     90 10 59 F2 | 	cmps	_var02, arg01 wcz
0464c     1C 00 90 ED |  if_be	jmp	#LR__0343
04650     90 12 C1 FA | 	rdbyte	_var03, arg01
04654     88 14 C1 FA | 	rdbyte	_var04, _var02
04658     90 14 41 FC | 	wrbyte	_var04, arg01
0465c     88 12 41 FC | 	wrbyte	_var03, _var02
04660     01 20 05 F1 | 	add	arg01, #1
04664     01 10 85 F1 | 	sub	_var02, #1
04668     DC FF 9F FD | 	jmp	#LR__0342
0466c                 | LR__0343
0466c                 | __system___strrev_ret
0466c     2D 00 64 FD | 	ret
04670                 | 
04670                 | __system___fmtpad
04670     0C 88 04 F6 | 	mov	COUNT_, #12
04674     4B 00 A0 FD | 	call	#pushregs_
04678     90 2A 01 F6 | 	mov	local01, arg01
0467c     91 2C 01 F6 | 	mov	local02, arg02
04680     93 2E 01 F6 | 	mov	local03, arg04
04684     96 30 E9 F8 | 	getbyte	local04, local02, #1
04688     16 2C 45 F0 | 	shr	local02, #22
0468c     03 2C 0D F5 | 	and	local02, #3 wz
04690     00 32 05 F6 | 	mov	local05, #0
04694     01 2C 05 A6 |  if_e	mov	local02, #1
04698     97 2C C9 F7 | 	test	local02, local03 wz
0469c     00 00 05 A6 |  if_e	mov	result1, #0
046a0     84 00 90 AD |  if_e	jmp	#LR__0347
046a4     92 30 81 F1 | 	sub	local04, arg03
046a8     98 34 01 F6 | 	mov	local06, local04
046ac     00 34 5D F2 | 	cmps	local06, #0 wcz
046b0     00 00 05 E6 |  if_be	mov	result1, #0
046b4     70 00 90 ED |  if_be	jmp	#LR__0347
046b8     03 2C 0D F2 | 	cmp	local02, #3 wz
046bc     18 00 90 5D |  if_ne	jmp	#LR__0344
046c0     01 2E 0D F2 | 	cmp	local03, #1 wz
046c4     6E 36 61 FD | 	wrz	local07
046c8     9B 34 01 F1 | 	add	local06, local07
046cc     9A 34 51 F6 | 	abs	local06, local06 wc
046d0     01 34 45 F0 | 	shr	local06, #1
046d4     9A 34 61 C6 |  if_b	neg	local06, local06
046d8                 | LR__0344
046d8     00 38 05 F6 | 	mov	local08, #0
046dc                 | LR__0345
046dc     9A 38 59 F2 | 	cmps	local08, local06 wcz
046e0     40 00 90 3D |  if_ae	jmp	#LR__0346
046e4     95 3A 01 F6 | 	mov	local09, local01
046e8     9D 36 01 FB | 	rdlong	local07, local09
046ec     04 3A 05 F1 | 	add	local09, #4
046f0     9D 3C 01 FB | 	rdlong	local10, local09
046f4     20 20 05 F6 | 	mov	arg01, #32
046f8     79 3E 01 F6 | 	mov	local11, objptr
046fc     9B F2 00 F6 | 	mov	objptr, local07
04700     2D 3C 61 FD | 	call	local10
04704     9F F2 00 F6 | 	mov	objptr, local11
04708     80 40 01 F6 | 	mov	local12, result1
0470c     00 40 5D F2 | 	cmps	local12, #0 wcz
04710     A0 00 01 C6 |  if_b	mov	result1, local12
04714     10 00 90 CD |  if_b	jmp	#LR__0347
04718     A0 32 01 F1 | 	add	local05, local12
0471c     01 38 05 F1 | 	add	local08, #1
04720     B8 FF 9F FD | 	jmp	#LR__0345
04724                 | LR__0346
04724     99 00 01 F6 | 	mov	result1, local05
04728                 | LR__0347
04728     46 F0 03 F6 | 	mov	ptra, fp
0472c     5A 00 A0 FD | 	call	#popregs_
04730                 | __system___fmtpad_ret
04730     2D 00 64 FD | 	ret
04734                 | 
04734                 | __system___uitoa
04734     09 88 04 F6 | 	mov	COUNT_, #9
04738     4B 00 A0 FD | 	call	#pushregs_
0473c     90 2A 01 F6 | 	mov	local01, arg01
04740     91 2C 01 F6 | 	mov	local02, arg02
04744     92 2E 01 F6 | 	mov	local03, arg03
04748     93 30 01 F6 | 	mov	local04, arg04
0474c     94 32 09 F6 | 	mov	local05, arg05 wz
04750     95 34 01 F6 | 	mov	local06, local01
04754     00 36 05 F6 | 	mov	local07, #0
04758     37 38 05 56 |  if_ne	mov	local08, #55
0475c     57 38 05 A6 |  if_e	mov	local08, #87
04760                 | LR__0348
04760     96 56 01 F6 | 	mov	muldiva_, local02
04764     97 58 01 F6 | 	mov	muldivb_, local03
04768     67 00 A0 FD | 	call	#unsdivide_
0476c     AB 3A 01 F6 | 	mov	local09, muldiva_
04770     0A 3A 1D F2 | 	cmp	local09, #10 wcz
04774     30 3A 05 C1 |  if_b	add	local09, #48
04778     9C 3A 01 31 |  if_ae	add	local09, local08
0477c     9A 3A 41 FC | 	wrbyte	local09, local06
04780     96 56 01 F6 | 	mov	muldiva_, local02
04784     97 58 01 F6 | 	mov	muldivb_, local03
04788     01 34 05 F1 | 	add	local06, #1
0478c     67 00 A0 FD | 	call	#unsdivide_
04790     AC 2C 01 F6 | 	mov	local02, muldivb_
04794     01 36 05 F1 | 	add	local07, #1
04798     00 2C 1D F2 | 	cmp	local02, #0 wcz
0479c     C0 FF 9F 1D |  if_a	jmp	#LR__0348
047a0     98 36 19 F2 | 	cmp	local07, local04 wcz
047a4     B8 FF 9F CD |  if_b	jmp	#LR__0348
047a8     9A 00 48 FC | 	wrbyte	#0, local06
047ac     95 20 01 F6 | 	mov	arg01, local01
047b0     70 FE BF FD | 	call	#__system___strrev
047b4     9B 00 01 F6 | 	mov	result1, local07
047b8     46 F0 03 F6 | 	mov	ptra, fp
047bc     5A 00 A0 FD | 	call	#popregs_
047c0                 | __system___uitoa_ret
047c0     2D 00 64 FD | 	ret
047c4                 | 
047c4                 | __system__disassemble_0186
047c4     16 88 04 F6 | 	mov	COUNT_, #22
047c8     4B 00 A0 FD | 	call	#pushregs_
047cc     90 2A 01 F6 | 	mov	local01, arg01
047d0     91 2C 01 F6 | 	mov	local02, arg02
047d4     92 2E 01 F6 | 	mov	local03, arg03
047d8     93 30 01 F6 | 	mov	local04, arg04
047dc     94 32 01 F6 | 	mov	local05, arg05
047e0     99 20 01 F6 | 	mov	arg01, local05
047e4     64 EA BF FD | 	call	#__system___float_fromint
047e8     80 34 01 F6 | 	mov	local06, result1
047ec     00 36 05 F6 | 	mov	local07, #0
047f0     01 38 05 F6 | 	mov	local08, #1
047f4     95 20 01 F6 | 	mov	arg01, local01
047f8     00 22 05 F6 | 	mov	arg02, #0
047fc     01 24 05 F6 | 	mov	arg03, #1
04800     F0 F1 BF FD | 	call	#__system___float_cmp
04804     96 00 68 AC |  if_e	wrlong	#0, local02
04808     80 3A 09 F6 | 	mov	local09, result1 wz
0480c     97 00 68 AC |  if_e	wrlong	#0, local03
04810     F8 01 90 AD |  if_e	jmp	#LR__0360
04814     95 20 01 F6 | 	mov	arg01, local01
04818     EC F3 BF FD | 	call	#__system____builtin_ilogb
0481c     80 3C 01 F6 | 	mov	local10, result1
04820     0A 32 0D F2 | 	cmp	local05, #10 wz
04824     20 00 90 5D |  if_ne	jmp	#LR__0349
04828     9E 56 01 F6 | 	mov	muldiva_, local10
0482c     01 56 65 F0 | 	shl	muldiva_, #1
04830     9E 56 01 F1 | 	add	muldiva_, local10
04834     0A 58 05 F6 | 	mov	muldivb_, #10
04838     6B 00 A0 FD | 	call	#divide_
0483c     AC 3C 01 F6 | 	mov	local10, muldivb_
04840     09 3E 05 F6 | 	mov	local11, #9
04844     04 00 90 FD | 	jmp	#LR__0350
04848                 | LR__0349
04848     18 3E 05 F6 | 	mov	local11, #24
0484c                 | LR__0350
0484c                 | LR__0351
0484c     08 36 5D F2 | 	cmps	local07, #8 wcz
04850     01 36 05 F1 | 	add	local07, #1
04854     74 00 90 3D |  if_ae	jmp	#LR__0352
04858     00 C0 1F FF 
0485c     00 20 05 F6 | 	mov	arg01, ##1065353216
04860     9A 22 01 F6 | 	mov	arg02, local06
04864     9E 24 01 F6 | 	mov	arg03, local10
04868     EC F3 BF FD | 	call	#__system___float_pow_n
0486c     80 40 01 F6 | 	mov	local12, result1
04870     95 20 01 F6 | 	mov	arg01, local01
04874     A0 22 01 F6 | 	mov	arg02, local12
04878     38 EF BF FD | 	call	#__system___float_div
0487c     80 42 01 F6 | 	mov	local13, result1
04880     A1 20 01 F6 | 	mov	arg01, local13
04884     01 38 05 F6 | 	mov	local08, #1
04888     00 C0 1F FF 
0488c     00 22 05 F6 | 	mov	arg02, ##1065353216
04890     01 24 05 F6 | 	mov	arg03, #1
04894     5C F1 BF FD | 	call	#__system___float_cmp
04898     80 3A 01 F6 | 	mov	local09, result1
0489c     00 3A 5D F2 | 	cmps	local09, #0 wcz
048a0     01 3C 85 C1 |  if_b	sub	local10, #1
048a4     A4 FF 9F CD |  if_b	jmp	#LR__0351
048a8     A1 20 01 F6 | 	mov	arg01, local13
048ac     9A 22 01 F6 | 	mov	arg02, local06
048b0     01 38 65 F6 | 	neg	local08, #1
048b4     01 24 65 F6 | 	neg	arg03, #1
048b8     38 F1 BF FD | 	call	#__system___float_cmp
048bc     80 3A 01 F6 | 	mov	local09, result1
048c0     00 3A 5D F2 | 	cmps	local09, #0 wcz
048c4     01 3C 05 31 |  if_ae	add	local10, #1
048c8     80 FF 9F 3D |  if_ae	jmp	#LR__0351
048cc                 | LR__0352
048cc     A1 20 01 F6 | 	mov	arg01, local13
048d0     34 F3 BF FD | 	call	#__system____builtin_ilogb
048d4     80 44 01 F6 | 	mov	local14, result1
048d8     A1 46 01 F6 | 	mov	local15, local13
048dc     A3 48 01 F6 | 	mov	local16, local15
048e0     FF 3F 00 FF 
048e4     FF 49 05 F5 | 	and	local16, ##8388607
048e8     17 48 25 F4 | 	bith	local16, #23
048ec     A2 48 61 F0 | 	shl	local16, local14
048f0     02 32 0D F2 | 	cmp	local05, #2 wz
048f4     02 30 65 A0 |  if_e	shl	local04, #2
048f8     00 4A 05 F6 | 	mov	local17, #0
048fc     00 30 5D F2 | 	cmps	local04, #0 wcz
04900     18 00 90 3D |  if_ae	jmp	#LR__0353
04904     9E 4C 01 F6 | 	mov	local18, local10
04908     98 4C 81 F1 | 	sub	local18, local04
0490c     A6 30 01 F6 | 	mov	local04, local18
04910     00 30 5D F2 | 	cmps	local04, #0 wcz
04914     EC 00 90 CD |  if_b	jmp	#LR__0359
04918     04 00 90 FD | 	jmp	#LR__0354
0491c                 | LR__0353
0491c     01 30 05 F1 | 	add	local04, #1
04920                 | LR__0354
04920     9F 30 79 F3 | 	fles	local04, local11 wcz
04924     01 4E 05 F6 | 	mov	local19, #1
04928                 | LR__0355
04928     00 40 00 FF 
0492c     00 4A 1D F2 | 	cmp	local17, ##8388608 wcz
04930     6C 00 90 3D |  if_ae	jmp	#LR__0356
04934     00 30 5D F2 | 	cmps	local04, #0 wcz
04938     01 30 85 F1 | 	sub	local04, #1
0493c     60 00 90 ED |  if_be	jmp	#LR__0356
04940     A4 20 01 F6 | 	mov	arg01, local16
04944     17 20 45 F0 | 	shr	arg01, #23
04948     B4 E8 BF FD | 	call	#__system___float_fromuns
0494c     80 50 01 F6 | 	mov	local20, result1
04950     FF 3F 00 FF 
04954     FF 49 05 F5 | 	and	local16, ##8388607
04958     99 4A 01 FD | 	qmul	local17, local05
0495c     18 20 61 FD | 	getqx	arg01
04960     99 4E 01 FD | 	qmul	local19, local05
04964     18 4E 61 FD | 	getqx	local19
04968     99 48 01 FD | 	qmul	local16, local05
0496c     18 48 61 FD | 	getqx	local16
04970     8C E8 BF FD | 	call	#__system___float_fromuns
04974     80 20 01 F6 | 	mov	arg01, result1
04978     A8 38 01 F6 | 	mov	local08, local20
0497c     9C 22 01 F6 | 	mov	arg02, local08
04980     00 E9 BF FD | 	call	#__system___float_add
04984     80 3A 01 F6 | 	mov	local09, result1
04988     9D 20 01 F6 | 	mov	arg01, local09
0498c     00 22 05 F6 | 	mov	arg02, #0
04990     10 F1 BF FD | 	call	#__system___float_tointeger
04994     80 52 01 F6 | 	mov	local21, result1
04998     A9 4A 01 F6 | 	mov	local17, local21
0499c     88 FF 9F FD | 	jmp	#LR__0355
049a0                 | LR__0356
049a0     99 4C 01 F6 | 	mov	local18, local05
049a4     17 4C 65 F0 | 	shl	local18, #23
049a8     A6 54 51 F6 | 	abs	local22, local18 wc
049ac     01 54 45 F0 | 	shr	local22, #1
049b0     AA 54 61 C6 |  if_b	neg	local22, local22
049b4     AA 48 19 F2 | 	cmp	local16, local22 wcz
049b8     28 00 90 1D |  if_a	jmp	#LR__0357
049bc     99 38 01 F6 | 	mov	local08, local05
049c0     17 38 65 F0 | 	shl	local08, #23
049c4     9C 3A 51 F6 | 	abs	local09, local08 wc
049c8     01 3A 45 F0 | 	shr	local09, #1
049cc     9D 3A 61 C6 |  if_b	neg	local09, local09
049d0     9D 48 09 F2 | 	cmp	local16, local09 wz
049d4     2C 00 90 5D |  if_ne	jmp	#LR__0358
049d8     A5 52 01 F6 | 	mov	local21, local17
049dc     01 52 0D F5 | 	and	local21, #1 wz
049e0     20 00 90 AD |  if_e	jmp	#LR__0358
049e4                 | LR__0357
049e4     A5 4C 01 F6 | 	mov	local18, local17
049e8     A5 54 01 F6 | 	mov	local22, local17
049ec     01 54 05 F1 | 	add	local22, #1
049f0     AA 4A 01 F6 | 	mov	local17, local22
049f4     A7 4A 09 F2 | 	cmp	local17, local19 wz
049f8     9E 4C 01 A6 |  if_e	mov	local18, local10
049fc     01 4C 05 A1 |  if_e	add	local18, #1
04a00     A6 3C 01 A6 |  if_e	mov	local10, local18
04a04                 | LR__0358
04a04                 | LR__0359
04a04     96 4A 61 FC | 	wrlong	local17, local02
04a08     97 3C 61 FC | 	wrlong	local10, local03
04a0c                 | LR__0360
04a0c     46 F0 03 F6 | 	mov	ptra, fp
04a10     5A 00 A0 FD | 	call	#popregs_
04a14                 | __system__disassemble_0186_ret
04a14     2D 00 64 FD | 	ret
04a18                 | 
04a18                 | __system__emitsign_0188
04a18     00 0E 05 F6 | 	mov	_var01, #0
04a1c     00 22 0D F2 | 	cmp	arg02, #0 wz
04a20     90 22 41 5C |  if_ne	wrbyte	arg02, arg01
04a24     01 0E 05 56 |  if_ne	mov	_var01, #1
04a28     01 20 05 51 |  if_ne	add	arg01, #1
04a2c     00 24 0D F2 | 	cmp	arg03, #0 wz
04a30     10 00 90 AD |  if_e	jmp	#LR__0361
04a34     90 60 48 FC | 	wrbyte	#48, arg01
04a38     01 20 05 F1 | 	add	arg01, #1
04a3c     90 24 41 FC | 	wrbyte	arg03, arg01
04a40     02 0E 05 F1 | 	add	_var01, #2
04a44                 | LR__0361
04a44     87 00 01 F6 | 	mov	result1, _var01
04a48                 | __system__emitsign_0188_ret
04a48     2D 00 64 FD | 	ret
04a4c                 | 
04a4c                 | __system__pack_0256
04a4c     08 88 04 F6 | 	mov	COUNT_, #8
04a50     4B 00 A0 FD | 	call	#pushregs_
04a54     90 2A 01 F6 | 	mov	local01, arg01
04a58     91 2C 01 F6 | 	mov	local02, arg02
04a5c     92 2E 01 F6 | 	mov	local03, arg03
04a60     93 30 01 F6 | 	mov	local04, arg04
04a64     7F 2E 05 F1 | 	add	local03, #127
04a68     04 30 CD F7 | 	test	local04, #4 wz
04a6c     10 00 90 AD |  if_e	jmp	#LR__0362
04a70     00 2A 0D F2 | 	cmp	local01, #0 wz
04a74     16 2A C5 A9 |  if_e	decod	local01, #22
04a78     F7 2A 25 F4 | 	bith	local01, #247
04a7c     C0 00 90 FD | 	jmp	#LR__0371
04a80                 | LR__0362
04a80     02 30 CD F7 | 	test	local04, #2 wz
04a84     00 C0 3F 5F 
04a88     00 2A 05 56 |  if_ne	mov	local01, ##2139095040
04a8c     00 2C 05 56 |  if_ne	mov	local02, #0
04a90     AC 00 90 5D |  if_ne	jmp	#LR__0370
04a94     98 32 01 F6 | 	mov	local05, local04
04a98     08 32 CD F7 | 	test	local05, #8 wz
04a9c     00 2A 05 56 |  if_ne	mov	local01, #0
04aa0     9C 00 90 5D |  if_ne	jmp	#LR__0369
04aa4     FF 2E 5D F2 | 	cmps	local03, #255 wcz
04aa8     00 C0 3F 3F 
04aac     00 2A 05 36 |  if_ae	mov	local01, ##2139095040
04ab0     00 2C 05 36 |  if_ae	mov	local02, #0
04ab4     88 00 90 3D |  if_ae	jmp	#LR__0368
04ab8     00 2E 5D F2 | 	cmps	local03, #0 wcz
04abc     70 00 90 1D |  if_a	jmp	#LR__0366
04ac0     01 2C 45 F0 | 	shr	local02, #1
04ac4     95 34 01 F6 | 	mov	local06, local01
04ac8     01 34 05 F5 | 	and	local06, #1
04acc     1F 34 65 F0 | 	shl	local06, #31
04ad0     9A 2C 41 F5 | 	or	local02, local06
04ad4     01 2A 45 F0 | 	shr	local01, #1
04ad8     60 B5 9F FE | 	loc	pa,	#(@LR__0364-@LR__0363)
04adc     35 00 A0 FD | 	call	#FCACHE_LOAD_
04ae0                 | LR__0363
04ae0     00 2E 5D F2 | 	cmps	local03, #0 wcz
04ae4     34 00 90 3D |  if_ae	jmp	#LR__0365
04ae8     00 2A 0D F2 | 	cmp	local01, #0 wz
04aec     2C 00 90 AD |  if_e	jmp	#LR__0365
04af0     96 36 01 F6 | 	mov	local07, local02
04af4     01 36 05 F5 | 	and	local07, #1
04af8     01 2E 05 F1 | 	add	local03, #1
04afc     01 2C 45 F0 | 	shr	local02, #1
04b00     95 34 01 F6 | 	mov	local06, local01
04b04     01 34 05 F5 | 	and	local06, #1
04b08     1F 34 65 F0 | 	shl	local06, #31
04b0c     9A 2C 41 F5 | 	or	local02, local06
04b10     9B 2C 41 F5 | 	or	local02, local07
04b14     01 2A 45 F0 | 	shr	local01, #1
04b18     C4 FF 9F FD | 	jmp	#LR__0363
04b1c                 | LR__0364
04b1c                 | LR__0365
04b1c     00 2E 5D F2 | 	cmps	local03, #0 wcz
04b20     1C 00 90 3D |  if_ae	jmp	#LR__0367
04b24     00 2C 0D F2 | 	cmp	local02, #0 wz
04b28     6F 2C 61 FD | 	wrnz	local02
04b2c     10 00 90 FD | 	jmp	#LR__0367
04b30                 | LR__0366
04b30     00 C0 7F FF 
04b34     00 2A 25 F5 | 	andn	local01, ##-8388608
04b38     17 2E 65 F0 | 	shl	local03, #23
04b3c     97 2A 41 F5 | 	or	local01, local03
04b40                 | LR__0367
04b40                 | LR__0368
04b40                 | LR__0369
04b40                 | LR__0370
04b40                 | LR__0371
04b40     01 2A CD F7 | 	test	local01, #1 wz
04b44     01 2C 45 55 |  if_ne	or	local02, #1
04b48     96 38 01 F6 | 	mov	local08, local02
04b4c     00 34 05 F6 | 	mov	local06, #0
04b50     FF FF 3F FF 
04b54     FF 2D 05 F1 | 	add	local02, ##2147483647
04b58     9C 2C 19 F2 | 	cmp	local02, local08 wcz
04b5c     01 34 05 C6 |  if_b	mov	local06, #1
04b60     9A 2A 01 F1 | 	add	local01, local06
04b64     01 30 CD F7 | 	test	local04, #1 wz
04b68     1F 2A 25 54 |  if_ne	bith	local01, #31
04b6c     95 00 01 F6 | 	mov	result1, local01
04b70     46 F0 03 F6 | 	mov	ptra, fp
04b74     5A 00 A0 FD | 	call	#popregs_
04b78                 | __system__pack_0256_ret
04b78     2D 00 64 FD | 	ret
04b7c                 | 
04b7c                 | ___struct_s_vfs_file_t_putchar
04b7c     04 88 04 F6 | 	mov	COUNT_, #4
04b80     4B 00 A0 FD | 	call	#pushregs_
04b84     14 F2 04 F1 | 	add	objptr, #20
04b88     79 2A 09 FB | 	rdlong	local01, objptr wz
04b8c     14 F2 84 F1 | 	sub	objptr, #20
04b90     00 00 05 A6 |  if_e	mov	result1, #0
04b94     3C 00 90 AD |  if_e	jmp	#LR__0372
04b98     14 F2 04 F1 | 	add	objptr, #20
04b9c     79 2A 01 FB | 	rdlong	local01, objptr
04ba0     14 F2 84 F1 | 	sub	objptr, #20
04ba4     95 2C 01 FB | 	rdlong	local02, local01
04ba8     04 2A 05 F1 | 	add	local01, #4
04bac     95 2E 01 FB | 	rdlong	local03, local01
04bb0     79 22 01 F6 | 	mov	arg02, objptr
04bb4     79 30 01 F6 | 	mov	local04, objptr
04bb8     96 F2 00 F6 | 	mov	objptr, local02
04bbc     2D 2E 61 FD | 	call	local03
04bc0     98 F2 00 F6 | 	mov	objptr, local04
04bc4     00 00 5D F2 | 	cmps	result1, #0 wcz
04bc8     00 2A 05 C6 |  if_b	mov	local01, #0
04bcc     01 2A 05 36 |  if_ae	mov	local01, #1
04bd0     95 00 01 F6 | 	mov	result1, local01
04bd4                 | LR__0372
04bd4     46 F0 03 F6 | 	mov	ptra, fp
04bd8     5A 00 A0 FD | 	call	#popregs_
04bdc                 | ___struct_s_vfs_file_t_putchar_ret
04bdc     2D 00 64 FD | 	ret
04be0                 | 
04be0                 | ___struct_s_vfs_file_t_getchar
04be0     04 88 04 F6 | 	mov	COUNT_, #4
04be4     4B 00 A0 FD | 	call	#pushregs_
04be8     18 F2 04 F1 | 	add	objptr, #24
04bec     79 2A 09 FB | 	rdlong	local01, objptr wz
04bf0     18 F2 84 F1 | 	sub	objptr, #24
04bf4     01 00 65 A6 |  if_e	neg	result1, #1
04bf8     2C 00 90 AD |  if_e	jmp	#LR__0373
04bfc                 | '         return getcf(__this);
04bfc     18 F2 04 F1 | 	add	objptr, #24
04c00     79 2A 01 FB | 	rdlong	local01, objptr
04c04     18 F2 84 F1 | 	sub	objptr, #24
04c08     95 2C 01 FB | 	rdlong	local02, local01
04c0c     04 2A 05 F1 | 	add	local01, #4
04c10     95 2E 01 FB | 	rdlong	local03, local01
04c14     79 20 01 F6 | 	mov	arg01, objptr
04c18     79 30 01 F6 | 	mov	local04, objptr
04c1c     96 F2 00 F6 | 	mov	objptr, local02
04c20     2D 2E 61 FD | 	call	local03
04c24     98 F2 00 F6 | 	mov	objptr, local04
04c28                 | LR__0373
04c28     46 F0 03 F6 | 	mov	ptra, fp
04c2c     5A 00 A0 FD | 	call	#popregs_
04c30                 | ___struct_s_vfs_file_t_getchar_ret
04c30     2D 00 64 FD | 	ret
04c34                 | 
04c34                 | ___struct__bas_wrap_sender_tx
04c34     04 88 04 F6 | 	mov	COUNT_, #4
04c38     4B 00 A0 FD | 	call	#pushregs_
04c3c     79 2A 01 FB | 	rdlong	local01, objptr
04c40     95 2C 01 FB | 	rdlong	local02, local01
04c44     04 2A 05 F1 | 	add	local01, #4
04c48     95 2E 01 FB | 	rdlong	local03, local01
04c4c     79 30 01 F6 | 	mov	local04, objptr
04c50     96 F2 00 F6 | 	mov	objptr, local02
04c54     2D 2E 61 FD | 	call	local03
04c58     98 F2 00 F6 | 	mov	objptr, local04
04c5c     01 00 05 F6 | 	mov	result1, #1
04c60     46 F0 03 F6 | 	mov	ptra, fp
04c64     5A 00 A0 FD | 	call	#popregs_
04c68                 | ___struct__bas_wrap_sender_tx_ret
04c68     2D 00 64 FD | 	ret
04c6c                 | 
04c6c                 | LR__0374
04c6c     69 6E 66    | 	byte	"inf"
04c6f     00          | 	byte	0
04c70                 | LR__0375
04c70     6E 61 6E    | 	byte	"nan"
04c73     00          | 	byte	0
04c74                 | LR__0376
04c74     20 21 21 21 
04c78     20 63 6F 72 
04c7c     72 75 70 74 
04c80     65 64 20 68 
04c84     65 61 70 3F 
04c88     3F 3F 20 21 
04c8c     21 21 20    | 	byte	" !!! corrupted heap??? !!! "
04c8f     00          | 	byte	0
04c90                 | LR__0377
04c90     20 21 21 21 
04c94     20 6F 75 74 
04c98     20 6F 66 20 
04c9c     68 65 61 70 
04ca0     20 6D 65 6D 
04ca4     6F 72 79 20 
04ca8     21 21 21 20 | 	byte	" !!! out of heap memory !!! "
04cac     00          | 	byte	0
04cad                 | LR__0378
04cad     20 21 21 21 
04cb1     20 63 6F 72 
04cb5     72 75 70 74 
04cb9     65 64 20 68 
04cbd     65 61 70 20 
04cc1     21 21 21 20 | 	byte	" !!! corrupted heap !!! "
04cc5     00          | 	byte	0
04cc6                 | LR__0379
04cc6     68 65 6C 6C 
04cca     6F 0A       | 	byte	"hello",10
04ccc     00          | 	byte	0
04ccd                 | LR__0380
04ccd     48 45 4C 4C 
04cd1     4F 0A       | 	byte	"HELLO",10
04cd3     00          | 	byte	0
04cd4                 | LR__0381
04cd4     3F 3F 3F    | 	byte	"???"
04cd7     00          | 	byte	0
04cd8                 | 	alignl
04cd8                 | _dat_
04cd8     00 00 00 00 
04cdc     00 00 00 00 | 	byte	$00[8]
04ce0     05 00 00 00 
04ce4     00 00 00 00 
04ce8     00 00 00 00 | 	byte	$05, $00, $00, $00, $00, $00, $00, $00, $00, $00, $00, $00
04cec     90 4E 00 00 | 	long	@@@_dat_ + 440
04cf0     98 4E 00 00 | 	long	@@@_dat_ + 448
04cf4     00 00 00 00 | 	byte	$00, $00, $00, $00
04cf8     A0 4E 00 00 | 	long	@@@_dat_ + 456
04cfc     A8 4E 00 00 | 	long	@@@_dat_ + 464
04d00     00 00 00 00 
04d04     00 00 00 00 | 	byte	$00[8]
04d08     01 00 00 00 
04d0c     06 00 00 00 
04d10     00 00 00 00 
04d14     00 00 00 00 | 	byte	$01, $00, $00, $00, $06, $00, $00, $00, $00, $00, $00, $00, $00, $00, $00, $00
04d18     B0 4E 00 00 | 	long	@@@_dat_ + 472
04d1c     B8 4E 00 00 | 	long	@@@_dat_ + 480
04d20     00 00 00 00 | 	byte	$00, $00, $00, $00
04d24     C0 4E 00 00 | 	long	@@@_dat_ + 488
04d28     C8 4E 00 00 | 	long	@@@_dat_ + 496
04d2c     00 00 00 00 
04d30     00 00 00 00 | 	byte	$00[8]
04d34     01 00 00 00 
04d38     06 00 00 00 
04d3c     00 00 00 00 
04d40     00 00 00 00 | 	byte	$01, $00, $00, $00, $06, $00, $00, $00, $00, $00, $00, $00, $00, $00, $00, $00
04d44     D0 4E 00 00 | 	long	@@@_dat_ + 504
04d48     D8 4E 00 00 | 	long	@@@_dat_ + 512
04d4c     00 00 00 00 | 	byte	$00, $00, $00, $00
04d50     E0 4E 00 00 | 	long	@@@_dat_ + 520
04d54     E8 4E 00 00 | 	long	@@@_dat_ + 528
04d58     00 00 00 00 
      ...             
04e8c     00 00 00 00 
04e90     00 00 00 00 | 	byte	$00[316]
04e94     D4 1B 00 00 | 	long	@@@__system___tx
04e98     00 00 00 00 | 	byte	$00, $00, $00, $00
04e9c     1C 1C 00 00 | 	long	@@@__system___rx
04ea0     00 00 00 00 | 	byte	$00, $00, $00, $00
04ea4     AC 0A 00 00 | 	long	@@@__rxtxioctl_0010
04ea8     00 00 00 00 | 	byte	$00, $00, $00, $00
04eac     14 0B 00 00 | 	long	@@@___dummy_flush_0011
04eb0     00 00 00 00 | 	byte	$00, $00, $00, $00
04eb4     D4 1B 00 00 | 	long	@@@__system___tx
04eb8     00 00 00 00 | 	byte	$00, $00, $00, $00
04ebc     1C 1C 00 00 | 	long	@@@__system___rx
04ec0     00 00 00 00 | 	byte	$00, $00, $00, $00
04ec4     AC 0A 00 00 | 	long	@@@__rxtxioctl_0010
04ec8     00 00 00 00 | 	byte	$00, $00, $00, $00
04ecc     14 0B 00 00 | 	long	@@@___dummy_flush_0011
04ed0     00 00 00 00 | 	byte	$00, $00, $00, $00
04ed4     D4 1B 00 00 | 	long	@@@__system___tx
04ed8     00 00 00 00 | 	byte	$00, $00, $00, $00
04edc     1C 1C 00 00 | 	long	@@@__system___rx
04ee0     00 00 00 00 | 	byte	$00, $00, $00, $00
04ee4     AC 0A 00 00 | 	long	@@@__rxtxioctl_0010
04ee8     00 00 00 00 | 	byte	$00, $00, $00, $00
04eec     14 0B 00 00 | 	long	@@@___dummy_flush_0011
04ef0                 | 	alignl
04ef0                 | __system__dat_
04ef0     00 00 00 00 
04ef4     00 00 00 00 | 	byte	$00[8]
04ef8     03 00 00 00 
04efc     00 00 00 00 
04f00     00 00 00 00 | 	byte	$03, $00, $00, $00, $00, $00, $00, $00, $00, $00, $00, $00
04f04                 | __heap_base
04f04     00 00 00 00 
      ...             
05f04     00 00 00 00 
05f08     00 00 00 00 | 	long	0[1026]
05f0c                 | objmem
05f0c                 | 	long	0[0]
05f0c                 | stackspace
05f0c     00 00 00 00 | 	long	0[1]
05f10 083             | 	org	COG_BSS_START
05f10 083             | __asfloat_0109_v_0108
05f10 083             | 	res	1
05f10 084             | __system__asFloat_0251_fi_0250
05f10 084             | 	res	1
05f10 085             | __system__asInt_0253_fi_0252
05f10 085             | 	res	1
05f10 086             | _tmp002_
05f10 086             | 	res	1
05f10 087             | _var01
05f10 087             | 	res	1
05f10 088             | _var02
05f10 088             | 	res	1
05f10 089             | _var03
05f10 089             | 	res	1
05f10 08a             | _var04
05f10 08a             | 	res	1
05f10 08b             | _var05
05f10 08b             | 	res	1
05f10 08c             | _var06
05f10 08c             | 	res	1
05f10 08d             | _var07
05f10 08d             | 	res	1
05f10 08e             | _var08
05f10 08e             | 	res	1
05f10 08f             | _var09
05f10 08f             | 	res	1
05f10 090             | arg01
05f10 090             | 	res	1
05f10 091             | arg02
05f10 091             | 	res	1
05f10 092             | arg03
05f10 092             | 	res	1
05f10 093             | arg04
05f10 093             | 	res	1
05f10 094             | arg05
05f10 094             | 	res	1
05f10 095             | local01
05f10 095             | 	res	1
05f10 096             | local02
05f10 096             | 	res	1
05f10 097             | local03
05f10 097             | 	res	1
05f10 098             | local04
05f10 098             | 	res	1
05f10 099             | local05
05f10 099             | 	res	1
05f10 09a             | local06
05f10 09a             | 	res	1
05f10 09b             | local07
05f10 09b             | 	res	1
05f10 09c             | local08
05f10 09c             | 	res	1
05f10 09d             | local09
05f10 09d             | 	res	1
05f10 09e             | local10
05f10 09e             | 	res	1
05f10 09f             | local11
05f10 09f             | 	res	1
05f10 0a0             | local12
05f10 0a0             | 	res	1
05f10 0a1             | local13
05f10 0a1             | 	res	1
05f10 0a2             | local14
05f10 0a2             | 	res	1
05f10 0a3             | local15
05f10 0a3             | 	res	1
05f10 0a4             | local16
05f10 0a4             | 	res	1
05f10 0a5             | local17
05f10 0a5             | 	res	1
05f10 0a6             | local18
05f10 0a6             | 	res	1
05f10 0a7             | local19
05f10 0a7             | 	res	1
05f10 0a8             | local20
05f10 0a8             | 	res	1
05f10 0a9             | local21
05f10 0a9             | 	res	1
05f10 0aa             | local22
05f10 0aa             | 	res	1
05f10 0ab             | muldiva_
05f10 0ab             | 	res	1
05f10 0ac             | muldivb_
05f10 0ac             | 	res	1
05f10 0ad             | 	fit	480